ARM GAS  /tmp/cc903aRa.s 			page 1


   1              		.cpu cortex-m4
   2              		.eabi_attribute 27, 1
   3              		.eabi_attribute 28, 1
   4              		.eabi_attribute 20, 1
   5              		.eabi_attribute 21, 1
   6              		.eabi_attribute 23, 3
   7              		.eabi_attribute 24, 1
   8              		.eabi_attribute 25, 1
   9              		.eabi_attribute 26, 1
  10              		.eabi_attribute 30, 1
  11              		.eabi_attribute 34, 1
  12              		.eabi_attribute 18, 4
  13              		.file	"astar.c"
  14              		.text
  15              	.Ltext0:
  16              		.cfi_sections	.debug_frame
  17              		.section	.text.init_cells,"ax",%progbits
  18              		.align	1
  19              		.syntax unified
  20              		.thumb
  21              		.thumb_func
  22              		.fpu fpv4-sp-d16
  24              	init_cells:
  25              	.LFB1:
  26              		.file 1 "Src/astar.c"
   1:Src/astar.c   **** #include <stdlib.h>
   2:Src/astar.c   **** #include <math.h>
   3:Src/astar.c   **** 
   4:Src/astar.c   **** #include "strategy.h"
   5:Src/astar.c   **** #include "heap.h"
   6:Src/astar.c   **** #include "map.h"
   7:Src/astar.c   **** 
   8:Src/astar.c   **** 
   9:Src/astar.c   **** #define D_ADJ 10
  10:Src/astar.c   **** #define D_DIAG 18
  11:Src/astar.c   **** 
  12:Src/astar.c   **** #define INFINITE ((uint16_t) ~0)
  13:Src/astar.c   **** //#define max(a,b) (((a)>(b))?(a):(b))
  14:Src/astar.c   **** 
  15:Src/astar.c   **** //Chebyshev distance
  16:Src/astar.c   **** #define H(s, goal) ({							\
  17:Src/astar.c   ****       uint32_t const dx = abs(s->x - goal->x);				\
  18:Src/astar.c   ****       uint32_t const dy = abs(s->y - goal->y);				\
  19:Src/astar.c   ****       ((dx > dy)?(10*(dx-dy)+14*dy):(10*(dy-dx)+14*dx));		\
  20:Src/astar.c   ****       })
  21:Src/astar.c   **** 
  22:Src/astar.c   **** //sqrt(pow(s->x - goal->x, 2) + pow(s->y - goal->y, 2))
  23:Src/astar.c   **** //max(abs((goal)->x - (s)->x), abs((goal)->y - (s)->y))
  24:Src/astar.c   **** 
  25:Src/astar.c   **** static void init_cells();
  26:Src/astar.c   **** 
  27:Src/astar.c   **** #define NEIGHBOR_NUMBER 8
  28:Src/astar.c   **** static int neighbor_offset[NEIGHBOR_NUMBER] = {
  29:Src/astar.c   ****   -MAP_WIDTH,
  30:Src/astar.c   ****   -1,
  31:Src/astar.c   ****   +1,
  32:Src/astar.c   ****   +MAP_WIDTH,
ARM GAS  /tmp/cc903aRa.s 			page 2


  33:Src/astar.c   ****   
  34:Src/astar.c   ****   -MAP_WIDTH-1,
  35:Src/astar.c   ****   -MAP_WIDTH+1,
  36:Src/astar.c   ****   +MAP_WIDTH-1,
  37:Src/astar.c   ****   +MAP_WIDTH+1};
  38:Src/astar.c   **** 
  39:Src/astar.c   **** #define NEIGHBOR(p_cell, k) (p_cell+neighbor_offset[k])  
  40:Src/astar.c   **** #define CHECK_NEIGHBOR(neighbor) (neighbor-&map[0][0] < (MAP_WIDTH * MAP_HEIGHT) && neighbor >= &ma
  41:Src/astar.c   **** 
  42:Src/astar.c   **** Cell* A_Star(Cell *start, Cell *goal){
  43:Src/astar.c   ****   empty_heap();
  44:Src/astar.c   ****   init_cells();
  45:Src/astar.c   **** 
  46:Src/astar.c   ****   start->g = 0;
  47:Src/astar.c   ****   start->f = H(start, goal);
  48:Src/astar.c   ****   insert(start);
  49:Src/astar.c   **** 
  50:Src/astar.c   ****   uint32_t max = 0;
  51:Src/astar.c   ****   while(!is_empty()){
  52:Src/astar.c   ****     Cell *current = peek();
  53:Src/astar.c   **** 
  54:Src/astar.c   ****     if(current == goal){
  55:Src/astar.c   ****       return goal;
  56:Src/astar.c   ****     }
  57:Src/astar.c   **** 
  58:Src/astar.c   ****     pop();
  59:Src/astar.c   ****     current->evaluated = 1;
  60:Src/astar.c   ****     
  61:Src/astar.c   ****     int k;
  62:Src/astar.c   ****     for(k = 0; k < NEIGHBOR_NUMBER; k++){
  63:Src/astar.c   ****       Cell *neighbor = NEIGHBOR(current, k);
  64:Src/astar.c   ****       
  65:Src/astar.c   ****       if(!CHECK_NEIGHBOR(neighbor) || neighbor->evaluated)
  66:Src/astar.c   **** 	continue;
  67:Src/astar.c   ****       
  68:Src/astar.c   ****       if(neighbor->new_){
  69:Src/astar.c   **** 	neighbor->new_ = 0;
  70:Src/astar.c   **** 	insert(neighbor);
  71:Src/astar.c   ****       }
  72:Src/astar.c   **** 
  73:Src/astar.c   ****       uint32_t g = current->g + ((k<4)?D_ADJ:D_DIAG);
  74:Src/astar.c   ****       if(g >= neighbor->g)
  75:Src/astar.c   **** 	continue;
  76:Src/astar.c   **** 
  77:Src/astar.c   ****       neighbor->pred = current;
  78:Src/astar.c   ****       neighbor->g = g;
  79:Src/astar.c   ****       neighbor->f = neighbor->g + H(neighbor, goal);
  80:Src/astar.c   ****       if(neighbor->f > max){
  81:Src/astar.c   **** 	max = neighbor->f;	
  82:Src/astar.c   ****       }
  83:Src/astar.c   ****     }
  84:Src/astar.c   ****   }
  85:Src/astar.c   ****   return NULL;
  86:Src/astar.c   **** }
  87:Src/astar.c   **** 
  88:Src/astar.c   **** static void init_cells(){
  27              		.loc 1 88 0
ARM GAS  /tmp/cc903aRa.s 			page 3


  28              		.cfi_startproc
  29              		@ args = 0, pretend = 0, frame = 0
  30              		@ frame_needed = 0, uses_anonymous_args = 0
  31              		@ link register save eliminated.
  32 0000 70B4     		push	{r4, r5, r6}
  33              	.LCFI0:
  34              		.cfi_def_cfa_offset 12
  35              		.cfi_offset 4, -12
  36              		.cfi_offset 5, -8
  37              		.cfi_offset 6, -4
  38              	.LVL0:
  89:Src/astar.c   ****   int x, y;
  90:Src/astar.c   ****   for(y = 0; y < MAP_HEIGHT; y++){
  39              		.loc 1 90 0
  40 0002 0025     		movs	r5, #0
  41 0004 14E0     		b	.L2
  42              	.LVL1:
  43              	.L3:
  44              	.LBB2:
  91:Src/astar.c   ****     for(x = 0; x < MAP_WIDTH; x++){
  92:Src/astar.c   ****       Cell *const cell = &map[y][x];
  93:Src/astar.c   ****       cell->g = cell->f = INFINITE;
  45              		.loc 1 93 0 discriminator 3
  46 0006 0D48     		ldr	r0, .L8
  47 0008 05EB8503 		add	r3, r5, r5, lsl #2
  48 000c C3EB0313 		rsb	r3, r3, r3, lsl #4
  49 0010 0B44     		add	r3, r3, r1
  50 0012 1B01     		lsls	r3, r3, #4
  51 0014 C218     		adds	r2, r0, r3
  52 0016 4FF6FF74 		movw	r4, #65535
  53 001a 9481     		strh	r4, [r2, #12]	@ movhi
  54 001c 5481     		strh	r4, [r2, #10]	@ movhi
  94:Src/astar.c   ****       cell->evaluated = 0;
  55              		.loc 1 94 0 discriminator 3
  56 001e 0024     		movs	r4, #0
  57 0020 D471     		strb	r4, [r2, #7]
  95:Src/astar.c   ****       cell->new_ = 1;
  58              		.loc 1 95 0 discriminator 3
  59 0022 0126     		movs	r6, #1
  60 0024 1672     		strb	r6, [r2, #8]
  96:Src/astar.c   ****       cell->pred = NULL;
  61              		.loc 1 96 0 discriminator 3
  62 0026 C450     		str	r4, [r0, r3]
  63              	.LBE2:
  91:Src/astar.c   ****       Cell *const cell = &map[y][x];
  64              		.loc 1 91 0 discriminator 3
  65 0028 3144     		add	r1, r1, r6
  66              	.LVL2:
  67              	.L4:
  91:Src/astar.c   ****       Cell *const cell = &map[y][x];
  68              		.loc 1 91 0 is_stmt 0 discriminator 1
  69 002a 4A29     		cmp	r1, #74
  70 002c EBDD     		ble	.L3
  90:Src/astar.c   ****     for(x = 0; x < MAP_WIDTH; x++){
  71              		.loc 1 90 0 is_stmt 1 discriminator 2
  72 002e 0135     		adds	r5, r5, #1
  73              	.LVL3:
ARM GAS  /tmp/cc903aRa.s 			page 4


  74              	.L2:
  90:Src/astar.c   ****     for(x = 0; x < MAP_WIDTH; x++){
  75              		.loc 1 90 0 is_stmt 0 discriminator 1
  76 0030 312D     		cmp	r5, #49
  77 0032 01DC     		bgt	.L7
  91:Src/astar.c   ****       Cell *const cell = &map[y][x];
  78              		.loc 1 91 0 is_stmt 1
  79 0034 0021     		movs	r1, #0
  80 0036 F8E7     		b	.L4
  81              	.L7:
  97:Src/astar.c   ****     }
  98:Src/astar.c   ****   }
  99:Src/astar.c   **** }
  82              		.loc 1 99 0
  83 0038 70BC     		pop	{r4, r5, r6}
  84              	.LCFI1:
  85              		.cfi_restore 6
  86              		.cfi_restore 5
  87              		.cfi_restore 4
  88              		.cfi_def_cfa_offset 0
  89              	.LVL4:
  90 003a 7047     		bx	lr
  91              	.L9:
  92              		.align	2
  93              	.L8:
  94 003c 00000000 		.word	map
  95              		.cfi_endproc
  96              	.LFE1:
  98              		.section	.text.A_Star,"ax",%progbits
  99              		.align	1
 100              		.global	A_Star
 101              		.syntax unified
 102              		.thumb
 103              		.thumb_func
 104              		.fpu fpv4-sp-d16
 106              	A_Star:
 107              	.LFB0:
  42:Src/astar.c   ****   empty_heap();
 108              		.loc 1 42 0
 109              		.cfi_startproc
 110              		@ args = 0, pretend = 0, frame = 0
 111              		@ frame_needed = 0, uses_anonymous_args = 0
 112              	.LVL5:
 113 0000 2DE9F843 		push	{r3, r4, r5, r6, r7, r8, r9, lr}
 114              	.LCFI2:
 115              		.cfi_def_cfa_offset 32
 116              		.cfi_offset 3, -32
 117              		.cfi_offset 4, -28
 118              		.cfi_offset 5, -24
 119              		.cfi_offset 6, -20
 120              		.cfi_offset 7, -16
 121              		.cfi_offset 8, -12
 122              		.cfi_offset 9, -8
 123              		.cfi_offset 14, -4
 124 0004 0446     		mov	r4, r0
 125 0006 8846     		mov	r8, r1
  43:Src/astar.c   ****   init_cells();
ARM GAS  /tmp/cc903aRa.s 			page 5


 126              		.loc 1 43 0
 127 0008 FFF7FEFF 		bl	empty_heap
 128              	.LVL6:
  44:Src/astar.c   **** 
 129              		.loc 1 44 0
 130 000c FFF7FEFF 		bl	init_cells
 131              	.LVL7:
  46:Src/astar.c   ****   start->f = H(start, goal);
 132              		.loc 1 46 0
 133 0010 0023     		movs	r3, #0
 134 0012 6381     		strh	r3, [r4, #10]	@ movhi
 135              	.LBB3:
  47:Src/astar.c   ****   insert(start);
 136              		.loc 1 47 0
 137 0014 6379     		ldrb	r3, [r4, #5]	@ zero_extendqisi2
 138 0016 98F80520 		ldrb	r2, [r8, #5]	@ zero_extendqisi2
 139 001a 9B1A     		subs	r3, r3, r2
 140 001c 002B     		cmp	r3, #0
 141 001e B8BF     		it	lt
 142 0020 5B42     		rsblt	r3, r3, #0
 143              	.LVL8:
 144 0022 A279     		ldrb	r2, [r4, #6]	@ zero_extendqisi2
 145 0024 98F80610 		ldrb	r1, [r8, #6]	@ zero_extendqisi2
 146 0028 521A     		subs	r2, r2, r1
 147 002a 002A     		cmp	r2, #0
 148 002c B8BF     		it	lt
 149 002e 5242     		rsblt	r2, r2, #0
 150              	.LVL9:
 151 0030 9342     		cmp	r3, r2
 152 0032 1CD9     		bls	.L11
  47:Src/astar.c   ****   insert(start);
 153              		.loc 1 47 0 is_stmt 0 discriminator 1
 154 0034 9B1A     		subs	r3, r3, r2
 155              	.LVL10:
 156 0036 03EB8303 		add	r3, r3, r3, lsl #2
 157 003a 5900     		lsls	r1, r3, #1
 158 003c C2EBC202 		rsb	r2, r2, r2, lsl #3
 159              	.LVL11:
 160 0040 5300     		lsls	r3, r2, #1
 161 0042 0B44     		add	r3, r3, r1
 162              	.L12:
 163              	.LBE3:
  47:Src/astar.c   ****   insert(start);
 164              		.loc 1 47 0 discriminator 4
 165 0044 A381     		strh	r3, [r4, #12]	@ movhi
 166              	.LVL12:
  48:Src/astar.c   **** 
 167              		.loc 1 48 0 is_stmt 1 discriminator 4
 168 0046 2046     		mov	r0, r4
 169 0048 FFF7FEFF 		bl	insert
 170              	.LVL13:
  50:Src/astar.c   ****   while(!is_empty()){
 171              		.loc 1 50 0 discriminator 4
 172 004c 4FF00009 		mov	r9, #0
 173              	.LVL14:
 174              	.L13:
  51:Src/astar.c   ****     Cell *current = peek();
ARM GAS  /tmp/cc903aRa.s 			page 6


 175              		.loc 1 51 0
 176 0050 FFF7FEFF 		bl	is_empty
 177              	.LVL15:
 178 0054 0546     		mov	r5, r0
 179 0056 0028     		cmp	r0, #0
 180 0058 68D1     		bne	.L27
 181              	.LBB4:
  52:Src/astar.c   **** 
 182              		.loc 1 52 0
 183 005a FFF7FEFF 		bl	peek
 184              	.LVL16:
 185 005e 0746     		mov	r7, r0
 186              	.LVL17:
  54:Src/astar.c   ****       return goal;
 187              		.loc 1 54 0
 188 0060 8045     		cmp	r8, r0
 189 0062 66D0     		beq	.L23
  58:Src/astar.c   ****     current->evaluated = 1;
 190              		.loc 1 58 0
 191 0064 FFF7FEFF 		bl	pop
 192              	.LVL18:
  59:Src/astar.c   ****     
 193              		.loc 1 59 0
 194 0068 0123     		movs	r3, #1
 195 006a FB71     		strb	r3, [r7, #7]
 196              	.LVL19:
  62:Src/astar.c   ****       Cell *neighbor = NEIGHBOR(current, k);
 197              		.loc 1 62 0
 198 006c 1AE0     		b	.L15
 199              	.LVL20:
 200              	.L11:
 201              	.LBE4:
 202              	.LBB9:
  47:Src/astar.c   ****   insert(start);
 203              		.loc 1 47 0 discriminator 2
 204 006e D21A     		subs	r2, r2, r3
 205              	.LVL21:
 206 0070 02EB8202 		add	r2, r2, r2, lsl #2
 207 0074 5100     		lsls	r1, r2, #1
 208              	.LVL22:
 209 0076 C3EBC303 		rsb	r3, r3, r3, lsl #3
 210              	.LVL23:
 211 007a 5A00     		lsls	r2, r3, #1
 212 007c 8B18     		adds	r3, r1, r2
 213 007e E1E7     		b	.L12
 214              	.LVL24:
 215              	.L28:
 216              	.LBE9:
 217              	.LBB10:
 218              	.LBB5:
  69:Src/astar.c   **** 	insert(neighbor);
 219              		.loc 1 69 0
 220 0080 0023     		movs	r3, #0
 221 0082 2372     		strb	r3, [r4, #8]
  70:Src/astar.c   ****       }
 222              		.loc 1 70 0
 223 0084 2046     		mov	r0, r4
ARM GAS  /tmp/cc903aRa.s 			page 7


 224 0086 FFF7FEFF 		bl	insert
 225              	.LVL25:
 226 008a 25E0     		b	.L17
 227              	.L24:
  73:Src/astar.c   ****       if(g >= neighbor->g)
 228              		.loc 1 73 0
 229 008c 1222     		movs	r2, #18
 230 008e 27E0     		b	.L18
 231              	.LVL26:
 232              	.L19:
 233              	.LBB6:
  79:Src/astar.c   ****       if(neighbor->f > max){
 234              		.loc 1 79 0 discriminator 2
 235 0090 891A     		subs	r1, r1, r2
 236              	.LVL27:
 237 0092 01EB8101 		add	r1, r1, r1, lsl #2
 238 0096 4800     		lsls	r0, r1, #1
 239              	.LVL28:
 240 0098 C2EBC202 		rsb	r2, r2, r2, lsl #3
 241              	.LVL29:
 242 009c 5100     		lsls	r1, r2, #1
 243 009e 4218     		adds	r2, r0, r1
 244 00a0 3DE0     		b	.L20
 245              	.LVL30:
 246              	.L16:
 247              	.LBE6:
 248              	.LBE5:
  62:Src/astar.c   ****       Cell *neighbor = NEIGHBOR(current, k);
 249              		.loc 1 62 0 discriminator 2
 250 00a2 0135     		adds	r5, r5, #1
 251              	.LVL31:
 252              	.L15:
  62:Src/astar.c   ****       Cell *neighbor = NEIGHBOR(current, k);
 253              		.loc 1 62 0 is_stmt 0 discriminator 1
 254 00a4 072D     		cmp	r5, #7
 255 00a6 D3DC     		bgt	.L13
 256              	.LBB8:
  63:Src/astar.c   ****       
 257              		.loc 1 63 0 is_stmt 1
 258 00a8 234B     		ldr	r3, .L29
 259 00aa 53F82560 		ldr	r6, [r3, r5, lsl #2]
 260 00ae 3601     		lsls	r6, r6, #4
 261 00b0 BC19     		adds	r4, r7, r6
 262              	.LVL32:
  65:Src/astar.c   **** 	continue;
 263              		.loc 1 65 0
 264 00b2 224B     		ldr	r3, .L29+4
 265 00b4 E31A     		subs	r3, r4, r3
 266 00b6 4EF65022 		movw	r2, #59984
 267 00ba 9342     		cmp	r3, r2
 268 00bc F1DC     		bgt	.L16
  65:Src/astar.c   **** 	continue;
 269              		.loc 1 65 0 is_stmt 0 discriminator 1
 270 00be 1F4B     		ldr	r3, .L29+4
 271 00c0 9C42     		cmp	r4, r3
 272 00c2 EED3     		bcc	.L16
  65:Src/astar.c   **** 	continue;
ARM GAS  /tmp/cc903aRa.s 			page 8


 273              		.loc 1 65 0 discriminator 2
 274 00c4 6368     		ldr	r3, [r4, #4]
 275 00c6 23F47F03 		bic	r3, r3, #16711680
 276 00ca 23F47F43 		bic	r3, r3, #65280
 277 00ce 002B     		cmp	r3, #0
 278 00d0 E7D1     		bne	.L16
  68:Src/astar.c   **** 	neighbor->new_ = 0;
 279              		.loc 1 68 0 is_stmt 1
 280 00d2 237A     		ldrb	r3, [r4, #8]	@ zero_extendqisi2
 281 00d4 002B     		cmp	r3, #0
 282 00d6 D3D1     		bne	.L28
 283              	.L17:
  73:Src/astar.c   ****       if(g >= neighbor->g)
 284              		.loc 1 73 0
 285 00d8 7B89     		ldrh	r3, [r7, #10]
 286 00da 032D     		cmp	r5, #3
 287 00dc D6DC     		bgt	.L24
 288 00de 0A22     		movs	r2, #10
 289              	.L18:
  73:Src/astar.c   ****       if(g >= neighbor->g)
 290              		.loc 1 73 0 is_stmt 0 discriminator 4
 291 00e0 1344     		add	r3, r3, r2
 292              	.LVL33:
  74:Src/astar.c   **** 	continue;
 293              		.loc 1 74 0 is_stmt 1 discriminator 4
 294 00e2 6289     		ldrh	r2, [r4, #10]
 295 00e4 9A42     		cmp	r2, r3
 296 00e6 DCD9     		bls	.L16
  77:Src/astar.c   ****       neighbor->g = g;
 297              		.loc 1 77 0
 298 00e8 BF51     		str	r7, [r7, r6]
  78:Src/astar.c   ****       neighbor->f = neighbor->g + H(neighbor, goal);
 299              		.loc 1 78 0
 300 00ea 9BB2     		uxth	r3, r3
 301              	.LVL34:
 302 00ec 6381     		strh	r3, [r4, #10]	@ movhi
 303              	.LBB7:
  79:Src/astar.c   ****       if(neighbor->f > max){
 304              		.loc 1 79 0
 305 00ee 6279     		ldrb	r2, [r4, #5]	@ zero_extendqisi2
 306 00f0 98F80510 		ldrb	r1, [r8, #5]	@ zero_extendqisi2
 307 00f4 521A     		subs	r2, r2, r1
 308 00f6 002A     		cmp	r2, #0
 309 00f8 B8BF     		it	lt
 310 00fa 5242     		rsblt	r2, r2, #0
 311              	.LVL35:
 312 00fc A179     		ldrb	r1, [r4, #6]	@ zero_extendqisi2
 313 00fe 98F80600 		ldrb	r0, [r8, #6]	@ zero_extendqisi2
 314 0102 091A     		subs	r1, r1, r0
 315 0104 0029     		cmp	r1, #0
 316 0106 B8BF     		it	lt
 317 0108 4942     		rsblt	r1, r1, #0
 318              	.LVL36:
 319 010a 8A42     		cmp	r2, r1
 320 010c C0D9     		bls	.L19
  79:Src/astar.c   ****       if(neighbor->f > max){
 321              		.loc 1 79 0 is_stmt 0 discriminator 1
ARM GAS  /tmp/cc903aRa.s 			page 9


 322 010e 521A     		subs	r2, r2, r1
 323              	.LVL37:
 324 0110 02EB8202 		add	r2, r2, r2, lsl #2
 325 0114 5000     		lsls	r0, r2, #1
 326 0116 C1EBC101 		rsb	r1, r1, r1, lsl #3
 327              	.LVL38:
 328 011a 4A00     		lsls	r2, r1, #1
 329 011c 0244     		add	r2, r2, r0
 330              	.L20:
 331              	.LBE7:
  79:Src/astar.c   ****       if(neighbor->f > max){
 332              		.loc 1 79 0 discriminator 4
 333 011e 1344     		add	r3, r3, r2
 334 0120 9BB2     		uxth	r3, r3
 335 0122 A381     		strh	r3, [r4, #12]	@ movhi
 336              	.LVL39:
  80:Src/astar.c   **** 	max = neighbor->f;	
 337              		.loc 1 80 0 is_stmt 1 discriminator 4
 338 0124 4B45     		cmp	r3, r9
 339 0126 BCD9     		bls	.L16
  81:Src/astar.c   ****       }
 340              		.loc 1 81 0
 341 0128 9946     		mov	r9, r3
 342              	.LVL40:
 343 012a BAE7     		b	.L16
 344              	.LVL41:
 345              	.L27:
 346              	.LBE8:
 347              	.LBE10:
  85:Src/astar.c   **** }
 348              		.loc 1 85 0
 349 012c 0020     		movs	r0, #0
 350              	.L10:
  86:Src/astar.c   **** 
 351              		.loc 1 86 0
 352 012e BDE8F883 		pop	{r3, r4, r5, r6, r7, r8, r9, pc}
 353              	.LVL42:
 354              	.L23:
 355              	.LBB11:
  55:Src/astar.c   ****     }
 356              		.loc 1 55 0
 357 0132 4046     		mov	r0, r8
 358              	.LVL43:
 359 0134 FBE7     		b	.L10
 360              	.L30:
 361 0136 00BF     		.align	2
 362              	.L29:
 363 0138 00000000 		.word	.LANCHOR0
 364 013c 00000000 		.word	map
 365              	.LBE11:
 366              		.cfi_endproc
 367              	.LFE0:
 369              		.section	.rodata.neighbor_offset,"a",%progbits
 370              		.align	2
 371              		.set	.LANCHOR0,. + 0
 374              	neighbor_offset:
 375 0000 B5FFFFFF 		.word	-75
ARM GAS  /tmp/cc903aRa.s 			page 10


 376 0004 FFFFFFFF 		.word	-1
 377 0008 01000000 		.word	1
 378 000c 4B000000 		.word	75
 379 0010 B4FFFFFF 		.word	-76
 380 0014 B6FFFFFF 		.word	-74
 381 0018 4A000000 		.word	74
 382 001c 4C000000 		.word	76
 383              		.text
 384              	.Letext0:
 385              		.file 2 "/usr/arm-none-eabi/include/machine/_default_types.h"
 386              		.file 3 "/usr/arm-none-eabi/include/sys/lock.h"
 387              		.file 4 "/usr/arm-none-eabi/include/sys/_types.h"
 388              		.file 5 "/usr/lib/gcc/arm-none-eabi/7.3.0/include/stddef.h"
 389              		.file 6 "/usr/arm-none-eabi/include/sys/reent.h"
 390              		.file 7 "/usr/arm-none-eabi/include/stdlib.h"
 391              		.file 8 "/usr/arm-none-eabi/include/math.h"
 392              		.file 9 "/usr/arm-none-eabi/include/sys/_stdint.h"
 393              		.file 10 "Inc/game_defs.h"
 394              		.file 11 "Inc/strategy.h"
 395              		.file 12 "Inc/map.h"
 396              		.file 13 "Inc/heap.h"
ARM GAS  /tmp/cc903aRa.s 			page 11

