Archive member included to satisfy reference by file (symbol)

/usr/lib/gcc/arm-none-eabi/7.3.0/../../../../arm-none-eabi/lib/armv7e-m/fpu/libc_nano.a(lib_a-atexit.o)
                              /usr/lib/gcc/arm-none-eabi/7.3.0/../../../../arm-none-eabi/lib/armv7e-m/fpu/crt0.o (atexit)
/usr/lib/gcc/arm-none-eabi/7.3.0/../../../../arm-none-eabi/lib/armv7e-m/fpu/libc_nano.a(lib_a-exit.o)
                              /usr/lib/gcc/arm-none-eabi/7.3.0/../../../../arm-none-eabi/lib/armv7e-m/fpu/crt0.o (exit)
/usr/lib/gcc/arm-none-eabi/7.3.0/../../../../arm-none-eabi/lib/armv7e-m/fpu/libc_nano.a(lib_a-fini.o)
                              /usr/lib/gcc/arm-none-eabi/7.3.0/../../../../arm-none-eabi/lib/armv7e-m/fpu/crt0.o (__libc_fini_array)
/usr/lib/gcc/arm-none-eabi/7.3.0/../../../../arm-none-eabi/lib/armv7e-m/fpu/libc_nano.a(lib_a-impure.o)
                              /usr/lib/gcc/arm-none-eabi/7.3.0/../../../../arm-none-eabi/lib/armv7e-m/fpu/libc_nano.a(lib_a-exit.o) (_global_impure_ptr)
/usr/lib/gcc/arm-none-eabi/7.3.0/../../../../arm-none-eabi/lib/armv7e-m/fpu/libc_nano.a(lib_a-init.o)
                              /usr/lib/gcc/arm-none-eabi/7.3.0/../../../../arm-none-eabi/lib/armv7e-m/fpu/crt0.o (__libc_init_array)
/usr/lib/gcc/arm-none-eabi/7.3.0/../../../../arm-none-eabi/lib/armv7e-m/fpu/libc_nano.a(lib_a-memcpy-stub.o)
                              build/vl53l0x_platform.o (memcpy)
/usr/lib/gcc/arm-none-eabi/7.3.0/../../../../arm-none-eabi/lib/armv7e-m/fpu/libc_nano.a(lib_a-memset.o)
                              /usr/lib/gcc/arm-none-eabi/7.3.0/../../../../arm-none-eabi/lib/armv7e-m/fpu/crt0.o (memset)
/usr/lib/gcc/arm-none-eabi/7.3.0/../../../../arm-none-eabi/lib/armv7e-m/fpu/libc_nano.a(lib_a-nano-vfprintf_float.o)
                              (_printf_float)
/usr/lib/gcc/arm-none-eabi/7.3.0/../../../../arm-none-eabi/lib/armv7e-m/fpu/libc_nano.a(lib_a-nano-vfprintf_i.o)
                              /usr/lib/gcc/arm-none-eabi/7.3.0/../../../../arm-none-eabi/lib/armv7e-m/fpu/libc_nano.a(lib_a-nano-vfprintf_float.o) (_printf_common)
/usr/lib/gcc/arm-none-eabi/7.3.0/../../../../arm-none-eabi/lib/armv7e-m/fpu/libc_nano.a(lib_a-qsort.o)
                              build/strategy.o (qsort)
/usr/lib/gcc/arm-none-eabi/7.3.0/../../../../arm-none-eabi/lib/armv7e-m/fpu/libc_nano.a(lib_a-strcpy.o)
                              build/vl53l0x_api_core.o (strcpy)
/usr/lib/gcc/arm-none-eabi/7.3.0/../../../../arm-none-eabi/lib/armv7e-m/fpu/libc_nano.a(lib_a-strlen.o)
                              /usr/lib/gcc/arm-none-eabi/7.3.0/../../../../arm-none-eabi/lib/armv7e-m/fpu/libc_nano.a(lib_a-nano-vfprintf_float.o) (strlen)
/usr/lib/gcc/arm-none-eabi/7.3.0/../../../../arm-none-eabi/lib/armv7e-m/fpu/libc_nano.a(lib_a-vsnprintf.o)
                              build/pi_client.o (vsnprintf)
/usr/lib/gcc/arm-none-eabi/7.3.0/../../../../arm-none-eabi/lib/armv7e-m/fpu/libc_nano.a(lib_a-__atexit.o)
                              /usr/lib/gcc/arm-none-eabi/7.3.0/../../../../arm-none-eabi/lib/armv7e-m/fpu/libc_nano.a(lib_a-atexit.o) (__register_exitproc)
/usr/lib/gcc/arm-none-eabi/7.3.0/../../../../arm-none-eabi/lib/armv7e-m/fpu/libc_nano.a(lib_a-__call_atexit.o)
                              /usr/lib/gcc/arm-none-eabi/7.3.0/../../../../arm-none-eabi/lib/armv7e-m/fpu/libc_nano.a(lib_a-__atexit.o) (__call_exitprocs)
/usr/lib/gcc/arm-none-eabi/7.3.0/../../../../arm-none-eabi/lib/armv7e-m/fpu/libc_nano.a(lib_a-dtoa.o)
                              /usr/lib/gcc/arm-none-eabi/7.3.0/../../../../arm-none-eabi/lib/armv7e-m/fpu/libc_nano.a(lib_a-nano-vfprintf_float.o) (_dtoa_r)
/usr/lib/gcc/arm-none-eabi/7.3.0/../../../../arm-none-eabi/lib/armv7e-m/fpu/libc_nano.a(lib_a-localeconv.o)
                              /usr/lib/gcc/arm-none-eabi/7.3.0/../../../../arm-none-eabi/lib/armv7e-m/fpu/libc_nano.a(lib_a-nano-vfprintf_float.o) (_localeconv_r)
/usr/lib/gcc/arm-none-eabi/7.3.0/../../../../arm-none-eabi/lib/armv7e-m/fpu/libc_nano.a(lib_a-locale.o)
                              /usr/lib/gcc/arm-none-eabi/7.3.0/../../../../arm-none-eabi/lib/armv7e-m/fpu/libc_nano.a(lib_a-localeconv.o) (__global_locale)
/usr/lib/gcc/arm-none-eabi/7.3.0/../../../../arm-none-eabi/lib/armv7e-m/fpu/libc_nano.a(lib_a-malloc.o)
                              /usr/lib/gcc/arm-none-eabi/7.3.0/../../../../arm-none-eabi/lib/armv7e-m/fpu/libc_nano.a(lib_a-dtoa.o) (malloc)
/usr/lib/gcc/arm-none-eabi/7.3.0/../../../../arm-none-eabi/lib/armv7e-m/fpu/libc_nano.a(lib_a-mbtowc_r.o)
                              /usr/lib/gcc/arm-none-eabi/7.3.0/../../../../arm-none-eabi/lib/armv7e-m/fpu/libc_nano.a(lib_a-locale.o) (__ascii_mbtowc)
/usr/lib/gcc/arm-none-eabi/7.3.0/../../../../arm-none-eabi/lib/armv7e-m/fpu/libc_nano.a(lib_a-memchr.o)
                              /usr/lib/gcc/arm-none-eabi/7.3.0/../../../../arm-none-eabi/lib/armv7e-m/fpu/libc_nano.a(lib_a-nano-vfprintf_i.o) (memchr)
/usr/lib/gcc/arm-none-eabi/7.3.0/../../../../arm-none-eabi/lib/armv7e-m/fpu/libc_nano.a(lib_a-mprec.o)
                              /usr/lib/gcc/arm-none-eabi/7.3.0/../../../../arm-none-eabi/lib/armv7e-m/fpu/libc_nano.a(lib_a-dtoa.o) (_Balloc)
/usr/lib/gcc/arm-none-eabi/7.3.0/../../../../arm-none-eabi/lib/armv7e-m/fpu/libc_nano.a(lib_a-nano-callocr.o)
                              /usr/lib/gcc/arm-none-eabi/7.3.0/../../../../arm-none-eabi/lib/armv7e-m/fpu/libc_nano.a(lib_a-mprec.o) (_calloc_r)
/usr/lib/gcc/arm-none-eabi/7.3.0/../../../../arm-none-eabi/lib/armv7e-m/fpu/libc_nano.a(lib_a-nano-freer.o)
                              /usr/lib/gcc/arm-none-eabi/7.3.0/../../../../arm-none-eabi/lib/armv7e-m/fpu/libc_nano.a(lib_a-malloc.o) (_free_r)
/usr/lib/gcc/arm-none-eabi/7.3.0/../../../../arm-none-eabi/lib/armv7e-m/fpu/libc_nano.a(lib_a-nano-mallocr.o)
                              /usr/lib/gcc/arm-none-eabi/7.3.0/../../../../arm-none-eabi/lib/armv7e-m/fpu/libc_nano.a(lib_a-malloc.o) (_malloc_r)
/usr/lib/gcc/arm-none-eabi/7.3.0/../../../../arm-none-eabi/lib/armv7e-m/fpu/libc_nano.a(lib_a-nano-svfprintf.o)
                              /usr/lib/gcc/arm-none-eabi/7.3.0/../../../../arm-none-eabi/lib/armv7e-m/fpu/libc_nano.a(lib_a-vsnprintf.o) (_svfprintf_r)
/usr/lib/gcc/arm-none-eabi/7.3.0/../../../../arm-none-eabi/lib/armv7e-m/fpu/libc_nano.a(lib_a-sbrkr.o)
                              /usr/lib/gcc/arm-none-eabi/7.3.0/../../../../arm-none-eabi/lib/armv7e-m/fpu/libc_nano.a(lib_a-nano-mallocr.o) (_sbrk_r)
/usr/lib/gcc/arm-none-eabi/7.3.0/../../../../arm-none-eabi/lib/armv7e-m/fpu/libc_nano.a(lib_a-strcmp.o)
                              /usr/lib/gcc/arm-none-eabi/7.3.0/../../../../arm-none-eabi/lib/armv7e-m/fpu/libc_nano.a(lib_a-locale.o) (strcmp)
/usr/lib/gcc/arm-none-eabi/7.3.0/../../../../arm-none-eabi/lib/armv7e-m/fpu/libc_nano.a(lib_a-wctomb_r.o)
                              /usr/lib/gcc/arm-none-eabi/7.3.0/../../../../arm-none-eabi/lib/armv7e-m/fpu/libc_nano.a(lib_a-locale.o) (__ascii_wctomb)
/usr/lib/gcc/arm-none-eabi/7.3.0/../../../../arm-none-eabi/lib/armv7e-m/fpu/libc_nano.a(lib_a-ctype_.o)
                              /usr/lib/gcc/arm-none-eabi/7.3.0/../../../../arm-none-eabi/lib/armv7e-m/fpu/libc_nano.a(lib_a-locale.o) (_ctype_)
/usr/lib/gcc/arm-none-eabi/7.3.0/../../../../arm-none-eabi/lib/armv7e-m/fpu/libc_nano.a(lib_a-memmove.o)
                              /usr/lib/gcc/arm-none-eabi/7.3.0/../../../../arm-none-eabi/lib/armv7e-m/fpu/libc_nano.a(lib_a-nano-svfprintf.o) (memmove)
/usr/lib/gcc/arm-none-eabi/7.3.0/../../../../arm-none-eabi/lib/armv7e-m/fpu/libc_nano.a(lib_a-mlock.o)
                              /usr/lib/gcc/arm-none-eabi/7.3.0/../../../../arm-none-eabi/lib/armv7e-m/fpu/libc_nano.a(lib_a-nano-freer.o) (__malloc_lock)
/usr/lib/gcc/arm-none-eabi/7.3.0/../../../../arm-none-eabi/lib/armv7e-m/fpu/libc_nano.a(lib_a-nano-reallocr.o)
                              /usr/lib/gcc/arm-none-eabi/7.3.0/../../../../arm-none-eabi/lib/armv7e-m/fpu/libc_nano.a(lib_a-nano-svfprintf.o) (_realloc_r)
/usr/lib/gcc/arm-none-eabi/7.3.0/../../../../arm-none-eabi/lib/armv7e-m/fpu/libc_nano.a(lib_a-reent.o)
                              /usr/lib/gcc/arm-none-eabi/7.3.0/../../../../arm-none-eabi/lib/armv7e-m/fpu/libc_nano.a(lib_a-sbrkr.o) (errno)
/usr/lib/gcc/arm-none-eabi/7.3.0/../../../../arm-none-eabi/lib/armv7e-m/fpu/libc_nano.a(lib_a-nano-msizer.o)
                              /usr/lib/gcc/arm-none-eabi/7.3.0/../../../../arm-none-eabi/lib/armv7e-m/fpu/libc_nano.a(lib_a-nano-reallocr.o) (_malloc_usable_size_r)
/usr/lib/gcc/arm-none-eabi/7.3.0/../../../../arm-none-eabi/lib/armv7e-m/fpu/libm.a(lib_a-s_cos.o)
                              build/obstacle.o (cos)
/usr/lib/gcc/arm-none-eabi/7.3.0/../../../../arm-none-eabi/lib/armv7e-m/fpu/libm.a(lib_a-s_sin.o)
                              build/obstacle.o (sin)
/usr/lib/gcc/arm-none-eabi/7.3.0/../../../../arm-none-eabi/lib/armv7e-m/fpu/libm.a(lib_a-w_atan2.o)
                              build/strategy.o (atan2)
/usr/lib/gcc/arm-none-eabi/7.3.0/../../../../arm-none-eabi/lib/armv7e-m/fpu/libm.a(lib_a-w_pow.o)
                              build/obstacle.o (pow)
/usr/lib/gcc/arm-none-eabi/7.3.0/../../../../arm-none-eabi/lib/armv7e-m/fpu/libm.a(lib_a-w_sqrt.o)
                              build/map.o (sqrt)
/usr/lib/gcc/arm-none-eabi/7.3.0/../../../../arm-none-eabi/lib/armv7e-m/fpu/libm.a(lib_a-e_atan2.o)
                              /usr/lib/gcc/arm-none-eabi/7.3.0/../../../../arm-none-eabi/lib/armv7e-m/fpu/libm.a(lib_a-w_atan2.o) (__ieee754_atan2)
/usr/lib/gcc/arm-none-eabi/7.3.0/../../../../arm-none-eabi/lib/armv7e-m/fpu/libm.a(lib_a-e_pow.o)
                              /usr/lib/gcc/arm-none-eabi/7.3.0/../../../../arm-none-eabi/lib/armv7e-m/fpu/libm.a(lib_a-w_pow.o) (__ieee754_pow)
/usr/lib/gcc/arm-none-eabi/7.3.0/../../../../arm-none-eabi/lib/armv7e-m/fpu/libm.a(lib_a-e_rem_pio2.o)
                              /usr/lib/gcc/arm-none-eabi/7.3.0/../../../../arm-none-eabi/lib/armv7e-m/fpu/libm.a(lib_a-s_cos.o) (__ieee754_rem_pio2)
/usr/lib/gcc/arm-none-eabi/7.3.0/../../../../arm-none-eabi/lib/armv7e-m/fpu/libm.a(lib_a-e_sqrt.o)
                              /usr/lib/gcc/arm-none-eabi/7.3.0/../../../../arm-none-eabi/lib/armv7e-m/fpu/libm.a(lib_a-w_sqrt.o) (__ieee754_sqrt)
/usr/lib/gcc/arm-none-eabi/7.3.0/../../../../arm-none-eabi/lib/armv7e-m/fpu/libm.a(lib_a-k_cos.o)
                              /usr/lib/gcc/arm-none-eabi/7.3.0/../../../../arm-none-eabi/lib/armv7e-m/fpu/libm.a(lib_a-s_cos.o) (__kernel_cos)
/usr/lib/gcc/arm-none-eabi/7.3.0/../../../../arm-none-eabi/lib/armv7e-m/fpu/libm.a(lib_a-k_rem_pio2.o)
                              /usr/lib/gcc/arm-none-eabi/7.3.0/../../../../arm-none-eabi/lib/armv7e-m/fpu/libm.a(lib_a-e_rem_pio2.o) (__kernel_rem_pio2)
/usr/lib/gcc/arm-none-eabi/7.3.0/../../../../arm-none-eabi/lib/armv7e-m/fpu/libm.a(lib_a-k_sin.o)
                              /usr/lib/gcc/arm-none-eabi/7.3.0/../../../../arm-none-eabi/lib/armv7e-m/fpu/libm.a(lib_a-s_cos.o) (__kernel_sin)
/usr/lib/gcc/arm-none-eabi/7.3.0/../../../../arm-none-eabi/lib/armv7e-m/fpu/libm.a(lib_a-s_atan.o)
                              /usr/lib/gcc/arm-none-eabi/7.3.0/../../../../arm-none-eabi/lib/armv7e-m/fpu/libm.a(lib_a-e_atan2.o) (atan)
/usr/lib/gcc/arm-none-eabi/7.3.0/../../../../arm-none-eabi/lib/armv7e-m/fpu/libm.a(lib_a-s_fabs.o)
                              /usr/lib/gcc/arm-none-eabi/7.3.0/../../../../arm-none-eabi/lib/armv7e-m/fpu/libm.a(lib_a-e_atan2.o) (fabs)
/usr/lib/gcc/arm-none-eabi/7.3.0/../../../../arm-none-eabi/lib/armv7e-m/fpu/libm.a(lib_a-s_finite.o)
                              /usr/lib/gcc/arm-none-eabi/7.3.0/../../../../arm-none-eabi/lib/armv7e-m/fpu/libm.a(lib_a-w_pow.o) (finite)
/usr/lib/gcc/arm-none-eabi/7.3.0/../../../../arm-none-eabi/lib/armv7e-m/fpu/libm.a(lib_a-s_floor.o)
                              /usr/lib/gcc/arm-none-eabi/7.3.0/../../../../arm-none-eabi/lib/armv7e-m/fpu/libm.a(lib_a-k_rem_pio2.o) (floor)
/usr/lib/gcc/arm-none-eabi/7.3.0/../../../../arm-none-eabi/lib/armv7e-m/fpu/libm.a(lib_a-s_lib_ver.o)
                              /usr/lib/gcc/arm-none-eabi/7.3.0/../../../../arm-none-eabi/lib/armv7e-m/fpu/libm.a(lib_a-w_pow.o) (__fdlib_version)
/usr/lib/gcc/arm-none-eabi/7.3.0/../../../../arm-none-eabi/lib/armv7e-m/fpu/libm.a(lib_a-s_matherr.o)
                              /usr/lib/gcc/arm-none-eabi/7.3.0/../../../../arm-none-eabi/lib/armv7e-m/fpu/libm.a(lib_a-w_pow.o) (matherr)
/usr/lib/gcc/arm-none-eabi/7.3.0/../../../../arm-none-eabi/lib/armv7e-m/fpu/libm.a(lib_a-s_nan.o)
                              /usr/lib/gcc/arm-none-eabi/7.3.0/../../../../arm-none-eabi/lib/armv7e-m/fpu/libm.a(lib_a-e_pow.o) (nan)
/usr/lib/gcc/arm-none-eabi/7.3.0/../../../../arm-none-eabi/lib/armv7e-m/fpu/libm.a(lib_a-s_rint.o)
                              /usr/lib/gcc/arm-none-eabi/7.3.0/../../../../arm-none-eabi/lib/armv7e-m/fpu/libm.a(lib_a-w_pow.o) (rint)
/usr/lib/gcc/arm-none-eabi/7.3.0/../../../../arm-none-eabi/lib/armv7e-m/fpu/libm.a(lib_a-s_scalbn.o)
                              /usr/lib/gcc/arm-none-eabi/7.3.0/../../../../arm-none-eabi/lib/armv7e-m/fpu/libm.a(lib_a-e_pow.o) (scalbn)
/usr/lib/gcc/arm-none-eabi/7.3.0/../../../../arm-none-eabi/lib/armv7e-m/fpu/libm.a(lib_a-s_copysign.o)
                              /usr/lib/gcc/arm-none-eabi/7.3.0/../../../../arm-none-eabi/lib/armv7e-m/fpu/libm.a(lib_a-s_scalbn.o) (copysign)
/usr/lib/gcc/arm-none-eabi/7.3.0/../../../../arm-none-eabi/lib/armv7e-m/fpu/libnosys.a(sbrk.o)
                              /usr/lib/gcc/arm-none-eabi/7.3.0/../../../../arm-none-eabi/lib/armv7e-m/fpu/libc_nano.a(lib_a-sbrkr.o) (_sbrk)
/usr/lib/gcc/arm-none-eabi/7.3.0/../../../../arm-none-eabi/lib/armv7e-m/fpu/libnosys.a(_exit.o)
                              /usr/lib/gcc/arm-none-eabi/7.3.0/../../../../arm-none-eabi/lib/armv7e-m/fpu/libc_nano.a(lib_a-exit.o) (_exit)
/usr/lib/gcc/arm-none-eabi/7.3.0/armv7e-m/fpu/libgcc.a(_arm_addsubdf3.o)
                              build/map.o (__aeabi_dsub)
/usr/lib/gcc/arm-none-eabi/7.3.0/armv7e-m/fpu/libgcc.a(_arm_muldivdf3.o)
                              build/obstacle.o (__aeabi_dmul)
/usr/lib/gcc/arm-none-eabi/7.3.0/armv7e-m/fpu/libgcc.a(_arm_cmpdf2.o)
                              /usr/lib/gcc/arm-none-eabi/7.3.0/../../../../arm-none-eabi/lib/armv7e-m/fpu/libc_nano.a(lib_a-nano-vfprintf_float.o) (__aeabi_dcmpeq)
/usr/lib/gcc/arm-none-eabi/7.3.0/armv7e-m/fpu/libgcc.a(_arm_unorddf2.o)
                              /usr/lib/gcc/arm-none-eabi/7.3.0/../../../../arm-none-eabi/lib/armv7e-m/fpu/libc_nano.a(lib_a-nano-vfprintf_float.o) (__aeabi_dcmpun)
/usr/lib/gcc/arm-none-eabi/7.3.0/armv7e-m/fpu/libgcc.a(_arm_fixdfsi.o)
                              build/map.o (__aeabi_d2iz)
/usr/lib/gcc/arm-none-eabi/7.3.0/armv7e-m/fpu/libgcc.a(_arm_fixunsdfsi.o)
                              build/map.o (__aeabi_d2uiz)
/usr/lib/gcc/arm-none-eabi/7.3.0/armv7e-m/fpu/libgcc.a(_arm_truncdfsf2.o)
                              build/remote_call.o (__aeabi_d2f)
/usr/lib/gcc/arm-none-eabi/7.3.0/armv7e-m/fpu/libgcc.a(_aeabi_uldivmod.o)
                              build/stm32f4xx_hal_rcc.o (__aeabi_uldivmod)
/usr/lib/gcc/arm-none-eabi/7.3.0/armv7e-m/fpu/libgcc.a(_udivmoddi4.o)
                              /usr/lib/gcc/arm-none-eabi/7.3.0/armv7e-m/fpu/libgcc.a(_aeabi_uldivmod.o) (__udivmoddi4)
/usr/lib/gcc/arm-none-eabi/7.3.0/armv7e-m/fpu/libgcc.a(_dvmd_tls.o)
                              /usr/lib/gcc/arm-none-eabi/7.3.0/armv7e-m/fpu/libgcc.a(_aeabi_uldivmod.o) (__aeabi_ldiv0)
/usr/lib/gcc/arm-none-eabi/7.3.0/../../../../arm-none-eabi/lib/armv7e-m/fpu/libc_nano.a(lib_a-errno.o)
                              /usr/lib/gcc/arm-none-eabi/7.3.0/../../../../arm-none-eabi/lib/armv7e-m/fpu/libm.a(lib_a-w_pow.o) (__errno)

Allocating common symbols
Common symbol       size              file

map                 0xea60            build/map.o
hi2c3               0x54              build/i2c.o
me                  0x18              build/strategy.o
from_y              0x2               build/strategy.o
errno               0x4               /usr/lib/gcc/arm-none-eabi/7.3.0/../../../../arm-none-eabi/lib/armv7e-m/fpu/libc_nano.a(lib_a-reent.o)
hi2c1               0x54              build/i2c.o
_I2CBuffer          0x40              build/vl53l0x_platform.o
uwTick              0x4               build/stm32f4xx_hal.o
pFlash              0x20              build/stm32f4xx_hal_flash.o
z_iface             0x41c             build/usart.o
htim3               0x3c              build/tim.o
obstacle            0x50              build/obstacle.o
sensor_raw          0x8               build/obstacle.o
tof                 0x6b0             build/main.o
strat               0x64              build/strategy.o
from_x              0x2               build/strategy.o
htim2               0x3c              build/tim.o
pi_iface            0x41c             build/usart.o
pos_iface           0x41c             build/usart.o
team                0x1               build/strategy.o

Discarded input sections

 .text          0x0000000000000000        0x0 /usr/lib/gcc/arm-none-eabi/7.3.0/armv7e-m/fpu/crti.o
 .data          0x0000000000000000        0x0 /usr/lib/gcc/arm-none-eabi/7.3.0/armv7e-m/fpu/crti.o
 .bss           0x0000000000000000        0x0 /usr/lib/gcc/arm-none-eabi/7.3.0/armv7e-m/fpu/crti.o
 .text          0x0000000000000000        0x0 /usr/lib/gcc/arm-none-eabi/7.3.0/armv7e-m/fpu/crtbegin.o
 .data          0x0000000000000000        0x0 /usr/lib/gcc/arm-none-eabi/7.3.0/armv7e-m/fpu/crtbegin.o
 .bss           0x0000000000000000        0x0 /usr/lib/gcc/arm-none-eabi/7.3.0/armv7e-m/fpu/crtbegin.o
 .data.__dso_handle
                0x0000000000000000        0x4 /usr/lib/gcc/arm-none-eabi/7.3.0/armv7e-m/fpu/crtbegin.o
 .text          0x0000000000000000       0x68 /usr/lib/gcc/arm-none-eabi/7.3.0/../../../../arm-none-eabi/lib/armv7e-m/fpu/crt0.o
 .data          0x0000000000000000        0x0 /usr/lib/gcc/arm-none-eabi/7.3.0/../../../../arm-none-eabi/lib/armv7e-m/fpu/crt0.o
 .bss           0x0000000000000000        0x0 /usr/lib/gcc/arm-none-eabi/7.3.0/../../../../arm-none-eabi/lib/armv7e-m/fpu/crt0.o
 .ARM.extab     0x0000000000000000        0x0 /usr/lib/gcc/arm-none-eabi/7.3.0/../../../../arm-none-eabi/lib/armv7e-m/fpu/crt0.o
 .ARM.exidx     0x0000000000000000        0x8 /usr/lib/gcc/arm-none-eabi/7.3.0/../../../../arm-none-eabi/lib/armv7e-m/fpu/crt0.o
 .ARM.attributes
                0x0000000000000000       0x20 /usr/lib/gcc/arm-none-eabi/7.3.0/../../../../arm-none-eabi/lib/armv7e-m/fpu/crt0.o
 .text          0x0000000000000000        0x0 build/crc_16.o
 .data          0x0000000000000000        0x0 build/crc_16.o
 .bss           0x0000000000000000        0x0 build/crc_16.o
 .text          0x0000000000000000        0x0 build/robotronik_protocol.o
 .data          0x0000000000000000        0x0 build/robotronik_protocol.o
 .bss           0x0000000000000000        0x0 build/robotronik_protocol.o
 .text.RP_Packet_Received
                0x0000000000000000        0x2 build/robotronik_protocol.o
 .text.RP_Get_Error
                0x0000000000000000        0xc build/robotronik_protocol.o
 .text          0x0000000000000000        0x0 build/remote_call.o
 .data          0x0000000000000000        0x0 build/remote_call.o
 .bss           0x0000000000000000        0x0 build/remote_call.o
 .text.RC_Get_Error
                0x0000000000000000        0xc build/remote_call.o
 .text.RC_Server_Init
                0x0000000000000000       0x1a build/remote_call.o
 .text.RC_Server_Add_Function
                0x0000000000000000       0x60 build/remote_call.o
 .text.RC_Server_Get_Request
                0x0000000000000000       0x80 build/remote_call.o
 .text.RC_Server_Poll
                0x0000000000000000       0x26 build/remote_call.o
 .text.RC_Server_Get_Args
                0x0000000000000000       0x36 build/remote_call.o
 .text.RC_Server_Return
                0x0000000000000000       0x70 build/remote_call.o
 .text          0x0000000000000000        0x0 build/tof.o
 .data          0x0000000000000000        0x0 build/tof.o
 .bss           0x0000000000000000        0x0 build/tof.o
 .text.ToF_Perform_Measurement
                0x0000000000000000       0x2a build/tof.o
 .text          0x0000000000000000        0x0 build/system.o
 .data          0x0000000000000000        0x0 build/system.o
 .bss           0x0000000000000000        0x0 build/system.o
 .text.Print_ToF
                0x0000000000000000       0x58 build/system.o
 .rodata.Print_ToF.str1.4
                0x0000000000000000       0x2e build/system.o
 .text          0x0000000000000000        0x0 build/pi_client.o
 .data          0x0000000000000000        0x0 build/pi_client.o
 .bss           0x0000000000000000        0x0 build/pi_client.o
 .text.PI_Score
                0x0000000000000000       0x14 build/pi_client.o
 .text.PI_Plan  0x0000000000000000      0x14c build/pi_client.o
 .text          0x0000000000000000        0x0 build/heap.o
 .data          0x0000000000000000        0x0 build/heap.o
 .bss           0x0000000000000000        0x0 build/heap.o
 .text.empty_heap
                0x0000000000000000        0xc build/heap.o
 .text.is_empty
                0x0000000000000000       0x10 build/heap.o
 .text.is_full  0x0000000000000000       0x18 build/heap.o
 .text.insert   0x0000000000000000       0x64 build/heap.o
 .text.pop      0x0000000000000000       0xac build/heap.o
 .text.peek     0x0000000000000000       0x18 build/heap.o
 .bss.heap      0x0000000000000000     0x3a98 build/heap.o
 .bss.heap_size
                0x0000000000000000        0x4 build/heap.o
 .debug_info    0x0000000000000000      0xce2 build/heap.o
 .debug_abbrev  0x0000000000000000      0x2bb build/heap.o
 .debug_loc     0x0000000000000000      0x312 build/heap.o
 .debug_aranges
                0x0000000000000000       0x48 build/heap.o
 .debug_ranges  0x0000000000000000       0x70 build/heap.o
 .debug_line    0x0000000000000000      0x1b7 build/heap.o
 .debug_str     0x0000000000000000      0x626 build/heap.o
 .comment       0x0000000000000000       0x1e build/heap.o
 .debug_frame   0x0000000000000000       0xc4 build/heap.o
 .ARM.attributes
                0x0000000000000000       0x39 build/heap.o
 .text          0x0000000000000000        0x0 build/map.o
 .data          0x0000000000000000        0x0 build/map.o
 .bss           0x0000000000000000        0x0 build/map.o
 .text.Cell_From_Pos
                0x0000000000000000       0x38 build/map.o
 .text          0x0000000000000000        0x0 build/astar.o
 .data          0x0000000000000000        0x0 build/astar.o
 .bss           0x0000000000000000        0x0 build/astar.o
 .text.init_cells
                0x0000000000000000       0x40 build/astar.o
 .text.A_Star   0x0000000000000000      0x140 build/astar.o
 .rodata.neighbor_offset
                0x0000000000000000       0x20 build/astar.o
 .debug_info    0x0000000000000000     0x10bc build/astar.o
 .debug_abbrev  0x0000000000000000      0x29c build/astar.o
 .debug_loc     0x0000000000000000      0x475 build/astar.o
 .debug_aranges
                0x0000000000000000       0x28 build/astar.o
 .debug_ranges  0x0000000000000000       0x80 build/astar.o
 .debug_line    0x0000000000000000      0x20d build/astar.o
 .debug_str     0x0000000000000000      0x961 build/astar.o
 .comment       0x0000000000000000       0x1e build/astar.o
 .debug_frame   0x0000000000000000       0x64 build/astar.o
 .ARM.attributes
                0x0000000000000000       0x39 build/astar.o
 .text          0x0000000000000000        0x0 build/obstacle.o
 .data          0x0000000000000000        0x0 build/obstacle.o
 .bss           0x0000000000000000        0x0 build/obstacle.o
 .text.Free_Blocks_Dir
                0x0000000000000000      0x148 build/obstacle.o
 .text.Print_Obstacles
                0x0000000000000000       0x58 build/obstacle.o
 .text.Materialize_Obstacle
                0x0000000000000000      0x354 build/obstacle.o
 .text.Materialize_Obstacles
                0x0000000000000000       0x3c build/obstacle.o
 .text.Can_Rotate
                0x0000000000000000       0xbc build/obstacle.o
 .text.Can_Move
                0x0000000000000000      0x11c build/obstacle.o
 .text.Get_In_Range_Obstacle_Dist
                0x0000000000000000       0xf8 build/obstacle.o
 .text.Get_Avoidance_Flexibility
                0x0000000000000000       0xc4 build/obstacle.o
 .rodata.Print_Obstacles.str1.4
                0x0000000000000000       0x3b build/obstacle.o
 .text          0x0000000000000000        0x0 build/strategy.o
 .data          0x0000000000000000        0x0 build/strategy.o
 .bss           0x0000000000000000        0x0 build/strategy.o
 .text.Get_Nb_Cubes_Set
                0x0000000000000000       0x34 build/strategy.o
 .text.Find_Cubes
                0x0000000000000000       0xbc build/strategy.o
 .text.Find_Cube
                0x0000000000000000       0x80 build/strategy.o
 .text.Check_Target
                0x0000000000000000      0x27c build/strategy.o
 .text.Eval_Align_Stack
                0x0000000000000000       0xd4 build/strategy.o
 .text.Compare_Cubes
                0x0000000000000000      0x110 build/strategy.o
 .text.Eval_Return_Approach
                0x0000000000000000       0x90 build/strategy.o
 .text.Cube_Sort
                0x0000000000000000       0x28 build/strategy.o
 .text.Eval_Move
                0x0000000000000000      0x140 build/strategy.o
 .text.Eval_Target
                0x0000000000000000      0x124 build/strategy.o
 .text.Eval_Place
                0x0000000000000000       0x28 build/strategy.o
 .text.Set_Construction_Plan
                0x0000000000000000       0x18 build/strategy.o
 .text.Update_Construction
                0x0000000000000000      0x10c build/strategy.o
 .text.Get_Construction_Score
                0x0000000000000000       0x20 build/strategy.o
 .text.Eval_Permutation
                0x0000000000000000      0x1f4 build/strategy.o
 .text.Eval_Combination
                0x0000000000000000       0xbe build/strategy.o
 .text.Select_Building_Materials
                0x0000000000000000      0x5d0 build/strategy.o
 .text.John_The_Builder
                0x0000000000000000       0xc8 build/strategy.o
 .text.Compute_Building_Strategy
                0x0000000000000000       0x1c build/strategy.o
 .bss.construction_plan
                0x0000000000000000        0x3 build/strategy.o
 .bss.valid_plan
                0x0000000000000000        0x1 build/strategy.o
 .data.color_str
                0x0000000000000000       0x50 build/strategy.o
 .rodata.score_per_size
                0x0000000000000000       0x18 build/strategy.o
 .text          0x0000000000000000        0x0 build/gas.o
 .data          0x0000000000000000        0x0 build/gas.o
 .bss           0x0000000000000000        0x0 build/gas.o
 .text.FSM_ROTATION_END
                0x0000000000000000        0x2 build/gas.o
 .text.Go_Straight_Direct
                0x0000000000000000       0x74 build/gas.o
 .text.FSM_MOVE_END
                0x0000000000000000        0x2 build/gas.o
 .text.Check_Path
                0x0000000000000000       0x1e build/gas.o
 .text.FSM_ROTATION_INIT
                0x0000000000000000       0x38 build/gas.o
 .text.FSM_ROTATION_CMD
                0x0000000000000000       0x48 build/gas.o
 .text.FSM_ROTATION_WAIT
                0x0000000000000000       0x60 build/gas.o
 .text.FSM_MOVE_INIT
                0x0000000000000000       0xb4 build/gas.o
 .text.FSM_MOVE_WAIT
                0x0000000000000000       0xe4 build/gas.o
 .text.FSM_MOVE_CMD
                0x0000000000000000       0xa4 build/gas.o
 .text.Make_Path
                0x0000000000000000       0x40 build/gas.o
 .text.Update_Path
                0x0000000000000000       0x2e build/gas.o
 .text.FSM_ROTATION_STOP
                0x0000000000000000       0x18 build/gas.o
 .text.FSM_MOVE_STOP
                0x0000000000000000       0x18 build/gas.o
 .text.Rotate   0x0000000000000000       0x3c build/gas.o
 .text.Go_Straight
                0x0000000000000000       0xbc build/gas.o
 .text.Break_Free
                0x0000000000000000      0x294 build/gas.o
 .text.GOGOGO   0x0000000000000000      0x1c0 build/gas.o
 .rodata.FSM_MOVE_CMD.str1.4
                0x0000000000000000       0x23 build/gas.o
 .rodata.FSM_ROTATION_CMD.str1.4
                0x0000000000000000       0x22 build/gas.o
 .rodata.FSM_ROTATION_WAIT.str1.4
                0x0000000000000000       0x22 build/gas.o
 .rodata.GOGOGO.str1.4
                0x0000000000000000       0x81 build/gas.o
 .text          0x0000000000000000        0x0 build/position_client.o
 .data          0x0000000000000000        0x0 build/position_client.o
 .bss           0x0000000000000000        0x0 build/position_client.o
 .text.Pos_Get_State
                0x0000000000000000       0x14 build/position_client.o
 .text.Pos_Config_Curve
                0x0000000000000000       0x94 build/position_client.o
 .text.Pos_Send_Path
                0x0000000000000000       0x6c build/position_client.o
 .text.Pos_Init_Position
                0x0000000000000000       0x14 build/position_client.o
 .text.Pos_Go_Forward
                0x0000000000000000       0x34 build/position_client.o
 .text.Pos_Set_Angle
                0x0000000000000000       0x34 build/position_client.o
 .text          0x0000000000000000        0x0 build/z_client.o
 .data          0x0000000000000000        0x0 build/z_client.o
 .bss           0x0000000000000000        0x0 build/z_client.o
 .text.Z_Set_Asser
                0x0000000000000000       0x58 build/z_client.o
 .text.Z_Punch_Bee
                0x0000000000000000       0x10 build/z_client.o
 .text.Z_Stack  0x0000000000000000       0x18 build/z_client.o
 .text.Z_Unstack
                0x0000000000000000       0x10 build/z_client.o
 .text          0x0000000000000000        0x0 build/build.o
 .data          0x0000000000000000        0x0 build/build.o
 .bss           0x0000000000000000        0x0 build/build.o
 .text.Quit_Set
                0x0000000000000000       0xc4 build/build.o
 .text.Get_Cube
                0x0000000000000000      0x1ec build/build.o
 .text.Build_Building
                0x0000000000000000       0x5c build/build.o
 .text.Place_Building
                0x0000000000000000        0x2 build/build.o
 .rodata.dir_to_angle
                0x0000000000000000       0x10 build/build.o
 .debug_info    0x0000000000000000     0x10fd build/build.o
 .debug_abbrev  0x0000000000000000      0x2c3 build/build.o
 .debug_loc     0x0000000000000000      0x161 build/build.o
 .debug_aranges
                0x0000000000000000       0x38 build/build.o
 .debug_ranges  0x0000000000000000       0x40 build/build.o
 .debug_line    0x0000000000000000      0x1e6 build/build.o
 .debug_str     0x0000000000000000      0x9b6 build/build.o
 .comment       0x0000000000000000       0x1e build/build.o
 .debug_frame   0x0000000000000000       0xd8 build/build.o
 .ARM.attributes
                0x0000000000000000       0x39 build/build.o
 .text          0x0000000000000000        0x0 build/vl53l0x_api.o
 .data          0x0000000000000000        0x0 build/vl53l0x_api.o
 .bss           0x0000000000000000        0x0 build/vl53l0x_api.o
 .text.VL53L0X_GetVersion
                0x0000000000000000       0x16 build/vl53l0x_api.o
 .text.VL53L0X_GetPalSpecVersion
                0x0000000000000000       0x16 build/vl53l0x_api.o
 .text.VL53L0X_GetProductRevision
                0x0000000000000000       0x22 build/vl53l0x_api.o
 .text.VL53L0X_GetDeviceInfo
                0x0000000000000000        0x8 build/vl53l0x_api.o
 .text.VL53L0X_GetDeviceErrorStatus
                0x0000000000000000       0x1e build/vl53l0x_api.o
 .text.VL53L0X_GetDeviceErrorString
                0x0000000000000000        0x8 build/vl53l0x_api.o
 .text.VL53L0X_GetRangeStatusString
                0x0000000000000000        0x8 build/vl53l0x_api.o
 .text.VL53L0X_GetPalErrorString
                0x0000000000000000        0x8 build/vl53l0x_api.o
 .text.VL53L0X_GetPalStateString
                0x0000000000000000        0x8 build/vl53l0x_api.o
 .text.VL53L0X_GetPalState
                0x0000000000000000        0xa build/vl53l0x_api.o
 .text.VL53L0X_GetPowerMode
                0x0000000000000000       0x30 build/vl53l0x_api.o
 .text.VL53L0X_SetOffsetCalibrationDataMicroMeter
                0x0000000000000000        0x8 build/vl53l0x_api.o
 .text.VL53L0X_SetLinearityCorrectiveGain
                0x0000000000000000       0x28 build/vl53l0x_api.o
 .text.VL53L0X_GetLinearityCorrectiveGain
                0x0000000000000000        0xa build/vl53l0x_api.o
 .text.VL53L0X_SetGroupParamHold
                0x0000000000000000        0x6 build/vl53l0x_api.o
 .text.VL53L0X_GetUpperLimitMilliMeter
                0x0000000000000000        0x6 build/vl53l0x_api.o
 .text.VL53L0X_GetTotalSignalRate
                0x0000000000000000       0x28 build/vl53l0x_api.o
 .text.VL53L0X_SetTuningSettingBuffer
                0x0000000000000000       0x26 build/vl53l0x_api.o
 .text.VL53L0X_GetTuningSettingBuffer
                0x0000000000000000       0x10 build/vl53l0x_api.o
 .text.VL53L0X_WaitDeviceBooted
                0x0000000000000000        0x6 build/vl53l0x_api.o
 .text.VL53L0X_ResetDevice
                0x0000000000000000       0x62 build/vl53l0x_api.o
 .text.VL53L0X_SetRangeFractionEnable
                0x0000000000000000       0x1a build/vl53l0x_api.o
 .text.VL53L0X_SetHistogramMode
                0x0000000000000000        0x6 build/vl53l0x_api.o
 .text.VL53L0X_GetHistogramMode
                0x0000000000000000        0x6 build/vl53l0x_api.o
 .text.VL53L0X_GetSequenceStepEnable
                0x0000000000000000       0x34 build/vl53l0x_api.o
 .text.VL53L0X_GetNumberOfSequenceSteps
                0x0000000000000000        0x8 build/vl53l0x_api.o
 .text.VL53L0X_GetSequenceStepsInfo
                0x0000000000000000        0x8 build/vl53l0x_api.o
 .text.VL53L0X_SetSequenceStepTimeout
                0x0000000000000000       0x62 build/vl53l0x_api.o
 .text.VL53L0X_GetSequenceStepTimeout
                0x0000000000000000       0x30 build/vl53l0x_api.o
 .text.VL53L0X_SetInterMeasurementPeriodMilliSeconds
                0x0000000000000000       0x38 build/vl53l0x_api.o
 .text.VL53L0X_SetXTalkCompensationEnable
                0x0000000000000000       0x3c build/vl53l0x_api.o
 .text.VL53L0X_SetXTalkCompensationRateMegaCps
                0x0000000000000000       0x30 build/vl53l0x_api.o
 .text.VL53L0X_SetRefCalibration
                0x0000000000000000        0x8 build/vl53l0x_api.o
 .text.VL53L0X_GetRefCalibration
                0x0000000000000000        0x8 build/vl53l0x_api.o
 .text.VL53L0X_GetNumberOfLimitCheck
                0x0000000000000000        0x8 build/vl53l0x_api.o
 .text.VL53L0X_GetLimitCheckInfo
                0x0000000000000000        0x8 build/vl53l0x_api.o
 .text.VL53L0X_GetLimitCheckStatus
                0x0000000000000000       0x16 build/vl53l0x_api.o
 .text.VL53L0X_GetLimitCheckCurrent
                0x0000000000000000       0xa4 build/vl53l0x_api.o
 .text.VL53L0X_SetWrapAroundCheckEnable
                0x0000000000000000       0x52 build/vl53l0x_api.o
 .text.VL53L0X_SetDeviceParameters
                0x0000000000000000       0x96 build/vl53l0x_api.o
 .text.VL53L0X_SetDmaxCalParameters
                0x0000000000000000       0x2e build/vl53l0x_api.o
 .text.VL53L0X_GetDmaxCalParameters
                0x0000000000000000       0x10 build/vl53l0x_api.o
 .text.VL53L0X_PerformSingleHistogramMeasurement
                0x0000000000000000        0x6 build/vl53l0x_api.o
 .text.VL53L0X_PerformXTalkMeasurement
                0x0000000000000000        0x6 build/vl53l0x_api.o
 .text.VL53L0X_PerformXTalkCalibration
                0x0000000000000000        0x8 build/vl53l0x_api.o
 .text.VL53L0X_PerformOffsetCalibration
                0x0000000000000000        0x8 build/vl53l0x_api.o
 .text.VL53L0X_WaitDeviceReadyForNewMeasurement
                0x0000000000000000        0x6 build/vl53l0x_api.o
 .text.VL53L0X_GetMeasurementRefSignal
                0x0000000000000000       0x2c build/vl53l0x_api.o
 .text.VL53L0X_GetHistogramMeasurementData
                0x0000000000000000        0x6 build/vl53l0x_api.o
 .text.VL53L0X_SetNumberOfROIZones
                0x0000000000000000        0xe build/vl53l0x_api.o
 .text.VL53L0X_GetNumberOfROIZones
                0x0000000000000000        0x8 build/vl53l0x_api.o
 .text.VL53L0X_GetMaxNumberOfROIZones
                0x0000000000000000        0x8 build/vl53l0x_api.o
 .text.VL53L0X_GetGpioConfig
                0x0000000000000000       0x7c build/vl53l0x_api.o
 .text.VL53L0X_SetInterruptThresholds
                0x0000000000000000       0x28 build/vl53l0x_api.o
 .text.VL53L0X_StopMeasurement
                0x0000000000000000       0x5a build/vl53l0x_api.o
 .text.VL53L0X_GetStopCompletedStatus
                0x0000000000000000       0x94 build/vl53l0x_api.o
 .text.VL53L0X_SetPowerMode
                0x0000000000000000       0x52 build/vl53l0x_api.o
 .text.VL53L0X_EnableInterruptMask
                0x0000000000000000        0x6 build/vl53l0x_api.o
 .text.VL53L0X_SetSpadAmbientDamperThreshold
                0x0000000000000000       0x2e build/vl53l0x_api.o
 .text.VL53L0X_GetSpadAmbientDamperThreshold
                0x0000000000000000       0x2e build/vl53l0x_api.o
 .text.VL53L0X_SetSpadAmbientDamperFactor
                0x0000000000000000       0x2e build/vl53l0x_api.o
 .text.VL53L0X_GetSpadAmbientDamperFactor
                0x0000000000000000       0x3a build/vl53l0x_api.o
 .text.VL53L0X_SetReferenceSpads
                0x0000000000000000        0x8 build/vl53l0x_api.o
 .text.VL53L0X_GetReferenceSpads
                0x0000000000000000        0x8 build/vl53l0x_api.o
 .text          0x0000000000000000        0x0 build/vl53l0x_api_calibration.o
 .data          0x0000000000000000        0x0 build/vl53l0x_api_calibration.o
 .bss           0x0000000000000000        0x0 build/vl53l0x_api_calibration.o
 .text.VL53L0X_perform_xtalk_calibration
                0x0000000000000000       0xf8 build/vl53l0x_api_calibration.o
 .text.VL53L0X_perform_offset_calibration
                0x0000000000000000       0xe6 build/vl53l0x_api_calibration.o
 .text.VL53L0X_set_offset_calibration_data_micro_meter
                0x0000000000000000       0x4c build/vl53l0x_api_calibration.o
 .text.VL53L0X_apply_offset_adjustment
                0x0000000000000000       0x3e build/vl53l0x_api_calibration.o
 .text.count_enabled_spads
                0x0000000000000000       0x88 build/vl53l0x_api_calibration.o
 .text.VL53L0X_get_reference_spads
                0x0000000000000000       0x66 build/vl53l0x_api_calibration.o
 .text.VL53L0X_set_ref_calibration
                0x0000000000000000       0x26 build/vl53l0x_api_calibration.o
 .text.VL53L0X_get_ref_calibration
                0x0000000000000000       0x1c build/vl53l0x_api_calibration.o
 .text          0x0000000000000000        0x0 build/vl53l0x_api_core.o
 .data          0x0000000000000000        0x0 build/vl53l0x_api_core.o
 .bss           0x0000000000000000        0x0 build/vl53l0x_api_core.o
 .text.VL53L0X_reverse_bytes
                0x0000000000000000       0x20 build/vl53l0x_api_core.o
 .text.VL53L0X_quadrature_sum
                0x0000000000000000       0x28 build/vl53l0x_api_core.o
 .text          0x0000000000000000        0x0 build/vl53l0x_api_ranging.o
 .data          0x0000000000000000        0x0 build/vl53l0x_api_ranging.o
 .bss           0x0000000000000000        0x0 build/vl53l0x_api_ranging.o
 .debug_info    0x0000000000000000      0xa2d build/vl53l0x_api_ranging.o
 .debug_abbrev  0x0000000000000000      0x183 build/vl53l0x_api_ranging.o
 .debug_aranges
                0x0000000000000000       0x18 build/vl53l0x_api_ranging.o
 .debug_line    0x0000000000000000      0x198 build/vl53l0x_api_ranging.o
 .debug_str     0x0000000000000000      0x5f7 build/vl53l0x_api_ranging.o
 .comment       0x0000000000000000       0x1e build/vl53l0x_api_ranging.o
 .ARM.attributes
                0x0000000000000000       0x39 build/vl53l0x_api_ranging.o
 .text          0x0000000000000000        0x0 build/vl53l0x_api_strings.o
 .data          0x0000000000000000        0x0 build/vl53l0x_api_strings.o
 .bss           0x0000000000000000        0x0 build/vl53l0x_api_strings.o
 .text.VL53L0X_check_part_used
                0x0000000000000000       0x36 build/vl53l0x_api_strings.o
 .text.VL53L0X_get_device_info
                0x0000000000000000       0xb8 build/vl53l0x_api_strings.o
 .text.VL53L0X_get_device_error_string
                0x0000000000000000      0x1b8 build/vl53l0x_api_strings.o
 .text.VL53L0X_get_range_status_string
                0x0000000000000000       0xa4 build/vl53l0x_api_strings.o
 .text.VL53L0X_get_pal_error_string
                0x0000000000000000      0x2ac build/vl53l0x_api_strings.o
 .text.VL53L0X_get_pal_state_string
                0x0000000000000000       0xc0 build/vl53l0x_api_strings.o
 .text.VL53L0X_get_sequence_steps_info
                0x0000000000000000       0x70 build/vl53l0x_api_strings.o
 .text.VL53L0X_get_limit_check_info
                0x0000000000000000       0xc0 build/vl53l0x_api_strings.o
 .rodata.VL53L0X_get_device_error_string.str1.4
                0x0000000000000000      0x167 build/vl53l0x_api_strings.o
 .rodata.VL53L0X_get_device_info.str1.4
                0x0000000000000000       0x44 build/vl53l0x_api_strings.o
 .rodata.VL53L0X_get_limit_check_info.str1.4
                0x0000000000000000       0x7e build/vl53l0x_api_strings.o
 .rodata.VL53L0X_get_pal_error_string.str1.4
                0x0000000000000000      0x18a build/vl53l0x_api_strings.o
 .rodata.VL53L0X_get_pal_state_string.str1.4
                0x0000000000000000       0x74 build/vl53l0x_api_strings.o
 .rodata.VL53L0X_get_range_status_string.str1.4
                0x0000000000000000       0x4e build/vl53l0x_api_strings.o
 .rodata.VL53L0X_get_sequence_steps_info.str1.4
                0x0000000000000000       0x28 build/vl53l0x_api_strings.o
 .debug_info    0x0000000000000000     0x1aa6 build/vl53l0x_api_strings.o
 .debug_abbrev  0x0000000000000000      0x2c1 build/vl53l0x_api_strings.o
 .debug_loc     0x0000000000000000      0xe2a build/vl53l0x_api_strings.o
 .debug_aranges
                0x0000000000000000       0x58 build/vl53l0x_api_strings.o
 .debug_ranges  0x0000000000000000       0x48 build/vl53l0x_api_strings.o
 .debug_line    0x0000000000000000      0x40a build/vl53l0x_api_strings.o
 .debug_str     0x0000000000000000     0x14cd build/vl53l0x_api_strings.o
 .comment       0x0000000000000000       0x1e build/vl53l0x_api_strings.o
 .debug_frame   0x0000000000000000      0x134 build/vl53l0x_api_strings.o
 .ARM.attributes
                0x0000000000000000       0x39 build/vl53l0x_api_strings.o
 .text          0x0000000000000000        0x0 build/vl53l0x_platform_log.o
 .data          0x0000000000000000        0x0 build/vl53l0x_platform_log.o
 .bss           0x0000000000000000        0x0 build/vl53l0x_platform_log.o
 .bss._trace_functions
                0x0000000000000000        0x4 build/vl53l0x_platform_log.o
 .bss._trace_modules
                0x0000000000000000        0x4 build/vl53l0x_platform_log.o
 .data._trace_level
                0x0000000000000000        0x4 build/vl53l0x_platform_log.o
 .debug_info    0x0000000000000000      0xa31 build/vl53l0x_platform_log.o
 .debug_abbrev  0x0000000000000000      0x190 build/vl53l0x_platform_log.o
 .debug_aranges
                0x0000000000000000       0x18 build/vl53l0x_platform_log.o
 .debug_line    0x0000000000000000      0x11e build/vl53l0x_platform_log.o
 .debug_str     0x0000000000000000      0x6ae build/vl53l0x_platform_log.o
 .comment       0x0000000000000000       0x1e build/vl53l0x_platform_log.o
 .ARM.attributes
                0x0000000000000000       0x39 build/vl53l0x_platform_log.o
 .text          0x0000000000000000        0x0 build/vl53l0x_platform.o
 .data          0x0000000000000000        0x0 build/vl53l0x_platform.o
 .bss           0x0000000000000000        0x0 build/vl53l0x_platform.o
 .text.VL53L0X_WrDWord
                0x0000000000000000       0x2c build/vl53l0x_platform.o
 .text          0x0000000000000000        0x0 build/usart.o
 .data          0x0000000000000000        0x0 build/usart.o
 .bss           0x0000000000000000        0x0 build/usart.o
 .text          0x0000000000000000        0x0 build/stm32f4xx_hal_flash.o
 .data          0x0000000000000000        0x0 build/stm32f4xx_hal_flash.o
 .bss           0x0000000000000000        0x0 build/stm32f4xx_hal_flash.o
 .text.FLASH_Program_DoubleWord
                0x0000000000000000       0x2c build/stm32f4xx_hal_flash.o
 .text.FLASH_Program_Word
                0x0000000000000000       0x24 build/stm32f4xx_hal_flash.o
 .text.FLASH_Program_HalfWord
                0x0000000000000000       0x24 build/stm32f4xx_hal_flash.o
 .text.FLASH_Program_Byte
                0x0000000000000000       0x20 build/stm32f4xx_hal_flash.o
 .text.FLASH_SetErrorCode
                0x0000000000000000       0xa8 build/stm32f4xx_hal_flash.o
 .text.HAL_FLASH_Program_IT
                0x0000000000000000       0x68 build/stm32f4xx_hal_flash.o
 .text.HAL_FLASH_EndOfOperationCallback
                0x0000000000000000        0x2 build/stm32f4xx_hal_flash.o
 .text.HAL_FLASH_OperationErrorCallback
                0x0000000000000000        0x2 build/stm32f4xx_hal_flash.o
 .text.HAL_FLASH_IRQHandler
                0x0000000000000000       0xf4 build/stm32f4xx_hal_flash.o
 .text.HAL_FLASH_Unlock
                0x0000000000000000       0x30 build/stm32f4xx_hal_flash.o
 .text.HAL_FLASH_Lock
                0x0000000000000000       0x14 build/stm32f4xx_hal_flash.o
 .text.HAL_FLASH_OB_Unlock
                0x0000000000000000       0x28 build/stm32f4xx_hal_flash.o
 .text.HAL_FLASH_OB_Lock
                0x0000000000000000       0x14 build/stm32f4xx_hal_flash.o
 .text.HAL_FLASH_GetError
                0x0000000000000000        0xc build/stm32f4xx_hal_flash.o
 .text.FLASH_WaitForLastOperation
                0x0000000000000000       0x64 build/stm32f4xx_hal_flash.o
 .text.HAL_FLASH_Program
                0x0000000000000000       0x80 build/stm32f4xx_hal_flash.o
 .text.HAL_FLASH_OB_Launch
                0x0000000000000000       0x1c build/stm32f4xx_hal_flash.o
 .debug_info    0x0000000000000000     0x10b8 build/stm32f4xx_hal_flash.o
 .debug_abbrev  0x0000000000000000      0x361 build/stm32f4xx_hal_flash.o
 .debug_loc     0x0000000000000000      0x423 build/stm32f4xx_hal_flash.o
 .debug_aranges
                0x0000000000000000       0xa0 build/stm32f4xx_hal_flash.o
 .debug_ranges  0x0000000000000000       0x90 build/stm32f4xx_hal_flash.o
 .debug_line    0x0000000000000000      0x423 build/stm32f4xx_hal_flash.o
 .debug_str     0x0000000000000000      0x966 build/stm32f4xx_hal_flash.o
 .comment       0x0000000000000000       0x1e build/stm32f4xx_hal_flash.o
 .debug_frame   0x0000000000000000      0x17c build/stm32f4xx_hal_flash.o
 .ARM.attributes
                0x0000000000000000       0x39 build/stm32f4xx_hal_flash.o
 COMMON         0x0000000000000000       0x20 build/stm32f4xx_hal_flash.o
 .text          0x0000000000000000        0x0 build/main.o
 .data          0x0000000000000000        0x0 build/main.o
 .bss           0x0000000000000000        0x0 build/main.o
 .text          0x0000000000000000        0x0 build/i2c.o
 .data          0x0000000000000000        0x0 build/i2c.o
 .bss           0x0000000000000000        0x0 build/i2c.o
 .text.HAL_I2C_MspDeInit
                0x0000000000000000       0x60 build/i2c.o
 .text          0x0000000000000000        0x0 build/stm32f4xx_hal_msp.o
 .data          0x0000000000000000        0x0 build/stm32f4xx_hal_msp.o
 .bss           0x0000000000000000        0x0 build/stm32f4xx_hal_msp.o
 .text          0x0000000000000000        0x0 build/stm32f4xx_hal_flash_ramfunc.o
 .data          0x0000000000000000        0x0 build/stm32f4xx_hal_flash_ramfunc.o
 .bss           0x0000000000000000        0x0 build/stm32f4xx_hal_flash_ramfunc.o
 .debug_info    0x0000000000000000      0xa20 build/stm32f4xx_hal_flash_ramfunc.o
 .debug_abbrev  0x0000000000000000      0x183 build/stm32f4xx_hal_flash_ramfunc.o
 .debug_aranges
                0x0000000000000000       0x18 build/stm32f4xx_hal_flash_ramfunc.o
 .debug_line    0x0000000000000000      0x171 build/stm32f4xx_hal_flash_ramfunc.o
 .debug_str     0x0000000000000000      0x602 build/stm32f4xx_hal_flash_ramfunc.o
 .comment       0x0000000000000000       0x1e build/stm32f4xx_hal_flash_ramfunc.o
 .ARM.attributes
                0x0000000000000000       0x39 build/stm32f4xx_hal_flash_ramfunc.o
 .text          0x0000000000000000        0x0 build/stm32f4xx_hal_i2c_ex.o
 .data          0x0000000000000000        0x0 build/stm32f4xx_hal_i2c_ex.o
 .bss           0x0000000000000000        0x0 build/stm32f4xx_hal_i2c_ex.o
 .text.HAL_I2CEx_ConfigAnalogFilter
                0x0000000000000000       0x44 build/stm32f4xx_hal_i2c_ex.o
 .text.HAL_I2CEx_ConfigDigitalFilter
                0x0000000000000000       0x42 build/stm32f4xx_hal_i2c_ex.o
 .debug_info    0x0000000000000000     0x1063 build/stm32f4xx_hal_i2c_ex.o
 .debug_abbrev  0x0000000000000000      0x206 build/stm32f4xx_hal_i2c_ex.o
 .debug_loc     0x0000000000000000      0x102 build/stm32f4xx_hal_i2c_ex.o
 .debug_aranges
                0x0000000000000000       0x28 build/stm32f4xx_hal_i2c_ex.o
 .debug_ranges  0x0000000000000000       0x18 build/stm32f4xx_hal_i2c_ex.o
 .debug_line    0x0000000000000000      0x238 build/stm32f4xx_hal_i2c_ex.o
 .debug_str     0x0000000000000000      0xb79 build/stm32f4xx_hal_i2c_ex.o
 .comment       0x0000000000000000       0x1e build/stm32f4xx_hal_i2c_ex.o
 .debug_frame   0x0000000000000000       0x30 build/stm32f4xx_hal_i2c_ex.o
 .ARM.attributes
                0x0000000000000000       0x39 build/stm32f4xx_hal_i2c_ex.o
 .text          0x0000000000000000        0x0 build/stm32f4xx_hal_pwr_ex.o
 .data          0x0000000000000000        0x0 build/stm32f4xx_hal_pwr_ex.o
 .bss           0x0000000000000000        0x0 build/stm32f4xx_hal_pwr_ex.o
 .text.HAL_PWREx_EnableBkUpReg
                0x0000000000000000       0x34 build/stm32f4xx_hal_pwr_ex.o
 .text.HAL_PWREx_DisableBkUpReg
                0x0000000000000000       0x34 build/stm32f4xx_hal_pwr_ex.o
 .text.HAL_PWREx_EnableFlashPowerDown
                0x0000000000000000        0xc build/stm32f4xx_hal_pwr_ex.o
 .text.HAL_PWREx_DisableFlashPowerDown
                0x0000000000000000        0xc build/stm32f4xx_hal_pwr_ex.o
 .text.HAL_PWREx_GetVoltageRange
                0x0000000000000000       0x10 build/stm32f4xx_hal_pwr_ex.o
 .text.HAL_PWREx_ControlVoltageScaling
                0x0000000000000000       0xc0 build/stm32f4xx_hal_pwr_ex.o
 .text.HAL_PWREx_EnableMainRegulatorLowVoltage
                0x0000000000000000        0xc build/stm32f4xx_hal_pwr_ex.o
 .text.HAL_PWREx_DisableMainRegulatorLowVoltage
                0x0000000000000000        0xc build/stm32f4xx_hal_pwr_ex.o
 .text.HAL_PWREx_EnableLowRegulatorLowVoltage
                0x0000000000000000        0xc build/stm32f4xx_hal_pwr_ex.o
 .text.HAL_PWREx_DisableLowRegulatorLowVoltage
                0x0000000000000000        0xc build/stm32f4xx_hal_pwr_ex.o
 .debug_info    0x0000000000000000      0xeba build/stm32f4xx_hal_pwr_ex.o
 .debug_abbrev  0x0000000000000000      0x2a1 build/stm32f4xx_hal_pwr_ex.o
 .debug_loc     0x0000000000000000      0x118 build/stm32f4xx_hal_pwr_ex.o
 .debug_aranges
                0x0000000000000000       0x68 build/stm32f4xx_hal_pwr_ex.o
 .debug_ranges  0x0000000000000000       0x58 build/stm32f4xx_hal_pwr_ex.o
 .debug_line    0x0000000000000000      0x2c8 build/stm32f4xx_hal_pwr_ex.o
 .debug_str     0x0000000000000000      0x8d8 build/stm32f4xx_hal_pwr_ex.o
 .comment       0x0000000000000000       0x1e build/stm32f4xx_hal_pwr_ex.o
 .debug_frame   0x0000000000000000       0xdc build/stm32f4xx_hal_pwr_ex.o
 .ARM.attributes
                0x0000000000000000       0x39 build/stm32f4xx_hal_pwr_ex.o
 .text          0x0000000000000000        0x0 build/stm32f4xx_hal_cortex.o
 .data          0x0000000000000000        0x0 build/stm32f4xx_hal_cortex.o
 .bss           0x0000000000000000        0x0 build/stm32f4xx_hal_cortex.o
 .text.HAL_NVIC_DisableIRQ
                0x0000000000000000       0x18 build/stm32f4xx_hal_cortex.o
 .text.HAL_MPU_Disable
                0x0000000000000000       0x20 build/stm32f4xx_hal_cortex.o
 .text.HAL_MPU_Enable
                0x0000000000000000       0x24 build/stm32f4xx_hal_cortex.o
 .text.HAL_MPU_ConfigRegion
                0x0000000000000000       0x54 build/stm32f4xx_hal_cortex.o
 .text.HAL_NVIC_GetPriorityGrouping
                0x0000000000000000       0x10 build/stm32f4xx_hal_cortex.o
 .text.HAL_NVIC_GetPriority
                0x0000000000000000       0x60 build/stm32f4xx_hal_cortex.o
 .text.HAL_NVIC_SetPendingIRQ
                0x0000000000000000       0x18 build/stm32f4xx_hal_cortex.o
 .text.HAL_NVIC_GetPendingIRQ
                0x0000000000000000       0x1c build/stm32f4xx_hal_cortex.o
 .text.HAL_NVIC_ClearPendingIRQ
                0x0000000000000000       0x18 build/stm32f4xx_hal_cortex.o
 .text.HAL_NVIC_GetActive
                0x0000000000000000       0x1c build/stm32f4xx_hal_cortex.o
 .text          0x0000000000000000        0x0 build/stm32f4xx_it.o
 .data          0x0000000000000000        0x0 build/stm32f4xx_it.o
 .bss           0x0000000000000000        0x0 build/stm32f4xx_it.o
 .text          0x0000000000000000        0x0 build/stm32f4xx_hal_tim_ex.o
 .data          0x0000000000000000        0x0 build/stm32f4xx_hal_tim_ex.o
 .bss           0x0000000000000000        0x0 build/stm32f4xx_hal_tim_ex.o
 .text.TIM_CCxNChannelCmd
                0x0000000000000000       0x1e build/stm32f4xx_hal_tim_ex.o
 .text.HAL_TIMEx_HallSensor_MspInit
                0x0000000000000000        0x2 build/stm32f4xx_hal_tim_ex.o
 .text.HAL_TIMEx_HallSensor_Init
                0x0000000000000000       0xb0 build/stm32f4xx_hal_tim_ex.o
 .text.HAL_TIMEx_HallSensor_MspDeInit
                0x0000000000000000        0x2 build/stm32f4xx_hal_tim_ex.o
 .text.HAL_TIMEx_HallSensor_DeInit
                0x0000000000000000       0x3a build/stm32f4xx_hal_tim_ex.o
 .text.HAL_TIMEx_HallSensor_Start
                0x0000000000000000       0x1c build/stm32f4xx_hal_tim_ex.o
 .text.HAL_TIMEx_HallSensor_Stop
                0x0000000000000000       0x30 build/stm32f4xx_hal_tim_ex.o
 .text.HAL_TIMEx_HallSensor_Start_IT
                0x0000000000000000       0x26 build/stm32f4xx_hal_tim_ex.o
 .text.HAL_TIMEx_HallSensor_Stop_IT
                0x0000000000000000       0x3a build/stm32f4xx_hal_tim_ex.o
 .text.HAL_TIMEx_HallSensor_Start_DMA
                0x0000000000000000       0x74 build/stm32f4xx_hal_tim_ex.o
 .text.HAL_TIMEx_HallSensor_Stop_DMA
                0x0000000000000000       0x3a build/stm32f4xx_hal_tim_ex.o
 .text.HAL_TIMEx_OCN_Start
                0x0000000000000000       0x24 build/stm32f4xx_hal_tim_ex.o
 .text.HAL_TIMEx_OCN_Stop
                0x0000000000000000       0x4c build/stm32f4xx_hal_tim_ex.o
 .text.HAL_TIMEx_OCN_Start_IT
                0x0000000000000000       0x72 build/stm32f4xx_hal_tim_ex.o
 .text.HAL_TIMEx_OCN_Stop_IT
                0x0000000000000000       0xa4 build/stm32f4xx_hal_tim_ex.o
 .text.HAL_TIMEx_OCN_Start_DMA
                0x0000000000000000      0x100 build/stm32f4xx_hal_tim_ex.o
 .text.HAL_TIMEx_OCN_Stop_DMA
                0x0000000000000000       0x96 build/stm32f4xx_hal_tim_ex.o
 .text.HAL_TIMEx_PWMN_Start
                0x0000000000000000       0x24 build/stm32f4xx_hal_tim_ex.o
 .text.HAL_TIMEx_PWMN_Stop
                0x0000000000000000       0x4c build/stm32f4xx_hal_tim_ex.o
 .text.HAL_TIMEx_PWMN_Start_IT
                0x0000000000000000       0x72 build/stm32f4xx_hal_tim_ex.o
 .text.HAL_TIMEx_PWMN_Stop_IT
                0x0000000000000000       0xa4 build/stm32f4xx_hal_tim_ex.o
 .text.HAL_TIMEx_PWMN_Start_DMA
                0x0000000000000000      0x100 build/stm32f4xx_hal_tim_ex.o
 .text.HAL_TIMEx_PWMN_Stop_DMA
                0x0000000000000000       0x96 build/stm32f4xx_hal_tim_ex.o
 .text.HAL_TIMEx_OnePulseN_Start
                0x0000000000000000       0x1a build/stm32f4xx_hal_tim_ex.o
 .text.HAL_TIMEx_OnePulseN_Stop
                0x0000000000000000       0x4c build/stm32f4xx_hal_tim_ex.o
 .text.HAL_TIMEx_OnePulseN_Start_IT
                0x0000000000000000       0x2e build/stm32f4xx_hal_tim_ex.o
 .text.HAL_TIMEx_OnePulseN_Stop_IT
                0x0000000000000000       0x60 build/stm32f4xx_hal_tim_ex.o
 .text.HAL_TIMEx_ConfigCommutationEvent
                0x0000000000000000       0x5e build/stm32f4xx_hal_tim_ex.o
 .text.HAL_TIMEx_ConfigCommutationEvent_IT
                0x0000000000000000       0x68 build/stm32f4xx_hal_tim_ex.o
 .text.HAL_TIMEx_ConfigCommutationEvent_DMA
                0x0000000000000000       0x7c build/stm32f4xx_hal_tim_ex.o
 .text.HAL_TIMEx_ConfigBreakDeadTime
                0x0000000000000000       0x58 build/stm32f4xx_hal_tim_ex.o
 .text.HAL_TIMEx_RemapConfig
                0x0000000000000000       0x20 build/stm32f4xx_hal_tim_ex.o
 .text.TIMEx_DMACommutationCplt
                0x0000000000000000       0x10 build/stm32f4xx_hal_tim_ex.o
 .text.HAL_TIMEx_HallSensor_GetState
                0x0000000000000000        0x6 build/stm32f4xx_hal_tim_ex.o
 .text          0x0000000000000000        0x0 build/stm32f4xx_hal_rcc.o
 .data          0x0000000000000000        0x0 build/stm32f4xx_hal_rcc.o
 .bss           0x0000000000000000        0x0 build/stm32f4xx_hal_rcc.o
 .text.HAL_RCC_DeInit
                0x0000000000000000        0x4 build/stm32f4xx_hal_rcc.o
 .text.HAL_RCC_MCOConfig
                0x0000000000000000       0x9c build/stm32f4xx_hal_rcc.o
 .text.HAL_RCC_EnableCSS
                0x0000000000000000        0xc build/stm32f4xx_hal_rcc.o
 .text.HAL_RCC_DisableCSS
                0x0000000000000000        0xc build/stm32f4xx_hal_rcc.o
 .text.HAL_RCC_GetPCLK2Freq
                0x0000000000000000       0x20 build/stm32f4xx_hal_rcc.o
 .text.HAL_RCC_GetOscConfig
                0x0000000000000000       0xcc build/stm32f4xx_hal_rcc.o
 .text.HAL_RCC_GetClockConfig
                0x0000000000000000       0x3c build/stm32f4xx_hal_rcc.o
 .text.HAL_RCC_CSSCallback
                0x0000000000000000        0x2 build/stm32f4xx_hal_rcc.o
 .text.HAL_RCC_NMI_IRQHandler
                0x0000000000000000       0x24 build/stm32f4xx_hal_rcc.o
 .text          0x0000000000000000        0x0 build/gpio.o
 .data          0x0000000000000000        0x0 build/gpio.o
 .bss           0x0000000000000000        0x0 build/gpio.o
 .text          0x0000000000000000        0x0 build/stm32f4xx_hal_rcc_ex.o
 .data          0x0000000000000000        0x0 build/stm32f4xx_hal_rcc_ex.o
 .bss           0x0000000000000000        0x0 build/stm32f4xx_hal_rcc_ex.o
 .text.HAL_RCCEx_PeriphCLKConfig
                0x0000000000000000      0x16c build/stm32f4xx_hal_rcc_ex.o
 .text.HAL_RCCEx_GetPeriphCLKConfig
                0x0000000000000000       0x44 build/stm32f4xx_hal_rcc_ex.o
 .text.HAL_RCCEx_GetPeriphCLKFreq
                0x0000000000000000       0x74 build/stm32f4xx_hal_rcc_ex.o
 .text.HAL_RCCEx_EnablePLLI2S
                0x0000000000000000       0x68 build/stm32f4xx_hal_rcc_ex.o
 .text.HAL_RCCEx_DisablePLLI2S
                0x0000000000000000       0x34 build/stm32f4xx_hal_rcc_ex.o
 .text.HAL_RCC_DeInit
                0x0000000000000000      0x13c build/stm32f4xx_hal_rcc_ex.o
 .debug_info    0x0000000000000000     0x1026 build/stm32f4xx_hal_rcc_ex.o
 .debug_abbrev  0x0000000000000000      0x288 build/stm32f4xx_hal_rcc_ex.o
 .debug_loc     0x0000000000000000      0x36b build/stm32f4xx_hal_rcc_ex.o
 .debug_aranges
                0x0000000000000000       0x48 build/stm32f4xx_hal_rcc_ex.o
 .debug_ranges  0x0000000000000000       0x38 build/stm32f4xx_hal_rcc_ex.o
 .debug_line    0x0000000000000000      0x329 build/stm32f4xx_hal_rcc_ex.o
 .debug_str     0x0000000000000000      0x8f1 build/stm32f4xx_hal_rcc_ex.o
 .comment       0x0000000000000000       0x1e build/stm32f4xx_hal_rcc_ex.o
 .debug_frame   0x0000000000000000       0xb4 build/stm32f4xx_hal_rcc_ex.o
 .ARM.attributes
                0x0000000000000000       0x39 build/stm32f4xx_hal_rcc_ex.o
 .text          0x0000000000000000        0x0 build/stm32f4xx_hal_pwr.o
 .data          0x0000000000000000        0x0 build/stm32f4xx_hal_pwr.o
 .bss           0x0000000000000000        0x0 build/stm32f4xx_hal_pwr.o
 .text.HAL_PWR_DeInit
                0x0000000000000000       0x18 build/stm32f4xx_hal_pwr.o
 .text.HAL_PWR_EnableBkUpAccess
                0x0000000000000000        0xc build/stm32f4xx_hal_pwr.o
 .text.HAL_PWR_DisableBkUpAccess
                0x0000000000000000        0xc build/stm32f4xx_hal_pwr.o
 .text.HAL_PWR_ConfigPVD
                0x0000000000000000       0x84 build/stm32f4xx_hal_pwr.o
 .text.HAL_PWR_EnablePVD
                0x0000000000000000        0xc build/stm32f4xx_hal_pwr.o
 .text.HAL_PWR_DisablePVD
                0x0000000000000000        0xc build/stm32f4xx_hal_pwr.o
 .text.HAL_PWR_EnableWakeUpPin
                0x0000000000000000       0x10 build/stm32f4xx_hal_pwr.o
 .text.HAL_PWR_DisableWakeUpPin
                0x0000000000000000       0x10 build/stm32f4xx_hal_pwr.o
 .text.HAL_PWR_EnterSLEEPMode
                0x0000000000000000       0x20 build/stm32f4xx_hal_pwr.o
 .text.HAL_PWR_EnterSTOPMode
                0x0000000000000000       0x38 build/stm32f4xx_hal_pwr.o
 .text.HAL_PWR_EnterSTANDBYMode
                0x0000000000000000       0x20 build/stm32f4xx_hal_pwr.o
 .text.HAL_PWR_PVDCallback
                0x0000000000000000        0x2 build/stm32f4xx_hal_pwr.o
 .text.HAL_PWR_PVD_IRQHandler
                0x0000000000000000       0x20 build/stm32f4xx_hal_pwr.o
 .text.HAL_PWR_EnableSleepOnExit
                0x0000000000000000       0x10 build/stm32f4xx_hal_pwr.o
 .text.HAL_PWR_DisableSleepOnExit
                0x0000000000000000       0x10 build/stm32f4xx_hal_pwr.o
 .text.HAL_PWR_EnableSEVOnPend
                0x0000000000000000       0x10 build/stm32f4xx_hal_pwr.o
 .text.HAL_PWR_DisableSEVOnPend
                0x0000000000000000       0x10 build/stm32f4xx_hal_pwr.o
 .debug_info    0x0000000000000000     0x11d8 build/stm32f4xx_hal_pwr.o
 .debug_abbrev  0x0000000000000000      0x266 build/stm32f4xx_hal_pwr.o
 .debug_loc     0x0000000000000000       0x83 build/stm32f4xx_hal_pwr.o
 .debug_aranges
                0x0000000000000000       0xa0 build/stm32f4xx_hal_pwr.o
 .debug_ranges  0x0000000000000000       0x90 build/stm32f4xx_hal_pwr.o
 .debug_line    0x0000000000000000      0x361 build/stm32f4xx_hal_pwr.o
 .debug_str     0x0000000000000000      0x97d build/stm32f4xx_hal_pwr.o
 .comment       0x0000000000000000       0x1e build/stm32f4xx_hal_pwr.o
 .debug_frame   0x0000000000000000      0x12c build/stm32f4xx_hal_pwr.o
 .ARM.attributes
                0x0000000000000000       0x39 build/stm32f4xx_hal_pwr.o
 .text          0x0000000000000000        0x0 build/stm32f4xx_hal_gpio.o
 .data          0x0000000000000000        0x0 build/stm32f4xx_hal_gpio.o
 .bss           0x0000000000000000        0x0 build/stm32f4xx_hal_gpio.o
 .text.HAL_GPIO_DeInit
                0x0000000000000000       0xfc build/stm32f4xx_hal_gpio.o
 .text.HAL_GPIO_TogglePin
                0x0000000000000000        0x8 build/stm32f4xx_hal_gpio.o
 .text.HAL_GPIO_LockPin
                0x0000000000000000       0x2e build/stm32f4xx_hal_gpio.o
 .text.HAL_GPIO_EXTI_Callback
                0x0000000000000000        0x2 build/stm32f4xx_hal_gpio.o
 .text.HAL_GPIO_EXTI_IRQHandler
                0x0000000000000000       0x1c build/stm32f4xx_hal_gpio.o
 .text          0x0000000000000000        0x0 build/stm32f4xx_hal_dma_ex.o
 .data          0x0000000000000000        0x0 build/stm32f4xx_hal_dma_ex.o
 .bss           0x0000000000000000        0x0 build/stm32f4xx_hal_dma_ex.o
 .text.DMA_MultiBufferSetConfig
                0x0000000000000000       0x24 build/stm32f4xx_hal_dma_ex.o
 .text.HAL_DMAEx_MultiBufferStart
                0x0000000000000000       0x5e build/stm32f4xx_hal_dma_ex.o
 .text.HAL_DMAEx_MultiBufferStart_IT
                0x0000000000000000      0xefc build/stm32f4xx_hal_dma_ex.o
 .text.HAL_DMAEx_ChangeMemory
                0x0000000000000000       0x10 build/stm32f4xx_hal_dma_ex.o
 .debug_info    0x0000000000000000      0xf19 build/stm32f4xx_hal_dma_ex.o
 .debug_abbrev  0x0000000000000000      0x260 build/stm32f4xx_hal_dma_ex.o
 .debug_loc     0x0000000000000000      0x4c3 build/stm32f4xx_hal_dma_ex.o
 .debug_aranges
                0x0000000000000000       0x38 build/stm32f4xx_hal_dma_ex.o
 .debug_ranges  0x0000000000000000       0x28 build/stm32f4xx_hal_dma_ex.o
 .debug_line    0x0000000000000000      0x8a4 build/stm32f4xx_hal_dma_ex.o
 .debug_str     0x0000000000000000      0x97d build/stm32f4xx_hal_dma_ex.o
 .comment       0x0000000000000000       0x1e build/stm32f4xx_hal_dma_ex.o
 .debug_frame   0x0000000000000000       0x80 build/stm32f4xx_hal_dma_ex.o
 .ARM.attributes
                0x0000000000000000       0x39 build/stm32f4xx_hal_dma_ex.o
 .text          0x0000000000000000        0x0 build/stm32f4xx_hal_flash_ex.o
 .data          0x0000000000000000        0x0 build/stm32f4xx_hal_flash_ex.o
 .bss           0x0000000000000000        0x0 build/stm32f4xx_hal_flash_ex.o
 .text.FLASH_MassErase
                0x0000000000000000       0x24 build/stm32f4xx_hal_flash_ex.o
 .text.FLASH_OB_BOR_LevelConfig
                0x0000000000000000       0x18 build/stm32f4xx_hal_flash_ex.o
 .text.FLASH_OB_GetUser
                0x0000000000000000       0x10 build/stm32f4xx_hal_flash_ex.o
 .text.FLASH_OB_GetWRP
                0x0000000000000000        0xc build/stm32f4xx_hal_flash_ex.o
 .text.FLASH_OB_GetRDP
                0x0000000000000000       0x24 build/stm32f4xx_hal_flash_ex.o
 .text.FLASH_OB_GetBOR
                0x0000000000000000       0x10 build/stm32f4xx_hal_flash_ex.o
 .text.FLASH_OB_EnableWRP
                0x0000000000000000       0x24 build/stm32f4xx_hal_flash_ex.o
 .text.FLASH_OB_DisableWRP
                0x0000000000000000       0x24 build/stm32f4xx_hal_flash_ex.o
 .text.FLASH_OB_RDP_LevelConfig
                0x0000000000000000       0x1c build/stm32f4xx_hal_flash_ex.o
 .text.FLASH_OB_UserConfig
                0x0000000000000000       0x2c build/stm32f4xx_hal_flash_ex.o
 .text.FLASH_OB_EnablePCROP
                0x0000000000000000       0x24 build/stm32f4xx_hal_flash_ex.o
 .text.FLASH_OB_DisablePCROP
                0x0000000000000000       0x24 build/stm32f4xx_hal_flash_ex.o
 .text.HAL_FLASHEx_OBProgram
                0x0000000000000000       0x84 build/stm32f4xx_hal_flash_ex.o
 .text.HAL_FLASHEx_OBGetConfig
                0x0000000000000000       0x22 build/stm32f4xx_hal_flash_ex.o
 .text.HAL_FLASHEx_AdvOBProgram
                0x0000000000000000       0x24 build/stm32f4xx_hal_flash_ex.o
 .text.HAL_FLASHEx_AdvOBGetConfig
                0x0000000000000000        0xc build/stm32f4xx_hal_flash_ex.o
 .text.HAL_FLASHEx_OB_SelectPCROP
                0x0000000000000000       0x14 build/stm32f4xx_hal_flash_ex.o
 .text.HAL_FLASHEx_OB_DeSelectPCROP
                0x0000000000000000       0x14 build/stm32f4xx_hal_flash_ex.o
 .text.FLASH_Erase_Sector
                0x0000000000000000       0x58 build/stm32f4xx_hal_flash_ex.o
 .text.HAL_FLASHEx_Erase_IT
                0x0000000000000000       0x6c build/stm32f4xx_hal_flash_ex.o
 .text.FLASH_FlushCaches
                0x0000000000000000       0x60 build/stm32f4xx_hal_flash_ex.o
 .text.HAL_FLASHEx_Erase
                0x0000000000000000       0x94 build/stm32f4xx_hal_flash_ex.o
 .debug_info    0x0000000000000000     0x1346 build/stm32f4xx_hal_flash_ex.o
 .debug_abbrev  0x0000000000000000      0x35a build/stm32f4xx_hal_flash_ex.o
 .debug_loc     0x0000000000000000      0x82b build/stm32f4xx_hal_flash_ex.o
 .debug_aranges
                0x0000000000000000       0xc8 build/stm32f4xx_hal_flash_ex.o
 .debug_ranges  0x0000000000000000       0xb8 build/stm32f4xx_hal_flash_ex.o
 .debug_line    0x0000000000000000      0x473 build/stm32f4xx_hal_flash_ex.o
 .debug_str     0x0000000000000000      0xa8f build/stm32f4xx_hal_flash_ex.o
 .comment       0x0000000000000000       0x1e build/stm32f4xx_hal_flash_ex.o
 .debug_frame   0x0000000000000000      0x218 build/stm32f4xx_hal_flash_ex.o
 .ARM.attributes
                0x0000000000000000       0x39 build/stm32f4xx_hal_flash_ex.o
 .text          0x0000000000000000        0x0 build/stm32f4xx_hal_dma.o
 .data          0x0000000000000000        0x0 build/stm32f4xx_hal_dma.o
 .bss           0x0000000000000000        0x0 build/stm32f4xx_hal_dma.o
 .text.DMA_SetConfig
                0x0000000000000000       0x2c build/stm32f4xx_hal_dma.o
 .text.DMA_CalcBaseAndBitshift
                0x0000000000000000       0x3c build/stm32f4xx_hal_dma.o
 .text.DMA_CheckFifoParam
                0x0000000000000000       0x8e build/stm32f4xx_hal_dma.o
 .text.HAL_DMA_Init
                0x0000000000000000       0xcc build/stm32f4xx_hal_dma.o
 .text.HAL_DMA_DeInit
                0x0000000000000000       0x58 build/stm32f4xx_hal_dma.o
 .text.HAL_DMA_Start
                0x0000000000000000       0x48 build/stm32f4xx_hal_dma.o
 .text.HAL_DMA_Start_IT
                0x0000000000000000       0x74 build/stm32f4xx_hal_dma.o
 .text.HAL_DMA_Abort
                0x0000000000000000       0x94 build/stm32f4xx_hal_dma.o
 .text.HAL_DMA_PollForTransfer
                0x0000000000000000      0x11c build/stm32f4xx_hal_dma.o
 .text.HAL_DMA_IRQHandler
                0x0000000000000000      0x1dc build/stm32f4xx_hal_dma.o
 .text.HAL_DMA_RegisterCallback
                0x0000000000000000       0x5e build/stm32f4xx_hal_dma.o
 .text.HAL_DMA_UnRegisterCallback
                0x0000000000000000       0x70 build/stm32f4xx_hal_dma.o
 .text.HAL_DMA_GetState
                0x0000000000000000        0x6 build/stm32f4xx_hal_dma.o
 .text.HAL_DMA_GetError
                0x0000000000000000        0x4 build/stm32f4xx_hal_dma.o
 .rodata.flagBitshiftOffset.10888
                0x0000000000000000        0x8 build/stm32f4xx_hal_dma.o
 .text          0x0000000000000000        0x0 build/stm32f4xx_hal_i2c.o
 .data          0x0000000000000000        0x0 build/stm32f4xx_hal_i2c.o
 .bss           0x0000000000000000        0x0 build/stm32f4xx_hal_i2c.o
 .text.I2C_RequestMemoryWrite
                0x0000000000000000       0xd8 build/stm32f4xx_hal_i2c.o
 .text.I2C_RequestMemoryRead
                0x0000000000000000      0x148 build/stm32f4xx_hal_i2c.o
 .text.I2C_WaitOnSTOPFlagUntilTimeout
                0x0000000000000000       0x48 build/stm32f4xx_hal_i2c.o
 .text.HAL_I2C_MspInit
                0x0000000000000000        0x2 build/stm32f4xx_hal_i2c.o
 .text.HAL_I2C_MspDeInit
                0x0000000000000000        0x2 build/stm32f4xx_hal_i2c.o
 .text.HAL_I2C_DeInit
                0x0000000000000000       0x32 build/stm32f4xx_hal_i2c.o
 .text.HAL_I2C_Slave_Transmit
                0x0000000000000000      0x1a0 build/stm32f4xx_hal_i2c.o
 .text.HAL_I2C_Slave_Receive
                0x0000000000000000      0x180 build/stm32f4xx_hal_i2c.o
 .text.HAL_I2C_Master_Transmit_IT
                0x0000000000000000       0xcc build/stm32f4xx_hal_i2c.o
 .text.HAL_I2C_Master_Receive_IT
                0x0000000000000000       0xd4 build/stm32f4xx_hal_i2c.o
 .text.HAL_I2C_Master_Sequential_Transmit_IT
                0x0000000000000000       0xf8 build/stm32f4xx_hal_i2c.o
 .text.HAL_I2C_Master_Sequential_Receive_IT
                0x0000000000000000      0x114 build/stm32f4xx_hal_i2c.o
 .text.HAL_I2C_Slave_Transmit_IT
                0x0000000000000000       0xd8 build/stm32f4xx_hal_i2c.o
 .text.HAL_I2C_Slave_Receive_IT
                0x0000000000000000       0xd8 build/stm32f4xx_hal_i2c.o
 .text.HAL_I2C_Slave_Sequential_Transmit_IT
                0x0000000000000000       0x8c build/stm32f4xx_hal_i2c.o
 .text.HAL_I2C_Slave_Sequential_Receive_IT
                0x0000000000000000       0x8c build/stm32f4xx_hal_i2c.o
 .text.HAL_I2C_EnableListen_IT
                0x0000000000000000       0x3e build/stm32f4xx_hal_i2c.o
 .text.HAL_I2C_DisableListen_IT
                0x0000000000000000       0x42 build/stm32f4xx_hal_i2c.o
 .text.HAL_I2C_Master_Transmit_DMA
                0x0000000000000000      0x140 build/stm32f4xx_hal_i2c.o
 .text.HAL_I2C_Master_Receive_DMA
                0x0000000000000000      0x140 build/stm32f4xx_hal_i2c.o
 .text.HAL_I2C_Slave_Transmit_DMA
                0x0000000000000000      0x114 build/stm32f4xx_hal_i2c.o
 .text.HAL_I2C_Slave_Receive_DMA
                0x0000000000000000      0x114 build/stm32f4xx_hal_i2c.o
 .text.HAL_I2C_Mem_Write
                0x0000000000000000      0x17c build/stm32f4xx_hal_i2c.o
 .text.HAL_I2C_Mem_Read
                0x0000000000000000      0x2e8 build/stm32f4xx_hal_i2c.o
 .text.HAL_I2C_Mem_Write_IT
                0x0000000000000000       0xd4 build/stm32f4xx_hal_i2c.o
 .text.HAL_I2C_Mem_Read_IT
                0x0000000000000000       0xe8 build/stm32f4xx_hal_i2c.o
 .text.HAL_I2C_Mem_Write_DMA
                0x0000000000000000      0x154 build/stm32f4xx_hal_i2c.o
 .text.HAL_I2C_Mem_Read_DMA
                0x0000000000000000      0x1cc build/stm32f4xx_hal_i2c.o
 .text.HAL_I2C_IsDeviceReady
                0x0000000000000000      0x18c build/stm32f4xx_hal_i2c.o
 .text.I2C_Slave_AF
                0x0000000000000000       0x94 build/stm32f4xx_hal_i2c.o
 .text.I2C_DMAError
                0x0000000000000000       0x34 build/stm32f4xx_hal_i2c.o
 .text.I2C_DMAXferCplt
                0x0000000000000000       0x94 build/stm32f4xx_hal_i2c.o
 .text.HAL_I2C_Master_Abort_IT
                0x0000000000000000       0x58 build/stm32f4xx_hal_i2c.o
 .text.HAL_I2C_ER_IRQHandler
                0x0000000000000000       0xd4 build/stm32f4xx_hal_i2c.o
 .text.HAL_I2C_GetState
                0x0000000000000000        0x6 build/stm32f4xx_hal_i2c.o
 .text.HAL_I2C_GetMode
                0x0000000000000000        0x6 build/stm32f4xx_hal_i2c.o
 .text.HAL_I2C_GetError
                0x0000000000000000        0x4 build/stm32f4xx_hal_i2c.o
 .text          0x0000000000000000        0x0 build/stm32f4xx_hal.o
 .data          0x0000000000000000        0x0 build/stm32f4xx_hal.o
 .bss           0x0000000000000000        0x0 build/stm32f4xx_hal.o
 .text.HAL_MspInit
                0x0000000000000000        0x2 build/stm32f4xx_hal.o
 .text.HAL_MspDeInit
                0x0000000000000000        0x2 build/stm32f4xx_hal.o
 .text.HAL_DeInit
                0x0000000000000000       0x2c build/stm32f4xx_hal.o
 .text.HAL_GetTickPrio
                0x0000000000000000        0xc build/stm32f4xx_hal.o
 .text.HAL_SetTickFreq
                0x0000000000000000       0x24 build/stm32f4xx_hal.o
 .text.HAL_GetTickFreq
                0x0000000000000000        0xc build/stm32f4xx_hal.o
 .text.HAL_SuspendTick
                0x0000000000000000       0x10 build/stm32f4xx_hal.o
 .text.HAL_ResumeTick
                0x0000000000000000       0x10 build/stm32f4xx_hal.o
 .text.HAL_GetHalVersion
                0x0000000000000000        0x8 build/stm32f4xx_hal.o
 .text.HAL_GetREVID
                0x0000000000000000        0xc build/stm32f4xx_hal.o
 .text.HAL_GetDEVID
                0x0000000000000000       0x10 build/stm32f4xx_hal.o
 .text.HAL_DBGMCU_EnableDBGSleepMode
                0x0000000000000000       0x10 build/stm32f4xx_hal.o
 .text.HAL_DBGMCU_DisableDBGSleepMode
                0x0000000000000000       0x10 build/stm32f4xx_hal.o
 .text.HAL_DBGMCU_EnableDBGStopMode
                0x0000000000000000       0x10 build/stm32f4xx_hal.o
 .text.HAL_DBGMCU_DisableDBGStopMode
                0x0000000000000000       0x10 build/stm32f4xx_hal.o
 .text.HAL_DBGMCU_EnableDBGStandbyMode
                0x0000000000000000       0x10 build/stm32f4xx_hal.o
 .text.HAL_DBGMCU_DisableDBGStandbyMode
                0x0000000000000000       0x10 build/stm32f4xx_hal.o
 .text.HAL_EnableCompensationCell
                0x0000000000000000        0xc build/stm32f4xx_hal.o
 .text.HAL_DisableCompensationCell
                0x0000000000000000        0xc build/stm32f4xx_hal.o
 .text.HAL_GetUID
                0x0000000000000000       0x20 build/stm32f4xx_hal.o
 .text          0x0000000000000000        0x0 build/stm32f4xx_hal_tim.o
 .data          0x0000000000000000        0x0 build/stm32f4xx_hal_tim.o
 .bss           0x0000000000000000        0x0 build/stm32f4xx_hal_tim.o
 .text.TIM_OC1_SetConfig
                0x0000000000000000       0x54 build/stm32f4xx_hal_tim.o
 .text.TIM_OC3_SetConfig
                0x0000000000000000       0x5c build/stm32f4xx_hal_tim.o
 .text.TIM_OC4_SetConfig
                0x0000000000000000       0x48 build/stm32f4xx_hal_tim.o
 .text.TIM_TI2_SetConfig
                0x0000000000000000       0x34 build/stm32f4xx_hal_tim.o
 .text.TIM_TI3_SetConfig
                0x0000000000000000       0x32 build/stm32f4xx_hal_tim.o
 .text.TIM_TI4_SetConfig
                0x0000000000000000       0x34 build/stm32f4xx_hal_tim.o
 .text.TIM_SlaveTimer_SetConfig
                0x0000000000000000       0x74 build/stm32f4xx_hal_tim.o
 .text.HAL_TIM_Base_MspInit
                0x0000000000000000        0x2 build/stm32f4xx_hal_tim.o
 .text.HAL_TIM_Base_MspDeInit
                0x0000000000000000        0x2 build/stm32f4xx_hal_tim.o
 .text.HAL_TIM_Base_DeInit
                0x0000000000000000       0x3a build/stm32f4xx_hal_tim.o
 .text.HAL_TIM_Base_Start
                0x0000000000000000       0x1a build/stm32f4xx_hal_tim.o
 .text.HAL_TIM_Base_Stop
                0x0000000000000000       0x2e build/stm32f4xx_hal_tim.o
 .text.HAL_TIM_Base_Start_DMA
                0x0000000000000000       0x64 build/stm32f4xx_hal_tim.o
 .text.HAL_TIM_Base_Stop_DMA
                0x0000000000000000       0x32 build/stm32f4xx_hal_tim.o
 .text.HAL_TIM_OC_MspInit
                0x0000000000000000        0x2 build/stm32f4xx_hal_tim.o
 .text.HAL_TIM_OC_MspDeInit
                0x0000000000000000        0x2 build/stm32f4xx_hal_tim.o
 .text.HAL_TIM_OC_DeInit
                0x0000000000000000       0x3a build/stm32f4xx_hal_tim.o
 .text.HAL_TIM_PWM_MspInit
                0x0000000000000000        0x2 build/stm32f4xx_hal_tim.o
 .text.HAL_TIM_PWM_MspDeInit
                0x0000000000000000        0x2 build/stm32f4xx_hal_tim.o
 .text.HAL_TIM_PWM_DeInit
                0x0000000000000000       0x3a build/stm32f4xx_hal_tim.o
 .text.HAL_TIM_IC_MspInit
                0x0000000000000000        0x2 build/stm32f4xx_hal_tim.o
 .text.HAL_TIM_IC_MspDeInit
                0x0000000000000000        0x2 build/stm32f4xx_hal_tim.o
 .text.HAL_TIM_IC_DeInit
                0x0000000000000000       0x3a build/stm32f4xx_hal_tim.o
 .text.HAL_TIM_OnePulse_MspInit
                0x0000000000000000        0x2 build/stm32f4xx_hal_tim.o
 .text.HAL_TIM_OnePulse_MspDeInit
                0x0000000000000000        0x2 build/stm32f4xx_hal_tim.o
 .text.HAL_TIM_OnePulse_DeInit
                0x0000000000000000       0x3a build/stm32f4xx_hal_tim.o
 .text.HAL_TIM_Encoder_MspInit
                0x0000000000000000        0x2 build/stm32f4xx_hal_tim.o
 .text.HAL_TIM_Encoder_MspDeInit
                0x0000000000000000        0x2 build/stm32f4xx_hal_tim.o
 .text.HAL_TIM_Encoder_DeInit
                0x0000000000000000       0x3a build/stm32f4xx_hal_tim.o
 .text.HAL_TIM_DMABurst_WriteStart
                0x0000000000000000      0x168 build/stm32f4xx_hal_tim.o
 .text.HAL_TIM_DMABurst_WriteStop
                0x0000000000000000       0x76 build/stm32f4xx_hal_tim.o
 .text.HAL_TIM_DMABurst_ReadStart
                0x0000000000000000      0x168 build/stm32f4xx_hal_tim.o
 .text.HAL_TIM_DMABurst_ReadStop
                0x0000000000000000       0x76 build/stm32f4xx_hal_tim.o
 .text.HAL_TIM_GenerateEvent
                0x0000000000000000       0x26 build/stm32f4xx_hal_tim.o
 .text.HAL_TIM_ConfigOCrefClear
                0x0000000000000000       0xc6 build/stm32f4xx_hal_tim.o
 .text.HAL_TIM_ConfigTI1Input
                0x0000000000000000       0x10 build/stm32f4xx_hal_tim.o
 .text.HAL_TIM_SlaveConfigSynchronization
                0x0000000000000000       0x40 build/stm32f4xx_hal_tim.o
 .text.HAL_TIM_SlaveConfigSynchronization_IT
                0x0000000000000000       0x40 build/stm32f4xx_hal_tim.o
 .text.HAL_TIM_ReadCapturedValue
                0x0000000000000000       0x4c build/stm32f4xx_hal_tim.o
 .text.HAL_TIM_PeriodElapsedCallback
                0x0000000000000000        0x2 build/stm32f4xx_hal_tim.o
 .text.TIM_DMAPeriodElapsedCplt
                0x0000000000000000       0x10 build/stm32f4xx_hal_tim.o
 .text.TIM_DMACaptureCplt
                0x0000000000000000       0x44 build/stm32f4xx_hal_tim.o
 .text.TIM_DMADelayPulseCplt
                0x0000000000000000       0x44 build/stm32f4xx_hal_tim.o
 .text.TIM_DMATriggerCplt
                0x0000000000000000       0x10 build/stm32f4xx_hal_tim.o
 .text.HAL_TIM_ErrorCallback
                0x0000000000000000        0x2 build/stm32f4xx_hal_tim.o
 .text.TIM_DMAError
                0x0000000000000000       0x10 build/stm32f4xx_hal_tim.o
 .text.HAL_TIM_Base_GetState
                0x0000000000000000        0x6 build/stm32f4xx_hal_tim.o
 .text.HAL_TIM_OC_GetState
                0x0000000000000000        0x6 build/stm32f4xx_hal_tim.o
 .text.HAL_TIM_PWM_GetState
                0x0000000000000000        0x6 build/stm32f4xx_hal_tim.o
 .text.HAL_TIM_IC_GetState
                0x0000000000000000        0x6 build/stm32f4xx_hal_tim.o
 .text.HAL_TIM_OnePulse_GetState
                0x0000000000000000        0x6 build/stm32f4xx_hal_tim.o
 .text.HAL_TIM_Encoder_GetState
                0x0000000000000000        0x6 build/stm32f4xx_hal_tim.o
 .text.HAL_TIM_OC_Init
                0x0000000000000000       0x32 build/stm32f4xx_hal_tim.o
 .text.HAL_TIM_PWM_Init
                0x0000000000000000       0x32 build/stm32f4xx_hal_tim.o
 .text.HAL_TIM_IC_Init
                0x0000000000000000       0x32 build/stm32f4xx_hal_tim.o
 .text.HAL_TIM_OnePulse_Init
                0x0000000000000000       0x46 build/stm32f4xx_hal_tim.o
 .text.HAL_TIM_Encoder_Init
                0x0000000000000000       0x98 build/stm32f4xx_hal_tim.o
 .text.TIM_TI1_SetConfig
                0x0000000000000000       0x6c build/stm32f4xx_hal_tim.o
 .text.HAL_TIM_IC_ConfigChannel
                0x0000000000000000       0xc0 build/stm32f4xx_hal_tim.o
 .text.TIM_OC2_SetConfig
                0x0000000000000000       0x5c build/stm32f4xx_hal_tim.o
 .text.HAL_TIM_OC_ConfigChannel
                0x0000000000000000       0x5e build/stm32f4xx_hal_tim.o
 .text.HAL_TIM_PWM_ConfigChannel
                0x0000000000000000       0xdc build/stm32f4xx_hal_tim.o
 .text.HAL_TIM_OnePulse_ConfigChannel
                0x0000000000000000       0xf2 build/stm32f4xx_hal_tim.o
 .text.TIM_CCxChannelCmd
                0x0000000000000000       0x1e build/stm32f4xx_hal_tim.o
 .text.HAL_TIM_OC_Start
                0x0000000000000000       0x30 build/stm32f4xx_hal_tim.o
 .text.HAL_TIM_OC_Stop
                0x0000000000000000       0x58 build/stm32f4xx_hal_tim.o
 .text.HAL_TIM_OC_Start_IT
                0x0000000000000000       0x74 build/stm32f4xx_hal_tim.o
 .text.HAL_TIM_OC_Stop_IT
                0x0000000000000000       0x9c build/stm32f4xx_hal_tim.o
 .text.HAL_TIM_OC_Start_DMA
                0x0000000000000000      0x10c build/stm32f4xx_hal_tim.o
 .text.HAL_TIM_OC_Stop_DMA
                0x0000000000000000       0xa4 build/stm32f4xx_hal_tim.o
 .text.HAL_TIM_PWM_Start
                0x0000000000000000       0x30 build/stm32f4xx_hal_tim.o
 .text.HAL_TIM_PWM_Stop
                0x0000000000000000       0x60 build/stm32f4xx_hal_tim.o
 .text.HAL_TIM_PWM_Start_IT
                0x0000000000000000       0x74 build/stm32f4xx_hal_tim.o
 .text.HAL_TIM_PWM_Stop_IT
                0x0000000000000000       0x9c build/stm32f4xx_hal_tim.o
 .text.HAL_TIM_PWM_Start_DMA
                0x0000000000000000      0x10c build/stm32f4xx_hal_tim.o
 .text.HAL_TIM_PWM_Stop_DMA
                0x0000000000000000       0xa4 build/stm32f4xx_hal_tim.o
 .text.HAL_TIM_IC_Start
                0x0000000000000000       0x1a build/stm32f4xx_hal_tim.o
 .text.HAL_TIM_IC_Stop
                0x0000000000000000       0x2e build/stm32f4xx_hal_tim.o
 .text.HAL_TIM_IC_Start_IT
                0x0000000000000000       0x5e build/stm32f4xx_hal_tim.o
 .text.HAL_TIM_IC_Stop_IT
                0x0000000000000000       0x72 build/stm32f4xx_hal_tim.o
 .text.HAL_TIM_IC_Start_DMA
                0x0000000000000000       0xec build/stm32f4xx_hal_tim.o
 .text.HAL_TIM_IC_Stop_DMA
                0x0000000000000000       0x78 build/stm32f4xx_hal_tim.o
 .text.HAL_TIM_OnePulse_Start
                0x0000000000000000       0x34 build/stm32f4xx_hal_tim.o
 .text.HAL_TIM_OnePulse_Stop
                0x0000000000000000       0x64 build/stm32f4xx_hal_tim.o
 .text.HAL_TIM_OnePulse_Start_IT
                0x0000000000000000       0x48 build/stm32f4xx_hal_tim.o
 .text.HAL_TIM_OnePulse_Stop_IT
                0x0000000000000000       0x78 build/stm32f4xx_hal_tim.o
 .text.HAL_TIM_Encoder_Start
                0x0000000000000000       0x44 build/stm32f4xx_hal_tim.o
 .text.HAL_TIM_Encoder_Stop
                0x0000000000000000       0x58 build/stm32f4xx_hal_tim.o
 .text.HAL_TIM_Encoder_Start_IT
                0x0000000000000000       0x6c build/stm32f4xx_hal_tim.o
 .text.HAL_TIM_Encoder_Stop_IT
                0x0000000000000000       0x86 build/stm32f4xx_hal_tim.o
 .text.HAL_TIM_Encoder_Start_DMA
                0x0000000000000000      0x134 build/stm32f4xx_hal_tim.o
 .text.HAL_TIM_Encoder_Stop_DMA
                0x0000000000000000       0x86 build/stm32f4xx_hal_tim.o
 .text          0x0000000000000000        0x0 build/dma.o
 .data          0x0000000000000000        0x0 build/dma.o
 .bss           0x0000000000000000        0x0 build/dma.o
 .text          0x0000000000000000        0x0 build/stm32f4xx_ll_usart.o
 .data          0x0000000000000000        0x0 build/stm32f4xx_ll_usart.o
 .bss           0x0000000000000000        0x0 build/stm32f4xx_ll_usart.o
 .text.LL_USART_DeInit
                0x0000000000000000       0x6c build/stm32f4xx_ll_usart.o
 .text.LL_USART_StructInit
                0x0000000000000000       0x18 build/stm32f4xx_ll_usart.o
 .text.LL_USART_ClockInit
                0x0000000000000000       0x3e build/stm32f4xx_ll_usart.o
 .text.LL_USART_ClockStructInit
                0x0000000000000000        0xc build/stm32f4xx_ll_usart.o
 .text          0x0000000000000000        0x0 build/stm32f4xx_ll_rcc.o
 .data          0x0000000000000000        0x0 build/stm32f4xx_ll_rcc.o
 .bss           0x0000000000000000        0x0 build/stm32f4xx_ll_rcc.o
 .text.LL_RCC_DeInit
                0x0000000000000000       0x84 build/stm32f4xx_ll_rcc.o
 .text.RCC_PLL_GetFreqDomain_48M
                0x0000000000000000       0x40 build/stm32f4xx_ll_rcc.o
 .text.LL_RCC_GetSDIOClockFreq
                0x0000000000000000       0x24 build/stm32f4xx_ll_rcc.o
 .text.LL_RCC_GetUSBClockFreq
                0x0000000000000000       0x1c build/stm32f4xx_ll_rcc.o
 .text.RCC_PLLI2S_GetFreqDomain_I2S
                0x0000000000000000       0x44 build/stm32f4xx_ll_rcc.o
 .text.LL_RCC_GetI2SClockFreq
                0x0000000000000000       0x34 build/stm32f4xx_ll_rcc.o
 .text          0x0000000000000000        0x0 build/stm32f4xx_ll_utils.o
 .data          0x0000000000000000        0x0 build/stm32f4xx_ll_utils.o
 .bss           0x0000000000000000        0x0 build/stm32f4xx_ll_utils.o
 .text.UTILS_SetFlashLatency
                0x0000000000000000       0x8c build/stm32f4xx_ll_utils.o
 .text.UTILS_GetPLLOutputFrequency
                0x0000000000000000       0x20 build/stm32f4xx_ll_utils.o
 .text.UTILS_PLL_IsBusy
                0x0000000000000000       0x24 build/stm32f4xx_ll_utils.o
 .text.LL_Init1msTick
                0x0000000000000000       0x20 build/stm32f4xx_ll_utils.o
 .text.LL_mDelay
                0x0000000000000000       0x2c build/stm32f4xx_ll_utils.o
 .text.LL_SetSystemCoreClock
                0x0000000000000000        0xc build/stm32f4xx_ll_utils.o
 .text.UTILS_EnablePLLAndSwitchSystem
                0x0000000000000000       0xac build/stm32f4xx_ll_utils.o
 .text.LL_PLL_ConfigSystemClock_HSI
                0x0000000000000000       0x6c build/stm32f4xx_ll_utils.o
 .text.LL_PLL_ConfigSystemClock_HSE
                0x0000000000000000       0x8c build/stm32f4xx_ll_utils.o
 .debug_info    0x0000000000000000     0x14f1 build/stm32f4xx_ll_utils.o
 .debug_abbrev  0x0000000000000000      0x317 build/stm32f4xx_ll_utils.o
 .debug_loc     0x0000000000000000      0x6a6 build/stm32f4xx_ll_utils.o
 .debug_aranges
                0x0000000000000000       0x60 build/stm32f4xx_ll_utils.o
 .debug_ranges  0x0000000000000000       0x50 build/stm32f4xx_ll_utils.o
 .debug_line    0x0000000000000000      0x416 build/stm32f4xx_ll_utils.o
 .debug_str     0x0000000000000000      0xb13 build/stm32f4xx_ll_utils.o
 .comment       0x0000000000000000       0x1e build/stm32f4xx_ll_utils.o
 .debug_frame   0x0000000000000000       0xe8 build/stm32f4xx_ll_utils.o
 .ARM.attributes
                0x0000000000000000       0x39 build/stm32f4xx_ll_utils.o
 .text          0x0000000000000000        0x0 build/stm32f4xx_ll_dma.o
 .data          0x0000000000000000        0x0 build/stm32f4xx_ll_dma.o
 .bss           0x0000000000000000        0x0 build/stm32f4xx_ll_dma.o
 .text.LL_DMA_DeInit
                0x0000000000000000      0x208 build/stm32f4xx_ll_dma.o
 .text.LL_DMA_Init
                0x0000000000000000       0x84 build/stm32f4xx_ll_dma.o
 .text.LL_DMA_StructInit
                0x0000000000000000       0x22 build/stm32f4xx_ll_dma.o
 .rodata.STREAM_OFFSET_TAB
                0x0000000000000000        0x8 build/stm32f4xx_ll_dma.o
 .debug_info    0x0000000000000000     0x1330 build/stm32f4xx_ll_dma.o
 .debug_abbrev  0x0000000000000000      0x2d4 build/stm32f4xx_ll_dma.o
 .debug_loc     0x0000000000000000      0x597 build/stm32f4xx_ll_dma.o
 .debug_aranges
                0x0000000000000000       0x30 build/stm32f4xx_ll_dma.o
 .debug_ranges  0x0000000000000000       0x20 build/stm32f4xx_ll_dma.o
 .debug_line    0x0000000000000000      0x3f0 build/stm32f4xx_ll_dma.o
 .debug_str     0x0000000000000000      0x9f7 build/stm32f4xx_ll_dma.o
 .comment       0x0000000000000000       0x1e build/stm32f4xx_ll_dma.o
 .debug_frame   0x0000000000000000       0x74 build/stm32f4xx_ll_dma.o
 .ARM.attributes
                0x0000000000000000       0x39 build/stm32f4xx_ll_dma.o
 .text          0x0000000000000000        0x0 build/stm32f4xx_ll_gpio.o
 .data          0x0000000000000000        0x0 build/stm32f4xx_ll_gpio.o
 .bss           0x0000000000000000        0x0 build/stm32f4xx_ll_gpio.o
 .text.LL_GPIO_DeInit
                0x0000000000000000       0xd0 build/stm32f4xx_ll_gpio.o
 .text.LL_GPIO_StructInit
                0x0000000000000000       0x16 build/stm32f4xx_ll_gpio.o
 .text          0x0000000000000000        0x0 build/stm32f4xx_ll_exti.o
 .data          0x0000000000000000        0x0 build/stm32f4xx_ll_exti.o
 .bss           0x0000000000000000        0x0 build/stm32f4xx_ll_exti.o
 .text.LL_EXTI_DeInit
                0x0000000000000000       0x1c build/stm32f4xx_ll_exti.o
 .text.LL_EXTI_Init
                0x0000000000000000       0xdc build/stm32f4xx_ll_exti.o
 .text.LL_EXTI_StructInit
                0x0000000000000000        0xe build/stm32f4xx_ll_exti.o
 .debug_info    0x0000000000000000      0xe1c build/stm32f4xx_ll_exti.o
 .debug_abbrev  0x0000000000000000      0x285 build/stm32f4xx_ll_exti.o
 .debug_loc     0x0000000000000000      0x2fe build/stm32f4xx_ll_exti.o
 .debug_aranges
                0x0000000000000000       0x30 build/stm32f4xx_ll_exti.o
 .debug_ranges  0x0000000000000000       0x20 build/stm32f4xx_ll_exti.o
 .debug_line    0x0000000000000000      0x2e0 build/stm32f4xx_ll_exti.o
 .debug_str     0x0000000000000000      0x7b0 build/stm32f4xx_ll_exti.o
 .comment       0x0000000000000000       0x1e build/stm32f4xx_ll_exti.o
 .debug_frame   0x0000000000000000       0x58 build/stm32f4xx_ll_exti.o
 .ARM.attributes
                0x0000000000000000       0x39 build/stm32f4xx_ll_exti.o
 .text          0x0000000000000000        0x0 build/tim.o
 .data          0x0000000000000000        0x0 build/tim.o
 .bss           0x0000000000000000        0x0 build/tim.o
 .text.HAL_TIM_Base_MspDeInit
                0x0000000000000000       0x40 build/tim.o
 .text          0x0000000000000000        0x0 build/system_stm32f4xx.o
 .data          0x0000000000000000        0x0 build/system_stm32f4xx.o
 .bss           0x0000000000000000        0x0 build/system_stm32f4xx.o
 .text.SystemCoreClockUpdate
                0x0000000000000000       0xa0 build/system_stm32f4xx.o
 .text          0x0000000000000000       0x14 build/startup_stm32f401xe.o
 .data          0x0000000000000000        0x0 build/startup_stm32f401xe.o
 .bss           0x0000000000000000        0x0 build/startup_stm32f401xe.o
 .text          0x0000000000000000        0x0 /usr/lib/gcc/arm-none-eabi/7.3.0/../../../../arm-none-eabi/lib/armv7e-m/fpu/libc_nano.a(lib_a-atexit.o)
 .data          0x0000000000000000        0x0 /usr/lib/gcc/arm-none-eabi/7.3.0/../../../../arm-none-eabi/lib/armv7e-m/fpu/libc_nano.a(lib_a-atexit.o)
 .bss           0x0000000000000000        0x0 /usr/lib/gcc/arm-none-eabi/7.3.0/../../../../arm-none-eabi/lib/armv7e-m/fpu/libc_nano.a(lib_a-atexit.o)
 .text.atexit   0x0000000000000000        0xc /usr/lib/gcc/arm-none-eabi/7.3.0/../../../../arm-none-eabi/lib/armv7e-m/fpu/libc_nano.a(lib_a-atexit.o)
 .debug_frame   0x0000000000000000       0x20 /usr/lib/gcc/arm-none-eabi/7.3.0/../../../../arm-none-eabi/lib/armv7e-m/fpu/libc_nano.a(lib_a-atexit.o)
 .ARM.attributes
                0x0000000000000000       0x34 /usr/lib/gcc/arm-none-eabi/7.3.0/../../../../arm-none-eabi/lib/armv7e-m/fpu/libc_nano.a(lib_a-atexit.o)
 .text          0x0000000000000000        0x0 /usr/lib/gcc/arm-none-eabi/7.3.0/../../../../arm-none-eabi/lib/armv7e-m/fpu/libc_nano.a(lib_a-exit.o)
 .data          0x0000000000000000        0x0 /usr/lib/gcc/arm-none-eabi/7.3.0/../../../../arm-none-eabi/lib/armv7e-m/fpu/libc_nano.a(lib_a-exit.o)
 .bss           0x0000000000000000        0x0 /usr/lib/gcc/arm-none-eabi/7.3.0/../../../../arm-none-eabi/lib/armv7e-m/fpu/libc_nano.a(lib_a-exit.o)
 .text.exit     0x0000000000000000       0x28 /usr/lib/gcc/arm-none-eabi/7.3.0/../../../../arm-none-eabi/lib/armv7e-m/fpu/libc_nano.a(lib_a-exit.o)
 .debug_frame   0x0000000000000000       0x28 /usr/lib/gcc/arm-none-eabi/7.3.0/../../../../arm-none-eabi/lib/armv7e-m/fpu/libc_nano.a(lib_a-exit.o)
 .ARM.attributes
                0x0000000000000000       0x34 /usr/lib/gcc/arm-none-eabi/7.3.0/../../../../arm-none-eabi/lib/armv7e-m/fpu/libc_nano.a(lib_a-exit.o)
 .text          0x0000000000000000        0x0 /usr/lib/gcc/arm-none-eabi/7.3.0/../../../../arm-none-eabi/lib/armv7e-m/fpu/libc_nano.a(lib_a-fini.o)
 .data          0x0000000000000000        0x0 /usr/lib/gcc/arm-none-eabi/7.3.0/../../../../arm-none-eabi/lib/armv7e-m/fpu/libc_nano.a(lib_a-fini.o)
 .bss           0x0000000000000000        0x0 /usr/lib/gcc/arm-none-eabi/7.3.0/../../../../arm-none-eabi/lib/armv7e-m/fpu/libc_nano.a(lib_a-fini.o)
 .text.__libc_fini_array
                0x0000000000000000       0x28 /usr/lib/gcc/arm-none-eabi/7.3.0/../../../../arm-none-eabi/lib/armv7e-m/fpu/libc_nano.a(lib_a-fini.o)
 .debug_frame   0x0000000000000000       0x38 /usr/lib/gcc/arm-none-eabi/7.3.0/../../../../arm-none-eabi/lib/armv7e-m/fpu/libc_nano.a(lib_a-fini.o)
 .ARM.attributes
                0x0000000000000000       0x34 /usr/lib/gcc/arm-none-eabi/7.3.0/../../../../arm-none-eabi/lib/armv7e-m/fpu/libc_nano.a(lib_a-fini.o)
 .text          0x0000000000000000        0x0 /usr/lib/gcc/arm-none-eabi/7.3.0/../../../../arm-none-eabi/lib/armv7e-m/fpu/libc_nano.a(lib_a-impure.o)
 .data          0x0000000000000000        0x0 /usr/lib/gcc/arm-none-eabi/7.3.0/../../../../arm-none-eabi/lib/armv7e-m/fpu/libc_nano.a(lib_a-impure.o)
 .bss           0x0000000000000000        0x0 /usr/lib/gcc/arm-none-eabi/7.3.0/../../../../arm-none-eabi/lib/armv7e-m/fpu/libc_nano.a(lib_a-impure.o)
 .rodata._global_impure_ptr
                0x0000000000000000        0x4 /usr/lib/gcc/arm-none-eabi/7.3.0/../../../../arm-none-eabi/lib/armv7e-m/fpu/libc_nano.a(lib_a-impure.o)
 .text          0x0000000000000000        0x0 /usr/lib/gcc/arm-none-eabi/7.3.0/../../../../arm-none-eabi/lib/armv7e-m/fpu/libc_nano.a(lib_a-init.o)
 .data          0x0000000000000000        0x0 /usr/lib/gcc/arm-none-eabi/7.3.0/../../../../arm-none-eabi/lib/armv7e-m/fpu/libc_nano.a(lib_a-init.o)
 .bss           0x0000000000000000        0x0 /usr/lib/gcc/arm-none-eabi/7.3.0/../../../../arm-none-eabi/lib/armv7e-m/fpu/libc_nano.a(lib_a-init.o)
 .text          0x0000000000000000        0x0 /usr/lib/gcc/arm-none-eabi/7.3.0/../../../../arm-none-eabi/lib/armv7e-m/fpu/libc_nano.a(lib_a-memcpy-stub.o)
 .data          0x0000000000000000        0x0 /usr/lib/gcc/arm-none-eabi/7.3.0/../../../../arm-none-eabi/lib/armv7e-m/fpu/libc_nano.a(lib_a-memcpy-stub.o)
 .bss           0x0000000000000000        0x0 /usr/lib/gcc/arm-none-eabi/7.3.0/../../../../arm-none-eabi/lib/armv7e-m/fpu/libc_nano.a(lib_a-memcpy-stub.o)
 .text          0x0000000000000000        0x0 /usr/lib/gcc/arm-none-eabi/7.3.0/../../../../arm-none-eabi/lib/armv7e-m/fpu/libc_nano.a(lib_a-memset.o)
 .data          0x0000000000000000        0x0 /usr/lib/gcc/arm-none-eabi/7.3.0/../../../../arm-none-eabi/lib/armv7e-m/fpu/libc_nano.a(lib_a-memset.o)
 .bss           0x0000000000000000        0x0 /usr/lib/gcc/arm-none-eabi/7.3.0/../../../../arm-none-eabi/lib/armv7e-m/fpu/libc_nano.a(lib_a-memset.o)
 .text          0x0000000000000000        0x0 /usr/lib/gcc/arm-none-eabi/7.3.0/../../../../arm-none-eabi/lib/armv7e-m/fpu/libc_nano.a(lib_a-nano-vfprintf_float.o)
 .data          0x0000000000000000        0x0 /usr/lib/gcc/arm-none-eabi/7.3.0/../../../../arm-none-eabi/lib/armv7e-m/fpu/libc_nano.a(lib_a-nano-vfprintf_float.o)
 .bss           0x0000000000000000        0x0 /usr/lib/gcc/arm-none-eabi/7.3.0/../../../../arm-none-eabi/lib/armv7e-m/fpu/libc_nano.a(lib_a-nano-vfprintf_float.o)
 .text          0x0000000000000000        0x0 /usr/lib/gcc/arm-none-eabi/7.3.0/../../../../arm-none-eabi/lib/armv7e-m/fpu/libc_nano.a(lib_a-nano-vfprintf_i.o)
 .data          0x0000000000000000        0x0 /usr/lib/gcc/arm-none-eabi/7.3.0/../../../../arm-none-eabi/lib/armv7e-m/fpu/libc_nano.a(lib_a-nano-vfprintf_i.o)
 .bss           0x0000000000000000        0x0 /usr/lib/gcc/arm-none-eabi/7.3.0/../../../../arm-none-eabi/lib/armv7e-m/fpu/libc_nano.a(lib_a-nano-vfprintf_i.o)
 .text          0x0000000000000000        0x0 /usr/lib/gcc/arm-none-eabi/7.3.0/../../../../arm-none-eabi/lib/armv7e-m/fpu/libc_nano.a(lib_a-qsort.o)
 .data          0x0000000000000000        0x0 /usr/lib/gcc/arm-none-eabi/7.3.0/../../../../arm-none-eabi/lib/armv7e-m/fpu/libc_nano.a(lib_a-qsort.o)
 .bss           0x0000000000000000        0x0 /usr/lib/gcc/arm-none-eabi/7.3.0/../../../../arm-none-eabi/lib/armv7e-m/fpu/libc_nano.a(lib_a-qsort.o)
 .text.swapfunc
                0x0000000000000000       0x32 /usr/lib/gcc/arm-none-eabi/7.3.0/../../../../arm-none-eabi/lib/armv7e-m/fpu/libc_nano.a(lib_a-qsort.o)
 .text.med3.isra.1
                0x0000000000000000       0x3e /usr/lib/gcc/arm-none-eabi/7.3.0/../../../../arm-none-eabi/lib/armv7e-m/fpu/libc_nano.a(lib_a-qsort.o)
 .text.qsort    0x0000000000000000      0x24e /usr/lib/gcc/arm-none-eabi/7.3.0/../../../../arm-none-eabi/lib/armv7e-m/fpu/libc_nano.a(lib_a-qsort.o)
 .debug_frame   0x0000000000000000       0x78 /usr/lib/gcc/arm-none-eabi/7.3.0/../../../../arm-none-eabi/lib/armv7e-m/fpu/libc_nano.a(lib_a-qsort.o)
 .ARM.attributes
                0x0000000000000000       0x34 /usr/lib/gcc/arm-none-eabi/7.3.0/../../../../arm-none-eabi/lib/armv7e-m/fpu/libc_nano.a(lib_a-qsort.o)
 .text          0x0000000000000000        0x0 /usr/lib/gcc/arm-none-eabi/7.3.0/../../../../arm-none-eabi/lib/armv7e-m/fpu/libc_nano.a(lib_a-strcpy.o)
 .data          0x0000000000000000        0x0 /usr/lib/gcc/arm-none-eabi/7.3.0/../../../../arm-none-eabi/lib/armv7e-m/fpu/libc_nano.a(lib_a-strcpy.o)
 .bss           0x0000000000000000        0x0 /usr/lib/gcc/arm-none-eabi/7.3.0/../../../../arm-none-eabi/lib/armv7e-m/fpu/libc_nano.a(lib_a-strcpy.o)
 .data          0x0000000000000000        0x0 /usr/lib/gcc/arm-none-eabi/7.3.0/../../../../arm-none-eabi/lib/armv7e-m/fpu/libc_nano.a(lib_a-strlen.o)
 .bss           0x0000000000000000        0x0 /usr/lib/gcc/arm-none-eabi/7.3.0/../../../../arm-none-eabi/lib/armv7e-m/fpu/libc_nano.a(lib_a-strlen.o)
 .text          0x0000000000000000        0x0 /usr/lib/gcc/arm-none-eabi/7.3.0/../../../../arm-none-eabi/lib/armv7e-m/fpu/libc_nano.a(lib_a-vsnprintf.o)
 .data          0x0000000000000000        0x0 /usr/lib/gcc/arm-none-eabi/7.3.0/../../../../arm-none-eabi/lib/armv7e-m/fpu/libc_nano.a(lib_a-vsnprintf.o)
 .bss           0x0000000000000000        0x0 /usr/lib/gcc/arm-none-eabi/7.3.0/../../../../arm-none-eabi/lib/armv7e-m/fpu/libc_nano.a(lib_a-vsnprintf.o)
 .text          0x0000000000000000        0x0 /usr/lib/gcc/arm-none-eabi/7.3.0/../../../../arm-none-eabi/lib/armv7e-m/fpu/libc_nano.a(lib_a-__atexit.o)
 .data          0x0000000000000000        0x0 /usr/lib/gcc/arm-none-eabi/7.3.0/../../../../arm-none-eabi/lib/armv7e-m/fpu/libc_nano.a(lib_a-__atexit.o)
 .bss           0x0000000000000000        0x0 /usr/lib/gcc/arm-none-eabi/7.3.0/../../../../arm-none-eabi/lib/armv7e-m/fpu/libc_nano.a(lib_a-__atexit.o)
 .text.__register_exitproc
                0x0000000000000000       0xc8 /usr/lib/gcc/arm-none-eabi/7.3.0/../../../../arm-none-eabi/lib/armv7e-m/fpu/libc_nano.a(lib_a-__atexit.o)
 .bss._global_atexit0
                0x0000000000000000       0x8c /usr/lib/gcc/arm-none-eabi/7.3.0/../../../../arm-none-eabi/lib/armv7e-m/fpu/libc_nano.a(lib_a-__atexit.o)
 .data.__atexit_dummy
                0x0000000000000000        0x4 /usr/lib/gcc/arm-none-eabi/7.3.0/../../../../arm-none-eabi/lib/armv7e-m/fpu/libc_nano.a(lib_a-__atexit.o)
 .debug_frame   0x0000000000000000       0x34 /usr/lib/gcc/arm-none-eabi/7.3.0/../../../../arm-none-eabi/lib/armv7e-m/fpu/libc_nano.a(lib_a-__atexit.o)
 .ARM.attributes
                0x0000000000000000       0x34 /usr/lib/gcc/arm-none-eabi/7.3.0/../../../../arm-none-eabi/lib/armv7e-m/fpu/libc_nano.a(lib_a-__atexit.o)
 .text          0x0000000000000000        0x0 /usr/lib/gcc/arm-none-eabi/7.3.0/../../../../arm-none-eabi/lib/armv7e-m/fpu/libc_nano.a(lib_a-__call_atexit.o)
 .data          0x0000000000000000        0x0 /usr/lib/gcc/arm-none-eabi/7.3.0/../../../../arm-none-eabi/lib/armv7e-m/fpu/libc_nano.a(lib_a-__call_atexit.o)
 .bss           0x0000000000000000        0x0 /usr/lib/gcc/arm-none-eabi/7.3.0/../../../../arm-none-eabi/lib/armv7e-m/fpu/libc_nano.a(lib_a-__call_atexit.o)
 .text.__call_exitprocs
                0x0000000000000000       0xd4 /usr/lib/gcc/arm-none-eabi/7.3.0/../../../../arm-none-eabi/lib/armv7e-m/fpu/libc_nano.a(lib_a-__call_atexit.o)
 .bss._global_atexit
                0x0000000000000000        0x4 /usr/lib/gcc/arm-none-eabi/7.3.0/../../../../arm-none-eabi/lib/armv7e-m/fpu/libc_nano.a(lib_a-__call_atexit.o)
 .debug_frame   0x0000000000000000       0x3c /usr/lib/gcc/arm-none-eabi/7.3.0/../../../../arm-none-eabi/lib/armv7e-m/fpu/libc_nano.a(lib_a-__call_atexit.o)
 .ARM.attributes
                0x0000000000000000       0x34 /usr/lib/gcc/arm-none-eabi/7.3.0/../../../../arm-none-eabi/lib/armv7e-m/fpu/libc_nano.a(lib_a-__call_atexit.o)
 .text          0x0000000000000000        0x0 /usr/lib/gcc/arm-none-eabi/7.3.0/../../../../arm-none-eabi/lib/armv7e-m/fpu/libc_nano.a(lib_a-dtoa.o)
 .data          0x0000000000000000        0x0 /usr/lib/gcc/arm-none-eabi/7.3.0/../../../../arm-none-eabi/lib/armv7e-m/fpu/libc_nano.a(lib_a-dtoa.o)
 .bss           0x0000000000000000        0x0 /usr/lib/gcc/arm-none-eabi/7.3.0/../../../../arm-none-eabi/lib/armv7e-m/fpu/libc_nano.a(lib_a-dtoa.o)
 .text          0x0000000000000000        0x0 /usr/lib/gcc/arm-none-eabi/7.3.0/../../../../arm-none-eabi/lib/armv7e-m/fpu/libc_nano.a(lib_a-localeconv.o)
 .data          0x0000000000000000        0x0 /usr/lib/gcc/arm-none-eabi/7.3.0/../../../../arm-none-eabi/lib/armv7e-m/fpu/libc_nano.a(lib_a-localeconv.o)
 .bss           0x0000000000000000        0x0 /usr/lib/gcc/arm-none-eabi/7.3.0/../../../../arm-none-eabi/lib/armv7e-m/fpu/libc_nano.a(lib_a-localeconv.o)
 .text.__localeconv_l
                0x0000000000000000        0x4 /usr/lib/gcc/arm-none-eabi/7.3.0/../../../../arm-none-eabi/lib/armv7e-m/fpu/libc_nano.a(lib_a-localeconv.o)
 .text.localeconv
                0x0000000000000000       0x1c /usr/lib/gcc/arm-none-eabi/7.3.0/../../../../arm-none-eabi/lib/armv7e-m/fpu/libc_nano.a(lib_a-localeconv.o)
 .text          0x0000000000000000        0x0 /usr/lib/gcc/arm-none-eabi/7.3.0/../../../../arm-none-eabi/lib/armv7e-m/fpu/libc_nano.a(lib_a-locale.o)
 .data          0x0000000000000000        0x0 /usr/lib/gcc/arm-none-eabi/7.3.0/../../../../arm-none-eabi/lib/armv7e-m/fpu/libc_nano.a(lib_a-locale.o)
 .bss           0x0000000000000000        0x0 /usr/lib/gcc/arm-none-eabi/7.3.0/../../../../arm-none-eabi/lib/armv7e-m/fpu/libc_nano.a(lib_a-locale.o)
 .text._setlocale_r
                0x0000000000000000       0x38 /usr/lib/gcc/arm-none-eabi/7.3.0/../../../../arm-none-eabi/lib/armv7e-m/fpu/libc_nano.a(lib_a-locale.o)
 .text.__locale_mb_cur_max
                0x0000000000000000       0x1c /usr/lib/gcc/arm-none-eabi/7.3.0/../../../../arm-none-eabi/lib/armv7e-m/fpu/libc_nano.a(lib_a-locale.o)
 .text.__locale_ctype_ptr_l
                0x0000000000000000        0x6 /usr/lib/gcc/arm-none-eabi/7.3.0/../../../../arm-none-eabi/lib/armv7e-m/fpu/libc_nano.a(lib_a-locale.o)
 .text.__locale_ctype_ptr
                0x0000000000000000       0x1c /usr/lib/gcc/arm-none-eabi/7.3.0/../../../../arm-none-eabi/lib/armv7e-m/fpu/libc_nano.a(lib_a-locale.o)
 .text.setlocale
                0x0000000000000000       0x10 /usr/lib/gcc/arm-none-eabi/7.3.0/../../../../arm-none-eabi/lib/armv7e-m/fpu/libc_nano.a(lib_a-locale.o)
 .bss._PathLocale
                0x0000000000000000        0x4 /usr/lib/gcc/arm-none-eabi/7.3.0/../../../../arm-none-eabi/lib/armv7e-m/fpu/libc_nano.a(lib_a-locale.o)
 .text          0x0000000000000000        0x0 /usr/lib/gcc/arm-none-eabi/7.3.0/../../../../arm-none-eabi/lib/armv7e-m/fpu/libc_nano.a(lib_a-malloc.o)
 .data          0x0000000000000000        0x0 /usr/lib/gcc/arm-none-eabi/7.3.0/../../../../arm-none-eabi/lib/armv7e-m/fpu/libc_nano.a(lib_a-malloc.o)
 .bss           0x0000000000000000        0x0 /usr/lib/gcc/arm-none-eabi/7.3.0/../../../../arm-none-eabi/lib/armv7e-m/fpu/libc_nano.a(lib_a-malloc.o)
 .text.free     0x0000000000000000       0x10 /usr/lib/gcc/arm-none-eabi/7.3.0/../../../../arm-none-eabi/lib/armv7e-m/fpu/libc_nano.a(lib_a-malloc.o)
 .text          0x0000000000000000        0x0 /usr/lib/gcc/arm-none-eabi/7.3.0/../../../../arm-none-eabi/lib/armv7e-m/fpu/libc_nano.a(lib_a-mbtowc_r.o)
 .data          0x0000000000000000        0x0 /usr/lib/gcc/arm-none-eabi/7.3.0/../../../../arm-none-eabi/lib/armv7e-m/fpu/libc_nano.a(lib_a-mbtowc_r.o)
 .bss           0x0000000000000000        0x0 /usr/lib/gcc/arm-none-eabi/7.3.0/../../../../arm-none-eabi/lib/armv7e-m/fpu/libc_nano.a(lib_a-mbtowc_r.o)
 .text._mbtowc_r
                0x0000000000000000       0x24 /usr/lib/gcc/arm-none-eabi/7.3.0/../../../../arm-none-eabi/lib/armv7e-m/fpu/libc_nano.a(lib_a-mbtowc_r.o)
 .data          0x0000000000000000        0x0 /usr/lib/gcc/arm-none-eabi/7.3.0/../../../../arm-none-eabi/lib/armv7e-m/fpu/libc_nano.a(lib_a-memchr.o)
 .bss           0x0000000000000000        0x0 /usr/lib/gcc/arm-none-eabi/7.3.0/../../../../arm-none-eabi/lib/armv7e-m/fpu/libc_nano.a(lib_a-memchr.o)
 .text          0x0000000000000000        0x0 /usr/lib/gcc/arm-none-eabi/7.3.0/../../../../arm-none-eabi/lib/armv7e-m/fpu/libc_nano.a(lib_a-mprec.o)
 .data          0x0000000000000000        0x0 /usr/lib/gcc/arm-none-eabi/7.3.0/../../../../arm-none-eabi/lib/armv7e-m/fpu/libc_nano.a(lib_a-mprec.o)
 .bss           0x0000000000000000        0x0 /usr/lib/gcc/arm-none-eabi/7.3.0/../../../../arm-none-eabi/lib/armv7e-m/fpu/libc_nano.a(lib_a-mprec.o)
 .text.__s2b    0x0000000000000000       0x7c /usr/lib/gcc/arm-none-eabi/7.3.0/../../../../arm-none-eabi/lib/armv7e-m/fpu/libc_nano.a(lib_a-mprec.o)
 .text.__ulp    0x0000000000000000       0x50 /usr/lib/gcc/arm-none-eabi/7.3.0/../../../../arm-none-eabi/lib/armv7e-m/fpu/libc_nano.a(lib_a-mprec.o)
 .text.__b2d    0x0000000000000000       0x9c /usr/lib/gcc/arm-none-eabi/7.3.0/../../../../arm-none-eabi/lib/armv7e-m/fpu/libc_nano.a(lib_a-mprec.o)
 .text.__ratio  0x0000000000000000       0x66 /usr/lib/gcc/arm-none-eabi/7.3.0/../../../../arm-none-eabi/lib/armv7e-m/fpu/libc_nano.a(lib_a-mprec.o)
 .text._mprec_log10
                0x0000000000000000       0x3c /usr/lib/gcc/arm-none-eabi/7.3.0/../../../../arm-none-eabi/lib/armv7e-m/fpu/libc_nano.a(lib_a-mprec.o)
 .text.__copybits
                0x0000000000000000       0x34 /usr/lib/gcc/arm-none-eabi/7.3.0/../../../../arm-none-eabi/lib/armv7e-m/fpu/libc_nano.a(lib_a-mprec.o)
 .text.__any_on
                0x0000000000000000       0x42 /usr/lib/gcc/arm-none-eabi/7.3.0/../../../../arm-none-eabi/lib/armv7e-m/fpu/libc_nano.a(lib_a-mprec.o)
 .rodata.__mprec_tinytens
                0x0000000000000000       0x28 /usr/lib/gcc/arm-none-eabi/7.3.0/../../../../arm-none-eabi/lib/armv7e-m/fpu/libc_nano.a(lib_a-mprec.o)
 .text          0x0000000000000000        0x0 /usr/lib/gcc/arm-none-eabi/7.3.0/../../../../arm-none-eabi/lib/armv7e-m/fpu/libc_nano.a(lib_a-nano-callocr.o)
 .data          0x0000000000000000        0x0 /usr/lib/gcc/arm-none-eabi/7.3.0/../../../../arm-none-eabi/lib/armv7e-m/fpu/libc_nano.a(lib_a-nano-callocr.o)
 .bss           0x0000000000000000        0x0 /usr/lib/gcc/arm-none-eabi/7.3.0/../../../../arm-none-eabi/lib/armv7e-m/fpu/libc_nano.a(lib_a-nano-callocr.o)
 .text          0x0000000000000000        0x0 /usr/lib/gcc/arm-none-eabi/7.3.0/../../../../arm-none-eabi/lib/armv7e-m/fpu/libc_nano.a(lib_a-nano-freer.o)
 .data          0x0000000000000000        0x0 /usr/lib/gcc/arm-none-eabi/7.3.0/../../../../arm-none-eabi/lib/armv7e-m/fpu/libc_nano.a(lib_a-nano-freer.o)
 .bss           0x0000000000000000        0x0 /usr/lib/gcc/arm-none-eabi/7.3.0/../../../../arm-none-eabi/lib/armv7e-m/fpu/libc_nano.a(lib_a-nano-freer.o)
 .text          0x0000000000000000        0x0 /usr/lib/gcc/arm-none-eabi/7.3.0/../../../../arm-none-eabi/lib/armv7e-m/fpu/libc_nano.a(lib_a-nano-mallocr.o)
 .data          0x0000000000000000        0x0 /usr/lib/gcc/arm-none-eabi/7.3.0/../../../../arm-none-eabi/lib/armv7e-m/fpu/libc_nano.a(lib_a-nano-mallocr.o)
 .bss           0x0000000000000000        0x0 /usr/lib/gcc/arm-none-eabi/7.3.0/../../../../arm-none-eabi/lib/armv7e-m/fpu/libc_nano.a(lib_a-nano-mallocr.o)
 .text          0x0000000000000000        0x0 /usr/lib/gcc/arm-none-eabi/7.3.0/../../../../arm-none-eabi/lib/armv7e-m/fpu/libc_nano.a(lib_a-nano-svfprintf.o)
 .data          0x0000000000000000        0x0 /usr/lib/gcc/arm-none-eabi/7.3.0/../../../../arm-none-eabi/lib/armv7e-m/fpu/libc_nano.a(lib_a-nano-svfprintf.o)
 .bss           0x0000000000000000        0x0 /usr/lib/gcc/arm-none-eabi/7.3.0/../../../../arm-none-eabi/lib/armv7e-m/fpu/libc_nano.a(lib_a-nano-svfprintf.o)
 .text.__ssprint_r
                0x0000000000000000       0xf0 /usr/lib/gcc/arm-none-eabi/7.3.0/../../../../arm-none-eabi/lib/armv7e-m/fpu/libc_nano.a(lib_a-nano-svfprintf.o)
 .text          0x0000000000000000        0x0 /usr/lib/gcc/arm-none-eabi/7.3.0/../../../../arm-none-eabi/lib/armv7e-m/fpu/libc_nano.a(lib_a-sbrkr.o)
 .data          0x0000000000000000        0x0 /usr/lib/gcc/arm-none-eabi/7.3.0/../../../../arm-none-eabi/lib/armv7e-m/fpu/libc_nano.a(lib_a-sbrkr.o)
 .bss           0x0000000000000000        0x0 /usr/lib/gcc/arm-none-eabi/7.3.0/../../../../arm-none-eabi/lib/armv7e-m/fpu/libc_nano.a(lib_a-sbrkr.o)
 .text          0x0000000000000000       0x14 /usr/lib/gcc/arm-none-eabi/7.3.0/../../../../arm-none-eabi/lib/armv7e-m/fpu/libc_nano.a(lib_a-strcmp.o)
 .data          0x0000000000000000        0x0 /usr/lib/gcc/arm-none-eabi/7.3.0/../../../../arm-none-eabi/lib/armv7e-m/fpu/libc_nano.a(lib_a-strcmp.o)
 .bss           0x0000000000000000        0x0 /usr/lib/gcc/arm-none-eabi/7.3.0/../../../../arm-none-eabi/lib/armv7e-m/fpu/libc_nano.a(lib_a-strcmp.o)
 .debug_frame   0x0000000000000000       0x20 /usr/lib/gcc/arm-none-eabi/7.3.0/../../../../arm-none-eabi/lib/armv7e-m/fpu/libc_nano.a(lib_a-strcmp.o)
 .ARM.attributes
                0x0000000000000000       0x20 /usr/lib/gcc/arm-none-eabi/7.3.0/../../../../arm-none-eabi/lib/armv7e-m/fpu/libc_nano.a(lib_a-strcmp.o)
 .text          0x0000000000000000        0x0 /usr/lib/gcc/arm-none-eabi/7.3.0/../../../../arm-none-eabi/lib/armv7e-m/fpu/libc_nano.a(lib_a-wctomb_r.o)
 .data          0x0000000000000000        0x0 /usr/lib/gcc/arm-none-eabi/7.3.0/../../../../arm-none-eabi/lib/armv7e-m/fpu/libc_nano.a(lib_a-wctomb_r.o)
 .bss           0x0000000000000000        0x0 /usr/lib/gcc/arm-none-eabi/7.3.0/../../../../arm-none-eabi/lib/armv7e-m/fpu/libc_nano.a(lib_a-wctomb_r.o)
 .text._wctomb_r
                0x0000000000000000       0x24 /usr/lib/gcc/arm-none-eabi/7.3.0/../../../../arm-none-eabi/lib/armv7e-m/fpu/libc_nano.a(lib_a-wctomb_r.o)
 .text          0x0000000000000000        0x0 /usr/lib/gcc/arm-none-eabi/7.3.0/../../../../arm-none-eabi/lib/armv7e-m/fpu/libc_nano.a(lib_a-ctype_.o)
 .data          0x0000000000000000        0x0 /usr/lib/gcc/arm-none-eabi/7.3.0/../../../../arm-none-eabi/lib/armv7e-m/fpu/libc_nano.a(lib_a-ctype_.o)
 .bss           0x0000000000000000        0x0 /usr/lib/gcc/arm-none-eabi/7.3.0/../../../../arm-none-eabi/lib/armv7e-m/fpu/libc_nano.a(lib_a-ctype_.o)
 .text          0x0000000000000000        0x0 /usr/lib/gcc/arm-none-eabi/7.3.0/../../../../arm-none-eabi/lib/armv7e-m/fpu/libc_nano.a(lib_a-memmove.o)
 .data          0x0000000000000000        0x0 /usr/lib/gcc/arm-none-eabi/7.3.0/../../../../arm-none-eabi/lib/armv7e-m/fpu/libc_nano.a(lib_a-memmove.o)
 .bss           0x0000000000000000        0x0 /usr/lib/gcc/arm-none-eabi/7.3.0/../../../../arm-none-eabi/lib/armv7e-m/fpu/libc_nano.a(lib_a-memmove.o)
 .text          0x0000000000000000        0x0 /usr/lib/gcc/arm-none-eabi/7.3.0/../../../../arm-none-eabi/lib/armv7e-m/fpu/libc_nano.a(lib_a-mlock.o)
 .data          0x0000000000000000        0x0 /usr/lib/gcc/arm-none-eabi/7.3.0/../../../../arm-none-eabi/lib/armv7e-m/fpu/libc_nano.a(lib_a-mlock.o)
 .bss           0x0000000000000000        0x0 /usr/lib/gcc/arm-none-eabi/7.3.0/../../../../arm-none-eabi/lib/armv7e-m/fpu/libc_nano.a(lib_a-mlock.o)
 .text          0x0000000000000000        0x0 /usr/lib/gcc/arm-none-eabi/7.3.0/../../../../arm-none-eabi/lib/armv7e-m/fpu/libc_nano.a(lib_a-nano-reallocr.o)
 .data          0x0000000000000000        0x0 /usr/lib/gcc/arm-none-eabi/7.3.0/../../../../arm-none-eabi/lib/armv7e-m/fpu/libc_nano.a(lib_a-nano-reallocr.o)
 .bss           0x0000000000000000        0x0 /usr/lib/gcc/arm-none-eabi/7.3.0/../../../../arm-none-eabi/lib/armv7e-m/fpu/libc_nano.a(lib_a-nano-reallocr.o)
 .text          0x0000000000000000        0x0 /usr/lib/gcc/arm-none-eabi/7.3.0/../../../../arm-none-eabi/lib/armv7e-m/fpu/libc_nano.a(lib_a-reent.o)
 .data          0x0000000000000000        0x0 /usr/lib/gcc/arm-none-eabi/7.3.0/../../../../arm-none-eabi/lib/armv7e-m/fpu/libc_nano.a(lib_a-reent.o)
 .bss           0x0000000000000000        0x0 /usr/lib/gcc/arm-none-eabi/7.3.0/../../../../arm-none-eabi/lib/armv7e-m/fpu/libc_nano.a(lib_a-reent.o)
 .text.cleanup_glue
                0x0000000000000000       0x1a /usr/lib/gcc/arm-none-eabi/7.3.0/../../../../arm-none-eabi/lib/armv7e-m/fpu/libc_nano.a(lib_a-reent.o)
 .text._reclaim_reent
                0x0000000000000000       0xb8 /usr/lib/gcc/arm-none-eabi/7.3.0/../../../../arm-none-eabi/lib/armv7e-m/fpu/libc_nano.a(lib_a-reent.o)
 .text          0x0000000000000000        0x0 /usr/lib/gcc/arm-none-eabi/7.3.0/../../../../arm-none-eabi/lib/armv7e-m/fpu/libc_nano.a(lib_a-nano-msizer.o)
 .data          0x0000000000000000        0x0 /usr/lib/gcc/arm-none-eabi/7.3.0/../../../../arm-none-eabi/lib/armv7e-m/fpu/libc_nano.a(lib_a-nano-msizer.o)
 .bss           0x0000000000000000        0x0 /usr/lib/gcc/arm-none-eabi/7.3.0/../../../../arm-none-eabi/lib/armv7e-m/fpu/libc_nano.a(lib_a-nano-msizer.o)
 .text          0x0000000000000000        0x0 /usr/lib/gcc/arm-none-eabi/7.3.0/../../../../arm-none-eabi/lib/armv7e-m/fpu/libm.a(lib_a-s_cos.o)
 .data          0x0000000000000000        0x0 /usr/lib/gcc/arm-none-eabi/7.3.0/../../../../arm-none-eabi/lib/armv7e-m/fpu/libm.a(lib_a-s_cos.o)
 .bss           0x0000000000000000        0x0 /usr/lib/gcc/arm-none-eabi/7.3.0/../../../../arm-none-eabi/lib/armv7e-m/fpu/libm.a(lib_a-s_cos.o)
 .text          0x0000000000000000        0x0 /usr/lib/gcc/arm-none-eabi/7.3.0/../../../../arm-none-eabi/lib/armv7e-m/fpu/libm.a(lib_a-s_sin.o)
 .data          0x0000000000000000        0x0 /usr/lib/gcc/arm-none-eabi/7.3.0/../../../../arm-none-eabi/lib/armv7e-m/fpu/libm.a(lib_a-s_sin.o)
 .bss           0x0000000000000000        0x0 /usr/lib/gcc/arm-none-eabi/7.3.0/../../../../arm-none-eabi/lib/armv7e-m/fpu/libm.a(lib_a-s_sin.o)
 .text          0x0000000000000000        0x0 /usr/lib/gcc/arm-none-eabi/7.3.0/../../../../arm-none-eabi/lib/armv7e-m/fpu/libm.a(lib_a-w_atan2.o)
 .data          0x0000000000000000        0x0 /usr/lib/gcc/arm-none-eabi/7.3.0/../../../../arm-none-eabi/lib/armv7e-m/fpu/libm.a(lib_a-w_atan2.o)
 .bss           0x0000000000000000        0x0 /usr/lib/gcc/arm-none-eabi/7.3.0/../../../../arm-none-eabi/lib/armv7e-m/fpu/libm.a(lib_a-w_atan2.o)
 .text.atan2    0x0000000000000000        0x4 /usr/lib/gcc/arm-none-eabi/7.3.0/../../../../arm-none-eabi/lib/armv7e-m/fpu/libm.a(lib_a-w_atan2.o)
 .debug_frame   0x0000000000000000       0x20 /usr/lib/gcc/arm-none-eabi/7.3.0/../../../../arm-none-eabi/lib/armv7e-m/fpu/libm.a(lib_a-w_atan2.o)
 .ARM.attributes
                0x0000000000000000       0x34 /usr/lib/gcc/arm-none-eabi/7.3.0/../../../../arm-none-eabi/lib/armv7e-m/fpu/libm.a(lib_a-w_atan2.o)
 .text          0x0000000000000000        0x0 /usr/lib/gcc/arm-none-eabi/7.3.0/../../../../arm-none-eabi/lib/armv7e-m/fpu/libm.a(lib_a-w_pow.o)
 .data          0x0000000000000000        0x0 /usr/lib/gcc/arm-none-eabi/7.3.0/../../../../arm-none-eabi/lib/armv7e-m/fpu/libm.a(lib_a-w_pow.o)
 .bss           0x0000000000000000        0x0 /usr/lib/gcc/arm-none-eabi/7.3.0/../../../../arm-none-eabi/lib/armv7e-m/fpu/libm.a(lib_a-w_pow.o)
 .text          0x0000000000000000        0x0 /usr/lib/gcc/arm-none-eabi/7.3.0/../../../../arm-none-eabi/lib/armv7e-m/fpu/libm.a(lib_a-w_sqrt.o)
 .data          0x0000000000000000        0x0 /usr/lib/gcc/arm-none-eabi/7.3.0/../../../../arm-none-eabi/lib/armv7e-m/fpu/libm.a(lib_a-w_sqrt.o)
 .bss           0x0000000000000000        0x0 /usr/lib/gcc/arm-none-eabi/7.3.0/../../../../arm-none-eabi/lib/armv7e-m/fpu/libm.a(lib_a-w_sqrt.o)
 .text          0x0000000000000000        0x0 /usr/lib/gcc/arm-none-eabi/7.3.0/../../../../arm-none-eabi/lib/armv7e-m/fpu/libm.a(lib_a-e_atan2.o)
 .data          0x0000000000000000        0x0 /usr/lib/gcc/arm-none-eabi/7.3.0/../../../../arm-none-eabi/lib/armv7e-m/fpu/libm.a(lib_a-e_atan2.o)
 .bss           0x0000000000000000        0x0 /usr/lib/gcc/arm-none-eabi/7.3.0/../../../../arm-none-eabi/lib/armv7e-m/fpu/libm.a(lib_a-e_atan2.o)
 .text.__ieee754_atan2
                0x0000000000000000      0x1c4 /usr/lib/gcc/arm-none-eabi/7.3.0/../../../../arm-none-eabi/lib/armv7e-m/fpu/libm.a(lib_a-e_atan2.o)
 .debug_frame   0x0000000000000000       0x44 /usr/lib/gcc/arm-none-eabi/7.3.0/../../../../arm-none-eabi/lib/armv7e-m/fpu/libm.a(lib_a-e_atan2.o)
 .ARM.attributes
                0x0000000000000000       0x34 /usr/lib/gcc/arm-none-eabi/7.3.0/../../../../arm-none-eabi/lib/armv7e-m/fpu/libm.a(lib_a-e_atan2.o)
 .text          0x0000000000000000        0x0 /usr/lib/gcc/arm-none-eabi/7.3.0/../../../../arm-none-eabi/lib/armv7e-m/fpu/libm.a(lib_a-e_pow.o)
 .data          0x0000000000000000        0x0 /usr/lib/gcc/arm-none-eabi/7.3.0/../../../../arm-none-eabi/lib/armv7e-m/fpu/libm.a(lib_a-e_pow.o)
 .bss           0x0000000000000000        0x0 /usr/lib/gcc/arm-none-eabi/7.3.0/../../../../arm-none-eabi/lib/armv7e-m/fpu/libm.a(lib_a-e_pow.o)
 .text          0x0000000000000000        0x0 /usr/lib/gcc/arm-none-eabi/7.3.0/../../../../arm-none-eabi/lib/armv7e-m/fpu/libm.a(lib_a-e_rem_pio2.o)
 .data          0x0000000000000000        0x0 /usr/lib/gcc/arm-none-eabi/7.3.0/../../../../arm-none-eabi/lib/armv7e-m/fpu/libm.a(lib_a-e_rem_pio2.o)
 .bss           0x0000000000000000        0x0 /usr/lib/gcc/arm-none-eabi/7.3.0/../../../../arm-none-eabi/lib/armv7e-m/fpu/libm.a(lib_a-e_rem_pio2.o)
 .text          0x0000000000000000        0x0 /usr/lib/gcc/arm-none-eabi/7.3.0/../../../../arm-none-eabi/lib/armv7e-m/fpu/libm.a(lib_a-e_sqrt.o)
 .data          0x0000000000000000        0x0 /usr/lib/gcc/arm-none-eabi/7.3.0/../../../../arm-none-eabi/lib/armv7e-m/fpu/libm.a(lib_a-e_sqrt.o)
 .bss           0x0000000000000000        0x0 /usr/lib/gcc/arm-none-eabi/7.3.0/../../../../arm-none-eabi/lib/armv7e-m/fpu/libm.a(lib_a-e_sqrt.o)
 .text          0x0000000000000000        0x0 /usr/lib/gcc/arm-none-eabi/7.3.0/../../../../arm-none-eabi/lib/armv7e-m/fpu/libm.a(lib_a-k_cos.o)
 .data          0x0000000000000000        0x0 /usr/lib/gcc/arm-none-eabi/7.3.0/../../../../arm-none-eabi/lib/armv7e-m/fpu/libm.a(lib_a-k_cos.o)
 .bss           0x0000000000000000        0x0 /usr/lib/gcc/arm-none-eabi/7.3.0/../../../../arm-none-eabi/lib/armv7e-m/fpu/libm.a(lib_a-k_cos.o)
 .text          0x0000000000000000        0x0 /usr/lib/gcc/arm-none-eabi/7.3.0/../../../../arm-none-eabi/lib/armv7e-m/fpu/libm.a(lib_a-k_rem_pio2.o)
 .data          0x0000000000000000        0x0 /usr/lib/gcc/arm-none-eabi/7.3.0/../../../../arm-none-eabi/lib/armv7e-m/fpu/libm.a(lib_a-k_rem_pio2.o)
 .bss           0x0000000000000000        0x0 /usr/lib/gcc/arm-none-eabi/7.3.0/../../../../arm-none-eabi/lib/armv7e-m/fpu/libm.a(lib_a-k_rem_pio2.o)
 .text          0x0000000000000000        0x0 /usr/lib/gcc/arm-none-eabi/7.3.0/../../../../arm-none-eabi/lib/armv7e-m/fpu/libm.a(lib_a-k_sin.o)
 .data          0x0000000000000000        0x0 /usr/lib/gcc/arm-none-eabi/7.3.0/../../../../arm-none-eabi/lib/armv7e-m/fpu/libm.a(lib_a-k_sin.o)
 .bss           0x0000000000000000        0x0 /usr/lib/gcc/arm-none-eabi/7.3.0/../../../../arm-none-eabi/lib/armv7e-m/fpu/libm.a(lib_a-k_sin.o)
 .text          0x0000000000000000        0x0 /usr/lib/gcc/arm-none-eabi/7.3.0/../../../../arm-none-eabi/lib/armv7e-m/fpu/libm.a(lib_a-s_atan.o)
 .data          0x0000000000000000        0x0 /usr/lib/gcc/arm-none-eabi/7.3.0/../../../../arm-none-eabi/lib/armv7e-m/fpu/libm.a(lib_a-s_atan.o)
 .bss           0x0000000000000000        0x0 /usr/lib/gcc/arm-none-eabi/7.3.0/../../../../arm-none-eabi/lib/armv7e-m/fpu/libm.a(lib_a-s_atan.o)
 .text.atan     0x0000000000000000      0x358 /usr/lib/gcc/arm-none-eabi/7.3.0/../../../../arm-none-eabi/lib/armv7e-m/fpu/libm.a(lib_a-s_atan.o)
 .rodata.atanhi
                0x0000000000000000       0x20 /usr/lib/gcc/arm-none-eabi/7.3.0/../../../../arm-none-eabi/lib/armv7e-m/fpu/libm.a(lib_a-s_atan.o)
 .rodata.atanlo
                0x0000000000000000       0x20 /usr/lib/gcc/arm-none-eabi/7.3.0/../../../../arm-none-eabi/lib/armv7e-m/fpu/libm.a(lib_a-s_atan.o)
 .debug_frame   0x0000000000000000       0x38 /usr/lib/gcc/arm-none-eabi/7.3.0/../../../../arm-none-eabi/lib/armv7e-m/fpu/libm.a(lib_a-s_atan.o)
 .ARM.attributes
                0x0000000000000000       0x34 /usr/lib/gcc/arm-none-eabi/7.3.0/../../../../arm-none-eabi/lib/armv7e-m/fpu/libm.a(lib_a-s_atan.o)
 .text          0x0000000000000000        0x0 /usr/lib/gcc/arm-none-eabi/7.3.0/../../../../arm-none-eabi/lib/armv7e-m/fpu/libm.a(lib_a-s_fabs.o)
 .data          0x0000000000000000        0x0 /usr/lib/gcc/arm-none-eabi/7.3.0/../../../../arm-none-eabi/lib/armv7e-m/fpu/libm.a(lib_a-s_fabs.o)
 .bss           0x0000000000000000        0x0 /usr/lib/gcc/arm-none-eabi/7.3.0/../../../../arm-none-eabi/lib/armv7e-m/fpu/libm.a(lib_a-s_fabs.o)
 .text          0x0000000000000000        0x0 /usr/lib/gcc/arm-none-eabi/7.3.0/../../../../arm-none-eabi/lib/armv7e-m/fpu/libm.a(lib_a-s_finite.o)
 .data          0x0000000000000000        0x0 /usr/lib/gcc/arm-none-eabi/7.3.0/../../../../arm-none-eabi/lib/armv7e-m/fpu/libm.a(lib_a-s_finite.o)
 .bss           0x0000000000000000        0x0 /usr/lib/gcc/arm-none-eabi/7.3.0/../../../../arm-none-eabi/lib/armv7e-m/fpu/libm.a(lib_a-s_finite.o)
 .text          0x0000000000000000        0x0 /usr/lib/gcc/arm-none-eabi/7.3.0/../../../../arm-none-eabi/lib/armv7e-m/fpu/libm.a(lib_a-s_floor.o)
 .data          0x0000000000000000        0x0 /usr/lib/gcc/arm-none-eabi/7.3.0/../../../../arm-none-eabi/lib/armv7e-m/fpu/libm.a(lib_a-s_floor.o)
 .bss           0x0000000000000000        0x0 /usr/lib/gcc/arm-none-eabi/7.3.0/../../../../arm-none-eabi/lib/armv7e-m/fpu/libm.a(lib_a-s_floor.o)
 .text          0x0000000000000000        0x0 /usr/lib/gcc/arm-none-eabi/7.3.0/../../../../arm-none-eabi/lib/armv7e-m/fpu/libm.a(lib_a-s_lib_ver.o)
 .data          0x0000000000000000        0x0 /usr/lib/gcc/arm-none-eabi/7.3.0/../../../../arm-none-eabi/lib/armv7e-m/fpu/libm.a(lib_a-s_lib_ver.o)
 .bss           0x0000000000000000        0x0 /usr/lib/gcc/arm-none-eabi/7.3.0/../../../../arm-none-eabi/lib/armv7e-m/fpu/libm.a(lib_a-s_lib_ver.o)
 .text          0x0000000000000000        0x0 /usr/lib/gcc/arm-none-eabi/7.3.0/../../../../arm-none-eabi/lib/armv7e-m/fpu/libm.a(lib_a-s_matherr.o)
 .data          0x0000000000000000        0x0 /usr/lib/gcc/arm-none-eabi/7.3.0/../../../../arm-none-eabi/lib/armv7e-m/fpu/libm.a(lib_a-s_matherr.o)
 .bss           0x0000000000000000        0x0 /usr/lib/gcc/arm-none-eabi/7.3.0/../../../../arm-none-eabi/lib/armv7e-m/fpu/libm.a(lib_a-s_matherr.o)
 .text          0x0000000000000000        0x0 /usr/lib/gcc/arm-none-eabi/7.3.0/../../../../arm-none-eabi/lib/armv7e-m/fpu/libm.a(lib_a-s_nan.o)
 .data          0x0000000000000000        0x0 /usr/lib/gcc/arm-none-eabi/7.3.0/../../../../arm-none-eabi/lib/armv7e-m/fpu/libm.a(lib_a-s_nan.o)
 .bss           0x0000000000000000        0x0 /usr/lib/gcc/arm-none-eabi/7.3.0/../../../../arm-none-eabi/lib/armv7e-m/fpu/libm.a(lib_a-s_nan.o)
 .text          0x0000000000000000        0x0 /usr/lib/gcc/arm-none-eabi/7.3.0/../../../../arm-none-eabi/lib/armv7e-m/fpu/libm.a(lib_a-s_rint.o)
 .data          0x0000000000000000        0x0 /usr/lib/gcc/arm-none-eabi/7.3.0/../../../../arm-none-eabi/lib/armv7e-m/fpu/libm.a(lib_a-s_rint.o)
 .bss           0x0000000000000000        0x0 /usr/lib/gcc/arm-none-eabi/7.3.0/../../../../arm-none-eabi/lib/armv7e-m/fpu/libm.a(lib_a-s_rint.o)
 .text          0x0000000000000000        0x0 /usr/lib/gcc/arm-none-eabi/7.3.0/../../../../arm-none-eabi/lib/armv7e-m/fpu/libm.a(lib_a-s_scalbn.o)
 .data          0x0000000000000000        0x0 /usr/lib/gcc/arm-none-eabi/7.3.0/../../../../arm-none-eabi/lib/armv7e-m/fpu/libm.a(lib_a-s_scalbn.o)
 .bss           0x0000000000000000        0x0 /usr/lib/gcc/arm-none-eabi/7.3.0/../../../../arm-none-eabi/lib/armv7e-m/fpu/libm.a(lib_a-s_scalbn.o)
 .text          0x0000000000000000        0x0 /usr/lib/gcc/arm-none-eabi/7.3.0/../../../../arm-none-eabi/lib/armv7e-m/fpu/libm.a(lib_a-s_copysign.o)
 .data          0x0000000000000000        0x0 /usr/lib/gcc/arm-none-eabi/7.3.0/../../../../arm-none-eabi/lib/armv7e-m/fpu/libm.a(lib_a-s_copysign.o)
 .bss           0x0000000000000000        0x0 /usr/lib/gcc/arm-none-eabi/7.3.0/../../../../arm-none-eabi/lib/armv7e-m/fpu/libm.a(lib_a-s_copysign.o)
 .text          0x0000000000000000        0x0 /usr/lib/gcc/arm-none-eabi/7.3.0/../../../../arm-none-eabi/lib/armv7e-m/fpu/libnosys.a(sbrk.o)
 .data          0x0000000000000000        0x0 /usr/lib/gcc/arm-none-eabi/7.3.0/../../../../arm-none-eabi/lib/armv7e-m/fpu/libnosys.a(sbrk.o)
 .bss           0x0000000000000000        0x0 /usr/lib/gcc/arm-none-eabi/7.3.0/../../../../arm-none-eabi/lib/armv7e-m/fpu/libnosys.a(sbrk.o)
 .text          0x0000000000000000        0x0 /usr/lib/gcc/arm-none-eabi/7.3.0/../../../../arm-none-eabi/lib/armv7e-m/fpu/libnosys.a(_exit.o)
 .data          0x0000000000000000        0x0 /usr/lib/gcc/arm-none-eabi/7.3.0/../../../../arm-none-eabi/lib/armv7e-m/fpu/libnosys.a(_exit.o)
 .bss           0x0000000000000000        0x0 /usr/lib/gcc/arm-none-eabi/7.3.0/../../../../arm-none-eabi/lib/armv7e-m/fpu/libnosys.a(_exit.o)
 .text._exit    0x0000000000000000        0x4 /usr/lib/gcc/arm-none-eabi/7.3.0/../../../../arm-none-eabi/lib/armv7e-m/fpu/libnosys.a(_exit.o)
 .debug_frame   0x0000000000000000       0x20 /usr/lib/gcc/arm-none-eabi/7.3.0/../../../../arm-none-eabi/lib/armv7e-m/fpu/libnosys.a(_exit.o)
 .ARM.attributes
                0x0000000000000000       0x34 /usr/lib/gcc/arm-none-eabi/7.3.0/../../../../arm-none-eabi/lib/armv7e-m/fpu/libnosys.a(_exit.o)
 .data          0x0000000000000000        0x0 /usr/lib/gcc/arm-none-eabi/7.3.0/armv7e-m/fpu/libgcc.a(_arm_addsubdf3.o)
 .bss           0x0000000000000000        0x0 /usr/lib/gcc/arm-none-eabi/7.3.0/armv7e-m/fpu/libgcc.a(_arm_addsubdf3.o)
 .data          0x0000000000000000        0x0 /usr/lib/gcc/arm-none-eabi/7.3.0/armv7e-m/fpu/libgcc.a(_arm_muldivdf3.o)
 .bss           0x0000000000000000        0x0 /usr/lib/gcc/arm-none-eabi/7.3.0/armv7e-m/fpu/libgcc.a(_arm_muldivdf3.o)
 .data          0x0000000000000000        0x0 /usr/lib/gcc/arm-none-eabi/7.3.0/armv7e-m/fpu/libgcc.a(_arm_cmpdf2.o)
 .bss           0x0000000000000000        0x0 /usr/lib/gcc/arm-none-eabi/7.3.0/armv7e-m/fpu/libgcc.a(_arm_cmpdf2.o)
 .data          0x0000000000000000        0x0 /usr/lib/gcc/arm-none-eabi/7.3.0/armv7e-m/fpu/libgcc.a(_arm_unorddf2.o)
 .bss           0x0000000000000000        0x0 /usr/lib/gcc/arm-none-eabi/7.3.0/armv7e-m/fpu/libgcc.a(_arm_unorddf2.o)
 .data          0x0000000000000000        0x0 /usr/lib/gcc/arm-none-eabi/7.3.0/armv7e-m/fpu/libgcc.a(_arm_fixdfsi.o)
 .bss           0x0000000000000000        0x0 /usr/lib/gcc/arm-none-eabi/7.3.0/armv7e-m/fpu/libgcc.a(_arm_fixdfsi.o)
 .data          0x0000000000000000        0x0 /usr/lib/gcc/arm-none-eabi/7.3.0/armv7e-m/fpu/libgcc.a(_arm_fixunsdfsi.o)
 .bss           0x0000000000000000        0x0 /usr/lib/gcc/arm-none-eabi/7.3.0/armv7e-m/fpu/libgcc.a(_arm_fixunsdfsi.o)
 .data          0x0000000000000000        0x0 /usr/lib/gcc/arm-none-eabi/7.3.0/armv7e-m/fpu/libgcc.a(_arm_truncdfsf2.o)
 .bss           0x0000000000000000        0x0 /usr/lib/gcc/arm-none-eabi/7.3.0/armv7e-m/fpu/libgcc.a(_arm_truncdfsf2.o)
 .data          0x0000000000000000        0x0 /usr/lib/gcc/arm-none-eabi/7.3.0/armv7e-m/fpu/libgcc.a(_aeabi_uldivmod.o)
 .bss           0x0000000000000000        0x0 /usr/lib/gcc/arm-none-eabi/7.3.0/armv7e-m/fpu/libgcc.a(_aeabi_uldivmod.o)
 .text          0x0000000000000000        0x0 /usr/lib/gcc/arm-none-eabi/7.3.0/armv7e-m/fpu/libgcc.a(_udivmoddi4.o)
 .data          0x0000000000000000        0x0 /usr/lib/gcc/arm-none-eabi/7.3.0/armv7e-m/fpu/libgcc.a(_udivmoddi4.o)
 .bss           0x0000000000000000        0x0 /usr/lib/gcc/arm-none-eabi/7.3.0/armv7e-m/fpu/libgcc.a(_udivmoddi4.o)
 .ARM.extab.text.__udivmoddi4
                0x0000000000000000        0x0 /usr/lib/gcc/arm-none-eabi/7.3.0/armv7e-m/fpu/libgcc.a(_udivmoddi4.o)
 .data          0x0000000000000000        0x0 /usr/lib/gcc/arm-none-eabi/7.3.0/armv7e-m/fpu/libgcc.a(_dvmd_tls.o)
 .bss           0x0000000000000000        0x0 /usr/lib/gcc/arm-none-eabi/7.3.0/armv7e-m/fpu/libgcc.a(_dvmd_tls.o)
 .text          0x0000000000000000        0x0 /usr/lib/gcc/arm-none-eabi/7.3.0/../../../../arm-none-eabi/lib/armv7e-m/fpu/libc_nano.a(lib_a-errno.o)
 .data          0x0000000000000000        0x0 /usr/lib/gcc/arm-none-eabi/7.3.0/../../../../arm-none-eabi/lib/armv7e-m/fpu/libc_nano.a(lib_a-errno.o)
 .bss           0x0000000000000000        0x0 /usr/lib/gcc/arm-none-eabi/7.3.0/../../../../arm-none-eabi/lib/armv7e-m/fpu/libc_nano.a(lib_a-errno.o)
 .text          0x0000000000000000        0x0 /usr/lib/gcc/arm-none-eabi/7.3.0/armv7e-m/fpu/crtend.o
 .data          0x0000000000000000        0x0 /usr/lib/gcc/arm-none-eabi/7.3.0/armv7e-m/fpu/crtend.o
 .bss           0x0000000000000000        0x0 /usr/lib/gcc/arm-none-eabi/7.3.0/armv7e-m/fpu/crtend.o
 .eh_frame      0x0000000000000000        0x4 /usr/lib/gcc/arm-none-eabi/7.3.0/armv7e-m/fpu/crtend.o
 .ARM.attributes
                0x0000000000000000       0x34 /usr/lib/gcc/arm-none-eabi/7.3.0/armv7e-m/fpu/crtend.o
 .text          0x0000000000000000        0x0 /usr/lib/gcc/arm-none-eabi/7.3.0/armv7e-m/fpu/crtn.o
 .data          0x0000000000000000        0x0 /usr/lib/gcc/arm-none-eabi/7.3.0/armv7e-m/fpu/crtn.o
 .bss           0x0000000000000000        0x0 /usr/lib/gcc/arm-none-eabi/7.3.0/armv7e-m/fpu/crtn.o

Memory Configuration

Name             Origin             Length             Attributes
RAM              0x0000000020000000 0x0000000000018000 xrw
FLASH            0x0000000008000000 0x0000000000080000 xr
*default*        0x0000000000000000 0xffffffffffffffff

Linker script and memory map

LOAD /usr/lib/gcc/arm-none-eabi/7.3.0/armv7e-m/fpu/crti.o
LOAD /usr/lib/gcc/arm-none-eabi/7.3.0/armv7e-m/fpu/crtbegin.o
LOAD /usr/lib/gcc/arm-none-eabi/7.3.0/../../../../arm-none-eabi/lib/armv7e-m/fpu/crt0.o
LOAD build/crc_16.o
LOAD build/robotronik_protocol.o
LOAD build/remote_call.o
LOAD build/tof.o
LOAD build/system.o
LOAD build/pi_client.o
LOAD build/heap.o
LOAD build/map.o
LOAD build/astar.o
LOAD build/obstacle.o
LOAD build/strategy.o
LOAD build/gas.o
LOAD build/position_client.o
LOAD build/z_client.o
LOAD build/build.o
LOAD build/vl53l0x_api.o
LOAD build/vl53l0x_api_calibration.o
LOAD build/vl53l0x_api_core.o
LOAD build/vl53l0x_api_ranging.o
LOAD build/vl53l0x_api_strings.o
LOAD build/vl53l0x_platform_log.o
LOAD build/vl53l0x_platform.o
LOAD build/usart.o
LOAD build/stm32f4xx_hal_flash.o
LOAD build/main.o
LOAD build/i2c.o
LOAD build/stm32f4xx_hal_msp.o
LOAD build/stm32f4xx_hal_flash_ramfunc.o
LOAD build/stm32f4xx_hal_i2c_ex.o
LOAD build/stm32f4xx_hal_pwr_ex.o
LOAD build/stm32f4xx_hal_cortex.o
LOAD build/stm32f4xx_it.o
LOAD build/stm32f4xx_hal_tim_ex.o
LOAD build/stm32f4xx_hal_rcc.o
LOAD build/gpio.o
LOAD build/stm32f4xx_hal_rcc_ex.o
LOAD build/stm32f4xx_hal_pwr.o
LOAD build/stm32f4xx_hal_gpio.o
LOAD build/stm32f4xx_hal_dma_ex.o
LOAD build/stm32f4xx_hal_flash_ex.o
LOAD build/stm32f4xx_hal_dma.o
LOAD build/stm32f4xx_hal_i2c.o
LOAD build/stm32f4xx_hal.o
LOAD build/stm32f4xx_hal_tim.o
LOAD build/dma.o
LOAD build/stm32f4xx_ll_usart.o
LOAD build/stm32f4xx_ll_rcc.o
LOAD build/stm32f4xx_ll_utils.o
LOAD build/stm32f4xx_ll_dma.o
LOAD build/stm32f4xx_ll_gpio.o
LOAD build/stm32f4xx_ll_exti.o
LOAD build/tim.o
LOAD build/system_stm32f4xx.o
LOAD build/startup_stm32f401xe.o
LOAD /usr/lib/gcc/arm-none-eabi/7.3.0/../../../../arm-none-eabi/lib/armv7e-m/fpu/libc_nano.a
LOAD /usr/lib/gcc/arm-none-eabi/7.3.0/../../../../arm-none-eabi/lib/armv7e-m/fpu/libm.a
LOAD /usr/lib/gcc/arm-none-eabi/7.3.0/../../../../arm-none-eabi/lib/armv7e-m/fpu/libnosys.a
START GROUP
LOAD /usr/lib/gcc/arm-none-eabi/7.3.0/armv7e-m/fpu/libgcc.a
LOAD /usr/lib/gcc/arm-none-eabi/7.3.0/../../../../arm-none-eabi/lib/armv7e-m/fpu/libc_nano.a
END GROUP
START GROUP
LOAD /usr/lib/gcc/arm-none-eabi/7.3.0/armv7e-m/fpu/libgcc.a
LOAD /usr/lib/gcc/arm-none-eabi/7.3.0/../../../../arm-none-eabi/lib/armv7e-m/fpu/libc_nano.a
END GROUP
LOAD /usr/lib/gcc/arm-none-eabi/7.3.0/armv7e-m/fpu/crtend.o
LOAD /usr/lib/gcc/arm-none-eabi/7.3.0/armv7e-m/fpu/crtn.o
                0x0000000020018000                _estack = 0x20018000
                0x0000000000000200                _Min_Heap_Size = 0x200
                0x0000000000000400                _Min_Stack_Size = 0x400

.isr_vector     0x0000000008000000      0x194
                0x0000000008000000                . = ALIGN (0x4)
 *(.isr_vector)
 .isr_vector    0x0000000008000000      0x194 build/startup_stm32f401xe.o
                0x0000000008000000                g_pfnVectors
                0x0000000008000194                . = ALIGN (0x4)

.text           0x00000000080001a0     0xd7d0
                0x00000000080001a0                . = ALIGN (0x4)
 *(.text)
 .text          0x00000000080001a0       0x10 /usr/lib/gcc/arm-none-eabi/7.3.0/../../../../arm-none-eabi/lib/armv7e-m/fpu/libc_nano.a(lib_a-strlen.o)
                0x00000000080001a0                strlen
 .text          0x00000000080001b0       0xa0 /usr/lib/gcc/arm-none-eabi/7.3.0/../../../../arm-none-eabi/lib/armv7e-m/fpu/libc_nano.a(lib_a-memchr.o)
                0x00000000080001b0                memchr
 .text          0x0000000008000250      0x378 /usr/lib/gcc/arm-none-eabi/7.3.0/armv7e-m/fpu/libgcc.a(_arm_addsubdf3.o)
                0x0000000008000250                __aeabi_drsub
                0x0000000008000258                __aeabi_dsub
                0x0000000008000258                __subdf3
                0x000000000800025c                __adddf3
                0x000000000800025c                __aeabi_dadd
                0x00000000080004d4                __aeabi_ui2d
                0x00000000080004d4                __floatunsidf
                0x00000000080004f4                __floatsidf
                0x00000000080004f4                __aeabi_i2d
                0x0000000008000518                __extendsfdf2
                0x0000000008000518                __aeabi_f2d
                0x000000000800055c                __aeabi_ul2d
                0x000000000800055c                __floatundidf
                0x000000000800056c                __floatdidf
                0x000000000800056c                __aeabi_l2d
 .text          0x00000000080005c8      0x424 /usr/lib/gcc/arm-none-eabi/7.3.0/armv7e-m/fpu/libgcc.a(_arm_muldivdf3.o)
                0x00000000080005c8                __aeabi_dmul
                0x00000000080005c8                __muldf3
                0x000000000800081c                __aeabi_ddiv
                0x000000000800081c                __divdf3
 .text          0x00000000080009ec      0x110 /usr/lib/gcc/arm-none-eabi/7.3.0/armv7e-m/fpu/libgcc.a(_arm_cmpdf2.o)
                0x00000000080009ec                __gtdf2
                0x00000000080009ec                __gedf2
                0x00000000080009f4                __ltdf2
                0x00000000080009f4                __ledf2
                0x00000000080009fc                __cmpdf2
                0x00000000080009fc                __eqdf2
                0x00000000080009fc                __nedf2
                0x0000000008000a78                __aeabi_cdrcmple
                0x0000000008000a88                __aeabi_cdcmple
                0x0000000008000a88                __aeabi_cdcmpeq
                0x0000000008000a98                __aeabi_dcmpeq
                0x0000000008000aac                __aeabi_dcmplt
                0x0000000008000ac0                __aeabi_dcmple
                0x0000000008000ad4                __aeabi_dcmpge
                0x0000000008000ae8                __aeabi_dcmpgt
 .text          0x0000000008000afc       0x2c /usr/lib/gcc/arm-none-eabi/7.3.0/armv7e-m/fpu/libgcc.a(_arm_unorddf2.o)
                0x0000000008000afc                __aeabi_dcmpun
                0x0000000008000afc                __unorddf2
 .text          0x0000000008000b28       0x50 /usr/lib/gcc/arm-none-eabi/7.3.0/armv7e-m/fpu/libgcc.a(_arm_fixdfsi.o)
                0x0000000008000b28                __fixdfsi
                0x0000000008000b28                __aeabi_d2iz
 .text          0x0000000008000b78       0x40 /usr/lib/gcc/arm-none-eabi/7.3.0/armv7e-m/fpu/libgcc.a(_arm_fixunsdfsi.o)
                0x0000000008000b78                __fixunsdfsi
                0x0000000008000b78                __aeabi_d2uiz
 .text          0x0000000008000bb8       0xa0 /usr/lib/gcc/arm-none-eabi/7.3.0/armv7e-m/fpu/libgcc.a(_arm_truncdfsf2.o)
                0x0000000008000bb8                __aeabi_d2f
                0x0000000008000bb8                __truncdfsf2
 .text          0x0000000008000c58       0x30 /usr/lib/gcc/arm-none-eabi/7.3.0/armv7e-m/fpu/libgcc.a(_aeabi_uldivmod.o)
                0x0000000008000c58                __aeabi_uldivmod
 .text          0x0000000008000c88        0x4 /usr/lib/gcc/arm-none-eabi/7.3.0/armv7e-m/fpu/libgcc.a(_dvmd_tls.o)
                0x0000000008000c88                __aeabi_ldiv0
                0x0000000008000c88                __aeabi_idiv0
 *(.text*)
 .text.__do_global_dtors_aux
                0x0000000008000c8c       0x24 /usr/lib/gcc/arm-none-eabi/7.3.0/armv7e-m/fpu/crtbegin.o
 .text.frame_dummy
                0x0000000008000cb0       0x1c /usr/lib/gcc/arm-none-eabi/7.3.0/armv7e-m/fpu/crtbegin.o
 .text.RP_FSM_INIT
                0x0000000008000ccc       0x38 build/robotronik_protocol.o
 .text.RP_Init_Interface
                0x0000000008000d04       0x30 build/robotronik_protocol.o
                0x0000000008000d04                RP_Init_Interface
 .text.RP_Error_Handler
                0x0000000008000d34        0x2 build/robotronik_protocol.o
                0x0000000008000d34                RP_Error_Handler
 *fill*         0x0000000008000d36        0x2 
 .text.RP_FSM_ID
                0x0000000008000d38       0x7c build/robotronik_protocol.o
 .text.RP_FSM_SIZE
                0x0000000008000db4       0xa4 build/robotronik_protocol.o
 .text.RP_FSM_DATA
                0x0000000008000e58       0x94 build/robotronik_protocol.o
 .text.RP_FSM_CRC_LOW
                0x0000000008000eec       0x88 build/robotronik_protocol.o
 .text.RP_FSM_CRC_HIGH
                0x0000000008000f74       0x8c build/robotronik_protocol.o
 .text.RP_FSM_END
                0x0000000008001000       0x60 build/robotronik_protocol.o
 .text.RP_Build_Frame
                0x0000000008001060       0xc8 build/robotronik_protocol.o
                0x0000000008001060                RP_Build_Frame
 .text.RP_Sync  0x0000000008001128       0x34 build/robotronik_protocol.o
                0x0000000008001128                RP_Sync
 .text.RP_Send  0x000000000800115c       0x40 build/robotronik_protocol.o
                0x000000000800115c                RP_Send
 .text.RP_Process_Data
                0x000000000800119c       0x1e build/robotronik_protocol.o
                0x000000000800119c                RP_Process_Data
 .text.RP_Wait_Packet
                0x00000000080011ba       0x36 build/robotronik_protocol.o
                0x00000000080011ba                RP_Wait_Packet
 .text.RC_Copy_Format
                0x00000000080011f0      0x12c build/remote_call.o
 .text.RC_Pack_Vars
                0x000000000800131c      0x1ac build/remote_call.o
 .text.RC_Unpack_Vars
                0x00000000080014c8      0x168 build/remote_call.o
 .text.RC_Client_Init
                0x0000000008001630       0x20 build/remote_call.o
                0x0000000008001630                RC_Client_Init
 .text.RC_Client_Add_Function
                0x0000000008001650       0x60 build/remote_call.o
                0x0000000008001650                RC_Client_Add_Function
 .text.RC_Call  0x00000000080016b0      0x108 build/remote_call.o
                0x00000000080016b0                RC_Call
 .text.ToF_SetNewRange
                0x00000000080017b8       0x3c build/tof.o
 .text.ToF_Init_Struct
                0x00000000080017f4       0x1a build/tof.o
                0x00000000080017f4                ToF_Init_Struct
 .text.ToF_Poke
                0x000000000800180e       0x34 build/tof.o
                0x000000000800180e                ToF_Poke
 .text.ToF_Set_Address
                0x0000000008001842       0x1e build/tof.o
                0x0000000008001842                ToF_Set_Address
 .text.ToF_Init_Device
                0x0000000008001860       0x28 build/tof.o
                0x0000000008001860                ToF_Init_Device
 .text.ToF_Configure_Device
                0x0000000008001888       0xd6 build/tof.o
                0x0000000008001888                ToF_Configure_Device
 .text.ToF_Poll_Measurement_Data
                0x000000000800195e       0x58 build/tof.o
                0x000000000800195e                ToF_Poll_Measurement_Data
 .text.ToF_Get_Last_Range
                0x00000000080019b6       0x14 build/tof.o
                0x00000000080019b6                ToF_Get_Last_Range
 *fill*         0x00000000080019ca        0x2 
 .text.wait_start
                0x00000000080019cc       0x8c build/system.o
                0x00000000080019cc                wait_start
 .text.remote_stop
                0x0000000008001a58       0x24 build/system.o
                0x0000000008001a58                remote_stop
 .text.hlt      0x0000000008001a7c        0x4 build/system.o
                0x0000000008001a7c                hlt
 .text.stop     0x0000000008001a80       0x24 build/system.o
                0x0000000008001a80                stop
 .text.PI_Init  0x0000000008001aa4       0xac build/pi_client.o
                0x0000000008001aa4                PI_Init
 .text.PI_Start
                0x0000000008001b50       0x10 build/pi_client.o
                0x0000000008001b50                PI_Start
 .text.PI_Stop  0x0000000008001b60       0x10 build/pi_client.o
                0x0000000008001b60                PI_Stop
 .text.PI_Error
                0x0000000008001b70       0x10 build/pi_client.o
                0x0000000008001b70                PI_Error
 .text.PI_Log   0x0000000008001b80       0x30 build/pi_client.o
                0x0000000008001b80                PI_Log
 .text.square_limit
                0x0000000008001bb0      0x11c build/map.o
 .text.circle_limit
                0x0000000008001ccc      0x164 build/map.o
 .text.Init_Map
                0x0000000008001e30       0x30 build/map.o
                0x0000000008001e30                Init_Map
 .text.Refresh_Map
                0x0000000008001e60      0x140 build/map.o
                0x0000000008001e60                Refresh_Map
 .text.Compute_Obstacle
                0x0000000008001fa0      0x228 build/obstacle.o
 .text.Update_Obstacles
                0x00000000080021c8      0x5e4 build/obstacle.o
                0x00000000080021c8                Update_Obstacles
 .text.Init_Cube_Sort
                0x00000000080027ac       0x24 build/strategy.o
 .text.Init_Construction
                0x00000000080027d0        0x8 build/strategy.o
                0x00000000080027d0                Init_Construction
 .text.Init_Strategy
                0x00000000080027d8       0xb0 build/strategy.o
                0x00000000080027d8                Init_Strategy
 .text.Brake    0x0000000008002888       0x20 build/gas.o
                0x0000000008002888                Brake
 .text.Position_Init
                0x00000000080028a8      0x180 build/position_client.o
                0x00000000080028a8                Position_Init
 .text.Position_Init_Odometry
                0x0000000008002a28       0x2c build/position_client.o
                0x0000000008002a28                Position_Init_Odometry
 .text.Pos_Reset
                0x0000000008002a54       0x10 build/position_client.o
                0x0000000008002a54                Pos_Reset
 .text.Pos_Get_Position
                0x0000000008002a64       0x24 build/position_client.o
                0x0000000008002a64                Pos_Get_Position
 .text.Pos_Brake
                0x0000000008002a88       0x10 build/position_client.o
                0x0000000008002a88                Pos_Brake
 .text.Z_Init   0x0000000008002a98      0x110 build/z_client.o
                0x0000000008002a98                Z_Init
 .text.Z_Get_State
                0x0000000008002ba8       0x14 build/z_client.o
                0x0000000008002ba8                Z_Get_State
 .text.Z_Wait_State
                0x0000000008002bbc       0x40 build/z_client.o
                0x0000000008002bbc                Z_Wait_State
 .text.Z_Reset  0x0000000008002bfc       0x10 build/z_client.o
                0x0000000008002bfc                Z_Reset
 .text.Z_Arm_In
                0x0000000008002c0c       0x10 build/z_client.o
                0x0000000008002c0c                Z_Arm_In
 .text.Z_Arm_Out
                0x0000000008002c1c       0x10 build/z_client.o
                0x0000000008002c1c                Z_Arm_Out
 .text.Z_Place  0x0000000008002c2c       0x10 build/z_client.o
                0x0000000008002c2c                Z_Place
 .text.VL53L0X_GetOffsetCalibrationDataMicroMeter
                0x0000000008002c3c        0x8 build/vl53l0x_api.o
                0x0000000008002c3c                VL53L0X_GetOffsetCalibrationDataMicroMeter
 .text.VL53L0X_SetDeviceAddress
                0x0000000008002c44        0xc build/vl53l0x_api.o
                0x0000000008002c44                VL53L0X_SetDeviceAddress
 .text.VL53L0X_SetDeviceMode
                0x0000000008002c50       0x2a build/vl53l0x_api.o
                0x0000000008002c50                VL53L0X_SetDeviceMode
 .text.VL53L0X_GetDeviceMode
                0x0000000008002c7a        0x8 build/vl53l0x_api.o
                0x0000000008002c7a                VL53L0X_GetDeviceMode
 .text.VL53L0X_GetFractionEnable
                0x0000000008002c82       0x1c build/vl53l0x_api.o
                0x0000000008002c82                VL53L0X_GetFractionEnable
 .text.VL53L0X_SetMeasurementTimingBudgetMicroSeconds
                0x0000000008002c9e        0x8 build/vl53l0x_api.o
                0x0000000008002c9e                VL53L0X_SetMeasurementTimingBudgetMicroSeconds
 .text.VL53L0X_GetMeasurementTimingBudgetMicroSeconds
                0x0000000008002ca6        0x8 build/vl53l0x_api.o
                0x0000000008002ca6                VL53L0X_GetMeasurementTimingBudgetMicroSeconds
 .text.VL53L0X_SetVcselPulsePeriod
                0x0000000008002cae        0x8 build/vl53l0x_api.o
                0x0000000008002cae                VL53L0X_SetVcselPulsePeriod
 .text.VL53L0X_GetVcselPulsePeriod
                0x0000000008002cb6        0x8 build/vl53l0x_api.o
                0x0000000008002cb6                VL53L0X_GetVcselPulsePeriod
 .text.VL53L0X_SetSequenceStepEnable
                0x0000000008002cbe       0xba build/vl53l0x_api.o
                0x0000000008002cbe                VL53L0X_SetSequenceStepEnable
 .text.sequence_step_enabled
                0x0000000008002d78       0x48 build/vl53l0x_api.o
                0x0000000008002d78                sequence_step_enabled
 .text.VL53L0X_GetSequenceStepEnables
                0x0000000008002dc0       0x82 build/vl53l0x_api.o
                0x0000000008002dc0                VL53L0X_GetSequenceStepEnables
 .text.VL53L0X_GetInterMeasurementPeriodMilliSeconds
                0x0000000008002e42       0x3e build/vl53l0x_api.o
                0x0000000008002e42                VL53L0X_GetInterMeasurementPeriodMilliSeconds
 .text.VL53L0X_GetXTalkCompensationEnable
                0x0000000008002e80        0x8 build/vl53l0x_api.o
                0x0000000008002e80                VL53L0X_GetXTalkCompensationEnable
 .text.VL53L0X_GetXTalkCompensationRateMegaCps
                0x0000000008002e88       0x36 build/vl53l0x_api.o
                0x0000000008002e88                VL53L0X_GetXTalkCompensationRateMegaCps
 .text.VL53L0X_SetLimitCheckEnable
                0x0000000008002ebe       0x94 build/vl53l0x_api.o
                0x0000000008002ebe                VL53L0X_SetLimitCheckEnable
 .text.VL53L0X_GetLimitCheckEnable
                0x0000000008002f52       0x1a build/vl53l0x_api.o
                0x0000000008002f52                VL53L0X_GetLimitCheckEnable
 .text.VL53L0X_SetLimitCheckValue
                0x0000000008002f6c       0x66 build/vl53l0x_api.o
                0x0000000008002f6c                VL53L0X_SetLimitCheckValue
 .text.VL53L0X_GetLimitCheckValue
                0x0000000008002fd2       0xa8 build/vl53l0x_api.o
                0x0000000008002fd2                VL53L0X_GetLimitCheckValue
 .text.VL53L0X_GetWrapAroundCheckEnable
                0x000000000800307a       0x3c build/vl53l0x_api.o
                0x000000000800307a                VL53L0X_GetWrapAroundCheckEnable
 .text.VL53L0X_GetDeviceParameters
                0x00000000080030b6       0xac build/vl53l0x_api.o
                0x00000000080030b6                VL53L0X_GetDeviceParameters
 *fill*         0x0000000008003162        0x2 
 .text.VL53L0X_DataInit
                0x0000000008003164      0x1c4 build/vl53l0x_api.o
                0x0000000008003164                VL53L0X_DataInit
 .text.VL53L0X_PerformRefCalibration
                0x0000000008003328        0xa build/vl53l0x_api.o
                0x0000000008003328                VL53L0X_PerformRefCalibration
 *fill*         0x0000000008003332        0x2 
 .text.VL53L0X_GetRangingMeasurementData
                0x0000000008003334      0x15c build/vl53l0x_api.o
                0x0000000008003334                VL53L0X_GetRangingMeasurementData
 .text.VL53L0X_GetInterruptThresholds
                0x0000000008003490       0x4c build/vl53l0x_api.o
                0x0000000008003490                VL53L0X_GetInterruptThresholds
 .text.VL53L0X_CheckAndLoadInterruptSettings
                0x00000000080034dc       0x88 build/vl53l0x_api.o
                0x00000000080034dc                VL53L0X_CheckAndLoadInterruptSettings
 .text.VL53L0X_StartMeasurement
                0x0000000008003564       0xfe build/vl53l0x_api.o
                0x0000000008003564                VL53L0X_StartMeasurement
 .text.VL53L0X_PerformSingleMeasurement
                0x0000000008003662       0x42 build/vl53l0x_api.o
                0x0000000008003662                VL53L0X_PerformSingleMeasurement
 .text.VL53L0X_ClearInterruptMask
                0x00000000080036a4       0x56 build/vl53l0x_api.o
                0x00000000080036a4                VL53L0X_ClearInterruptMask
 .text.VL53L0X_PerformSingleRangingMeasurement
                0x00000000080036fa       0x3a build/vl53l0x_api.o
                0x00000000080036fa                VL53L0X_PerformSingleRangingMeasurement
 .text.VL53L0X_SetGpioConfig
                0x0000000008003734      0x158 build/vl53l0x_api.o
                0x0000000008003734                VL53L0X_SetGpioConfig
 .text.VL53L0X_StaticInit
                0x000000000800388c      0x1e0 build/vl53l0x_api.o
                0x000000000800388c                VL53L0X_StaticInit
 .text.VL53L0X_GetInterruptMaskStatus
                0x0000000008003a6c       0x2a build/vl53l0x_api.o
                0x0000000008003a6c                VL53L0X_GetInterruptMaskStatus
 .text.VL53L0X_GetMeasurementDataReady
                0x0000000008003a96       0x50 build/vl53l0x_api.o
                0x0000000008003a96                VL53L0X_GetMeasurementDataReady
 .text.VL53L0X_PerformRefSpadManagement
                0x0000000008003ae6        0x8 build/vl53l0x_api.o
                0x0000000008003ae6                VL53L0X_PerformRefSpadManagement
 .text.VL53L0X_get_offset_calibration_data_micro_meter
                0x0000000008003aee       0x3e build/vl53l0x_api_calibration.o
                0x0000000008003aee                VL53L0X_get_offset_calibration_data_micro_meter
 .text.get_next_good_spad
                0x0000000008003b2c       0x4a build/vl53l0x_api_calibration.o
                0x0000000008003b2c                get_next_good_spad
 *fill*         0x0000000008003b76        0x2 
 .text.is_aperture
                0x0000000008003b78       0x18 build/vl53l0x_api_calibration.o
                0x0000000008003b78                is_aperture
 .text.enable_spad_bit
                0x0000000008003b90       0x1e build/vl53l0x_api_calibration.o
                0x0000000008003b90                enable_spad_bit
 .text.set_ref_spad_map
                0x0000000008003bae        0xe build/vl53l0x_api_calibration.o
                0x0000000008003bae                set_ref_spad_map
 .text.get_ref_spad_map
                0x0000000008003bbc        0xe build/vl53l0x_api_calibration.o
                0x0000000008003bbc                get_ref_spad_map
 .text.enable_ref_spads
                0x0000000008003bca       0xa0 build/vl53l0x_api_calibration.o
                0x0000000008003bca                enable_ref_spads
 .text.perform_ref_signal_measurement
                0x0000000008003c6a       0x72 build/vl53l0x_api_calibration.o
                0x0000000008003c6a                perform_ref_signal_measurement
 .text.VL53L0X_set_reference_spads
                0x0000000008003cdc       0xb8 build/vl53l0x_api_calibration.o
                0x0000000008003cdc                VL53L0X_set_reference_spads
 .text.VL53L0X_perform_single_ref_calibration
                0x0000000008003d94       0x3e build/vl53l0x_api_calibration.o
                0x0000000008003d94                VL53L0X_perform_single_ref_calibration
 .text.VL53L0X_ref_calibration_io
                0x0000000008003dd2       0xd4 build/vl53l0x_api_calibration.o
                0x0000000008003dd2                VL53L0X_ref_calibration_io
 .text.VL53L0X_perform_vhv_calibration
                0x0000000008003ea6       0x82 build/vl53l0x_api_calibration.o
                0x0000000008003ea6                VL53L0X_perform_vhv_calibration
 .text.VL53L0X_perform_phase_calibration
                0x0000000008003f28       0x7c build/vl53l0x_api_calibration.o
                0x0000000008003f28                VL53L0X_perform_phase_calibration
 .text.VL53L0X_perform_ref_calibration
                0x0000000008003fa4       0x44 build/vl53l0x_api_calibration.o
                0x0000000008003fa4                VL53L0X_perform_ref_calibration
 .text.VL53L0X_perform_ref_spad_management
                0x0000000008003fe8      0x2ce build/vl53l0x_api_calibration.o
                0x0000000008003fe8                VL53L0X_perform_ref_spad_management
 *fill*         0x00000000080042b6        0x2 
 .text.VL53L0X_measurement_poll_for_completion
                0x00000000080042b8       0x48 build/vl53l0x_api_core.o
                0x00000000080042b8                VL53L0X_measurement_poll_for_completion
 .text.VL53L0X_decode_vcsel_period
                0x0000000008004300        0xc build/vl53l0x_api_core.o
                0x0000000008004300                VL53L0X_decode_vcsel_period
 .text.VL53L0X_encode_vcsel_period
                0x000000000800430c        0x8 build/vl53l0x_api_core.o
                0x000000000800430c                VL53L0X_encode_vcsel_period
 .text.VL53L0X_isqrt
                0x0000000008004314       0x28 build/vl53l0x_api_core.o
                0x0000000008004314                VL53L0X_isqrt
 .text.VL53L0X_device_read_strobe
                0x000000000800433c       0x4e build/vl53l0x_api_core.o
                0x000000000800433c                VL53L0X_device_read_strobe
 .text.VL53L0X_get_info_from_device
                0x000000000800438a      0x582 build/vl53l0x_api_core.o
                0x000000000800438a                VL53L0X_get_info_from_device
 .text.VL53L0X_calc_macro_period_ps
                0x000000000800490c       0x10 build/vl53l0x_api_core.o
                0x000000000800490c                VL53L0X_calc_macro_period_ps
 .text.VL53L0X_encode_timeout
                0x000000000800491c       0x24 build/vl53l0x_api_core.o
                0x000000000800491c                VL53L0X_encode_timeout
 .text.VL53L0X_decode_timeout
                0x0000000008004940        0xc build/vl53l0x_api_core.o
                0x0000000008004940                VL53L0X_decode_timeout
 .text.VL53L0X_calc_timeout_mclks
                0x000000000800494c       0x2c build/vl53l0x_api_core.o
                0x000000000800494c                VL53L0X_calc_timeout_mclks
 .text.VL53L0X_calc_timeout_us
                0x0000000008004978       0x2c build/vl53l0x_api_core.o
                0x0000000008004978                VL53L0X_calc_timeout_us
 .text.get_sequence_step_timeout
                0x00000000080049a4      0x11c build/vl53l0x_api_core.o
                0x00000000080049a4                get_sequence_step_timeout
 .text.set_sequence_step_timeout
                0x0000000008004ac0      0x118 build/vl53l0x_api_core.o
                0x0000000008004ac0                set_sequence_step_timeout
 .text.VL53L0X_set_vcsel_pulse_period
                0x0000000008004bd8      0x31a build/vl53l0x_api_core.o
                0x0000000008004bd8                VL53L0X_set_vcsel_pulse_period
 .text.VL53L0X_get_vcsel_pulse_period
                0x0000000008004ef2       0x3e build/vl53l0x_api_core.o
                0x0000000008004ef2                VL53L0X_get_vcsel_pulse_period
 .text.VL53L0X_set_measurement_timing_budget_micro_seconds
                0x0000000008004f30       0xe4 build/vl53l0x_api_core.o
                0x0000000008004f30                VL53L0X_set_measurement_timing_budget_micro_seconds
 .text.VL53L0X_get_measurement_timing_budget_micro_seconds
                0x0000000008005014       0xce build/vl53l0x_api_core.o
                0x0000000008005014                VL53L0X_get_measurement_timing_budget_micro_seconds
 .text.VL53L0X_load_tuning_settings
                0x00000000080050e2       0xac build/vl53l0x_api_core.o
                0x00000000080050e2                VL53L0X_load_tuning_settings
 .text.VL53L0X_get_total_xtalk_rate
                0x000000000800518e       0x34 build/vl53l0x_api_core.o
                0x000000000800518e                VL53L0X_get_total_xtalk_rate
 .text.VL53L0X_get_total_signal_rate
                0x00000000080051c2       0x22 build/vl53l0x_api_core.o
                0x00000000080051c2                VL53L0X_get_total_signal_rate
 .text.VL53L0X_calc_dmax
                0x00000000080051e4       0xf8 build/vl53l0x_api_core.o
                0x00000000080051e4                VL53L0X_calc_dmax
 .text.VL53L0X_calc_sigma_estimate
                0x00000000080052dc      0x26c build/vl53l0x_api_core.o
                0x00000000080052dc                VL53L0X_calc_sigma_estimate
 .text.VL53L0X_get_pal_range_status
                0x0000000008005548      0x27e build/vl53l0x_api_core.o
                0x0000000008005548                VL53L0X_get_pal_range_status
 .text._I2CWrite
                0x00000000080057c6       0x20 build/vl53l0x_platform.o
                0x00000000080057c6                _I2CWrite
 .text._I2CRead
                0x00000000080057e6       0x22 build/vl53l0x_platform.o
                0x00000000080057e6                _I2CRead
 .text.VL53L0X_WriteMulti
                0x0000000008005808       0x3c build/vl53l0x_platform.o
                0x0000000008005808                VL53L0X_WriteMulti
 .text.VL53L0X_ReadMulti
                0x0000000008005844       0x36 build/vl53l0x_platform.o
                0x0000000008005844                VL53L0X_ReadMulti
 *fill*         0x000000000800587a        0x2 
 .text.VL53L0X_WrByte
                0x000000000800587c       0x20 build/vl53l0x_platform.o
                0x000000000800587c                VL53L0X_WrByte
 .text.VL53L0X_WrWord
                0x000000000800589c       0x24 build/vl53l0x_platform.o
                0x000000000800589c                VL53L0X_WrWord
 .text.VL53L0X_RdByte
                0x00000000080058c0       0x34 build/vl53l0x_platform.o
                0x00000000080058c0                VL53L0X_RdByte
 .text.VL53L0X_UpdateByte
                0x00000000080058f4       0x36 build/vl53l0x_platform.o
                0x00000000080058f4                VL53L0X_UpdateByte
 *fill*         0x000000000800592a        0x2 
 .text.VL53L0X_RdWord
                0x000000000800592c       0x44 build/vl53l0x_platform.o
                0x000000000800592c                VL53L0X_RdWord
 .text.VL53L0X_RdDWord
                0x0000000008005970       0x50 build/vl53l0x_platform.o
                0x0000000008005970                VL53L0X_RdDWord
 .text.VL53L0X_PollingDelay
                0x00000000080059c0        0xc build/vl53l0x_platform.o
                0x00000000080059c0                VL53L0X_PollingDelay
 .text.RP_UART_Transmit
                0x00000000080059cc       0x24 build/usart.o
                0x00000000080059cc                RP_UART_Transmit
 .text.RP_Packet_Received
                0x00000000080059f0       0x20 build/usart.o
                0x00000000080059f0                RP_Packet_Received
 .text.MX_USART1_UART_Init
                0x0000000008005a10       0xf0 build/usart.o
                0x0000000008005a10                MX_USART1_UART_Init
 .text.MX_USART2_UART_Init
                0x0000000008005b00       0xe8 build/usart.o
                0x0000000008005b00                MX_USART2_UART_Init
 .text.MX_USART6_UART_Init
                0x0000000008005be8       0xf0 build/usart.o
                0x0000000008005be8                MX_USART6_UART_Init
 .text.Init_ToF
                0x0000000008005cd8       0x94 build/main.o
 .text.HardFault_Handler
                0x0000000008005d6c        0xc build/main.o
                0x0000000008005d6c                HardFault_Handler
 .text._Error_Handler
                0x0000000008005d78        0x2 build/main.o
                0x0000000008005d78                _Error_Handler
 *fill*         0x0000000008005d7a        0x2 
 .text.SystemClock_Config
                0x0000000008005d7c       0xc8 build/main.o
                0x0000000008005d7c                SystemClock_Config
 .text.main     0x0000000008005e44      0x2e4 build/main.o
                0x0000000008005e44                main
 .text.MX_I2C1_Init
                0x0000000008006128       0x44 build/i2c.o
                0x0000000008006128                MX_I2C1_Init
 .text.MX_I2C3_Init
                0x000000000800616c       0x44 build/i2c.o
                0x000000000800616c                MX_I2C3_Init
 .text.HAL_I2C_MspInit
                0x00000000080061b0       0xbc build/i2c.o
                0x00000000080061b0                HAL_I2C_MspInit
 .text.HAL_MspInit
                0x000000000800626c       0x5e build/stm32f4xx_hal_msp.o
                0x000000000800626c                HAL_MspInit
 *fill*         0x00000000080062ca        0x2 
 .text.HAL_NVIC_SetPriorityGrouping
                0x00000000080062cc       0x24 build/stm32f4xx_hal_cortex.o
                0x00000000080062cc                HAL_NVIC_SetPriorityGrouping
 .text.HAL_NVIC_SetPriority
                0x00000000080062f0       0x68 build/stm32f4xx_hal_cortex.o
                0x00000000080062f0                HAL_NVIC_SetPriority
 .text.HAL_NVIC_EnableIRQ
                0x0000000008006358       0x18 build/stm32f4xx_hal_cortex.o
                0x0000000008006358                HAL_NVIC_EnableIRQ
 .text.HAL_NVIC_SystemReset
                0x0000000008006370       0x24 build/stm32f4xx_hal_cortex.o
                0x0000000008006370                HAL_NVIC_SystemReset
 .text.HAL_SYSTICK_Config
                0x0000000008006394       0x2c build/stm32f4xx_hal_cortex.o
                0x0000000008006394                HAL_SYSTICK_Config
 .text.HAL_SYSTICK_CLKSourceConfig
                0x00000000080063c0       0x20 build/stm32f4xx_hal_cortex.o
                0x00000000080063c0                HAL_SYSTICK_CLKSourceConfig
 .text.HAL_SYSTICK_Callback
                0x00000000080063e0        0x2 build/stm32f4xx_hal_cortex.o
                0x00000000080063e0                HAL_SYSTICK_Callback
 .text.HAL_SYSTICK_IRQHandler
                0x00000000080063e2        0x8 build/stm32f4xx_hal_cortex.o
                0x00000000080063e2                HAL_SYSTICK_IRQHandler
 .text.SysTick_Handler
                0x00000000080063ea        0xc build/stm32f4xx_it.o
                0x00000000080063ea                SysTick_Handler
 *fill*         0x00000000080063f6        0x2 
 .text.DMA1_Stream5_IRQHandler
                0x00000000080063f8       0x78 build/stm32f4xx_it.o
                0x00000000080063f8                DMA1_Stream5_IRQHandler
 .text.TIM2_IRQHandler
                0x0000000008006470       0x10 build/stm32f4xx_it.o
                0x0000000008006470                TIM2_IRQHandler
 .text.TIM3_IRQHandler
                0x0000000008006480       0x10 build/stm32f4xx_it.o
                0x0000000008006480                TIM3_IRQHandler
 .text.USART1_IRQHandler
                0x0000000008006490       0x5c build/stm32f4xx_it.o
                0x0000000008006490                USART1_IRQHandler
 .text.USART2_IRQHandler
                0x00000000080064ec       0x5c build/stm32f4xx_it.o
                0x00000000080064ec                USART2_IRQHandler
 .text.DMA2_Stream1_IRQHandler
                0x0000000008006548       0x78 build/stm32f4xx_it.o
                0x0000000008006548                DMA2_Stream1_IRQHandler
 .text.DMA2_Stream2_IRQHandler
                0x00000000080065c0       0x78 build/stm32f4xx_it.o
                0x00000000080065c0                DMA2_Stream2_IRQHandler
 .text.USART6_IRQHandler
                0x0000000008006638       0x5c build/stm32f4xx_it.o
                0x0000000008006638                USART6_IRQHandler
 .text.I2C3_EV_IRQHandler
                0x0000000008006694       0x10 build/stm32f4xx_it.o
                0x0000000008006694                I2C3_EV_IRQHandler
 .text.HAL_TIMEx_MasterConfigSynchronization
                0x00000000080066a4       0x52 build/stm32f4xx_hal_tim_ex.o
                0x00000000080066a4                HAL_TIMEx_MasterConfigSynchronization
 .text.HAL_TIMEx_CommutationCallback
                0x00000000080066f6        0x2 build/stm32f4xx_hal_tim_ex.o
                0x00000000080066f6                HAL_TIMEx_CommutationCallback
 .text.HAL_TIMEx_BreakCallback
                0x00000000080066f8        0x2 build/stm32f4xx_hal_tim_ex.o
                0x00000000080066f8                HAL_TIMEx_BreakCallback
 *fill*         0x00000000080066fa        0x2 
 .text.HAL_RCC_OscConfig
                0x00000000080066fc      0x398 build/stm32f4xx_hal_rcc.o
                0x00000000080066fc                HAL_RCC_OscConfig
 .text.HAL_RCC_GetSysClockFreq
                0x0000000008006a94       0xa8 build/stm32f4xx_hal_rcc.o
                0x0000000008006a94                HAL_RCC_GetSysClockFreq
 .text.HAL_RCC_ClockConfig
                0x0000000008006b3c      0x158 build/stm32f4xx_hal_rcc.o
                0x0000000008006b3c                HAL_RCC_ClockConfig
 .text.HAL_RCC_GetHCLKFreq
                0x0000000008006c94        0xc build/stm32f4xx_hal_rcc.o
                0x0000000008006c94                HAL_RCC_GetHCLKFreq
 .text.HAL_RCC_GetPCLK1Freq
                0x0000000008006ca0       0x20 build/stm32f4xx_hal_rcc.o
                0x0000000008006ca0                HAL_RCC_GetPCLK1Freq
 .text.MX_GPIO_Init
                0x0000000008006cc0      0x160 build/gpio.o
                0x0000000008006cc0                MX_GPIO_Init
 .text.HAL_GPIO_Init
                0x0000000008006e20      0x1a4 build/stm32f4xx_hal_gpio.o
                0x0000000008006e20                HAL_GPIO_Init
 .text.HAL_GPIO_ReadPin
                0x0000000008006fc4        0xe build/stm32f4xx_hal_gpio.o
                0x0000000008006fc4                HAL_GPIO_ReadPin
 .text.HAL_GPIO_WritePin
                0x0000000008006fd2        0xc build/stm32f4xx_hal_gpio.o
                0x0000000008006fd2                HAL_GPIO_WritePin
 .text.HAL_DMA_Abort_IT
                0x0000000008006fde       0x26 build/stm32f4xx_hal_dma.o
                0x0000000008006fde                HAL_DMA_Abort_IT
 .text.I2C_Master_SB
                0x0000000008007004       0x8a build/stm32f4xx_hal_i2c.o
 .text.I2C_Master_ADD10
                0x000000000800708e        0xc build/stm32f4xx_hal_i2c.o
 .text.I2C_Master_ADDR
                0x000000000800709a      0x1cc build/stm32f4xx_hal_i2c.o
 .text.I2C_SlaveTransmit_BTF
                0x0000000008007266       0x1e build/stm32f4xx_hal_i2c.o
 .text.I2C_SlaveReceive_BTF
                0x0000000008007284       0x1e build/stm32f4xx_hal_i2c.o
 .text.I2C_IsAcknowledgeFailed
                0x00000000080072a2       0x2a build/stm32f4xx_hal_i2c.o
 .text.I2C_WaitOnFlagUntilTimeout
                0x00000000080072cc       0x68 build/stm32f4xx_hal_i2c.o
 .text.I2C_WaitOnMasterAddressFlagUntilTimeout
                0x0000000008007334       0x90 build/stm32f4xx_hal_i2c.o
 .text.I2C_MasterRequestWrite
                0x00000000080073c4       0xbc build/stm32f4xx_hal_i2c.o
 .text.I2C_MasterRequestRead
                0x0000000008007480      0x120 build/stm32f4xx_hal_i2c.o
 .text.I2C_WaitOnTXEFlagUntilTimeout
                0x00000000080075a0       0x4e build/stm32f4xx_hal_i2c.o
 .text.I2C_WaitOnBTFFlagUntilTimeout
                0x00000000080075ee       0x4e build/stm32f4xx_hal_i2c.o
 .text.I2C_WaitOnRXNEFlagUntilTimeout
                0x000000000800763c       0x5c build/stm32f4xx_hal_i2c.o
 .text.HAL_I2C_Init
                0x0000000008007698      0x11c build/stm32f4xx_hal_i2c.o
                0x0000000008007698                HAL_I2C_Init
 .text.HAL_I2C_Master_Transmit
                0x00000000080077b4      0x184 build/stm32f4xx_hal_i2c.o
                0x00000000080077b4                HAL_I2C_Master_Transmit
 .text.HAL_I2C_Master_Receive
                0x0000000008007938      0x2e8 build/stm32f4xx_hal_i2c.o
                0x0000000008007938                HAL_I2C_Master_Receive
 .text.HAL_I2C_MasterTxCpltCallback
                0x0000000008007c20        0x2 build/stm32f4xx_hal_i2c.o
                0x0000000008007c20                HAL_I2C_MasterTxCpltCallback
 .text.HAL_I2C_MasterRxCpltCallback
                0x0000000008007c22        0x2 build/stm32f4xx_hal_i2c.o
                0x0000000008007c22                HAL_I2C_MasterRxCpltCallback
 .text.HAL_I2C_SlaveTxCpltCallback
                0x0000000008007c24        0x2 build/stm32f4xx_hal_i2c.o
                0x0000000008007c24                HAL_I2C_SlaveTxCpltCallback
 .text.I2C_SlaveTransmit_TXE
                0x0000000008007c26       0x4a build/stm32f4xx_hal_i2c.o
 .text.HAL_I2C_SlaveRxCpltCallback
                0x0000000008007c70        0x2 build/stm32f4xx_hal_i2c.o
                0x0000000008007c70                HAL_I2C_SlaveRxCpltCallback
 .text.I2C_SlaveReceive_RXNE
                0x0000000008007c72       0x4e build/stm32f4xx_hal_i2c.o
 .text.HAL_I2C_AddrCallback
                0x0000000008007cc0        0x2 build/stm32f4xx_hal_i2c.o
                0x0000000008007cc0                HAL_I2C_AddrCallback
 .text.I2C_Slave_ADDR
                0x0000000008007cc2       0x28 build/stm32f4xx_hal_i2c.o
 .text.HAL_I2C_ListenCpltCallback
                0x0000000008007cea        0x2 build/stm32f4xx_hal_i2c.o
                0x0000000008007cea                HAL_I2C_ListenCpltCallback
 .text.HAL_I2C_MemTxCpltCallback
                0x0000000008007cec        0x2 build/stm32f4xx_hal_i2c.o
                0x0000000008007cec                HAL_I2C_MemTxCpltCallback
 .text.I2C_MasterTransmit_TXE
                0x0000000008007cee      0x146 build/stm32f4xx_hal_i2c.o
 .text.I2C_MasterTransmit_BTF
                0x0000000008007e34       0x9c build/stm32f4xx_hal_i2c.o
 .text.HAL_I2C_MemRxCpltCallback
                0x0000000008007ed0        0x2 build/stm32f4xx_hal_i2c.o
                0x0000000008007ed0                HAL_I2C_MemRxCpltCallback
 .text.I2C_MasterReceive_RXNE
                0x0000000008007ed2       0x98 build/stm32f4xx_hal_i2c.o
 .text.I2C_MasterReceive_BTF
                0x0000000008007f6a      0x102 build/stm32f4xx_hal_i2c.o
 .text.HAL_I2C_ErrorCallback
                0x000000000800806c        0x2 build/stm32f4xx_hal_i2c.o
                0x000000000800806c                HAL_I2C_ErrorCallback
 .text.HAL_I2C_AbortCpltCallback
                0x000000000800806e        0x2 build/stm32f4xx_hal_i2c.o
                0x000000000800806e                HAL_I2C_AbortCpltCallback
 .text.I2C_ITError
                0x0000000008008070      0x14c build/stm32f4xx_hal_i2c.o
 .text.I2C_Slave_STOPF
                0x00000000080081bc      0x100 build/stm32f4xx_hal_i2c.o
 .text.HAL_I2C_EV_IRQHandler
                0x00000000080082bc      0x168 build/stm32f4xx_hal_i2c.o
                0x00000000080082bc                HAL_I2C_EV_IRQHandler
 .text.I2C_DMAAbort
                0x0000000008008424       0x5e build/stm32f4xx_hal_i2c.o
 *fill*         0x0000000008008482        0x2 
 .text.HAL_InitTick
                0x0000000008008484       0x4c build/stm32f4xx_hal.o
                0x0000000008008484                HAL_InitTick
 .text.HAL_Init
                0x00000000080084d0       0x34 build/stm32f4xx_hal.o
                0x00000000080084d0                HAL_Init
 .text.HAL_IncTick
                0x0000000008008504       0x18 build/stm32f4xx_hal.o
                0x0000000008008504                HAL_IncTick
 .text.HAL_GetTick
                0x000000000800851c        0xc build/stm32f4xx_hal.o
                0x000000000800851c                HAL_GetTick
 .text.HAL_Delay
                0x0000000008008528       0x28 build/stm32f4xx_hal.o
                0x0000000008008528                HAL_Delay
 .text.TIM_TI1_ConfigInputStage
                0x0000000008008550       0x26 build/stm32f4xx_hal_tim.o
 .text.TIM_TI2_ConfigInputStage
                0x0000000008008576       0x28 build/stm32f4xx_hal_tim.o
 .text.TIM_ITRx_SetConfig
                0x000000000800859e       0x10 build/stm32f4xx_hal_tim.o
 .text.TIM_ETR_SetConfig
                0x00000000080085ae       0x18 build/stm32f4xx_hal_tim.o
 .text.HAL_TIM_Base_Start_IT
                0x00000000080085c6       0x18 build/stm32f4xx_hal_tim.o
                0x00000000080085c6                HAL_TIM_Base_Start_IT
 .text.HAL_TIM_Base_Stop_IT
                0x00000000080085de       0x2c build/stm32f4xx_hal_tim.o
                0x00000000080085de                HAL_TIM_Base_Stop_IT
 .text.HAL_TIM_ConfigClockSource
                0x000000000800860a      0x108 build/stm32f4xx_hal_tim.o
                0x000000000800860a                HAL_TIM_ConfigClockSource
 .text.HAL_TIM_OC_DelayElapsedCallback
                0x0000000008008712        0x2 build/stm32f4xx_hal_tim.o
                0x0000000008008712                HAL_TIM_OC_DelayElapsedCallback
 .text.HAL_TIM_IC_CaptureCallback
                0x0000000008008714        0x2 build/stm32f4xx_hal_tim.o
                0x0000000008008714                HAL_TIM_IC_CaptureCallback
 .text.HAL_TIM_PWM_PulseFinishedCallback
                0x0000000008008716        0x2 build/stm32f4xx_hal_tim.o
                0x0000000008008716                HAL_TIM_PWM_PulseFinishedCallback
 .text.HAL_TIM_TriggerCallback
                0x0000000008008718        0x2 build/stm32f4xx_hal_tim.o
                0x0000000008008718                HAL_TIM_TriggerCallback
 .text.HAL_TIM_IRQHandler
                0x000000000800871a      0x17a build/stm32f4xx_hal_tim.o
                0x000000000800871a                HAL_TIM_IRQHandler
 .text.TIM_Base_SetConfig
                0x0000000008008894       0x94 build/stm32f4xx_hal_tim.o
                0x0000000008008894                TIM_Base_SetConfig
 .text.HAL_TIM_Base_Init
                0x0000000008008928       0x32 build/stm32f4xx_hal_tim.o
                0x0000000008008928                HAL_TIM_Base_Init
 *fill*         0x000000000800895a        0x2 
 .text.MX_DMA_Init
                0x000000000800895c       0x64 build/dma.o
                0x000000000800895c                MX_DMA_Init
 .text.LL_USART_Init
                0x00000000080089c0      0x120 build/stm32f4xx_ll_usart.o
                0x00000000080089c0                LL_USART_Init
 .text.RCC_GetHCLKClockFreq
                0x0000000008008ae0       0x18 build/stm32f4xx_ll_rcc.o
                0x0000000008008ae0                RCC_GetHCLKClockFreq
 .text.RCC_GetPCLK1ClockFreq
                0x0000000008008af8       0x18 build/stm32f4xx_ll_rcc.o
                0x0000000008008af8                RCC_GetPCLK1ClockFreq
 .text.RCC_GetPCLK2ClockFreq
                0x0000000008008b10       0x18 build/stm32f4xx_ll_rcc.o
                0x0000000008008b10                RCC_GetPCLK2ClockFreq
 .text.RCC_PLL_GetFreqDomain_SYS
                0x0000000008008b28       0x4c build/stm32f4xx_ll_rcc.o
                0x0000000008008b28                RCC_PLL_GetFreqDomain_SYS
 .text.RCC_GetSystemClockFreq
                0x0000000008008b74       0x30 build/stm32f4xx_ll_rcc.o
                0x0000000008008b74                RCC_GetSystemClockFreq
 .text.LL_RCC_GetSystemClocksFreq
                0x0000000008008ba4       0x20 build/stm32f4xx_ll_rcc.o
                0x0000000008008ba4                LL_RCC_GetSystemClocksFreq
 .text.LL_GPIO_Init
                0x0000000008008bc4      0x132 build/stm32f4xx_ll_gpio.o
                0x0000000008008bc4                LL_GPIO_Init
 *fill*         0x0000000008008cf6        0x2 
 .text.HAL_TIM_PeriodElapsedCallback
                0x0000000008008cf8       0x94 build/tim.o
                0x0000000008008cf8                HAL_TIM_PeriodElapsedCallback
 .text.MX_TIM2_Init
                0x0000000008008d8c       0x74 build/tim.o
                0x0000000008008d8c                MX_TIM2_Init
 .text.MX_TIM3_Init
                0x0000000008008e00       0x74 build/tim.o
                0x0000000008008e00                MX_TIM3_Init
 .text.HAL_TIM_Base_MspInit
                0x0000000008008e74       0x74 build/tim.o
                0x0000000008008e74                HAL_TIM_Base_MspInit
 .text.SystemInit
                0x0000000008008ee8       0x4c build/system_stm32f4xx.o
                0x0000000008008ee8                SystemInit
 .text.Reset_Handler
                0x0000000008008f34       0x50 build/startup_stm32f401xe.o
                0x0000000008008f34                Reset_Handler
 .text.Default_Handler
                0x0000000008008f84        0x2 build/startup_stm32f401xe.o
                0x0000000008008f84                RTC_Alarm_IRQHandler
                0x0000000008008f84                EXTI2_IRQHandler
                0x0000000008008f84                DebugMon_Handler
                0x0000000008008f84                SPI4_IRQHandler
                0x0000000008008f84                TIM1_CC_IRQHandler
                0x0000000008008f84                DMA2_Stream5_IRQHandler
                0x0000000008008f84                PVD_IRQHandler
                0x0000000008008f84                SDIO_IRQHandler
                0x0000000008008f84                TAMP_STAMP_IRQHandler
                0x0000000008008f84                PendSV_Handler
                0x0000000008008f84                NMI_Handler
                0x0000000008008f84                EXTI3_IRQHandler
                0x0000000008008f84                TIM1_UP_TIM10_IRQHandler
                0x0000000008008f84                I2C3_ER_IRQHandler
                0x0000000008008f84                EXTI0_IRQHandler
                0x0000000008008f84                I2C2_EV_IRQHandler
                0x0000000008008f84                DMA1_Stream2_IRQHandler
                0x0000000008008f84                FPU_IRQHandler
                0x0000000008008f84                UsageFault_Handler
                0x0000000008008f84                SPI1_IRQHandler
                0x0000000008008f84                TIM1_BRK_TIM9_IRQHandler
                0x0000000008008f84                DMA2_Stream3_IRQHandler
                0x0000000008008f84                DMA2_Stream0_IRQHandler
                0x0000000008008f84                TIM4_IRQHandler
                0x0000000008008f84                I2C1_EV_IRQHandler
                0x0000000008008f84                DMA1_Stream6_IRQHandler
                0x0000000008008f84                DMA1_Stream1_IRQHandler
                0x0000000008008f84                RCC_IRQHandler
                0x0000000008008f84                Default_Handler
                0x0000000008008f84                EXTI15_10_IRQHandler
                0x0000000008008f84                ADC_IRQHandler
                0x0000000008008f84                DMA1_Stream7_IRQHandler
                0x0000000008008f84                TIM5_IRQHandler
                0x0000000008008f84                DMA2_Stream7_IRQHandler
                0x0000000008008f84                EXTI9_5_IRQHandler
                0x0000000008008f84                RTC_WKUP_IRQHandler
                0x0000000008008f84                SPI2_IRQHandler
                0x0000000008008f84                MemManage_Handler
                0x0000000008008f84                DMA1_Stream0_IRQHandler
                0x0000000008008f84                SVC_Handler
                0x0000000008008f84                EXTI4_IRQHandler
                0x0000000008008f84                WWDG_IRQHandler
                0x0000000008008f84                OTG_FS_WKUP_IRQHandler
                0x0000000008008f84                TIM1_TRG_COM_TIM11_IRQHandler
                0x0000000008008f84                EXTI1_IRQHandler
                0x0000000008008f84                I2C2_ER_IRQHandler
                0x0000000008008f84                FLASH_IRQHandler
                0x0000000008008f84                DMA2_Stream4_IRQHandler
                0x0000000008008f84                BusFault_Handler
                0x0000000008008f84                OTG_FS_IRQHandler
                0x0000000008008f84                SPI3_IRQHandler
                0x0000000008008f84                DMA1_Stream4_IRQHandler
                0x0000000008008f84                I2C1_ER_IRQHandler
                0x0000000008008f84                DMA2_Stream6_IRQHandler
                0x0000000008008f84                DMA1_Stream3_IRQHandler
 *fill*         0x0000000008008f86        0x2 
 .text.__libc_init_array
                0x0000000008008f88       0x48 /usr/lib/gcc/arm-none-eabi/7.3.0/../../../../arm-none-eabi/lib/armv7e-m/fpu/libc_nano.a(lib_a-init.o)
                0x0000000008008f88                __libc_init_array
 .text.memcpy   0x0000000008008fd0       0x16 /usr/lib/gcc/arm-none-eabi/7.3.0/../../../../arm-none-eabi/lib/armv7e-m/fpu/libc_nano.a(lib_a-memcpy-stub.o)
                0x0000000008008fd0                memcpy
 .text.memset   0x0000000008008fe6       0x10 /usr/lib/gcc/arm-none-eabi/7.3.0/../../../../arm-none-eabi/lib/armv7e-m/fpu/libc_nano.a(lib_a-memset.o)
                0x0000000008008fe6                memset
 .text.__cvt    0x0000000008008ff6       0xc2 /usr/lib/gcc/arm-none-eabi/7.3.0/../../../../arm-none-eabi/lib/armv7e-m/fpu/libc_nano.a(lib_a-nano-vfprintf_float.o)
                0x0000000008008ff6                __cvt
 .text.__exponent
                0x00000000080090b8       0x66 /usr/lib/gcc/arm-none-eabi/7.3.0/../../../../arm-none-eabi/lib/armv7e-m/fpu/libc_nano.a(lib_a-nano-vfprintf_float.o)
                0x00000000080090b8                __exponent
 *fill*         0x000000000800911e        0x2 
 .text._printf_float
                0x0000000008009120      0x480 /usr/lib/gcc/arm-none-eabi/7.3.0/../../../../arm-none-eabi/lib/armv7e-m/fpu/libc_nano.a(lib_a-nano-vfprintf_float.o)
                0x0000000008009120                _printf_float
 .text._printf_common
                0x00000000080095a0       0xea /usr/lib/gcc/arm-none-eabi/7.3.0/../../../../arm-none-eabi/lib/armv7e-m/fpu/libc_nano.a(lib_a-nano-vfprintf_i.o)
                0x00000000080095a0                _printf_common
 *fill*         0x000000000800968a        0x2 
 .text._printf_i
                0x000000000800968c      0x224 /usr/lib/gcc/arm-none-eabi/7.3.0/../../../../arm-none-eabi/lib/armv7e-m/fpu/libc_nano.a(lib_a-nano-vfprintf_i.o)
                0x000000000800968c                _printf_i
 .text.strcpy   0x00000000080098b0       0x10 /usr/lib/gcc/arm-none-eabi/7.3.0/../../../../arm-none-eabi/lib/armv7e-m/fpu/libc_nano.a(lib_a-strcpy.o)
                0x00000000080098b0                strcpy
 .text._vsnprintf_r
                0x00000000080098c0       0x58 /usr/lib/gcc/arm-none-eabi/7.3.0/../../../../arm-none-eabi/lib/armv7e-m/fpu/libc_nano.a(lib_a-vsnprintf.o)
                0x00000000080098c0                _vsnprintf_r
                0x00000000080098c0                _vsniprintf_r
 .text.vsnprintf
                0x0000000008009918       0x1c /usr/lib/gcc/arm-none-eabi/7.3.0/../../../../arm-none-eabi/lib/armv7e-m/fpu/libc_nano.a(lib_a-vsnprintf.o)
                0x0000000008009918                vsnprintf
                0x0000000008009918                vsniprintf
 .text.quorem   0x0000000008009934      0x118 /usr/lib/gcc/arm-none-eabi/7.3.0/../../../../arm-none-eabi/lib/armv7e-m/fpu/libc_nano.a(lib_a-dtoa.o)
 *fill*         0x0000000008009a4c        0x4 
 .text._dtoa_r  0x0000000008009a50      0xb70 /usr/lib/gcc/arm-none-eabi/7.3.0/../../../../arm-none-eabi/lib/armv7e-m/fpu/libc_nano.a(lib_a-dtoa.o)
                0x0000000008009a50                _dtoa_r
 .text._localeconv_r
                0x000000000800a5c0       0x1c /usr/lib/gcc/arm-none-eabi/7.3.0/../../../../arm-none-eabi/lib/armv7e-m/fpu/libc_nano.a(lib_a-localeconv.o)
                0x000000000800a5c0                _localeconv_r
 .text.malloc   0x000000000800a5dc       0x10 /usr/lib/gcc/arm-none-eabi/7.3.0/../../../../arm-none-eabi/lib/armv7e-m/fpu/libc_nano.a(lib_a-malloc.o)
                0x000000000800a5dc                malloc
 .text.__ascii_mbtowc
                0x000000000800a5ec       0x24 /usr/lib/gcc/arm-none-eabi/7.3.0/../../../../arm-none-eabi/lib/armv7e-m/fpu/libc_nano.a(lib_a-mbtowc_r.o)
                0x000000000800a5ec                __ascii_mbtowc
 .text._Balloc  0x000000000800a610       0x68 /usr/lib/gcc/arm-none-eabi/7.3.0/../../../../arm-none-eabi/lib/armv7e-m/fpu/libc_nano.a(lib_a-mprec.o)
                0x000000000800a610                _Balloc
 .text._Bfree   0x000000000800a678       0x2e /usr/lib/gcc/arm-none-eabi/7.3.0/../../../../arm-none-eabi/lib/armv7e-m/fpu/libc_nano.a(lib_a-mprec.o)
                0x000000000800a678                _Bfree
 .text.__multadd
                0x000000000800a6a6       0x76 /usr/lib/gcc/arm-none-eabi/7.3.0/../../../../arm-none-eabi/lib/armv7e-m/fpu/libc_nano.a(lib_a-mprec.o)
                0x000000000800a6a6                __multadd
 .text.__hi0bits
                0x000000000800a71c       0x3e /usr/lib/gcc/arm-none-eabi/7.3.0/../../../../arm-none-eabi/lib/armv7e-m/fpu/libc_nano.a(lib_a-mprec.o)
                0x000000000800a71c                __hi0bits
 .text.__lo0bits
                0x000000000800a75a       0x5e /usr/lib/gcc/arm-none-eabi/7.3.0/../../../../arm-none-eabi/lib/armv7e-m/fpu/libc_nano.a(lib_a-mprec.o)
                0x000000000800a75a                __lo0bits
 .text.__i2b    0x000000000800a7b8       0x12 /usr/lib/gcc/arm-none-eabi/7.3.0/../../../../arm-none-eabi/lib/armv7e-m/fpu/libc_nano.a(lib_a-mprec.o)
                0x000000000800a7b8                __i2b
 .text.__multiply
                0x000000000800a7ca      0x12c /usr/lib/gcc/arm-none-eabi/7.3.0/../../../../arm-none-eabi/lib/armv7e-m/fpu/libc_nano.a(lib_a-mprec.o)
                0x000000000800a7ca                __multiply
 *fill*         0x000000000800a8f6        0x2 
 .text.__pow5mult
                0x000000000800a8f8       0x9c /usr/lib/gcc/arm-none-eabi/7.3.0/../../../../arm-none-eabi/lib/armv7e-m/fpu/libc_nano.a(lib_a-mprec.o)
                0x000000000800a8f8                __pow5mult
 .text.__lshift
                0x000000000800a994       0xa8 /usr/lib/gcc/arm-none-eabi/7.3.0/../../../../arm-none-eabi/lib/armv7e-m/fpu/libc_nano.a(lib_a-mprec.o)
                0x000000000800a994                __lshift
 .text.__mcmp   0x000000000800aa3c       0x34 /usr/lib/gcc/arm-none-eabi/7.3.0/../../../../arm-none-eabi/lib/armv7e-m/fpu/libc_nano.a(lib_a-mprec.o)
                0x000000000800aa3c                __mcmp
 .text.__mdiff  0x000000000800aa70       0xba /usr/lib/gcc/arm-none-eabi/7.3.0/../../../../arm-none-eabi/lib/armv7e-m/fpu/libc_nano.a(lib_a-mprec.o)
                0x000000000800aa70                __mdiff
 .text.__d2b    0x000000000800ab2a       0x9e /usr/lib/gcc/arm-none-eabi/7.3.0/../../../../arm-none-eabi/lib/armv7e-m/fpu/libc_nano.a(lib_a-mprec.o)
                0x000000000800ab2a                __d2b
 .text._calloc_r
                0x000000000800abc8       0x1c /usr/lib/gcc/arm-none-eabi/7.3.0/../../../../arm-none-eabi/lib/armv7e-m/fpu/libc_nano.a(lib_a-nano-callocr.o)
                0x000000000800abc8                _calloc_r
 .text._free_r  0x000000000800abe4       0x9c /usr/lib/gcc/arm-none-eabi/7.3.0/../../../../arm-none-eabi/lib/armv7e-m/fpu/libc_nano.a(lib_a-nano-freer.o)
                0x000000000800abe4                _free_r
 .text._malloc_r
                0x000000000800ac80       0xb4 /usr/lib/gcc/arm-none-eabi/7.3.0/../../../../arm-none-eabi/lib/armv7e-m/fpu/libc_nano.a(lib_a-nano-mallocr.o)
                0x000000000800ac80                _malloc_r
 .text.__ssputs_r
                0x000000000800ad34       0xb4 /usr/lib/gcc/arm-none-eabi/7.3.0/../../../../arm-none-eabi/lib/armv7e-m/fpu/libc_nano.a(lib_a-nano-svfprintf.o)
                0x000000000800ad34                __ssputs_r
 .text._svfprintf_r
                0x000000000800ade8      0x1f0 /usr/lib/gcc/arm-none-eabi/7.3.0/../../../../arm-none-eabi/lib/armv7e-m/fpu/libc_nano.a(lib_a-nano-svfprintf.o)
                0x000000000800ade8                _svfprintf_r
                0x000000000800ade8                _svfiprintf_r
 .text._sbrk_r  0x000000000800afd8       0x20 /usr/lib/gcc/arm-none-eabi/7.3.0/../../../../arm-none-eabi/lib/armv7e-m/fpu/libc_nano.a(lib_a-sbrkr.o)
                0x000000000800afd8                _sbrk_r
 .text.__ascii_wctomb
                0x000000000800aff8       0x1a /usr/lib/gcc/arm-none-eabi/7.3.0/../../../../arm-none-eabi/lib/armv7e-m/fpu/libc_nano.a(lib_a-wctomb_r.o)
                0x000000000800aff8                __ascii_wctomb
 .text.memmove  0x000000000800b012       0x32 /usr/lib/gcc/arm-none-eabi/7.3.0/../../../../arm-none-eabi/lib/armv7e-m/fpu/libc_nano.a(lib_a-memmove.o)
                0x000000000800b012                memmove
 .text.__malloc_lock
                0x000000000800b044        0x2 /usr/lib/gcc/arm-none-eabi/7.3.0/../../../../arm-none-eabi/lib/armv7e-m/fpu/libc_nano.a(lib_a-mlock.o)
                0x000000000800b044                __malloc_lock
 .text.__malloc_unlock
                0x000000000800b046        0x2 /usr/lib/gcc/arm-none-eabi/7.3.0/../../../../arm-none-eabi/lib/armv7e-m/fpu/libc_nano.a(lib_a-mlock.o)
                0x000000000800b046                __malloc_unlock
 .text._realloc_r
                0x000000000800b048       0x4c /usr/lib/gcc/arm-none-eabi/7.3.0/../../../../arm-none-eabi/lib/armv7e-m/fpu/libc_nano.a(lib_a-nano-reallocr.o)
                0x000000000800b048                _realloc_r
 .text._malloc_usable_size_r
                0x000000000800b094       0x10 /usr/lib/gcc/arm-none-eabi/7.3.0/../../../../arm-none-eabi/lib/armv7e-m/fpu/libc_nano.a(lib_a-nano-msizer.o)
                0x000000000800b094                _malloc_usable_size_r
 *fill*         0x000000000800b0a4        0x4 
 .text.cos      0x000000000800b0a8       0xc0 /usr/lib/gcc/arm-none-eabi/7.3.0/../../../../arm-none-eabi/lib/armv7e-m/fpu/libm.a(lib_a-s_cos.o)
                0x000000000800b0a8                cos
 .text.sin      0x000000000800b168       0xc0 /usr/lib/gcc/arm-none-eabi/7.3.0/../../../../arm-none-eabi/lib/armv7e-m/fpu/libm.a(lib_a-s_sin.o)
                0x000000000800b168                sin
 .text.pow      0x000000000800b228      0x338 /usr/lib/gcc/arm-none-eabi/7.3.0/../../../../arm-none-eabi/lib/armv7e-m/fpu/libm.a(lib_a-w_pow.o)
                0x000000000800b228                pow
 .text.sqrt     0x000000000800b560       0xb8 /usr/lib/gcc/arm-none-eabi/7.3.0/../../../../arm-none-eabi/lib/armv7e-m/fpu/libm.a(lib_a-w_sqrt.o)
                0x000000000800b560                sqrt
 .text.__ieee754_pow
                0x000000000800b618      0xab8 /usr/lib/gcc/arm-none-eabi/7.3.0/../../../../arm-none-eabi/lib/armv7e-m/fpu/libm.a(lib_a-e_pow.o)
                0x000000000800b618                __ieee754_pow
 .text.__ieee754_rem_pio2
                0x000000000800c0d0      0x454 /usr/lib/gcc/arm-none-eabi/7.3.0/../../../../arm-none-eabi/lib/armv7e-m/fpu/libm.a(lib_a-e_rem_pio2.o)
                0x000000000800c0d0                __ieee754_rem_pio2
 .text.__ieee754_sqrt
                0x000000000800c524      0x194 /usr/lib/gcc/arm-none-eabi/7.3.0/../../../../arm-none-eabi/lib/armv7e-m/fpu/libm.a(lib_a-e_sqrt.o)
                0x000000000800c524                __ieee754_sqrt
 .text.__kernel_cos
                0x000000000800c6b8      0x284 /usr/lib/gcc/arm-none-eabi/7.3.0/../../../../arm-none-eabi/lib/armv7e-m/fpu/libm.a(lib_a-k_cos.o)
                0x000000000800c6b8                __kernel_cos
 *fill*         0x000000000800c93c        0x4 
 .text.__kernel_rem_pio2
                0x000000000800c940      0x818 /usr/lib/gcc/arm-none-eabi/7.3.0/../../../../arm-none-eabi/lib/armv7e-m/fpu/libm.a(lib_a-k_rem_pio2.o)
                0x000000000800c940                __kernel_rem_pio2
 .text.__kernel_sin
                0x000000000800d158      0x194 /usr/lib/gcc/arm-none-eabi/7.3.0/../../../../arm-none-eabi/lib/armv7e-m/fpu/libm.a(lib_a-k_sin.o)
                0x000000000800d158                __kernel_sin
 .text.fabs     0x000000000800d2ec       0x14 /usr/lib/gcc/arm-none-eabi/7.3.0/../../../../arm-none-eabi/lib/armv7e-m/fpu/libm.a(lib_a-s_fabs.o)
                0x000000000800d2ec                fabs
 .text.finite   0x000000000800d300       0x10 /usr/lib/gcc/arm-none-eabi/7.3.0/../../../../arm-none-eabi/lib/armv7e-m/fpu/libm.a(lib_a-s_finite.o)
                0x000000000800d300                finite
 .text.floor    0x000000000800d310      0x110 /usr/lib/gcc/arm-none-eabi/7.3.0/../../../../arm-none-eabi/lib/armv7e-m/fpu/libm.a(lib_a-s_floor.o)
                0x000000000800d310                floor
 .text.matherr  0x000000000800d420        0x4 /usr/lib/gcc/arm-none-eabi/7.3.0/../../../../arm-none-eabi/lib/armv7e-m/fpu/libm.a(lib_a-s_matherr.o)
                0x000000000800d420                matherr
 *fill*         0x000000000800d424        0x4 
 .text.nan      0x000000000800d428       0x10 /usr/lib/gcc/arm-none-eabi/7.3.0/../../../../arm-none-eabi/lib/armv7e-m/fpu/libm.a(lib_a-s_nan.o)
                0x000000000800d428                nan
 .text.rint     0x000000000800d438      0x110 /usr/lib/gcc/arm-none-eabi/7.3.0/../../../../arm-none-eabi/lib/armv7e-m/fpu/libm.a(lib_a-s_rint.o)
                0x000000000800d438                rint
 .text.scalbn   0x000000000800d548      0x114 /usr/lib/gcc/arm-none-eabi/7.3.0/../../../../arm-none-eabi/lib/armv7e-m/fpu/libm.a(lib_a-s_scalbn.o)
                0x000000000800d548                scalbn
 .text.copysign
                0x000000000800d65c       0x1c /usr/lib/gcc/arm-none-eabi/7.3.0/../../../../arm-none-eabi/lib/armv7e-m/fpu/libm.a(lib_a-s_copysign.o)
                0x000000000800d65c                copysign
 .text._sbrk    0x000000000800d678       0x1c /usr/lib/gcc/arm-none-eabi/7.3.0/../../../../arm-none-eabi/lib/armv7e-m/fpu/libnosys.a(sbrk.o)
                0x000000000800d678                _sbrk
 .text.__udivmoddi4
                0x000000000800d694      0x2b6 /usr/lib/gcc/arm-none-eabi/7.3.0/armv7e-m/fpu/libgcc.a(_udivmoddi4.o)
                0x000000000800d694                __udivmoddi4
 *fill*         0x000000000800d94a        0x2 
 .text.__errno  0x000000000800d94c        0xc /usr/lib/gcc/arm-none-eabi/7.3.0/../../../../arm-none-eabi/lib/armv7e-m/fpu/libc_nano.a(lib_a-errno.o)
                0x000000000800d94c                __errno
 *(.glue_7)
 .glue_7        0x000000000800d958        0x0 linker stubs
 *(.glue_7t)
 .glue_7t       0x000000000800d958        0x0 linker stubs
 *(.eh_frame)
 .eh_frame      0x000000000800d958        0x0 /usr/lib/gcc/arm-none-eabi/7.3.0/armv7e-m/fpu/crtbegin.o
 *(.init)
 .init          0x000000000800d958        0x4 /usr/lib/gcc/arm-none-eabi/7.3.0/armv7e-m/fpu/crti.o
                0x000000000800d958                _init
 .init          0x000000000800d95c        0x8 /usr/lib/gcc/arm-none-eabi/7.3.0/armv7e-m/fpu/crtn.o
 *(.fini)
 .fini          0x000000000800d964        0x4 /usr/lib/gcc/arm-none-eabi/7.3.0/armv7e-m/fpu/crti.o
                0x000000000800d964                _fini
 .fini          0x000000000800d968        0x8 /usr/lib/gcc/arm-none-eabi/7.3.0/armv7e-m/fpu/crtn.o
                0x000000000800d970                . = ALIGN (0x4)
                0x000000000800d970                _etext = .

.vfp11_veneer   0x000000000800d970        0x0
 .vfp11_veneer  0x000000000800d970        0x0 linker stubs

.v4_bx          0x000000000800d970        0x0
 .v4_bx         0x000000000800d970        0x0 linker stubs

.iplt           0x000000000800d970        0x0
 .iplt          0x000000000800d970        0x0 /usr/lib/gcc/arm-none-eabi/7.3.0/armv7e-m/fpu/crtbegin.o

.rodata         0x000000000800d970      0x590
                0x000000000800d970                . = ALIGN (0x4)
 *(.rodata)
 .rodata        0x000000000800d970        0x8 build/obstacle.o
 *(.rodata*)
 .rodata.wait_start.str1.4
                0x000000000800d978       0x1a build/system.o
 *fill*         0x000000000800d992        0x2 
 .rodata.PI_Init.str1.4
                0x000000000800d994        0xa build/pi_client.o
                                          0xe (size before relaxing)
 *fill*         0x000000000800d99e        0x2 
 .rodata.Brake.str1.4
                0x000000000800d9a0       0x1e build/gas.o
 *fill*         0x000000000800d9be        0x2 
 .rodata.Position_Init.str1.4
                0x000000000800d9c0       0x29 build/position_client.o
                                         0x2d (size before relaxing)
 .rodata.Z_Init.str1.4
                0x000000000800d9e9        0xe build/z_client.o
 *fill*         0x000000000800d9e9        0x3 
 .rodata.Z_Wait_State.str1.4
                0x000000000800d9ec        0x4 build/z_client.o
 .rodata.VL53L0X_measurement_poll_for_completion.str1.4
                0x000000000800d9f0        0x9 build/vl53l0x_api_core.o
 *fill*         0x000000000800d9f9        0x3 
 .rodata.SystemClock_Config.str1.4
                0x000000000800d9fc        0xb build/main.o
 *fill*         0x000000000800da07        0x1 
 .rodata.main.str1.4
                0x000000000800da08       0x72 build/main.o
 *fill*         0x000000000800da7a        0x2 
 .rodata.MX_I2C1_Init.str1.4
                0x000000000800da7c        0xa build/i2c.o
 *fill*         0x000000000800da86        0x2 
 .rodata.MX_TIM2_Init.str1.4
                0x000000000800da88        0xa build/tim.o
 *fill*         0x000000000800da92        0x2 
 .rodata.AHBPrescTable
                0x000000000800da94       0x10 build/system_stm32f4xx.o
                0x000000000800da94                AHBPrescTable
 .rodata.APBPrescTable
                0x000000000800daa4        0x8 build/system_stm32f4xx.o
                0x000000000800daa4                APBPrescTable
 .rodata._printf_float.str1.1
                0x000000000800daac       0x12 /usr/lib/gcc/arm-none-eabi/7.3.0/../../../../arm-none-eabi/lib/armv7e-m/fpu/libc_nano.a(lib_a-nano-vfprintf_float.o)
 .rodata._printf_i.str1.1
                0x000000000800dabe       0x22 /usr/lib/gcc/arm-none-eabi/7.3.0/../../../../arm-none-eabi/lib/armv7e-m/fpu/libc_nano.a(lib_a-nano-vfprintf_i.o)
 .rodata._dtoa_r.str1.1
                0x000000000800dae0        0xd /usr/lib/gcc/arm-none-eabi/7.3.0/../../../../arm-none-eabi/lib/armv7e-m/fpu/libc_nano.a(lib_a-dtoa.o)
                                          0xf (size before relaxing)
 .rodata._setlocale_r.str1.1
                0x000000000800daed        0x8 /usr/lib/gcc/arm-none-eabi/7.3.0/../../../../arm-none-eabi/lib/armv7e-m/fpu/libc_nano.a(lib_a-locale.o)
                                          0x9 (size before relaxing)
 .rodata.str1.1
                0x000000000800daf5        0x2 /usr/lib/gcc/arm-none-eabi/7.3.0/../../../../arm-none-eabi/lib/armv7e-m/fpu/libc_nano.a(lib_a-locale.o)
 *fill*         0x000000000800daf7        0x1 
 .rodata.__mprec_bigtens
                0x000000000800daf8       0x28 /usr/lib/gcc/arm-none-eabi/7.3.0/../../../../arm-none-eabi/lib/armv7e-m/fpu/libc_nano.a(lib_a-mprec.o)
                0x000000000800daf8                __mprec_bigtens
 .rodata.__mprec_tens
                0x000000000800db20       0xc8 /usr/lib/gcc/arm-none-eabi/7.3.0/../../../../arm-none-eabi/lib/armv7e-m/fpu/libc_nano.a(lib_a-mprec.o)
                0x000000000800db20                __mprec_tens
 .rodata.p05.7359
                0x000000000800dbe8        0xc /usr/lib/gcc/arm-none-eabi/7.3.0/../../../../arm-none-eabi/lib/armv7e-m/fpu/libc_nano.a(lib_a-mprec.o)
 .rodata._svfprintf_r.str1.1
                0x000000000800dbf4       0x11 /usr/lib/gcc/arm-none-eabi/7.3.0/../../../../arm-none-eabi/lib/armv7e-m/fpu/libc_nano.a(lib_a-nano-svfprintf.o)
 .rodata._ctype_
                0x000000000800dc05      0x101 /usr/lib/gcc/arm-none-eabi/7.3.0/../../../../arm-none-eabi/lib/armv7e-m/fpu/libc_nano.a(lib_a-ctype_.o)
                0x000000000800dc05                _ctype_
 *fill*         0x000000000800dd06        0x2 
 .rodata.pow.str1.4
                0x000000000800dd08        0x4 /usr/lib/gcc/arm-none-eabi/7.3.0/../../../../arm-none-eabi/lib/armv7e-m/fpu/libm.a(lib_a-w_pow.o)
 .rodata.sqrt.str1.4
                0x000000000800dd0c        0x8 /usr/lib/gcc/arm-none-eabi/7.3.0/../../../../arm-none-eabi/lib/armv7e-m/fpu/libm.a(lib_a-w_sqrt.o)
                                          0x5 (size before relaxing)
 .rodata.__ieee754_pow.str1.4
                0x000000000800dd14        0x1 /usr/lib/gcc/arm-none-eabi/7.3.0/../../../../arm-none-eabi/lib/armv7e-m/fpu/libm.a(lib_a-e_pow.o)
 .rodata.npio2_hw
                0x000000000800dd14       0x80 /usr/lib/gcc/arm-none-eabi/7.3.0/../../../../arm-none-eabi/lib/armv7e-m/fpu/libm.a(lib_a-e_rem_pio2.o)
 .rodata.two_over_pi
                0x000000000800dd94      0x108 /usr/lib/gcc/arm-none-eabi/7.3.0/../../../../arm-none-eabi/lib/armv7e-m/fpu/libm.a(lib_a-e_rem_pio2.o)
 *fill*         0x000000000800de9c        0x4 
 .rodata.PIo2   0x000000000800dea0       0x40 /usr/lib/gcc/arm-none-eabi/7.3.0/../../../../arm-none-eabi/lib/armv7e-m/fpu/libm.a(lib_a-k_rem_pio2.o)
 .rodata.init_jk
                0x000000000800dee0       0x10 /usr/lib/gcc/arm-none-eabi/7.3.0/../../../../arm-none-eabi/lib/armv7e-m/fpu/libm.a(lib_a-k_rem_pio2.o)
 .rodata.TWO52  0x000000000800def0       0x10 /usr/lib/gcc/arm-none-eabi/7.3.0/../../../../arm-none-eabi/lib/armv7e-m/fpu/libm.a(lib_a-s_rint.o)
                0x000000000800df00                . = ALIGN (0x4)

.ARM.extab
 *(.ARM.extab* .gnu.linkonce.armextab.*)

.ARM            0x000000000800df00        0x8
                0x000000000800df00                __exidx_start = .
 *(.ARM.exidx*)
 .ARM.exidx.text.__udivmoddi4
                0x000000000800df00        0x8 /usr/lib/gcc/arm-none-eabi/7.3.0/armv7e-m/fpu/libgcc.a(_udivmoddi4.o)
                0x000000000800df08                __exidx_end = .

.rel.dyn        0x000000000800df08        0x0
 .rel.iplt      0x000000000800df08        0x0 /usr/lib/gcc/arm-none-eabi/7.3.0/armv7e-m/fpu/crtbegin.o

.preinit_array  0x000000000800df08        0x0
                0x000000000800df08                PROVIDE (__preinit_array_start = .)
 *(.preinit_array*)
                0x000000000800df08                PROVIDE (__preinit_array_end = .)

.init_array     0x000000000800df08        0x4
                0x000000000800df08                PROVIDE (__init_array_start = .)
 *(SORT_BY_NAME(.init_array.*))
 *(.init_array*)
 .init_array    0x000000000800df08        0x4 /usr/lib/gcc/arm-none-eabi/7.3.0/armv7e-m/fpu/crtbegin.o
                0x000000000800df0c                PROVIDE (__init_array_end = .)

.fini_array     0x000000000800df0c        0x4
                0x000000000800df0c                PROVIDE (__fini_array_start = .)
 *(SORT_BY_NAME(.fini_array.*))
 *(.fini_array*)
 .fini_array    0x000000000800df0c        0x4 /usr/lib/gcc/arm-none-eabi/7.3.0/armv7e-m/fpu/crtbegin.o
                0x000000000800df10                PROVIDE (__fini_array_end = .)
                0x000000000800df10                _sidata = LOADADDR (.data)

.data           0x0000000020000000      0x778 load address 0x000000000800df10
                0x0000000020000000                . = ALIGN (0x4)
                0x0000000020000000                _sdata = .
 *(.data)
 *(.data*)
 .data.crc_table
                0x0000000020000000      0x200 build/crc_16.o
                0x0000000020000000                crc_table
 .data.cube     0x0000000020000200       0xb4 build/strategy.o
                0x0000000020000200                cube
 .data.set      0x00000000200002b4       0x24 build/strategy.o
                0x00000000200002b4                set
 .data.DefaultTuningSettings
                0x00000000200002d8       0xf3 build/vl53l0x_api.o
                0x00000000200002d8                DefaultTuningSettings
 *fill*         0x00000000200003cb        0x1 
 .data.InterruptThresholdSettings
                0x00000000200003cc      0x1b6 build/vl53l0x_api.o
                0x00000000200003cc                InterruptThresholdSettings
 *fill*         0x0000000020000582        0x2 
 .data.refArrayQuadrants
                0x0000000020000584       0x10 build/vl53l0x_api_calibration.o
                0x0000000020000584                refArrayQuadrants
 .data.uwTickFreq
                0x0000000020000594        0x1 build/stm32f4xx_hal.o
                0x0000000020000594                uwTickFreq
 *fill*         0x0000000020000595        0x3 
 .data.uwTickPrio
                0x0000000020000598        0x4 build/stm32f4xx_hal.o
                0x0000000020000598                uwTickPrio
 .data.tim2     0x000000002000059c        0x4 build/tim.o
 .data.SystemCoreClock
                0x00000000200005a0        0x4 build/system_stm32f4xx.o
                0x00000000200005a0                SystemCoreClock
 .data._impure_ptr
                0x00000000200005a4        0x4 /usr/lib/gcc/arm-none-eabi/7.3.0/../../../../arm-none-eabi/lib/armv7e-m/fpu/libc_nano.a(lib_a-impure.o)
                0x00000000200005a4                _impure_ptr
 .data.impure_data
                0x00000000200005a8       0x60 /usr/lib/gcc/arm-none-eabi/7.3.0/../../../../arm-none-eabi/lib/armv7e-m/fpu/libc_nano.a(lib_a-impure.o)
 .data.__global_locale
                0x0000000020000608      0x16c /usr/lib/gcc/arm-none-eabi/7.3.0/../../../../arm-none-eabi/lib/armv7e-m/fpu/libc_nano.a(lib_a-locale.o)
                0x0000000020000608                __global_locale
 .data.__fdlib_version
                0x0000000020000774        0x1 /usr/lib/gcc/arm-none-eabi/7.3.0/../../../../arm-none-eabi/lib/armv7e-m/fpu/libm.a(lib_a-s_lib_ver.o)
                0x0000000020000774                __fdlib_version
                0x0000000020000778                . = ALIGN (0x4)
 *fill*         0x0000000020000775        0x3 
                0x0000000020000778                _edata = .

.igot.plt       0x0000000020000778        0x0 load address 0x000000000800e688
 .igot.plt      0x0000000020000778        0x0 /usr/lib/gcc/arm-none-eabi/7.3.0/armv7e-m/fpu/crtbegin.o
                0x0000000020000778                . = ALIGN (0x4)

.bss            0x0000000020000778    0x107b0 load address 0x000000000800e688
                0x0000000020000778                _sbss = .
                0x0000000020000778                __bss_start__ = _sbss
 *(.bss)
 *(.bss*)
 .bss.completed.9908
                0x0000000020000778        0x1 /usr/lib/gcc/arm-none-eabi/7.3.0/armv7e-m/fpu/crtbegin.o
 *fill*         0x0000000020000779        0x3 
 .bss.object.9913
                0x000000002000077c       0x18 /usr/lib/gcc/arm-none-eabi/7.3.0/armv7e-m/fpu/crtbegin.o
 .bss.err       0x0000000020000794        0x2 build/robotronik_protocol.o
 *fill*         0x0000000020000796        0x2 
 .bss.err       0x0000000020000798        0x4 build/remote_call.o
 .bss.pi_client
                0x000000002000079c      0x268 build/pi_client.o
 .bss.nb_obstacles
                0x0000000020000a04        0x4 build/obstacle.o
                0x0000000020000a04                nb_obstacles
 .bss.build_ctx
                0x0000000020000a08       0x20 build/strategy.o
                0x0000000020000a08                build_ctx
 .bss.cube_sort
                0x0000000020000a28       0x78 build/strategy.o
 .bss.score     0x0000000020000aa0        0x2 build/strategy.o
                0x0000000020000aa0                score
 *fill*         0x0000000020000aa2        0x2 
 .bss.pos_client
                0x0000000020000aa4      0x268 build/position_client.o
 .bss.z_client  0x0000000020000d0c      0x268 build/z_client.o
 .bss.__malloc_free_list
                0x0000000020000f74        0x4 /usr/lib/gcc/arm-none-eabi/7.3.0/../../../../arm-none-eabi/lib/armv7e-m/fpu/libc_nano.a(lib_a-nano-mallocr.o)
                0x0000000020000f74                __malloc_free_list
 .bss.__malloc_sbrk_start
                0x0000000020000f78        0x4 /usr/lib/gcc/arm-none-eabi/7.3.0/../../../../arm-none-eabi/lib/armv7e-m/fpu/libc_nano.a(lib_a-nano-mallocr.o)
                0x0000000020000f78                __malloc_sbrk_start
 .bss.heap_end.5377
                0x0000000020000f7c        0x4 /usr/lib/gcc/arm-none-eabi/7.3.0/../../../../arm-none-eabi/lib/armv7e-m/fpu/libnosys.a(sbrk.o)
 *(COMMON)
 COMMON         0x0000000020000f80     0xea60 build/map.o
                0x0000000020000f80                map
 COMMON         0x000000002000f9e0       0x58 build/obstacle.o
                0x000000002000f9e0                obstacle
                0x000000002000fa30                sensor_raw
 COMMON         0x000000002000fa38       0x83 build/strategy.o
                0x000000002000fa38                me
                0x000000002000fa50                from_y
                0x000000002000fa54                strat
                0x000000002000fab8                from_x
                0x000000002000faba                team
 *fill*         0x000000002000fabb        0x1 
 COMMON         0x000000002000fabc       0x40 build/vl53l0x_platform.o
                0x000000002000fabc                _I2CBuffer
 COMMON         0x000000002000fafc      0xc54 build/usart.o
                0x000000002000fafc                z_iface
                0x000000002000ff18                pi_iface
                0x0000000020010334                pos_iface
 COMMON         0x0000000020010750      0x6b0 build/main.o
                0x0000000020010750                tof
 COMMON         0x0000000020010e00       0xa8 build/i2c.o
                0x0000000020010e00                hi2c3
                0x0000000020010e54                hi2c1
 COMMON         0x0000000020010ea8        0x4 build/stm32f4xx_hal.o
                0x0000000020010ea8                uwTick
 COMMON         0x0000000020010eac       0x78 build/tim.o
                0x0000000020010eac                htim3
                0x0000000020010ee8                htim2
 COMMON         0x0000000020010f24        0x4 /usr/lib/gcc/arm-none-eabi/7.3.0/../../../../arm-none-eabi/lib/armv7e-m/fpu/libc_nano.a(lib_a-reent.o)
                0x0000000020010f24                errno
                0x0000000020010f28                . = ALIGN (0x4)
                0x0000000020010f28                _ebss = .
                0x0000000020010f28                __bss_end__ = _ebss

._user_heap_stack
                0x0000000020010f28      0x600 load address 0x000000000800e688
                0x0000000020010f28                . = ALIGN (0x8)
                0x0000000020010f28                PROVIDE (end = .)
                [!provide]                        PROVIDE (_end = .)
                0x0000000020011128                . = (. + _Min_Heap_Size)
 *fill*         0x0000000020010f28      0x200 
                0x0000000020011528                . = (. + _Min_Stack_Size)
 *fill*         0x0000000020011128      0x400 
                0x0000000020011528                . = ALIGN (0x8)

/DISCARD/
 libc.a(*)
 libm.a(*)
 libgcc.a(*)

.ARM.attributes
                0x0000000000000000       0x30
 *(.ARM.attributes)
 .ARM.attributes
                0x0000000000000000       0x22 /usr/lib/gcc/arm-none-eabi/7.3.0/armv7e-m/fpu/crti.o
 .ARM.attributes
                0x0000000000000022       0x34 /usr/lib/gcc/arm-none-eabi/7.3.0/armv7e-m/fpu/crtbegin.o
 .ARM.attributes
                0x0000000000000056       0x39 build/crc_16.o
 .ARM.attributes
                0x000000000000008f       0x39 build/robotronik_protocol.o
 .ARM.attributes
                0x00000000000000c8       0x39 build/remote_call.o
 .ARM.attributes
                0x0000000000000101       0x39 build/tof.o
 .ARM.attributes
                0x000000000000013a       0x39 build/system.o
 .ARM.attributes
                0x0000000000000173       0x39 build/pi_client.o
 .ARM.attributes
                0x00000000000001ac       0x39 build/map.o
 .ARM.attributes
                0x00000000000001e5       0x39 build/obstacle.o
 .ARM.attributes
                0x000000000000021e       0x39 build/strategy.o
 .ARM.attributes
                0x0000000000000257       0x39 build/gas.o
 .ARM.attributes
                0x0000000000000290       0x39 build/position_client.o
 .ARM.attributes
                0x00000000000002c9       0x39 build/z_client.o
 .ARM.attributes
                0x0000000000000302       0x39 build/vl53l0x_api.o
 .ARM.attributes
                0x000000000000033b       0x39 build/vl53l0x_api_calibration.o
 .ARM.attributes
                0x0000000000000374       0x39 build/vl53l0x_api_core.o
 .ARM.attributes
                0x00000000000003ad       0x39 build/vl53l0x_platform.o
 .ARM.attributes
                0x00000000000003e6       0x39 build/usart.o
 .ARM.attributes
                0x000000000000041f       0x39 build/main.o
 .ARM.attributes
                0x0000000000000458       0x39 build/i2c.o
 .ARM.attributes
                0x0000000000000491       0x39 build/stm32f4xx_hal_msp.o
 .ARM.attributes
                0x00000000000004ca       0x39 build/stm32f4xx_hal_cortex.o
 .ARM.attributes
                0x0000000000000503       0x39 build/stm32f4xx_it.o
 .ARM.attributes
                0x000000000000053c       0x39 build/stm32f4xx_hal_tim_ex.o
 .ARM.attributes
                0x0000000000000575       0x39 build/stm32f4xx_hal_rcc.o
 .ARM.attributes
                0x00000000000005ae       0x39 build/gpio.o
 .ARM.attributes
                0x00000000000005e7       0x39 build/stm32f4xx_hal_gpio.o
 .ARM.attributes
                0x0000000000000620       0x39 build/stm32f4xx_hal_dma.o
 .ARM.attributes
                0x0000000000000659       0x39 build/stm32f4xx_hal_i2c.o
 .ARM.attributes
                0x0000000000000692       0x39 build/stm32f4xx_hal.o
 .ARM.attributes
                0x00000000000006cb       0x39 build/stm32f4xx_hal_tim.o
 .ARM.attributes
                0x0000000000000704       0x39 build/dma.o
 .ARM.attributes
                0x000000000000073d       0x39 build/stm32f4xx_ll_usart.o
 .ARM.attributes
                0x0000000000000776       0x39 build/stm32f4xx_ll_rcc.o
 .ARM.attributes
                0x00000000000007af       0x39 build/stm32f4xx_ll_gpio.o
 .ARM.attributes
                0x00000000000007e8       0x39 build/tim.o
 .ARM.attributes
                0x0000000000000821       0x39 build/system_stm32f4xx.o
 .ARM.attributes
                0x000000000000085a       0x21 build/startup_stm32f401xe.o
 .ARM.attributes
                0x000000000000087b       0x34 /usr/lib/gcc/arm-none-eabi/7.3.0/../../../../arm-none-eabi/lib/armv7e-m/fpu/libc_nano.a(lib_a-impure.o)
 .ARM.attributes
                0x00000000000008af       0x34 /usr/lib/gcc/arm-none-eabi/7.3.0/../../../../arm-none-eabi/lib/armv7e-m/fpu/libc_nano.a(lib_a-init.o)
 .ARM.attributes
                0x00000000000008e3       0x34 /usr/lib/gcc/arm-none-eabi/7.3.0/../../../../arm-none-eabi/lib/armv7e-m/fpu/libc_nano.a(lib_a-memcpy-stub.o)
 .ARM.attributes
                0x0000000000000917       0x34 /usr/lib/gcc/arm-none-eabi/7.3.0/../../../../arm-none-eabi/lib/armv7e-m/fpu/libc_nano.a(lib_a-memset.o)
 .ARM.attributes
                0x000000000000094b       0x34 /usr/lib/gcc/arm-none-eabi/7.3.0/../../../../arm-none-eabi/lib/armv7e-m/fpu/libc_nano.a(lib_a-nano-vfprintf_float.o)
 .ARM.attributes
                0x000000000000097f       0x34 /usr/lib/gcc/arm-none-eabi/7.3.0/../../../../arm-none-eabi/lib/armv7e-m/fpu/libc_nano.a(lib_a-nano-vfprintf_i.o)
 .ARM.attributes
                0x00000000000009b3       0x34 /usr/lib/gcc/arm-none-eabi/7.3.0/../../../../arm-none-eabi/lib/armv7e-m/fpu/libc_nano.a(lib_a-strcpy.o)
 .ARM.attributes
                0x00000000000009e7       0x1b /usr/lib/gcc/arm-none-eabi/7.3.0/../../../../arm-none-eabi/lib/armv7e-m/fpu/libc_nano.a(lib_a-strlen.o)
 .ARM.attributes
                0x0000000000000a02       0x34 /usr/lib/gcc/arm-none-eabi/7.3.0/../../../../arm-none-eabi/lib/armv7e-m/fpu/libc_nano.a(lib_a-vsnprintf.o)
 .ARM.attributes
                0x0000000000000a36       0x34 /usr/lib/gcc/arm-none-eabi/7.3.0/../../../../arm-none-eabi/lib/armv7e-m/fpu/libc_nano.a(lib_a-dtoa.o)
 .ARM.attributes
                0x0000000000000a6a       0x34 /usr/lib/gcc/arm-none-eabi/7.3.0/../../../../arm-none-eabi/lib/armv7e-m/fpu/libc_nano.a(lib_a-localeconv.o)
 .ARM.attributes
                0x0000000000000a9e       0x34 /usr/lib/gcc/arm-none-eabi/7.3.0/../../../../arm-none-eabi/lib/armv7e-m/fpu/libc_nano.a(lib_a-locale.o)
 .ARM.attributes
                0x0000000000000ad2       0x34 /usr/lib/gcc/arm-none-eabi/7.3.0/../../../../arm-none-eabi/lib/armv7e-m/fpu/libc_nano.a(lib_a-malloc.o)
 .ARM.attributes
                0x0000000000000b06       0x34 /usr/lib/gcc/arm-none-eabi/7.3.0/../../../../arm-none-eabi/lib/armv7e-m/fpu/libc_nano.a(lib_a-mbtowc_r.o)
 .ARM.attributes
                0x0000000000000b3a       0x20 /usr/lib/gcc/arm-none-eabi/7.3.0/../../../../arm-none-eabi/lib/armv7e-m/fpu/libc_nano.a(lib_a-memchr.o)
 .ARM.attributes
                0x0000000000000b5a       0x34 /usr/lib/gcc/arm-none-eabi/7.3.0/../../../../arm-none-eabi/lib/armv7e-m/fpu/libc_nano.a(lib_a-mprec.o)
 .ARM.attributes
                0x0000000000000b8e       0x34 /usr/lib/gcc/arm-none-eabi/7.3.0/../../../../arm-none-eabi/lib/armv7e-m/fpu/libc_nano.a(lib_a-nano-callocr.o)
 .ARM.attributes
                0x0000000000000bc2       0x34 /usr/lib/gcc/arm-none-eabi/7.3.0/../../../../arm-none-eabi/lib/armv7e-m/fpu/libc_nano.a(lib_a-nano-freer.o)
 .ARM.attributes
                0x0000000000000bf6       0x34 /usr/lib/gcc/arm-none-eabi/7.3.0/../../../../arm-none-eabi/lib/armv7e-m/fpu/libc_nano.a(lib_a-nano-mallocr.o)
 .ARM.attributes
                0x0000000000000c2a       0x34 /usr/lib/gcc/arm-none-eabi/7.3.0/../../../../arm-none-eabi/lib/armv7e-m/fpu/libc_nano.a(lib_a-nano-svfprintf.o)
 .ARM.attributes
                0x0000000000000c5e       0x34 /usr/lib/gcc/arm-none-eabi/7.3.0/../../../../arm-none-eabi/lib/armv7e-m/fpu/libc_nano.a(lib_a-sbrkr.o)
 .ARM.attributes
                0x0000000000000c92       0x34 /usr/lib/gcc/arm-none-eabi/7.3.0/../../../../arm-none-eabi/lib/armv7e-m/fpu/libc_nano.a(lib_a-wctomb_r.o)
 .ARM.attributes
                0x0000000000000cc6       0x34 /usr/lib/gcc/arm-none-eabi/7.3.0/../../../../arm-none-eabi/lib/armv7e-m/fpu/libc_nano.a(lib_a-ctype_.o)
 .ARM.attributes
                0x0000000000000cfa       0x34 /usr/lib/gcc/arm-none-eabi/7.3.0/../../../../arm-none-eabi/lib/armv7e-m/fpu/libc_nano.a(lib_a-memmove.o)
 .ARM.attributes
                0x0000000000000d2e       0x34 /usr/lib/gcc/arm-none-eabi/7.3.0/../../../../arm-none-eabi/lib/armv7e-m/fpu/libc_nano.a(lib_a-mlock.o)
 .ARM.attributes
                0x0000000000000d62       0x34 /usr/lib/gcc/arm-none-eabi/7.3.0/../../../../arm-none-eabi/lib/armv7e-m/fpu/libc_nano.a(lib_a-nano-reallocr.o)
 .ARM.attributes
                0x0000000000000d96       0x34 /usr/lib/gcc/arm-none-eabi/7.3.0/../../../../arm-none-eabi/lib/armv7e-m/fpu/libc_nano.a(lib_a-reent.o)
 .ARM.attributes
                0x0000000000000dca       0x34 /usr/lib/gcc/arm-none-eabi/7.3.0/../../../../arm-none-eabi/lib/armv7e-m/fpu/libc_nano.a(lib_a-nano-msizer.o)
 .ARM.attributes
                0x0000000000000dfe       0x34 /usr/lib/gcc/arm-none-eabi/7.3.0/../../../../arm-none-eabi/lib/armv7e-m/fpu/libm.a(lib_a-s_cos.o)
 .ARM.attributes
                0x0000000000000e32       0x34 /usr/lib/gcc/arm-none-eabi/7.3.0/../../../../arm-none-eabi/lib/armv7e-m/fpu/libm.a(lib_a-s_sin.o)
 .ARM.attributes
                0x0000000000000e66       0x34 /usr/lib/gcc/arm-none-eabi/7.3.0/../../../../arm-none-eabi/lib/armv7e-m/fpu/libm.a(lib_a-w_pow.o)
 .ARM.attributes
                0x0000000000000e9a       0x34 /usr/lib/gcc/arm-none-eabi/7.3.0/../../../../arm-none-eabi/lib/armv7e-m/fpu/libm.a(lib_a-w_sqrt.o)
 .ARM.attributes
                0x0000000000000ece       0x34 /usr/lib/gcc/arm-none-eabi/7.3.0/../../../../arm-none-eabi/lib/armv7e-m/fpu/libm.a(lib_a-e_pow.o)
 .ARM.attributes
                0x0000000000000f02       0x34 /usr/lib/gcc/arm-none-eabi/7.3.0/../../../../arm-none-eabi/lib/armv7e-m/fpu/libm.a(lib_a-e_rem_pio2.o)
 .ARM.attributes
                0x0000000000000f36       0x34 /usr/lib/gcc/arm-none-eabi/7.3.0/../../../../arm-none-eabi/lib/armv7e-m/fpu/libm.a(lib_a-e_sqrt.o)
 .ARM.attributes
                0x0000000000000f6a       0x34 /usr/lib/gcc/arm-none-eabi/7.3.0/../../../../arm-none-eabi/lib/armv7e-m/fpu/libm.a(lib_a-k_cos.o)
 .ARM.attributes
                0x0000000000000f9e       0x34 /usr/lib/gcc/arm-none-eabi/7.3.0/../../../../arm-none-eabi/lib/armv7e-m/fpu/libm.a(lib_a-k_rem_pio2.o)
 .ARM.attributes
                0x0000000000000fd2       0x34 /usr/lib/gcc/arm-none-eabi/7.3.0/../../../../arm-none-eabi/lib/armv7e-m/fpu/libm.a(lib_a-k_sin.o)
 .ARM.attributes
                0x0000000000001006       0x34 /usr/lib/gcc/arm-none-eabi/7.3.0/../../../../arm-none-eabi/lib/armv7e-m/fpu/libm.a(lib_a-s_fabs.o)
 .ARM.attributes
                0x000000000000103a       0x34 /usr/lib/gcc/arm-none-eabi/7.3.0/../../../../arm-none-eabi/lib/armv7e-m/fpu/libm.a(lib_a-s_finite.o)
 .ARM.attributes
                0x000000000000106e       0x34 /usr/lib/gcc/arm-none-eabi/7.3.0/../../../../arm-none-eabi/lib/armv7e-m/fpu/libm.a(lib_a-s_floor.o)
 .ARM.attributes
                0x00000000000010a2       0x34 /usr/lib/gcc/arm-none-eabi/7.3.0/../../../../arm-none-eabi/lib/armv7e-m/fpu/libm.a(lib_a-s_lib_ver.o)
 .ARM.attributes
                0x00000000000010d6       0x34 /usr/lib/gcc/arm-none-eabi/7.3.0/../../../../arm-none-eabi/lib/armv7e-m/fpu/libm.a(lib_a-s_matherr.o)
 .ARM.attributes
                0x000000000000110a       0x34 /usr/lib/gcc/arm-none-eabi/7.3.0/../../../../arm-none-eabi/lib/armv7e-m/fpu/libm.a(lib_a-s_nan.o)
 .ARM.attributes
                0x000000000000113e       0x34 /usr/lib/gcc/arm-none-eabi/7.3.0/../../../../arm-none-eabi/lib/armv7e-m/fpu/libm.a(lib_a-s_rint.o)
 .ARM.attributes
                0x0000000000001172       0x34 /usr/lib/gcc/arm-none-eabi/7.3.0/../../../../arm-none-eabi/lib/armv7e-m/fpu/libm.a(lib_a-s_scalbn.o)
 .ARM.attributes
                0x00000000000011a6       0x34 /usr/lib/gcc/arm-none-eabi/7.3.0/../../../../arm-none-eabi/lib/armv7e-m/fpu/libm.a(lib_a-s_copysign.o)
 .ARM.attributes
                0x00000000000011da       0x34 /usr/lib/gcc/arm-none-eabi/7.3.0/../../../../arm-none-eabi/lib/armv7e-m/fpu/libnosys.a(sbrk.o)
 .ARM.attributes
                0x000000000000120e       0x22 /usr/lib/gcc/arm-none-eabi/7.3.0/armv7e-m/fpu/libgcc.a(_arm_addsubdf3.o)
 .ARM.attributes
                0x0000000000001230       0x22 /usr/lib/gcc/arm-none-eabi/7.3.0/armv7e-m/fpu/libgcc.a(_arm_muldivdf3.o)
 .ARM.attributes
                0x0000000000001252       0x22 /usr/lib/gcc/arm-none-eabi/7.3.0/armv7e-m/fpu/libgcc.a(_arm_cmpdf2.o)
 .ARM.attributes
                0x0000000000001274       0x22 /usr/lib/gcc/arm-none-eabi/7.3.0/armv7e-m/fpu/libgcc.a(_arm_unorddf2.o)
 .ARM.attributes
                0x0000000000001296       0x22 /usr/lib/gcc/arm-none-eabi/7.3.0/armv7e-m/fpu/libgcc.a(_arm_fixdfsi.o)
 .ARM.attributes
                0x00000000000012b8       0x22 /usr/lib/gcc/arm-none-eabi/7.3.0/armv7e-m/fpu/libgcc.a(_arm_fixunsdfsi.o)
 .ARM.attributes
                0x00000000000012da       0x22 /usr/lib/gcc/arm-none-eabi/7.3.0/armv7e-m/fpu/libgcc.a(_arm_truncdfsf2.o)
 .ARM.attributes
                0x00000000000012fc       0x22 /usr/lib/gcc/arm-none-eabi/7.3.0/armv7e-m/fpu/libgcc.a(_aeabi_uldivmod.o)
 .ARM.attributes
                0x000000000000131e       0x34 /usr/lib/gcc/arm-none-eabi/7.3.0/armv7e-m/fpu/libgcc.a(_udivmoddi4.o)
 .ARM.attributes
                0x0000000000001352       0x22 /usr/lib/gcc/arm-none-eabi/7.3.0/armv7e-m/fpu/libgcc.a(_dvmd_tls.o)
 .ARM.attributes
                0x0000000000001374       0x34 /usr/lib/gcc/arm-none-eabi/7.3.0/../../../../arm-none-eabi/lib/armv7e-m/fpu/libc_nano.a(lib_a-errno.o)
 .ARM.attributes
                0x00000000000013a8       0x22 /usr/lib/gcc/arm-none-eabi/7.3.0/armv7e-m/fpu/crtn.o
OUTPUT(build/Central.elf elf32-littlearm)

.debug_info     0x0000000000000000    0x4329f
 .debug_info    0x0000000000000000       0xa4 build/crc_16.o
 .debug_info    0x00000000000000a4      0x8bf build/robotronik_protocol.o
 .debug_info    0x0000000000000963     0x17ee build/remote_call.o
 .debug_info    0x0000000000002151     0x1f5d build/tof.o
 .debug_info    0x00000000000040ae     0x2464 build/system.o
 .debug_info    0x0000000000006512     0x164b build/pi_client.o
 .debug_info    0x0000000000007b5d     0x1298 build/map.o
 .debug_info    0x0000000000008df5     0x1dcd build/obstacle.o
 .debug_info    0x000000000000abc2     0x1ed1 build/strategy.o
 .debug_info    0x000000000000ca93     0x2003 build/gas.o
 .debug_info    0x000000000000ea96     0x190b build/position_client.o
 .debug_info    0x00000000000103a1     0x12cf build/z_client.o
 .debug_info    0x0000000000011670     0x5817 build/vl53l0x_api.o
 .debug_info    0x0000000000016e87     0x310f build/vl53l0x_api_calibration.o
 .debug_info    0x0000000000019f96     0x4263 build/vl53l0x_api_core.o
 .debug_info    0x000000000001e1f9     0x2065 build/vl53l0x_platform.o
 .debug_info    0x000000000002025e     0x2be7 build/usart.o
 .debug_info    0x0000000000022e45     0x379a build/main.o
 .debug_info    0x00000000000265df     0x1737 build/i2c.o
 .debug_info    0x0000000000027d16      0xcd2 build/stm32f4xx_hal_msp.o
 .debug_info    0x00000000000289e8     0x1887 build/stm32f4xx_hal_cortex.o
 .debug_info    0x000000000002a26f     0x1cef build/stm32f4xx_it.o
 .debug_info    0x000000000002bf5e     0x1d71 build/stm32f4xx_hal_tim_ex.o
 .debug_info    0x000000000002dccf     0x1450 build/stm32f4xx_hal_rcc.o
 .debug_info    0x000000000002f11f      0xfa2 build/gpio.o
 .debug_info    0x00000000000300c1     0x1144 build/stm32f4xx_hal_gpio.o
 .debug_info    0x0000000000031205     0x13ee build/stm32f4xx_hal_dma.o
 .debug_info    0x00000000000325f3     0x399f build/stm32f4xx_hal_i2c.o
 .debug_info    0x0000000000035f92     0x132b build/stm32f4xx_hal.o
 .debug_info    0x00000000000372bd     0x3a39 build/stm32f4xx_hal_tim.o
 .debug_info    0x000000000003acf6     0x1322 build/dma.o
 .debug_info    0x000000000003c018     0x1244 build/stm32f4xx_ll_usart.o
 .debug_info    0x000000000003d25c     0x128b build/stm32f4xx_ll_rcc.o
 .debug_info    0x000000000003e4e7     0x1455 build/stm32f4xx_ll_gpio.o
 .debug_info    0x000000000003f93c     0x2a87 build/tim.o
 .debug_info    0x00000000000423c3      0xeba build/system_stm32f4xx.o
 .debug_info    0x000000000004327d       0x22 build/startup_stm32f401xe.o

.debug_abbrev   0x0000000000000000     0x6b5f
 .debug_abbrev  0x0000000000000000       0x63 build/crc_16.o
 .debug_abbrev  0x0000000000000063      0x2be build/robotronik_protocol.o
 .debug_abbrev  0x0000000000000321      0x3a4 build/remote_call.o
 .debug_abbrev  0x00000000000006c5      0x322 build/tof.o
 .debug_abbrev  0x00000000000009e7      0x2bf build/system.o
 .debug_abbrev  0x0000000000000ca6      0x2df build/pi_client.o
 .debug_abbrev  0x0000000000000f85      0x2c2 build/map.o
 .debug_abbrev  0x0000000000001247      0x3db build/obstacle.o
 .debug_abbrev  0x0000000000001622      0x481 build/strategy.o
 .debug_abbrev  0x0000000000001aa3      0x416 build/gas.o
 .debug_abbrev  0x0000000000001eb9      0x2a2 build/position_client.o
 .debug_abbrev  0x000000000000215b      0x268 build/z_client.o
 .debug_abbrev  0x00000000000023c3      0x380 build/vl53l0x_api.o
 .debug_abbrev  0x0000000000002743      0x365 build/vl53l0x_api_calibration.o
 .debug_abbrev  0x0000000000002aa8      0x39a build/vl53l0x_api_core.o
 .debug_abbrev  0x0000000000002e42      0x2bc build/vl53l0x_platform.o
 .debug_abbrev  0x00000000000030fe      0x395 build/usart.o
 .debug_abbrev  0x0000000000003493      0x377 build/main.o
 .debug_abbrev  0x000000000000380a      0x253 build/i2c.o
 .debug_abbrev  0x0000000000003a5d      0x1fc build/stm32f4xx_hal_msp.o
 .debug_abbrev  0x0000000000003c59      0x3eb build/stm32f4xx_hal_cortex.o
 .debug_abbrev  0x0000000000004044      0x2ed build/stm32f4xx_it.o
 .debug_abbrev  0x0000000000004331      0x307 build/stm32f4xx_hal_tim_ex.o
 .debug_abbrev  0x0000000000004638      0x33e build/stm32f4xx_hal_rcc.o
 .debug_abbrev  0x0000000000004976      0x21c build/gpio.o
 .debug_abbrev  0x0000000000004b92      0x2cd build/stm32f4xx_hal_gpio.o
 .debug_abbrev  0x0000000000004e5f      0x328 build/stm32f4xx_hal_dma.o
 .debug_abbrev  0x0000000000005187      0x33d build/stm32f4xx_hal_i2c.o
 .debug_abbrev  0x00000000000054c4      0x2f0 build/stm32f4xx_hal.o
 .debug_abbrev  0x00000000000057b4      0x31f build/stm32f4xx_hal_tim.o
 .debug_abbrev  0x0000000000005ad3      0x28b build/dma.o
 .debug_abbrev  0x0000000000005d5e      0x31b build/stm32f4xx_ll_usart.o
 .debug_abbrev  0x0000000000006079      0x312 build/stm32f4xx_ll_rcc.o
 .debug_abbrev  0x000000000000638b      0x2e5 build/stm32f4xx_ll_gpio.o
 .debug_abbrev  0x0000000000006670      0x2e8 build/tim.o
 .debug_abbrev  0x0000000000006958      0x1f5 build/system_stm32f4xx.o
 .debug_abbrev  0x0000000000006b4d       0x12 build/startup_stm32f401xe.o

.debug_aranges  0x0000000000000000     0x1778
 .debug_aranges
                0x0000000000000000       0x18 build/crc_16.o
 .debug_aranges
                0x0000000000000018       0x98 build/robotronik_protocol.o
 .debug_aranges
                0x00000000000000b0       0x80 build/remote_call.o
 .debug_aranges
                0x0000000000000130       0x60 build/tof.o
 .debug_aranges
                0x0000000000000190       0x40 build/system.o
 .debug_aranges
                0x00000000000001d0       0x50 build/pi_client.o
 .debug_aranges
                0x0000000000000220       0x40 build/map.o
 .debug_aranges
                0x0000000000000260       0x68 build/obstacle.o
 .debug_aranges
                0x00000000000002c8       0xc8 build/strategy.o
 .debug_aranges
                0x0000000000000390       0xb0 build/gas.o
 .debug_aranges
                0x0000000000000440       0x70 build/position_client.o
 .debug_aranges
                0x00000000000004b0       0x70 build/z_client.o
 .debug_aranges
                0x0000000000000520      0x330 build/vl53l0x_api.o
 .debug_aranges
                0x0000000000000850       0xd0 build/vl53l0x_api_calibration.o
 .debug_aranges
                0x0000000000000920       0xe0 build/vl53l0x_api_core.o
 .debug_aranges
                0x0000000000000a00       0x78 build/vl53l0x_platform.o
 .debug_aranges
                0x0000000000000a78       0x40 build/usart.o
 .debug_aranges
                0x0000000000000ab8       0x40 build/main.o
 .debug_aranges
                0x0000000000000af8       0x38 build/i2c.o
 .debug_aranges
                0x0000000000000b30       0x20 build/stm32f4xx_hal_msp.o
 .debug_aranges
                0x0000000000000b50       0xa8 build/stm32f4xx_hal_cortex.o
 .debug_aranges
                0x0000000000000bf8       0x68 build/stm32f4xx_it.o
 .debug_aranges
                0x0000000000000c60      0x140 build/stm32f4xx_hal_tim_ex.o
 .debug_aranges
                0x0000000000000da0       0x88 build/stm32f4xx_hal_rcc.o
 .debug_aranges
                0x0000000000000e28       0x20 build/gpio.o
 .debug_aranges
                0x0000000000000e48       0x58 build/stm32f4xx_hal_gpio.o
 .debug_aranges
                0x0000000000000ea0       0x90 build/stm32f4xx_hal_dma.o
 .debug_aranges
                0x0000000000000f30      0x268 build/stm32f4xx_hal_i2c.o
 .debug_aranges
                0x0000000000001198       0xe0 build/stm32f4xx_hal.o
 .debug_aranges
                0x0000000000001278      0x368 build/stm32f4xx_hal_tim.o
 .debug_aranges
                0x00000000000015e0       0x20 build/dma.o
 .debug_aranges
                0x0000000000001600       0x40 build/stm32f4xx_ll_usart.o
 .debug_aranges
                0x0000000000001640       0x78 build/stm32f4xx_ll_rcc.o
 .debug_aranges
                0x00000000000016b8       0x30 build/stm32f4xx_ll_gpio.o
 .debug_aranges
                0x00000000000016e8       0x40 build/tim.o
 .debug_aranges
                0x0000000000001728       0x28 build/system_stm32f4xx.o
 .debug_aranges
                0x0000000000001750       0x28 build/startup_stm32f401xe.o

.debug_line     0x0000000000000000     0xbce6
 .debug_line    0x0000000000000000       0xa0 build/crc_16.o
 .debug_line    0x00000000000000a0      0x31d build/robotronik_protocol.o
 .debug_line    0x00000000000003bd      0x467 build/remote_call.o
 .debug_line    0x0000000000000824      0x3ea build/tof.o
 .debug_line    0x0000000000000c0e      0x3e3 build/system.o
 .debug_line    0x0000000000000ff1      0x324 build/pi_client.o
 .debug_line    0x0000000000001315      0x2d8 build/map.o
 .debug_line    0x00000000000015ed      0x548 build/obstacle.o
 .debug_line    0x0000000000001b35      0x796 build/strategy.o
 .debug_line    0x00000000000022cb      0x501 build/gas.o
 .debug_line    0x00000000000027cc      0x326 build/position_client.o
 .debug_line    0x0000000000002af2      0x30b build/z_client.o
 .debug_line    0x0000000000002dfd      0xeb5 build/vl53l0x_api.o
 .debug_line    0x0000000000003cb2      0x794 build/vl53l0x_api_calibration.o
 .debug_line    0x0000000000004446      0x9d8 build/vl53l0x_api_core.o
 .debug_line    0x0000000000004e1e      0x40a build/vl53l0x_platform.o
 .debug_line    0x0000000000005228      0x46c build/usart.o
 .debug_line    0x0000000000005694      0x567 build/main.o
 .debug_line    0x0000000000005bfb      0x2a0 build/i2c.o
 .debug_line    0x0000000000005e9b      0x1cf build/stm32f4xx_hal_msp.o
 .debug_line    0x000000000000606a      0x42d build/stm32f4xx_hal_cortex.o
 .debug_line    0x0000000000006497      0x453 build/stm32f4xx_it.o
 .debug_line    0x00000000000068ea      0x7e3 build/stm32f4xx_hal_tim_ex.o
 .debug_line    0x00000000000070cd      0x4b1 build/stm32f4xx_hal_rcc.o
 .debug_line    0x000000000000757e      0x1e7 build/gpio.o
 .debug_line    0x0000000000007765      0x35d build/stm32f4xx_hal_gpio.o
 .debug_line    0x0000000000007ac2      0x530 build/stm32f4xx_hal_dma.o
 .debug_line    0x0000000000007ff2     0x13bc build/stm32f4xx_hal_i2c.o
 .debug_line    0x00000000000093ae      0x3ed build/stm32f4xx_hal.o
 .debug_line    0x000000000000979b     0x1205 build/stm32f4xx_hal_tim.o
 .debug_line    0x000000000000a9a0      0x1e9 build/dma.o
 .debug_line    0x000000000000ab89      0x33f build/stm32f4xx_ll_usart.o
 .debug_line    0x000000000000aec8      0x427 build/stm32f4xx_ll_rcc.o
 .debug_line    0x000000000000b2ef      0x37a build/stm32f4xx_ll_gpio.o
 .debug_line    0x000000000000b669      0x428 build/tim.o
 .debug_line    0x000000000000ba91      0x1e1 build/system_stm32f4xx.o
 .debug_line    0x000000000000bc72       0x74 build/startup_stm32f401xe.o

.debug_str      0x0000000000000000     0x8f2d
 .debug_str     0x0000000000000000      0x13e build/crc_16.o
                                        0x17b (size before relaxing)
 .debug_str     0x000000000000013e      0x2bb build/robotronik_protocol.o
                                        0x465 (size before relaxing)
 .debug_str     0x00000000000003f9      0x6f6 build/remote_call.o
                                        0x9df (size before relaxing)
 .debug_str     0x0000000000000aef      0xe55 build/tof.o
                                       0x1697 (size before relaxing)
 .debug_str     0x0000000000001944      0x599 build/system.o
                                       0x1943 (size before relaxing)
 .debug_str     0x0000000000001edd      0x103 build/pi_client.o
                                        0xba3 (size before relaxing)
 .debug_str     0x0000000000001fe0       0xc9 build/map.o
                                        0x95b (size before relaxing)
 .debug_str     0x00000000000020a9      0x25f build/obstacle.o
                                        0xd11 (size before relaxing)
 .debug_str     0x0000000000002308      0x34a build/strategy.o
                                        0xc96 (size before relaxing)
 .debug_str     0x0000000000002652      0x267 build/gas.o
                                        0xe45 (size before relaxing)
 .debug_str     0x00000000000028b9      0x179 build/position_client.o
                                        0xcbf (size before relaxing)
 .debug_str     0x0000000000002a32      0x15f build/z_client.o
                                        0x8f7 (size before relaxing)
 .debug_str     0x0000000000002b91     0x1669 build/vl53l0x_api.o
                                       0x2c94 (size before relaxing)
 .debug_str     0x00000000000041fa      0x613 build/vl53l0x_api_calibration.o
                                       0x1d12 (size before relaxing)
 .debug_str     0x000000000000480d      0xbdd build/vl53l0x_api_core.o
                                       0x2431 (size before relaxing)
 .debug_str     0x00000000000053ea       0xbc build/vl53l0x_platform.o
                                       0x14a5 (size before relaxing)
 .debug_str     0x00000000000054a6      0x858 build/usart.o
                                       0x1733 (size before relaxing)
 .debug_str     0x0000000000005cfe      0x345 build/main.o
                                       0x2404 (size before relaxing)
 .debug_str     0x0000000000006043       0x7a build/i2c.o
                                       0x10a8 (size before relaxing)
 .debug_str     0x00000000000060bd       0x41 build/stm32f4xx_hal_msp.o
                                        0x9a5 (size before relaxing)
 .debug_str     0x00000000000060fe      0x297 build/stm32f4xx_hal_cortex.o
                                        0xeca (size before relaxing)
 .debug_str     0x0000000000006395      0x268 build/stm32f4xx_it.o
                                       0x1048 (size before relaxing)
 .debug_str     0x00000000000065fd      0x65b build/stm32f4xx_hal_tim_ex.o
                                       0x1087 (size before relaxing)
 .debug_str     0x0000000000006c58      0x1c0 build/stm32f4xx_hal_rcc.o
                                        0xae7 (size before relaxing)
 .debug_str     0x0000000000006e18        0xb build/gpio.o
                                        0x7ad (size before relaxing)
 .debug_str     0x0000000000006e23      0x114 build/stm32f4xx_hal_gpio.o
                                        0x914 (size before relaxing)
 .debug_str     0x0000000000006f37      0x2e2 build/stm32f4xx_hal_dma.o
                                        0xb88 (size before relaxing)
 .debug_str     0x0000000000007219      0x73c build/stm32f4xx_hal_i2c.o
                                       0x134d (size before relaxing)
 .debug_str     0x0000000000007955      0x277 build/stm32f4xx_hal.o
                                        0xe05 (size before relaxing)
 .debug_str     0x0000000000007bcc      0xbca build/stm32f4xx_hal_tim.o
                                       0x17c7 (size before relaxing)
 .debug_str     0x0000000000008796       0x23 build/dma.o
                                        0xbe4 (size before relaxing)
 .debug_str     0x00000000000087b9      0x247 build/stm32f4xx_ll_usart.o
                                        0xa07 (size before relaxing)
 .debug_str     0x0000000000008a00      0x392 build/stm32f4xx_ll_rcc.o
                                        0xafd (size before relaxing)
 .debug_str     0x0000000000008d92      0x128 build/stm32f4xx_ll_gpio.o
                                        0x8bd (size before relaxing)
 .debug_str     0x0000000000008eba       0x19 build/tim.o
                                       0x1fd2 (size before relaxing)
 .debug_str     0x0000000000008ed3       0x38 build/system_stm32f4xx.o
                                        0x778 (size before relaxing)
 .debug_str     0x0000000000008f0b       0x22 build/startup_stm32f401xe.o
                                         0x70 (size before relaxing)

.comment        0x0000000000000000       0x1d
 .comment       0x0000000000000000       0x1d build/crc_16.o
                                         0x1e (size before relaxing)
 .comment       0x000000000000001d       0x1e build/robotronik_protocol.o
 .comment       0x000000000000001d       0x1e build/remote_call.o
 .comment       0x000000000000001d       0x1e build/tof.o
 .comment       0x000000000000001d       0x1e build/system.o
 .comment       0x000000000000001d       0x1e build/pi_client.o
 .comment       0x000000000000001d       0x1e build/map.o
 .comment       0x000000000000001d       0x1e build/obstacle.o
 .comment       0x000000000000001d       0x1e build/strategy.o
 .comment       0x000000000000001d       0x1e build/gas.o
 .comment       0x000000000000001d       0x1e build/position_client.o
 .comment       0x000000000000001d       0x1e build/z_client.o
 .comment       0x000000000000001d       0x1e build/vl53l0x_api.o
 .comment       0x000000000000001d       0x1e build/vl53l0x_api_calibration.o
 .comment       0x000000000000001d       0x1e build/vl53l0x_api_core.o
 .comment       0x000000000000001d       0x1e build/vl53l0x_platform.o
 .comment       0x000000000000001d       0x1e build/usart.o
 .comment       0x000000000000001d       0x1e build/main.o
 .comment       0x000000000000001d       0x1e build/i2c.o
 .comment       0x000000000000001d       0x1e build/stm32f4xx_hal_msp.o
 .comment       0x000000000000001d       0x1e build/stm32f4xx_hal_cortex.o
 .comment       0x000000000000001d       0x1e build/stm32f4xx_it.o
 .comment       0x000000000000001d       0x1e build/stm32f4xx_hal_tim_ex.o
 .comment       0x000000000000001d       0x1e build/stm32f4xx_hal_rcc.o
 .comment       0x000000000000001d       0x1e build/gpio.o
 .comment       0x000000000000001d       0x1e build/stm32f4xx_hal_gpio.o
 .comment       0x000000000000001d       0x1e build/stm32f4xx_hal_dma.o
 .comment       0x000000000000001d       0x1e build/stm32f4xx_hal_i2c.o
 .comment       0x000000000000001d       0x1e build/stm32f4xx_hal.o
 .comment       0x000000000000001d       0x1e build/stm32f4xx_hal_tim.o
 .comment       0x000000000000001d       0x1e build/dma.o
 .comment       0x000000000000001d       0x1e build/stm32f4xx_ll_usart.o
 .comment       0x000000000000001d       0x1e build/stm32f4xx_ll_rcc.o
 .comment       0x000000000000001d       0x1e build/stm32f4xx_ll_gpio.o
 .comment       0x000000000000001d       0x1e build/tim.o
 .comment       0x000000000000001d       0x1e build/system_stm32f4xx.o

.debug_loc      0x0000000000000000    0x20220
 .debug_loc     0x0000000000000000      0x8ab build/robotronik_protocol.o
 .debug_loc     0x00000000000008ab     0x15ca build/remote_call.o
 .debug_loc     0x0000000000001e75      0x5f2 build/tof.o
 .debug_loc     0x0000000000002467       0xf9 build/system.o
 .debug_loc     0x0000000000002560      0x1f1 build/pi_client.o
 .debug_loc     0x0000000000002751      0x60d build/map.o
 .debug_loc     0x0000000000002d5e      0xe8b build/obstacle.o
 .debug_loc     0x0000000000003be9     0x3407 build/strategy.o
 .debug_loc     0x0000000000006ff0      0x93c build/gas.o
 .debug_loc     0x000000000000792c      0x56b build/position_client.o
 .debug_loc     0x0000000000007e97      0x2cc build/z_client.o
 .debug_loc     0x0000000000008163     0x48ef build/vl53l0x_api.o
 .debug_loc     0x000000000000ca52     0x212a build/vl53l0x_api_calibration.o
 .debug_loc     0x000000000000eb7c     0x3284 build/vl53l0x_api_core.o
 .debug_loc     0x0000000000011e00      0xb0f build/vl53l0x_platform.o
 .debug_loc     0x000000000001290f      0xa17 build/usart.o
 .debug_loc     0x0000000000013326      0x60d build/main.o
 .debug_loc     0x0000000000013933      0x14a build/i2c.o
 .debug_loc     0x0000000000013a7d       0x20 build/stm32f4xx_hal_msp.o
 .debug_loc     0x0000000000013a9d      0x65e build/stm32f4xx_hal_cortex.o
 .debug_loc     0x00000000000140fb      0x51b build/stm32f4xx_it.o
 .debug_loc     0x0000000000014616     0x131e build/stm32f4xx_hal_tim_ex.o
 .debug_loc     0x0000000000015934      0x555 build/stm32f4xx_hal_rcc.o
 .debug_loc     0x0000000000015e89       0x39 build/gpio.o
 .debug_loc     0x0000000000015ec2      0x531 build/stm32f4xx_hal_gpio.o
 .debug_loc     0x00000000000163f3      0xc96 build/stm32f4xx_hal_dma.o
 .debug_loc     0x0000000000017089     0x3c81 build/stm32f4xx_hal_i2c.o
 .debug_loc     0x000000000001ad0a      0x19d build/stm32f4xx_hal.o
 .debug_loc     0x000000000001aea7     0x40cc build/stm32f4xx_hal_tim.o
 .debug_loc     0x000000000001ef73       0xd4 build/dma.o
 .debug_loc     0x000000000001f047      0x4f6 build/stm32f4xx_ll_usart.o
 .debug_loc     0x000000000001f53d      0x47b build/stm32f4xx_ll_rcc.o
 .debug_loc     0x000000000001f9b8      0x4e2 build/stm32f4xx_ll_gpio.o
 .debug_loc     0x000000000001fe9a      0x248 build/tim.o
 .debug_loc     0x00000000000200e2      0x13e build/system_stm32f4xx.o

.debug_ranges   0x0000000000000000     0x1870
 .debug_ranges  0x0000000000000000       0xa0 build/robotronik_protocol.o
 .debug_ranges  0x00000000000000a0      0x128 build/remote_call.o
 .debug_ranges  0x00000000000001c8       0x50 build/tof.o
 .debug_ranges  0x0000000000000218       0x30 build/system.o
 .debug_ranges  0x0000000000000248       0x40 build/pi_client.o
 .debug_ranges  0x0000000000000288       0x48 build/map.o
 .debug_ranges  0x00000000000002d0       0xd8 build/obstacle.o
 .debug_ranges  0x00000000000003a8      0x190 build/strategy.o
 .debug_ranges  0x0000000000000538       0xd0 build/gas.o
 .debug_ranges  0x0000000000000608       0x60 build/position_client.o
 .debug_ranges  0x0000000000000668       0x60 build/z_client.o
 .debug_ranges  0x00000000000006c8      0x320 build/vl53l0x_api.o
 .debug_ranges  0x00000000000009e8       0xc0 build/vl53l0x_api_calibration.o
 .debug_ranges  0x0000000000000aa8       0xd0 build/vl53l0x_api_core.o
 .debug_ranges  0x0000000000000b78       0x68 build/vl53l0x_platform.o
 .debug_ranges  0x0000000000000be0       0x30 build/usart.o
 .debug_ranges  0x0000000000000c10       0x30 build/main.o
 .debug_ranges  0x0000000000000c40       0x28 build/i2c.o
 .debug_ranges  0x0000000000000c68       0x10 build/stm32f4xx_hal_msp.o
 .debug_ranges  0x0000000000000c78       0xf8 build/stm32f4xx_hal_cortex.o
 .debug_ranges  0x0000000000000d70       0xa0 build/stm32f4xx_it.o
 .debug_ranges  0x0000000000000e10      0x130 build/stm32f4xx_hal_tim_ex.o
 .debug_ranges  0x0000000000000f40       0x90 build/stm32f4xx_hal_rcc.o
 .debug_ranges  0x0000000000000fd0       0x10 build/gpio.o
 .debug_ranges  0x0000000000000fe0       0x48 build/stm32f4xx_hal_gpio.o
 .debug_ranges  0x0000000000001028       0x80 build/stm32f4xx_hal_dma.o
 .debug_ranges  0x00000000000010a8      0x258 build/stm32f4xx_hal_i2c.o
 .debug_ranges  0x0000000000001300       0xd0 build/stm32f4xx_hal.o
 .debug_ranges  0x00000000000013d0      0x358 build/stm32f4xx_hal_tim.o
 .debug_ranges  0x0000000000001728       0x10 build/dma.o
 .debug_ranges  0x0000000000001738       0x48 build/stm32f4xx_ll_usart.o
 .debug_ranges  0x0000000000001780       0x68 build/stm32f4xx_ll_rcc.o
 .debug_ranges  0x00000000000017e8       0x20 build/stm32f4xx_ll_gpio.o
 .debug_ranges  0x0000000000001808       0x30 build/tim.o
 .debug_ranges  0x0000000000001838       0x18 build/system_stm32f4xx.o
 .debug_ranges  0x0000000000001850       0x20 build/startup_stm32f401xe.o

.debug_frame    0x0000000000000000     0x5f08
 .debug_frame   0x0000000000000000      0x1e4 build/robotronik_protocol.o
 .debug_frame   0x00000000000001e4      0x254 build/remote_call.o
 .debug_frame   0x0000000000000438      0x12c build/tof.o
 .debug_frame   0x0000000000000564       0x94 build/system.o
 .debug_frame   0x00000000000005f8       0xfc build/pi_client.o
 .debug_frame   0x00000000000006f4       0xcc build/map.o
 .debug_frame   0x00000000000007c0      0x2a0 build/obstacle.o
 .debug_frame   0x0000000000000a60      0x398 build/strategy.o
 .debug_frame   0x0000000000000df8      0x2f8 build/gas.o
 .debug_frame   0x00000000000010f0      0x1b0 build/position_client.o
 .debug_frame   0x00000000000012a0      0x15c build/z_client.o
 .debug_frame   0x00000000000013fc      0xbb0 build/vl53l0x_api.o
 .debug_frame   0x0000000000001fac      0x3a8 build/vl53l0x_api_calibration.o
 .debug_frame   0x0000000000002354      0x390 build/vl53l0x_api_core.o
 .debug_frame   0x00000000000026e4      0x1dc build/vl53l0x_platform.o
 .debug_frame   0x00000000000028c0       0xac build/usart.o
 .debug_frame   0x000000000000296c       0xa0 build/main.o
 .debug_frame   0x0000000000002a0c       0x90 build/i2c.o
 .debug_frame   0x0000000000002a9c       0x2c build/stm32f4xx_hal_msp.o
 .debug_frame   0x0000000000002ac8      0x16c build/stm32f4xx_hal_cortex.o
 .debug_frame   0x0000000000002c34      0x164 build/stm32f4xx_it.o
 .debug_frame   0x0000000000002d98      0x3f0 build/stm32f4xx_hal_tim_ex.o
 .debug_frame   0x0000000000003188      0x1c4 build/stm32f4xx_hal_rcc.o
 .debug_frame   0x000000000000334c       0x40 build/gpio.o
 .debug_frame   0x000000000000338c       0xec build/stm32f4xx_hal_gpio.o
 .debug_frame   0x0000000000003478      0x1b8 build/stm32f4xx_hal_dma.o
 .debug_frame   0x0000000000003630      0x964 build/stm32f4xx_hal_i2c.o
 .debug_frame   0x0000000000003f94      0x1e0 build/stm32f4xx_hal.o
 .debug_frame   0x0000000000004174      0xb1c build/stm32f4xx_hal_tim.o
 .debug_frame   0x0000000000004c90       0x28 build/dma.o
 .debug_frame   0x0000000000004cb8       0x84 build/stm32f4xx_ll_usart.o
 .debug_frame   0x0000000000004d3c      0x10c build/stm32f4xx_ll_rcc.o
 .debug_frame   0x0000000000004e48       0x60 build/stm32f4xx_ll_gpio.o
 .debug_frame   0x0000000000004ea8       0xb8 build/tim.o
 .debug_frame   0x0000000000004f60       0x30 build/system_stm32f4xx.o
 .debug_frame   0x0000000000004f90       0x2c /usr/lib/gcc/arm-none-eabi/7.3.0/../../../../arm-none-eabi/lib/armv7e-m/fpu/libc_nano.a(lib_a-init.o)
 .debug_frame   0x0000000000004fbc       0x28 /usr/lib/gcc/arm-none-eabi/7.3.0/../../../../arm-none-eabi/lib/armv7e-m/fpu/libc_nano.a(lib_a-memcpy-stub.o)
 .debug_frame   0x0000000000004fe4       0x20 /usr/lib/gcc/arm-none-eabi/7.3.0/../../../../arm-none-eabi/lib/armv7e-m/fpu/libc_nano.a(lib_a-memset.o)
 .debug_frame   0x0000000000005004       0x8c /usr/lib/gcc/arm-none-eabi/7.3.0/../../../../arm-none-eabi/lib/armv7e-m/fpu/libc_nano.a(lib_a-nano-vfprintf_float.o)
 .debug_frame   0x0000000000005090       0x60 /usr/lib/gcc/arm-none-eabi/7.3.0/../../../../arm-none-eabi/lib/armv7e-m/fpu/libc_nano.a(lib_a-nano-vfprintf_i.o)
 .debug_frame   0x00000000000050f0       0x20 /usr/lib/gcc/arm-none-eabi/7.3.0/../../../../arm-none-eabi/lib/armv7e-m/fpu/libc_nano.a(lib_a-strcpy.o)
 .debug_frame   0x0000000000005110       0x4c /usr/lib/gcc/arm-none-eabi/7.3.0/../../../../arm-none-eabi/lib/armv7e-m/fpu/libc_nano.a(lib_a-vsnprintf.o)
 .debug_frame   0x000000000000515c       0x70 /usr/lib/gcc/arm-none-eabi/7.3.0/../../../../arm-none-eabi/lib/armv7e-m/fpu/libc_nano.a(lib_a-dtoa.o)
 .debug_frame   0x00000000000051cc       0x40 /usr/lib/gcc/arm-none-eabi/7.3.0/../../../../arm-none-eabi/lib/armv7e-m/fpu/libc_nano.a(lib_a-localeconv.o)
 .debug_frame   0x000000000000520c       0x68 /usr/lib/gcc/arm-none-eabi/7.3.0/../../../../arm-none-eabi/lib/armv7e-m/fpu/libc_nano.a(lib_a-locale.o)
 .debug_frame   0x0000000000005274       0x30 /usr/lib/gcc/arm-none-eabi/7.3.0/../../../../arm-none-eabi/lib/armv7e-m/fpu/libc_nano.a(lib_a-malloc.o)
 .debug_frame   0x00000000000052a4       0x48 /usr/lib/gcc/arm-none-eabi/7.3.0/../../../../arm-none-eabi/lib/armv7e-m/fpu/libc_nano.a(lib_a-mbtowc_r.o)
 .debug_frame   0x00000000000052ec      0x244 /usr/lib/gcc/arm-none-eabi/7.3.0/../../../../arm-none-eabi/lib/armv7e-m/fpu/libc_nano.a(lib_a-mprec.o)
 .debug_frame   0x0000000000005530       0x2c /usr/lib/gcc/arm-none-eabi/7.3.0/../../../../arm-none-eabi/lib/armv7e-m/fpu/libc_nano.a(lib_a-nano-callocr.o)
 .debug_frame   0x000000000000555c       0x38 /usr/lib/gcc/arm-none-eabi/7.3.0/../../../../arm-none-eabi/lib/armv7e-m/fpu/libc_nano.a(lib_a-nano-freer.o)
 .debug_frame   0x0000000000005594       0x2c /usr/lib/gcc/arm-none-eabi/7.3.0/../../../../arm-none-eabi/lib/armv7e-m/fpu/libc_nano.a(lib_a-nano-mallocr.o)
 .debug_frame   0x00000000000055c0       0x90 /usr/lib/gcc/arm-none-eabi/7.3.0/../../../../arm-none-eabi/lib/armv7e-m/fpu/libc_nano.a(lib_a-nano-svfprintf.o)
 .debug_frame   0x0000000000005650       0x2c /usr/lib/gcc/arm-none-eabi/7.3.0/../../../../arm-none-eabi/lib/armv7e-m/fpu/libc_nano.a(lib_a-sbrkr.o)
 .debug_frame   0x000000000000567c       0x3c /usr/lib/gcc/arm-none-eabi/7.3.0/../../../../arm-none-eabi/lib/armv7e-m/fpu/libc_nano.a(lib_a-wctomb_r.o)
 .debug_frame   0x00000000000056b8       0x28 /usr/lib/gcc/arm-none-eabi/7.3.0/../../../../arm-none-eabi/lib/armv7e-m/fpu/libc_nano.a(lib_a-memmove.o)
 .debug_frame   0x00000000000056e0       0x30 /usr/lib/gcc/arm-none-eabi/7.3.0/../../../../arm-none-eabi/lib/armv7e-m/fpu/libc_nano.a(lib_a-mlock.o)
 .debug_frame   0x0000000000005710       0x3c /usr/lib/gcc/arm-none-eabi/7.3.0/../../../../arm-none-eabi/lib/armv7e-m/fpu/libc_nano.a(lib_a-nano-reallocr.o)
 .debug_frame   0x000000000000574c       0x5c /usr/lib/gcc/arm-none-eabi/7.3.0/../../../../arm-none-eabi/lib/armv7e-m/fpu/libc_nano.a(lib_a-reent.o)
 .debug_frame   0x00000000000057a8       0x20 /usr/lib/gcc/arm-none-eabi/7.3.0/../../../../arm-none-eabi/lib/armv7e-m/fpu/libc_nano.a(lib_a-nano-msizer.o)
 .debug_frame   0x00000000000057c8       0x3c /usr/lib/gcc/arm-none-eabi/7.3.0/../../../../arm-none-eabi/lib/armv7e-m/fpu/libm.a(lib_a-s_cos.o)
 .debug_frame   0x0000000000005804       0x3c /usr/lib/gcc/arm-none-eabi/7.3.0/../../../../arm-none-eabi/lib/armv7e-m/fpu/libm.a(lib_a-s_sin.o)
 .debug_frame   0x0000000000005840       0x50 /usr/lib/gcc/arm-none-eabi/7.3.0/../../../../arm-none-eabi/lib/armv7e-m/fpu/libm.a(lib_a-w_pow.o)
 .debug_frame   0x0000000000005890       0x4c /usr/lib/gcc/arm-none-eabi/7.3.0/../../../../arm-none-eabi/lib/armv7e-m/fpu/libm.a(lib_a-w_sqrt.o)
 .debug_frame   0x00000000000058dc       0x68 /usr/lib/gcc/arm-none-eabi/7.3.0/../../../../arm-none-eabi/lib/armv7e-m/fpu/libm.a(lib_a-e_pow.o)
 .debug_frame   0x0000000000005944       0x44 /usr/lib/gcc/arm-none-eabi/7.3.0/../../../../arm-none-eabi/lib/armv7e-m/fpu/libm.a(lib_a-e_rem_pio2.o)
 .debug_frame   0x0000000000005988       0x30 /usr/lib/gcc/arm-none-eabi/7.3.0/../../../../arm-none-eabi/lib/armv7e-m/fpu/libm.a(lib_a-e_sqrt.o)
 .debug_frame   0x00000000000059b8       0x6c /usr/lib/gcc/arm-none-eabi/7.3.0/../../../../arm-none-eabi/lib/armv7e-m/fpu/libm.a(lib_a-k_cos.o)
 .debug_frame   0x0000000000005a24       0x58 /usr/lib/gcc/arm-none-eabi/7.3.0/../../../../arm-none-eabi/lib/armv7e-m/fpu/libm.a(lib_a-k_rem_pio2.o)
 .debug_frame   0x0000000000005a7c       0x68 /usr/lib/gcc/arm-none-eabi/7.3.0/../../../../arm-none-eabi/lib/armv7e-m/fpu/libm.a(lib_a-k_sin.o)
 .debug_frame   0x0000000000005ae4       0x20 /usr/lib/gcc/arm-none-eabi/7.3.0/../../../../arm-none-eabi/lib/armv7e-m/fpu/libm.a(lib_a-s_fabs.o)
 .debug_frame   0x0000000000005b04       0x20 /usr/lib/gcc/arm-none-eabi/7.3.0/../../../../arm-none-eabi/lib/armv7e-m/fpu/libm.a(lib_a-s_finite.o)
 .debug_frame   0x0000000000005b24       0x30 /usr/lib/gcc/arm-none-eabi/7.3.0/../../../../arm-none-eabi/lib/armv7e-m/fpu/libm.a(lib_a-s_floor.o)
 .debug_frame   0x0000000000005b54       0x20 /usr/lib/gcc/arm-none-eabi/7.3.0/../../../../arm-none-eabi/lib/armv7e-m/fpu/libm.a(lib_a-s_matherr.o)
 .debug_frame   0x0000000000005b74       0x20 /usr/lib/gcc/arm-none-eabi/7.3.0/../../../../arm-none-eabi/lib/armv7e-m/fpu/libm.a(lib_a-s_nan.o)
 .debug_frame   0x0000000000005b94       0x38 /usr/lib/gcc/arm-none-eabi/7.3.0/../../../../arm-none-eabi/lib/armv7e-m/fpu/libm.a(lib_a-s_rint.o)
 .debug_frame   0x0000000000005bcc       0x2c /usr/lib/gcc/arm-none-eabi/7.3.0/../../../../arm-none-eabi/lib/armv7e-m/fpu/libm.a(lib_a-s_scalbn.o)
 .debug_frame   0x0000000000005bf8       0x20 /usr/lib/gcc/arm-none-eabi/7.3.0/../../../../arm-none-eabi/lib/armv7e-m/fpu/libm.a(lib_a-s_copysign.o)
 .debug_frame   0x0000000000005c18       0x20 /usr/lib/gcc/arm-none-eabi/7.3.0/../../../../arm-none-eabi/lib/armv7e-m/fpu/libnosys.a(sbrk.o)
 .debug_frame   0x0000000000005c38       0xac /usr/lib/gcc/arm-none-eabi/7.3.0/armv7e-m/fpu/libgcc.a(_arm_addsubdf3.o)
 .debug_frame   0x0000000000005ce4       0x50 /usr/lib/gcc/arm-none-eabi/7.3.0/armv7e-m/fpu/libgcc.a(_arm_muldivdf3.o)
 .debug_frame   0x0000000000005d34       0xc4 /usr/lib/gcc/arm-none-eabi/7.3.0/armv7e-m/fpu/libgcc.a(_arm_cmpdf2.o)
 .debug_frame   0x0000000000005df8       0x20 /usr/lib/gcc/arm-none-eabi/7.3.0/armv7e-m/fpu/libgcc.a(_arm_unorddf2.o)
 .debug_frame   0x0000000000005e18       0x24 /usr/lib/gcc/arm-none-eabi/7.3.0/armv7e-m/fpu/libgcc.a(_arm_fixdfsi.o)
 .debug_frame   0x0000000000005e3c       0x24 /usr/lib/gcc/arm-none-eabi/7.3.0/armv7e-m/fpu/libgcc.a(_arm_fixunsdfsi.o)
 .debug_frame   0x0000000000005e60       0x24 /usr/lib/gcc/arm-none-eabi/7.3.0/armv7e-m/fpu/libgcc.a(_arm_truncdfsf2.o)
 .debug_frame   0x0000000000005e84       0x2c /usr/lib/gcc/arm-none-eabi/7.3.0/armv7e-m/fpu/libgcc.a(_aeabi_uldivmod.o)
 .debug_frame   0x0000000000005eb0       0x38 /usr/lib/gcc/arm-none-eabi/7.3.0/armv7e-m/fpu/libgcc.a(_udivmoddi4.o)
 .debug_frame   0x0000000000005ee8       0x20 /usr/lib/gcc/arm-none-eabi/7.3.0/../../../../arm-none-eabi/lib/armv7e-m/fpu/libc_nano.a(lib_a-errno.o)

Cross Reference Table

Symbol                                            File
ADC_IRQHandler                                    build/startup_stm32f401xe.o
AHBPrescTable                                     build/system_stm32f4xx.o
                                                  build/stm32f4xx_ll_utils.o
                                                  build/stm32f4xx_ll_rcc.o
                                                  build/stm32f4xx_hal_rcc.o
APBPrescTable                                     build/system_stm32f4xx.o
                                                  build/stm32f4xx_ll_rcc.o
                                                  build/stm32f4xx_hal_rcc.o
A_Star                                            build/astar.o
                                                  build/gas.o
Brake                                             build/gas.o
                                                  build/main.o
                                                  build/system.o
Break_Free                                        build/gas.o
Build_Building                                    build/build.o
BusFault_Handler                                  build/startup_stm32f401xe.o
Can_Move                                          build/obstacle.o
                                                  build/gas.o
Can_Rotate                                        build/obstacle.o
                                                  build/gas.o
Cell_From_Pos                                     build/map.o
                                                  build/gas.o
                                                  build/obstacle.o
Compute_Building_Strategy                         build/strategy.o
                                                  build/build.o
DMA1_Stream0_IRQHandler                           build/startup_stm32f401xe.o
DMA1_Stream1_IRQHandler                           build/startup_stm32f401xe.o
DMA1_Stream2_IRQHandler                           build/startup_stm32f401xe.o
DMA1_Stream3_IRQHandler                           build/startup_stm32f401xe.o
DMA1_Stream4_IRQHandler                           build/startup_stm32f401xe.o
DMA1_Stream5_IRQHandler                           build/stm32f4xx_it.o
DMA1_Stream6_IRQHandler                           build/startup_stm32f401xe.o
DMA1_Stream7_IRQHandler                           build/startup_stm32f401xe.o
DMA2_Stream0_IRQHandler                           build/startup_stm32f401xe.o
DMA2_Stream1_IRQHandler                           build/stm32f4xx_it.o
DMA2_Stream2_IRQHandler                           build/stm32f4xx_it.o
DMA2_Stream3_IRQHandler                           build/startup_stm32f401xe.o
DMA2_Stream4_IRQHandler                           build/startup_stm32f401xe.o
DMA2_Stream5_IRQHandler                           build/startup_stm32f401xe.o
DMA2_Stream6_IRQHandler                           build/startup_stm32f401xe.o
DMA2_Stream7_IRQHandler                           build/startup_stm32f401xe.o
DebugMon_Handler                                  build/startup_stm32f401xe.o
DefaultTuningSettings                             build/vl53l0x_api.o
Default_Handler                                   build/startup_stm32f401xe.o
EXTI0_IRQHandler                                  build/startup_stm32f401xe.o
EXTI15_10_IRQHandler                              build/startup_stm32f401xe.o
EXTI1_IRQHandler                                  build/startup_stm32f401xe.o
EXTI2_IRQHandler                                  build/startup_stm32f401xe.o
EXTI3_IRQHandler                                  build/startup_stm32f401xe.o
EXTI4_IRQHandler                                  build/startup_stm32f401xe.o
EXTI9_5_IRQHandler                                build/startup_stm32f401xe.o
FLASH_Erase_Sector                                build/stm32f4xx_hal_flash_ex.o
                                                  build/stm32f4xx_hal_flash.o
FLASH_FlushCaches                                 build/stm32f4xx_hal_flash_ex.o
                                                  build/stm32f4xx_hal_flash.o
FLASH_IRQHandler                                  build/startup_stm32f401xe.o
FLASH_WaitForLastOperation                        build/stm32f4xx_hal_flash.o
                                                  build/stm32f4xx_hal_flash_ex.o
FPU_IRQHandler                                    build/startup_stm32f401xe.o
GOGOGO                                            build/gas.o
                                                  build/build.o
Get_Avoidance_Flexibility                         build/obstacle.o
                                                  build/gas.o
Get_Construction_Score                            build/strategy.o
Get_Cube                                          build/build.o
Get_In_Range_Obstacle_Dist                        build/obstacle.o
                                                  build/gas.o
Go_Straight                                       build/gas.o
                                                  build/build.o
HAL_DBGMCU_DisableDBGSleepMode                    build/stm32f4xx_hal.o
HAL_DBGMCU_DisableDBGStandbyMode                  build/stm32f4xx_hal.o
HAL_DBGMCU_DisableDBGStopMode                     build/stm32f4xx_hal.o
HAL_DBGMCU_EnableDBGSleepMode                     build/stm32f4xx_hal.o
HAL_DBGMCU_EnableDBGStandbyMode                   build/stm32f4xx_hal.o
HAL_DBGMCU_EnableDBGStopMode                      build/stm32f4xx_hal.o
HAL_DMAEx_ChangeMemory                            build/stm32f4xx_hal_dma_ex.o
HAL_DMAEx_MultiBufferStart                        build/stm32f4xx_hal_dma_ex.o
HAL_DMAEx_MultiBufferStart_IT                     build/stm32f4xx_hal_dma_ex.o
HAL_DMA_Abort                                     build/stm32f4xx_hal_dma.o
                                                  build/stm32f4xx_hal_tim.o
HAL_DMA_Abort_IT                                  build/stm32f4xx_hal_dma.o
                                                  build/stm32f4xx_hal_i2c.o
HAL_DMA_DeInit                                    build/stm32f4xx_hal_dma.o
HAL_DMA_GetError                                  build/stm32f4xx_hal_dma.o
                                                  build/stm32f4xx_hal_i2c.o
HAL_DMA_GetState                                  build/stm32f4xx_hal_dma.o
HAL_DMA_IRQHandler                                build/stm32f4xx_hal_dma.o
HAL_DMA_Init                                      build/stm32f4xx_hal_dma.o
HAL_DMA_PollForTransfer                           build/stm32f4xx_hal_dma.o
HAL_DMA_RegisterCallback                          build/stm32f4xx_hal_dma.o
HAL_DMA_Start                                     build/stm32f4xx_hal_dma.o
HAL_DMA_Start_IT                                  build/stm32f4xx_hal_dma.o
                                                  build/stm32f4xx_hal_tim.o
                                                  build/stm32f4xx_hal_i2c.o
                                                  build/stm32f4xx_hal_tim_ex.o
HAL_DMA_UnRegisterCallback                        build/stm32f4xx_hal_dma.o
HAL_DeInit                                        build/stm32f4xx_hal.o
HAL_Delay                                         build/stm32f4xx_hal.o
                                                  build/main.o
                                                  build/vl53l0x_platform.o
                                                  build/z_client.o
                                                  build/gas.o
                                                  build/pi_client.o
                                                  build/system.o
HAL_DisableCompensationCell                       build/stm32f4xx_hal.o
HAL_EnableCompensationCell                        build/stm32f4xx_hal.o
HAL_FLASHEx_AdvOBGetConfig                        build/stm32f4xx_hal_flash_ex.o
HAL_FLASHEx_AdvOBProgram                          build/stm32f4xx_hal_flash_ex.o
HAL_FLASHEx_Erase                                 build/stm32f4xx_hal_flash_ex.o
HAL_FLASHEx_Erase_IT                              build/stm32f4xx_hal_flash_ex.o
HAL_FLASHEx_OBGetConfig                           build/stm32f4xx_hal_flash_ex.o
HAL_FLASHEx_OBProgram                             build/stm32f4xx_hal_flash_ex.o
HAL_FLASHEx_OB_DeSelectPCROP                      build/stm32f4xx_hal_flash_ex.o
HAL_FLASHEx_OB_SelectPCROP                        build/stm32f4xx_hal_flash_ex.o
HAL_FLASH_EndOfOperationCallback                  build/stm32f4xx_hal_flash.o
HAL_FLASH_GetError                                build/stm32f4xx_hal_flash.o
HAL_FLASH_IRQHandler                              build/stm32f4xx_hal_flash.o
HAL_FLASH_Lock                                    build/stm32f4xx_hal_flash.o
HAL_FLASH_OB_Launch                               build/stm32f4xx_hal_flash.o
HAL_FLASH_OB_Lock                                 build/stm32f4xx_hal_flash.o
HAL_FLASH_OB_Unlock                               build/stm32f4xx_hal_flash.o
HAL_FLASH_OperationErrorCallback                  build/stm32f4xx_hal_flash.o
HAL_FLASH_Program                                 build/stm32f4xx_hal_flash.o
HAL_FLASH_Program_IT                              build/stm32f4xx_hal_flash.o
HAL_FLASH_Unlock                                  build/stm32f4xx_hal_flash.o
HAL_GPIO_DeInit                                   build/stm32f4xx_hal_gpio.o
                                                  build/i2c.o
HAL_GPIO_EXTI_Callback                            build/stm32f4xx_hal_gpio.o
HAL_GPIO_EXTI_IRQHandler                          build/stm32f4xx_hal_gpio.o
HAL_GPIO_Init                                     build/stm32f4xx_hal_gpio.o
                                                  build/gpio.o
                                                  build/stm32f4xx_hal_rcc.o
                                                  build/i2c.o
                                                  build/main.o
HAL_GPIO_LockPin                                  build/stm32f4xx_hal_gpio.o
HAL_GPIO_ReadPin                                  build/stm32f4xx_hal_gpio.o
                                                  build/system.o
HAL_GPIO_TogglePin                                build/stm32f4xx_hal_gpio.o
HAL_GPIO_WritePin                                 build/stm32f4xx_hal_gpio.o
                                                  build/gpio.o
                                                  build/system.o
HAL_GetDEVID                                      build/stm32f4xx_hal.o
HAL_GetHalVersion                                 build/stm32f4xx_hal.o
HAL_GetREVID                                      build/stm32f4xx_hal.o
HAL_GetTick                                       build/stm32f4xx_hal.o
                                                  build/stm32f4xx_hal_i2c.o
                                                  build/stm32f4xx_hal_dma.o
                                                  build/stm32f4xx_hal_rcc_ex.o
                                                  build/stm32f4xx_hal_rcc.o
                                                  build/stm32f4xx_hal_pwr_ex.o
                                                  build/main.o
                                                  build/stm32f4xx_hal_flash.o
                                                  build/obstacle.o
HAL_GetTickFreq                                   build/stm32f4xx_hal.o
HAL_GetTickPrio                                   build/stm32f4xx_hal.o
HAL_GetUID                                        build/stm32f4xx_hal.o
HAL_I2CEx_ConfigAnalogFilter                      build/stm32f4xx_hal_i2c_ex.o
HAL_I2CEx_ConfigDigitalFilter                     build/stm32f4xx_hal_i2c_ex.o
HAL_I2C_AbortCpltCallback                         build/stm32f4xx_hal_i2c.o
HAL_I2C_AddrCallback                              build/stm32f4xx_hal_i2c.o
HAL_I2C_DeInit                                    build/stm32f4xx_hal_i2c.o
HAL_I2C_DisableListen_IT                          build/stm32f4xx_hal_i2c.o
HAL_I2C_ER_IRQHandler                             build/stm32f4xx_hal_i2c.o
HAL_I2C_EV_IRQHandler                             build/stm32f4xx_hal_i2c.o
                                                  build/stm32f4xx_it.o
HAL_I2C_EnableListen_IT                           build/stm32f4xx_hal_i2c.o
HAL_I2C_ErrorCallback                             build/stm32f4xx_hal_i2c.o
HAL_I2C_GetError                                  build/stm32f4xx_hal_i2c.o
HAL_I2C_GetMode                                   build/stm32f4xx_hal_i2c.o
HAL_I2C_GetState                                  build/stm32f4xx_hal_i2c.o
HAL_I2C_Init                                      build/stm32f4xx_hal_i2c.o
                                                  build/i2c.o
HAL_I2C_IsDeviceReady                             build/stm32f4xx_hal_i2c.o
HAL_I2C_ListenCpltCallback                        build/stm32f4xx_hal_i2c.o
HAL_I2C_MasterRxCpltCallback                      build/stm32f4xx_hal_i2c.o
HAL_I2C_MasterTxCpltCallback                      build/stm32f4xx_hal_i2c.o
HAL_I2C_Master_Abort_IT                           build/stm32f4xx_hal_i2c.o
HAL_I2C_Master_Receive                            build/stm32f4xx_hal_i2c.o
                                                  build/vl53l0x_platform.o
HAL_I2C_Master_Receive_DMA                        build/stm32f4xx_hal_i2c.o
HAL_I2C_Master_Receive_IT                         build/stm32f4xx_hal_i2c.o
HAL_I2C_Master_Sequential_Receive_IT              build/stm32f4xx_hal_i2c.o
HAL_I2C_Master_Sequential_Transmit_IT             build/stm32f4xx_hal_i2c.o
HAL_I2C_Master_Transmit                           build/stm32f4xx_hal_i2c.o
                                                  build/vl53l0x_platform.o
HAL_I2C_Master_Transmit_DMA                       build/stm32f4xx_hal_i2c.o
HAL_I2C_Master_Transmit_IT                        build/stm32f4xx_hal_i2c.o
HAL_I2C_MemRxCpltCallback                         build/stm32f4xx_hal_i2c.o
HAL_I2C_MemTxCpltCallback                         build/stm32f4xx_hal_i2c.o
HAL_I2C_Mem_Read                                  build/stm32f4xx_hal_i2c.o
HAL_I2C_Mem_Read_DMA                              build/stm32f4xx_hal_i2c.o
HAL_I2C_Mem_Read_IT                               build/stm32f4xx_hal_i2c.o
HAL_I2C_Mem_Write                                 build/stm32f4xx_hal_i2c.o
HAL_I2C_Mem_Write_DMA                             build/stm32f4xx_hal_i2c.o
HAL_I2C_Mem_Write_IT                              build/stm32f4xx_hal_i2c.o
HAL_I2C_MspDeInit                                 build/i2c.o
HAL_I2C_MspInit                                   build/i2c.o
HAL_I2C_SlaveRxCpltCallback                       build/stm32f4xx_hal_i2c.o
HAL_I2C_SlaveTxCpltCallback                       build/stm32f4xx_hal_i2c.o
HAL_I2C_Slave_Receive                             build/stm32f4xx_hal_i2c.o
HAL_I2C_Slave_Receive_DMA                         build/stm32f4xx_hal_i2c.o
HAL_I2C_Slave_Receive_IT                          build/stm32f4xx_hal_i2c.o
HAL_I2C_Slave_Sequential_Receive_IT               build/stm32f4xx_hal_i2c.o
HAL_I2C_Slave_Sequential_Transmit_IT              build/stm32f4xx_hal_i2c.o
HAL_I2C_Slave_Transmit                            build/stm32f4xx_hal_i2c.o
HAL_I2C_Slave_Transmit_DMA                        build/stm32f4xx_hal_i2c.o
HAL_I2C_Slave_Transmit_IT                         build/stm32f4xx_hal_i2c.o
HAL_IncTick                                       build/stm32f4xx_hal.o
                                                  build/stm32f4xx_it.o
HAL_Init                                          build/stm32f4xx_hal.o
                                                  build/main.o
HAL_InitTick                                      build/stm32f4xx_hal.o
                                                  build/stm32f4xx_hal_rcc_ex.o
                                                  build/stm32f4xx_hal_rcc.o
HAL_MPU_ConfigRegion                              build/stm32f4xx_hal_cortex.o
HAL_MPU_Disable                                   build/stm32f4xx_hal_cortex.o
HAL_MPU_Enable                                    build/stm32f4xx_hal_cortex.o
HAL_MspDeInit                                     build/stm32f4xx_hal.o
HAL_MspInit                                       build/stm32f4xx_hal_msp.o
HAL_NVIC_ClearPendingIRQ                          build/stm32f4xx_hal_cortex.o
HAL_NVIC_DisableIRQ                               build/stm32f4xx_hal_cortex.o
                                                  build/tim.o
                                                  build/i2c.o
HAL_NVIC_EnableIRQ                                build/stm32f4xx_hal_cortex.o
                                                  build/tim.o
                                                  build/i2c.o
HAL_NVIC_GetActive                                build/stm32f4xx_hal_cortex.o
HAL_NVIC_GetPendingIRQ                            build/stm32f4xx_hal_cortex.o
HAL_NVIC_GetPriority                              build/stm32f4xx_hal_cortex.o
HAL_NVIC_GetPriorityGrouping                      build/stm32f4xx_hal_cortex.o
HAL_NVIC_SetPendingIRQ                            build/stm32f4xx_hal_cortex.o
HAL_NVIC_SetPriority                              build/stm32f4xx_hal_cortex.o
                                                  build/tim.o
                                                  build/stm32f4xx_hal.o
                                                  build/stm32f4xx_hal_msp.o
                                                  build/i2c.o
                                                  build/main.o
HAL_NVIC_SetPriorityGrouping                      build/stm32f4xx_hal_cortex.o
                                                  build/stm32f4xx_hal.o
                                                  build/stm32f4xx_hal_msp.o
HAL_NVIC_SystemReset                              build/stm32f4xx_hal_cortex.o
                                                  build/system.o
HAL_PWREx_ControlVoltageScaling                   build/stm32f4xx_hal_pwr_ex.o
HAL_PWREx_DisableBkUpReg                          build/stm32f4xx_hal_pwr_ex.o
HAL_PWREx_DisableFlashPowerDown                   build/stm32f4xx_hal_pwr_ex.o
HAL_PWREx_DisableLowRegulatorLowVoltage           build/stm32f4xx_hal_pwr_ex.o
HAL_PWREx_DisableMainRegulatorLowVoltage          build/stm32f4xx_hal_pwr_ex.o
HAL_PWREx_EnableBkUpReg                           build/stm32f4xx_hal_pwr_ex.o
HAL_PWREx_EnableFlashPowerDown                    build/stm32f4xx_hal_pwr_ex.o
HAL_PWREx_EnableLowRegulatorLowVoltage            build/stm32f4xx_hal_pwr_ex.o
HAL_PWREx_EnableMainRegulatorLowVoltage           build/stm32f4xx_hal_pwr_ex.o
HAL_PWREx_GetVoltageRange                         build/stm32f4xx_hal_pwr_ex.o
HAL_PWR_ConfigPVD                                 build/stm32f4xx_hal_pwr.o
HAL_PWR_DeInit                                    build/stm32f4xx_hal_pwr.o
HAL_PWR_DisableBkUpAccess                         build/stm32f4xx_hal_pwr.o
HAL_PWR_DisablePVD                                build/stm32f4xx_hal_pwr.o
HAL_PWR_DisableSEVOnPend                          build/stm32f4xx_hal_pwr.o
HAL_PWR_DisableSleepOnExit                        build/stm32f4xx_hal_pwr.o
HAL_PWR_DisableWakeUpPin                          build/stm32f4xx_hal_pwr.o
HAL_PWR_EnableBkUpAccess                          build/stm32f4xx_hal_pwr.o
HAL_PWR_EnablePVD                                 build/stm32f4xx_hal_pwr.o
HAL_PWR_EnableSEVOnPend                           build/stm32f4xx_hal_pwr.o
HAL_PWR_EnableSleepOnExit                         build/stm32f4xx_hal_pwr.o
HAL_PWR_EnableWakeUpPin                           build/stm32f4xx_hal_pwr.o
HAL_PWR_EnterSLEEPMode                            build/stm32f4xx_hal_pwr.o
HAL_PWR_EnterSTANDBYMode                          build/stm32f4xx_hal_pwr.o
HAL_PWR_EnterSTOPMode                             build/stm32f4xx_hal_pwr.o
HAL_PWR_PVDCallback                               build/stm32f4xx_hal_pwr.o
HAL_PWR_PVD_IRQHandler                            build/stm32f4xx_hal_pwr.o
HAL_RCCEx_DisablePLLI2S                           build/stm32f4xx_hal_rcc_ex.o
HAL_RCCEx_EnablePLLI2S                            build/stm32f4xx_hal_rcc_ex.o
HAL_RCCEx_GetPeriphCLKConfig                      build/stm32f4xx_hal_rcc_ex.o
HAL_RCCEx_GetPeriphCLKFreq                        build/stm32f4xx_hal_rcc_ex.o
HAL_RCCEx_PeriphCLKConfig                         build/stm32f4xx_hal_rcc_ex.o
HAL_RCC_CSSCallback                               build/stm32f4xx_hal_rcc.o
HAL_RCC_ClockConfig                               build/stm32f4xx_hal_rcc.o
                                                  build/main.o
HAL_RCC_DeInit                                    build/stm32f4xx_hal_rcc_ex.o
                                                  build/stm32f4xx_hal_rcc.o
HAL_RCC_DisableCSS                                build/stm32f4xx_hal_rcc.o
HAL_RCC_EnableCSS                                 build/stm32f4xx_hal_rcc.o
HAL_RCC_GetClockConfig                            build/stm32f4xx_hal_rcc.o
HAL_RCC_GetHCLKFreq                               build/stm32f4xx_hal_rcc.o
                                                  build/main.o
HAL_RCC_GetOscConfig                              build/stm32f4xx_hal_rcc.o
HAL_RCC_GetPCLK1Freq                              build/stm32f4xx_hal_rcc.o
                                                  build/stm32f4xx_hal_i2c.o
HAL_RCC_GetPCLK2Freq                              build/stm32f4xx_hal_rcc.o
HAL_RCC_GetSysClockFreq                           build/stm32f4xx_hal_rcc.o
HAL_RCC_MCOConfig                                 build/stm32f4xx_hal_rcc.o
HAL_RCC_NMI_IRQHandler                            build/stm32f4xx_hal_rcc.o
HAL_RCC_OscConfig                                 build/stm32f4xx_hal_rcc.o
                                                  build/main.o
HAL_ResumeTick                                    build/stm32f4xx_hal.o
HAL_SYSTICK_CLKSourceConfig                       build/stm32f4xx_hal_cortex.o
                                                  build/main.o
HAL_SYSTICK_Callback                              build/stm32f4xx_hal_cortex.o
HAL_SYSTICK_Config                                build/stm32f4xx_hal_cortex.o
                                                  build/stm32f4xx_hal.o
                                                  build/main.o
HAL_SYSTICK_IRQHandler                            build/stm32f4xx_hal_cortex.o
                                                  build/stm32f4xx_it.o
HAL_SetTickFreq                                   build/stm32f4xx_hal.o
HAL_SuspendTick                                   build/stm32f4xx_hal.o
HAL_TIMEx_BreakCallback                           build/stm32f4xx_hal_tim_ex.o
                                                  build/stm32f4xx_hal_tim.o
HAL_TIMEx_CommutationCallback                     build/stm32f4xx_hal_tim_ex.o
                                                  build/stm32f4xx_hal_tim.o
HAL_TIMEx_ConfigBreakDeadTime                     build/stm32f4xx_hal_tim_ex.o
HAL_TIMEx_ConfigCommutationEvent                  build/stm32f4xx_hal_tim_ex.o
HAL_TIMEx_ConfigCommutationEvent_DMA              build/stm32f4xx_hal_tim_ex.o
HAL_TIMEx_ConfigCommutationEvent_IT               build/stm32f4xx_hal_tim_ex.o
HAL_TIMEx_HallSensor_DeInit                       build/stm32f4xx_hal_tim_ex.o
HAL_TIMEx_HallSensor_GetState                     build/stm32f4xx_hal_tim_ex.o
HAL_TIMEx_HallSensor_Init                         build/stm32f4xx_hal_tim_ex.o
HAL_TIMEx_HallSensor_MspDeInit                    build/stm32f4xx_hal_tim_ex.o
HAL_TIMEx_HallSensor_MspInit                      build/stm32f4xx_hal_tim_ex.o
HAL_TIMEx_HallSensor_Start                        build/stm32f4xx_hal_tim_ex.o
HAL_TIMEx_HallSensor_Start_DMA                    build/stm32f4xx_hal_tim_ex.o
HAL_TIMEx_HallSensor_Start_IT                     build/stm32f4xx_hal_tim_ex.o
HAL_TIMEx_HallSensor_Stop                         build/stm32f4xx_hal_tim_ex.o
HAL_TIMEx_HallSensor_Stop_DMA                     build/stm32f4xx_hal_tim_ex.o
HAL_TIMEx_HallSensor_Stop_IT                      build/stm32f4xx_hal_tim_ex.o
HAL_TIMEx_MasterConfigSynchronization             build/stm32f4xx_hal_tim_ex.o
                                                  build/tim.o
HAL_TIMEx_OCN_Start                               build/stm32f4xx_hal_tim_ex.o
HAL_TIMEx_OCN_Start_DMA                           build/stm32f4xx_hal_tim_ex.o
HAL_TIMEx_OCN_Start_IT                            build/stm32f4xx_hal_tim_ex.o
HAL_TIMEx_OCN_Stop                                build/stm32f4xx_hal_tim_ex.o
HAL_TIMEx_OCN_Stop_DMA                            build/stm32f4xx_hal_tim_ex.o
HAL_TIMEx_OCN_Stop_IT                             build/stm32f4xx_hal_tim_ex.o
HAL_TIMEx_OnePulseN_Start                         build/stm32f4xx_hal_tim_ex.o
HAL_TIMEx_OnePulseN_Start_IT                      build/stm32f4xx_hal_tim_ex.o
HAL_TIMEx_OnePulseN_Stop                          build/stm32f4xx_hal_tim_ex.o
HAL_TIMEx_OnePulseN_Stop_IT                       build/stm32f4xx_hal_tim_ex.o
HAL_TIMEx_PWMN_Start                              build/stm32f4xx_hal_tim_ex.o
HAL_TIMEx_PWMN_Start_DMA                          build/stm32f4xx_hal_tim_ex.o
HAL_TIMEx_PWMN_Start_IT                           build/stm32f4xx_hal_tim_ex.o
HAL_TIMEx_PWMN_Stop                               build/stm32f4xx_hal_tim_ex.o
HAL_TIMEx_PWMN_Stop_DMA                           build/stm32f4xx_hal_tim_ex.o
HAL_TIMEx_PWMN_Stop_IT                            build/stm32f4xx_hal_tim_ex.o
HAL_TIMEx_RemapConfig                             build/stm32f4xx_hal_tim_ex.o
HAL_TIM_Base_DeInit                               build/stm32f4xx_hal_tim.o
HAL_TIM_Base_GetState                             build/stm32f4xx_hal_tim.o
HAL_TIM_Base_Init                                 build/stm32f4xx_hal_tim.o
                                                  build/tim.o
HAL_TIM_Base_MspDeInit                            build/tim.o
                                                  build/stm32f4xx_hal_tim.o
HAL_TIM_Base_MspInit                              build/tim.o
                                                  build/stm32f4xx_hal_tim.o
HAL_TIM_Base_Start                                build/stm32f4xx_hal_tim.o
HAL_TIM_Base_Start_DMA                            build/stm32f4xx_hal_tim.o
HAL_TIM_Base_Start_IT                             build/stm32f4xx_hal_tim.o
                                                  build/system.o
HAL_TIM_Base_Stop                                 build/stm32f4xx_hal_tim.o
HAL_TIM_Base_Stop_DMA                             build/stm32f4xx_hal_tim.o
HAL_TIM_Base_Stop_IT                              build/stm32f4xx_hal_tim.o
                                                  build/system.o
HAL_TIM_ConfigClockSource                         build/stm32f4xx_hal_tim.o
                                                  build/tim.o
HAL_TIM_ConfigOCrefClear                          build/stm32f4xx_hal_tim.o
HAL_TIM_ConfigTI1Input                            build/stm32f4xx_hal_tim.o
HAL_TIM_DMABurst_ReadStart                        build/stm32f4xx_hal_tim.o
HAL_TIM_DMABurst_ReadStop                         build/stm32f4xx_hal_tim.o
HAL_TIM_DMABurst_WriteStart                       build/stm32f4xx_hal_tim.o
HAL_TIM_DMABurst_WriteStop                        build/stm32f4xx_hal_tim.o
HAL_TIM_Encoder_DeInit                            build/stm32f4xx_hal_tim.o
HAL_TIM_Encoder_GetState                          build/stm32f4xx_hal_tim.o
HAL_TIM_Encoder_Init                              build/stm32f4xx_hal_tim.o
HAL_TIM_Encoder_MspDeInit                         build/stm32f4xx_hal_tim.o
HAL_TIM_Encoder_MspInit                           build/stm32f4xx_hal_tim.o
HAL_TIM_Encoder_Start                             build/stm32f4xx_hal_tim.o
HAL_TIM_Encoder_Start_DMA                         build/stm32f4xx_hal_tim.o
HAL_TIM_Encoder_Start_IT                          build/stm32f4xx_hal_tim.o
HAL_TIM_Encoder_Stop                              build/stm32f4xx_hal_tim.o
HAL_TIM_Encoder_Stop_DMA                          build/stm32f4xx_hal_tim.o
HAL_TIM_Encoder_Stop_IT                           build/stm32f4xx_hal_tim.o
HAL_TIM_ErrorCallback                             build/stm32f4xx_hal_tim.o
HAL_TIM_GenerateEvent                             build/stm32f4xx_hal_tim.o
HAL_TIM_IC_CaptureCallback                        build/stm32f4xx_hal_tim.o
HAL_TIM_IC_ConfigChannel                          build/stm32f4xx_hal_tim.o
HAL_TIM_IC_DeInit                                 build/stm32f4xx_hal_tim.o
HAL_TIM_IC_GetState                               build/stm32f4xx_hal_tim.o
HAL_TIM_IC_Init                                   build/stm32f4xx_hal_tim.o
HAL_TIM_IC_MspDeInit                              build/stm32f4xx_hal_tim.o
HAL_TIM_IC_MspInit                                build/stm32f4xx_hal_tim.o
HAL_TIM_IC_Start                                  build/stm32f4xx_hal_tim.o
HAL_TIM_IC_Start_DMA                              build/stm32f4xx_hal_tim.o
HAL_TIM_IC_Start_IT                               build/stm32f4xx_hal_tim.o
HAL_TIM_IC_Stop                                   build/stm32f4xx_hal_tim.o
HAL_TIM_IC_Stop_DMA                               build/stm32f4xx_hal_tim.o
HAL_TIM_IC_Stop_IT                                build/stm32f4xx_hal_tim.o
HAL_TIM_IRQHandler                                build/stm32f4xx_hal_tim.o
                                                  build/stm32f4xx_it.o
HAL_TIM_OC_ConfigChannel                          build/stm32f4xx_hal_tim.o
HAL_TIM_OC_DeInit                                 build/stm32f4xx_hal_tim.o
HAL_TIM_OC_DelayElapsedCallback                   build/stm32f4xx_hal_tim.o
HAL_TIM_OC_GetState                               build/stm32f4xx_hal_tim.o
HAL_TIM_OC_Init                                   build/stm32f4xx_hal_tim.o
HAL_TIM_OC_MspDeInit                              build/stm32f4xx_hal_tim.o
HAL_TIM_OC_MspInit                                build/stm32f4xx_hal_tim.o
HAL_TIM_OC_Start                                  build/stm32f4xx_hal_tim.o
HAL_TIM_OC_Start_DMA                              build/stm32f4xx_hal_tim.o
HAL_TIM_OC_Start_IT                               build/stm32f4xx_hal_tim.o
HAL_TIM_OC_Stop                                   build/stm32f4xx_hal_tim.o
HAL_TIM_OC_Stop_DMA                               build/stm32f4xx_hal_tim.o
HAL_TIM_OC_Stop_IT                                build/stm32f4xx_hal_tim.o
HAL_TIM_OnePulse_ConfigChannel                    build/stm32f4xx_hal_tim.o
HAL_TIM_OnePulse_DeInit                           build/stm32f4xx_hal_tim.o
HAL_TIM_OnePulse_GetState                         build/stm32f4xx_hal_tim.o
HAL_TIM_OnePulse_Init                             build/stm32f4xx_hal_tim.o
HAL_TIM_OnePulse_MspDeInit                        build/stm32f4xx_hal_tim.o
HAL_TIM_OnePulse_MspInit                          build/stm32f4xx_hal_tim.o
HAL_TIM_OnePulse_Start                            build/stm32f4xx_hal_tim.o
HAL_TIM_OnePulse_Start_IT                         build/stm32f4xx_hal_tim.o
HAL_TIM_OnePulse_Stop                             build/stm32f4xx_hal_tim.o
HAL_TIM_OnePulse_Stop_IT                          build/stm32f4xx_hal_tim.o
HAL_TIM_PWM_ConfigChannel                         build/stm32f4xx_hal_tim.o
HAL_TIM_PWM_DeInit                                build/stm32f4xx_hal_tim.o
HAL_TIM_PWM_GetState                              build/stm32f4xx_hal_tim.o
HAL_TIM_PWM_Init                                  build/stm32f4xx_hal_tim.o
HAL_TIM_PWM_MspDeInit                             build/stm32f4xx_hal_tim.o
HAL_TIM_PWM_MspInit                               build/stm32f4xx_hal_tim.o
HAL_TIM_PWM_PulseFinishedCallback                 build/stm32f4xx_hal_tim.o
HAL_TIM_PWM_Start                                 build/stm32f4xx_hal_tim.o
HAL_TIM_PWM_Start_DMA                             build/stm32f4xx_hal_tim.o
HAL_TIM_PWM_Start_IT                              build/stm32f4xx_hal_tim.o
HAL_TIM_PWM_Stop                                  build/stm32f4xx_hal_tim.o
HAL_TIM_PWM_Stop_DMA                              build/stm32f4xx_hal_tim.o
HAL_TIM_PWM_Stop_IT                               build/stm32f4xx_hal_tim.o
HAL_TIM_PeriodElapsedCallback                     build/tim.o
                                                  build/stm32f4xx_hal_tim.o
HAL_TIM_ReadCapturedValue                         build/stm32f4xx_hal_tim.o
HAL_TIM_SlaveConfigSynchronization                build/stm32f4xx_hal_tim.o
HAL_TIM_SlaveConfigSynchronization_IT             build/stm32f4xx_hal_tim.o
HAL_TIM_TriggerCallback                           build/stm32f4xx_hal_tim.o
HardFault_Handler                                 build/main.o
I2C1_ER_IRQHandler                                build/startup_stm32f401xe.o
I2C1_EV_IRQHandler                                build/startup_stm32f401xe.o
I2C2_ER_IRQHandler                                build/startup_stm32f401xe.o
I2C2_EV_IRQHandler                                build/startup_stm32f401xe.o
I2C3_ER_IRQHandler                                build/startup_stm32f401xe.o
I2C3_EV_IRQHandler                                build/stm32f4xx_it.o
Init_Construction                                 build/strategy.o
Init_Map                                          build/map.o
                                                  build/strategy.o
Init_Strategy                                     build/strategy.o
                                                  build/main.o
InterruptThresholdSettings                        build/vl53l0x_api.o
John_The_Builder                                  build/strategy.o
LL_DMA_DeInit                                     build/stm32f4xx_ll_dma.o
LL_DMA_Init                                       build/stm32f4xx_ll_dma.o
LL_DMA_StructInit                                 build/stm32f4xx_ll_dma.o
LL_EXTI_DeInit                                    build/stm32f4xx_ll_exti.o
LL_EXTI_Init                                      build/stm32f4xx_ll_exti.o
LL_EXTI_StructInit                                build/stm32f4xx_ll_exti.o
LL_GPIO_DeInit                                    build/stm32f4xx_ll_gpio.o
LL_GPIO_Init                                      build/stm32f4xx_ll_gpio.o
                                                  build/usart.o
LL_GPIO_StructInit                                build/stm32f4xx_ll_gpio.o
LL_Init1msTick                                    build/stm32f4xx_ll_utils.o
LL_PLL_ConfigSystemClock_HSE                      build/stm32f4xx_ll_utils.o
LL_PLL_ConfigSystemClock_HSI                      build/stm32f4xx_ll_utils.o
LL_RCC_DeInit                                     build/stm32f4xx_ll_rcc.o
LL_RCC_GetI2SClockFreq                            build/stm32f4xx_ll_rcc.o
LL_RCC_GetSDIOClockFreq                           build/stm32f4xx_ll_rcc.o
LL_RCC_GetSystemClocksFreq                        build/stm32f4xx_ll_rcc.o
                                                  build/stm32f4xx_ll_usart.o
LL_RCC_GetUSBClockFreq                            build/stm32f4xx_ll_rcc.o
LL_SetSystemCoreClock                             build/stm32f4xx_ll_utils.o
LL_USART_ClockInit                                build/stm32f4xx_ll_usart.o
LL_USART_ClockStructInit                          build/stm32f4xx_ll_usart.o
LL_USART_DeInit                                   build/stm32f4xx_ll_usart.o
LL_USART_Init                                     build/stm32f4xx_ll_usart.o
                                                  build/usart.o
LL_USART_StructInit                               build/stm32f4xx_ll_usart.o
LL_mDelay                                         build/stm32f4xx_ll_utils.o
MX_DMA_Init                                       build/dma.o
                                                  build/main.o
MX_GPIO_Init                                      build/gpio.o
                                                  build/main.o
MX_I2C1_Init                                      build/i2c.o
                                                  build/main.o
MX_I2C3_Init                                      build/i2c.o
                                                  build/main.o
MX_TIM2_Init                                      build/tim.o
                                                  build/main.o
MX_TIM3_Init                                      build/tim.o
                                                  build/main.o
MX_USART1_UART_Init                               build/usart.o
                                                  build/main.o
MX_USART2_UART_Init                               build/usart.o
                                                  build/main.o
MX_USART6_UART_Init                               build/usart.o
                                                  build/main.o
Materialize_Obstacle                              build/obstacle.o
Materialize_Obstacles                             build/obstacle.o
                                                  build/gas.o
MemManage_Handler                                 build/startup_stm32f401xe.o
NMI_Handler                                       build/startup_stm32f401xe.o
OTG_FS_IRQHandler                                 build/startup_stm32f401xe.o
OTG_FS_WKUP_IRQHandler                            build/startup_stm32f401xe.o
PI_Error                                          build/pi_client.o
                                                  build/main.o
PI_Init                                           build/pi_client.o
                                                  build/main.o
PI_Log                                            build/pi_client.o
                                                  build/main.o
                                                  build/vl53l0x_api_core.o
                                                  build/z_client.o
                                                  build/gas.o
                                                  build/obstacle.o
                                                  build/system.o
PI_Plan                                           build/pi_client.o
PI_Score                                          build/pi_client.o
PI_Start                                          build/pi_client.o
                                                  build/main.o
PI_Stop                                           build/pi_client.o
                                                  build/system.o
PVD_IRQHandler                                    build/startup_stm32f401xe.o
PendSV_Handler                                    build/startup_stm32f401xe.o
Place_Building                                    build/build.o
Pos_Brake                                         build/position_client.o
                                                  build/gas.o
Pos_Config_Curve                                  build/position_client.o
                                                  build/gas.o
Pos_Get_Position                                  build/position_client.o
                                                  build/main.o
Pos_Get_State                                     build/position_client.o
                                                  build/gas.o
Pos_Go_Forward                                    build/position_client.o
                                                  build/gas.o
Pos_Init_Position                                 build/position_client.o
Pos_Reset                                         build/position_client.o
                                                  build/main.o
Pos_Send_Path                                     build/position_client.o
                                                  build/gas.o
Pos_Set_Angle                                     build/position_client.o
                                                  build/gas.o
Position_Init                                     build/position_client.o
                                                  build/main.o
Position_Init_Odometry                            build/position_client.o
                                                  build/main.o
Print_Obstacles                                   build/obstacle.o
Print_ToF                                         build/system.o
RCC_GetHCLKClockFreq                              build/stm32f4xx_ll_rcc.o
RCC_GetPCLK1ClockFreq                             build/stm32f4xx_ll_rcc.o
RCC_GetPCLK2ClockFreq                             build/stm32f4xx_ll_rcc.o
RCC_GetSystemClockFreq                            build/stm32f4xx_ll_rcc.o
RCC_IRQHandler                                    build/startup_stm32f401xe.o
RCC_PLLI2S_GetFreqDomain_I2S                      build/stm32f4xx_ll_rcc.o
RCC_PLL_GetFreqDomain_48M                         build/stm32f4xx_ll_rcc.o
RCC_PLL_GetFreqDomain_SYS                         build/stm32f4xx_ll_rcc.o
RC_Call                                           build/remote_call.o
                                                  build/z_client.o
                                                  build/position_client.o
                                                  build/pi_client.o
RC_Client_Add_Function                            build/remote_call.o
                                                  build/z_client.o
                                                  build/position_client.o
                                                  build/pi_client.o
RC_Client_Init                                    build/remote_call.o
                                                  build/z_client.o
                                                  build/position_client.o
                                                  build/pi_client.o
RC_Get_Error                                      build/remote_call.o
RC_Server_Add_Function                            build/remote_call.o
RC_Server_Get_Args                                build/remote_call.o
RC_Server_Get_Request                             build/remote_call.o
RC_Server_Init                                    build/remote_call.o
RC_Server_Poll                                    build/remote_call.o
RC_Server_Return                                  build/remote_call.o
RP_Build_Frame                                    build/robotronik_protocol.o
RP_Error_Handler                                  build/robotronik_protocol.o
RP_Get_Error                                      build/robotronik_protocol.o
RP_Init_Interface                                 build/robotronik_protocol.o
                                                  build/main.o
RP_Packet_Received                                build/usart.o
                                                  build/robotronik_protocol.o
RP_Process_Data                                   build/robotronik_protocol.o
                                                  build/stm32f4xx_it.o
RP_Send                                           build/robotronik_protocol.o
                                                  build/remote_call.o
RP_Sync                                           build/robotronik_protocol.o
                                                  build/pi_client.o
RP_UART_Transmit                                  build/usart.o
                                                  build/main.o
RP_Wait_Packet                                    build/robotronik_protocol.o
                                                  build/remote_call.o
RTC_Alarm_IRQHandler                              build/startup_stm32f401xe.o
RTC_WKUP_IRQHandler                               build/startup_stm32f401xe.o
Refresh_Map                                       build/map.o
                                                  build/gas.o
                                                  build/strategy.o
                                                  build/obstacle.o
Reset_Handler                                     build/startup_stm32f401xe.o
Rotate                                            build/gas.o
                                                  build/build.o
SDIO_IRQHandler                                   build/startup_stm32f401xe.o
SPI1_IRQHandler                                   build/startup_stm32f401xe.o
SPI2_IRQHandler                                   build/startup_stm32f401xe.o
SPI3_IRQHandler                                   build/startup_stm32f401xe.o
SPI4_IRQHandler                                   build/startup_stm32f401xe.o
SVC_Handler                                       build/startup_stm32f401xe.o
Select_Building_Materials                         build/strategy.o
Set_Construction_Plan                             build/strategy.o
                                                  build/pi_client.o
SysTick_Handler                                   build/stm32f4xx_it.o
SystemClock_Config                                build/main.o
SystemCoreClock                                   build/system_stm32f4xx.o
                                                  build/stm32f4xx_ll_utils.o
                                                  build/stm32f4xx_hal.o
                                                  build/stm32f4xx_hal_i2c.o
                                                  build/stm32f4xx_hal_dma.o
                                                  build/stm32f4xx_hal_rcc_ex.o
                                                  build/stm32f4xx_hal_rcc.o
SystemCoreClockUpdate                             build/system_stm32f4xx.o
SystemInit                                        build/system_stm32f4xx.o
                                                  build/startup_stm32f401xe.o
TAMP_STAMP_IRQHandler                             build/startup_stm32f401xe.o
TIM1_BRK_TIM9_IRQHandler                          build/startup_stm32f401xe.o
TIM1_CC_IRQHandler                                build/startup_stm32f401xe.o
TIM1_TRG_COM_TIM11_IRQHandler                     build/startup_stm32f401xe.o
TIM1_UP_TIM10_IRQHandler                          build/startup_stm32f401xe.o
TIM2_IRQHandler                                   build/stm32f4xx_it.o
TIM3_IRQHandler                                   build/stm32f4xx_it.o
TIM4_IRQHandler                                   build/startup_stm32f401xe.o
TIM5_IRQHandler                                   build/startup_stm32f401xe.o
TIMEx_DMACommutationCplt                          build/stm32f4xx_hal_tim_ex.o
                                                  build/stm32f4xx_hal_tim.o
TIM_Base_SetConfig                                build/stm32f4xx_hal_tim.o
                                                  build/stm32f4xx_hal_tim_ex.o
TIM_CCxChannelCmd                                 build/stm32f4xx_hal_tim.o
                                                  build/stm32f4xx_hal_tim_ex.o
TIM_DMACaptureCplt                                build/stm32f4xx_hal_tim.o
                                                  build/stm32f4xx_hal_tim_ex.o
TIM_DMADelayPulseCplt                             build/stm32f4xx_hal_tim.o
                                                  build/stm32f4xx_hal_tim_ex.o
TIM_DMAError                                      build/stm32f4xx_hal_tim.o
                                                  build/stm32f4xx_hal_tim_ex.o
TIM_OC2_SetConfig                                 build/stm32f4xx_hal_tim.o
                                                  build/stm32f4xx_hal_tim_ex.o
TIM_TI1_SetConfig                                 build/stm32f4xx_hal_tim.o
                                                  build/stm32f4xx_hal_tim_ex.o
ToF_Configure_Device                              build/tof.o
                                                  build/main.o
ToF_Get_Last_Range                                build/tof.o
                                                  build/tim.o
                                                  build/system.o
ToF_Init_Device                                   build/tof.o
                                                  build/main.o
ToF_Init_Struct                                   build/tof.o
                                                  build/main.o
ToF_Perform_Measurement                           build/tof.o
ToF_Poke                                          build/tof.o
                                                  build/main.o
ToF_Poll_Measurement_Data                         build/tof.o
                                                  build/tim.o
ToF_Set_Address                                   build/tof.o
                                                  build/main.o
USART1_IRQHandler                                 build/stm32f4xx_it.o
USART2_IRQHandler                                 build/stm32f4xx_it.o
USART6_IRQHandler                                 build/stm32f4xx_it.o
Update_Construction                               build/strategy.o
                                                  build/build.o
Update_Obstacles                                  build/obstacle.o
                                                  build/tim.o
UsageFault_Handler                                build/startup_stm32f401xe.o
VL53L0X_CheckAndLoadInterruptSettings             build/vl53l0x_api.o
VL53L0X_ClearInterruptMask                        build/vl53l0x_api.o
                                                  build/vl53l0x_api_calibration.o
                                                  build/tof.o
VL53L0X_DataInit                                  build/vl53l0x_api.o
                                                  build/tof.o
VL53L0X_EnableInterruptMask                       build/vl53l0x_api.o
VL53L0X_GetDeviceErrorStatus                      build/vl53l0x_api.o
VL53L0X_GetDeviceErrorString                      build/vl53l0x_api.o
VL53L0X_GetDeviceInfo                             build/vl53l0x_api.o
VL53L0X_GetDeviceMode                             build/vl53l0x_api.o
VL53L0X_GetDeviceParameters                       build/vl53l0x_api.o
VL53L0X_GetDmaxCalParameters                      build/vl53l0x_api.o
VL53L0X_GetFractionEnable                         build/vl53l0x_api.o
VL53L0X_GetGpioConfig                             build/vl53l0x_api.o
VL53L0X_GetHistogramMeasurementData               build/vl53l0x_api.o
VL53L0X_GetHistogramMode                          build/vl53l0x_api.o
VL53L0X_GetInterMeasurementPeriodMilliSeconds     build/vl53l0x_api.o
VL53L0X_GetInterruptMaskStatus                    build/vl53l0x_api.o
VL53L0X_GetInterruptThresholds                    build/vl53l0x_api.o
VL53L0X_GetLimitCheckCurrent                      build/vl53l0x_api.o
VL53L0X_GetLimitCheckEnable                       build/vl53l0x_api.o
                                                  build/vl53l0x_api_core.o
VL53L0X_GetLimitCheckInfo                         build/vl53l0x_api.o
VL53L0X_GetLimitCheckStatus                       build/vl53l0x_api.o
VL53L0X_GetLimitCheckValue                        build/vl53l0x_api.o
                                                  build/vl53l0x_api_core.o
VL53L0X_GetLinearityCorrectiveGain                build/vl53l0x_api.o
VL53L0X_GetMaxNumberOfROIZones                    build/vl53l0x_api.o
VL53L0X_GetMeasurementDataReady                   build/vl53l0x_api.o
                                                  build/vl53l0x_api_core.o
                                                  build/tof.o
VL53L0X_GetMeasurementRefSignal                   build/vl53l0x_api.o
VL53L0X_GetMeasurementTimingBudgetMicroSeconds    build/vl53l0x_api.o
VL53L0X_GetNumberOfLimitCheck                     build/vl53l0x_api.o
VL53L0X_GetNumberOfROIZones                       build/vl53l0x_api.o
VL53L0X_GetNumberOfSequenceSteps                  build/vl53l0x_api.o
VL53L0X_GetOffsetCalibrationDataMicroMeter        build/vl53l0x_api.o
                                                  build/vl53l0x_api_calibration.o
VL53L0X_GetPalErrorString                         build/vl53l0x_api.o
VL53L0X_GetPalSpecVersion                         build/vl53l0x_api.o
VL53L0X_GetPalState                               build/vl53l0x_api.o
VL53L0X_GetPalStateString                         build/vl53l0x_api.o
VL53L0X_GetPowerMode                              build/vl53l0x_api.o
VL53L0X_GetProductRevision                        build/vl53l0x_api.o
VL53L0X_GetRangeStatusString                      build/vl53l0x_api.o
VL53L0X_GetRangingMeasurementData                 build/vl53l0x_api.o
                                                  build/tof.o
VL53L0X_GetRefCalibration                         build/vl53l0x_api.o
VL53L0X_GetReferenceSpads                         build/vl53l0x_api.o
VL53L0X_GetSequenceStepEnable                     build/vl53l0x_api.o
                                                  build/vl53l0x_api_calibration.o
VL53L0X_GetSequenceStepEnables                    build/vl53l0x_api.o
                                                  build/vl53l0x_api_core.o
VL53L0X_GetSequenceStepTimeout                    build/vl53l0x_api.o
VL53L0X_GetSequenceStepsInfo                      build/vl53l0x_api.o
VL53L0X_GetSpadAmbientDamperFactor                build/vl53l0x_api.o
VL53L0X_GetSpadAmbientDamperThreshold             build/vl53l0x_api.o
VL53L0X_GetStopCompletedStatus                    build/vl53l0x_api.o
VL53L0X_GetTotalSignalRate                        build/vl53l0x_api.o
VL53L0X_GetTuningSettingBuffer                    build/vl53l0x_api.o
VL53L0X_GetUpperLimitMilliMeter                   build/vl53l0x_api.o
VL53L0X_GetVcselPulsePeriod                       build/vl53l0x_api.o
                                                  build/vl53l0x_api_core.o
VL53L0X_GetVersion                                build/vl53l0x_api.o
VL53L0X_GetWrapAroundCheckEnable                  build/vl53l0x_api.o
VL53L0X_GetXTalkCompensationEnable                build/vl53l0x_api.o
                                                  build/vl53l0x_api_core.o
VL53L0X_GetXTalkCompensationRateMegaCps           build/vl53l0x_api.o
VL53L0X_PerformOffsetCalibration                  build/vl53l0x_api.o
VL53L0X_PerformRefCalibration                     build/vl53l0x_api.o
                                                  build/tof.o
VL53L0X_PerformRefSpadManagement                  build/vl53l0x_api.o
                                                  build/tof.o
VL53L0X_PerformSingleHistogramMeasurement         build/vl53l0x_api.o
VL53L0X_PerformSingleMeasurement                  build/vl53l0x_api.o
VL53L0X_PerformSingleRangingMeasurement           build/vl53l0x_api.o
                                                  build/vl53l0x_api_calibration.o
                                                  build/tof.o
VL53L0X_PerformXTalkCalibration                   build/vl53l0x_api.o
VL53L0X_PerformXTalkMeasurement                   build/vl53l0x_api.o
VL53L0X_PollingDelay                              build/vl53l0x_platform.o
                                                  build/vl53l0x_api_core.o
                                                  build/vl53l0x_api.o
VL53L0X_RdByte                                    build/vl53l0x_platform.o
                                                  build/vl53l0x_api_strings.o
                                                  build/vl53l0x_api_core.o
                                                  build/vl53l0x_api_calibration.o
                                                  build/vl53l0x_api.o
VL53L0X_RdDWord                                   build/vl53l0x_platform.o
                                                  build/vl53l0x_api_core.o
                                                  build/vl53l0x_api.o
VL53L0X_RdWord                                    build/vl53l0x_platform.o
                                                  build/vl53l0x_api_core.o
                                                  build/vl53l0x_api_calibration.o
                                                  build/vl53l0x_api.o
                                                  build/tof.o
VL53L0X_ReadMulti                                 build/vl53l0x_platform.o
                                                  build/vl53l0x_api_calibration.o
                                                  build/vl53l0x_api.o
VL53L0X_ResetDevice                               build/vl53l0x_api.o
VL53L0X_SetDeviceAddress                          build/vl53l0x_api.o
                                                  build/tof.o
VL53L0X_SetDeviceMode                             build/vl53l0x_api.o
                                                  build/tof.o
VL53L0X_SetDeviceParameters                       build/vl53l0x_api.o
VL53L0X_SetDmaxCalParameters                      build/vl53l0x_api.o
VL53L0X_SetGpioConfig                             build/vl53l0x_api.o
VL53L0X_SetGroupParamHold                         build/vl53l0x_api.o
VL53L0X_SetHistogramMode                          build/vl53l0x_api.o
VL53L0X_SetInterMeasurementPeriodMilliSeconds     build/vl53l0x_api.o
VL53L0X_SetInterruptThresholds                    build/vl53l0x_api.o
VL53L0X_SetLimitCheckEnable                       build/vl53l0x_api.o
                                                  build/vl53l0x_api_calibration.o
                                                  build/tof.o
VL53L0X_SetLimitCheckValue                        build/vl53l0x_api.o
                                                  build/tof.o
VL53L0X_SetLinearityCorrectiveGain                build/vl53l0x_api.o
VL53L0X_SetMeasurementTimingBudgetMicroSeconds    build/vl53l0x_api.o
                                                  build/vl53l0x_api_core.o
                                                  build/tof.o
VL53L0X_SetNumberOfROIZones                       build/vl53l0x_api.o
VL53L0X_SetOffsetCalibrationDataMicroMeter        build/vl53l0x_api.o
                                                  build/vl53l0x_api_calibration.o
VL53L0X_SetPowerMode                              build/vl53l0x_api.o
VL53L0X_SetRangeFractionEnable                    build/vl53l0x_api.o
VL53L0X_SetRefCalibration                         build/vl53l0x_api.o
VL53L0X_SetReferenceSpads                         build/vl53l0x_api.o
VL53L0X_SetSequenceStepEnable                     build/vl53l0x_api.o
                                                  build/vl53l0x_api_calibration.o
VL53L0X_SetSequenceStepTimeout                    build/vl53l0x_api.o
VL53L0X_SetSpadAmbientDamperFactor                build/vl53l0x_api.o
VL53L0X_SetSpadAmbientDamperThreshold             build/vl53l0x_api.o
VL53L0X_SetTuningSettingBuffer                    build/vl53l0x_api.o
VL53L0X_SetVcselPulsePeriod                       build/vl53l0x_api.o
                                                  build/tof.o
VL53L0X_SetWrapAroundCheckEnable                  build/vl53l0x_api.o
VL53L0X_SetXTalkCompensationEnable                build/vl53l0x_api.o
                                                  build/vl53l0x_api_calibration.o
VL53L0X_SetXTalkCompensationRateMegaCps           build/vl53l0x_api.o
                                                  build/vl53l0x_api_calibration.o
VL53L0X_StartMeasurement                          build/vl53l0x_api.o
                                                  build/main.o
VL53L0X_StaticInit                                build/vl53l0x_api.o
                                                  build/tof.o
VL53L0X_StopMeasurement                           build/vl53l0x_api.o
VL53L0X_UpdateByte                                build/vl53l0x_platform.o
                                                  build/vl53l0x_api_calibration.o
                                                  build/vl53l0x_api.o
VL53L0X_WaitDeviceBooted                          build/vl53l0x_api.o
VL53L0X_WaitDeviceReadyForNewMeasurement          build/vl53l0x_api.o
VL53L0X_WrByte                                    build/vl53l0x_platform.o
                                                  build/vl53l0x_api_core.o
                                                  build/vl53l0x_api_calibration.o
                                                  build/vl53l0x_api.o
                                                  build/tof.o
VL53L0X_WrDWord                                   build/vl53l0x_platform.o
                                                  build/vl53l0x_api.o
VL53L0X_WrWord                                    build/vl53l0x_platform.o
                                                  build/vl53l0x_api_core.o
                                                  build/vl53l0x_api_calibration.o
                                                  build/vl53l0x_api.o
VL53L0X_WriteMulti                                build/vl53l0x_platform.o
                                                  build/vl53l0x_api_core.o
                                                  build/vl53l0x_api_calibration.o
VL53L0X_apply_offset_adjustment                   build/vl53l0x_api_calibration.o
VL53L0X_calc_dmax                                 build/vl53l0x_api_core.o
VL53L0X_calc_macro_period_ps                      build/vl53l0x_api_core.o
VL53L0X_calc_sigma_estimate                       build/vl53l0x_api_core.o
VL53L0X_calc_timeout_mclks                        build/vl53l0x_api_core.o
VL53L0X_calc_timeout_us                           build/vl53l0x_api_core.o
VL53L0X_check_part_used                           build/vl53l0x_api_strings.o
VL53L0X_decode_timeout                            build/vl53l0x_api_core.o
VL53L0X_decode_vcsel_period                       build/vl53l0x_api_core.o
VL53L0X_device_read_strobe                        build/vl53l0x_api_core.o
VL53L0X_encode_timeout                            build/vl53l0x_api_core.o
VL53L0X_encode_vcsel_period                       build/vl53l0x_api_core.o
VL53L0X_get_device_error_string                   build/vl53l0x_api_strings.o
                                                  build/vl53l0x_api.o
VL53L0X_get_device_info                           build/vl53l0x_api_strings.o
                                                  build/vl53l0x_api.o
VL53L0X_get_info_from_device                      build/vl53l0x_api_core.o
                                                  build/vl53l0x_api_strings.o
                                                  build/vl53l0x_api_calibration.o
                                                  build/vl53l0x_api.o
VL53L0X_get_limit_check_info                      build/vl53l0x_api_strings.o
                                                  build/vl53l0x_api.o
VL53L0X_get_measurement_timing_budget_micro_seconds build/vl53l0x_api_core.o
                                                  build/vl53l0x_api.o
VL53L0X_get_offset_calibration_data_micro_meter   build/vl53l0x_api_calibration.o
                                                  build/vl53l0x_api.o
VL53L0X_get_pal_error_string                      build/vl53l0x_api_strings.o
                                                  build/vl53l0x_api.o
VL53L0X_get_pal_range_status                      build/vl53l0x_api_core.o
                                                  build/vl53l0x_api.o
VL53L0X_get_pal_state_string                      build/vl53l0x_api_strings.o
                                                  build/vl53l0x_api.o
VL53L0X_get_range_status_string                   build/vl53l0x_api_strings.o
                                                  build/vl53l0x_api.o
VL53L0X_get_ref_calibration                       build/vl53l0x_api_calibration.o
                                                  build/vl53l0x_api.o
VL53L0X_get_reference_spads                       build/vl53l0x_api_calibration.o
                                                  build/vl53l0x_api.o
VL53L0X_get_sequence_steps_info                   build/vl53l0x_api_strings.o
                                                  build/vl53l0x_api.o
VL53L0X_get_total_signal_rate                     build/vl53l0x_api_core.o
                                                  build/vl53l0x_api.o
VL53L0X_get_total_xtalk_rate                      build/vl53l0x_api_core.o
VL53L0X_get_vcsel_pulse_period                    build/vl53l0x_api_core.o
                                                  build/vl53l0x_api.o
VL53L0X_isqrt                                     build/vl53l0x_api_core.o
VL53L0X_load_tuning_settings                      build/vl53l0x_api_core.o
                                                  build/vl53l0x_api.o
VL53L0X_measurement_poll_for_completion           build/vl53l0x_api_core.o
                                                  build/vl53l0x_api_calibration.o
                                                  build/vl53l0x_api.o
VL53L0X_perform_offset_calibration                build/vl53l0x_api_calibration.o
                                                  build/vl53l0x_api.o
VL53L0X_perform_phase_calibration                 build/vl53l0x_api_calibration.o
                                                  build/vl53l0x_api_core.o
VL53L0X_perform_ref_calibration                   build/vl53l0x_api_calibration.o
                                                  build/vl53l0x_api.o
VL53L0X_perform_ref_spad_management               build/vl53l0x_api_calibration.o
                                                  build/vl53l0x_api.o
VL53L0X_perform_single_ref_calibration            build/vl53l0x_api_calibration.o
VL53L0X_perform_vhv_calibration                   build/vl53l0x_api_calibration.o
VL53L0X_perform_xtalk_calibration                 build/vl53l0x_api_calibration.o
                                                  build/vl53l0x_api.o
VL53L0X_quadrature_sum                            build/vl53l0x_api_core.o
VL53L0X_ref_calibration_io                        build/vl53l0x_api_calibration.o
VL53L0X_reverse_bytes                             build/vl53l0x_api_core.o
VL53L0X_set_measurement_timing_budget_micro_seconds build/vl53l0x_api_core.o
                                                  build/vl53l0x_api.o
VL53L0X_set_offset_calibration_data_micro_meter   build/vl53l0x_api_calibration.o
                                                  build/vl53l0x_api.o
VL53L0X_set_ref_calibration                       build/vl53l0x_api_calibration.o
                                                  build/vl53l0x_api.o
VL53L0X_set_reference_spads                       build/vl53l0x_api_calibration.o
                                                  build/vl53l0x_api.o
VL53L0X_set_vcsel_pulse_period                    build/vl53l0x_api_core.o
                                                  build/vl53l0x_api.o
WWDG_IRQHandler                                   build/startup_stm32f401xe.o
Z_Arm_In                                          build/z_client.o
                                                  build/main.o
Z_Arm_Out                                         build/z_client.o
                                                  build/main.o
Z_Get_State                                       build/z_client.o
Z_Init                                            build/z_client.o
                                                  build/main.o
Z_Place                                           build/z_client.o
                                                  build/main.o
Z_Punch_Bee                                       build/z_client.o
Z_Reset                                           build/z_client.o
                                                  build/main.o
Z_Set_Asser                                       build/z_client.o
Z_Stack                                           build/z_client.o
                                                  build/build.o
Z_Unstack                                         build/z_client.o
Z_Wait_State                                      build/z_client.o
                                                  build/main.o
                                                  build/build.o
_Balloc                                           /usr/lib/gcc/arm-none-eabi/7.3.0/../../../../arm-none-eabi/lib/armv7e-m/fpu/libc_nano.a(lib_a-mprec.o)
                                                  /usr/lib/gcc/arm-none-eabi/7.3.0/../../../../arm-none-eabi/lib/armv7e-m/fpu/libc_nano.a(lib_a-dtoa.o)
_Bfree                                            /usr/lib/gcc/arm-none-eabi/7.3.0/../../../../arm-none-eabi/lib/armv7e-m/fpu/libc_nano.a(lib_a-mprec.o)
                                                  /usr/lib/gcc/arm-none-eabi/7.3.0/../../../../arm-none-eabi/lib/armv7e-m/fpu/libc_nano.a(lib_a-dtoa.o)
_Error_Handler                                    build/main.o
                                                  build/tim.o
                                                  build/i2c.o
_I2CBuffer                                        build/vl53l0x_platform.o
_I2CRead                                          build/vl53l0x_platform.o
_I2CWrite                                         build/vl53l0x_platform.o
_PathLocale                                       /usr/lib/gcc/arm-none-eabi/7.3.0/../../../../arm-none-eabi/lib/armv7e-m/fpu/libc_nano.a(lib_a-locale.o)
__adddf3                                          /usr/lib/gcc/arm-none-eabi/7.3.0/armv7e-m/fpu/libgcc.a(_arm_addsubdf3.o)
__aeabi_cdcmpeq                                   /usr/lib/gcc/arm-none-eabi/7.3.0/armv7e-m/fpu/libgcc.a(_arm_cmpdf2.o)
__aeabi_cdcmple                                   /usr/lib/gcc/arm-none-eabi/7.3.0/armv7e-m/fpu/libgcc.a(_arm_cmpdf2.o)
__aeabi_cdrcmple                                  /usr/lib/gcc/arm-none-eabi/7.3.0/armv7e-m/fpu/libgcc.a(_arm_cmpdf2.o)
__aeabi_d2f                                       /usr/lib/gcc/arm-none-eabi/7.3.0/armv7e-m/fpu/libgcc.a(_arm_truncdfsf2.o)
                                                  build/gas.o
                                                  build/strategy.o
                                                  build/obstacle.o
                                                  build/map.o
                                                  build/remote_call.o
__aeabi_d2iz                                      /usr/lib/gcc/arm-none-eabi/7.3.0/armv7e-m/fpu/libgcc.a(_arm_fixdfsi.o)
                                                  /usr/lib/gcc/arm-none-eabi/7.3.0/../../../../arm-none-eabi/lib/armv7e-m/fpu/libm.a(lib_a-k_sin.o)
                                                  /usr/lib/gcc/arm-none-eabi/7.3.0/../../../../arm-none-eabi/lib/armv7e-m/fpu/libm.a(lib_a-k_rem_pio2.o)
                                                  /usr/lib/gcc/arm-none-eabi/7.3.0/../../../../arm-none-eabi/lib/armv7e-m/fpu/libm.a(lib_a-k_cos.o)
                                                  /usr/lib/gcc/arm-none-eabi/7.3.0/../../../../arm-none-eabi/lib/armv7e-m/fpu/libm.a(lib_a-e_rem_pio2.o)
                                                  /usr/lib/gcc/arm-none-eabi/7.3.0/../../../../arm-none-eabi/lib/armv7e-m/fpu/libc_nano.a(lib_a-dtoa.o)
                                                  build/obstacle.o
                                                  build/map.o
__aeabi_d2uiz                                     /usr/lib/gcc/arm-none-eabi/7.3.0/armv7e-m/fpu/libgcc.a(_arm_fixunsdfsi.o)
                                                  build/build.o
                                                  build/gas.o
                                                  build/obstacle.o
                                                  build/map.o
__aeabi_dadd                                      /usr/lib/gcc/arm-none-eabi/7.3.0/armv7e-m/fpu/libgcc.a(_arm_addsubdf3.o)
                                                  /usr/lib/gcc/arm-none-eabi/7.3.0/../../../../arm-none-eabi/lib/armv7e-m/fpu/libm.a(lib_a-s_scalbn.o)
                                                  /usr/lib/gcc/arm-none-eabi/7.3.0/../../../../arm-none-eabi/lib/armv7e-m/fpu/libm.a(lib_a-s_rint.o)
                                                  /usr/lib/gcc/arm-none-eabi/7.3.0/../../../../arm-none-eabi/lib/armv7e-m/fpu/libm.a(lib_a-s_floor.o)
                                                  /usr/lib/gcc/arm-none-eabi/7.3.0/../../../../arm-none-eabi/lib/armv7e-m/fpu/libm.a(lib_a-s_atan.o)
                                                  /usr/lib/gcc/arm-none-eabi/7.3.0/../../../../arm-none-eabi/lib/armv7e-m/fpu/libm.a(lib_a-k_sin.o)
                                                  /usr/lib/gcc/arm-none-eabi/7.3.0/../../../../arm-none-eabi/lib/armv7e-m/fpu/libm.a(lib_a-k_rem_pio2.o)
                                                  /usr/lib/gcc/arm-none-eabi/7.3.0/../../../../arm-none-eabi/lib/armv7e-m/fpu/libm.a(lib_a-k_cos.o)
                                                  /usr/lib/gcc/arm-none-eabi/7.3.0/../../../../arm-none-eabi/lib/armv7e-m/fpu/libm.a(lib_a-e_sqrt.o)
                                                  /usr/lib/gcc/arm-none-eabi/7.3.0/../../../../arm-none-eabi/lib/armv7e-m/fpu/libm.a(lib_a-e_rem_pio2.o)
                                                  /usr/lib/gcc/arm-none-eabi/7.3.0/../../../../arm-none-eabi/lib/armv7e-m/fpu/libm.a(lib_a-e_pow.o)
                                                  /usr/lib/gcc/arm-none-eabi/7.3.0/../../../../arm-none-eabi/lib/armv7e-m/fpu/libm.a(lib_a-e_atan2.o)
                                                  /usr/lib/gcc/arm-none-eabi/7.3.0/../../../../arm-none-eabi/lib/armv7e-m/fpu/libc_nano.a(lib_a-dtoa.o)
                                                  build/gas.o
                                                  build/strategy.o
                                                  build/obstacle.o
                                                  build/map.o
__aeabi_dcmpeq                                    /usr/lib/gcc/arm-none-eabi/7.3.0/armv7e-m/fpu/libgcc.a(_arm_cmpdf2.o)
                                                  /usr/lib/gcc/arm-none-eabi/7.3.0/../../../../arm-none-eabi/lib/armv7e-m/fpu/libm.a(lib_a-k_rem_pio2.o)
                                                  /usr/lib/gcc/arm-none-eabi/7.3.0/../../../../arm-none-eabi/lib/armv7e-m/fpu/libm.a(lib_a-e_rem_pio2.o)
                                                  /usr/lib/gcc/arm-none-eabi/7.3.0/../../../../arm-none-eabi/lib/armv7e-m/fpu/libm.a(lib_a-w_pow.o)
                                                  /usr/lib/gcc/arm-none-eabi/7.3.0/../../../../arm-none-eabi/lib/armv7e-m/fpu/libc_nano.a(lib_a-dtoa.o)
                                                  /usr/lib/gcc/arm-none-eabi/7.3.0/../../../../arm-none-eabi/lib/armv7e-m/fpu/libc_nano.a(lib_a-nano-vfprintf_float.o)
__aeabi_dcmpge                                    /usr/lib/gcc/arm-none-eabi/7.3.0/armv7e-m/fpu/libgcc.a(_arm_cmpdf2.o)
                                                  /usr/lib/gcc/arm-none-eabi/7.3.0/../../../../arm-none-eabi/lib/armv7e-m/fpu/libm.a(lib_a-k_rem_pio2.o)
                                                  /usr/lib/gcc/arm-none-eabi/7.3.0/../../../../arm-none-eabi/lib/armv7e-m/fpu/libm.a(lib_a-e_pow.o)
                                                  /usr/lib/gcc/arm-none-eabi/7.3.0/../../../../arm-none-eabi/lib/armv7e-m/fpu/libc_nano.a(lib_a-dtoa.o)
__aeabi_dcmpgt                                    /usr/lib/gcc/arm-none-eabi/7.3.0/armv7e-m/fpu/libgcc.a(_arm_cmpdf2.o)
                                                  /usr/lib/gcc/arm-none-eabi/7.3.0/../../../../arm-none-eabi/lib/armv7e-m/fpu/libm.a(lib_a-s_floor.o)
                                                  /usr/lib/gcc/arm-none-eabi/7.3.0/../../../../arm-none-eabi/lib/armv7e-m/fpu/libm.a(lib_a-s_atan.o)
                                                  /usr/lib/gcc/arm-none-eabi/7.3.0/../../../../arm-none-eabi/lib/armv7e-m/fpu/libm.a(lib_a-e_pow.o)
                                                  /usr/lib/gcc/arm-none-eabi/7.3.0/../../../../arm-none-eabi/lib/armv7e-m/fpu/libc_nano.a(lib_a-dtoa.o)
                                                  build/gas.o
                                                  build/strategy.o
                                                  build/obstacle.o
__aeabi_dcmple                                    /usr/lib/gcc/arm-none-eabi/7.3.0/armv7e-m/fpu/libgcc.a(_arm_cmpdf2.o)
                                                  /usr/lib/gcc/arm-none-eabi/7.3.0/../../../../arm-none-eabi/lib/armv7e-m/fpu/libc_nano.a(lib_a-nano-vfprintf_float.o)
                                                  build/gas.o
                                                  build/obstacle.o
__aeabi_dcmplt                                    /usr/lib/gcc/arm-none-eabi/7.3.0/armv7e-m/fpu/libgcc.a(_arm_cmpdf2.o)
                                                  /usr/lib/gcc/arm-none-eabi/7.3.0/../../../../arm-none-eabi/lib/armv7e-m/fpu/libm.a(lib_a-w_sqrt.o)
                                                  /usr/lib/gcc/arm-none-eabi/7.3.0/../../../../arm-none-eabi/lib/armv7e-m/fpu/libm.a(lib_a-w_pow.o)
                                                  /usr/lib/gcc/arm-none-eabi/7.3.0/../../../../arm-none-eabi/lib/armv7e-m/fpu/libc_nano.a(lib_a-dtoa.o)
                                                  /usr/lib/gcc/arm-none-eabi/7.3.0/../../../../arm-none-eabi/lib/armv7e-m/fpu/libc_nano.a(lib_a-nano-vfprintf_float.o)
                                                  build/gas.o
                                                  build/obstacle.o
__aeabi_dcmpun                                    /usr/lib/gcc/arm-none-eabi/7.3.0/armv7e-m/fpu/libgcc.a(_arm_unorddf2.o)
                                                  /usr/lib/gcc/arm-none-eabi/7.3.0/../../../../arm-none-eabi/lib/armv7e-m/fpu/libm.a(lib_a-w_sqrt.o)
                                                  /usr/lib/gcc/arm-none-eabi/7.3.0/../../../../arm-none-eabi/lib/armv7e-m/fpu/libm.a(lib_a-w_pow.o)
                                                  /usr/lib/gcc/arm-none-eabi/7.3.0/../../../../arm-none-eabi/lib/armv7e-m/fpu/libc_nano.a(lib_a-nano-vfprintf_float.o)
__aeabi_ddiv                                      /usr/lib/gcc/arm-none-eabi/7.3.0/armv7e-m/fpu/libgcc.a(_arm_muldivdf3.o)
                                                  /usr/lib/gcc/arm-none-eabi/7.3.0/../../../../arm-none-eabi/lib/armv7e-m/fpu/libm.a(lib_a-s_atan.o)
                                                  /usr/lib/gcc/arm-none-eabi/7.3.0/../../../../arm-none-eabi/lib/armv7e-m/fpu/libm.a(lib_a-e_sqrt.o)
                                                  /usr/lib/gcc/arm-none-eabi/7.3.0/../../../../arm-none-eabi/lib/armv7e-m/fpu/libm.a(lib_a-e_pow.o)
                                                  /usr/lib/gcc/arm-none-eabi/7.3.0/../../../../arm-none-eabi/lib/armv7e-m/fpu/libm.a(lib_a-e_atan2.o)
                                                  /usr/lib/gcc/arm-none-eabi/7.3.0/../../../../arm-none-eabi/lib/armv7e-m/fpu/libm.a(lib_a-w_sqrt.o)
                                                  /usr/lib/gcc/arm-none-eabi/7.3.0/../../../../arm-none-eabi/lib/armv7e-m/fpu/libm.a(lib_a-w_pow.o)
                                                  /usr/lib/gcc/arm-none-eabi/7.3.0/../../../../arm-none-eabi/lib/armv7e-m/fpu/libc_nano.a(lib_a-mprec.o)
                                                  /usr/lib/gcc/arm-none-eabi/7.3.0/../../../../arm-none-eabi/lib/armv7e-m/fpu/libc_nano.a(lib_a-dtoa.o)
                                                  build/gas.o
                                                  build/obstacle.o
                                                  build/map.o
__aeabi_dmul                                      /usr/lib/gcc/arm-none-eabi/7.3.0/armv7e-m/fpu/libgcc.a(_arm_muldivdf3.o)
                                                  /usr/lib/gcc/arm-none-eabi/7.3.0/../../../../arm-none-eabi/lib/armv7e-m/fpu/libm.a(lib_a-s_scalbn.o)
                                                  /usr/lib/gcc/arm-none-eabi/7.3.0/../../../../arm-none-eabi/lib/armv7e-m/fpu/libm.a(lib_a-s_atan.o)
                                                  /usr/lib/gcc/arm-none-eabi/7.3.0/../../../../arm-none-eabi/lib/armv7e-m/fpu/libm.a(lib_a-k_sin.o)
                                                  /usr/lib/gcc/arm-none-eabi/7.3.0/../../../../arm-none-eabi/lib/armv7e-m/fpu/libm.a(lib_a-k_rem_pio2.o)
                                                  /usr/lib/gcc/arm-none-eabi/7.3.0/../../../../arm-none-eabi/lib/armv7e-m/fpu/libm.a(lib_a-k_cos.o)
                                                  /usr/lib/gcc/arm-none-eabi/7.3.0/../../../../arm-none-eabi/lib/armv7e-m/fpu/libm.a(lib_a-e_sqrt.o)
                                                  /usr/lib/gcc/arm-none-eabi/7.3.0/../../../../arm-none-eabi/lib/armv7e-m/fpu/libm.a(lib_a-e_rem_pio2.o)
                                                  /usr/lib/gcc/arm-none-eabi/7.3.0/../../../../arm-none-eabi/lib/armv7e-m/fpu/libm.a(lib_a-e_pow.o)
                                                  /usr/lib/gcc/arm-none-eabi/7.3.0/../../../../arm-none-eabi/lib/armv7e-m/fpu/libm.a(lib_a-w_pow.o)
                                                  /usr/lib/gcc/arm-none-eabi/7.3.0/../../../../arm-none-eabi/lib/armv7e-m/fpu/libc_nano.a(lib_a-mprec.o)
                                                  /usr/lib/gcc/arm-none-eabi/7.3.0/../../../../arm-none-eabi/lib/armv7e-m/fpu/libc_nano.a(lib_a-dtoa.o)
                                                  build/build.o
                                                  build/gas.o
                                                  build/strategy.o
                                                  build/obstacle.o
__aeabi_drsub                                     /usr/lib/gcc/arm-none-eabi/7.3.0/armv7e-m/fpu/libgcc.a(_arm_addsubdf3.o)
__aeabi_dsub                                      /usr/lib/gcc/arm-none-eabi/7.3.0/armv7e-m/fpu/libgcc.a(_arm_addsubdf3.o)
                                                  /usr/lib/gcc/arm-none-eabi/7.3.0/../../../../arm-none-eabi/lib/armv7e-m/fpu/libm.a(lib_a-s_rint.o)
                                                  /usr/lib/gcc/arm-none-eabi/7.3.0/../../../../arm-none-eabi/lib/armv7e-m/fpu/libm.a(lib_a-s_atan.o)
                                                  /usr/lib/gcc/arm-none-eabi/7.3.0/../../../../arm-none-eabi/lib/armv7e-m/fpu/libm.a(lib_a-k_sin.o)
                                                  /usr/lib/gcc/arm-none-eabi/7.3.0/../../../../arm-none-eabi/lib/armv7e-m/fpu/libm.a(lib_a-k_rem_pio2.o)
                                                  /usr/lib/gcc/arm-none-eabi/7.3.0/../../../../arm-none-eabi/lib/armv7e-m/fpu/libm.a(lib_a-k_cos.o)
                                                  /usr/lib/gcc/arm-none-eabi/7.3.0/../../../../arm-none-eabi/lib/armv7e-m/fpu/libm.a(lib_a-e_sqrt.o)
                                                  /usr/lib/gcc/arm-none-eabi/7.3.0/../../../../arm-none-eabi/lib/armv7e-m/fpu/libm.a(lib_a-e_rem_pio2.o)
                                                  /usr/lib/gcc/arm-none-eabi/7.3.0/../../../../arm-none-eabi/lib/armv7e-m/fpu/libm.a(lib_a-e_pow.o)
                                                  /usr/lib/gcc/arm-none-eabi/7.3.0/../../../../arm-none-eabi/lib/armv7e-m/fpu/libm.a(lib_a-e_atan2.o)
                                                  /usr/lib/gcc/arm-none-eabi/7.3.0/../../../../arm-none-eabi/lib/armv7e-m/fpu/libm.a(lib_a-s_sin.o)
                                                  /usr/lib/gcc/arm-none-eabi/7.3.0/../../../../arm-none-eabi/lib/armv7e-m/fpu/libm.a(lib_a-s_cos.o)
                                                  /usr/lib/gcc/arm-none-eabi/7.3.0/../../../../arm-none-eabi/lib/armv7e-m/fpu/libc_nano.a(lib_a-dtoa.o)
                                                  build/build.o
                                                  build/gas.o
                                                  build/strategy.o
                                                  build/obstacle.o
                                                  build/map.o
__aeabi_f2d                                       /usr/lib/gcc/arm-none-eabi/7.3.0/armv7e-m/fpu/libgcc.a(_arm_addsubdf3.o)
                                                  build/main.o
                                                  build/build.o
                                                  build/z_client.o
                                                  build/position_client.o
                                                  build/gas.o
                                                  build/strategy.o
                                                  build/obstacle.o
                                                  build/map.o
__aeabi_i2d                                       /usr/lib/gcc/arm-none-eabi/7.3.0/armv7e-m/fpu/libgcc.a(_arm_addsubdf3.o)
                                                  /usr/lib/gcc/arm-none-eabi/7.3.0/../../../../arm-none-eabi/lib/armv7e-m/fpu/libm.a(lib_a-k_rem_pio2.o)
                                                  /usr/lib/gcc/arm-none-eabi/7.3.0/../../../../arm-none-eabi/lib/armv7e-m/fpu/libm.a(lib_a-e_rem_pio2.o)
                                                  /usr/lib/gcc/arm-none-eabi/7.3.0/../../../../arm-none-eabi/lib/armv7e-m/fpu/libm.a(lib_a-e_pow.o)
                                                  /usr/lib/gcc/arm-none-eabi/7.3.0/../../../../arm-none-eabi/lib/armv7e-m/fpu/libc_nano.a(lib_a-dtoa.o)
                                                  build/build.o
                                                  build/gas.o
                                                  build/strategy.o
                                                  build/obstacle.o
                                                  build/map.o
__aeabi_idiv0                                     /usr/lib/gcc/arm-none-eabi/7.3.0/armv7e-m/fpu/libgcc.a(_dvmd_tls.o)
__aeabi_l2d                                       /usr/lib/gcc/arm-none-eabi/7.3.0/armv7e-m/fpu/libgcc.a(_arm_addsubdf3.o)
__aeabi_ldiv0                                     /usr/lib/gcc/arm-none-eabi/7.3.0/armv7e-m/fpu/libgcc.a(_dvmd_tls.o)
                                                  /usr/lib/gcc/arm-none-eabi/7.3.0/armv7e-m/fpu/libgcc.a(_aeabi_uldivmod.o)
__aeabi_ui2d                                      /usr/lib/gcc/arm-none-eabi/7.3.0/armv7e-m/fpu/libgcc.a(_arm_addsubdf3.o)
                                                  /usr/lib/gcc/arm-none-eabi/7.3.0/../../../../arm-none-eabi/lib/armv7e-m/fpu/libc_nano.a(lib_a-dtoa.o)
__aeabi_ul2d                                      /usr/lib/gcc/arm-none-eabi/7.3.0/armv7e-m/fpu/libgcc.a(_arm_addsubdf3.o)
__aeabi_uldivmod                                  /usr/lib/gcc/arm-none-eabi/7.3.0/armv7e-m/fpu/libgcc.a(_aeabi_uldivmod.o)
                                                  build/stm32f4xx_hal_rcc.o
__any_on                                          /usr/lib/gcc/arm-none-eabi/7.3.0/../../../../arm-none-eabi/lib/armv7e-m/fpu/libc_nano.a(lib_a-mprec.o)
__ascii_mbtowc                                    /usr/lib/gcc/arm-none-eabi/7.3.0/../../../../arm-none-eabi/lib/armv7e-m/fpu/libc_nano.a(lib_a-mbtowc_r.o)
                                                  /usr/lib/gcc/arm-none-eabi/7.3.0/../../../../arm-none-eabi/lib/armv7e-m/fpu/libc_nano.a(lib_a-locale.o)
__ascii_wctomb                                    /usr/lib/gcc/arm-none-eabi/7.3.0/../../../../arm-none-eabi/lib/armv7e-m/fpu/libc_nano.a(lib_a-wctomb_r.o)
                                                  /usr/lib/gcc/arm-none-eabi/7.3.0/../../../../arm-none-eabi/lib/armv7e-m/fpu/libc_nano.a(lib_a-locale.o)
__atexit_dummy                                    /usr/lib/gcc/arm-none-eabi/7.3.0/../../../../arm-none-eabi/lib/armv7e-m/fpu/libc_nano.a(lib_a-__atexit.o)
__b2d                                             /usr/lib/gcc/arm-none-eabi/7.3.0/../../../../arm-none-eabi/lib/armv7e-m/fpu/libc_nano.a(lib_a-mprec.o)
__bss_end__                                       /usr/lib/gcc/arm-none-eabi/7.3.0/../../../../arm-none-eabi/lib/armv7e-m/fpu/crt0.o
__bss_start__                                     /usr/lib/gcc/arm-none-eabi/7.3.0/../../../../arm-none-eabi/lib/armv7e-m/fpu/crt0.o
__call_exitprocs                                  /usr/lib/gcc/arm-none-eabi/7.3.0/../../../../arm-none-eabi/lib/armv7e-m/fpu/libc_nano.a(lib_a-__call_atexit.o)
                                                  /usr/lib/gcc/arm-none-eabi/7.3.0/../../../../arm-none-eabi/lib/armv7e-m/fpu/libc_nano.a(lib_a-__atexit.o)
                                                  /usr/lib/gcc/arm-none-eabi/7.3.0/../../../../arm-none-eabi/lib/armv7e-m/fpu/libc_nano.a(lib_a-exit.o)
__cmpdf2                                          /usr/lib/gcc/arm-none-eabi/7.3.0/armv7e-m/fpu/libgcc.a(_arm_cmpdf2.o)
__copybits                                        /usr/lib/gcc/arm-none-eabi/7.3.0/../../../../arm-none-eabi/lib/armv7e-m/fpu/libc_nano.a(lib_a-mprec.o)
__cvt                                             /usr/lib/gcc/arm-none-eabi/7.3.0/../../../../arm-none-eabi/lib/armv7e-m/fpu/libc_nano.a(lib_a-nano-vfprintf_float.o)
__d2b                                             /usr/lib/gcc/arm-none-eabi/7.3.0/../../../../arm-none-eabi/lib/armv7e-m/fpu/libc_nano.a(lib_a-mprec.o)
                                                  /usr/lib/gcc/arm-none-eabi/7.3.0/../../../../arm-none-eabi/lib/armv7e-m/fpu/libc_nano.a(lib_a-dtoa.o)
__deregister_frame_info                           /usr/lib/gcc/arm-none-eabi/7.3.0/armv7e-m/fpu/crtbegin.o
__divdf3                                          /usr/lib/gcc/arm-none-eabi/7.3.0/armv7e-m/fpu/libgcc.a(_arm_muldivdf3.o)
__dso_handle                                      /usr/lib/gcc/arm-none-eabi/7.3.0/armv7e-m/fpu/crtbegin.o
__eqdf2                                           /usr/lib/gcc/arm-none-eabi/7.3.0/armv7e-m/fpu/libgcc.a(_arm_cmpdf2.o)
__errno                                           /usr/lib/gcc/arm-none-eabi/7.3.0/../../../../arm-none-eabi/lib/armv7e-m/fpu/libc_nano.a(lib_a-errno.o)
                                                  /usr/lib/gcc/arm-none-eabi/7.3.0/../../../../arm-none-eabi/lib/armv7e-m/fpu/libm.a(lib_a-w_sqrt.o)
                                                  /usr/lib/gcc/arm-none-eabi/7.3.0/../../../../arm-none-eabi/lib/armv7e-m/fpu/libm.a(lib_a-w_pow.o)
__exponent                                        /usr/lib/gcc/arm-none-eabi/7.3.0/../../../../arm-none-eabi/lib/armv7e-m/fpu/libc_nano.a(lib_a-nano-vfprintf_float.o)
__extendsfdf2                                     /usr/lib/gcc/arm-none-eabi/7.3.0/armv7e-m/fpu/libgcc.a(_arm_addsubdf3.o)
__fdlib_version                                   /usr/lib/gcc/arm-none-eabi/7.3.0/../../../../arm-none-eabi/lib/armv7e-m/fpu/libm.a(lib_a-s_lib_ver.o)
                                                  /usr/lib/gcc/arm-none-eabi/7.3.0/../../../../arm-none-eabi/lib/armv7e-m/fpu/libm.a(lib_a-w_sqrt.o)
                                                  /usr/lib/gcc/arm-none-eabi/7.3.0/../../../../arm-none-eabi/lib/armv7e-m/fpu/libm.a(lib_a-w_pow.o)
__fini_array_end                                  /usr/lib/gcc/arm-none-eabi/7.3.0/../../../../arm-none-eabi/lib/armv7e-m/fpu/libc_nano.a(lib_a-fini.o)
__fini_array_start                                /usr/lib/gcc/arm-none-eabi/7.3.0/../../../../arm-none-eabi/lib/armv7e-m/fpu/libc_nano.a(lib_a-fini.o)
__fixdfsi                                         /usr/lib/gcc/arm-none-eabi/7.3.0/armv7e-m/fpu/libgcc.a(_arm_fixdfsi.o)
__fixunsdfsi                                      /usr/lib/gcc/arm-none-eabi/7.3.0/armv7e-m/fpu/libgcc.a(_arm_fixunsdfsi.o)
__floatdidf                                       /usr/lib/gcc/arm-none-eabi/7.3.0/armv7e-m/fpu/libgcc.a(_arm_addsubdf3.o)
__floatsidf                                       /usr/lib/gcc/arm-none-eabi/7.3.0/armv7e-m/fpu/libgcc.a(_arm_addsubdf3.o)
__floatundidf                                     /usr/lib/gcc/arm-none-eabi/7.3.0/armv7e-m/fpu/libgcc.a(_arm_addsubdf3.o)
__floatunsidf                                     /usr/lib/gcc/arm-none-eabi/7.3.0/armv7e-m/fpu/libgcc.a(_arm_addsubdf3.o)
__gedf2                                           /usr/lib/gcc/arm-none-eabi/7.3.0/armv7e-m/fpu/libgcc.a(_arm_cmpdf2.o)
__global_locale                                   /usr/lib/gcc/arm-none-eabi/7.3.0/../../../../arm-none-eabi/lib/armv7e-m/fpu/libc_nano.a(lib_a-locale.o)
                                                  /usr/lib/gcc/arm-none-eabi/7.3.0/../../../../arm-none-eabi/lib/armv7e-m/fpu/libc_nano.a(lib_a-wctomb_r.o)
                                                  /usr/lib/gcc/arm-none-eabi/7.3.0/../../../../arm-none-eabi/lib/armv7e-m/fpu/libc_nano.a(lib_a-mbtowc_r.o)
                                                  /usr/lib/gcc/arm-none-eabi/7.3.0/../../../../arm-none-eabi/lib/armv7e-m/fpu/libc_nano.a(lib_a-localeconv.o)
__gtdf2                                           /usr/lib/gcc/arm-none-eabi/7.3.0/armv7e-m/fpu/libgcc.a(_arm_cmpdf2.o)
__hi0bits                                         /usr/lib/gcc/arm-none-eabi/7.3.0/../../../../arm-none-eabi/lib/armv7e-m/fpu/libc_nano.a(lib_a-mprec.o)
                                                  /usr/lib/gcc/arm-none-eabi/7.3.0/../../../../arm-none-eabi/lib/armv7e-m/fpu/libc_nano.a(lib_a-dtoa.o)
__i2b                                             /usr/lib/gcc/arm-none-eabi/7.3.0/../../../../arm-none-eabi/lib/armv7e-m/fpu/libc_nano.a(lib_a-mprec.o)
                                                  /usr/lib/gcc/arm-none-eabi/7.3.0/../../../../arm-none-eabi/lib/armv7e-m/fpu/libc_nano.a(lib_a-dtoa.o)
__ieee754_atan2                                   /usr/lib/gcc/arm-none-eabi/7.3.0/../../../../arm-none-eabi/lib/armv7e-m/fpu/libm.a(lib_a-e_atan2.o)
                                                  /usr/lib/gcc/arm-none-eabi/7.3.0/../../../../arm-none-eabi/lib/armv7e-m/fpu/libm.a(lib_a-w_atan2.o)
__ieee754_pow                                     /usr/lib/gcc/arm-none-eabi/7.3.0/../../../../arm-none-eabi/lib/armv7e-m/fpu/libm.a(lib_a-e_pow.o)
                                                  /usr/lib/gcc/arm-none-eabi/7.3.0/../../../../arm-none-eabi/lib/armv7e-m/fpu/libm.a(lib_a-w_pow.o)
__ieee754_rem_pio2                                /usr/lib/gcc/arm-none-eabi/7.3.0/../../../../arm-none-eabi/lib/armv7e-m/fpu/libm.a(lib_a-e_rem_pio2.o)
                                                  /usr/lib/gcc/arm-none-eabi/7.3.0/../../../../arm-none-eabi/lib/armv7e-m/fpu/libm.a(lib_a-s_sin.o)
                                                  /usr/lib/gcc/arm-none-eabi/7.3.0/../../../../arm-none-eabi/lib/armv7e-m/fpu/libm.a(lib_a-s_cos.o)
__ieee754_sqrt                                    /usr/lib/gcc/arm-none-eabi/7.3.0/../../../../arm-none-eabi/lib/armv7e-m/fpu/libm.a(lib_a-e_sqrt.o)
                                                  /usr/lib/gcc/arm-none-eabi/7.3.0/../../../../arm-none-eabi/lib/armv7e-m/fpu/libm.a(lib_a-e_pow.o)
                                                  /usr/lib/gcc/arm-none-eabi/7.3.0/../../../../arm-none-eabi/lib/armv7e-m/fpu/libm.a(lib_a-w_sqrt.o)
__init_array_end                                  /usr/lib/gcc/arm-none-eabi/7.3.0/../../../../arm-none-eabi/lib/armv7e-m/fpu/libc_nano.a(lib_a-init.o)
__init_array_start                                /usr/lib/gcc/arm-none-eabi/7.3.0/../../../../arm-none-eabi/lib/armv7e-m/fpu/libc_nano.a(lib_a-init.o)
__kernel_cos                                      /usr/lib/gcc/arm-none-eabi/7.3.0/../../../../arm-none-eabi/lib/armv7e-m/fpu/libm.a(lib_a-k_cos.o)
                                                  /usr/lib/gcc/arm-none-eabi/7.3.0/../../../../arm-none-eabi/lib/armv7e-m/fpu/libm.a(lib_a-s_sin.o)
                                                  /usr/lib/gcc/arm-none-eabi/7.3.0/../../../../arm-none-eabi/lib/armv7e-m/fpu/libm.a(lib_a-s_cos.o)
__kernel_rem_pio2                                 /usr/lib/gcc/arm-none-eabi/7.3.0/../../../../arm-none-eabi/lib/armv7e-m/fpu/libm.a(lib_a-k_rem_pio2.o)
                                                  /usr/lib/gcc/arm-none-eabi/7.3.0/../../../../arm-none-eabi/lib/armv7e-m/fpu/libm.a(lib_a-e_rem_pio2.o)
__kernel_sin                                      /usr/lib/gcc/arm-none-eabi/7.3.0/../../../../arm-none-eabi/lib/armv7e-m/fpu/libm.a(lib_a-k_sin.o)
                                                  /usr/lib/gcc/arm-none-eabi/7.3.0/../../../../arm-none-eabi/lib/armv7e-m/fpu/libm.a(lib_a-s_sin.o)
                                                  /usr/lib/gcc/arm-none-eabi/7.3.0/../../../../arm-none-eabi/lib/armv7e-m/fpu/libm.a(lib_a-s_cos.o)
__ledf2                                           /usr/lib/gcc/arm-none-eabi/7.3.0/armv7e-m/fpu/libgcc.a(_arm_cmpdf2.o)
__libc_fini_array                                 /usr/lib/gcc/arm-none-eabi/7.3.0/../../../../arm-none-eabi/lib/armv7e-m/fpu/libc_nano.a(lib_a-fini.o)
                                                  /usr/lib/gcc/arm-none-eabi/7.3.0/../../../../arm-none-eabi/lib/armv7e-m/fpu/crt0.o
__libc_init_array                                 /usr/lib/gcc/arm-none-eabi/7.3.0/../../../../arm-none-eabi/lib/armv7e-m/fpu/libc_nano.a(lib_a-init.o)
                                                  build/startup_stm32f401xe.o
                                                  /usr/lib/gcc/arm-none-eabi/7.3.0/../../../../arm-none-eabi/lib/armv7e-m/fpu/crt0.o
__lo0bits                                         /usr/lib/gcc/arm-none-eabi/7.3.0/../../../../arm-none-eabi/lib/armv7e-m/fpu/libc_nano.a(lib_a-mprec.o)
__locale_ctype_ptr                                /usr/lib/gcc/arm-none-eabi/7.3.0/../../../../arm-none-eabi/lib/armv7e-m/fpu/libc_nano.a(lib_a-locale.o)
__locale_ctype_ptr_l                              /usr/lib/gcc/arm-none-eabi/7.3.0/../../../../arm-none-eabi/lib/armv7e-m/fpu/libc_nano.a(lib_a-locale.o)
__locale_mb_cur_max                               /usr/lib/gcc/arm-none-eabi/7.3.0/../../../../arm-none-eabi/lib/armv7e-m/fpu/libc_nano.a(lib_a-locale.o)
__localeconv_l                                    /usr/lib/gcc/arm-none-eabi/7.3.0/../../../../arm-none-eabi/lib/armv7e-m/fpu/libc_nano.a(lib_a-localeconv.o)
__lshift                                          /usr/lib/gcc/arm-none-eabi/7.3.0/../../../../arm-none-eabi/lib/armv7e-m/fpu/libc_nano.a(lib_a-mprec.o)
                                                  /usr/lib/gcc/arm-none-eabi/7.3.0/../../../../arm-none-eabi/lib/armv7e-m/fpu/libc_nano.a(lib_a-dtoa.o)
__ltdf2                                           /usr/lib/gcc/arm-none-eabi/7.3.0/armv7e-m/fpu/libgcc.a(_arm_cmpdf2.o)
__malloc_free_list                                /usr/lib/gcc/arm-none-eabi/7.3.0/../../../../arm-none-eabi/lib/armv7e-m/fpu/libc_nano.a(lib_a-nano-mallocr.o)
                                                  /usr/lib/gcc/arm-none-eabi/7.3.0/../../../../arm-none-eabi/lib/armv7e-m/fpu/libc_nano.a(lib_a-nano-freer.o)
__malloc_lock                                     /usr/lib/gcc/arm-none-eabi/7.3.0/../../../../arm-none-eabi/lib/armv7e-m/fpu/libc_nano.a(lib_a-mlock.o)
                                                  /usr/lib/gcc/arm-none-eabi/7.3.0/../../../../arm-none-eabi/lib/armv7e-m/fpu/libc_nano.a(lib_a-nano-mallocr.o)
                                                  /usr/lib/gcc/arm-none-eabi/7.3.0/../../../../arm-none-eabi/lib/armv7e-m/fpu/libc_nano.a(lib_a-nano-freer.o)
__malloc_sbrk_start                               /usr/lib/gcc/arm-none-eabi/7.3.0/../../../../arm-none-eabi/lib/armv7e-m/fpu/libc_nano.a(lib_a-nano-mallocr.o)
__malloc_unlock                                   /usr/lib/gcc/arm-none-eabi/7.3.0/../../../../arm-none-eabi/lib/armv7e-m/fpu/libc_nano.a(lib_a-mlock.o)
                                                  /usr/lib/gcc/arm-none-eabi/7.3.0/../../../../arm-none-eabi/lib/armv7e-m/fpu/libc_nano.a(lib_a-nano-mallocr.o)
                                                  /usr/lib/gcc/arm-none-eabi/7.3.0/../../../../arm-none-eabi/lib/armv7e-m/fpu/libc_nano.a(lib_a-nano-freer.o)
__mcmp                                            /usr/lib/gcc/arm-none-eabi/7.3.0/../../../../arm-none-eabi/lib/armv7e-m/fpu/libc_nano.a(lib_a-mprec.o)
                                                  /usr/lib/gcc/arm-none-eabi/7.3.0/../../../../arm-none-eabi/lib/armv7e-m/fpu/libc_nano.a(lib_a-dtoa.o)
__mdiff                                           /usr/lib/gcc/arm-none-eabi/7.3.0/../../../../arm-none-eabi/lib/armv7e-m/fpu/libc_nano.a(lib_a-mprec.o)
                                                  /usr/lib/gcc/arm-none-eabi/7.3.0/../../../../arm-none-eabi/lib/armv7e-m/fpu/libc_nano.a(lib_a-dtoa.o)
__mprec_bigtens                                   /usr/lib/gcc/arm-none-eabi/7.3.0/../../../../arm-none-eabi/lib/armv7e-m/fpu/libc_nano.a(lib_a-mprec.o)
                                                  /usr/lib/gcc/arm-none-eabi/7.3.0/../../../../arm-none-eabi/lib/armv7e-m/fpu/libc_nano.a(lib_a-dtoa.o)
__mprec_tens                                      /usr/lib/gcc/arm-none-eabi/7.3.0/../../../../arm-none-eabi/lib/armv7e-m/fpu/libc_nano.a(lib_a-mprec.o)
                                                  /usr/lib/gcc/arm-none-eabi/7.3.0/../../../../arm-none-eabi/lib/armv7e-m/fpu/libc_nano.a(lib_a-dtoa.o)
__mprec_tinytens                                  /usr/lib/gcc/arm-none-eabi/7.3.0/../../../../arm-none-eabi/lib/armv7e-m/fpu/libc_nano.a(lib_a-mprec.o)
__muldf3                                          /usr/lib/gcc/arm-none-eabi/7.3.0/armv7e-m/fpu/libgcc.a(_arm_muldivdf3.o)
__multadd                                         /usr/lib/gcc/arm-none-eabi/7.3.0/../../../../arm-none-eabi/lib/armv7e-m/fpu/libc_nano.a(lib_a-mprec.o)
                                                  /usr/lib/gcc/arm-none-eabi/7.3.0/../../../../arm-none-eabi/lib/armv7e-m/fpu/libc_nano.a(lib_a-dtoa.o)
__multiply                                        /usr/lib/gcc/arm-none-eabi/7.3.0/../../../../arm-none-eabi/lib/armv7e-m/fpu/libc_nano.a(lib_a-mprec.o)
                                                  /usr/lib/gcc/arm-none-eabi/7.3.0/../../../../arm-none-eabi/lib/armv7e-m/fpu/libc_nano.a(lib_a-dtoa.o)
__nedf2                                           /usr/lib/gcc/arm-none-eabi/7.3.0/armv7e-m/fpu/libgcc.a(_arm_cmpdf2.o)
__on_exit_args                                    /usr/lib/gcc/arm-none-eabi/7.3.0/../../../../arm-none-eabi/lib/armv7e-m/fpu/libc_nano.a(lib_a-__atexit.o)
__pow5mult                                        /usr/lib/gcc/arm-none-eabi/7.3.0/../../../../arm-none-eabi/lib/armv7e-m/fpu/libc_nano.a(lib_a-mprec.o)
                                                  /usr/lib/gcc/arm-none-eabi/7.3.0/../../../../arm-none-eabi/lib/armv7e-m/fpu/libc_nano.a(lib_a-dtoa.o)
__preinit_array_end                               /usr/lib/gcc/arm-none-eabi/7.3.0/../../../../arm-none-eabi/lib/armv7e-m/fpu/libc_nano.a(lib_a-init.o)
__preinit_array_start                             /usr/lib/gcc/arm-none-eabi/7.3.0/../../../../arm-none-eabi/lib/armv7e-m/fpu/libc_nano.a(lib_a-init.o)
__ratio                                           /usr/lib/gcc/arm-none-eabi/7.3.0/../../../../arm-none-eabi/lib/armv7e-m/fpu/libc_nano.a(lib_a-mprec.o)
__register_exitproc                               /usr/lib/gcc/arm-none-eabi/7.3.0/../../../../arm-none-eabi/lib/armv7e-m/fpu/libc_nano.a(lib_a-__atexit.o)
                                                  /usr/lib/gcc/arm-none-eabi/7.3.0/../../../../arm-none-eabi/lib/armv7e-m/fpu/libc_nano.a(lib_a-atexit.o)
__register_frame_info                             /usr/lib/gcc/arm-none-eabi/7.3.0/armv7e-m/fpu/crtbegin.o
__s2b                                             /usr/lib/gcc/arm-none-eabi/7.3.0/../../../../arm-none-eabi/lib/armv7e-m/fpu/libc_nano.a(lib_a-mprec.o)
__sf_fake_stderr                                  /usr/lib/gcc/arm-none-eabi/7.3.0/../../../../arm-none-eabi/lib/armv7e-m/fpu/libc_nano.a(lib_a-impure.o)
__sf_fake_stdin                                   /usr/lib/gcc/arm-none-eabi/7.3.0/../../../../arm-none-eabi/lib/armv7e-m/fpu/libc_nano.a(lib_a-impure.o)
__sf_fake_stdout                                  /usr/lib/gcc/arm-none-eabi/7.3.0/../../../../arm-none-eabi/lib/armv7e-m/fpu/libc_nano.a(lib_a-impure.o)
__ssprint_r                                       /usr/lib/gcc/arm-none-eabi/7.3.0/../../../../arm-none-eabi/lib/armv7e-m/fpu/libc_nano.a(lib_a-nano-svfprintf.o)
__ssputs_r                                        /usr/lib/gcc/arm-none-eabi/7.3.0/../../../../arm-none-eabi/lib/armv7e-m/fpu/libc_nano.a(lib_a-nano-svfprintf.o)
__stack                                           /usr/lib/gcc/arm-none-eabi/7.3.0/../../../../arm-none-eabi/lib/armv7e-m/fpu/crt0.o
__subdf3                                          /usr/lib/gcc/arm-none-eabi/7.3.0/armv7e-m/fpu/libgcc.a(_arm_addsubdf3.o)
__truncdfsf2                                      /usr/lib/gcc/arm-none-eabi/7.3.0/armv7e-m/fpu/libgcc.a(_arm_truncdfsf2.o)
__udivmoddi4                                      /usr/lib/gcc/arm-none-eabi/7.3.0/armv7e-m/fpu/libgcc.a(_udivmoddi4.o)
                                                  /usr/lib/gcc/arm-none-eabi/7.3.0/armv7e-m/fpu/libgcc.a(_aeabi_uldivmod.o)
__ulp                                             /usr/lib/gcc/arm-none-eabi/7.3.0/../../../../arm-none-eabi/lib/armv7e-m/fpu/libc_nano.a(lib_a-mprec.o)
__unorddf2                                        /usr/lib/gcc/arm-none-eabi/7.3.0/armv7e-m/fpu/libgcc.a(_arm_unorddf2.o)
_calloc_r                                         /usr/lib/gcc/arm-none-eabi/7.3.0/../../../../arm-none-eabi/lib/armv7e-m/fpu/libc_nano.a(lib_a-nano-callocr.o)
                                                  /usr/lib/gcc/arm-none-eabi/7.3.0/../../../../arm-none-eabi/lib/armv7e-m/fpu/libc_nano.a(lib_a-mprec.o)
_ctype_                                           /usr/lib/gcc/arm-none-eabi/7.3.0/../../../../arm-none-eabi/lib/armv7e-m/fpu/libc_nano.a(lib_a-ctype_.o)
                                                  /usr/lib/gcc/arm-none-eabi/7.3.0/../../../../arm-none-eabi/lib/armv7e-m/fpu/libc_nano.a(lib_a-locale.o)
_dtoa_r                                           /usr/lib/gcc/arm-none-eabi/7.3.0/../../../../arm-none-eabi/lib/armv7e-m/fpu/libc_nano.a(lib_a-dtoa.o)
                                                  /usr/lib/gcc/arm-none-eabi/7.3.0/../../../../arm-none-eabi/lib/armv7e-m/fpu/libc_nano.a(lib_a-nano-vfprintf_float.o)
_ebss                                             build/startup_stm32f401xe.o
_edata                                            build/startup_stm32f401xe.o
_estack                                           build/startup_stm32f401xe.o
_exit                                             /usr/lib/gcc/arm-none-eabi/7.3.0/../../../../arm-none-eabi/lib/armv7e-m/fpu/libnosys.a(_exit.o)
                                                  /usr/lib/gcc/arm-none-eabi/7.3.0/../../../../arm-none-eabi/lib/armv7e-m/fpu/libc_nano.a(lib_a-exit.o)
_fini                                             /usr/lib/gcc/arm-none-eabi/7.3.0/armv7e-m/fpu/crti.o
                                                  /usr/lib/gcc/arm-none-eabi/7.3.0/../../../../arm-none-eabi/lib/armv7e-m/fpu/libc_nano.a(lib_a-fini.o)
_free_r                                           /usr/lib/gcc/arm-none-eabi/7.3.0/../../../../arm-none-eabi/lib/armv7e-m/fpu/libc_nano.a(lib_a-nano-freer.o)
                                                  /usr/lib/gcc/arm-none-eabi/7.3.0/../../../../arm-none-eabi/lib/armv7e-m/fpu/libc_nano.a(lib_a-reent.o)
                                                  /usr/lib/gcc/arm-none-eabi/7.3.0/../../../../arm-none-eabi/lib/armv7e-m/fpu/libc_nano.a(lib_a-nano-reallocr.o)
                                                  /usr/lib/gcc/arm-none-eabi/7.3.0/../../../../arm-none-eabi/lib/armv7e-m/fpu/libc_nano.a(lib_a-nano-svfprintf.o)
                                                  /usr/lib/gcc/arm-none-eabi/7.3.0/../../../../arm-none-eabi/lib/armv7e-m/fpu/libc_nano.a(lib_a-malloc.o)
_global_atexit                                    /usr/lib/gcc/arm-none-eabi/7.3.0/../../../../arm-none-eabi/lib/armv7e-m/fpu/libc_nano.a(lib_a-__call_atexit.o)
                                                  /usr/lib/gcc/arm-none-eabi/7.3.0/../../../../arm-none-eabi/lib/armv7e-m/fpu/libc_nano.a(lib_a-__atexit.o)
_global_impure_ptr                                /usr/lib/gcc/arm-none-eabi/7.3.0/../../../../arm-none-eabi/lib/armv7e-m/fpu/libc_nano.a(lib_a-impure.o)
                                                  /usr/lib/gcc/arm-none-eabi/7.3.0/../../../../arm-none-eabi/lib/armv7e-m/fpu/libc_nano.a(lib_a-exit.o)
_impure_ptr                                       /usr/lib/gcc/arm-none-eabi/7.3.0/../../../../arm-none-eabi/lib/armv7e-m/fpu/libc_nano.a(lib_a-impure.o)
                                                  /usr/lib/gcc/arm-none-eabi/7.3.0/../../../../arm-none-eabi/lib/armv7e-m/fpu/libc_nano.a(lib_a-errno.o)
                                                  /usr/lib/gcc/arm-none-eabi/7.3.0/../../../../arm-none-eabi/lib/armv7e-m/fpu/libc_nano.a(lib_a-reent.o)
                                                  /usr/lib/gcc/arm-none-eabi/7.3.0/../../../../arm-none-eabi/lib/armv7e-m/fpu/libc_nano.a(lib_a-wctomb_r.o)
                                                  /usr/lib/gcc/arm-none-eabi/7.3.0/../../../../arm-none-eabi/lib/armv7e-m/fpu/libc_nano.a(lib_a-mbtowc_r.o)
                                                  /usr/lib/gcc/arm-none-eabi/7.3.0/../../../../arm-none-eabi/lib/armv7e-m/fpu/libc_nano.a(lib_a-malloc.o)
                                                  /usr/lib/gcc/arm-none-eabi/7.3.0/../../../../arm-none-eabi/lib/armv7e-m/fpu/libc_nano.a(lib_a-locale.o)
                                                  /usr/lib/gcc/arm-none-eabi/7.3.0/../../../../arm-none-eabi/lib/armv7e-m/fpu/libc_nano.a(lib_a-localeconv.o)
                                                  /usr/lib/gcc/arm-none-eabi/7.3.0/../../../../arm-none-eabi/lib/armv7e-m/fpu/libc_nano.a(lib_a-vsnprintf.o)
_init                                             /usr/lib/gcc/arm-none-eabi/7.3.0/armv7e-m/fpu/crti.o
                                                  /usr/lib/gcc/arm-none-eabi/7.3.0/../../../../arm-none-eabi/lib/armv7e-m/fpu/libc_nano.a(lib_a-init.o)
_localeconv_r                                     /usr/lib/gcc/arm-none-eabi/7.3.0/../../../../arm-none-eabi/lib/armv7e-m/fpu/libc_nano.a(lib_a-localeconv.o)
                                                  /usr/lib/gcc/arm-none-eabi/7.3.0/../../../../arm-none-eabi/lib/armv7e-m/fpu/libc_nano.a(lib_a-nano-vfprintf_float.o)
_mainCRTStartup                                   /usr/lib/gcc/arm-none-eabi/7.3.0/../../../../arm-none-eabi/lib/armv7e-m/fpu/crt0.o
_malloc_r                                         /usr/lib/gcc/arm-none-eabi/7.3.0/../../../../arm-none-eabi/lib/armv7e-m/fpu/libc_nano.a(lib_a-nano-mallocr.o)
                                                  /usr/lib/gcc/arm-none-eabi/7.3.0/../../../../arm-none-eabi/lib/armv7e-m/fpu/libc_nano.a(lib_a-nano-reallocr.o)
                                                  /usr/lib/gcc/arm-none-eabi/7.3.0/../../../../arm-none-eabi/lib/armv7e-m/fpu/libc_nano.a(lib_a-nano-svfprintf.o)
                                                  /usr/lib/gcc/arm-none-eabi/7.3.0/../../../../arm-none-eabi/lib/armv7e-m/fpu/libc_nano.a(lib_a-nano-callocr.o)
                                                  /usr/lib/gcc/arm-none-eabi/7.3.0/../../../../arm-none-eabi/lib/armv7e-m/fpu/libc_nano.a(lib_a-malloc.o)
_malloc_usable_size_r                             /usr/lib/gcc/arm-none-eabi/7.3.0/../../../../arm-none-eabi/lib/armv7e-m/fpu/libc_nano.a(lib_a-nano-msizer.o)
                                                  /usr/lib/gcc/arm-none-eabi/7.3.0/../../../../arm-none-eabi/lib/armv7e-m/fpu/libc_nano.a(lib_a-nano-reallocr.o)
_mbtowc_r                                         /usr/lib/gcc/arm-none-eabi/7.3.0/../../../../arm-none-eabi/lib/armv7e-m/fpu/libc_nano.a(lib_a-mbtowc_r.o)
_mprec_log10                                      /usr/lib/gcc/arm-none-eabi/7.3.0/../../../../arm-none-eabi/lib/armv7e-m/fpu/libc_nano.a(lib_a-mprec.o)
_printf_common                                    /usr/lib/gcc/arm-none-eabi/7.3.0/../../../../arm-none-eabi/lib/armv7e-m/fpu/libc_nano.a(lib_a-nano-vfprintf_i.o)
                                                  /usr/lib/gcc/arm-none-eabi/7.3.0/../../../../arm-none-eabi/lib/armv7e-m/fpu/libc_nano.a(lib_a-nano-vfprintf_float.o)
_printf_float                                     /usr/lib/gcc/arm-none-eabi/7.3.0/../../../../arm-none-eabi/lib/armv7e-m/fpu/libc_nano.a(lib_a-nano-vfprintf_float.o)
                                                  /usr/lib/gcc/arm-none-eabi/7.3.0/../../../../arm-none-eabi/lib/armv7e-m/fpu/libc_nano.a(lib_a-nano-svfprintf.o)
_printf_i                                         /usr/lib/gcc/arm-none-eabi/7.3.0/../../../../arm-none-eabi/lib/armv7e-m/fpu/libc_nano.a(lib_a-nano-vfprintf_i.o)
                                                  /usr/lib/gcc/arm-none-eabi/7.3.0/../../../../arm-none-eabi/lib/armv7e-m/fpu/libc_nano.a(lib_a-nano-svfprintf.o)
_realloc_r                                        /usr/lib/gcc/arm-none-eabi/7.3.0/../../../../arm-none-eabi/lib/armv7e-m/fpu/libc_nano.a(lib_a-nano-reallocr.o)
                                                  /usr/lib/gcc/arm-none-eabi/7.3.0/../../../../arm-none-eabi/lib/armv7e-m/fpu/libc_nano.a(lib_a-nano-svfprintf.o)
_reclaim_reent                                    /usr/lib/gcc/arm-none-eabi/7.3.0/../../../../arm-none-eabi/lib/armv7e-m/fpu/libc_nano.a(lib_a-reent.o)
_sbrk                                             /usr/lib/gcc/arm-none-eabi/7.3.0/../../../../arm-none-eabi/lib/armv7e-m/fpu/libnosys.a(sbrk.o)
                                                  /usr/lib/gcc/arm-none-eabi/7.3.0/../../../../arm-none-eabi/lib/armv7e-m/fpu/libc_nano.a(lib_a-sbrkr.o)
_sbrk_r                                           /usr/lib/gcc/arm-none-eabi/7.3.0/../../../../arm-none-eabi/lib/armv7e-m/fpu/libc_nano.a(lib_a-sbrkr.o)
                                                  /usr/lib/gcc/arm-none-eabi/7.3.0/../../../../arm-none-eabi/lib/armv7e-m/fpu/libc_nano.a(lib_a-nano-mallocr.o)
_sbss                                             build/startup_stm32f401xe.o
_sdata                                            build/startup_stm32f401xe.o
_setlocale_r                                      /usr/lib/gcc/arm-none-eabi/7.3.0/../../../../arm-none-eabi/lib/armv7e-m/fpu/libc_nano.a(lib_a-locale.o)
_sidata                                           build/startup_stm32f401xe.o
_start                                            /usr/lib/gcc/arm-none-eabi/7.3.0/../../../../arm-none-eabi/lib/armv7e-m/fpu/crt0.o
_svfiprintf_r                                     /usr/lib/gcc/arm-none-eabi/7.3.0/../../../../arm-none-eabi/lib/armv7e-m/fpu/libc_nano.a(lib_a-nano-svfprintf.o)
_svfprintf_r                                      /usr/lib/gcc/arm-none-eabi/7.3.0/../../../../arm-none-eabi/lib/armv7e-m/fpu/libc_nano.a(lib_a-nano-svfprintf.o)
                                                  /usr/lib/gcc/arm-none-eabi/7.3.0/../../../../arm-none-eabi/lib/armv7e-m/fpu/libc_nano.a(lib_a-vsnprintf.o)
_trace_functions                                  build/vl53l0x_platform_log.o
_trace_level                                      build/vl53l0x_platform_log.o
_trace_modules                                    build/vl53l0x_platform_log.o
_vsniprintf_r                                     /usr/lib/gcc/arm-none-eabi/7.3.0/../../../../arm-none-eabi/lib/armv7e-m/fpu/libc_nano.a(lib_a-vsnprintf.o)
_vsnprintf_r                                      /usr/lib/gcc/arm-none-eabi/7.3.0/../../../../arm-none-eabi/lib/armv7e-m/fpu/libc_nano.a(lib_a-vsnprintf.o)
_wctomb_r                                         /usr/lib/gcc/arm-none-eabi/7.3.0/../../../../arm-none-eabi/lib/armv7e-m/fpu/libc_nano.a(lib_a-wctomb_r.o)
atan                                              /usr/lib/gcc/arm-none-eabi/7.3.0/../../../../arm-none-eabi/lib/armv7e-m/fpu/libm.a(lib_a-s_atan.o)
                                                  /usr/lib/gcc/arm-none-eabi/7.3.0/../../../../arm-none-eabi/lib/armv7e-m/fpu/libm.a(lib_a-e_atan2.o)
atan2                                             /usr/lib/gcc/arm-none-eabi/7.3.0/../../../../arm-none-eabi/lib/armv7e-m/fpu/libm.a(lib_a-w_atan2.o)
                                                  build/gas.o
                                                  build/strategy.o
atexit                                            /usr/lib/gcc/arm-none-eabi/7.3.0/../../../../arm-none-eabi/lib/armv7e-m/fpu/libc_nano.a(lib_a-atexit.o)
                                                  /usr/lib/gcc/arm-none-eabi/7.3.0/../../../../arm-none-eabi/lib/armv7e-m/fpu/crt0.o
build_ctx                                         build/strategy.o
                                                  build/build.o
cleanup_glue                                      /usr/lib/gcc/arm-none-eabi/7.3.0/../../../../arm-none-eabi/lib/armv7e-m/fpu/libc_nano.a(lib_a-reent.o)
color_str                                         build/strategy.o
copysign                                          /usr/lib/gcc/arm-none-eabi/7.3.0/../../../../arm-none-eabi/lib/armv7e-m/fpu/libm.a(lib_a-s_copysign.o)
                                                  /usr/lib/gcc/arm-none-eabi/7.3.0/../../../../arm-none-eabi/lib/armv7e-m/fpu/libm.a(lib_a-s_scalbn.o)
cos                                               /usr/lib/gcc/arm-none-eabi/7.3.0/../../../../arm-none-eabi/lib/armv7e-m/fpu/libm.a(lib_a-s_cos.o)
                                                  build/build.o
                                                  build/gas.o
                                                  build/obstacle.o
count_enabled_spads                               build/vl53l0x_api_calibration.o
crc_table                                         build/crc_16.o
                                                  build/robotronik_protocol.o
cube                                              build/strategy.o
                                                  build/build.o
                                                  build/map.o
empty_heap                                        build/heap.o
                                                  build/astar.o
enable_ref_spads                                  build/vl53l0x_api_calibration.o
enable_spad_bit                                   build/vl53l0x_api_calibration.o
end                                               /usr/lib/gcc/arm-none-eabi/7.3.0/../../../../arm-none-eabi/lib/armv7e-m/fpu/libnosys.a(sbrk.o)
errno                                             /usr/lib/gcc/arm-none-eabi/7.3.0/../../../../arm-none-eabi/lib/armv7e-m/fpu/libc_nano.a(lib_a-reent.o)
                                                  /usr/lib/gcc/arm-none-eabi/7.3.0/../../../../arm-none-eabi/lib/armv7e-m/fpu/libc_nano.a(lib_a-sbrkr.o)
exit                                              /usr/lib/gcc/arm-none-eabi/7.3.0/../../../../arm-none-eabi/lib/armv7e-m/fpu/libc_nano.a(lib_a-exit.o)
                                                  /usr/lib/gcc/arm-none-eabi/7.3.0/../../../../arm-none-eabi/lib/armv7e-m/fpu/crt0.o
fabs                                              /usr/lib/gcc/arm-none-eabi/7.3.0/../../../../arm-none-eabi/lib/armv7e-m/fpu/libm.a(lib_a-s_fabs.o)
                                                  /usr/lib/gcc/arm-none-eabi/7.3.0/../../../../arm-none-eabi/lib/armv7e-m/fpu/libm.a(lib_a-s_atan.o)
                                                  /usr/lib/gcc/arm-none-eabi/7.3.0/../../../../arm-none-eabi/lib/armv7e-m/fpu/libm.a(lib_a-e_rem_pio2.o)
                                                  /usr/lib/gcc/arm-none-eabi/7.3.0/../../../../arm-none-eabi/lib/armv7e-m/fpu/libm.a(lib_a-e_pow.o)
                                                  /usr/lib/gcc/arm-none-eabi/7.3.0/../../../../arm-none-eabi/lib/armv7e-m/fpu/libm.a(lib_a-e_atan2.o)
finite                                            /usr/lib/gcc/arm-none-eabi/7.3.0/../../../../arm-none-eabi/lib/armv7e-m/fpu/libm.a(lib_a-s_finite.o)
                                                  /usr/lib/gcc/arm-none-eabi/7.3.0/../../../../arm-none-eabi/lib/armv7e-m/fpu/libm.a(lib_a-w_pow.o)
floor                                             /usr/lib/gcc/arm-none-eabi/7.3.0/../../../../arm-none-eabi/lib/armv7e-m/fpu/libm.a(lib_a-s_floor.o)
                                                  /usr/lib/gcc/arm-none-eabi/7.3.0/../../../../arm-none-eabi/lib/armv7e-m/fpu/libm.a(lib_a-k_rem_pio2.o)
free                                              /usr/lib/gcc/arm-none-eabi/7.3.0/../../../../arm-none-eabi/lib/armv7e-m/fpu/libc_nano.a(lib_a-malloc.o)
                                                  /usr/lib/gcc/arm-none-eabi/7.3.0/../../../../arm-none-eabi/lib/armv7e-m/fpu/libc_nano.a(lib_a-__call_atexit.o)
from_x                                            build/strategy.o
from_y                                            build/strategy.o
g_pfnVectors                                      build/startup_stm32f401xe.o
get_next_good_spad                                build/vl53l0x_api_calibration.o
get_ref_spad_map                                  build/vl53l0x_api_calibration.o
get_sequence_step_timeout                         build/vl53l0x_api_core.o
                                                  build/vl53l0x_api.o
hardware_init_hook                                /usr/lib/gcc/arm-none-eabi/7.3.0/../../../../arm-none-eabi/lib/armv7e-m/fpu/crt0.o
hi2c1                                             build/i2c.o
hi2c3                                             build/i2c.o
                                                  build/stm32f4xx_it.o
                                                  build/main.o
hlt                                               build/system.o
                                                  build/main.o
htim2                                             build/tim.o
                                                  build/stm32f4xx_it.o
                                                  build/system.o
htim3                                             build/tim.o
                                                  build/stm32f4xx_it.o
                                                  build/system.o
insert                                            build/heap.o
                                                  build/astar.o
is_aperture                                       build/vl53l0x_api_calibration.o
is_empty                                          build/heap.o
                                                  build/astar.o
is_full                                           build/heap.o
localeconv                                        /usr/lib/gcc/arm-none-eabi/7.3.0/../../../../arm-none-eabi/lib/armv7e-m/fpu/libc_nano.a(lib_a-localeconv.o)
main                                              build/main.o
                                                  build/startup_stm32f401xe.o
                                                  /usr/lib/gcc/arm-none-eabi/7.3.0/../../../../arm-none-eabi/lib/armv7e-m/fpu/crt0.o
malloc                                            /usr/lib/gcc/arm-none-eabi/7.3.0/../../../../arm-none-eabi/lib/armv7e-m/fpu/libc_nano.a(lib_a-malloc.o)
                                                  /usr/lib/gcc/arm-none-eabi/7.3.0/../../../../arm-none-eabi/lib/armv7e-m/fpu/libc_nano.a(lib_a-mprec.o)
                                                  /usr/lib/gcc/arm-none-eabi/7.3.0/../../../../arm-none-eabi/lib/armv7e-m/fpu/libc_nano.a(lib_a-dtoa.o)
                                                  /usr/lib/gcc/arm-none-eabi/7.3.0/../../../../arm-none-eabi/lib/armv7e-m/fpu/libc_nano.a(lib_a-__atexit.o)
map                                               build/map.o
                                                  build/obstacle.o
                                                  build/astar.o
matherr                                           /usr/lib/gcc/arm-none-eabi/7.3.0/../../../../arm-none-eabi/lib/armv7e-m/fpu/libm.a(lib_a-s_matherr.o)
                                                  /usr/lib/gcc/arm-none-eabi/7.3.0/../../../../arm-none-eabi/lib/armv7e-m/fpu/libm.a(lib_a-w_sqrt.o)
                                                  /usr/lib/gcc/arm-none-eabi/7.3.0/../../../../arm-none-eabi/lib/armv7e-m/fpu/libm.a(lib_a-w_pow.o)
me                                                build/strategy.o
                                                  build/tim.o
                                                  build/main.o
                                                  build/build.o
                                                  build/position_client.o
                                                  build/gas.o
                                                  build/obstacle.o
memchr                                            /usr/lib/gcc/arm-none-eabi/7.3.0/../../../../arm-none-eabi/lib/armv7e-m/fpu/libc_nano.a(lib_a-memchr.o)
                                                  /usr/lib/gcc/arm-none-eabi/7.3.0/../../../../arm-none-eabi/lib/armv7e-m/fpu/libc_nano.a(lib_a-nano-svfprintf.o)
                                                  /usr/lib/gcc/arm-none-eabi/7.3.0/../../../../arm-none-eabi/lib/armv7e-m/fpu/libc_nano.a(lib_a-nano-vfprintf_i.o)
memcpy                                            /usr/lib/gcc/arm-none-eabi/7.3.0/../../../../arm-none-eabi/lib/armv7e-m/fpu/libc_nano.a(lib_a-memcpy-stub.o)
                                                  /usr/lib/gcc/arm-none-eabi/7.3.0/../../../../arm-none-eabi/lib/armv7e-m/fpu/libc_nano.a(lib_a-nano-reallocr.o)
                                                  /usr/lib/gcc/arm-none-eabi/7.3.0/../../../../arm-none-eabi/lib/armv7e-m/fpu/libc_nano.a(lib_a-nano-svfprintf.o)
                                                  /usr/lib/gcc/arm-none-eabi/7.3.0/../../../../arm-none-eabi/lib/armv7e-m/fpu/libc_nano.a(lib_a-mprec.o)
                                                  /usr/lib/gcc/arm-none-eabi/7.3.0/../../../../arm-none-eabi/lib/armv7e-m/fpu/libc_nano.a(lib_a-dtoa.o)
                                                  build/vl53l0x_platform.o
memmove                                           /usr/lib/gcc/arm-none-eabi/7.3.0/../../../../arm-none-eabi/lib/armv7e-m/fpu/libc_nano.a(lib_a-memmove.o)
                                                  /usr/lib/gcc/arm-none-eabi/7.3.0/../../../../arm-none-eabi/lib/armv7e-m/fpu/libc_nano.a(lib_a-nano-svfprintf.o)
memset                                            /usr/lib/gcc/arm-none-eabi/7.3.0/../../../../arm-none-eabi/lib/armv7e-m/fpu/libc_nano.a(lib_a-memset.o)
                                                  /usr/lib/gcc/arm-none-eabi/7.3.0/../../../../arm-none-eabi/lib/armv7e-m/fpu/libc_nano.a(lib_a-nano-callocr.o)
                                                  build/vl53l0x_api.o
                                                  /usr/lib/gcc/arm-none-eabi/7.3.0/../../../../arm-none-eabi/lib/armv7e-m/fpu/crt0.o
nan                                               /usr/lib/gcc/arm-none-eabi/7.3.0/../../../../arm-none-eabi/lib/armv7e-m/fpu/libm.a(lib_a-s_nan.o)
                                                  /usr/lib/gcc/arm-none-eabi/7.3.0/../../../../arm-none-eabi/lib/armv7e-m/fpu/libm.a(lib_a-e_pow.o)
nb_obstacles                                      build/obstacle.o
obstacle                                          build/obstacle.o
pFlash                                            build/stm32f4xx_hal_flash.o
                                                  build/stm32f4xx_hal_flash_ex.o
peek                                              build/heap.o
                                                  build/astar.o
perform_ref_signal_measurement                    build/vl53l0x_api_calibration.o
pi_iface                                          build/usart.o
                                                  build/stm32f4xx_it.o
                                                  build/main.o
                                                  build/pi_client.o
pop                                               build/heap.o
                                                  build/astar.o
pos_iface                                         build/usart.o
                                                  build/stm32f4xx_it.o
                                                  build/main.o
                                                  build/position_client.o
pow                                               /usr/lib/gcc/arm-none-eabi/7.3.0/../../../../arm-none-eabi/lib/armv7e-m/fpu/libm.a(lib_a-w_pow.o)
                                                  build/gas.o
                                                  build/strategy.o
                                                  build/obstacle.o
qsort                                             /usr/lib/gcc/arm-none-eabi/7.3.0/../../../../arm-none-eabi/lib/armv7e-m/fpu/libc_nano.a(lib_a-qsort.o)
                                                  build/strategy.o
refArrayQuadrants                                 build/vl53l0x_api_calibration.o
remote_stop                                       build/system.o
                                                  build/usart.o
rint                                              /usr/lib/gcc/arm-none-eabi/7.3.0/../../../../arm-none-eabi/lib/armv7e-m/fpu/libm.a(lib_a-s_rint.o)
                                                  /usr/lib/gcc/arm-none-eabi/7.3.0/../../../../arm-none-eabi/lib/armv7e-m/fpu/libm.a(lib_a-w_pow.o)
scalbn                                            /usr/lib/gcc/arm-none-eabi/7.3.0/../../../../arm-none-eabi/lib/armv7e-m/fpu/libm.a(lib_a-s_scalbn.o)
                                                  /usr/lib/gcc/arm-none-eabi/7.3.0/../../../../arm-none-eabi/lib/armv7e-m/fpu/libm.a(lib_a-k_rem_pio2.o)
                                                  /usr/lib/gcc/arm-none-eabi/7.3.0/../../../../arm-none-eabi/lib/armv7e-m/fpu/libm.a(lib_a-e_pow.o)
score                                             build/strategy.o
sensor_raw                                        build/obstacle.o
sequence_step_enabled                             build/vl53l0x_api.o
set                                               build/strategy.o
set_ref_spad_map                                  build/vl53l0x_api_calibration.o
set_sequence_step_timeout                         build/vl53l0x_api_core.o
                                                  build/vl53l0x_api.o
setlocale                                         /usr/lib/gcc/arm-none-eabi/7.3.0/../../../../arm-none-eabi/lib/armv7e-m/fpu/libc_nano.a(lib_a-locale.o)
sin                                               /usr/lib/gcc/arm-none-eabi/7.3.0/../../../../arm-none-eabi/lib/armv7e-m/fpu/libm.a(lib_a-s_sin.o)
                                                  build/build.o
                                                  build/gas.o
                                                  build/obstacle.o
software_init_hook                                /usr/lib/gcc/arm-none-eabi/7.3.0/../../../../arm-none-eabi/lib/armv7e-m/fpu/crt0.o
sqrt                                              /usr/lib/gcc/arm-none-eabi/7.3.0/../../../../arm-none-eabi/lib/armv7e-m/fpu/libm.a(lib_a-w_sqrt.o)
                                                  build/gas.o
                                                  build/strategy.o
                                                  build/obstacle.o
                                                  build/map.o
stop                                              build/system.o
                                                  build/tim.o
strat                                             build/strategy.o
                                                  build/build.o
strcmp                                            /usr/lib/gcc/arm-none-eabi/7.3.0/../../../../arm-none-eabi/lib/armv7e-m/fpu/libc_nano.a(lib_a-strcmp.o)
                                                  /usr/lib/gcc/arm-none-eabi/7.3.0/../../../../arm-none-eabi/lib/armv7e-m/fpu/libc_nano.a(lib_a-locale.o)
strcpy                                            /usr/lib/gcc/arm-none-eabi/7.3.0/../../../../arm-none-eabi/lib/armv7e-m/fpu/libc_nano.a(lib_a-strcpy.o)
                                                  build/vl53l0x_api_strings.o
                                                  build/vl53l0x_api_core.o
strlen                                            /usr/lib/gcc/arm-none-eabi/7.3.0/../../../../arm-none-eabi/lib/armv7e-m/fpu/libc_nano.a(lib_a-strlen.o)
                                                  /usr/lib/gcc/arm-none-eabi/7.3.0/../../../../arm-none-eabi/lib/armv7e-m/fpu/libc_nano.a(lib_a-nano-vfprintf_float.o)
team                                              build/strategy.o
                                                  build/main.o
                                                  build/system.o
tof                                               build/main.o
                                                  build/tim.o
                                                  build/system.o
uwTick                                            build/stm32f4xx_hal.o
uwTickFreq                                        build/stm32f4xx_hal.o
uwTickPrio                                        build/stm32f4xx_hal.o
vsniprintf                                        /usr/lib/gcc/arm-none-eabi/7.3.0/../../../../arm-none-eabi/lib/armv7e-m/fpu/libc_nano.a(lib_a-vsnprintf.o)
vsnprintf                                         /usr/lib/gcc/arm-none-eabi/7.3.0/../../../../arm-none-eabi/lib/armv7e-m/fpu/libc_nano.a(lib_a-vsnprintf.o)
                                                  build/pi_client.o
wait_start                                        build/system.o
                                                  build/main.o
z_iface                                           build/usart.o
                                                  build/stm32f4xx_it.o
                                                  build/main.o
                                                  build/z_client.o
