ARM GAS  /tmp/cc27aTiH.s 			page 1


   1              		.cpu cortex-m4
   2              		.eabi_attribute 27, 1
   3              		.eabi_attribute 28, 1
   4              		.eabi_attribute 20, 1
   5              		.eabi_attribute 21, 1
   6              		.eabi_attribute 23, 3
   7              		.eabi_attribute 24, 1
   8              		.eabi_attribute 25, 1
   9              		.eabi_attribute 26, 1
  10              		.eabi_attribute 30, 1
  11              		.eabi_attribute 34, 1
  12              		.eabi_attribute 18, 4
  13              		.file	"i2c.c"
  14              		.text
  15              	.Ltext0:
  16              		.cfi_sections	.debug_frame
  17              		.section	.text.MX_I2C1_Init,"ax",%progbits
  18              		.align	1
  19              		.global	MX_I2C1_Init
  20              		.syntax unified
  21              		.thumb
  22              		.thumb_func
  23              		.fpu fpv4-sp-d16
  25              	MX_I2C1_Init:
  26              	.LFB126:
  27              		.file 1 "Src/i2c.c"
   1:Src/i2c.c     **** /**
   2:Src/i2c.c     ****   ******************************************************************************
   3:Src/i2c.c     ****   * File Name          : I2C.c
   4:Src/i2c.c     ****   * Description        : This file provides code for the configuration
   5:Src/i2c.c     ****   *                      of the I2C instances.
   6:Src/i2c.c     ****   ******************************************************************************
   7:Src/i2c.c     ****   ** This notice applies to any and all portions of this file
   8:Src/i2c.c     ****   * that are not between comment pairs USER CODE BEGIN and
   9:Src/i2c.c     ****   * USER CODE END. Other portions of this file, whether 
  10:Src/i2c.c     ****   * inserted by the user or by software development tools
  11:Src/i2c.c     ****   * are owned by their respective copyright owners.
  12:Src/i2c.c     ****   *
  13:Src/i2c.c     ****   * COPYRIGHT(c) 2018 STMicroelectronics
  14:Src/i2c.c     ****   *
  15:Src/i2c.c     ****   * Redistribution and use in source and binary forms, with or without modification,
  16:Src/i2c.c     ****   * are permitted provided that the following conditions are met:
  17:Src/i2c.c     ****   *   1. Redistributions of source code must retain the above copyright notice,
  18:Src/i2c.c     ****   *      this list of conditions and the following disclaimer.
  19:Src/i2c.c     ****   *   2. Redistributions in binary form must reproduce the above copyright notice,
  20:Src/i2c.c     ****   *      this list of conditions and the following disclaimer in the documentation
  21:Src/i2c.c     ****   *      and/or other materials provided with the distribution.
  22:Src/i2c.c     ****   *   3. Neither the name of STMicroelectronics nor the names of its contributors
  23:Src/i2c.c     ****   *      may be used to endorse or promote products derived from this software
  24:Src/i2c.c     ****   *      without specific prior written permission.
  25:Src/i2c.c     ****   *
  26:Src/i2c.c     ****   * THIS SOFTWARE IS PROVIDED BY THE COPYRIGHT HOLDERS AND CONTRIBUTORS "AS IS"
  27:Src/i2c.c     ****   * AND ANY EXPRESS OR IMPLIED WARRANTIES, INCLUDING, BUT NOT LIMITED TO, THE
  28:Src/i2c.c     ****   * IMPLIED WARRANTIES OF MERCHANTABILITY AND FITNESS FOR A PARTICULAR PURPOSE ARE
  29:Src/i2c.c     ****   * DISCLAIMED. IN NO EVENT SHALL THE COPYRIGHT HOLDER OR CONTRIBUTORS BE LIABLE
  30:Src/i2c.c     ****   * FOR ANY DIRECT, INDIRECT, INCIDENTAL, SPECIAL, EXEMPLARY, OR CONSEQUENTIAL
  31:Src/i2c.c     ****   * DAMAGES (INCLUDING, BUT NOT LIMITED TO, PROCUREMENT OF SUBSTITUTE GOODS OR
ARM GAS  /tmp/cc27aTiH.s 			page 2


  32:Src/i2c.c     ****   * SERVICES; LOSS OF USE, DATA, OR PROFITS; OR BUSINESS INTERRUPTION) HOWEVER
  33:Src/i2c.c     ****   * CAUSED AND ON ANY THEORY OF LIABILITY, WHETHER IN CONTRACT, STRICT LIABILITY,
  34:Src/i2c.c     ****   * OR TORT (INCLUDING NEGLIGENCE OR OTHERWISE) ARISING IN ANY WAY OUT OF THE USE
  35:Src/i2c.c     ****   * OF THIS SOFTWARE, EVEN IF ADVISED OF THE POSSIBILITY OF SUCH DAMAGE.
  36:Src/i2c.c     ****   *
  37:Src/i2c.c     ****   ******************************************************************************
  38:Src/i2c.c     ****   */
  39:Src/i2c.c     **** 
  40:Src/i2c.c     **** /* Includes ------------------------------------------------------------------*/
  41:Src/i2c.c     **** #include "i2c.h"
  42:Src/i2c.c     **** 
  43:Src/i2c.c     **** #include "gpio.h"
  44:Src/i2c.c     **** 
  45:Src/i2c.c     **** /* USER CODE BEGIN 0 */
  46:Src/i2c.c     **** 
  47:Src/i2c.c     **** /* USER CODE END 0 */
  48:Src/i2c.c     **** 
  49:Src/i2c.c     **** I2C_HandleTypeDef hi2c1;
  50:Src/i2c.c     **** I2C_HandleTypeDef hi2c3;
  51:Src/i2c.c     **** 
  52:Src/i2c.c     **** /* I2C1 init function */
  53:Src/i2c.c     **** void MX_I2C1_Init(void)
  54:Src/i2c.c     **** {
  28              		.loc 1 54 0
  29              		.cfi_startproc
  30              		@ args = 0, pretend = 0, frame = 0
  31              		@ frame_needed = 0, uses_anonymous_args = 0
  32 0000 08B5     		push	{r3, lr}
  33              	.LCFI0:
  34              		.cfi_def_cfa_offset 8
  35              		.cfi_offset 3, -8
  36              		.cfi_offset 14, -4
  55:Src/i2c.c     **** 
  56:Src/i2c.c     ****   hi2c1.Instance = I2C1;
  37              		.loc 1 56 0
  38 0002 0C48     		ldr	r0, .L5
  39 0004 0C4B     		ldr	r3, .L5+4
  40 0006 0360     		str	r3, [r0]
  57:Src/i2c.c     ****   hi2c1.Init.ClockSpeed = 100000;
  41              		.loc 1 57 0
  42 0008 0C4B     		ldr	r3, .L5+8
  43 000a 4360     		str	r3, [r0, #4]
  58:Src/i2c.c     ****   hi2c1.Init.DutyCycle = I2C_DUTYCYCLE_2;
  44              		.loc 1 58 0
  45 000c 0023     		movs	r3, #0
  46 000e 8360     		str	r3, [r0, #8]
  59:Src/i2c.c     ****   hi2c1.Init.OwnAddress1 = 0;
  47              		.loc 1 59 0
  48 0010 C360     		str	r3, [r0, #12]
  60:Src/i2c.c     ****   hi2c1.Init.AddressingMode = I2C_ADDRESSINGMODE_7BIT;
  49              		.loc 1 60 0
  50 0012 4FF48042 		mov	r2, #16384
  51 0016 0261     		str	r2, [r0, #16]
  61:Src/i2c.c     ****   hi2c1.Init.DualAddressMode = I2C_DUALADDRESS_DISABLE;
  52              		.loc 1 61 0
  53 0018 4361     		str	r3, [r0, #20]
  62:Src/i2c.c     ****   hi2c1.Init.OwnAddress2 = 0;
ARM GAS  /tmp/cc27aTiH.s 			page 3


  54              		.loc 1 62 0
  55 001a 8361     		str	r3, [r0, #24]
  63:Src/i2c.c     ****   hi2c1.Init.GeneralCallMode = I2C_GENERALCALL_DISABLE;
  56              		.loc 1 63 0
  57 001c C361     		str	r3, [r0, #28]
  64:Src/i2c.c     ****   hi2c1.Init.NoStretchMode = I2C_NOSTRETCH_DISABLE;
  58              		.loc 1 64 0
  59 001e 0362     		str	r3, [r0, #32]
  65:Src/i2c.c     ****   if (HAL_I2C_Init(&hi2c1) != HAL_OK)
  60              		.loc 1 65 0
  61 0020 FFF7FEFF 		bl	HAL_I2C_Init
  62              	.LVL0:
  63 0024 00B9     		cbnz	r0, .L4
  64              	.L1:
  66:Src/i2c.c     ****   {
  67:Src/i2c.c     ****     _Error_Handler(__FILE__, __LINE__);
  68:Src/i2c.c     ****   }
  69:Src/i2c.c     **** 
  70:Src/i2c.c     **** }
  65              		.loc 1 70 0
  66 0026 08BD     		pop	{r3, pc}
  67              	.L4:
  67:Src/i2c.c     ****   }
  68              		.loc 1 67 0
  69 0028 4321     		movs	r1, #67
  70 002a 0548     		ldr	r0, .L5+12
  71 002c FFF7FEFF 		bl	_Error_Handler
  72              	.LVL1:
  73              		.loc 1 70 0
  74 0030 F9E7     		b	.L1
  75              	.L6:
  76 0032 00BF     		.align	2
  77              	.L5:
  78 0034 00000000 		.word	hi2c1
  79 0038 00540040 		.word	1073763328
  80 003c A0860100 		.word	100000
  81 0040 00000000 		.word	.LC0
  82              		.cfi_endproc
  83              	.LFE126:
  85              		.section	.text.MX_I2C3_Init,"ax",%progbits
  86              		.align	1
  87              		.global	MX_I2C3_Init
  88              		.syntax unified
  89              		.thumb
  90              		.thumb_func
  91              		.fpu fpv4-sp-d16
  93              	MX_I2C3_Init:
  94              	.LFB127:
  71:Src/i2c.c     **** /* I2C3 init function */
  72:Src/i2c.c     **** void MX_I2C3_Init(void)
  73:Src/i2c.c     **** {
  95              		.loc 1 73 0
  96              		.cfi_startproc
  97              		@ args = 0, pretend = 0, frame = 0
  98              		@ frame_needed = 0, uses_anonymous_args = 0
  99 0000 08B5     		push	{r3, lr}
 100              	.LCFI1:
ARM GAS  /tmp/cc27aTiH.s 			page 4


 101              		.cfi_def_cfa_offset 8
 102              		.cfi_offset 3, -8
 103              		.cfi_offset 14, -4
  74:Src/i2c.c     **** 
  75:Src/i2c.c     ****   hi2c3.Instance = I2C3;
 104              		.loc 1 75 0
 105 0002 0C48     		ldr	r0, .L11
 106 0004 0C4B     		ldr	r3, .L11+4
 107 0006 0360     		str	r3, [r0]
  76:Src/i2c.c     ****   hi2c3.Init.ClockSpeed = 400000;
 108              		.loc 1 76 0
 109 0008 0C4B     		ldr	r3, .L11+8
 110 000a 4360     		str	r3, [r0, #4]
  77:Src/i2c.c     ****   hi2c3.Init.DutyCycle = I2C_DUTYCYCLE_2;
 111              		.loc 1 77 0
 112 000c 0023     		movs	r3, #0
 113 000e 8360     		str	r3, [r0, #8]
  78:Src/i2c.c     ****   hi2c3.Init.OwnAddress1 = 0;
 114              		.loc 1 78 0
 115 0010 C360     		str	r3, [r0, #12]
  79:Src/i2c.c     ****   hi2c3.Init.AddressingMode = I2C_ADDRESSINGMODE_7BIT;
 116              		.loc 1 79 0
 117 0012 4FF48042 		mov	r2, #16384
 118 0016 0261     		str	r2, [r0, #16]
  80:Src/i2c.c     ****   hi2c3.Init.DualAddressMode = I2C_DUALADDRESS_DISABLE;
 119              		.loc 1 80 0
 120 0018 4361     		str	r3, [r0, #20]
  81:Src/i2c.c     ****   hi2c3.Init.OwnAddress2 = 0;
 121              		.loc 1 81 0
 122 001a 8361     		str	r3, [r0, #24]
  82:Src/i2c.c     ****   hi2c3.Init.GeneralCallMode = I2C_GENERALCALL_DISABLE;
 123              		.loc 1 82 0
 124 001c C361     		str	r3, [r0, #28]
  83:Src/i2c.c     ****   hi2c3.Init.NoStretchMode = I2C_NOSTRETCH_DISABLE;
 125              		.loc 1 83 0
 126 001e 0362     		str	r3, [r0, #32]
  84:Src/i2c.c     ****   if (HAL_I2C_Init(&hi2c3) != HAL_OK)
 127              		.loc 1 84 0
 128 0020 FFF7FEFF 		bl	HAL_I2C_Init
 129              	.LVL2:
 130 0024 00B9     		cbnz	r0, .L10
 131              	.L7:
  85:Src/i2c.c     ****   {
  86:Src/i2c.c     ****     _Error_Handler(__FILE__, __LINE__);
  87:Src/i2c.c     ****   }
  88:Src/i2c.c     **** 
  89:Src/i2c.c     **** }
 132              		.loc 1 89 0
 133 0026 08BD     		pop	{r3, pc}
 134              	.L10:
  86:Src/i2c.c     ****   }
 135              		.loc 1 86 0
 136 0028 5621     		movs	r1, #86
 137 002a 0548     		ldr	r0, .L11+12
 138 002c FFF7FEFF 		bl	_Error_Handler
 139              	.LVL3:
 140              		.loc 1 89 0
ARM GAS  /tmp/cc27aTiH.s 			page 5


 141 0030 F9E7     		b	.L7
 142              	.L12:
 143 0032 00BF     		.align	2
 144              	.L11:
 145 0034 00000000 		.word	hi2c3
 146 0038 005C0040 		.word	1073765376
 147 003c 801A0600 		.word	400000
 148 0040 00000000 		.word	.LC0
 149              		.cfi_endproc
 150              	.LFE127:
 152              		.section	.text.HAL_I2C_MspInit,"ax",%progbits
 153              		.align	1
 154              		.global	HAL_I2C_MspInit
 155              		.syntax unified
 156              		.thumb
 157              		.thumb_func
 158              		.fpu fpv4-sp-d16
 160              	HAL_I2C_MspInit:
 161              	.LFB128:
  90:Src/i2c.c     **** 
  91:Src/i2c.c     **** void HAL_I2C_MspInit(I2C_HandleTypeDef* i2cHandle)
  92:Src/i2c.c     **** {
 162              		.loc 1 92 0
 163              		.cfi_startproc
 164              		@ args = 0, pretend = 0, frame = 32
 165              		@ frame_needed = 0, uses_anonymous_args = 0
 166              	.LVL4:
 167 0000 70B5     		push	{r4, r5, r6, lr}
 168              	.LCFI2:
 169              		.cfi_def_cfa_offset 16
 170              		.cfi_offset 4, -16
 171              		.cfi_offset 5, -12
 172              		.cfi_offset 6, -8
 173              		.cfi_offset 14, -4
 174 0002 88B0     		sub	sp, sp, #32
 175              	.LCFI3:
 176              		.cfi_def_cfa_offset 48
  93:Src/i2c.c     **** 
  94:Src/i2c.c     ****   GPIO_InitTypeDef GPIO_InitStruct;
  95:Src/i2c.c     ****   if(i2cHandle->Instance==I2C1)
 177              		.loc 1 95 0
 178 0004 0368     		ldr	r3, [r0]
 179 0006 284A     		ldr	r2, .L19
 180 0008 9342     		cmp	r3, r2
 181 000a 04D0     		beq	.L17
  96:Src/i2c.c     ****   {
  97:Src/i2c.c     ****   /* USER CODE BEGIN I2C1_MspInit 0 */
  98:Src/i2c.c     **** 
  99:Src/i2c.c     ****   /* USER CODE END I2C1_MspInit 0 */
 100:Src/i2c.c     ****   
 101:Src/i2c.c     ****     /**I2C1 GPIO Configuration    
 102:Src/i2c.c     ****     PB6     ------> I2C1_SCL
 103:Src/i2c.c     ****     PB7     ------> I2C1_SDA 
 104:Src/i2c.c     ****     */
 105:Src/i2c.c     ****     GPIO_InitStruct.Pin = GPIO_PIN_6|GPIO_PIN_7;
 106:Src/i2c.c     ****     GPIO_InitStruct.Mode = GPIO_MODE_AF_OD;
 107:Src/i2c.c     ****     GPIO_InitStruct.Pull = GPIO_PULLUP;
ARM GAS  /tmp/cc27aTiH.s 			page 6


 108:Src/i2c.c     ****     GPIO_InitStruct.Speed = GPIO_SPEED_FREQ_VERY_HIGH;
 109:Src/i2c.c     ****     GPIO_InitStruct.Alternate = GPIO_AF4_I2C1;
 110:Src/i2c.c     ****     HAL_GPIO_Init(GPIOB, &GPIO_InitStruct);
 111:Src/i2c.c     **** 
 112:Src/i2c.c     ****     /* I2C1 clock enable */
 113:Src/i2c.c     ****     __HAL_RCC_I2C1_CLK_ENABLE();
 114:Src/i2c.c     ****   /* USER CODE BEGIN I2C1_MspInit 1 */
 115:Src/i2c.c     **** 
 116:Src/i2c.c     ****   /* USER CODE END I2C1_MspInit 1 */
 117:Src/i2c.c     ****   }
 118:Src/i2c.c     ****   else if(i2cHandle->Instance==I2C3)
 182              		.loc 1 118 0
 183 000c 274A     		ldr	r2, .L19+4
 184 000e 9342     		cmp	r3, r2
 185 0010 1CD0     		beq	.L18
 186              	.LVL5:
 187              	.L13:
 119:Src/i2c.c     ****   {
 120:Src/i2c.c     ****   /* USER CODE BEGIN I2C3_MspInit 0 */
 121:Src/i2c.c     **** 
 122:Src/i2c.c     ****   /* USER CODE END I2C3_MspInit 0 */
 123:Src/i2c.c     ****   
 124:Src/i2c.c     ****     /**I2C3 GPIO Configuration    
 125:Src/i2c.c     ****     PA8     ------> I2C3_SCL
 126:Src/i2c.c     ****     PB4     ------> I2C3_SDA 
 127:Src/i2c.c     ****     */
 128:Src/i2c.c     ****     GPIO_InitStruct.Pin = I2C_TOF_SCL_Pin;
 129:Src/i2c.c     ****     GPIO_InitStruct.Mode = GPIO_MODE_AF_OD;
 130:Src/i2c.c     ****     GPIO_InitStruct.Pull = GPIO_PULLUP;
 131:Src/i2c.c     ****     GPIO_InitStruct.Speed = GPIO_SPEED_FREQ_VERY_HIGH;
 132:Src/i2c.c     ****     GPIO_InitStruct.Alternate = GPIO_AF4_I2C3;
 133:Src/i2c.c     ****     HAL_GPIO_Init(I2C_TOF_SCL_GPIO_Port, &GPIO_InitStruct);
 134:Src/i2c.c     **** 
 135:Src/i2c.c     ****     GPIO_InitStruct.Pin = I2C_TOF_SDA_Pin;
 136:Src/i2c.c     ****     GPIO_InitStruct.Mode = GPIO_MODE_AF_OD;
 137:Src/i2c.c     ****     GPIO_InitStruct.Pull = GPIO_PULLUP;
 138:Src/i2c.c     ****     GPIO_InitStruct.Speed = GPIO_SPEED_FREQ_VERY_HIGH;
 139:Src/i2c.c     ****     GPIO_InitStruct.Alternate = GPIO_AF9_I2C3;
 140:Src/i2c.c     ****     HAL_GPIO_Init(I2C_TOF_SDA_GPIO_Port, &GPIO_InitStruct);
 141:Src/i2c.c     **** 
 142:Src/i2c.c     ****     /* I2C3 clock enable */
 143:Src/i2c.c     ****     __HAL_RCC_I2C3_CLK_ENABLE();
 144:Src/i2c.c     **** 
 145:Src/i2c.c     ****     /* I2C3 interrupt Init */
 146:Src/i2c.c     ****     HAL_NVIC_SetPriority(I2C3_EV_IRQn, 0, 0);
 147:Src/i2c.c     ****     HAL_NVIC_EnableIRQ(I2C3_EV_IRQn);
 148:Src/i2c.c     ****   /* USER CODE BEGIN I2C3_MspInit 1 */
 149:Src/i2c.c     **** 
 150:Src/i2c.c     ****   /* USER CODE END I2C3_MspInit 1 */
 151:Src/i2c.c     ****   }
 152:Src/i2c.c     **** }
 188              		.loc 1 152 0
 189 0012 08B0     		add	sp, sp, #32
 190              	.LCFI4:
 191              		.cfi_remember_state
 192              		.cfi_def_cfa_offset 16
 193              		@ sp needed
ARM GAS  /tmp/cc27aTiH.s 			page 7


 194 0014 70BD     		pop	{r4, r5, r6, pc}
 195              	.LVL6:
 196              	.L17:
 197              	.LCFI5:
 198              		.cfi_restore_state
 105:Src/i2c.c     ****     GPIO_InitStruct.Mode = GPIO_MODE_AF_OD;
 199              		.loc 1 105 0
 200 0016 C023     		movs	r3, #192
 201 0018 0393     		str	r3, [sp, #12]
 106:Src/i2c.c     ****     GPIO_InitStruct.Pull = GPIO_PULLUP;
 202              		.loc 1 106 0
 203 001a 1223     		movs	r3, #18
 204 001c 0493     		str	r3, [sp, #16]
 107:Src/i2c.c     ****     GPIO_InitStruct.Speed = GPIO_SPEED_FREQ_VERY_HIGH;
 205              		.loc 1 107 0
 206 001e 0123     		movs	r3, #1
 207 0020 0593     		str	r3, [sp, #20]
 108:Src/i2c.c     ****     GPIO_InitStruct.Alternate = GPIO_AF4_I2C1;
 208              		.loc 1 108 0
 209 0022 0323     		movs	r3, #3
 210 0024 0693     		str	r3, [sp, #24]
 109:Src/i2c.c     ****     HAL_GPIO_Init(GPIOB, &GPIO_InitStruct);
 211              		.loc 1 109 0
 212 0026 0423     		movs	r3, #4
 213 0028 0793     		str	r3, [sp, #28]
 110:Src/i2c.c     **** 
 214              		.loc 1 110 0
 215 002a 03A9     		add	r1, sp, #12
 216 002c 2048     		ldr	r0, .L19+8
 217              	.LVL7:
 218 002e FFF7FEFF 		bl	HAL_GPIO_Init
 219              	.LVL8:
 220              	.LBB2:
 113:Src/i2c.c     ****   /* USER CODE BEGIN I2C1_MspInit 1 */
 221              		.loc 1 113 0
 222 0032 0023     		movs	r3, #0
 223 0034 0193     		str	r3, [sp, #4]
 224 0036 1F4B     		ldr	r3, .L19+12
 225 0038 1A6C     		ldr	r2, [r3, #64]
 226 003a 42F40012 		orr	r2, r2, #2097152
 227 003e 1A64     		str	r2, [r3, #64]
 228 0040 1B6C     		ldr	r3, [r3, #64]
 229 0042 03F40013 		and	r3, r3, #2097152
 230 0046 0193     		str	r3, [sp, #4]
 231 0048 019B     		ldr	r3, [sp, #4]
 232              	.LBE2:
 233 004a E2E7     		b	.L13
 234              	.LVL9:
 235              	.L18:
 128:Src/i2c.c     ****     GPIO_InitStruct.Mode = GPIO_MODE_AF_OD;
 236              		.loc 1 128 0
 237 004c 4FF48073 		mov	r3, #256
 238 0050 0393     		str	r3, [sp, #12]
 129:Src/i2c.c     ****     GPIO_InitStruct.Pull = GPIO_PULLUP;
 239              		.loc 1 129 0
 240 0052 1226     		movs	r6, #18
 241 0054 0496     		str	r6, [sp, #16]
ARM GAS  /tmp/cc27aTiH.s 			page 8


 130:Src/i2c.c     ****     GPIO_InitStruct.Speed = GPIO_SPEED_FREQ_VERY_HIGH;
 242              		.loc 1 130 0
 243 0056 0125     		movs	r5, #1
 244 0058 0595     		str	r5, [sp, #20]
 131:Src/i2c.c     ****     GPIO_InitStruct.Alternate = GPIO_AF4_I2C3;
 245              		.loc 1 131 0
 246 005a 0324     		movs	r4, #3
 247 005c 0694     		str	r4, [sp, #24]
 132:Src/i2c.c     ****     HAL_GPIO_Init(I2C_TOF_SCL_GPIO_Port, &GPIO_InitStruct);
 248              		.loc 1 132 0
 249 005e 0423     		movs	r3, #4
 250 0060 0793     		str	r3, [sp, #28]
 133:Src/i2c.c     **** 
 251              		.loc 1 133 0
 252 0062 03A9     		add	r1, sp, #12
 253 0064 1448     		ldr	r0, .L19+16
 254              	.LVL10:
 255 0066 FFF7FEFF 		bl	HAL_GPIO_Init
 256              	.LVL11:
 135:Src/i2c.c     ****     GPIO_InitStruct.Mode = GPIO_MODE_AF_OD;
 257              		.loc 1 135 0
 258 006a 1023     		movs	r3, #16
 259 006c 0393     		str	r3, [sp, #12]
 136:Src/i2c.c     ****     GPIO_InitStruct.Pull = GPIO_PULLUP;
 260              		.loc 1 136 0
 261 006e 0496     		str	r6, [sp, #16]
 137:Src/i2c.c     ****     GPIO_InitStruct.Speed = GPIO_SPEED_FREQ_VERY_HIGH;
 262              		.loc 1 137 0
 263 0070 0595     		str	r5, [sp, #20]
 138:Src/i2c.c     ****     GPIO_InitStruct.Alternate = GPIO_AF9_I2C3;
 264              		.loc 1 138 0
 265 0072 0694     		str	r4, [sp, #24]
 139:Src/i2c.c     ****     HAL_GPIO_Init(I2C_TOF_SDA_GPIO_Port, &GPIO_InitStruct);
 266              		.loc 1 139 0
 267 0074 0923     		movs	r3, #9
 268 0076 0793     		str	r3, [sp, #28]
 140:Src/i2c.c     **** 
 269              		.loc 1 140 0
 270 0078 03A9     		add	r1, sp, #12
 271 007a 0D48     		ldr	r0, .L19+8
 272 007c FFF7FEFF 		bl	HAL_GPIO_Init
 273              	.LVL12:
 274              	.LBB3:
 143:Src/i2c.c     **** 
 275              		.loc 1 143 0
 276 0080 0021     		movs	r1, #0
 277 0082 0291     		str	r1, [sp, #8]
 278 0084 0B4B     		ldr	r3, .L19+12
 279 0086 1A6C     		ldr	r2, [r3, #64]
 280 0088 42F40002 		orr	r2, r2, #8388608
 281 008c 1A64     		str	r2, [r3, #64]
 282 008e 1B6C     		ldr	r3, [r3, #64]
 283 0090 03F40003 		and	r3, r3, #8388608
 284 0094 0293     		str	r3, [sp, #8]
 285 0096 029B     		ldr	r3, [sp, #8]
 286              	.LBE3:
 146:Src/i2c.c     ****     HAL_NVIC_EnableIRQ(I2C3_EV_IRQn);
ARM GAS  /tmp/cc27aTiH.s 			page 9


 287              		.loc 1 146 0
 288 0098 0A46     		mov	r2, r1
 289 009a 4820     		movs	r0, #72
 290 009c FFF7FEFF 		bl	HAL_NVIC_SetPriority
 291              	.LVL13:
 147:Src/i2c.c     ****   /* USER CODE BEGIN I2C3_MspInit 1 */
 292              		.loc 1 147 0
 293 00a0 4820     		movs	r0, #72
 294 00a2 FFF7FEFF 		bl	HAL_NVIC_EnableIRQ
 295              	.LVL14:
 296              		.loc 1 152 0
 297 00a6 B4E7     		b	.L13
 298              	.L20:
 299              		.align	2
 300              	.L19:
 301 00a8 00540040 		.word	1073763328
 302 00ac 005C0040 		.word	1073765376
 303 00b0 00040240 		.word	1073873920
 304 00b4 00380240 		.word	1073887232
 305 00b8 00000240 		.word	1073872896
 306              		.cfi_endproc
 307              	.LFE128:
 309              		.section	.text.HAL_I2C_MspDeInit,"ax",%progbits
 310              		.align	1
 311              		.global	HAL_I2C_MspDeInit
 312              		.syntax unified
 313              		.thumb
 314              		.thumb_func
 315              		.fpu fpv4-sp-d16
 317              	HAL_I2C_MspDeInit:
 318              	.LFB129:
 153:Src/i2c.c     **** 
 154:Src/i2c.c     **** void HAL_I2C_MspDeInit(I2C_HandleTypeDef* i2cHandle)
 155:Src/i2c.c     **** {
 319              		.loc 1 155 0
 320              		.cfi_startproc
 321              		@ args = 0, pretend = 0, frame = 0
 322              		@ frame_needed = 0, uses_anonymous_args = 0
 323              	.LVL15:
 324 0000 08B5     		push	{r3, lr}
 325              	.LCFI6:
 326              		.cfi_def_cfa_offset 8
 327              		.cfi_offset 3, -8
 328              		.cfi_offset 14, -4
 156:Src/i2c.c     **** 
 157:Src/i2c.c     ****   if(i2cHandle->Instance==I2C1)
 329              		.loc 1 157 0
 330 0002 0368     		ldr	r3, [r0]
 331 0004 124A     		ldr	r2, .L27
 332 0006 9342     		cmp	r3, r2
 333 0008 03D0     		beq	.L25
 158:Src/i2c.c     ****   {
 159:Src/i2c.c     ****   /* USER CODE BEGIN I2C1_MspDeInit 0 */
 160:Src/i2c.c     **** 
 161:Src/i2c.c     ****   /* USER CODE END I2C1_MspDeInit 0 */
 162:Src/i2c.c     ****     /* Peripheral clock disable */
 163:Src/i2c.c     ****     __HAL_RCC_I2C1_CLK_DISABLE();
ARM GAS  /tmp/cc27aTiH.s 			page 10


 164:Src/i2c.c     ****   
 165:Src/i2c.c     ****     /**I2C1 GPIO Configuration    
 166:Src/i2c.c     ****     PB6     ------> I2C1_SCL
 167:Src/i2c.c     ****     PB7     ------> I2C1_SDA 
 168:Src/i2c.c     ****     */
 169:Src/i2c.c     ****     HAL_GPIO_DeInit(GPIOB, GPIO_PIN_6|GPIO_PIN_7);
 170:Src/i2c.c     **** 
 171:Src/i2c.c     ****   /* USER CODE BEGIN I2C1_MspDeInit 1 */
 172:Src/i2c.c     **** 
 173:Src/i2c.c     ****   /* USER CODE END I2C1_MspDeInit 1 */
 174:Src/i2c.c     ****   }
 175:Src/i2c.c     ****   else if(i2cHandle->Instance==I2C3)
 334              		.loc 1 175 0
 335 000a 124A     		ldr	r2, .L27+4
 336 000c 9342     		cmp	r3, r2
 337 000e 0BD0     		beq	.L26
 338              	.LVL16:
 339              	.L21:
 176:Src/i2c.c     ****   {
 177:Src/i2c.c     ****   /* USER CODE BEGIN I2C3_MspDeInit 0 */
 178:Src/i2c.c     **** 
 179:Src/i2c.c     ****   /* USER CODE END I2C3_MspDeInit 0 */
 180:Src/i2c.c     ****     /* Peripheral clock disable */
 181:Src/i2c.c     ****     __HAL_RCC_I2C3_CLK_DISABLE();
 182:Src/i2c.c     ****   
 183:Src/i2c.c     ****     /**I2C3 GPIO Configuration    
 184:Src/i2c.c     ****     PA8     ------> I2C3_SCL
 185:Src/i2c.c     ****     PB4     ------> I2C3_SDA 
 186:Src/i2c.c     ****     */
 187:Src/i2c.c     ****     HAL_GPIO_DeInit(I2C_TOF_SCL_GPIO_Port, I2C_TOF_SCL_Pin);
 188:Src/i2c.c     **** 
 189:Src/i2c.c     ****     HAL_GPIO_DeInit(I2C_TOF_SDA_GPIO_Port, I2C_TOF_SDA_Pin);
 190:Src/i2c.c     **** 
 191:Src/i2c.c     ****     /* I2C3 interrupt Deinit */
 192:Src/i2c.c     ****     HAL_NVIC_DisableIRQ(I2C3_EV_IRQn);
 193:Src/i2c.c     ****   /* USER CODE BEGIN I2C3_MspDeInit 1 */
 194:Src/i2c.c     **** 
 195:Src/i2c.c     ****   /* USER CODE END I2C3_MspDeInit 1 */
 196:Src/i2c.c     ****   }
 197:Src/i2c.c     **** } 
 340              		.loc 1 197 0
 341 0010 08BD     		pop	{r3, pc}
 342              	.LVL17:
 343              	.L25:
 163:Src/i2c.c     ****   
 344              		.loc 1 163 0
 345 0012 02F5F232 		add	r2, r2, #123904
 346 0016 136C     		ldr	r3, [r2, #64]
 347 0018 23F40013 		bic	r3, r3, #2097152
 348 001c 1364     		str	r3, [r2, #64]
 169:Src/i2c.c     **** 
 349              		.loc 1 169 0
 350 001e C021     		movs	r1, #192
 351 0020 0D48     		ldr	r0, .L27+8
 352              	.LVL18:
 353 0022 FFF7FEFF 		bl	HAL_GPIO_DeInit
 354              	.LVL19:
ARM GAS  /tmp/cc27aTiH.s 			page 11


 355 0026 F3E7     		b	.L21
 356              	.LVL20:
 357              	.L26:
 181:Src/i2c.c     ****   
 358              		.loc 1 181 0
 359 0028 02F5EE32 		add	r2, r2, #121856
 360 002c 136C     		ldr	r3, [r2, #64]
 361 002e 23F40003 		bic	r3, r3, #8388608
 362 0032 1364     		str	r3, [r2, #64]
 187:Src/i2c.c     **** 
 363              		.loc 1 187 0
 364 0034 4FF48071 		mov	r1, #256
 365 0038 0848     		ldr	r0, .L27+12
 366              	.LVL21:
 367 003a FFF7FEFF 		bl	HAL_GPIO_DeInit
 368              	.LVL22:
 189:Src/i2c.c     **** 
 369              		.loc 1 189 0
 370 003e 1021     		movs	r1, #16
 371 0040 0548     		ldr	r0, .L27+8
 372 0042 FFF7FEFF 		bl	HAL_GPIO_DeInit
 373              	.LVL23:
 192:Src/i2c.c     ****   /* USER CODE BEGIN I2C3_MspDeInit 1 */
 374              		.loc 1 192 0
 375 0046 4820     		movs	r0, #72
 376 0048 FFF7FEFF 		bl	HAL_NVIC_DisableIRQ
 377              	.LVL24:
 378              		.loc 1 197 0
 379 004c E0E7     		b	.L21
 380              	.L28:
 381 004e 00BF     		.align	2
 382              	.L27:
 383 0050 00540040 		.word	1073763328
 384 0054 005C0040 		.word	1073765376
 385 0058 00040240 		.word	1073873920
 386 005c 00000240 		.word	1073872896
 387              		.cfi_endproc
 388              	.LFE129:
 390              		.comm	hi2c3,84,4
 391              		.comm	hi2c1,84,4
 392              		.section	.rodata.MX_I2C1_Init.str1.4,"aMS",%progbits,1
 393              		.align	2
 394              	.LC0:
 395 0000 5372632F 		.ascii	"Src/i2c.c\000"
 395      6932632E 
 395      6300
 396              		.text
 397              	.Letext0:
 398              		.file 2 "/usr/arm-none-eabi/include/machine/_default_types.h"
 399              		.file 3 "/usr/arm-none-eabi/include/sys/_stdint.h"
 400              		.file 4 "Drivers/CMSIS/Include/core_cm4.h"
 401              		.file 5 "Drivers/CMSIS/Device/ST/STM32F4xx/Include/system_stm32f4xx.h"
 402              		.file 6 "Drivers/CMSIS/Device/ST/STM32F4xx/Include/stm32f401xe.h"
 403              		.file 7 "/usr/arm-none-eabi/include/sys/lock.h"
 404              		.file 8 "/usr/arm-none-eabi/include/sys/_types.h"
 405              		.file 9 "/usr/lib/gcc/arm-none-eabi/7.3.0/include/stddef.h"
 406              		.file 10 "/usr/arm-none-eabi/include/sys/reent.h"
ARM GAS  /tmp/cc27aTiH.s 			page 12


 407              		.file 11 "Drivers/STM32F4xx_HAL_Driver/Inc/stm32f4xx_hal_def.h"
 408              		.file 12 "Drivers/STM32F4xx_HAL_Driver/Inc/stm32f4xx_hal_gpio.h"
 409              		.file 13 "Drivers/STM32F4xx_HAL_Driver/Inc/stm32f4xx_hal_dma.h"
 410              		.file 14 "Drivers/STM32F4xx_HAL_Driver/Inc/stm32f4xx_hal_i2c.h"
 411              		.file 15 "Inc/i2c.h"
 412              		.file 16 "Drivers/STM32F4xx_HAL_Driver/Inc/stm32f4xx_hal_cortex.h"
ARM GAS  /tmp/cc27aTiH.s 			page 13

