ARM GAS  /tmp/cc58ZD3F.s 			page 1


   1              		.cpu cortex-m4
   2              		.eabi_attribute 27, 1
   3              		.eabi_attribute 28, 1
   4              		.eabi_attribute 20, 1
   5              		.eabi_attribute 21, 1
   6              		.eabi_attribute 23, 3
   7              		.eabi_attribute 24, 1
   8              		.eabi_attribute 25, 1
   9              		.eabi_attribute 26, 1
  10              		.eabi_attribute 30, 1
  11              		.eabi_attribute 34, 1
  12              		.eabi_attribute 18, 4
  13              		.file	"main.c"
  14              		.text
  15              	.Ltext0:
  16              		.cfi_sections	.debug_frame
  17              		.section	.text.HardFault_Handler,"ax",%progbits
  18              		.align	1
  19              		.global	HardFault_Handler
  20              		.syntax unified
  21              		.thumb
  22              		.thumb_func
  23              		.fpu fpv4-sp-d16
  25              	HardFault_Handler:
  26              	.LFB681:
  27              		.file 1 "Src/main.c"
   1:Src/main.c    **** /**
   2:Src/main.c    ****   ******************************************************************************
   3:Src/main.c    ****   * @file           : main.c
   4:Src/main.c    ****   * @brief          : Main program body
   5:Src/main.c    ****   ******************************************************************************
   6:Src/main.c    ****   ** This notice applies to any and all portions of this file
   7:Src/main.c    ****   * that are not between comment pairs USER CODE BEGIN and
   8:Src/main.c    ****   * USER CODE END. Other portions of this file, whether 
   9:Src/main.c    ****   * inserted by the user or by software development tools
  10:Src/main.c    ****   * are owned by their respective copyright owners.
  11:Src/main.c    ****   *
  12:Src/main.c    ****   * COPYRIGHT(c) 2018 STMicroelectronics
  13:Src/main.c    ****   *
  14:Src/main.c    ****   * Redistribution and use in source and binary forms, with or without modification,
  15:Src/main.c    ****   * are permitted provided that the following conditions are met:
  16:Src/main.c    ****   *   1. Redistributions of source code must retain the above copyright notice,
  17:Src/main.c    ****   *      this list of conditions and the following disclaimer.
  18:Src/main.c    ****   *   2. Redistributions in binary form must reproduce the above copyright notice,
  19:Src/main.c    ****   *      this list of conditions and the following disclaimer in the documentation
  20:Src/main.c    ****   *      and/or other materials provided with the distribution.
  21:Src/main.c    ****   *   3. Neither the name of STMicroelectronics nor the names of its contributors
  22:Src/main.c    ****   *      may be used to endorse or promote products derived from this software
  23:Src/main.c    ****   *      without specific prior written permission.
  24:Src/main.c    ****   *
  25:Src/main.c    ****   * THIS SOFTWARE IS PROVIDED BY THE COPYRIGHT HOLDERS AND CONTRIBUTORS "AS IS"
  26:Src/main.c    ****   * AND ANY EXPRESS OR IMPLIED WARRANTIES, INCLUDING, BUT NOT LIMITED TO, THE
  27:Src/main.c    ****   * IMPLIED WARRANTIES OF MERCHANTABILITY AND FITNESS FOR A PARTICULAR PURPOSE ARE
  28:Src/main.c    ****   * DISCLAIMED. IN NO EVENT SHALL THE COPYRIGHT HOLDER OR CONTRIBUTORS BE LIABLE
  29:Src/main.c    ****   * FOR ANY DIRECT, INDIRECT, INCIDENTAL, SPECIAL, EXEMPLARY, OR CONSEQUENTIAL
  30:Src/main.c    ****   * DAMAGES (INCLUDING, BUT NOT LIMITED TO, PROCUREMENT OF SUBSTITUTE GOODS OR
  31:Src/main.c    ****   * SERVICES; LOSS OF USE, DATA, OR PROFITS; OR BUSINESS INTERRUPTION) HOWEVER
ARM GAS  /tmp/cc58ZD3F.s 			page 2


  32:Src/main.c    ****   * CAUSED AND ON ANY THEORY OF LIABILITY, WHETHER IN CONTRACT, STRICT LIABILITY,
  33:Src/main.c    ****   * OR TORT (INCLUDING NEGLIGENCE OR OTHERWISE) ARISING IN ANY WAY OUT OF THE USE
  34:Src/main.c    ****   * OF THIS SOFTWARE, EVEN IF ADVISED OF THE POSSIBILITY OF SUCH DAMAGE.
  35:Src/main.c    ****   *
  36:Src/main.c    ****   ******************************************************************************
  37:Src/main.c    ****   */
  38:Src/main.c    **** /* Includes ------------------------------------------------------------------*/
  39:Src/main.c    **** #include "main.h"
  40:Src/main.c    **** #include "stm32f4xx_hal.h"
  41:Src/main.c    **** #include "dma.h"
  42:Src/main.c    **** #include "i2c.h"
  43:Src/main.c    **** #include "tim.h"
  44:Src/main.c    **** #include "usart.h"
  45:Src/main.c    **** #include "gpio.h"
  46:Src/main.c    **** 
  47:Src/main.c    **** /* USER CODE BEGIN Includes */
  48:Src/main.c    **** #include "system.h"
  49:Src/main.c    **** #include "tof.h"
  50:Src/main.c    **** #include "pi_client.h"
  51:Src/main.c    **** #include <stdio.h>
  52:Src/main.c    **** /* USER CODE END Includes */
  53:Src/main.c    **** 
  54:Src/main.c    **** /* Private variables ---------------------------------------------------------*/
  55:Src/main.c    **** 
  56:Src/main.c    **** /* USER CODE BEGIN PV */
  57:Src/main.c    **** /* Private variables ---------------------------------------------------------*/
  58:Src/main.c    **** 
  59:Src/main.c    **** /* USER CODE END PV */
  60:Src/main.c    **** 
  61:Src/main.c    **** /* Private function prototypes -----------------------------------------------*/
  62:Src/main.c    **** void SystemClock_Config(void);
  63:Src/main.c    **** 
  64:Src/main.c    **** /* USER CODE BEGIN PFP */
  65:Src/main.c    **** /* Private function prototypes -----------------------------------------------*/
  66:Src/main.c    **** 
  67:Src/main.c    **** /* USER CODE END PFP */
  68:Src/main.c    **** 
  69:Src/main.c    **** /* USER CODE BEGIN 0 */
  70:Src/main.c    **** 
  71:Src/main.c    **** 
  72:Src/main.c    **** /* USER CODE END 0 */
  73:Src/main.c    **** 
  74:Src/main.c    **** /**
  75:Src/main.c    ****   * @brief  The application entry point.
  76:Src/main.c    ****   *
  77:Src/main.c    ****   * @retval None
  78:Src/main.c    ****   */
  79:Src/main.c    **** int main(void)
  80:Src/main.c    **** {
  81:Src/main.c    ****   /* USER CODE BEGIN 1 */
  82:Src/main.c    **** 
  83:Src/main.c    ****   /* USER CODE END 1 */
  84:Src/main.c    **** 
  85:Src/main.c    ****   /* MCU Configuration----------------------------------------------------------*/
  86:Src/main.c    **** 
  87:Src/main.c    ****   /* Reset of all peripherals, Initializes the Flash interface and the Systick. */
  88:Src/main.c    ****   HAL_Init();
ARM GAS  /tmp/cc58ZD3F.s 			page 3


  89:Src/main.c    **** 
  90:Src/main.c    ****   /* USER CODE BEGIN Init */
  91:Src/main.c    **** 
  92:Src/main.c    ****   /* USER CODE END Init */
  93:Src/main.c    **** 
  94:Src/main.c    ****   /* Configure the system clock */
  95:Src/main.c    ****   SystemClock_Config();
  96:Src/main.c    **** 
  97:Src/main.c    ****   /* USER CODE BEGIN SysInit */
  98:Src/main.c    **** 
  99:Src/main.c    ****   /* USER CODE END SysInit */
 100:Src/main.c    **** 
 101:Src/main.c    ****   /* Initialize all configured peripherals */
 102:Src/main.c    ****   MX_GPIO_Init();
 103:Src/main.c    ****   MX_DMA_Init();
 104:Src/main.c    ****   MX_I2C1_Init();
 105:Src/main.c    ****   MX_I2C3_Init();
 106:Src/main.c    ****   MX_USART1_UART_Init();
 107:Src/main.c    ****   MX_USART2_UART_Init();
 108:Src/main.c    ****   MX_USART6_UART_Init();
 109:Src/main.c    ****   MX_TIM1_Init();
 110:Src/main.c    ****   MX_TIM2_Init();
 111:Src/main.c    ****   /* USER CODE BEGIN 2 */
 112:Src/main.c    **** 
 113:Src/main.c    ****   //==================================================//
 114:Src/main.c    ****   //           UART PROTOCOL INIT                     //
 115:Src/main.c    ****   //==================================================//
 116:Src/main.c    **** 
 117:Src/main.c    ****   //Raspberry
 118:Src/main.c    ****   RP_Init_Interface(&pi_iface, USART1, RP_UART_Transmit, HAL_GetTick);
 119:Src/main.c    ****   RP_INIT_UART_DMA(DMA2, LL_DMA_STREAM_2, USART1, pi_iface);
 120:Src/main.c    **** 
 121:Src/main.c    ****   //Position
 122:Src/main.c    ****   RP_Init_Interface(&pos_iface, USART2, RP_UART_Transmit, HAL_GetTick);
 123:Src/main.c    ****   RP_INIT_UART_DMA(DMA1, LL_DMA_STREAM_5, USART2, pos_iface);
 124:Src/main.c    **** 
 125:Src/main.c    ****   //Z-Axis
 126:Src/main.c    ****   RP_Init_Interface(&z_iface, USART6, RP_UART_Transmit, HAL_GetTick);
 127:Src/main.c    ****   RP_INIT_UART_DMA(DMA2, LL_DMA_STREAM_1, USART6, z_iface);
 128:Src/main.c    **** 
 129:Src/main.c    ****   //==================================================//
 130:Src/main.c    ****   //           REMOTE CALL CLIENT INIT                //
 131:Src/main.c    ****   //==================================================//
 132:Src/main.c    **** 
 133:Src/main.c    ****   //Raspberry
 134:Src/main.c    ****   PI_Init();
 135:Src/main.c    ****   
 136:Src/main.c    ****   //==================================================//
 137:Src/main.c    ****   //                 WAIT START                       //
 138:Src/main.c    ****   //==================================================//
 139:Src/main.c    **** 
 140:Src/main.c    ****   Team t = wait_start();
 141:Src/main.c    ****   PI_Start();
 142:Src/main.c    **** 
 143:Src/main.c    ****   HAL_Delay(2000);
 144:Src/main.c    ****   PI_Asser_Test();
 145:Src/main.c    ****   
ARM GAS  /tmp/cc58ZD3F.s 			page 4


 146:Src/main.c    ****   /* USER CODE END 2 */
 147:Src/main.c    **** 
 148:Src/main.c    ****   /* Infinite loop */
 149:Src/main.c    ****   /* USER CODE BEGIN WHILE */
 150:Src/main.c    **** #if 0
 151:Src/main.c    ****   HAL_Delay(2000);
 152:Src/main.c    ****   if( == 0){
 153:Src/main.c    ****     RC_Call(&pi_client, PI_LOG, "NUCLEO : START SENT");
 154:Src/main.c    ****   }
 155:Src/main.c    **** 
 156:Src/main.c    **** 
 157:Src/main.c    ****   HAL_Delay(2000);
 158:Src/main.c    ****   if(RC_Call(&pi_client, PI_SCORE, 10) == 0){
 159:Src/main.c    ****     RC_Call(&pi_client, PI_LOG, "NUCLEO : SCORE SENT");
 160:Src/main.c    ****   }
 161:Src/main.c    **** 
 162:Src/main.c    ****   HAL_Delay(2000);
 163:Src/main.c    ****   if(RC_Call(&pi_client, PI_SCORE, 10) == 0){
 164:Src/main.c    ****     RC_Call(&pi_client, PI_LOG, "NUCLEO : SCORE SENT");
 165:Src/main.c    ****   }
 166:Src/main.c    **** 
 167:Src/main.c    ****   int r;
 168:Src/main.c    ****   char colors[RC_STR_SIZE];
 169:Src/main.c    ****   HAL_Delay(500);
 170:Src/main.c    ****   if(RC_Call(&pi_client, PI_PLAN, &r, colors) == 0){
 171:Src/main.c    ****     RC_Call(&pi_client, PI_LOG, "NUCLEO : READ REQUEST");
 172:Src/main.c    ****   }
 173:Src/main.c    **** 
 174:Src/main.c    ****   HAL_Delay(500);
 175:Src/main.c    ****   if(RC_Call(&pi_client, PI_PLAN, &r, colors) == 0){
 176:Src/main.c    ****     RC_Call(&pi_client, PI_LOG, "NUCLEO : READ REQUEST");
 177:Src/main.c    ****   }
 178:Src/main.c    **** 
 179:Src/main.c    ****   if(r == 0){
 180:Src/main.c    ****     RC_Call(&pi_client, PI_LOG, "NUCLEO : WAITING FOR READ");
 181:Src/main.c    ****   }
 182:Src/main.c    **** 
 183:Src/main.c    ****   HAL_Delay(1000);
 184:Src/main.c    ****   if(RC_Call(&pi_client, PI_PLAN, &r, colors) == 0){
 185:Src/main.c    ****     RC_Call(&pi_client, PI_LOG, "NUCLEO : READ REQUEST");
 186:Src/main.c    ****   }
 187:Src/main.c    **** 
 188:Src/main.c    ****   HAL_Delay(500);
 189:Src/main.c    ****   RC_Call(&pi_client, PI_LOG, colors);
 190:Src/main.c    **** 
 191:Src/main.c    ****   HAL_Delay(2000);
 192:Src/main.c    ****   volatile int jean_michel_segfault = *((int*) 9999999999);
 193:Src/main.c    **** #endif
 194:Src/main.c    ****   
 195:Src/main.c    ****   ToF_Dev tof_dev;
 196:Src/main.c    ****   ToF_Params params;
 197:Src/main.c    ****   ToF_Data tof_data;
 198:Src/main.c    **** 
 199:Src/main.c    ****   ToF_Init_Struct(&tof_dev, &hi2c3, 0x52);
 200:Src/main.c    ****   
 201:Src/main.c    ****   do{
 202:Src/main.c    ****     //Check the initial address
ARM GAS  /tmp/cc58ZD3F.s 			page 5


 203:Src/main.c    ****     if(ToF_Poke(&tof_dev) == -1)
 204:Src/main.c    ****       break;
 205:Src/main.c    **** 
 206:Src/main.c    ****     //Set a new address
 207:Src/main.c    ****     if(ToF_Set_Address(&tof_dev, 0x52) == -1)
 208:Src/main.c    ****       break;
 209:Src/main.c    **** 
 210:Src/main.c    ****     //Init the device
 211:Src/main.c    ****     if(ToF_Init_Device(&tof_dev) == -1)
 212:Src/main.c    ****       break;
 213:Src/main.c    **** 
 214:Src/main.c    ****     //Long range config
 215:Src/main.c    ****     TOF_LONG_RANGE_CONFIG(params);
 216:Src/main.c    **** 
 217:Src/main.c    ****     //Configure the device
 218:Src/main.c    ****     ToF_Configure_Device(&tof_dev, &params);
 219:Src/main.c    ****   }while(0);
 220:Src/main.c    ****   
 221:Src/main.c    ****   
 222:Src/main.c    ****   while (1)
 223:Src/main.c    ****   {
 224:Src/main.c    ****     ToF_Perform_Measurement(&tof_dev, &tof_data);
 225:Src/main.c    ****     if(tof_data.RangeStatus == 0){
 226:Src/main.c    ****       //tof_dev.LeakyRange (mm)
 227:Src/main.c    ****       HAL_GPIO_WritePin(LD2_GPIO_Port, LD2_Pin, GPIO_PIN_SET);
 228:Src/main.c    ****     }else{
 229:Src/main.c    ****       //Out of range
 230:Src/main.c    ****       HAL_GPIO_WritePin(LD2_GPIO_Port, LD2_Pin, GPIO_PIN_RESET);
 231:Src/main.c    ****     }
 232:Src/main.c    ****   /* USER CODE END WHILE */
 233:Src/main.c    **** 
 234:Src/main.c    ****   /* USER CODE BEGIN 3 */
 235:Src/main.c    **** 
 236:Src/main.c    ****   }
 237:Src/main.c    ****   /* USER CODE END 3 */
 238:Src/main.c    **** 
 239:Src/main.c    **** }
 240:Src/main.c    **** 
 241:Src/main.c    **** /**
 242:Src/main.c    ****   * @brief System Clock Configuration
 243:Src/main.c    ****   * @retval None
 244:Src/main.c    ****   */
 245:Src/main.c    **** void SystemClock_Config(void)
 246:Src/main.c    **** {
 247:Src/main.c    **** 
 248:Src/main.c    ****   RCC_OscInitTypeDef RCC_OscInitStruct;
 249:Src/main.c    ****   RCC_ClkInitTypeDef RCC_ClkInitStruct;
 250:Src/main.c    **** 
 251:Src/main.c    ****     /**Configure the main internal regulator output voltage 
 252:Src/main.c    ****     */
 253:Src/main.c    ****   __HAL_RCC_PWR_CLK_ENABLE();
 254:Src/main.c    **** 
 255:Src/main.c    ****   __HAL_PWR_VOLTAGESCALING_CONFIG(PWR_REGULATOR_VOLTAGE_SCALE2);
 256:Src/main.c    **** 
 257:Src/main.c    ****     /**Initializes the CPU, AHB and APB busses clocks 
 258:Src/main.c    ****     */
 259:Src/main.c    ****   RCC_OscInitStruct.OscillatorType = RCC_OSCILLATORTYPE_HSI;
ARM GAS  /tmp/cc58ZD3F.s 			page 6


 260:Src/main.c    ****   RCC_OscInitStruct.HSIState = RCC_HSI_ON;
 261:Src/main.c    ****   RCC_OscInitStruct.HSICalibrationValue = 16;
 262:Src/main.c    ****   RCC_OscInitStruct.PLL.PLLState = RCC_PLL_ON;
 263:Src/main.c    ****   RCC_OscInitStruct.PLL.PLLSource = RCC_PLLSOURCE_HSI;
 264:Src/main.c    ****   RCC_OscInitStruct.PLL.PLLM = 16;
 265:Src/main.c    ****   RCC_OscInitStruct.PLL.PLLN = 336;
 266:Src/main.c    ****   RCC_OscInitStruct.PLL.PLLP = RCC_PLLP_DIV4;
 267:Src/main.c    ****   RCC_OscInitStruct.PLL.PLLQ = 7;
 268:Src/main.c    ****   if (HAL_RCC_OscConfig(&RCC_OscInitStruct) != HAL_OK)
 269:Src/main.c    ****   {
 270:Src/main.c    ****     _Error_Handler(__FILE__, __LINE__);
 271:Src/main.c    ****   }
 272:Src/main.c    **** 
 273:Src/main.c    ****     /**Initializes the CPU, AHB and APB busses clocks 
 274:Src/main.c    ****     */
 275:Src/main.c    ****   RCC_ClkInitStruct.ClockType = RCC_CLOCKTYPE_HCLK|RCC_CLOCKTYPE_SYSCLK
 276:Src/main.c    ****                               |RCC_CLOCKTYPE_PCLK1|RCC_CLOCKTYPE_PCLK2;
 277:Src/main.c    ****   RCC_ClkInitStruct.SYSCLKSource = RCC_SYSCLKSOURCE_PLLCLK;
 278:Src/main.c    ****   RCC_ClkInitStruct.AHBCLKDivider = RCC_SYSCLK_DIV1;
 279:Src/main.c    ****   RCC_ClkInitStruct.APB1CLKDivider = RCC_HCLK_DIV2;
 280:Src/main.c    ****   RCC_ClkInitStruct.APB2CLKDivider = RCC_HCLK_DIV1;
 281:Src/main.c    **** 
 282:Src/main.c    ****   if (HAL_RCC_ClockConfig(&RCC_ClkInitStruct, FLASH_LATENCY_2) != HAL_OK)
 283:Src/main.c    ****   {
 284:Src/main.c    ****     _Error_Handler(__FILE__, __LINE__);
 285:Src/main.c    ****   }
 286:Src/main.c    **** 
 287:Src/main.c    ****     /**Configure the Systick interrupt time 
 288:Src/main.c    ****     */
 289:Src/main.c    ****   HAL_SYSTICK_Config(HAL_RCC_GetHCLKFreq()/1000);
 290:Src/main.c    **** 
 291:Src/main.c    ****     /**Configure the Systick 
 292:Src/main.c    ****     */
 293:Src/main.c    ****   HAL_SYSTICK_CLKSourceConfig(SYSTICK_CLKSOURCE_HCLK);
 294:Src/main.c    **** 
 295:Src/main.c    ****   /* SysTick_IRQn interrupt configuration */
 296:Src/main.c    ****   HAL_NVIC_SetPriority(SysTick_IRQn, 0, 0);
 297:Src/main.c    **** }
 298:Src/main.c    **** 
 299:Src/main.c    **** /* USER CODE BEGIN 4 */
 300:Src/main.c    **** void HardFault_Handler(void){
  28              		.loc 1 300 0
  29              		.cfi_startproc
  30              		@ args = 0, pretend = 0, frame = 0
  31              		@ frame_needed = 0, uses_anonymous_args = 0
  32 0000 08B5     		push	{r3, lr}
  33              	.LCFI0:
  34              		.cfi_def_cfa_offset 8
  35              		.cfi_offset 3, -8
  36              		.cfi_offset 14, -4
 301:Src/main.c    ****   PI_Error();
  37              		.loc 1 301 0
  38 0002 FFF7FEFF 		bl	PI_Error
  39              	.LVL0:
 302:Src/main.c    ****   hlt();
  40              		.loc 1 302 0
  41 0006 FFF7FEFF 		bl	hlt
ARM GAS  /tmp/cc58ZD3F.s 			page 7


  42              	.LVL1:
 303:Src/main.c    **** }
  43              		.loc 1 303 0
  44 000a 08BD     		pop	{r3, pc}
  45              		.cfi_endproc
  46              	.LFE681:
  48              		.section	.text._Error_Handler,"ax",%progbits
  49              		.align	1
  50              		.global	_Error_Handler
  51              		.syntax unified
  52              		.thumb
  53              		.thumb_func
  54              		.fpu fpv4-sp-d16
  56              	_Error_Handler:
  57              	.LFB682:
 304:Src/main.c    **** /* USER CODE END 4 */
 305:Src/main.c    **** 
 306:Src/main.c    **** /**
 307:Src/main.c    ****   * @brief  This function is executed in case of error occurrence.
 308:Src/main.c    ****   * @param  file: The file name as string.
 309:Src/main.c    ****   * @param  line: The line in file as a number.
 310:Src/main.c    ****   * @retval None
 311:Src/main.c    ****   */
 312:Src/main.c    **** void _Error_Handler(char *file, int line)
 313:Src/main.c    **** {
  58              		.loc 1 313 0
  59              		.cfi_startproc
  60              		@ Volatile: function does not return.
  61              		@ args = 0, pretend = 0, frame = 0
  62              		@ frame_needed = 0, uses_anonymous_args = 0
  63              		@ link register save eliminated.
  64              	.LVL2:
  65              	.L4:
  66 0000 FEE7     		b	.L4
  67              		.cfi_endproc
  68              	.LFE682:
  70              		.section	.text.SystemClock_Config,"ax",%progbits
  71              		.align	1
  72              		.global	SystemClock_Config
  73              		.syntax unified
  74              		.thumb
  75              		.thumb_func
  76              		.fpu fpv4-sp-d16
  78              	SystemClock_Config:
  79              	.LFB680:
 246:Src/main.c    **** 
  80              		.loc 1 246 0
  81              		.cfi_startproc
  82              		@ args = 0, pretend = 0, frame = 80
  83              		@ frame_needed = 0, uses_anonymous_args = 0
 246:Src/main.c    **** 
  84              		.loc 1 246 0
  85 0000 00B5     		push	{lr}
  86              	.LCFI1:
  87              		.cfi_def_cfa_offset 4
  88              		.cfi_offset 14, -4
  89 0002 95B0     		sub	sp, sp, #84
ARM GAS  /tmp/cc58ZD3F.s 			page 8


  90              	.LCFI2:
  91              		.cfi_def_cfa_offset 88
  92              	.LBB56:
 253:Src/main.c    **** 
  93              		.loc 1 253 0
  94 0004 0022     		movs	r2, #0
  95 0006 0192     		str	r2, [sp, #4]
  96 0008 2B4B     		ldr	r3, .L11
  97 000a 196C     		ldr	r1, [r3, #64]
  98 000c 41F08051 		orr	r1, r1, #268435456
  99 0010 1964     		str	r1, [r3, #64]
 100 0012 1B6C     		ldr	r3, [r3, #64]
 101 0014 03F08053 		and	r3, r3, #268435456
 102 0018 0193     		str	r3, [sp, #4]
 103 001a 019B     		ldr	r3, [sp, #4]
 104              	.LBE56:
 105              	.LBB57:
 255:Src/main.c    **** 
 106              		.loc 1 255 0
 107 001c 0292     		str	r2, [sp, #8]
 108 001e 2749     		ldr	r1, .L11+4
 109 0020 0B68     		ldr	r3, [r1]
 110 0022 23F44043 		bic	r3, r3, #49152
 111 0026 43F40043 		orr	r3, r3, #32768
 112 002a 0B60     		str	r3, [r1]
 113 002c 0B68     		ldr	r3, [r1]
 114 002e 03F44043 		and	r3, r3, #49152
 115 0032 0293     		str	r3, [sp, #8]
 116 0034 029B     		ldr	r3, [sp, #8]
 117              	.LBE57:
 259:Src/main.c    ****   RCC_OscInitStruct.HSIState = RCC_HSI_ON;
 118              		.loc 1 259 0
 119 0036 0221     		movs	r1, #2
 120 0038 0891     		str	r1, [sp, #32]
 260:Src/main.c    ****   RCC_OscInitStruct.HSICalibrationValue = 16;
 121              		.loc 1 260 0
 122 003a 0123     		movs	r3, #1
 123 003c 0B93     		str	r3, [sp, #44]
 261:Src/main.c    ****   RCC_OscInitStruct.PLL.PLLState = RCC_PLL_ON;
 124              		.loc 1 261 0
 125 003e 1023     		movs	r3, #16
 126 0040 0C93     		str	r3, [sp, #48]
 262:Src/main.c    ****   RCC_OscInitStruct.PLL.PLLSource = RCC_PLLSOURCE_HSI;
 127              		.loc 1 262 0
 128 0042 0E91     		str	r1, [sp, #56]
 263:Src/main.c    ****   RCC_OscInitStruct.PLL.PLLM = 16;
 129              		.loc 1 263 0
 130 0044 0F92     		str	r2, [sp, #60]
 264:Src/main.c    ****   RCC_OscInitStruct.PLL.PLLN = 336;
 131              		.loc 1 264 0
 132 0046 1093     		str	r3, [sp, #64]
 265:Src/main.c    ****   RCC_OscInitStruct.PLL.PLLP = RCC_PLLP_DIV4;
 133              		.loc 1 265 0
 134 0048 4FF4A873 		mov	r3, #336
 135 004c 1193     		str	r3, [sp, #68]
 266:Src/main.c    ****   RCC_OscInitStruct.PLL.PLLQ = 7;
 136              		.loc 1 266 0
ARM GAS  /tmp/cc58ZD3F.s 			page 9


 137 004e 0423     		movs	r3, #4
 138 0050 1293     		str	r3, [sp, #72]
 267:Src/main.c    ****   if (HAL_RCC_OscConfig(&RCC_OscInitStruct) != HAL_OK)
 139              		.loc 1 267 0
 140 0052 0723     		movs	r3, #7
 141 0054 1393     		str	r3, [sp, #76]
 268:Src/main.c    ****   {
 142              		.loc 1 268 0
 143 0056 08A8     		add	r0, sp, #32
 144 0058 FFF7FEFF 		bl	HAL_RCC_OscConfig
 145              	.LVL3:
 146 005c 08BB     		cbnz	r0, .L9
 275:Src/main.c    ****                               |RCC_CLOCKTYPE_PCLK1|RCC_CLOCKTYPE_PCLK2;
 147              		.loc 1 275 0
 148 005e 0F23     		movs	r3, #15
 149 0060 0393     		str	r3, [sp, #12]
 277:Src/main.c    ****   RCC_ClkInitStruct.AHBCLKDivider = RCC_SYSCLK_DIV1;
 150              		.loc 1 277 0
 151 0062 0221     		movs	r1, #2
 152 0064 0491     		str	r1, [sp, #16]
 278:Src/main.c    ****   RCC_ClkInitStruct.APB1CLKDivider = RCC_HCLK_DIV2;
 153              		.loc 1 278 0
 154 0066 0023     		movs	r3, #0
 155 0068 0593     		str	r3, [sp, #20]
 279:Src/main.c    ****   RCC_ClkInitStruct.APB2CLKDivider = RCC_HCLK_DIV1;
 156              		.loc 1 279 0
 157 006a 4FF48052 		mov	r2, #4096
 158 006e 0692     		str	r2, [sp, #24]
 280:Src/main.c    **** 
 159              		.loc 1 280 0
 160 0070 0793     		str	r3, [sp, #28]
 282:Src/main.c    ****   {
 161              		.loc 1 282 0
 162 0072 03A8     		add	r0, sp, #12
 163 0074 FFF7FEFF 		bl	HAL_RCC_ClockConfig
 164              	.LVL4:
 165 0078 C0B9     		cbnz	r0, .L10
 289:Src/main.c    **** 
 166              		.loc 1 289 0
 167 007a FFF7FEFF 		bl	HAL_RCC_GetHCLKFreq
 168              	.LVL5:
 169 007e 104B     		ldr	r3, .L11+8
 170 0080 A3FB0030 		umull	r3, r0, r3, r0
 171 0084 8009     		lsrs	r0, r0, #6
 172 0086 FFF7FEFF 		bl	HAL_SYSTICK_Config
 173              	.LVL6:
 293:Src/main.c    **** 
 174              		.loc 1 293 0
 175 008a 0420     		movs	r0, #4
 176 008c FFF7FEFF 		bl	HAL_SYSTICK_CLKSourceConfig
 177              	.LVL7:
 296:Src/main.c    **** }
 178              		.loc 1 296 0
 179 0090 0022     		movs	r2, #0
 180 0092 1146     		mov	r1, r2
 181 0094 4FF0FF30 		mov	r0, #-1
 182 0098 FFF7FEFF 		bl	HAL_NVIC_SetPriority
ARM GAS  /tmp/cc58ZD3F.s 			page 10


 183              	.LVL8:
 297:Src/main.c    **** 
 184              		.loc 1 297 0
 185 009c 15B0     		add	sp, sp, #84
 186              	.LCFI3:
 187              		.cfi_remember_state
 188              		.cfi_def_cfa_offset 4
 189              		@ sp needed
 190 009e 5DF804FB 		ldr	pc, [sp], #4
 191              	.L9:
 192              	.LCFI4:
 193              		.cfi_restore_state
 270:Src/main.c    ****   }
 194              		.loc 1 270 0
 195 00a2 4FF48771 		mov	r1, #270
 196 00a6 0748     		ldr	r0, .L11+12
 197 00a8 FFF7FEFF 		bl	_Error_Handler
 198              	.LVL9:
 199              	.L10:
 284:Src/main.c    ****   }
 200              		.loc 1 284 0
 201 00ac 4FF48E71 		mov	r1, #284
 202 00b0 0448     		ldr	r0, .L11+12
 203 00b2 FFF7FEFF 		bl	_Error_Handler
 204              	.LVL10:
 205              	.L12:
 206 00b6 00BF     		.align	2
 207              	.L11:
 208 00b8 00380240 		.word	1073887232
 209 00bc 00700040 		.word	1073770496
 210 00c0 D34D6210 		.word	274877907
 211 00c4 00000000 		.word	.LC0
 212              		.cfi_endproc
 213              	.LFE680:
 215              		.section	.text.main,"ax",%progbits
 216              		.align	1
 217              		.global	main
 218              		.syntax unified
 219              		.thumb
 220              		.thumb_func
 221              		.fpu fpv4-sp-d16
 223              	main:
 224              	.LFB679:
  80:Src/main.c    ****   /* USER CODE BEGIN 1 */
 225              		.loc 1 80 0
 226              		.cfi_startproc
 227              		@ args = 0, pretend = 0, frame = 456
 228              		@ frame_needed = 0, uses_anonymous_args = 0
 229 0000 F0B5     		push	{r4, r5, r6, r7, lr}
 230              	.LCFI5:
 231              		.cfi_def_cfa_offset 20
 232              		.cfi_offset 4, -20
 233              		.cfi_offset 5, -16
 234              		.cfi_offset 6, -12
 235              		.cfi_offset 7, -8
 236              		.cfi_offset 14, -4
 237 0002 F3B0     		sub	sp, sp, #460
ARM GAS  /tmp/cc58ZD3F.s 			page 11


 238              	.LCFI6:
 239              		.cfi_def_cfa_offset 480
  88:Src/main.c    **** 
 240              		.loc 1 88 0
 241 0004 FFF7FEFF 		bl	HAL_Init
 242              	.LVL11:
  95:Src/main.c    **** 
 243              		.loc 1 95 0
 244 0008 FFF7FEFF 		bl	SystemClock_Config
 245              	.LVL12:
 102:Src/main.c    ****   MX_DMA_Init();
 246              		.loc 1 102 0
 247 000c FFF7FEFF 		bl	MX_GPIO_Init
 248              	.LVL13:
 103:Src/main.c    ****   MX_I2C1_Init();
 249              		.loc 1 103 0
 250 0010 FFF7FEFF 		bl	MX_DMA_Init
 251              	.LVL14:
 104:Src/main.c    ****   MX_I2C3_Init();
 252              		.loc 1 104 0
 253 0014 FFF7FEFF 		bl	MX_I2C1_Init
 254              	.LVL15:
 105:Src/main.c    ****   MX_USART1_UART_Init();
 255              		.loc 1 105 0
 256 0018 FFF7FEFF 		bl	MX_I2C3_Init
 257              	.LVL16:
 106:Src/main.c    ****   MX_USART2_UART_Init();
 258              		.loc 1 106 0
 259 001c FFF7FEFF 		bl	MX_USART1_UART_Init
 260              	.LVL17:
 107:Src/main.c    ****   MX_USART6_UART_Init();
 261              		.loc 1 107 0
 262 0020 FFF7FEFF 		bl	MX_USART2_UART_Init
 263              	.LVL18:
 108:Src/main.c    ****   MX_TIM1_Init();
 264              		.loc 1 108 0
 265 0024 FFF7FEFF 		bl	MX_USART6_UART_Init
 266              	.LVL19:
 109:Src/main.c    ****   MX_TIM2_Init();
 267              		.loc 1 109 0
 268 0028 FFF7FEFF 		bl	MX_TIM1_Init
 269              	.LVL20:
 110:Src/main.c    ****   /* USER CODE BEGIN 2 */
 270              		.loc 1 110 0
 271 002c FFF7FEFF 		bl	MX_TIM2_Init
 272              	.LVL21:
 118:Src/main.c    ****   RP_INIT_UART_DMA(DMA2, LL_DMA_STREAM_2, USART1, pi_iface);
 273              		.loc 1 118 0
 274 0030 674E     		ldr	r6, .L19
 275 0032 684D     		ldr	r5, .L19+4
 276 0034 684C     		ldr	r4, .L19+8
 277 0036 694F     		ldr	r7, .L19+12
 278 0038 3346     		mov	r3, r6
 279 003a 2A46     		mov	r2, r5
 280 003c 2146     		mov	r1, r4
 281 003e 3846     		mov	r0, r7
 282 0040 FFF7FEFF 		bl	RP_Init_Interface
ARM GAS  /tmp/cc58ZD3F.s 			page 12


 283              	.LVL22:
 119:Src/main.c    **** 
 284              		.loc 1 119 0
 285 0044 0837     		adds	r7, r7, #8
 286              	.LVL23:
 287              	.LBB58:
 288              	.LBB59:
 289              		.file 2 "Drivers/STM32F4xx_HAL_Driver/Inc/stm32f4xx_ll_dma.h"
   1:Drivers/STM32F4xx_HAL_Driver/Inc/stm32f4xx_ll_dma.h **** /**
   2:Drivers/STM32F4xx_HAL_Driver/Inc/stm32f4xx_ll_dma.h ****   ******************************************************************************
   3:Drivers/STM32F4xx_HAL_Driver/Inc/stm32f4xx_ll_dma.h ****   * @file    stm32f4xx_ll_dma.h
   4:Drivers/STM32F4xx_HAL_Driver/Inc/stm32f4xx_ll_dma.h ****   * @author  MCD Application Team
   5:Drivers/STM32F4xx_HAL_Driver/Inc/stm32f4xx_ll_dma.h ****   * @brief   Header file of DMA LL module.
   6:Drivers/STM32F4xx_HAL_Driver/Inc/stm32f4xx_ll_dma.h ****   ******************************************************************************
   7:Drivers/STM32F4xx_HAL_Driver/Inc/stm32f4xx_ll_dma.h ****   * @attention
   8:Drivers/STM32F4xx_HAL_Driver/Inc/stm32f4xx_ll_dma.h ****   *
   9:Drivers/STM32F4xx_HAL_Driver/Inc/stm32f4xx_ll_dma.h ****   * <h2><center>&copy; COPYRIGHT(c) 2017 STMicroelectronics</center></h2>
  10:Drivers/STM32F4xx_HAL_Driver/Inc/stm32f4xx_ll_dma.h ****   *
  11:Drivers/STM32F4xx_HAL_Driver/Inc/stm32f4xx_ll_dma.h ****   * Redistribution and use in source and binary forms, with or without modification,
  12:Drivers/STM32F4xx_HAL_Driver/Inc/stm32f4xx_ll_dma.h ****   * are permitted provided that the following conditions are met:
  13:Drivers/STM32F4xx_HAL_Driver/Inc/stm32f4xx_ll_dma.h ****   *   1. Redistributions of source code must retain the above copyright notice,
  14:Drivers/STM32F4xx_HAL_Driver/Inc/stm32f4xx_ll_dma.h ****   *      this list of conditions and the following disclaimer.
  15:Drivers/STM32F4xx_HAL_Driver/Inc/stm32f4xx_ll_dma.h ****   *   2. Redistributions in binary form must reproduce the above copyright notice,
  16:Drivers/STM32F4xx_HAL_Driver/Inc/stm32f4xx_ll_dma.h ****   *      this list of conditions and the following disclaimer in the documentation
  17:Drivers/STM32F4xx_HAL_Driver/Inc/stm32f4xx_ll_dma.h ****   *      and/or other materials provided with the distribution.
  18:Drivers/STM32F4xx_HAL_Driver/Inc/stm32f4xx_ll_dma.h ****   *   3. Neither the name of STMicroelectronics nor the names of its contributors
  19:Drivers/STM32F4xx_HAL_Driver/Inc/stm32f4xx_ll_dma.h ****   *      may be used to endorse or promote products derived from this software
  20:Drivers/STM32F4xx_HAL_Driver/Inc/stm32f4xx_ll_dma.h ****   *      without specific prior written permission.
  21:Drivers/STM32F4xx_HAL_Driver/Inc/stm32f4xx_ll_dma.h ****   *
  22:Drivers/STM32F4xx_HAL_Driver/Inc/stm32f4xx_ll_dma.h ****   * THIS SOFTWARE IS PROVIDED BY THE COPYRIGHT HOLDERS AND CONTRIBUTORS "AS IS"
  23:Drivers/STM32F4xx_HAL_Driver/Inc/stm32f4xx_ll_dma.h ****   * AND ANY EXPRESS OR IMPLIED WARRANTIES, INCLUDING, BUT NOT LIMITED TO, THE
  24:Drivers/STM32F4xx_HAL_Driver/Inc/stm32f4xx_ll_dma.h ****   * IMPLIED WARRANTIES OF MERCHANTABILITY AND FITNESS FOR A PARTICULAR PURPOSE ARE
  25:Drivers/STM32F4xx_HAL_Driver/Inc/stm32f4xx_ll_dma.h ****   * DISCLAIMED. IN NO EVENT SHALL THE COPYRIGHT HOLDER OR CONTRIBUTORS BE LIABLE
  26:Drivers/STM32F4xx_HAL_Driver/Inc/stm32f4xx_ll_dma.h ****   * FOR ANY DIRECT, INDIRECT, INCIDENTAL, SPECIAL, EXEMPLARY, OR CONSEQUENTIAL
  27:Drivers/STM32F4xx_HAL_Driver/Inc/stm32f4xx_ll_dma.h ****   * DAMAGES (INCLUDING, BUT NOT LIMITED TO, PROCUREMENT OF SUBSTITUTE GOODS OR
  28:Drivers/STM32F4xx_HAL_Driver/Inc/stm32f4xx_ll_dma.h ****   * SERVICES; LOSS OF USE, DATA, OR PROFITS; OR BUSINESS INTERRUPTION) HOWEVER
  29:Drivers/STM32F4xx_HAL_Driver/Inc/stm32f4xx_ll_dma.h ****   * CAUSED AND ON ANY THEORY OF LIABILITY, WHETHER IN CONTRACT, STRICT LIABILITY,
  30:Drivers/STM32F4xx_HAL_Driver/Inc/stm32f4xx_ll_dma.h ****   * OR TORT (INCLUDING NEGLIGENCE OR OTHERWISE) ARISING IN ANY WAY OUT OF THE USE
  31:Drivers/STM32F4xx_HAL_Driver/Inc/stm32f4xx_ll_dma.h ****   * OF THIS SOFTWARE, EVEN IF ADVISED OF THE POSSIBILITY OF SUCH DAMAGE.
  32:Drivers/STM32F4xx_HAL_Driver/Inc/stm32f4xx_ll_dma.h ****   *
  33:Drivers/STM32F4xx_HAL_Driver/Inc/stm32f4xx_ll_dma.h ****   ******************************************************************************
  34:Drivers/STM32F4xx_HAL_Driver/Inc/stm32f4xx_ll_dma.h ****   */
  35:Drivers/STM32F4xx_HAL_Driver/Inc/stm32f4xx_ll_dma.h **** 
  36:Drivers/STM32F4xx_HAL_Driver/Inc/stm32f4xx_ll_dma.h **** /* Define to prevent recursive inclusion -------------------------------------*/
  37:Drivers/STM32F4xx_HAL_Driver/Inc/stm32f4xx_ll_dma.h **** #ifndef __STM32F4xx_LL_DMA_H
  38:Drivers/STM32F4xx_HAL_Driver/Inc/stm32f4xx_ll_dma.h **** #define __STM32F4xx_LL_DMA_H
  39:Drivers/STM32F4xx_HAL_Driver/Inc/stm32f4xx_ll_dma.h **** 
  40:Drivers/STM32F4xx_HAL_Driver/Inc/stm32f4xx_ll_dma.h **** #ifdef __cplusplus
  41:Drivers/STM32F4xx_HAL_Driver/Inc/stm32f4xx_ll_dma.h **** extern "C" {
  42:Drivers/STM32F4xx_HAL_Driver/Inc/stm32f4xx_ll_dma.h **** #endif
  43:Drivers/STM32F4xx_HAL_Driver/Inc/stm32f4xx_ll_dma.h **** 
  44:Drivers/STM32F4xx_HAL_Driver/Inc/stm32f4xx_ll_dma.h **** /* Includes ------------------------------------------------------------------*/
  45:Drivers/STM32F4xx_HAL_Driver/Inc/stm32f4xx_ll_dma.h **** #include "stm32f4xx.h"
  46:Drivers/STM32F4xx_HAL_Driver/Inc/stm32f4xx_ll_dma.h **** 
  47:Drivers/STM32F4xx_HAL_Driver/Inc/stm32f4xx_ll_dma.h **** /** @addtogroup STM32F4xx_LL_Driver
  48:Drivers/STM32F4xx_HAL_Driver/Inc/stm32f4xx_ll_dma.h ****   * @{
  49:Drivers/STM32F4xx_HAL_Driver/Inc/stm32f4xx_ll_dma.h ****   */
ARM GAS  /tmp/cc58ZD3F.s 			page 13


  50:Drivers/STM32F4xx_HAL_Driver/Inc/stm32f4xx_ll_dma.h **** 
  51:Drivers/STM32F4xx_HAL_Driver/Inc/stm32f4xx_ll_dma.h **** #if defined (DMA1) || defined (DMA2)
  52:Drivers/STM32F4xx_HAL_Driver/Inc/stm32f4xx_ll_dma.h **** 
  53:Drivers/STM32F4xx_HAL_Driver/Inc/stm32f4xx_ll_dma.h **** /** @defgroup DMA_LL DMA
  54:Drivers/STM32F4xx_HAL_Driver/Inc/stm32f4xx_ll_dma.h ****   * @{
  55:Drivers/STM32F4xx_HAL_Driver/Inc/stm32f4xx_ll_dma.h ****   */
  56:Drivers/STM32F4xx_HAL_Driver/Inc/stm32f4xx_ll_dma.h **** 
  57:Drivers/STM32F4xx_HAL_Driver/Inc/stm32f4xx_ll_dma.h **** /* Private types -------------------------------------------------------------*/
  58:Drivers/STM32F4xx_HAL_Driver/Inc/stm32f4xx_ll_dma.h **** /* Private variables ---------------------------------------------------------*/
  59:Drivers/STM32F4xx_HAL_Driver/Inc/stm32f4xx_ll_dma.h **** /** @defgroup DMA_LL_Private_Variables DMA Private Variables
  60:Drivers/STM32F4xx_HAL_Driver/Inc/stm32f4xx_ll_dma.h ****   * @{
  61:Drivers/STM32F4xx_HAL_Driver/Inc/stm32f4xx_ll_dma.h ****   */
  62:Drivers/STM32F4xx_HAL_Driver/Inc/stm32f4xx_ll_dma.h **** /* Array used to get the DMA stream register offset versus stream index LL_DMA_STREAM_x */
  63:Drivers/STM32F4xx_HAL_Driver/Inc/stm32f4xx_ll_dma.h **** static const uint8_t STREAM_OFFSET_TAB[] =
  64:Drivers/STM32F4xx_HAL_Driver/Inc/stm32f4xx_ll_dma.h **** {
  65:Drivers/STM32F4xx_HAL_Driver/Inc/stm32f4xx_ll_dma.h ****   (uint8_t)(DMA1_Stream0_BASE - DMA1_BASE),
  66:Drivers/STM32F4xx_HAL_Driver/Inc/stm32f4xx_ll_dma.h ****   (uint8_t)(DMA1_Stream1_BASE - DMA1_BASE),
  67:Drivers/STM32F4xx_HAL_Driver/Inc/stm32f4xx_ll_dma.h ****   (uint8_t)(DMA1_Stream2_BASE - DMA1_BASE),
  68:Drivers/STM32F4xx_HAL_Driver/Inc/stm32f4xx_ll_dma.h ****   (uint8_t)(DMA1_Stream3_BASE - DMA1_BASE),
  69:Drivers/STM32F4xx_HAL_Driver/Inc/stm32f4xx_ll_dma.h ****   (uint8_t)(DMA1_Stream4_BASE - DMA1_BASE),
  70:Drivers/STM32F4xx_HAL_Driver/Inc/stm32f4xx_ll_dma.h ****   (uint8_t)(DMA1_Stream5_BASE - DMA1_BASE),
  71:Drivers/STM32F4xx_HAL_Driver/Inc/stm32f4xx_ll_dma.h ****   (uint8_t)(DMA1_Stream6_BASE - DMA1_BASE),
  72:Drivers/STM32F4xx_HAL_Driver/Inc/stm32f4xx_ll_dma.h ****   (uint8_t)(DMA1_Stream7_BASE - DMA1_BASE)
  73:Drivers/STM32F4xx_HAL_Driver/Inc/stm32f4xx_ll_dma.h **** };
  74:Drivers/STM32F4xx_HAL_Driver/Inc/stm32f4xx_ll_dma.h **** 
  75:Drivers/STM32F4xx_HAL_Driver/Inc/stm32f4xx_ll_dma.h **** /**
  76:Drivers/STM32F4xx_HAL_Driver/Inc/stm32f4xx_ll_dma.h ****   * @}
  77:Drivers/STM32F4xx_HAL_Driver/Inc/stm32f4xx_ll_dma.h ****   */
  78:Drivers/STM32F4xx_HAL_Driver/Inc/stm32f4xx_ll_dma.h **** 
  79:Drivers/STM32F4xx_HAL_Driver/Inc/stm32f4xx_ll_dma.h **** /* Private constants ---------------------------------------------------------*/
  80:Drivers/STM32F4xx_HAL_Driver/Inc/stm32f4xx_ll_dma.h **** /** @defgroup DMA_LL_Private_Constants DMA Private Constants
  81:Drivers/STM32F4xx_HAL_Driver/Inc/stm32f4xx_ll_dma.h ****   * @{
  82:Drivers/STM32F4xx_HAL_Driver/Inc/stm32f4xx_ll_dma.h ****   */
  83:Drivers/STM32F4xx_HAL_Driver/Inc/stm32f4xx_ll_dma.h **** /**
  84:Drivers/STM32F4xx_HAL_Driver/Inc/stm32f4xx_ll_dma.h ****   * @}
  85:Drivers/STM32F4xx_HAL_Driver/Inc/stm32f4xx_ll_dma.h ****   */
  86:Drivers/STM32F4xx_HAL_Driver/Inc/stm32f4xx_ll_dma.h **** 
  87:Drivers/STM32F4xx_HAL_Driver/Inc/stm32f4xx_ll_dma.h **** 
  88:Drivers/STM32F4xx_HAL_Driver/Inc/stm32f4xx_ll_dma.h **** /* Private macros ------------------------------------------------------------*/
  89:Drivers/STM32F4xx_HAL_Driver/Inc/stm32f4xx_ll_dma.h **** /* Exported types ------------------------------------------------------------*/
  90:Drivers/STM32F4xx_HAL_Driver/Inc/stm32f4xx_ll_dma.h **** #if defined(USE_FULL_LL_DRIVER)
  91:Drivers/STM32F4xx_HAL_Driver/Inc/stm32f4xx_ll_dma.h **** /** @defgroup DMA_LL_ES_INIT DMA Exported Init structure
  92:Drivers/STM32F4xx_HAL_Driver/Inc/stm32f4xx_ll_dma.h ****   * @{
  93:Drivers/STM32F4xx_HAL_Driver/Inc/stm32f4xx_ll_dma.h ****   */
  94:Drivers/STM32F4xx_HAL_Driver/Inc/stm32f4xx_ll_dma.h **** typedef struct
  95:Drivers/STM32F4xx_HAL_Driver/Inc/stm32f4xx_ll_dma.h **** {
  96:Drivers/STM32F4xx_HAL_Driver/Inc/stm32f4xx_ll_dma.h ****   uint32_t PeriphOrM2MSrcAddress;  /*!< Specifies the peripheral base address for DMA transfer
  97:Drivers/STM32F4xx_HAL_Driver/Inc/stm32f4xx_ll_dma.h ****                                         or as Source base address in case of memory to memory trans
  98:Drivers/STM32F4xx_HAL_Driver/Inc/stm32f4xx_ll_dma.h **** 
  99:Drivers/STM32F4xx_HAL_Driver/Inc/stm32f4xx_ll_dma.h ****                                         This parameter must be a value between Min_Data = 0 and Max
 100:Drivers/STM32F4xx_HAL_Driver/Inc/stm32f4xx_ll_dma.h **** 
 101:Drivers/STM32F4xx_HAL_Driver/Inc/stm32f4xx_ll_dma.h ****   uint32_t MemoryOrM2MDstAddress;  /*!< Specifies the memory base address for DMA transfer
 102:Drivers/STM32F4xx_HAL_Driver/Inc/stm32f4xx_ll_dma.h ****                                         or as Destination base address in case of memory to memory 
 103:Drivers/STM32F4xx_HAL_Driver/Inc/stm32f4xx_ll_dma.h **** 
 104:Drivers/STM32F4xx_HAL_Driver/Inc/stm32f4xx_ll_dma.h ****                                         This parameter must be a value between Min_Data = 0 and Max
 105:Drivers/STM32F4xx_HAL_Driver/Inc/stm32f4xx_ll_dma.h **** 
 106:Drivers/STM32F4xx_HAL_Driver/Inc/stm32f4xx_ll_dma.h ****   uint32_t Direction;              /*!< Specifies if the data will be transferred from memory to pe
ARM GAS  /tmp/cc58ZD3F.s 			page 14


 107:Drivers/STM32F4xx_HAL_Driver/Inc/stm32f4xx_ll_dma.h ****                                         from memory to memory or from peripheral to memory.
 108:Drivers/STM32F4xx_HAL_Driver/Inc/stm32f4xx_ll_dma.h ****                                         This parameter can be a value of @ref DMA_LL_EC_DIRECTION
 109:Drivers/STM32F4xx_HAL_Driver/Inc/stm32f4xx_ll_dma.h **** 
 110:Drivers/STM32F4xx_HAL_Driver/Inc/stm32f4xx_ll_dma.h ****                                         This feature can be modified afterwards using unitary funct
 111:Drivers/STM32F4xx_HAL_Driver/Inc/stm32f4xx_ll_dma.h **** 
 112:Drivers/STM32F4xx_HAL_Driver/Inc/stm32f4xx_ll_dma.h ****   uint32_t Mode;                   /*!< Specifies the normal or circular operation mode.
 113:Drivers/STM32F4xx_HAL_Driver/Inc/stm32f4xx_ll_dma.h ****                                         This parameter can be a value of @ref DMA_LL_EC_MODE
 114:Drivers/STM32F4xx_HAL_Driver/Inc/stm32f4xx_ll_dma.h ****                                         @note The circular buffer mode cannot be used if the memory
 115:Drivers/STM32F4xx_HAL_Driver/Inc/stm32f4xx_ll_dma.h ****                                               data transfer direction is configured on the selected
 116:Drivers/STM32F4xx_HAL_Driver/Inc/stm32f4xx_ll_dma.h **** 
 117:Drivers/STM32F4xx_HAL_Driver/Inc/stm32f4xx_ll_dma.h ****                                         This feature can be modified afterwards using unitary funct
 118:Drivers/STM32F4xx_HAL_Driver/Inc/stm32f4xx_ll_dma.h **** 
 119:Drivers/STM32F4xx_HAL_Driver/Inc/stm32f4xx_ll_dma.h ****   uint32_t PeriphOrM2MSrcIncMode;  /*!< Specifies whether the Peripheral address or Source address 
 120:Drivers/STM32F4xx_HAL_Driver/Inc/stm32f4xx_ll_dma.h ****                                         is incremented or not.
 121:Drivers/STM32F4xx_HAL_Driver/Inc/stm32f4xx_ll_dma.h ****                                         This parameter can be a value of @ref DMA_LL_EC_PERIPH
 122:Drivers/STM32F4xx_HAL_Driver/Inc/stm32f4xx_ll_dma.h **** 
 123:Drivers/STM32F4xx_HAL_Driver/Inc/stm32f4xx_ll_dma.h ****                                         This feature can be modified afterwards using unitary funct
 124:Drivers/STM32F4xx_HAL_Driver/Inc/stm32f4xx_ll_dma.h **** 
 125:Drivers/STM32F4xx_HAL_Driver/Inc/stm32f4xx_ll_dma.h ****   uint32_t MemoryOrM2MDstIncMode;  /*!< Specifies whether the Memory address or Destination address
 126:Drivers/STM32F4xx_HAL_Driver/Inc/stm32f4xx_ll_dma.h ****                                         is incremented or not.
 127:Drivers/STM32F4xx_HAL_Driver/Inc/stm32f4xx_ll_dma.h ****                                         This parameter can be a value of @ref DMA_LL_EC_MEMORY
 128:Drivers/STM32F4xx_HAL_Driver/Inc/stm32f4xx_ll_dma.h **** 
 129:Drivers/STM32F4xx_HAL_Driver/Inc/stm32f4xx_ll_dma.h ****                                         This feature can be modified afterwards using unitary funct
 130:Drivers/STM32F4xx_HAL_Driver/Inc/stm32f4xx_ll_dma.h **** 
 131:Drivers/STM32F4xx_HAL_Driver/Inc/stm32f4xx_ll_dma.h ****   uint32_t PeriphOrM2MSrcDataSize; /*!< Specifies the Peripheral data size alignment or Source data
 132:Drivers/STM32F4xx_HAL_Driver/Inc/stm32f4xx_ll_dma.h ****                                         in case of memory to memory transfer direction.
 133:Drivers/STM32F4xx_HAL_Driver/Inc/stm32f4xx_ll_dma.h ****                                         This parameter can be a value of @ref DMA_LL_EC_PDATAALIGN
 134:Drivers/STM32F4xx_HAL_Driver/Inc/stm32f4xx_ll_dma.h **** 
 135:Drivers/STM32F4xx_HAL_Driver/Inc/stm32f4xx_ll_dma.h ****                                         This feature can be modified afterwards using unitary funct
 136:Drivers/STM32F4xx_HAL_Driver/Inc/stm32f4xx_ll_dma.h **** 
 137:Drivers/STM32F4xx_HAL_Driver/Inc/stm32f4xx_ll_dma.h ****   uint32_t MemoryOrM2MDstDataSize; /*!< Specifies the Memory data size alignment or Destination dat
 138:Drivers/STM32F4xx_HAL_Driver/Inc/stm32f4xx_ll_dma.h ****                                         in case of memory to memory transfer direction.
 139:Drivers/STM32F4xx_HAL_Driver/Inc/stm32f4xx_ll_dma.h ****                                         This parameter can be a value of @ref DMA_LL_EC_MDATAALIGN
 140:Drivers/STM32F4xx_HAL_Driver/Inc/stm32f4xx_ll_dma.h **** 
 141:Drivers/STM32F4xx_HAL_Driver/Inc/stm32f4xx_ll_dma.h ****                                         This feature can be modified afterwards using unitary funct
 142:Drivers/STM32F4xx_HAL_Driver/Inc/stm32f4xx_ll_dma.h **** 
 143:Drivers/STM32F4xx_HAL_Driver/Inc/stm32f4xx_ll_dma.h ****   uint32_t NbData;                 /*!< Specifies the number of data to transfer, in data unit.
 144:Drivers/STM32F4xx_HAL_Driver/Inc/stm32f4xx_ll_dma.h ****                                         The data unit is equal to the source buffer configuration s
 145:Drivers/STM32F4xx_HAL_Driver/Inc/stm32f4xx_ll_dma.h ****                                         or MemorySize parameters depending in the transfer directio
 146:Drivers/STM32F4xx_HAL_Driver/Inc/stm32f4xx_ll_dma.h ****                                         This parameter must be a value between Min_Data = 0 and Max
 147:Drivers/STM32F4xx_HAL_Driver/Inc/stm32f4xx_ll_dma.h **** 
 148:Drivers/STM32F4xx_HAL_Driver/Inc/stm32f4xx_ll_dma.h ****                                         This feature can be modified afterwards using unitary funct
 149:Drivers/STM32F4xx_HAL_Driver/Inc/stm32f4xx_ll_dma.h **** 
 150:Drivers/STM32F4xx_HAL_Driver/Inc/stm32f4xx_ll_dma.h ****   uint32_t Channel;                /*!< Specifies the peripheral channel.
 151:Drivers/STM32F4xx_HAL_Driver/Inc/stm32f4xx_ll_dma.h ****                                         This parameter can be a value of @ref DMA_LL_EC_CHANNEL
 152:Drivers/STM32F4xx_HAL_Driver/Inc/stm32f4xx_ll_dma.h **** 
 153:Drivers/STM32F4xx_HAL_Driver/Inc/stm32f4xx_ll_dma.h ****                                         This feature can be modified afterwards using unitary funct
 154:Drivers/STM32F4xx_HAL_Driver/Inc/stm32f4xx_ll_dma.h **** 
 155:Drivers/STM32F4xx_HAL_Driver/Inc/stm32f4xx_ll_dma.h ****   uint32_t Priority;               /*!< Specifies the channel priority level.
 156:Drivers/STM32F4xx_HAL_Driver/Inc/stm32f4xx_ll_dma.h ****                                         This parameter can be a value of @ref DMA_LL_EC_PRIORITY
 157:Drivers/STM32F4xx_HAL_Driver/Inc/stm32f4xx_ll_dma.h **** 
 158:Drivers/STM32F4xx_HAL_Driver/Inc/stm32f4xx_ll_dma.h ****                                         This feature can be modified afterwards using unitary funct
 159:Drivers/STM32F4xx_HAL_Driver/Inc/stm32f4xx_ll_dma.h ****                                         
 160:Drivers/STM32F4xx_HAL_Driver/Inc/stm32f4xx_ll_dma.h ****   uint32_t FIFOMode;               /*!< Specifies if the FIFO mode or Direct mode will be used for 
 161:Drivers/STM32F4xx_HAL_Driver/Inc/stm32f4xx_ll_dma.h ****                                         This parameter can be a value of @ref DMA_LL_FIFOMODE
 162:Drivers/STM32F4xx_HAL_Driver/Inc/stm32f4xx_ll_dma.h ****                                         @note The Direct mode (FIFO mode disabled) cannot be used i
 163:Drivers/STM32F4xx_HAL_Driver/Inc/stm32f4xx_ll_dma.h ****                                         memory-to-memory data transfer is configured on the selecte
ARM GAS  /tmp/cc58ZD3F.s 			page 15


 164:Drivers/STM32F4xx_HAL_Driver/Inc/stm32f4xx_ll_dma.h **** 
 165:Drivers/STM32F4xx_HAL_Driver/Inc/stm32f4xx_ll_dma.h ****                                         This feature can be modified afterwards using unitary funct
 166:Drivers/STM32F4xx_HAL_Driver/Inc/stm32f4xx_ll_dma.h **** 
 167:Drivers/STM32F4xx_HAL_Driver/Inc/stm32f4xx_ll_dma.h ****   uint32_t FIFOThreshold;          /*!< Specifies the FIFO threshold level.
 168:Drivers/STM32F4xx_HAL_Driver/Inc/stm32f4xx_ll_dma.h ****                                         This parameter can be a value of @ref DMA_LL_EC_FIFOTHRESHO
 169:Drivers/STM32F4xx_HAL_Driver/Inc/stm32f4xx_ll_dma.h **** 
 170:Drivers/STM32F4xx_HAL_Driver/Inc/stm32f4xx_ll_dma.h ****                                         This feature can be modified afterwards using unitary funct
 171:Drivers/STM32F4xx_HAL_Driver/Inc/stm32f4xx_ll_dma.h **** 
 172:Drivers/STM32F4xx_HAL_Driver/Inc/stm32f4xx_ll_dma.h ****   uint32_t MemBurst;               /*!< Specifies the Burst transfer configuration for the memory t
 173:Drivers/STM32F4xx_HAL_Driver/Inc/stm32f4xx_ll_dma.h ****                                         It specifies the amount of data to be transferred in a sing
 174:Drivers/STM32F4xx_HAL_Driver/Inc/stm32f4xx_ll_dma.h ****                                         transaction.
 175:Drivers/STM32F4xx_HAL_Driver/Inc/stm32f4xx_ll_dma.h ****                                         This parameter can be a value of @ref DMA_LL_EC_MBURST 
 176:Drivers/STM32F4xx_HAL_Driver/Inc/stm32f4xx_ll_dma.h ****                                         @note The burst mode is possible only if the address Increm
 177:Drivers/STM32F4xx_HAL_Driver/Inc/stm32f4xx_ll_dma.h **** 
 178:Drivers/STM32F4xx_HAL_Driver/Inc/stm32f4xx_ll_dma.h ****                                         This feature can be modified afterwards using unitary funct
 179:Drivers/STM32F4xx_HAL_Driver/Inc/stm32f4xx_ll_dma.h **** 
 180:Drivers/STM32F4xx_HAL_Driver/Inc/stm32f4xx_ll_dma.h ****   uint32_t PeriphBurst;            /*!< Specifies the Burst transfer configuration for the peripher
 181:Drivers/STM32F4xx_HAL_Driver/Inc/stm32f4xx_ll_dma.h ****                                         It specifies the amount of data to be transferred in a sing
 182:Drivers/STM32F4xx_HAL_Driver/Inc/stm32f4xx_ll_dma.h ****                                         transaction. 
 183:Drivers/STM32F4xx_HAL_Driver/Inc/stm32f4xx_ll_dma.h ****                                         This parameter can be a value of @ref DMA_LL_EC_PBURST
 184:Drivers/STM32F4xx_HAL_Driver/Inc/stm32f4xx_ll_dma.h ****                                         @note The burst mode is possible only if the address Increm
 185:Drivers/STM32F4xx_HAL_Driver/Inc/stm32f4xx_ll_dma.h **** 
 186:Drivers/STM32F4xx_HAL_Driver/Inc/stm32f4xx_ll_dma.h ****                                         This feature can be modified afterwards using unitary funct
 187:Drivers/STM32F4xx_HAL_Driver/Inc/stm32f4xx_ll_dma.h **** 
 188:Drivers/STM32F4xx_HAL_Driver/Inc/stm32f4xx_ll_dma.h **** } LL_DMA_InitTypeDef;
 189:Drivers/STM32F4xx_HAL_Driver/Inc/stm32f4xx_ll_dma.h **** /**
 190:Drivers/STM32F4xx_HAL_Driver/Inc/stm32f4xx_ll_dma.h ****   * @}
 191:Drivers/STM32F4xx_HAL_Driver/Inc/stm32f4xx_ll_dma.h ****   */
 192:Drivers/STM32F4xx_HAL_Driver/Inc/stm32f4xx_ll_dma.h **** #endif /*USE_FULL_LL_DRIVER*/
 193:Drivers/STM32F4xx_HAL_Driver/Inc/stm32f4xx_ll_dma.h **** /* Exported constants --------------------------------------------------------*/
 194:Drivers/STM32F4xx_HAL_Driver/Inc/stm32f4xx_ll_dma.h **** /** @defgroup DMA_LL_Exported_Constants DMA Exported Constants
 195:Drivers/STM32F4xx_HAL_Driver/Inc/stm32f4xx_ll_dma.h ****   * @{
 196:Drivers/STM32F4xx_HAL_Driver/Inc/stm32f4xx_ll_dma.h ****   */
 197:Drivers/STM32F4xx_HAL_Driver/Inc/stm32f4xx_ll_dma.h **** 
 198:Drivers/STM32F4xx_HAL_Driver/Inc/stm32f4xx_ll_dma.h **** /** @defgroup DMA_LL_EC_STREAM STREAM
 199:Drivers/STM32F4xx_HAL_Driver/Inc/stm32f4xx_ll_dma.h ****   * @{
 200:Drivers/STM32F4xx_HAL_Driver/Inc/stm32f4xx_ll_dma.h ****   */
 201:Drivers/STM32F4xx_HAL_Driver/Inc/stm32f4xx_ll_dma.h **** #define LL_DMA_STREAM_0                   0x00000000U
 202:Drivers/STM32F4xx_HAL_Driver/Inc/stm32f4xx_ll_dma.h **** #define LL_DMA_STREAM_1                   0x00000001U
 203:Drivers/STM32F4xx_HAL_Driver/Inc/stm32f4xx_ll_dma.h **** #define LL_DMA_STREAM_2                   0x00000002U
 204:Drivers/STM32F4xx_HAL_Driver/Inc/stm32f4xx_ll_dma.h **** #define LL_DMA_STREAM_3                   0x00000003U
 205:Drivers/STM32F4xx_HAL_Driver/Inc/stm32f4xx_ll_dma.h **** #define LL_DMA_STREAM_4                   0x00000004U
 206:Drivers/STM32F4xx_HAL_Driver/Inc/stm32f4xx_ll_dma.h **** #define LL_DMA_STREAM_5                   0x00000005U
 207:Drivers/STM32F4xx_HAL_Driver/Inc/stm32f4xx_ll_dma.h **** #define LL_DMA_STREAM_6                   0x00000006U
 208:Drivers/STM32F4xx_HAL_Driver/Inc/stm32f4xx_ll_dma.h **** #define LL_DMA_STREAM_7                   0x00000007U
 209:Drivers/STM32F4xx_HAL_Driver/Inc/stm32f4xx_ll_dma.h **** #define LL_DMA_STREAM_ALL                 0xFFFF0000U
 210:Drivers/STM32F4xx_HAL_Driver/Inc/stm32f4xx_ll_dma.h **** /**
 211:Drivers/STM32F4xx_HAL_Driver/Inc/stm32f4xx_ll_dma.h ****   * @}
 212:Drivers/STM32F4xx_HAL_Driver/Inc/stm32f4xx_ll_dma.h ****   */
 213:Drivers/STM32F4xx_HAL_Driver/Inc/stm32f4xx_ll_dma.h **** 
 214:Drivers/STM32F4xx_HAL_Driver/Inc/stm32f4xx_ll_dma.h **** /** @defgroup DMA_LL_EC_DIRECTION DIRECTION
 215:Drivers/STM32F4xx_HAL_Driver/Inc/stm32f4xx_ll_dma.h ****   * @{
 216:Drivers/STM32F4xx_HAL_Driver/Inc/stm32f4xx_ll_dma.h ****   */
 217:Drivers/STM32F4xx_HAL_Driver/Inc/stm32f4xx_ll_dma.h **** #define LL_DMA_DIRECTION_PERIPH_TO_MEMORY 0x00000000U               /*!< Peripheral to memory direc
 218:Drivers/STM32F4xx_HAL_Driver/Inc/stm32f4xx_ll_dma.h **** #define LL_DMA_DIRECTION_MEMORY_TO_PERIPH DMA_SxCR_DIR_0            /*!< Memory to peripheral direc
 219:Drivers/STM32F4xx_HAL_Driver/Inc/stm32f4xx_ll_dma.h **** #define LL_DMA_DIRECTION_MEMORY_TO_MEMORY DMA_SxCR_DIR_1            /*!< Memory to memory direction
 220:Drivers/STM32F4xx_HAL_Driver/Inc/stm32f4xx_ll_dma.h **** /**
ARM GAS  /tmp/cc58ZD3F.s 			page 16


 221:Drivers/STM32F4xx_HAL_Driver/Inc/stm32f4xx_ll_dma.h ****   * @}
 222:Drivers/STM32F4xx_HAL_Driver/Inc/stm32f4xx_ll_dma.h ****   */
 223:Drivers/STM32F4xx_HAL_Driver/Inc/stm32f4xx_ll_dma.h **** 
 224:Drivers/STM32F4xx_HAL_Driver/Inc/stm32f4xx_ll_dma.h **** /** @defgroup DMA_LL_EC_MODE MODE
 225:Drivers/STM32F4xx_HAL_Driver/Inc/stm32f4xx_ll_dma.h ****   * @{
 226:Drivers/STM32F4xx_HAL_Driver/Inc/stm32f4xx_ll_dma.h ****   */
 227:Drivers/STM32F4xx_HAL_Driver/Inc/stm32f4xx_ll_dma.h **** #define LL_DMA_MODE_NORMAL                0x00000000U               /*!< Normal Mode               
 228:Drivers/STM32F4xx_HAL_Driver/Inc/stm32f4xx_ll_dma.h **** #define LL_DMA_MODE_CIRCULAR              DMA_SxCR_CIRC             /*!< Circular Mode             
 229:Drivers/STM32F4xx_HAL_Driver/Inc/stm32f4xx_ll_dma.h **** #define LL_DMA_MODE_PFCTRL                DMA_SxCR_PFCTRL           /*!< Peripheral flow control mo
 230:Drivers/STM32F4xx_HAL_Driver/Inc/stm32f4xx_ll_dma.h **** /**
 231:Drivers/STM32F4xx_HAL_Driver/Inc/stm32f4xx_ll_dma.h ****   * @}
 232:Drivers/STM32F4xx_HAL_Driver/Inc/stm32f4xx_ll_dma.h ****   */
 233:Drivers/STM32F4xx_HAL_Driver/Inc/stm32f4xx_ll_dma.h **** 
 234:Drivers/STM32F4xx_HAL_Driver/Inc/stm32f4xx_ll_dma.h **** /** @defgroup DMA_LL_EC_DOUBLEBUFFER_MODE DOUBLEBUFFER MODE
 235:Drivers/STM32F4xx_HAL_Driver/Inc/stm32f4xx_ll_dma.h ****   * @{
 236:Drivers/STM32F4xx_HAL_Driver/Inc/stm32f4xx_ll_dma.h ****   */
 237:Drivers/STM32F4xx_HAL_Driver/Inc/stm32f4xx_ll_dma.h **** #define LL_DMA_DOUBLEBUFFER_MODE_DISABLE  0x00000000U               /*!< Disable double buffering m
 238:Drivers/STM32F4xx_HAL_Driver/Inc/stm32f4xx_ll_dma.h **** #define LL_DMA_DOUBLEBUFFER_MODE_ENABLE   DMA_SxCR_DBM              /*!< Enable double buffering mo
 239:Drivers/STM32F4xx_HAL_Driver/Inc/stm32f4xx_ll_dma.h **** /**
 240:Drivers/STM32F4xx_HAL_Driver/Inc/stm32f4xx_ll_dma.h ****   * @}
 241:Drivers/STM32F4xx_HAL_Driver/Inc/stm32f4xx_ll_dma.h ****   */
 242:Drivers/STM32F4xx_HAL_Driver/Inc/stm32f4xx_ll_dma.h **** 
 243:Drivers/STM32F4xx_HAL_Driver/Inc/stm32f4xx_ll_dma.h **** /** @defgroup DMA_LL_EC_PERIPH PERIPH
 244:Drivers/STM32F4xx_HAL_Driver/Inc/stm32f4xx_ll_dma.h ****   * @{
 245:Drivers/STM32F4xx_HAL_Driver/Inc/stm32f4xx_ll_dma.h ****   */
 246:Drivers/STM32F4xx_HAL_Driver/Inc/stm32f4xx_ll_dma.h **** #define LL_DMA_PERIPH_NOINCREMENT         0x00000000U               /*!< Peripheral increment mode 
 247:Drivers/STM32F4xx_HAL_Driver/Inc/stm32f4xx_ll_dma.h **** #define LL_DMA_PERIPH_INCREMENT           DMA_SxCR_PINC             /*!< Peripheral increment mode 
 248:Drivers/STM32F4xx_HAL_Driver/Inc/stm32f4xx_ll_dma.h **** /**
 249:Drivers/STM32F4xx_HAL_Driver/Inc/stm32f4xx_ll_dma.h ****   * @}
 250:Drivers/STM32F4xx_HAL_Driver/Inc/stm32f4xx_ll_dma.h ****   */
 251:Drivers/STM32F4xx_HAL_Driver/Inc/stm32f4xx_ll_dma.h **** 
 252:Drivers/STM32F4xx_HAL_Driver/Inc/stm32f4xx_ll_dma.h **** /** @defgroup DMA_LL_EC_MEMORY MEMORY
 253:Drivers/STM32F4xx_HAL_Driver/Inc/stm32f4xx_ll_dma.h ****   * @{
 254:Drivers/STM32F4xx_HAL_Driver/Inc/stm32f4xx_ll_dma.h ****   */
 255:Drivers/STM32F4xx_HAL_Driver/Inc/stm32f4xx_ll_dma.h **** #define LL_DMA_MEMORY_NOINCREMENT         0x00000000U               /*!< Memory increment mode Disa
 256:Drivers/STM32F4xx_HAL_Driver/Inc/stm32f4xx_ll_dma.h **** #define LL_DMA_MEMORY_INCREMENT           DMA_SxCR_MINC             /*!< Memory increment mode Enab
 257:Drivers/STM32F4xx_HAL_Driver/Inc/stm32f4xx_ll_dma.h **** /**
 258:Drivers/STM32F4xx_HAL_Driver/Inc/stm32f4xx_ll_dma.h ****   * @}
 259:Drivers/STM32F4xx_HAL_Driver/Inc/stm32f4xx_ll_dma.h ****   */
 260:Drivers/STM32F4xx_HAL_Driver/Inc/stm32f4xx_ll_dma.h **** 
 261:Drivers/STM32F4xx_HAL_Driver/Inc/stm32f4xx_ll_dma.h **** /** @defgroup DMA_LL_EC_PDATAALIGN PDATAALIGN
 262:Drivers/STM32F4xx_HAL_Driver/Inc/stm32f4xx_ll_dma.h ****   * @{
 263:Drivers/STM32F4xx_HAL_Driver/Inc/stm32f4xx_ll_dma.h ****   */
 264:Drivers/STM32F4xx_HAL_Driver/Inc/stm32f4xx_ll_dma.h **** #define LL_DMA_PDATAALIGN_BYTE            0x00000000U               /*!< Peripheral data alignment 
 265:Drivers/STM32F4xx_HAL_Driver/Inc/stm32f4xx_ll_dma.h **** #define LL_DMA_PDATAALIGN_HALFWORD        DMA_SxCR_PSIZE_0          /*!< Peripheral data alignment 
 266:Drivers/STM32F4xx_HAL_Driver/Inc/stm32f4xx_ll_dma.h **** #define LL_DMA_PDATAALIGN_WORD            DMA_SxCR_PSIZE_1          /*!< Peripheral data alignment 
 267:Drivers/STM32F4xx_HAL_Driver/Inc/stm32f4xx_ll_dma.h **** /**
 268:Drivers/STM32F4xx_HAL_Driver/Inc/stm32f4xx_ll_dma.h ****   * @}
 269:Drivers/STM32F4xx_HAL_Driver/Inc/stm32f4xx_ll_dma.h ****   */
 270:Drivers/STM32F4xx_HAL_Driver/Inc/stm32f4xx_ll_dma.h **** 
 271:Drivers/STM32F4xx_HAL_Driver/Inc/stm32f4xx_ll_dma.h **** /** @defgroup DMA_LL_EC_MDATAALIGN MDATAALIGN
 272:Drivers/STM32F4xx_HAL_Driver/Inc/stm32f4xx_ll_dma.h ****   * @{
 273:Drivers/STM32F4xx_HAL_Driver/Inc/stm32f4xx_ll_dma.h ****   */
 274:Drivers/STM32F4xx_HAL_Driver/Inc/stm32f4xx_ll_dma.h **** #define LL_DMA_MDATAALIGN_BYTE            0x00000000U               /*!< Memory data alignment : By
 275:Drivers/STM32F4xx_HAL_Driver/Inc/stm32f4xx_ll_dma.h **** #define LL_DMA_MDATAALIGN_HALFWORD        DMA_SxCR_MSIZE_0          /*!< Memory data alignment : Ha
 276:Drivers/STM32F4xx_HAL_Driver/Inc/stm32f4xx_ll_dma.h **** #define LL_DMA_MDATAALIGN_WORD            DMA_SxCR_MSIZE_1          /*!< Memory data alignment : Wo
 277:Drivers/STM32F4xx_HAL_Driver/Inc/stm32f4xx_ll_dma.h **** /**
ARM GAS  /tmp/cc58ZD3F.s 			page 17


 278:Drivers/STM32F4xx_HAL_Driver/Inc/stm32f4xx_ll_dma.h ****   * @}
 279:Drivers/STM32F4xx_HAL_Driver/Inc/stm32f4xx_ll_dma.h ****   */
 280:Drivers/STM32F4xx_HAL_Driver/Inc/stm32f4xx_ll_dma.h **** 
 281:Drivers/STM32F4xx_HAL_Driver/Inc/stm32f4xx_ll_dma.h **** /** @defgroup DMA_LL_EC_OFFSETSIZE OFFSETSIZE
 282:Drivers/STM32F4xx_HAL_Driver/Inc/stm32f4xx_ll_dma.h ****   * @{
 283:Drivers/STM32F4xx_HAL_Driver/Inc/stm32f4xx_ll_dma.h ****   */
 284:Drivers/STM32F4xx_HAL_Driver/Inc/stm32f4xx_ll_dma.h **** #define LL_DMA_OFFSETSIZE_PSIZE           0x00000000U               /*!< Peripheral increment offse
 285:Drivers/STM32F4xx_HAL_Driver/Inc/stm32f4xx_ll_dma.h **** #define LL_DMA_OFFSETSIZE_FIXEDTO4        DMA_SxCR_PINCOS           /*!< Peripheral increment offse
 286:Drivers/STM32F4xx_HAL_Driver/Inc/stm32f4xx_ll_dma.h **** /**
 287:Drivers/STM32F4xx_HAL_Driver/Inc/stm32f4xx_ll_dma.h ****   * @}
 288:Drivers/STM32F4xx_HAL_Driver/Inc/stm32f4xx_ll_dma.h ****   */
 289:Drivers/STM32F4xx_HAL_Driver/Inc/stm32f4xx_ll_dma.h **** 
 290:Drivers/STM32F4xx_HAL_Driver/Inc/stm32f4xx_ll_dma.h **** /** @defgroup DMA_LL_EC_PRIORITY PRIORITY
 291:Drivers/STM32F4xx_HAL_Driver/Inc/stm32f4xx_ll_dma.h ****   * @{
 292:Drivers/STM32F4xx_HAL_Driver/Inc/stm32f4xx_ll_dma.h ****   */
 293:Drivers/STM32F4xx_HAL_Driver/Inc/stm32f4xx_ll_dma.h **** #define LL_DMA_PRIORITY_LOW               0x00000000U               /*!< Priority level : Low      
 294:Drivers/STM32F4xx_HAL_Driver/Inc/stm32f4xx_ll_dma.h **** #define LL_DMA_PRIORITY_MEDIUM            DMA_SxCR_PL_0             /*!< Priority level : Medium   
 295:Drivers/STM32F4xx_HAL_Driver/Inc/stm32f4xx_ll_dma.h **** #define LL_DMA_PRIORITY_HIGH              DMA_SxCR_PL_1             /*!< Priority level : High     
 296:Drivers/STM32F4xx_HAL_Driver/Inc/stm32f4xx_ll_dma.h **** #define LL_DMA_PRIORITY_VERYHIGH          DMA_SxCR_PL               /*!< Priority level : Very_High
 297:Drivers/STM32F4xx_HAL_Driver/Inc/stm32f4xx_ll_dma.h **** /**
 298:Drivers/STM32F4xx_HAL_Driver/Inc/stm32f4xx_ll_dma.h ****   * @}
 299:Drivers/STM32F4xx_HAL_Driver/Inc/stm32f4xx_ll_dma.h ****   */
 300:Drivers/STM32F4xx_HAL_Driver/Inc/stm32f4xx_ll_dma.h **** 
 301:Drivers/STM32F4xx_HAL_Driver/Inc/stm32f4xx_ll_dma.h **** /** @defgroup DMA_LL_EC_CHANNEL CHANNEL
 302:Drivers/STM32F4xx_HAL_Driver/Inc/stm32f4xx_ll_dma.h ****   * @{
 303:Drivers/STM32F4xx_HAL_Driver/Inc/stm32f4xx_ll_dma.h ****   */
 304:Drivers/STM32F4xx_HAL_Driver/Inc/stm32f4xx_ll_dma.h **** #define LL_DMA_CHANNEL_0                  0x00000000U                                              
 305:Drivers/STM32F4xx_HAL_Driver/Inc/stm32f4xx_ll_dma.h **** #define LL_DMA_CHANNEL_1                  DMA_SxCR_CHSEL_0                                         
 306:Drivers/STM32F4xx_HAL_Driver/Inc/stm32f4xx_ll_dma.h **** #define LL_DMA_CHANNEL_2                  DMA_SxCR_CHSEL_1                                         
 307:Drivers/STM32F4xx_HAL_Driver/Inc/stm32f4xx_ll_dma.h **** #define LL_DMA_CHANNEL_3                  (DMA_SxCR_CHSEL_0 | DMA_SxCR_CHSEL_1)                    
 308:Drivers/STM32F4xx_HAL_Driver/Inc/stm32f4xx_ll_dma.h **** #define LL_DMA_CHANNEL_4                  DMA_SxCR_CHSEL_2                                         
 309:Drivers/STM32F4xx_HAL_Driver/Inc/stm32f4xx_ll_dma.h **** #define LL_DMA_CHANNEL_5                  (DMA_SxCR_CHSEL_2 | DMA_SxCR_CHSEL_0)                    
 310:Drivers/STM32F4xx_HAL_Driver/Inc/stm32f4xx_ll_dma.h **** #define LL_DMA_CHANNEL_6                  (DMA_SxCR_CHSEL_2 | DMA_SxCR_CHSEL_1)                    
 311:Drivers/STM32F4xx_HAL_Driver/Inc/stm32f4xx_ll_dma.h **** #define LL_DMA_CHANNEL_7                  (DMA_SxCR_CHSEL_2 | DMA_SxCR_CHSEL_1 | DMA_SxCR_CHSEL_0) 
 312:Drivers/STM32F4xx_HAL_Driver/Inc/stm32f4xx_ll_dma.h **** /**
 313:Drivers/STM32F4xx_HAL_Driver/Inc/stm32f4xx_ll_dma.h ****   * @}
 314:Drivers/STM32F4xx_HAL_Driver/Inc/stm32f4xx_ll_dma.h ****   */
 315:Drivers/STM32F4xx_HAL_Driver/Inc/stm32f4xx_ll_dma.h **** 
 316:Drivers/STM32F4xx_HAL_Driver/Inc/stm32f4xx_ll_dma.h **** /** @defgroup DMA_LL_EC_MBURST MBURST
 317:Drivers/STM32F4xx_HAL_Driver/Inc/stm32f4xx_ll_dma.h ****   * @{
 318:Drivers/STM32F4xx_HAL_Driver/Inc/stm32f4xx_ll_dma.h ****   */
 319:Drivers/STM32F4xx_HAL_Driver/Inc/stm32f4xx_ll_dma.h **** #define LL_DMA_MBURST_SINGLE              0x00000000U                             /*!< Memory burst
 320:Drivers/STM32F4xx_HAL_Driver/Inc/stm32f4xx_ll_dma.h **** #define LL_DMA_MBURST_INC4                DMA_SxCR_MBURST_0                       /*!< Memory burst
 321:Drivers/STM32F4xx_HAL_Driver/Inc/stm32f4xx_ll_dma.h **** #define LL_DMA_MBURST_INC8                DMA_SxCR_MBURST_1                       /*!< Memory burst
 322:Drivers/STM32F4xx_HAL_Driver/Inc/stm32f4xx_ll_dma.h **** #define LL_DMA_MBURST_INC16               (DMA_SxCR_MBURST_0 | DMA_SxCR_MBURST_1) /*!< Memory burst
 323:Drivers/STM32F4xx_HAL_Driver/Inc/stm32f4xx_ll_dma.h **** /**
 324:Drivers/STM32F4xx_HAL_Driver/Inc/stm32f4xx_ll_dma.h ****   * @}
 325:Drivers/STM32F4xx_HAL_Driver/Inc/stm32f4xx_ll_dma.h ****   */
 326:Drivers/STM32F4xx_HAL_Driver/Inc/stm32f4xx_ll_dma.h **** 
 327:Drivers/STM32F4xx_HAL_Driver/Inc/stm32f4xx_ll_dma.h **** /** @defgroup DMA_LL_EC_PBURST PBURST
 328:Drivers/STM32F4xx_HAL_Driver/Inc/stm32f4xx_ll_dma.h ****   * @{
 329:Drivers/STM32F4xx_HAL_Driver/Inc/stm32f4xx_ll_dma.h ****   */
 330:Drivers/STM32F4xx_HAL_Driver/Inc/stm32f4xx_ll_dma.h **** #define LL_DMA_PBURST_SINGLE              0x00000000U                             /*!< Peripheral b
 331:Drivers/STM32F4xx_HAL_Driver/Inc/stm32f4xx_ll_dma.h **** #define LL_DMA_PBURST_INC4                DMA_SxCR_PBURST_0                       /*!< Peripheral b
 332:Drivers/STM32F4xx_HAL_Driver/Inc/stm32f4xx_ll_dma.h **** #define LL_DMA_PBURST_INC8                DMA_SxCR_PBURST_1                       /*!< Peripheral b
 333:Drivers/STM32F4xx_HAL_Driver/Inc/stm32f4xx_ll_dma.h **** #define LL_DMA_PBURST_INC16               (DMA_SxCR_PBURST_0 | DMA_SxCR_PBURST_1) /*!< Peripheral b
 334:Drivers/STM32F4xx_HAL_Driver/Inc/stm32f4xx_ll_dma.h **** /**
ARM GAS  /tmp/cc58ZD3F.s 			page 18


 335:Drivers/STM32F4xx_HAL_Driver/Inc/stm32f4xx_ll_dma.h ****   * @}
 336:Drivers/STM32F4xx_HAL_Driver/Inc/stm32f4xx_ll_dma.h ****   */
 337:Drivers/STM32F4xx_HAL_Driver/Inc/stm32f4xx_ll_dma.h ****   
 338:Drivers/STM32F4xx_HAL_Driver/Inc/stm32f4xx_ll_dma.h **** /** @defgroup DMA_LL_FIFOMODE DMA_LL_FIFOMODE
 339:Drivers/STM32F4xx_HAL_Driver/Inc/stm32f4xx_ll_dma.h ****   * @{
 340:Drivers/STM32F4xx_HAL_Driver/Inc/stm32f4xx_ll_dma.h ****   */
 341:Drivers/STM32F4xx_HAL_Driver/Inc/stm32f4xx_ll_dma.h **** #define LL_DMA_FIFOMODE_DISABLE           0x00000000U                             /*!< FIFO mode di
 342:Drivers/STM32F4xx_HAL_Driver/Inc/stm32f4xx_ll_dma.h **** #define LL_DMA_FIFOMODE_ENABLE            DMA_SxFCR_DMDIS                         /*!< FIFO mode en
 343:Drivers/STM32F4xx_HAL_Driver/Inc/stm32f4xx_ll_dma.h **** /**
 344:Drivers/STM32F4xx_HAL_Driver/Inc/stm32f4xx_ll_dma.h ****   * @}
 345:Drivers/STM32F4xx_HAL_Driver/Inc/stm32f4xx_ll_dma.h ****   */  
 346:Drivers/STM32F4xx_HAL_Driver/Inc/stm32f4xx_ll_dma.h **** 
 347:Drivers/STM32F4xx_HAL_Driver/Inc/stm32f4xx_ll_dma.h **** /** @defgroup DMA_LL_EC_FIFOSTATUS_0 FIFOSTATUS 0
 348:Drivers/STM32F4xx_HAL_Driver/Inc/stm32f4xx_ll_dma.h ****   * @{
 349:Drivers/STM32F4xx_HAL_Driver/Inc/stm32f4xx_ll_dma.h ****   */
 350:Drivers/STM32F4xx_HAL_Driver/Inc/stm32f4xx_ll_dma.h **** #define LL_DMA_FIFOSTATUS_0_25            0x00000000U                             /*!< 0 < fifo_lev
 351:Drivers/STM32F4xx_HAL_Driver/Inc/stm32f4xx_ll_dma.h **** #define LL_DMA_FIFOSTATUS_25_50           DMA_SxFCR_FS_0                          /*!< 1/4 < fifo_l
 352:Drivers/STM32F4xx_HAL_Driver/Inc/stm32f4xx_ll_dma.h **** #define LL_DMA_FIFOSTATUS_50_75           DMA_SxFCR_FS_1                          /*!< 1/2 < fifo_l
 353:Drivers/STM32F4xx_HAL_Driver/Inc/stm32f4xx_ll_dma.h **** #define LL_DMA_FIFOSTATUS_75_100          (DMA_SxFCR_FS_1 | DMA_SxFCR_FS_0)       /*!< 3/4 < fifo_l
 354:Drivers/STM32F4xx_HAL_Driver/Inc/stm32f4xx_ll_dma.h **** #define LL_DMA_FIFOSTATUS_EMPTY           DMA_SxFCR_FS_2                          /*!< FIFO is empt
 355:Drivers/STM32F4xx_HAL_Driver/Inc/stm32f4xx_ll_dma.h **** #define LL_DMA_FIFOSTATUS_FULL            (DMA_SxFCR_FS_2 | DMA_SxFCR_FS_0)       /*!< FIFO is full
 356:Drivers/STM32F4xx_HAL_Driver/Inc/stm32f4xx_ll_dma.h **** /**
 357:Drivers/STM32F4xx_HAL_Driver/Inc/stm32f4xx_ll_dma.h ****   * @}
 358:Drivers/STM32F4xx_HAL_Driver/Inc/stm32f4xx_ll_dma.h ****   */
 359:Drivers/STM32F4xx_HAL_Driver/Inc/stm32f4xx_ll_dma.h **** 
 360:Drivers/STM32F4xx_HAL_Driver/Inc/stm32f4xx_ll_dma.h **** /** @defgroup DMA_LL_EC_FIFOTHRESHOLD FIFOTHRESHOLD
 361:Drivers/STM32F4xx_HAL_Driver/Inc/stm32f4xx_ll_dma.h ****   * @{
 362:Drivers/STM32F4xx_HAL_Driver/Inc/stm32f4xx_ll_dma.h ****   */
 363:Drivers/STM32F4xx_HAL_Driver/Inc/stm32f4xx_ll_dma.h **** #define LL_DMA_FIFOTHRESHOLD_1_4          0x00000000U                             /*!< FIFO thresho
 364:Drivers/STM32F4xx_HAL_Driver/Inc/stm32f4xx_ll_dma.h **** #define LL_DMA_FIFOTHRESHOLD_1_2          DMA_SxFCR_FTH_0                         /*!< FIFO thresho
 365:Drivers/STM32F4xx_HAL_Driver/Inc/stm32f4xx_ll_dma.h **** #define LL_DMA_FIFOTHRESHOLD_3_4          DMA_SxFCR_FTH_1                         /*!< FIFO thresho
 366:Drivers/STM32F4xx_HAL_Driver/Inc/stm32f4xx_ll_dma.h **** #define LL_DMA_FIFOTHRESHOLD_FULL         DMA_SxFCR_FTH                           /*!< FIFO thresho
 367:Drivers/STM32F4xx_HAL_Driver/Inc/stm32f4xx_ll_dma.h **** /**
 368:Drivers/STM32F4xx_HAL_Driver/Inc/stm32f4xx_ll_dma.h ****   * @}
 369:Drivers/STM32F4xx_HAL_Driver/Inc/stm32f4xx_ll_dma.h ****   */
 370:Drivers/STM32F4xx_HAL_Driver/Inc/stm32f4xx_ll_dma.h ****     
 371:Drivers/STM32F4xx_HAL_Driver/Inc/stm32f4xx_ll_dma.h **** /** @defgroup DMA_LL_EC_CURRENTTARGETMEM CURRENTTARGETMEM
 372:Drivers/STM32F4xx_HAL_Driver/Inc/stm32f4xx_ll_dma.h ****   * @{
 373:Drivers/STM32F4xx_HAL_Driver/Inc/stm32f4xx_ll_dma.h ****   */
 374:Drivers/STM32F4xx_HAL_Driver/Inc/stm32f4xx_ll_dma.h **** #define LL_DMA_CURRENTTARGETMEM0          0x00000000U                             /*!< Set CurrentT
 375:Drivers/STM32F4xx_HAL_Driver/Inc/stm32f4xx_ll_dma.h **** #define LL_DMA_CURRENTTARGETMEM1          DMA_SxCR_CT                             /*!< Set CurrentT
 376:Drivers/STM32F4xx_HAL_Driver/Inc/stm32f4xx_ll_dma.h **** /**
 377:Drivers/STM32F4xx_HAL_Driver/Inc/stm32f4xx_ll_dma.h ****   * @}
 378:Drivers/STM32F4xx_HAL_Driver/Inc/stm32f4xx_ll_dma.h ****   */
 379:Drivers/STM32F4xx_HAL_Driver/Inc/stm32f4xx_ll_dma.h **** 
 380:Drivers/STM32F4xx_HAL_Driver/Inc/stm32f4xx_ll_dma.h **** /**
 381:Drivers/STM32F4xx_HAL_Driver/Inc/stm32f4xx_ll_dma.h ****   * @}
 382:Drivers/STM32F4xx_HAL_Driver/Inc/stm32f4xx_ll_dma.h ****   */
 383:Drivers/STM32F4xx_HAL_Driver/Inc/stm32f4xx_ll_dma.h **** 
 384:Drivers/STM32F4xx_HAL_Driver/Inc/stm32f4xx_ll_dma.h **** /* Exported macro ------------------------------------------------------------*/
 385:Drivers/STM32F4xx_HAL_Driver/Inc/stm32f4xx_ll_dma.h **** /** @defgroup DMA_LL_Exported_Macros DMA Exported Macros
 386:Drivers/STM32F4xx_HAL_Driver/Inc/stm32f4xx_ll_dma.h ****   * @{
 387:Drivers/STM32F4xx_HAL_Driver/Inc/stm32f4xx_ll_dma.h ****   */
 388:Drivers/STM32F4xx_HAL_Driver/Inc/stm32f4xx_ll_dma.h **** 
 389:Drivers/STM32F4xx_HAL_Driver/Inc/stm32f4xx_ll_dma.h **** /** @defgroup DMA_LL_EM_WRITE_READ Common Write and read registers macros
 390:Drivers/STM32F4xx_HAL_Driver/Inc/stm32f4xx_ll_dma.h ****   * @{
 391:Drivers/STM32F4xx_HAL_Driver/Inc/stm32f4xx_ll_dma.h ****   */
ARM GAS  /tmp/cc58ZD3F.s 			page 19


 392:Drivers/STM32F4xx_HAL_Driver/Inc/stm32f4xx_ll_dma.h **** /**
 393:Drivers/STM32F4xx_HAL_Driver/Inc/stm32f4xx_ll_dma.h ****   * @brief  Write a value in DMA register
 394:Drivers/STM32F4xx_HAL_Driver/Inc/stm32f4xx_ll_dma.h ****   * @param  __INSTANCE__ DMA Instance
 395:Drivers/STM32F4xx_HAL_Driver/Inc/stm32f4xx_ll_dma.h ****   * @param  __REG__ Register to be written
 396:Drivers/STM32F4xx_HAL_Driver/Inc/stm32f4xx_ll_dma.h ****   * @param  __VALUE__ Value to be written in the register
 397:Drivers/STM32F4xx_HAL_Driver/Inc/stm32f4xx_ll_dma.h ****   * @retval None
 398:Drivers/STM32F4xx_HAL_Driver/Inc/stm32f4xx_ll_dma.h ****   */
 399:Drivers/STM32F4xx_HAL_Driver/Inc/stm32f4xx_ll_dma.h **** #define LL_DMA_WriteReg(__INSTANCE__, __REG__, __VALUE__) WRITE_REG(__INSTANCE__->__REG__, (__VALUE
 400:Drivers/STM32F4xx_HAL_Driver/Inc/stm32f4xx_ll_dma.h **** 
 401:Drivers/STM32F4xx_HAL_Driver/Inc/stm32f4xx_ll_dma.h **** /**
 402:Drivers/STM32F4xx_HAL_Driver/Inc/stm32f4xx_ll_dma.h ****   * @brief  Read a value in DMA register
 403:Drivers/STM32F4xx_HAL_Driver/Inc/stm32f4xx_ll_dma.h ****   * @param  __INSTANCE__ DMA Instance
 404:Drivers/STM32F4xx_HAL_Driver/Inc/stm32f4xx_ll_dma.h ****   * @param  __REG__ Register to be read
 405:Drivers/STM32F4xx_HAL_Driver/Inc/stm32f4xx_ll_dma.h ****   * @retval Register value
 406:Drivers/STM32F4xx_HAL_Driver/Inc/stm32f4xx_ll_dma.h ****   */
 407:Drivers/STM32F4xx_HAL_Driver/Inc/stm32f4xx_ll_dma.h **** #define LL_DMA_ReadReg(__INSTANCE__, __REG__) READ_REG(__INSTANCE__->__REG__)
 408:Drivers/STM32F4xx_HAL_Driver/Inc/stm32f4xx_ll_dma.h **** /**
 409:Drivers/STM32F4xx_HAL_Driver/Inc/stm32f4xx_ll_dma.h ****   * @}
 410:Drivers/STM32F4xx_HAL_Driver/Inc/stm32f4xx_ll_dma.h ****   */
 411:Drivers/STM32F4xx_HAL_Driver/Inc/stm32f4xx_ll_dma.h **** 
 412:Drivers/STM32F4xx_HAL_Driver/Inc/stm32f4xx_ll_dma.h **** /** @defgroup DMA_LL_EM_CONVERT_DMAxCHANNELy Convert DMAxStreamy
 413:Drivers/STM32F4xx_HAL_Driver/Inc/stm32f4xx_ll_dma.h ****   * @{
 414:Drivers/STM32F4xx_HAL_Driver/Inc/stm32f4xx_ll_dma.h ****   */
 415:Drivers/STM32F4xx_HAL_Driver/Inc/stm32f4xx_ll_dma.h **** /**
 416:Drivers/STM32F4xx_HAL_Driver/Inc/stm32f4xx_ll_dma.h ****   * @brief  Convert DMAx_Streamy into DMAx
 417:Drivers/STM32F4xx_HAL_Driver/Inc/stm32f4xx_ll_dma.h ****   * @param  __STREAM_INSTANCE__ DMAx_Streamy
 418:Drivers/STM32F4xx_HAL_Driver/Inc/stm32f4xx_ll_dma.h ****   * @retval DMAx
 419:Drivers/STM32F4xx_HAL_Driver/Inc/stm32f4xx_ll_dma.h ****   */
 420:Drivers/STM32F4xx_HAL_Driver/Inc/stm32f4xx_ll_dma.h **** #define __LL_DMA_GET_INSTANCE(__STREAM_INSTANCE__)   \
 421:Drivers/STM32F4xx_HAL_Driver/Inc/stm32f4xx_ll_dma.h **** (((uint32_t)(__STREAM_INSTANCE__) > ((uint32_t)DMA1_Stream7)) ?  DMA2 : DMA1)
 422:Drivers/STM32F4xx_HAL_Driver/Inc/stm32f4xx_ll_dma.h **** 
 423:Drivers/STM32F4xx_HAL_Driver/Inc/stm32f4xx_ll_dma.h **** /**
 424:Drivers/STM32F4xx_HAL_Driver/Inc/stm32f4xx_ll_dma.h ****   * @brief  Convert DMAx_Streamy into LL_DMA_STREAM_y
 425:Drivers/STM32F4xx_HAL_Driver/Inc/stm32f4xx_ll_dma.h ****   * @param  __STREAM_INSTANCE__ DMAx_Streamy
 426:Drivers/STM32F4xx_HAL_Driver/Inc/stm32f4xx_ll_dma.h ****   * @retval LL_DMA_CHANNEL_y
 427:Drivers/STM32F4xx_HAL_Driver/Inc/stm32f4xx_ll_dma.h ****   */
 428:Drivers/STM32F4xx_HAL_Driver/Inc/stm32f4xx_ll_dma.h **** #define __LL_DMA_GET_STREAM(__STREAM_INSTANCE__)   \
 429:Drivers/STM32F4xx_HAL_Driver/Inc/stm32f4xx_ll_dma.h **** (((uint32_t)(__STREAM_INSTANCE__) == ((uint32_t)DMA1_Stream0)) ? LL_DMA_STREAM_0 : \
 430:Drivers/STM32F4xx_HAL_Driver/Inc/stm32f4xx_ll_dma.h ****  ((uint32_t)(__STREAM_INSTANCE__) == ((uint32_t)DMA2_Stream0)) ? LL_DMA_STREAM_0 : \
 431:Drivers/STM32F4xx_HAL_Driver/Inc/stm32f4xx_ll_dma.h ****  ((uint32_t)(__STREAM_INSTANCE__) == ((uint32_t)DMA1_Stream1)) ? LL_DMA_STREAM_1 : \
 432:Drivers/STM32F4xx_HAL_Driver/Inc/stm32f4xx_ll_dma.h ****  ((uint32_t)(__STREAM_INSTANCE__) == ((uint32_t)DMA2_Stream1)) ? LL_DMA_STREAM_1 : \
 433:Drivers/STM32F4xx_HAL_Driver/Inc/stm32f4xx_ll_dma.h ****  ((uint32_t)(__STREAM_INSTANCE__) == ((uint32_t)DMA1_Stream2)) ? LL_DMA_STREAM_2 : \
 434:Drivers/STM32F4xx_HAL_Driver/Inc/stm32f4xx_ll_dma.h ****  ((uint32_t)(__STREAM_INSTANCE__) == ((uint32_t)DMA2_Stream2)) ? LL_DMA_STREAM_2 : \
 435:Drivers/STM32F4xx_HAL_Driver/Inc/stm32f4xx_ll_dma.h ****  ((uint32_t)(__STREAM_INSTANCE__) == ((uint32_t)DMA1_Stream3)) ? LL_DMA_STREAM_3 : \
 436:Drivers/STM32F4xx_HAL_Driver/Inc/stm32f4xx_ll_dma.h ****  ((uint32_t)(__STREAM_INSTANCE__) == ((uint32_t)DMA2_Stream3)) ? LL_DMA_STREAM_3 : \
 437:Drivers/STM32F4xx_HAL_Driver/Inc/stm32f4xx_ll_dma.h ****  ((uint32_t)(__STREAM_INSTANCE__) == ((uint32_t)DMA1_Stream4)) ? LL_DMA_STREAM_4 : \
 438:Drivers/STM32F4xx_HAL_Driver/Inc/stm32f4xx_ll_dma.h ****  ((uint32_t)(__STREAM_INSTANCE__) == ((uint32_t)DMA2_Stream4)) ? LL_DMA_STREAM_4 : \
 439:Drivers/STM32F4xx_HAL_Driver/Inc/stm32f4xx_ll_dma.h ****  ((uint32_t)(__STREAM_INSTANCE__) == ((uint32_t)DMA1_Stream5)) ? LL_DMA_STREAM_5 : \
 440:Drivers/STM32F4xx_HAL_Driver/Inc/stm32f4xx_ll_dma.h ****  ((uint32_t)(__STREAM_INSTANCE__) == ((uint32_t)DMA2_Stream5)) ? LL_DMA_STREAM_5 : \
 441:Drivers/STM32F4xx_HAL_Driver/Inc/stm32f4xx_ll_dma.h ****  ((uint32_t)(__STREAM_INSTANCE__) == ((uint32_t)DMA1_Stream6)) ? LL_DMA_STREAM_6 : \
 442:Drivers/STM32F4xx_HAL_Driver/Inc/stm32f4xx_ll_dma.h ****  ((uint32_t)(__STREAM_INSTANCE__) == ((uint32_t)DMA2_Stream6)) ? LL_DMA_STREAM_6 : \
 443:Drivers/STM32F4xx_HAL_Driver/Inc/stm32f4xx_ll_dma.h ****  LL_DMA_STREAM_7)
 444:Drivers/STM32F4xx_HAL_Driver/Inc/stm32f4xx_ll_dma.h **** 
 445:Drivers/STM32F4xx_HAL_Driver/Inc/stm32f4xx_ll_dma.h **** /**
 446:Drivers/STM32F4xx_HAL_Driver/Inc/stm32f4xx_ll_dma.h ****   * @brief  Convert DMA Instance DMAx and LL_DMA_STREAM_y into DMAx_Streamy
 447:Drivers/STM32F4xx_HAL_Driver/Inc/stm32f4xx_ll_dma.h ****   * @param  __DMA_INSTANCE__ DMAx
 448:Drivers/STM32F4xx_HAL_Driver/Inc/stm32f4xx_ll_dma.h ****   * @param  __STREAM__ LL_DMA_STREAM_y
ARM GAS  /tmp/cc58ZD3F.s 			page 20


 449:Drivers/STM32F4xx_HAL_Driver/Inc/stm32f4xx_ll_dma.h ****   * @retval DMAx_Streamy
 450:Drivers/STM32F4xx_HAL_Driver/Inc/stm32f4xx_ll_dma.h ****   */
 451:Drivers/STM32F4xx_HAL_Driver/Inc/stm32f4xx_ll_dma.h **** #define __LL_DMA_GET_STREAM_INSTANCE(__DMA_INSTANCE__, __STREAM__)   \
 452:Drivers/STM32F4xx_HAL_Driver/Inc/stm32f4xx_ll_dma.h **** ((((uint32_t)(__DMA_INSTANCE__) == ((uint32_t)DMA1)) && ((uint32_t)(__STREAM__) == ((uint32_t)LL_DM
 453:Drivers/STM32F4xx_HAL_Driver/Inc/stm32f4xx_ll_dma.h ****  (((uint32_t)(__DMA_INSTANCE__) == ((uint32_t)DMA2)) && ((uint32_t)(__STREAM__) == ((uint32_t)LL_DM
 454:Drivers/STM32F4xx_HAL_Driver/Inc/stm32f4xx_ll_dma.h ****  (((uint32_t)(__DMA_INSTANCE__) == ((uint32_t)DMA1)) && ((uint32_t)(__STREAM__) == ((uint32_t)LL_DM
 455:Drivers/STM32F4xx_HAL_Driver/Inc/stm32f4xx_ll_dma.h ****  (((uint32_t)(__DMA_INSTANCE__) == ((uint32_t)DMA2)) && ((uint32_t)(__STREAM__) == ((uint32_t)LL_DM
 456:Drivers/STM32F4xx_HAL_Driver/Inc/stm32f4xx_ll_dma.h ****  (((uint32_t)(__DMA_INSTANCE__) == ((uint32_t)DMA1)) && ((uint32_t)(__STREAM__) == ((uint32_t)LL_DM
 457:Drivers/STM32F4xx_HAL_Driver/Inc/stm32f4xx_ll_dma.h ****  (((uint32_t)(__DMA_INSTANCE__) == ((uint32_t)DMA2)) && ((uint32_t)(__STREAM__) == ((uint32_t)LL_DM
 458:Drivers/STM32F4xx_HAL_Driver/Inc/stm32f4xx_ll_dma.h ****  (((uint32_t)(__DMA_INSTANCE__) == ((uint32_t)DMA1)) && ((uint32_t)(__STREAM__) == ((uint32_t)LL_DM
 459:Drivers/STM32F4xx_HAL_Driver/Inc/stm32f4xx_ll_dma.h ****  (((uint32_t)(__DMA_INSTANCE__) == ((uint32_t)DMA2)) && ((uint32_t)(__STREAM__) == ((uint32_t)LL_DM
 460:Drivers/STM32F4xx_HAL_Driver/Inc/stm32f4xx_ll_dma.h ****  (((uint32_t)(__DMA_INSTANCE__) == ((uint32_t)DMA1)) && ((uint32_t)(__STREAM__) == ((uint32_t)LL_DM
 461:Drivers/STM32F4xx_HAL_Driver/Inc/stm32f4xx_ll_dma.h ****  (((uint32_t)(__DMA_INSTANCE__) == ((uint32_t)DMA2)) && ((uint32_t)(__STREAM__) == ((uint32_t)LL_DM
 462:Drivers/STM32F4xx_HAL_Driver/Inc/stm32f4xx_ll_dma.h ****  (((uint32_t)(__DMA_INSTANCE__) == ((uint32_t)DMA1)) && ((uint32_t)(__STREAM__) == ((uint32_t)LL_DM
 463:Drivers/STM32F4xx_HAL_Driver/Inc/stm32f4xx_ll_dma.h ****  (((uint32_t)(__DMA_INSTANCE__) == ((uint32_t)DMA2)) && ((uint32_t)(__STREAM__) == ((uint32_t)LL_DM
 464:Drivers/STM32F4xx_HAL_Driver/Inc/stm32f4xx_ll_dma.h ****  (((uint32_t)(__DMA_INSTANCE__) == ((uint32_t)DMA1)) && ((uint32_t)(__STREAM__) == ((uint32_t)LL_DM
 465:Drivers/STM32F4xx_HAL_Driver/Inc/stm32f4xx_ll_dma.h ****  (((uint32_t)(__DMA_INSTANCE__) == ((uint32_t)DMA2)) && ((uint32_t)(__STREAM__) == ((uint32_t)LL_DM
 466:Drivers/STM32F4xx_HAL_Driver/Inc/stm32f4xx_ll_dma.h ****  (((uint32_t)(__DMA_INSTANCE__) == ((uint32_t)DMA1)) && ((uint32_t)(__STREAM__) == ((uint32_t)LL_DM
 467:Drivers/STM32F4xx_HAL_Driver/Inc/stm32f4xx_ll_dma.h ****  DMA2_Stream7)
 468:Drivers/STM32F4xx_HAL_Driver/Inc/stm32f4xx_ll_dma.h **** 
 469:Drivers/STM32F4xx_HAL_Driver/Inc/stm32f4xx_ll_dma.h **** /**
 470:Drivers/STM32F4xx_HAL_Driver/Inc/stm32f4xx_ll_dma.h ****   * @}
 471:Drivers/STM32F4xx_HAL_Driver/Inc/stm32f4xx_ll_dma.h ****   */
 472:Drivers/STM32F4xx_HAL_Driver/Inc/stm32f4xx_ll_dma.h **** 
 473:Drivers/STM32F4xx_HAL_Driver/Inc/stm32f4xx_ll_dma.h **** /**
 474:Drivers/STM32F4xx_HAL_Driver/Inc/stm32f4xx_ll_dma.h ****   * @}
 475:Drivers/STM32F4xx_HAL_Driver/Inc/stm32f4xx_ll_dma.h ****   */
 476:Drivers/STM32F4xx_HAL_Driver/Inc/stm32f4xx_ll_dma.h **** 
 477:Drivers/STM32F4xx_HAL_Driver/Inc/stm32f4xx_ll_dma.h **** 
 478:Drivers/STM32F4xx_HAL_Driver/Inc/stm32f4xx_ll_dma.h **** /* Exported functions --------------------------------------------------------*/
 479:Drivers/STM32F4xx_HAL_Driver/Inc/stm32f4xx_ll_dma.h ****  /** @defgroup DMA_LL_Exported_Functions DMA Exported Functions
 480:Drivers/STM32F4xx_HAL_Driver/Inc/stm32f4xx_ll_dma.h ****   * @{
 481:Drivers/STM32F4xx_HAL_Driver/Inc/stm32f4xx_ll_dma.h ****   */
 482:Drivers/STM32F4xx_HAL_Driver/Inc/stm32f4xx_ll_dma.h **** 
 483:Drivers/STM32F4xx_HAL_Driver/Inc/stm32f4xx_ll_dma.h **** /** @defgroup DMA_LL_EF_Configuration Configuration
 484:Drivers/STM32F4xx_HAL_Driver/Inc/stm32f4xx_ll_dma.h ****   * @{
 485:Drivers/STM32F4xx_HAL_Driver/Inc/stm32f4xx_ll_dma.h ****   */
 486:Drivers/STM32F4xx_HAL_Driver/Inc/stm32f4xx_ll_dma.h **** /**
 487:Drivers/STM32F4xx_HAL_Driver/Inc/stm32f4xx_ll_dma.h ****   * @brief Enable DMA stream.
 488:Drivers/STM32F4xx_HAL_Driver/Inc/stm32f4xx_ll_dma.h ****   * @rmtoll CR          EN            LL_DMA_EnableStream
 489:Drivers/STM32F4xx_HAL_Driver/Inc/stm32f4xx_ll_dma.h ****   * @param  DMAx DMAx Instance
 490:Drivers/STM32F4xx_HAL_Driver/Inc/stm32f4xx_ll_dma.h ****   * @param  Stream This parameter can be one of the following values:
 491:Drivers/STM32F4xx_HAL_Driver/Inc/stm32f4xx_ll_dma.h ****   *         @arg @ref LL_DMA_STREAM_0
 492:Drivers/STM32F4xx_HAL_Driver/Inc/stm32f4xx_ll_dma.h ****   *         @arg @ref LL_DMA_STREAM_1
 493:Drivers/STM32F4xx_HAL_Driver/Inc/stm32f4xx_ll_dma.h ****   *         @arg @ref LL_DMA_STREAM_2
 494:Drivers/STM32F4xx_HAL_Driver/Inc/stm32f4xx_ll_dma.h ****   *         @arg @ref LL_DMA_STREAM_3
 495:Drivers/STM32F4xx_HAL_Driver/Inc/stm32f4xx_ll_dma.h ****   *         @arg @ref LL_DMA_STREAM_4
 496:Drivers/STM32F4xx_HAL_Driver/Inc/stm32f4xx_ll_dma.h ****   *         @arg @ref LL_DMA_STREAM_5
 497:Drivers/STM32F4xx_HAL_Driver/Inc/stm32f4xx_ll_dma.h ****   *         @arg @ref LL_DMA_STREAM_6
 498:Drivers/STM32F4xx_HAL_Driver/Inc/stm32f4xx_ll_dma.h ****   *         @arg @ref LL_DMA_STREAM_7
 499:Drivers/STM32F4xx_HAL_Driver/Inc/stm32f4xx_ll_dma.h ****   * @retval None
 500:Drivers/STM32F4xx_HAL_Driver/Inc/stm32f4xx_ll_dma.h ****   */
 501:Drivers/STM32F4xx_HAL_Driver/Inc/stm32f4xx_ll_dma.h **** __STATIC_INLINE void LL_DMA_EnableStream(DMA_TypeDef *DMAx, uint32_t Stream)
 502:Drivers/STM32F4xx_HAL_Driver/Inc/stm32f4xx_ll_dma.h **** {
 503:Drivers/STM32F4xx_HAL_Driver/Inc/stm32f4xx_ll_dma.h ****   SET_BIT(((DMA_Stream_TypeDef *)((uint32_t)((uint32_t)DMAx + STREAM_OFFSET_TAB[Stream])))->CR, DMA
 504:Drivers/STM32F4xx_HAL_Driver/Inc/stm32f4xx_ll_dma.h **** }
 505:Drivers/STM32F4xx_HAL_Driver/Inc/stm32f4xx_ll_dma.h **** 
ARM GAS  /tmp/cc58ZD3F.s 			page 21


 506:Drivers/STM32F4xx_HAL_Driver/Inc/stm32f4xx_ll_dma.h **** /**
 507:Drivers/STM32F4xx_HAL_Driver/Inc/stm32f4xx_ll_dma.h ****   * @brief Disable DMA stream.
 508:Drivers/STM32F4xx_HAL_Driver/Inc/stm32f4xx_ll_dma.h ****   * @rmtoll CR          EN            LL_DMA_DisableStream
 509:Drivers/STM32F4xx_HAL_Driver/Inc/stm32f4xx_ll_dma.h ****   * @param  DMAx DMAx Instance
 510:Drivers/STM32F4xx_HAL_Driver/Inc/stm32f4xx_ll_dma.h ****   * @param  Stream This parameter can be one of the following values:
 511:Drivers/STM32F4xx_HAL_Driver/Inc/stm32f4xx_ll_dma.h ****   *         @arg @ref LL_DMA_STREAM_0
 512:Drivers/STM32F4xx_HAL_Driver/Inc/stm32f4xx_ll_dma.h ****   *         @arg @ref LL_DMA_STREAM_1
 513:Drivers/STM32F4xx_HAL_Driver/Inc/stm32f4xx_ll_dma.h ****   *         @arg @ref LL_DMA_STREAM_2
 514:Drivers/STM32F4xx_HAL_Driver/Inc/stm32f4xx_ll_dma.h ****   *         @arg @ref LL_DMA_STREAM_3
 515:Drivers/STM32F4xx_HAL_Driver/Inc/stm32f4xx_ll_dma.h ****   *         @arg @ref LL_DMA_STREAM_4
 516:Drivers/STM32F4xx_HAL_Driver/Inc/stm32f4xx_ll_dma.h ****   *         @arg @ref LL_DMA_STREAM_5
 517:Drivers/STM32F4xx_HAL_Driver/Inc/stm32f4xx_ll_dma.h ****   *         @arg @ref LL_DMA_STREAM_6
 518:Drivers/STM32F4xx_HAL_Driver/Inc/stm32f4xx_ll_dma.h ****   *         @arg @ref LL_DMA_STREAM_7
 519:Drivers/STM32F4xx_HAL_Driver/Inc/stm32f4xx_ll_dma.h ****   * @retval None
 520:Drivers/STM32F4xx_HAL_Driver/Inc/stm32f4xx_ll_dma.h ****   */
 521:Drivers/STM32F4xx_HAL_Driver/Inc/stm32f4xx_ll_dma.h **** __STATIC_INLINE void LL_DMA_DisableStream(DMA_TypeDef *DMAx, uint32_t Stream)
 522:Drivers/STM32F4xx_HAL_Driver/Inc/stm32f4xx_ll_dma.h **** {
 523:Drivers/STM32F4xx_HAL_Driver/Inc/stm32f4xx_ll_dma.h ****   CLEAR_BIT(((DMA_Stream_TypeDef *)((uint32_t)((uint32_t)DMAx + STREAM_OFFSET_TAB[Stream])))->CR, D
 524:Drivers/STM32F4xx_HAL_Driver/Inc/stm32f4xx_ll_dma.h **** }
 525:Drivers/STM32F4xx_HAL_Driver/Inc/stm32f4xx_ll_dma.h **** 
 526:Drivers/STM32F4xx_HAL_Driver/Inc/stm32f4xx_ll_dma.h **** /**
 527:Drivers/STM32F4xx_HAL_Driver/Inc/stm32f4xx_ll_dma.h ****   * @brief Check if DMA stream is enabled or disabled.
 528:Drivers/STM32F4xx_HAL_Driver/Inc/stm32f4xx_ll_dma.h ****   * @rmtoll CR          EN            LL_DMA_IsEnabledStream
 529:Drivers/STM32F4xx_HAL_Driver/Inc/stm32f4xx_ll_dma.h ****   * @param  DMAx DMAx Instance
 530:Drivers/STM32F4xx_HAL_Driver/Inc/stm32f4xx_ll_dma.h ****   * @param  Stream This parameter can be one of the following values:
 531:Drivers/STM32F4xx_HAL_Driver/Inc/stm32f4xx_ll_dma.h ****   *         @arg @ref LL_DMA_STREAM_0
 532:Drivers/STM32F4xx_HAL_Driver/Inc/stm32f4xx_ll_dma.h ****   *         @arg @ref LL_DMA_STREAM_1
 533:Drivers/STM32F4xx_HAL_Driver/Inc/stm32f4xx_ll_dma.h ****   *         @arg @ref LL_DMA_STREAM_2
 534:Drivers/STM32F4xx_HAL_Driver/Inc/stm32f4xx_ll_dma.h ****   *         @arg @ref LL_DMA_STREAM_3
 535:Drivers/STM32F4xx_HAL_Driver/Inc/stm32f4xx_ll_dma.h ****   *         @arg @ref LL_DMA_STREAM_4
 536:Drivers/STM32F4xx_HAL_Driver/Inc/stm32f4xx_ll_dma.h ****   *         @arg @ref LL_DMA_STREAM_5
 537:Drivers/STM32F4xx_HAL_Driver/Inc/stm32f4xx_ll_dma.h ****   *         @arg @ref LL_DMA_STREAM_6
 538:Drivers/STM32F4xx_HAL_Driver/Inc/stm32f4xx_ll_dma.h ****   *         @arg @ref LL_DMA_STREAM_7
 539:Drivers/STM32F4xx_HAL_Driver/Inc/stm32f4xx_ll_dma.h ****   * @retval State of bit (1 or 0).
 540:Drivers/STM32F4xx_HAL_Driver/Inc/stm32f4xx_ll_dma.h ****   */
 541:Drivers/STM32F4xx_HAL_Driver/Inc/stm32f4xx_ll_dma.h **** __STATIC_INLINE uint32_t LL_DMA_IsEnabledStream(DMA_TypeDef *DMAx, uint32_t Stream)
 542:Drivers/STM32F4xx_HAL_Driver/Inc/stm32f4xx_ll_dma.h **** {
 543:Drivers/STM32F4xx_HAL_Driver/Inc/stm32f4xx_ll_dma.h ****   return (READ_BIT(((DMA_Stream_TypeDef*)((uint32_t)((uint32_t)DMAx + STREAM_OFFSET_TAB[Stream])))-
 544:Drivers/STM32F4xx_HAL_Driver/Inc/stm32f4xx_ll_dma.h **** }
 545:Drivers/STM32F4xx_HAL_Driver/Inc/stm32f4xx_ll_dma.h **** 
 546:Drivers/STM32F4xx_HAL_Driver/Inc/stm32f4xx_ll_dma.h **** /**
 547:Drivers/STM32F4xx_HAL_Driver/Inc/stm32f4xx_ll_dma.h ****   * @brief  Configure all parameters linked to DMA transfer.
 548:Drivers/STM32F4xx_HAL_Driver/Inc/stm32f4xx_ll_dma.h ****   * @rmtoll CR          DIR           LL_DMA_ConfigTransfer\n
 549:Drivers/STM32F4xx_HAL_Driver/Inc/stm32f4xx_ll_dma.h ****   *         CR          CIRC          LL_DMA_ConfigTransfer\n
 550:Drivers/STM32F4xx_HAL_Driver/Inc/stm32f4xx_ll_dma.h ****   *         CR          PINC          LL_DMA_ConfigTransfer\n
 551:Drivers/STM32F4xx_HAL_Driver/Inc/stm32f4xx_ll_dma.h ****   *         CR          MINC          LL_DMA_ConfigTransfer\n
 552:Drivers/STM32F4xx_HAL_Driver/Inc/stm32f4xx_ll_dma.h ****   *         CR          PSIZE         LL_DMA_ConfigTransfer\n
 553:Drivers/STM32F4xx_HAL_Driver/Inc/stm32f4xx_ll_dma.h ****   *         CR          MSIZE         LL_DMA_ConfigTransfer\n
 554:Drivers/STM32F4xx_HAL_Driver/Inc/stm32f4xx_ll_dma.h ****   *         CR          PL            LL_DMA_ConfigTransfer\n
 555:Drivers/STM32F4xx_HAL_Driver/Inc/stm32f4xx_ll_dma.h ****   *         CR          PFCTRL        LL_DMA_ConfigTransfer
 556:Drivers/STM32F4xx_HAL_Driver/Inc/stm32f4xx_ll_dma.h ****   * @param  DMAx DMAx Instance
 557:Drivers/STM32F4xx_HAL_Driver/Inc/stm32f4xx_ll_dma.h ****   * @param  Stream This parameter can be one of the following values:
 558:Drivers/STM32F4xx_HAL_Driver/Inc/stm32f4xx_ll_dma.h ****   *         @arg @ref LL_DMA_STREAM_0
 559:Drivers/STM32F4xx_HAL_Driver/Inc/stm32f4xx_ll_dma.h ****   *         @arg @ref LL_DMA_STREAM_1
 560:Drivers/STM32F4xx_HAL_Driver/Inc/stm32f4xx_ll_dma.h ****   *         @arg @ref LL_DMA_STREAM_2
 561:Drivers/STM32F4xx_HAL_Driver/Inc/stm32f4xx_ll_dma.h ****   *         @arg @ref LL_DMA_STREAM_3
 562:Drivers/STM32F4xx_HAL_Driver/Inc/stm32f4xx_ll_dma.h ****   *         @arg @ref LL_DMA_STREAM_4
ARM GAS  /tmp/cc58ZD3F.s 			page 22


 563:Drivers/STM32F4xx_HAL_Driver/Inc/stm32f4xx_ll_dma.h ****   *         @arg @ref LL_DMA_STREAM_5
 564:Drivers/STM32F4xx_HAL_Driver/Inc/stm32f4xx_ll_dma.h ****   *         @arg @ref LL_DMA_STREAM_6
 565:Drivers/STM32F4xx_HAL_Driver/Inc/stm32f4xx_ll_dma.h ****   *         @arg @ref LL_DMA_STREAM_7
 566:Drivers/STM32F4xx_HAL_Driver/Inc/stm32f4xx_ll_dma.h ****   * @param  Configuration This parameter must be a combination of all the following values:
 567:Drivers/STM32F4xx_HAL_Driver/Inc/stm32f4xx_ll_dma.h ****   *         @arg @ref LL_DMA_DIRECTION_PERIPH_TO_MEMORY or @ref LL_DMA_DIRECTION_MEMORY_TO_PERIPH o
 568:Drivers/STM32F4xx_HAL_Driver/Inc/stm32f4xx_ll_dma.h ****   *         @arg @ref LL_DMA_MODE_NORMAL or @ref LL_DMA_MODE_CIRCULAR  or @ref LL_DMA_MODE_PFCTRL
 569:Drivers/STM32F4xx_HAL_Driver/Inc/stm32f4xx_ll_dma.h ****   *         @arg @ref LL_DMA_PERIPH_INCREMENT or @ref LL_DMA_PERIPH_NOINCREMENT
 570:Drivers/STM32F4xx_HAL_Driver/Inc/stm32f4xx_ll_dma.h ****   *         @arg @ref LL_DMA_MEMORY_INCREMENT or @ref LL_DMA_MEMORY_NOINCREMENT
 571:Drivers/STM32F4xx_HAL_Driver/Inc/stm32f4xx_ll_dma.h ****   *         @arg @ref LL_DMA_PDATAALIGN_BYTE or @ref LL_DMA_PDATAALIGN_HALFWORD or @ref LL_DMA_PDAT
 572:Drivers/STM32F4xx_HAL_Driver/Inc/stm32f4xx_ll_dma.h ****   *         @arg @ref LL_DMA_MDATAALIGN_BYTE or @ref LL_DMA_MDATAALIGN_HALFWORD or @ref LL_DMA_MDAT
 573:Drivers/STM32F4xx_HAL_Driver/Inc/stm32f4xx_ll_dma.h ****   *         @arg @ref LL_DMA_PRIORITY_LOW or @ref LL_DMA_PRIORITY_MEDIUM or @ref LL_DMA_PRIORITY_HI
 574:Drivers/STM32F4xx_HAL_Driver/Inc/stm32f4xx_ll_dma.h ****   *@retval None
 575:Drivers/STM32F4xx_HAL_Driver/Inc/stm32f4xx_ll_dma.h ****   */
 576:Drivers/STM32F4xx_HAL_Driver/Inc/stm32f4xx_ll_dma.h **** __STATIC_INLINE void LL_DMA_ConfigTransfer(DMA_TypeDef *DMAx, uint32_t Stream, uint32_t Configurati
 577:Drivers/STM32F4xx_HAL_Driver/Inc/stm32f4xx_ll_dma.h **** {
 578:Drivers/STM32F4xx_HAL_Driver/Inc/stm32f4xx_ll_dma.h ****   MODIFY_REG(((DMA_Stream_TypeDef *)((uint32_t)((uint32_t)DMAx + STREAM_OFFSET_TAB[Stream])))->CR,
 579:Drivers/STM32F4xx_HAL_Driver/Inc/stm32f4xx_ll_dma.h ****              DMA_SxCR_DIR | DMA_SxCR_CIRC | DMA_SxCR_PINC | DMA_SxCR_MINC | DMA_SxCR_PSIZE | DMA_Sx
 580:Drivers/STM32F4xx_HAL_Driver/Inc/stm32f4xx_ll_dma.h ****              Configuration);
 581:Drivers/STM32F4xx_HAL_Driver/Inc/stm32f4xx_ll_dma.h **** }
 582:Drivers/STM32F4xx_HAL_Driver/Inc/stm32f4xx_ll_dma.h **** 
 583:Drivers/STM32F4xx_HAL_Driver/Inc/stm32f4xx_ll_dma.h **** /**
 584:Drivers/STM32F4xx_HAL_Driver/Inc/stm32f4xx_ll_dma.h ****   * @brief Set Data transfer direction (read from peripheral or from memory).
 585:Drivers/STM32F4xx_HAL_Driver/Inc/stm32f4xx_ll_dma.h ****   * @rmtoll CR          DIR           LL_DMA_SetDataTransferDirection
 586:Drivers/STM32F4xx_HAL_Driver/Inc/stm32f4xx_ll_dma.h ****   * @param  DMAx DMAx Instance
 587:Drivers/STM32F4xx_HAL_Driver/Inc/stm32f4xx_ll_dma.h ****   * @param  Stream This parameter can be one of the following values:
 588:Drivers/STM32F4xx_HAL_Driver/Inc/stm32f4xx_ll_dma.h ****   *         @arg @ref LL_DMA_STREAM_0
 589:Drivers/STM32F4xx_HAL_Driver/Inc/stm32f4xx_ll_dma.h ****   *         @arg @ref LL_DMA_STREAM_1
 590:Drivers/STM32F4xx_HAL_Driver/Inc/stm32f4xx_ll_dma.h ****   *         @arg @ref LL_DMA_STREAM_2
 591:Drivers/STM32F4xx_HAL_Driver/Inc/stm32f4xx_ll_dma.h ****   *         @arg @ref LL_DMA_STREAM_3
 592:Drivers/STM32F4xx_HAL_Driver/Inc/stm32f4xx_ll_dma.h ****   *         @arg @ref LL_DMA_STREAM_4
 593:Drivers/STM32F4xx_HAL_Driver/Inc/stm32f4xx_ll_dma.h ****   *         @arg @ref LL_DMA_STREAM_5
 594:Drivers/STM32F4xx_HAL_Driver/Inc/stm32f4xx_ll_dma.h ****   *         @arg @ref LL_DMA_STREAM_6
 595:Drivers/STM32F4xx_HAL_Driver/Inc/stm32f4xx_ll_dma.h ****   *         @arg @ref LL_DMA_STREAM_7
 596:Drivers/STM32F4xx_HAL_Driver/Inc/stm32f4xx_ll_dma.h ****   * @param  Direction This parameter can be one of the following values:
 597:Drivers/STM32F4xx_HAL_Driver/Inc/stm32f4xx_ll_dma.h ****   *         @arg @ref LL_DMA_DIRECTION_PERIPH_TO_MEMORY
 598:Drivers/STM32F4xx_HAL_Driver/Inc/stm32f4xx_ll_dma.h ****   *         @arg @ref LL_DMA_DIRECTION_MEMORY_TO_PERIPH
 599:Drivers/STM32F4xx_HAL_Driver/Inc/stm32f4xx_ll_dma.h ****   *         @arg @ref LL_DMA_DIRECTION_MEMORY_TO_MEMORY
 600:Drivers/STM32F4xx_HAL_Driver/Inc/stm32f4xx_ll_dma.h ****   * @retval None
 601:Drivers/STM32F4xx_HAL_Driver/Inc/stm32f4xx_ll_dma.h ****   */
 602:Drivers/STM32F4xx_HAL_Driver/Inc/stm32f4xx_ll_dma.h **** __STATIC_INLINE void LL_DMA_SetDataTransferDirection(DMA_TypeDef *DMAx, uint32_t Stream, uint32_t  
 603:Drivers/STM32F4xx_HAL_Driver/Inc/stm32f4xx_ll_dma.h **** {
 604:Drivers/STM32F4xx_HAL_Driver/Inc/stm32f4xx_ll_dma.h ****   MODIFY_REG(((DMA_Stream_TypeDef*)((uint32_t)((uint32_t)DMAx + STREAM_OFFSET_TAB[Stream])))->CR, D
 605:Drivers/STM32F4xx_HAL_Driver/Inc/stm32f4xx_ll_dma.h **** }
 606:Drivers/STM32F4xx_HAL_Driver/Inc/stm32f4xx_ll_dma.h **** 
 607:Drivers/STM32F4xx_HAL_Driver/Inc/stm32f4xx_ll_dma.h **** /**
 608:Drivers/STM32F4xx_HAL_Driver/Inc/stm32f4xx_ll_dma.h ****   * @brief Get Data transfer direction (read from peripheral or from memory).
 609:Drivers/STM32F4xx_HAL_Driver/Inc/stm32f4xx_ll_dma.h ****   * @rmtoll CR          DIR           LL_DMA_GetDataTransferDirection
 610:Drivers/STM32F4xx_HAL_Driver/Inc/stm32f4xx_ll_dma.h ****   * @param  DMAx DMAx Instance
 611:Drivers/STM32F4xx_HAL_Driver/Inc/stm32f4xx_ll_dma.h ****   * @param  Stream This parameter can be one of the following values:
 612:Drivers/STM32F4xx_HAL_Driver/Inc/stm32f4xx_ll_dma.h ****   *         @arg @ref LL_DMA_STREAM_0
 613:Drivers/STM32F4xx_HAL_Driver/Inc/stm32f4xx_ll_dma.h ****   *         @arg @ref LL_DMA_STREAM_1
 614:Drivers/STM32F4xx_HAL_Driver/Inc/stm32f4xx_ll_dma.h ****   *         @arg @ref LL_DMA_STREAM_2
 615:Drivers/STM32F4xx_HAL_Driver/Inc/stm32f4xx_ll_dma.h ****   *         @arg @ref LL_DMA_STREAM_3
 616:Drivers/STM32F4xx_HAL_Driver/Inc/stm32f4xx_ll_dma.h ****   *         @arg @ref LL_DMA_STREAM_4
 617:Drivers/STM32F4xx_HAL_Driver/Inc/stm32f4xx_ll_dma.h ****   *         @arg @ref LL_DMA_STREAM_5
 618:Drivers/STM32F4xx_HAL_Driver/Inc/stm32f4xx_ll_dma.h ****   *         @arg @ref LL_DMA_STREAM_6
 619:Drivers/STM32F4xx_HAL_Driver/Inc/stm32f4xx_ll_dma.h ****   *         @arg @ref LL_DMA_STREAM_7
ARM GAS  /tmp/cc58ZD3F.s 			page 23


 620:Drivers/STM32F4xx_HAL_Driver/Inc/stm32f4xx_ll_dma.h ****   * @retval Returned value can be one of the following values:
 621:Drivers/STM32F4xx_HAL_Driver/Inc/stm32f4xx_ll_dma.h ****   *         @arg @ref LL_DMA_DIRECTION_PERIPH_TO_MEMORY
 622:Drivers/STM32F4xx_HAL_Driver/Inc/stm32f4xx_ll_dma.h ****   *         @arg @ref LL_DMA_DIRECTION_MEMORY_TO_PERIPH
 623:Drivers/STM32F4xx_HAL_Driver/Inc/stm32f4xx_ll_dma.h ****   *         @arg @ref LL_DMA_DIRECTION_MEMORY_TO_MEMORY
 624:Drivers/STM32F4xx_HAL_Driver/Inc/stm32f4xx_ll_dma.h ****   */
 625:Drivers/STM32F4xx_HAL_Driver/Inc/stm32f4xx_ll_dma.h **** __STATIC_INLINE uint32_t LL_DMA_GetDataTransferDirection(DMA_TypeDef *DMAx, uint32_t Stream)
 626:Drivers/STM32F4xx_HAL_Driver/Inc/stm32f4xx_ll_dma.h **** {
 627:Drivers/STM32F4xx_HAL_Driver/Inc/stm32f4xx_ll_dma.h ****   return (READ_BIT(((DMA_Stream_TypeDef*)((uint32_t)((uint32_t)DMAx + STREAM_OFFSET_TAB[Stream])))-
 628:Drivers/STM32F4xx_HAL_Driver/Inc/stm32f4xx_ll_dma.h **** }
 629:Drivers/STM32F4xx_HAL_Driver/Inc/stm32f4xx_ll_dma.h **** 
 630:Drivers/STM32F4xx_HAL_Driver/Inc/stm32f4xx_ll_dma.h **** /**
 631:Drivers/STM32F4xx_HAL_Driver/Inc/stm32f4xx_ll_dma.h ****   * @brief Set DMA mode normal, circular or peripheral flow control.
 632:Drivers/STM32F4xx_HAL_Driver/Inc/stm32f4xx_ll_dma.h ****   * @rmtoll CR          CIRC           LL_DMA_SetMode\n
 633:Drivers/STM32F4xx_HAL_Driver/Inc/stm32f4xx_ll_dma.h ****   *         CR          PFCTRL         LL_DMA_SetMode
 634:Drivers/STM32F4xx_HAL_Driver/Inc/stm32f4xx_ll_dma.h ****   * @param  DMAx DMAx Instance
 635:Drivers/STM32F4xx_HAL_Driver/Inc/stm32f4xx_ll_dma.h ****   * @param  Stream This parameter can be one of the following values:
 636:Drivers/STM32F4xx_HAL_Driver/Inc/stm32f4xx_ll_dma.h ****   *         @arg @ref LL_DMA_STREAM_0
 637:Drivers/STM32F4xx_HAL_Driver/Inc/stm32f4xx_ll_dma.h ****   *         @arg @ref LL_DMA_STREAM_1
 638:Drivers/STM32F4xx_HAL_Driver/Inc/stm32f4xx_ll_dma.h ****   *         @arg @ref LL_DMA_STREAM_2
 639:Drivers/STM32F4xx_HAL_Driver/Inc/stm32f4xx_ll_dma.h ****   *         @arg @ref LL_DMA_STREAM_3
 640:Drivers/STM32F4xx_HAL_Driver/Inc/stm32f4xx_ll_dma.h ****   *         @arg @ref LL_DMA_STREAM_4
 641:Drivers/STM32F4xx_HAL_Driver/Inc/stm32f4xx_ll_dma.h ****   *         @arg @ref LL_DMA_STREAM_5
 642:Drivers/STM32F4xx_HAL_Driver/Inc/stm32f4xx_ll_dma.h ****   *         @arg @ref LL_DMA_STREAM_6
 643:Drivers/STM32F4xx_HAL_Driver/Inc/stm32f4xx_ll_dma.h ****   *         @arg @ref LL_DMA_STREAM_7
 644:Drivers/STM32F4xx_HAL_Driver/Inc/stm32f4xx_ll_dma.h ****   * @param  Mode This parameter can be one of the following values:
 645:Drivers/STM32F4xx_HAL_Driver/Inc/stm32f4xx_ll_dma.h ****   *         @arg @ref LL_DMA_MODE_NORMAL
 646:Drivers/STM32F4xx_HAL_Driver/Inc/stm32f4xx_ll_dma.h ****   *         @arg @ref LL_DMA_MODE_CIRCULAR
 647:Drivers/STM32F4xx_HAL_Driver/Inc/stm32f4xx_ll_dma.h ****   *         @arg @ref LL_DMA_MODE_PFCTRL
 648:Drivers/STM32F4xx_HAL_Driver/Inc/stm32f4xx_ll_dma.h ****   * @retval None
 649:Drivers/STM32F4xx_HAL_Driver/Inc/stm32f4xx_ll_dma.h ****   */
 650:Drivers/STM32F4xx_HAL_Driver/Inc/stm32f4xx_ll_dma.h **** __STATIC_INLINE void LL_DMA_SetMode(DMA_TypeDef *DMAx, uint32_t Stream, uint32_t Mode)
 651:Drivers/STM32F4xx_HAL_Driver/Inc/stm32f4xx_ll_dma.h **** {
 652:Drivers/STM32F4xx_HAL_Driver/Inc/stm32f4xx_ll_dma.h ****   MODIFY_REG(((DMA_Stream_TypeDef*)((uint32_t)((uint32_t)DMAx + STREAM_OFFSET_TAB[Stream])))->CR, D
 653:Drivers/STM32F4xx_HAL_Driver/Inc/stm32f4xx_ll_dma.h **** }
 654:Drivers/STM32F4xx_HAL_Driver/Inc/stm32f4xx_ll_dma.h **** 
 655:Drivers/STM32F4xx_HAL_Driver/Inc/stm32f4xx_ll_dma.h **** /**
 656:Drivers/STM32F4xx_HAL_Driver/Inc/stm32f4xx_ll_dma.h ****   * @brief Get DMA mode normal, circular or peripheral flow control.
 657:Drivers/STM32F4xx_HAL_Driver/Inc/stm32f4xx_ll_dma.h ****   * @rmtoll CR          CIRC           LL_DMA_GetMode\n
 658:Drivers/STM32F4xx_HAL_Driver/Inc/stm32f4xx_ll_dma.h ****   *         CR          PFCTRL         LL_DMA_GetMode
 659:Drivers/STM32F4xx_HAL_Driver/Inc/stm32f4xx_ll_dma.h ****   * @param  DMAx DMAx Instance
 660:Drivers/STM32F4xx_HAL_Driver/Inc/stm32f4xx_ll_dma.h ****   * @param  Stream This parameter can be one of the following values:
 661:Drivers/STM32F4xx_HAL_Driver/Inc/stm32f4xx_ll_dma.h ****   *         @arg @ref LL_DMA_STREAM_0
 662:Drivers/STM32F4xx_HAL_Driver/Inc/stm32f4xx_ll_dma.h ****   *         @arg @ref LL_DMA_STREAM_1
 663:Drivers/STM32F4xx_HAL_Driver/Inc/stm32f4xx_ll_dma.h ****   *         @arg @ref LL_DMA_STREAM_2
 664:Drivers/STM32F4xx_HAL_Driver/Inc/stm32f4xx_ll_dma.h ****   *         @arg @ref LL_DMA_STREAM_3
 665:Drivers/STM32F4xx_HAL_Driver/Inc/stm32f4xx_ll_dma.h ****   *         @arg @ref LL_DMA_STREAM_4
 666:Drivers/STM32F4xx_HAL_Driver/Inc/stm32f4xx_ll_dma.h ****   *         @arg @ref LL_DMA_STREAM_5
 667:Drivers/STM32F4xx_HAL_Driver/Inc/stm32f4xx_ll_dma.h ****   *         @arg @ref LL_DMA_STREAM_6
 668:Drivers/STM32F4xx_HAL_Driver/Inc/stm32f4xx_ll_dma.h ****   *         @arg @ref LL_DMA_STREAM_7
 669:Drivers/STM32F4xx_HAL_Driver/Inc/stm32f4xx_ll_dma.h ****   * @retval Returned value can be one of the following values:
 670:Drivers/STM32F4xx_HAL_Driver/Inc/stm32f4xx_ll_dma.h ****   *         @arg @ref LL_DMA_MODE_NORMAL
 671:Drivers/STM32F4xx_HAL_Driver/Inc/stm32f4xx_ll_dma.h ****   *         @arg @ref LL_DMA_MODE_CIRCULAR
 672:Drivers/STM32F4xx_HAL_Driver/Inc/stm32f4xx_ll_dma.h ****   *         @arg @ref LL_DMA_MODE_PFCTRL
 673:Drivers/STM32F4xx_HAL_Driver/Inc/stm32f4xx_ll_dma.h ****   */
 674:Drivers/STM32F4xx_HAL_Driver/Inc/stm32f4xx_ll_dma.h **** __STATIC_INLINE uint32_t LL_DMA_GetMode(DMA_TypeDef *DMAx, uint32_t Stream)
 675:Drivers/STM32F4xx_HAL_Driver/Inc/stm32f4xx_ll_dma.h **** {
 676:Drivers/STM32F4xx_HAL_Driver/Inc/stm32f4xx_ll_dma.h ****   return (READ_BIT(((DMA_Stream_TypeDef*)((uint32_t)((uint32_t)DMAx + STREAM_OFFSET_TAB[Stream])))-
ARM GAS  /tmp/cc58ZD3F.s 			page 24


 677:Drivers/STM32F4xx_HAL_Driver/Inc/stm32f4xx_ll_dma.h **** }
 678:Drivers/STM32F4xx_HAL_Driver/Inc/stm32f4xx_ll_dma.h **** 
 679:Drivers/STM32F4xx_HAL_Driver/Inc/stm32f4xx_ll_dma.h **** /**
 680:Drivers/STM32F4xx_HAL_Driver/Inc/stm32f4xx_ll_dma.h ****   * @brief Set Peripheral increment mode.
 681:Drivers/STM32F4xx_HAL_Driver/Inc/stm32f4xx_ll_dma.h ****   * @rmtoll CR          PINC           LL_DMA_SetPeriphIncMode
 682:Drivers/STM32F4xx_HAL_Driver/Inc/stm32f4xx_ll_dma.h ****   * @param  DMAx DMAx Instance
 683:Drivers/STM32F4xx_HAL_Driver/Inc/stm32f4xx_ll_dma.h ****   * @param  Stream This parameter can be one of the following values:
 684:Drivers/STM32F4xx_HAL_Driver/Inc/stm32f4xx_ll_dma.h ****   *         @arg @ref LL_DMA_STREAM_0
 685:Drivers/STM32F4xx_HAL_Driver/Inc/stm32f4xx_ll_dma.h ****   *         @arg @ref LL_DMA_STREAM_1
 686:Drivers/STM32F4xx_HAL_Driver/Inc/stm32f4xx_ll_dma.h ****   *         @arg @ref LL_DMA_STREAM_2
 687:Drivers/STM32F4xx_HAL_Driver/Inc/stm32f4xx_ll_dma.h ****   *         @arg @ref LL_DMA_STREAM_3
 688:Drivers/STM32F4xx_HAL_Driver/Inc/stm32f4xx_ll_dma.h ****   *         @arg @ref LL_DMA_STREAM_4
 689:Drivers/STM32F4xx_HAL_Driver/Inc/stm32f4xx_ll_dma.h ****   *         @arg @ref LL_DMA_STREAM_5
 690:Drivers/STM32F4xx_HAL_Driver/Inc/stm32f4xx_ll_dma.h ****   *         @arg @ref LL_DMA_STREAM_6
 691:Drivers/STM32F4xx_HAL_Driver/Inc/stm32f4xx_ll_dma.h ****   *         @arg @ref LL_DMA_STREAM_7
 692:Drivers/STM32F4xx_HAL_Driver/Inc/stm32f4xx_ll_dma.h ****   * @param  IncrementMode This parameter can be one of the following values:
 693:Drivers/STM32F4xx_HAL_Driver/Inc/stm32f4xx_ll_dma.h ****   *         @arg @ref LL_DMA_PERIPH_NOINCREMENT
 694:Drivers/STM32F4xx_HAL_Driver/Inc/stm32f4xx_ll_dma.h ****   *         @arg @ref LL_DMA_PERIPH_INCREMENT
 695:Drivers/STM32F4xx_HAL_Driver/Inc/stm32f4xx_ll_dma.h ****   * @retval None
 696:Drivers/STM32F4xx_HAL_Driver/Inc/stm32f4xx_ll_dma.h ****   */
 697:Drivers/STM32F4xx_HAL_Driver/Inc/stm32f4xx_ll_dma.h **** __STATIC_INLINE void LL_DMA_SetPeriphIncMode(DMA_TypeDef *DMAx, uint32_t Stream, uint32_t Increment
 698:Drivers/STM32F4xx_HAL_Driver/Inc/stm32f4xx_ll_dma.h **** {
 699:Drivers/STM32F4xx_HAL_Driver/Inc/stm32f4xx_ll_dma.h ****   MODIFY_REG(((DMA_Stream_TypeDef*)((uint32_t)((uint32_t)DMAx + STREAM_OFFSET_TAB[Stream])))->CR, D
 700:Drivers/STM32F4xx_HAL_Driver/Inc/stm32f4xx_ll_dma.h **** }
 701:Drivers/STM32F4xx_HAL_Driver/Inc/stm32f4xx_ll_dma.h **** 
 702:Drivers/STM32F4xx_HAL_Driver/Inc/stm32f4xx_ll_dma.h **** /**
 703:Drivers/STM32F4xx_HAL_Driver/Inc/stm32f4xx_ll_dma.h ****   * @brief Get Peripheral increment mode.
 704:Drivers/STM32F4xx_HAL_Driver/Inc/stm32f4xx_ll_dma.h ****   * @rmtoll CR          PINC           LL_DMA_GetPeriphIncMode
 705:Drivers/STM32F4xx_HAL_Driver/Inc/stm32f4xx_ll_dma.h ****   * @param  DMAx DMAx Instance
 706:Drivers/STM32F4xx_HAL_Driver/Inc/stm32f4xx_ll_dma.h ****   * @param  Stream This parameter can be one of the following values:
 707:Drivers/STM32F4xx_HAL_Driver/Inc/stm32f4xx_ll_dma.h ****   *         @arg @ref LL_DMA_STREAM_0
 708:Drivers/STM32F4xx_HAL_Driver/Inc/stm32f4xx_ll_dma.h ****   *         @arg @ref LL_DMA_STREAM_1
 709:Drivers/STM32F4xx_HAL_Driver/Inc/stm32f4xx_ll_dma.h ****   *         @arg @ref LL_DMA_STREAM_2
 710:Drivers/STM32F4xx_HAL_Driver/Inc/stm32f4xx_ll_dma.h ****   *         @arg @ref LL_DMA_STREAM_3
 711:Drivers/STM32F4xx_HAL_Driver/Inc/stm32f4xx_ll_dma.h ****   *         @arg @ref LL_DMA_STREAM_4
 712:Drivers/STM32F4xx_HAL_Driver/Inc/stm32f4xx_ll_dma.h ****   *         @arg @ref LL_DMA_STREAM_5
 713:Drivers/STM32F4xx_HAL_Driver/Inc/stm32f4xx_ll_dma.h ****   *         @arg @ref LL_DMA_STREAM_6
 714:Drivers/STM32F4xx_HAL_Driver/Inc/stm32f4xx_ll_dma.h ****   *         @arg @ref LL_DMA_STREAM_7
 715:Drivers/STM32F4xx_HAL_Driver/Inc/stm32f4xx_ll_dma.h ****   * @retval Returned value can be one of the following values:
 716:Drivers/STM32F4xx_HAL_Driver/Inc/stm32f4xx_ll_dma.h ****   *         @arg @ref LL_DMA_PERIPH_NOINCREMENT
 717:Drivers/STM32F4xx_HAL_Driver/Inc/stm32f4xx_ll_dma.h ****   *         @arg @ref LL_DMA_PERIPH_INCREMENT
 718:Drivers/STM32F4xx_HAL_Driver/Inc/stm32f4xx_ll_dma.h ****   */
 719:Drivers/STM32F4xx_HAL_Driver/Inc/stm32f4xx_ll_dma.h **** __STATIC_INLINE uint32_t LL_DMA_GetPeriphIncMode(DMA_TypeDef *DMAx, uint32_t Stream)
 720:Drivers/STM32F4xx_HAL_Driver/Inc/stm32f4xx_ll_dma.h **** {
 721:Drivers/STM32F4xx_HAL_Driver/Inc/stm32f4xx_ll_dma.h ****   return (READ_BIT(((DMA_Stream_TypeDef*)((uint32_t)((uint32_t)DMAx + STREAM_OFFSET_TAB[Stream])))-
 722:Drivers/STM32F4xx_HAL_Driver/Inc/stm32f4xx_ll_dma.h **** }
 723:Drivers/STM32F4xx_HAL_Driver/Inc/stm32f4xx_ll_dma.h **** 
 724:Drivers/STM32F4xx_HAL_Driver/Inc/stm32f4xx_ll_dma.h **** /**
 725:Drivers/STM32F4xx_HAL_Driver/Inc/stm32f4xx_ll_dma.h ****   * @brief Set Memory increment mode.
 726:Drivers/STM32F4xx_HAL_Driver/Inc/stm32f4xx_ll_dma.h ****   * @rmtoll CR          MINC           LL_DMA_SetMemoryIncMode
 727:Drivers/STM32F4xx_HAL_Driver/Inc/stm32f4xx_ll_dma.h ****   * @param  DMAx DMAx Instance
 728:Drivers/STM32F4xx_HAL_Driver/Inc/stm32f4xx_ll_dma.h ****   * @param  Stream This parameter can be one of the following values:
 729:Drivers/STM32F4xx_HAL_Driver/Inc/stm32f4xx_ll_dma.h ****   *         @arg @ref LL_DMA_STREAM_0
 730:Drivers/STM32F4xx_HAL_Driver/Inc/stm32f4xx_ll_dma.h ****   *         @arg @ref LL_DMA_STREAM_1
 731:Drivers/STM32F4xx_HAL_Driver/Inc/stm32f4xx_ll_dma.h ****   *         @arg @ref LL_DMA_STREAM_2
 732:Drivers/STM32F4xx_HAL_Driver/Inc/stm32f4xx_ll_dma.h ****   *         @arg @ref LL_DMA_STREAM_3
 733:Drivers/STM32F4xx_HAL_Driver/Inc/stm32f4xx_ll_dma.h ****   *         @arg @ref LL_DMA_STREAM_4
ARM GAS  /tmp/cc58ZD3F.s 			page 25


 734:Drivers/STM32F4xx_HAL_Driver/Inc/stm32f4xx_ll_dma.h ****   *         @arg @ref LL_DMA_STREAM_5
 735:Drivers/STM32F4xx_HAL_Driver/Inc/stm32f4xx_ll_dma.h ****   *         @arg @ref LL_DMA_STREAM_6
 736:Drivers/STM32F4xx_HAL_Driver/Inc/stm32f4xx_ll_dma.h ****   *         @arg @ref LL_DMA_STREAM_7
 737:Drivers/STM32F4xx_HAL_Driver/Inc/stm32f4xx_ll_dma.h ****   * @param  IncrementMode This parameter can be one of the following values:
 738:Drivers/STM32F4xx_HAL_Driver/Inc/stm32f4xx_ll_dma.h ****   *         @arg @ref LL_DMA_MEMORY_NOINCREMENT
 739:Drivers/STM32F4xx_HAL_Driver/Inc/stm32f4xx_ll_dma.h ****   *         @arg @ref LL_DMA_MEMORY_INCREMENT
 740:Drivers/STM32F4xx_HAL_Driver/Inc/stm32f4xx_ll_dma.h ****   * @retval None
 741:Drivers/STM32F4xx_HAL_Driver/Inc/stm32f4xx_ll_dma.h ****   */
 742:Drivers/STM32F4xx_HAL_Driver/Inc/stm32f4xx_ll_dma.h **** __STATIC_INLINE void LL_DMA_SetMemoryIncMode(DMA_TypeDef *DMAx, uint32_t Stream, uint32_t Increment
 743:Drivers/STM32F4xx_HAL_Driver/Inc/stm32f4xx_ll_dma.h **** {
 744:Drivers/STM32F4xx_HAL_Driver/Inc/stm32f4xx_ll_dma.h ****   MODIFY_REG(((DMA_Stream_TypeDef*)((uint32_t)((uint32_t)DMAx + STREAM_OFFSET_TAB[Stream])))->CR, D
 745:Drivers/STM32F4xx_HAL_Driver/Inc/stm32f4xx_ll_dma.h **** }
 746:Drivers/STM32F4xx_HAL_Driver/Inc/stm32f4xx_ll_dma.h **** 
 747:Drivers/STM32F4xx_HAL_Driver/Inc/stm32f4xx_ll_dma.h **** /**
 748:Drivers/STM32F4xx_HAL_Driver/Inc/stm32f4xx_ll_dma.h ****   * @brief Get Memory increment mode.
 749:Drivers/STM32F4xx_HAL_Driver/Inc/stm32f4xx_ll_dma.h ****   * @rmtoll CR          MINC           LL_DMA_GetMemoryIncMode
 750:Drivers/STM32F4xx_HAL_Driver/Inc/stm32f4xx_ll_dma.h ****   * @param  DMAx DMAx Instance
 751:Drivers/STM32F4xx_HAL_Driver/Inc/stm32f4xx_ll_dma.h ****   * @param  Stream This parameter can be one of the following values:
 752:Drivers/STM32F4xx_HAL_Driver/Inc/stm32f4xx_ll_dma.h ****   *         @arg @ref LL_DMA_STREAM_0
 753:Drivers/STM32F4xx_HAL_Driver/Inc/stm32f4xx_ll_dma.h ****   *         @arg @ref LL_DMA_STREAM_1
 754:Drivers/STM32F4xx_HAL_Driver/Inc/stm32f4xx_ll_dma.h ****   *         @arg @ref LL_DMA_STREAM_2
 755:Drivers/STM32F4xx_HAL_Driver/Inc/stm32f4xx_ll_dma.h ****   *         @arg @ref LL_DMA_STREAM_3
 756:Drivers/STM32F4xx_HAL_Driver/Inc/stm32f4xx_ll_dma.h ****   *         @arg @ref LL_DMA_STREAM_4
 757:Drivers/STM32F4xx_HAL_Driver/Inc/stm32f4xx_ll_dma.h ****   *         @arg @ref LL_DMA_STREAM_5
 758:Drivers/STM32F4xx_HAL_Driver/Inc/stm32f4xx_ll_dma.h ****   *         @arg @ref LL_DMA_STREAM_6
 759:Drivers/STM32F4xx_HAL_Driver/Inc/stm32f4xx_ll_dma.h ****   *         @arg @ref LL_DMA_STREAM_7
 760:Drivers/STM32F4xx_HAL_Driver/Inc/stm32f4xx_ll_dma.h ****   * @retval Returned value can be one of the following values:
 761:Drivers/STM32F4xx_HAL_Driver/Inc/stm32f4xx_ll_dma.h ****   *         @arg @ref LL_DMA_MEMORY_NOINCREMENT
 762:Drivers/STM32F4xx_HAL_Driver/Inc/stm32f4xx_ll_dma.h ****   *         @arg @ref LL_DMA_MEMORY_INCREMENT
 763:Drivers/STM32F4xx_HAL_Driver/Inc/stm32f4xx_ll_dma.h ****   */
 764:Drivers/STM32F4xx_HAL_Driver/Inc/stm32f4xx_ll_dma.h **** __STATIC_INLINE uint32_t LL_DMA_GetMemoryIncMode(DMA_TypeDef *DMAx, uint32_t Stream)
 765:Drivers/STM32F4xx_HAL_Driver/Inc/stm32f4xx_ll_dma.h **** {
 766:Drivers/STM32F4xx_HAL_Driver/Inc/stm32f4xx_ll_dma.h ****   return (READ_BIT(((DMA_Stream_TypeDef*)((uint32_t)((uint32_t)DMAx + STREAM_OFFSET_TAB[Stream])))-
 767:Drivers/STM32F4xx_HAL_Driver/Inc/stm32f4xx_ll_dma.h **** }
 768:Drivers/STM32F4xx_HAL_Driver/Inc/stm32f4xx_ll_dma.h **** 
 769:Drivers/STM32F4xx_HAL_Driver/Inc/stm32f4xx_ll_dma.h **** /**
 770:Drivers/STM32F4xx_HAL_Driver/Inc/stm32f4xx_ll_dma.h ****   * @brief Set Peripheral size.
 771:Drivers/STM32F4xx_HAL_Driver/Inc/stm32f4xx_ll_dma.h ****   * @rmtoll CR          PSIZE           LL_DMA_SetPeriphSize
 772:Drivers/STM32F4xx_HAL_Driver/Inc/stm32f4xx_ll_dma.h ****   * @param  DMAx DMAx Instance
 773:Drivers/STM32F4xx_HAL_Driver/Inc/stm32f4xx_ll_dma.h ****   * @param  Stream This parameter can be one of the following values:
 774:Drivers/STM32F4xx_HAL_Driver/Inc/stm32f4xx_ll_dma.h ****   *         @arg @ref LL_DMA_STREAM_0
 775:Drivers/STM32F4xx_HAL_Driver/Inc/stm32f4xx_ll_dma.h ****   *         @arg @ref LL_DMA_STREAM_1
 776:Drivers/STM32F4xx_HAL_Driver/Inc/stm32f4xx_ll_dma.h ****   *         @arg @ref LL_DMA_STREAM_2
 777:Drivers/STM32F4xx_HAL_Driver/Inc/stm32f4xx_ll_dma.h ****   *         @arg @ref LL_DMA_STREAM_3
 778:Drivers/STM32F4xx_HAL_Driver/Inc/stm32f4xx_ll_dma.h ****   *         @arg @ref LL_DMA_STREAM_4
 779:Drivers/STM32F4xx_HAL_Driver/Inc/stm32f4xx_ll_dma.h ****   *         @arg @ref LL_DMA_STREAM_5
 780:Drivers/STM32F4xx_HAL_Driver/Inc/stm32f4xx_ll_dma.h ****   *         @arg @ref LL_DMA_STREAM_6
 781:Drivers/STM32F4xx_HAL_Driver/Inc/stm32f4xx_ll_dma.h ****   *         @arg @ref LL_DMA_STREAM_7
 782:Drivers/STM32F4xx_HAL_Driver/Inc/stm32f4xx_ll_dma.h ****   * @param  Size This parameter can be one of the following values:
 783:Drivers/STM32F4xx_HAL_Driver/Inc/stm32f4xx_ll_dma.h ****   *         @arg @ref LL_DMA_PDATAALIGN_BYTE
 784:Drivers/STM32F4xx_HAL_Driver/Inc/stm32f4xx_ll_dma.h ****   *         @arg @ref LL_DMA_PDATAALIGN_HALFWORD
 785:Drivers/STM32F4xx_HAL_Driver/Inc/stm32f4xx_ll_dma.h ****   *         @arg @ref LL_DMA_PDATAALIGN_WORD
 786:Drivers/STM32F4xx_HAL_Driver/Inc/stm32f4xx_ll_dma.h ****   * @retval None
 787:Drivers/STM32F4xx_HAL_Driver/Inc/stm32f4xx_ll_dma.h ****   */
 788:Drivers/STM32F4xx_HAL_Driver/Inc/stm32f4xx_ll_dma.h **** __STATIC_INLINE void LL_DMA_SetPeriphSize(DMA_TypeDef *DMAx, uint32_t Stream, uint32_t  Size)
 789:Drivers/STM32F4xx_HAL_Driver/Inc/stm32f4xx_ll_dma.h **** {
 790:Drivers/STM32F4xx_HAL_Driver/Inc/stm32f4xx_ll_dma.h ****   MODIFY_REG(((DMA_Stream_TypeDef*)((uint32_t)((uint32_t)DMAx + STREAM_OFFSET_TAB[Stream])))->CR, D
ARM GAS  /tmp/cc58ZD3F.s 			page 26


 791:Drivers/STM32F4xx_HAL_Driver/Inc/stm32f4xx_ll_dma.h **** }
 792:Drivers/STM32F4xx_HAL_Driver/Inc/stm32f4xx_ll_dma.h **** 
 793:Drivers/STM32F4xx_HAL_Driver/Inc/stm32f4xx_ll_dma.h **** /**
 794:Drivers/STM32F4xx_HAL_Driver/Inc/stm32f4xx_ll_dma.h ****   * @brief Get Peripheral size.
 795:Drivers/STM32F4xx_HAL_Driver/Inc/stm32f4xx_ll_dma.h ****   * @rmtoll CR          PSIZE           LL_DMA_GetPeriphSize
 796:Drivers/STM32F4xx_HAL_Driver/Inc/stm32f4xx_ll_dma.h ****   * @param  DMAx DMAx Instance
 797:Drivers/STM32F4xx_HAL_Driver/Inc/stm32f4xx_ll_dma.h ****   * @param  Stream This parameter can be one of the following values:
 798:Drivers/STM32F4xx_HAL_Driver/Inc/stm32f4xx_ll_dma.h ****   *         @arg @ref LL_DMA_STREAM_0
 799:Drivers/STM32F4xx_HAL_Driver/Inc/stm32f4xx_ll_dma.h ****   *         @arg @ref LL_DMA_STREAM_1
 800:Drivers/STM32F4xx_HAL_Driver/Inc/stm32f4xx_ll_dma.h ****   *         @arg @ref LL_DMA_STREAM_2
 801:Drivers/STM32F4xx_HAL_Driver/Inc/stm32f4xx_ll_dma.h ****   *         @arg @ref LL_DMA_STREAM_3
 802:Drivers/STM32F4xx_HAL_Driver/Inc/stm32f4xx_ll_dma.h ****   *         @arg @ref LL_DMA_STREAM_4
 803:Drivers/STM32F4xx_HAL_Driver/Inc/stm32f4xx_ll_dma.h ****   *         @arg @ref LL_DMA_STREAM_5
 804:Drivers/STM32F4xx_HAL_Driver/Inc/stm32f4xx_ll_dma.h ****   *         @arg @ref LL_DMA_STREAM_6
 805:Drivers/STM32F4xx_HAL_Driver/Inc/stm32f4xx_ll_dma.h ****   *         @arg @ref LL_DMA_STREAM_7
 806:Drivers/STM32F4xx_HAL_Driver/Inc/stm32f4xx_ll_dma.h ****   * @retval Returned value can be one of the following values:
 807:Drivers/STM32F4xx_HAL_Driver/Inc/stm32f4xx_ll_dma.h ****   *         @arg @ref LL_DMA_PDATAALIGN_BYTE
 808:Drivers/STM32F4xx_HAL_Driver/Inc/stm32f4xx_ll_dma.h ****   *         @arg @ref LL_DMA_PDATAALIGN_HALFWORD
 809:Drivers/STM32F4xx_HAL_Driver/Inc/stm32f4xx_ll_dma.h ****   *         @arg @ref LL_DMA_PDATAALIGN_WORD
 810:Drivers/STM32F4xx_HAL_Driver/Inc/stm32f4xx_ll_dma.h ****   */
 811:Drivers/STM32F4xx_HAL_Driver/Inc/stm32f4xx_ll_dma.h **** __STATIC_INLINE uint32_t LL_DMA_GetPeriphSize(DMA_TypeDef *DMAx, uint32_t Stream)
 812:Drivers/STM32F4xx_HAL_Driver/Inc/stm32f4xx_ll_dma.h **** {
 813:Drivers/STM32F4xx_HAL_Driver/Inc/stm32f4xx_ll_dma.h ****   return (READ_BIT(((DMA_Stream_TypeDef*)((uint32_t)((uint32_t)DMAx + STREAM_OFFSET_TAB[Stream])))-
 814:Drivers/STM32F4xx_HAL_Driver/Inc/stm32f4xx_ll_dma.h **** }
 815:Drivers/STM32F4xx_HAL_Driver/Inc/stm32f4xx_ll_dma.h **** 
 816:Drivers/STM32F4xx_HAL_Driver/Inc/stm32f4xx_ll_dma.h **** /**
 817:Drivers/STM32F4xx_HAL_Driver/Inc/stm32f4xx_ll_dma.h ****   * @brief Set Memory size.
 818:Drivers/STM32F4xx_HAL_Driver/Inc/stm32f4xx_ll_dma.h ****   * @rmtoll CR          MSIZE           LL_DMA_SetMemorySize
 819:Drivers/STM32F4xx_HAL_Driver/Inc/stm32f4xx_ll_dma.h ****   * @param  DMAx DMAx Instance
 820:Drivers/STM32F4xx_HAL_Driver/Inc/stm32f4xx_ll_dma.h ****   * @param  Stream This parameter can be one of the following values:
 821:Drivers/STM32F4xx_HAL_Driver/Inc/stm32f4xx_ll_dma.h ****   *         @arg @ref LL_DMA_STREAM_0
 822:Drivers/STM32F4xx_HAL_Driver/Inc/stm32f4xx_ll_dma.h ****   *         @arg @ref LL_DMA_STREAM_1
 823:Drivers/STM32F4xx_HAL_Driver/Inc/stm32f4xx_ll_dma.h ****   *         @arg @ref LL_DMA_STREAM_2
 824:Drivers/STM32F4xx_HAL_Driver/Inc/stm32f4xx_ll_dma.h ****   *         @arg @ref LL_DMA_STREAM_3
 825:Drivers/STM32F4xx_HAL_Driver/Inc/stm32f4xx_ll_dma.h ****   *         @arg @ref LL_DMA_STREAM_4
 826:Drivers/STM32F4xx_HAL_Driver/Inc/stm32f4xx_ll_dma.h ****   *         @arg @ref LL_DMA_STREAM_5
 827:Drivers/STM32F4xx_HAL_Driver/Inc/stm32f4xx_ll_dma.h ****   *         @arg @ref LL_DMA_STREAM_6
 828:Drivers/STM32F4xx_HAL_Driver/Inc/stm32f4xx_ll_dma.h ****   *         @arg @ref LL_DMA_STREAM_7
 829:Drivers/STM32F4xx_HAL_Driver/Inc/stm32f4xx_ll_dma.h ****   * @param  Size This parameter can be one of the following values:
 830:Drivers/STM32F4xx_HAL_Driver/Inc/stm32f4xx_ll_dma.h ****   *         @arg @ref LL_DMA_MDATAALIGN_BYTE
 831:Drivers/STM32F4xx_HAL_Driver/Inc/stm32f4xx_ll_dma.h ****   *         @arg @ref LL_DMA_MDATAALIGN_HALFWORD
 832:Drivers/STM32F4xx_HAL_Driver/Inc/stm32f4xx_ll_dma.h ****   *         @arg @ref LL_DMA_MDATAALIGN_WORD
 833:Drivers/STM32F4xx_HAL_Driver/Inc/stm32f4xx_ll_dma.h ****   * @retval None
 834:Drivers/STM32F4xx_HAL_Driver/Inc/stm32f4xx_ll_dma.h ****   */
 835:Drivers/STM32F4xx_HAL_Driver/Inc/stm32f4xx_ll_dma.h **** __STATIC_INLINE void LL_DMA_SetMemorySize(DMA_TypeDef *DMAx, uint32_t Stream, uint32_t  Size)
 836:Drivers/STM32F4xx_HAL_Driver/Inc/stm32f4xx_ll_dma.h **** {
 837:Drivers/STM32F4xx_HAL_Driver/Inc/stm32f4xx_ll_dma.h ****   MODIFY_REG(((DMA_Stream_TypeDef*)((uint32_t)((uint32_t)DMAx + STREAM_OFFSET_TAB[Stream])))->CR, D
 838:Drivers/STM32F4xx_HAL_Driver/Inc/stm32f4xx_ll_dma.h **** }
 839:Drivers/STM32F4xx_HAL_Driver/Inc/stm32f4xx_ll_dma.h **** 
 840:Drivers/STM32F4xx_HAL_Driver/Inc/stm32f4xx_ll_dma.h **** /**
 841:Drivers/STM32F4xx_HAL_Driver/Inc/stm32f4xx_ll_dma.h ****   * @brief Get Memory size.
 842:Drivers/STM32F4xx_HAL_Driver/Inc/stm32f4xx_ll_dma.h ****   * @rmtoll CR          MSIZE           LL_DMA_GetMemorySize
 843:Drivers/STM32F4xx_HAL_Driver/Inc/stm32f4xx_ll_dma.h ****   * @param  DMAx DMAx Instance
 844:Drivers/STM32F4xx_HAL_Driver/Inc/stm32f4xx_ll_dma.h ****   * @param  Stream This parameter can be one of the following values:
 845:Drivers/STM32F4xx_HAL_Driver/Inc/stm32f4xx_ll_dma.h ****   *         @arg @ref LL_DMA_STREAM_0
 846:Drivers/STM32F4xx_HAL_Driver/Inc/stm32f4xx_ll_dma.h ****   *         @arg @ref LL_DMA_STREAM_1
 847:Drivers/STM32F4xx_HAL_Driver/Inc/stm32f4xx_ll_dma.h ****   *         @arg @ref LL_DMA_STREAM_2
ARM GAS  /tmp/cc58ZD3F.s 			page 27


 848:Drivers/STM32F4xx_HAL_Driver/Inc/stm32f4xx_ll_dma.h ****   *         @arg @ref LL_DMA_STREAM_3
 849:Drivers/STM32F4xx_HAL_Driver/Inc/stm32f4xx_ll_dma.h ****   *         @arg @ref LL_DMA_STREAM_4
 850:Drivers/STM32F4xx_HAL_Driver/Inc/stm32f4xx_ll_dma.h ****   *         @arg @ref LL_DMA_STREAM_5
 851:Drivers/STM32F4xx_HAL_Driver/Inc/stm32f4xx_ll_dma.h ****   *         @arg @ref LL_DMA_STREAM_6
 852:Drivers/STM32F4xx_HAL_Driver/Inc/stm32f4xx_ll_dma.h ****   *         @arg @ref LL_DMA_STREAM_7
 853:Drivers/STM32F4xx_HAL_Driver/Inc/stm32f4xx_ll_dma.h ****   * @retval Returned value can be one of the following values:
 854:Drivers/STM32F4xx_HAL_Driver/Inc/stm32f4xx_ll_dma.h ****   *         @arg @ref LL_DMA_MDATAALIGN_BYTE
 855:Drivers/STM32F4xx_HAL_Driver/Inc/stm32f4xx_ll_dma.h ****   *         @arg @ref LL_DMA_MDATAALIGN_HALFWORD
 856:Drivers/STM32F4xx_HAL_Driver/Inc/stm32f4xx_ll_dma.h ****   *         @arg @ref LL_DMA_MDATAALIGN_WORD
 857:Drivers/STM32F4xx_HAL_Driver/Inc/stm32f4xx_ll_dma.h ****   */
 858:Drivers/STM32F4xx_HAL_Driver/Inc/stm32f4xx_ll_dma.h **** __STATIC_INLINE uint32_t LL_DMA_GetMemorySize(DMA_TypeDef *DMAx, uint32_t Stream)
 859:Drivers/STM32F4xx_HAL_Driver/Inc/stm32f4xx_ll_dma.h **** {
 860:Drivers/STM32F4xx_HAL_Driver/Inc/stm32f4xx_ll_dma.h ****   return (READ_BIT(((DMA_Stream_TypeDef*)((uint32_t)((uint32_t)DMAx + STREAM_OFFSET_TAB[Stream])))-
 861:Drivers/STM32F4xx_HAL_Driver/Inc/stm32f4xx_ll_dma.h **** }
 862:Drivers/STM32F4xx_HAL_Driver/Inc/stm32f4xx_ll_dma.h **** 
 863:Drivers/STM32F4xx_HAL_Driver/Inc/stm32f4xx_ll_dma.h **** /**
 864:Drivers/STM32F4xx_HAL_Driver/Inc/stm32f4xx_ll_dma.h ****   * @brief Set Peripheral increment offset size.
 865:Drivers/STM32F4xx_HAL_Driver/Inc/stm32f4xx_ll_dma.h ****   * @rmtoll CR          PINCOS           LL_DMA_SetIncOffsetSize
 866:Drivers/STM32F4xx_HAL_Driver/Inc/stm32f4xx_ll_dma.h ****   * @param  DMAx DMAx Instance
 867:Drivers/STM32F4xx_HAL_Driver/Inc/stm32f4xx_ll_dma.h ****   * @param  Stream This parameter can be one of the following values:
 868:Drivers/STM32F4xx_HAL_Driver/Inc/stm32f4xx_ll_dma.h ****   *         @arg @ref LL_DMA_STREAM_0
 869:Drivers/STM32F4xx_HAL_Driver/Inc/stm32f4xx_ll_dma.h ****   *         @arg @ref LL_DMA_STREAM_1
 870:Drivers/STM32F4xx_HAL_Driver/Inc/stm32f4xx_ll_dma.h ****   *         @arg @ref LL_DMA_STREAM_2
 871:Drivers/STM32F4xx_HAL_Driver/Inc/stm32f4xx_ll_dma.h ****   *         @arg @ref LL_DMA_STREAM_3
 872:Drivers/STM32F4xx_HAL_Driver/Inc/stm32f4xx_ll_dma.h ****   *         @arg @ref LL_DMA_STREAM_4
 873:Drivers/STM32F4xx_HAL_Driver/Inc/stm32f4xx_ll_dma.h ****   *         @arg @ref LL_DMA_STREAM_5
 874:Drivers/STM32F4xx_HAL_Driver/Inc/stm32f4xx_ll_dma.h ****   *         @arg @ref LL_DMA_STREAM_6
 875:Drivers/STM32F4xx_HAL_Driver/Inc/stm32f4xx_ll_dma.h ****   *         @arg @ref LL_DMA_STREAM_7
 876:Drivers/STM32F4xx_HAL_Driver/Inc/stm32f4xx_ll_dma.h ****   * @param  OffsetSize This parameter can be one of the following values:
 877:Drivers/STM32F4xx_HAL_Driver/Inc/stm32f4xx_ll_dma.h ****   *         @arg @ref LL_DMA_OFFSETSIZE_PSIZE
 878:Drivers/STM32F4xx_HAL_Driver/Inc/stm32f4xx_ll_dma.h ****   *         @arg @ref LL_DMA_OFFSETSIZE_FIXEDTO4
 879:Drivers/STM32F4xx_HAL_Driver/Inc/stm32f4xx_ll_dma.h ****   * @retval None
 880:Drivers/STM32F4xx_HAL_Driver/Inc/stm32f4xx_ll_dma.h ****   */
 881:Drivers/STM32F4xx_HAL_Driver/Inc/stm32f4xx_ll_dma.h **** __STATIC_INLINE void LL_DMA_SetIncOffsetSize(DMA_TypeDef *DMAx, uint32_t Stream, uint32_t OffsetSiz
 882:Drivers/STM32F4xx_HAL_Driver/Inc/stm32f4xx_ll_dma.h **** {
 883:Drivers/STM32F4xx_HAL_Driver/Inc/stm32f4xx_ll_dma.h ****   MODIFY_REG(((DMA_Stream_TypeDef*)((uint32_t)((uint32_t)DMAx + STREAM_OFFSET_TAB[Stream])))->CR, D
 884:Drivers/STM32F4xx_HAL_Driver/Inc/stm32f4xx_ll_dma.h **** }
 885:Drivers/STM32F4xx_HAL_Driver/Inc/stm32f4xx_ll_dma.h **** 
 886:Drivers/STM32F4xx_HAL_Driver/Inc/stm32f4xx_ll_dma.h **** /**
 887:Drivers/STM32F4xx_HAL_Driver/Inc/stm32f4xx_ll_dma.h ****   * @brief Get Peripheral increment offset size.
 888:Drivers/STM32F4xx_HAL_Driver/Inc/stm32f4xx_ll_dma.h ****   * @rmtoll CR          PINCOS           LL_DMA_GetIncOffsetSize
 889:Drivers/STM32F4xx_HAL_Driver/Inc/stm32f4xx_ll_dma.h ****   * @param  DMAx DMAx Instance
 890:Drivers/STM32F4xx_HAL_Driver/Inc/stm32f4xx_ll_dma.h ****   * @param  Stream This parameter can be one of the following values:
 891:Drivers/STM32F4xx_HAL_Driver/Inc/stm32f4xx_ll_dma.h ****   *         @arg @ref LL_DMA_STREAM_0
 892:Drivers/STM32F4xx_HAL_Driver/Inc/stm32f4xx_ll_dma.h ****   *         @arg @ref LL_DMA_STREAM_1
 893:Drivers/STM32F4xx_HAL_Driver/Inc/stm32f4xx_ll_dma.h ****   *         @arg @ref LL_DMA_STREAM_2
 894:Drivers/STM32F4xx_HAL_Driver/Inc/stm32f4xx_ll_dma.h ****   *         @arg @ref LL_DMA_STREAM_3
 895:Drivers/STM32F4xx_HAL_Driver/Inc/stm32f4xx_ll_dma.h ****   *         @arg @ref LL_DMA_STREAM_4
 896:Drivers/STM32F4xx_HAL_Driver/Inc/stm32f4xx_ll_dma.h ****   *         @arg @ref LL_DMA_STREAM_5
 897:Drivers/STM32F4xx_HAL_Driver/Inc/stm32f4xx_ll_dma.h ****   *         @arg @ref LL_DMA_STREAM_6
 898:Drivers/STM32F4xx_HAL_Driver/Inc/stm32f4xx_ll_dma.h ****   *         @arg @ref LL_DMA_STREAM_7
 899:Drivers/STM32F4xx_HAL_Driver/Inc/stm32f4xx_ll_dma.h ****   * @retval Returned value can be one of the following values:
 900:Drivers/STM32F4xx_HAL_Driver/Inc/stm32f4xx_ll_dma.h ****   *         @arg @ref LL_DMA_OFFSETSIZE_PSIZE
 901:Drivers/STM32F4xx_HAL_Driver/Inc/stm32f4xx_ll_dma.h ****   *         @arg @ref LL_DMA_OFFSETSIZE_FIXEDTO4
 902:Drivers/STM32F4xx_HAL_Driver/Inc/stm32f4xx_ll_dma.h ****   */
 903:Drivers/STM32F4xx_HAL_Driver/Inc/stm32f4xx_ll_dma.h **** __STATIC_INLINE uint32_t LL_DMA_GetIncOffsetSize(DMA_TypeDef *DMAx, uint32_t Stream)
 904:Drivers/STM32F4xx_HAL_Driver/Inc/stm32f4xx_ll_dma.h **** {
ARM GAS  /tmp/cc58ZD3F.s 			page 28


 905:Drivers/STM32F4xx_HAL_Driver/Inc/stm32f4xx_ll_dma.h ****   return (READ_BIT(((DMA_Stream_TypeDef*)((uint32_t)((uint32_t)DMAx + STREAM_OFFSET_TAB[Stream])))-
 906:Drivers/STM32F4xx_HAL_Driver/Inc/stm32f4xx_ll_dma.h **** }
 907:Drivers/STM32F4xx_HAL_Driver/Inc/stm32f4xx_ll_dma.h **** 
 908:Drivers/STM32F4xx_HAL_Driver/Inc/stm32f4xx_ll_dma.h **** /**
 909:Drivers/STM32F4xx_HAL_Driver/Inc/stm32f4xx_ll_dma.h ****   * @brief Set Stream priority level.
 910:Drivers/STM32F4xx_HAL_Driver/Inc/stm32f4xx_ll_dma.h ****   * @rmtoll CR          PL           LL_DMA_SetStreamPriorityLevel
 911:Drivers/STM32F4xx_HAL_Driver/Inc/stm32f4xx_ll_dma.h ****   * @param  DMAx DMAx Instance
 912:Drivers/STM32F4xx_HAL_Driver/Inc/stm32f4xx_ll_dma.h ****   * @param  Stream This parameter can be one of the following values:
 913:Drivers/STM32F4xx_HAL_Driver/Inc/stm32f4xx_ll_dma.h ****   *         @arg @ref LL_DMA_STREAM_0
 914:Drivers/STM32F4xx_HAL_Driver/Inc/stm32f4xx_ll_dma.h ****   *         @arg @ref LL_DMA_STREAM_1
 915:Drivers/STM32F4xx_HAL_Driver/Inc/stm32f4xx_ll_dma.h ****   *         @arg @ref LL_DMA_STREAM_2
 916:Drivers/STM32F4xx_HAL_Driver/Inc/stm32f4xx_ll_dma.h ****   *         @arg @ref LL_DMA_STREAM_3
 917:Drivers/STM32F4xx_HAL_Driver/Inc/stm32f4xx_ll_dma.h ****   *         @arg @ref LL_DMA_STREAM_4
 918:Drivers/STM32F4xx_HAL_Driver/Inc/stm32f4xx_ll_dma.h ****   *         @arg @ref LL_DMA_STREAM_5
 919:Drivers/STM32F4xx_HAL_Driver/Inc/stm32f4xx_ll_dma.h ****   *         @arg @ref LL_DMA_STREAM_6
 920:Drivers/STM32F4xx_HAL_Driver/Inc/stm32f4xx_ll_dma.h ****   *         @arg @ref LL_DMA_STREAM_7
 921:Drivers/STM32F4xx_HAL_Driver/Inc/stm32f4xx_ll_dma.h ****   * @param  Priority This parameter can be one of the following values:
 922:Drivers/STM32F4xx_HAL_Driver/Inc/stm32f4xx_ll_dma.h ****   *         @arg @ref LL_DMA_PRIORITY_LOW
 923:Drivers/STM32F4xx_HAL_Driver/Inc/stm32f4xx_ll_dma.h ****   *         @arg @ref LL_DMA_PRIORITY_MEDIUM
 924:Drivers/STM32F4xx_HAL_Driver/Inc/stm32f4xx_ll_dma.h ****   *         @arg @ref LL_DMA_PRIORITY_HIGH
 925:Drivers/STM32F4xx_HAL_Driver/Inc/stm32f4xx_ll_dma.h ****   *         @arg @ref LL_DMA_PRIORITY_VERYHIGH
 926:Drivers/STM32F4xx_HAL_Driver/Inc/stm32f4xx_ll_dma.h ****   * @retval None
 927:Drivers/STM32F4xx_HAL_Driver/Inc/stm32f4xx_ll_dma.h ****   */
 928:Drivers/STM32F4xx_HAL_Driver/Inc/stm32f4xx_ll_dma.h **** __STATIC_INLINE void LL_DMA_SetStreamPriorityLevel(DMA_TypeDef *DMAx, uint32_t Stream, uint32_t  Pr
 929:Drivers/STM32F4xx_HAL_Driver/Inc/stm32f4xx_ll_dma.h **** {
 930:Drivers/STM32F4xx_HAL_Driver/Inc/stm32f4xx_ll_dma.h ****   MODIFY_REG(((DMA_Stream_TypeDef*)((uint32_t)((uint32_t)DMAx + STREAM_OFFSET_TAB[Stream])))->CR, D
 931:Drivers/STM32F4xx_HAL_Driver/Inc/stm32f4xx_ll_dma.h **** }
 932:Drivers/STM32F4xx_HAL_Driver/Inc/stm32f4xx_ll_dma.h **** 
 933:Drivers/STM32F4xx_HAL_Driver/Inc/stm32f4xx_ll_dma.h **** /**
 934:Drivers/STM32F4xx_HAL_Driver/Inc/stm32f4xx_ll_dma.h ****   * @brief Get Stream priority level.
 935:Drivers/STM32F4xx_HAL_Driver/Inc/stm32f4xx_ll_dma.h ****   * @rmtoll CR          PL           LL_DMA_GetStreamPriorityLevel
 936:Drivers/STM32F4xx_HAL_Driver/Inc/stm32f4xx_ll_dma.h ****   * @param  DMAx DMAx Instance
 937:Drivers/STM32F4xx_HAL_Driver/Inc/stm32f4xx_ll_dma.h ****   * @param  Stream This parameter can be one of the following values:
 938:Drivers/STM32F4xx_HAL_Driver/Inc/stm32f4xx_ll_dma.h ****   *         @arg @ref LL_DMA_STREAM_0
 939:Drivers/STM32F4xx_HAL_Driver/Inc/stm32f4xx_ll_dma.h ****   *         @arg @ref LL_DMA_STREAM_1
 940:Drivers/STM32F4xx_HAL_Driver/Inc/stm32f4xx_ll_dma.h ****   *         @arg @ref LL_DMA_STREAM_2
 941:Drivers/STM32F4xx_HAL_Driver/Inc/stm32f4xx_ll_dma.h ****   *         @arg @ref LL_DMA_STREAM_3
 942:Drivers/STM32F4xx_HAL_Driver/Inc/stm32f4xx_ll_dma.h ****   *         @arg @ref LL_DMA_STREAM_4
 943:Drivers/STM32F4xx_HAL_Driver/Inc/stm32f4xx_ll_dma.h ****   *         @arg @ref LL_DMA_STREAM_5
 944:Drivers/STM32F4xx_HAL_Driver/Inc/stm32f4xx_ll_dma.h ****   *         @arg @ref LL_DMA_STREAM_6
 945:Drivers/STM32F4xx_HAL_Driver/Inc/stm32f4xx_ll_dma.h ****   *         @arg @ref LL_DMA_STREAM_7
 946:Drivers/STM32F4xx_HAL_Driver/Inc/stm32f4xx_ll_dma.h ****   * @retval Returned value can be one of the following values:
 947:Drivers/STM32F4xx_HAL_Driver/Inc/stm32f4xx_ll_dma.h ****   *         @arg @ref LL_DMA_PRIORITY_LOW
 948:Drivers/STM32F4xx_HAL_Driver/Inc/stm32f4xx_ll_dma.h ****   *         @arg @ref LL_DMA_PRIORITY_MEDIUM
 949:Drivers/STM32F4xx_HAL_Driver/Inc/stm32f4xx_ll_dma.h ****   *         @arg @ref LL_DMA_PRIORITY_HIGH
 950:Drivers/STM32F4xx_HAL_Driver/Inc/stm32f4xx_ll_dma.h ****   *         @arg @ref LL_DMA_PRIORITY_VERYHIGH
 951:Drivers/STM32F4xx_HAL_Driver/Inc/stm32f4xx_ll_dma.h ****   */
 952:Drivers/STM32F4xx_HAL_Driver/Inc/stm32f4xx_ll_dma.h **** __STATIC_INLINE uint32_t LL_DMA_GetStreamPriorityLevel(DMA_TypeDef *DMAx, uint32_t Stream)
 953:Drivers/STM32F4xx_HAL_Driver/Inc/stm32f4xx_ll_dma.h **** {
 954:Drivers/STM32F4xx_HAL_Driver/Inc/stm32f4xx_ll_dma.h ****   return (READ_BIT(((DMA_Stream_TypeDef*)((uint32_t)((uint32_t)DMAx + STREAM_OFFSET_TAB[Stream])))-
 955:Drivers/STM32F4xx_HAL_Driver/Inc/stm32f4xx_ll_dma.h **** }
 956:Drivers/STM32F4xx_HAL_Driver/Inc/stm32f4xx_ll_dma.h **** 
 957:Drivers/STM32F4xx_HAL_Driver/Inc/stm32f4xx_ll_dma.h **** /**
 958:Drivers/STM32F4xx_HAL_Driver/Inc/stm32f4xx_ll_dma.h ****   * @brief Set Number of data to transfer.
 959:Drivers/STM32F4xx_HAL_Driver/Inc/stm32f4xx_ll_dma.h ****   * @rmtoll NDTR          NDT           LL_DMA_SetDataLength
 960:Drivers/STM32F4xx_HAL_Driver/Inc/stm32f4xx_ll_dma.h ****   * @note   This action has no effect if
 961:Drivers/STM32F4xx_HAL_Driver/Inc/stm32f4xx_ll_dma.h ****   *         stream is enabled.
ARM GAS  /tmp/cc58ZD3F.s 			page 29


 962:Drivers/STM32F4xx_HAL_Driver/Inc/stm32f4xx_ll_dma.h ****   * @param  DMAx DMAx Instance
 963:Drivers/STM32F4xx_HAL_Driver/Inc/stm32f4xx_ll_dma.h ****   * @param  Stream This parameter can be one of the following values:
 964:Drivers/STM32F4xx_HAL_Driver/Inc/stm32f4xx_ll_dma.h ****   *         @arg @ref LL_DMA_STREAM_0
 965:Drivers/STM32F4xx_HAL_Driver/Inc/stm32f4xx_ll_dma.h ****   *         @arg @ref LL_DMA_STREAM_1
 966:Drivers/STM32F4xx_HAL_Driver/Inc/stm32f4xx_ll_dma.h ****   *         @arg @ref LL_DMA_STREAM_2
 967:Drivers/STM32F4xx_HAL_Driver/Inc/stm32f4xx_ll_dma.h ****   *         @arg @ref LL_DMA_STREAM_3
 968:Drivers/STM32F4xx_HAL_Driver/Inc/stm32f4xx_ll_dma.h ****   *         @arg @ref LL_DMA_STREAM_4
 969:Drivers/STM32F4xx_HAL_Driver/Inc/stm32f4xx_ll_dma.h ****   *         @arg @ref LL_DMA_STREAM_5
 970:Drivers/STM32F4xx_HAL_Driver/Inc/stm32f4xx_ll_dma.h ****   *         @arg @ref LL_DMA_STREAM_6
 971:Drivers/STM32F4xx_HAL_Driver/Inc/stm32f4xx_ll_dma.h ****   *         @arg @ref LL_DMA_STREAM_7
 972:Drivers/STM32F4xx_HAL_Driver/Inc/stm32f4xx_ll_dma.h ****   * @param  NbData Between 0 to 0xFFFFFFFF
 973:Drivers/STM32F4xx_HAL_Driver/Inc/stm32f4xx_ll_dma.h ****   * @retval None
 974:Drivers/STM32F4xx_HAL_Driver/Inc/stm32f4xx_ll_dma.h ****   */
 975:Drivers/STM32F4xx_HAL_Driver/Inc/stm32f4xx_ll_dma.h **** __STATIC_INLINE void LL_DMA_SetDataLength(DMA_TypeDef* DMAx, uint32_t Stream, uint32_t NbData)
 976:Drivers/STM32F4xx_HAL_Driver/Inc/stm32f4xx_ll_dma.h **** {
 977:Drivers/STM32F4xx_HAL_Driver/Inc/stm32f4xx_ll_dma.h ****   MODIFY_REG(((DMA_Stream_TypeDef*)((uint32_t)((uint32_t)DMAx + STREAM_OFFSET_TAB[Stream])))->NDTR,
 978:Drivers/STM32F4xx_HAL_Driver/Inc/stm32f4xx_ll_dma.h **** }
 979:Drivers/STM32F4xx_HAL_Driver/Inc/stm32f4xx_ll_dma.h **** 
 980:Drivers/STM32F4xx_HAL_Driver/Inc/stm32f4xx_ll_dma.h **** /**
 981:Drivers/STM32F4xx_HAL_Driver/Inc/stm32f4xx_ll_dma.h ****   * @brief Get Number of data to transfer.
 982:Drivers/STM32F4xx_HAL_Driver/Inc/stm32f4xx_ll_dma.h ****   * @rmtoll NDTR          NDT           LL_DMA_GetDataLength
 983:Drivers/STM32F4xx_HAL_Driver/Inc/stm32f4xx_ll_dma.h ****   * @note   Once the stream is enabled, the return value indicate the
 984:Drivers/STM32F4xx_HAL_Driver/Inc/stm32f4xx_ll_dma.h ****   *         remaining bytes to be transmitted.
 985:Drivers/STM32F4xx_HAL_Driver/Inc/stm32f4xx_ll_dma.h ****   * @param  DMAx DMAx Instance
 986:Drivers/STM32F4xx_HAL_Driver/Inc/stm32f4xx_ll_dma.h ****   * @param  Stream This parameter can be one of the following values:
 987:Drivers/STM32F4xx_HAL_Driver/Inc/stm32f4xx_ll_dma.h ****   *         @arg @ref LL_DMA_STREAM_0
 988:Drivers/STM32F4xx_HAL_Driver/Inc/stm32f4xx_ll_dma.h ****   *         @arg @ref LL_DMA_STREAM_1
 989:Drivers/STM32F4xx_HAL_Driver/Inc/stm32f4xx_ll_dma.h ****   *         @arg @ref LL_DMA_STREAM_2
 990:Drivers/STM32F4xx_HAL_Driver/Inc/stm32f4xx_ll_dma.h ****   *         @arg @ref LL_DMA_STREAM_3
 991:Drivers/STM32F4xx_HAL_Driver/Inc/stm32f4xx_ll_dma.h ****   *         @arg @ref LL_DMA_STREAM_4
 992:Drivers/STM32F4xx_HAL_Driver/Inc/stm32f4xx_ll_dma.h ****   *         @arg @ref LL_DMA_STREAM_5
 993:Drivers/STM32F4xx_HAL_Driver/Inc/stm32f4xx_ll_dma.h ****   *         @arg @ref LL_DMA_STREAM_6
 994:Drivers/STM32F4xx_HAL_Driver/Inc/stm32f4xx_ll_dma.h ****   *         @arg @ref LL_DMA_STREAM_7
 995:Drivers/STM32F4xx_HAL_Driver/Inc/stm32f4xx_ll_dma.h ****   * @retval Between 0 to 0xFFFFFFFF
 996:Drivers/STM32F4xx_HAL_Driver/Inc/stm32f4xx_ll_dma.h ****   */
 997:Drivers/STM32F4xx_HAL_Driver/Inc/stm32f4xx_ll_dma.h **** __STATIC_INLINE uint32_t LL_DMA_GetDataLength(DMA_TypeDef* DMAx, uint32_t Stream)
 998:Drivers/STM32F4xx_HAL_Driver/Inc/stm32f4xx_ll_dma.h **** {
 999:Drivers/STM32F4xx_HAL_Driver/Inc/stm32f4xx_ll_dma.h ****   return (READ_BIT(((DMA_Stream_TypeDef*)((uint32_t)((uint32_t)DMAx + STREAM_OFFSET_TAB[Stream])))-
1000:Drivers/STM32F4xx_HAL_Driver/Inc/stm32f4xx_ll_dma.h **** }
1001:Drivers/STM32F4xx_HAL_Driver/Inc/stm32f4xx_ll_dma.h **** 
1002:Drivers/STM32F4xx_HAL_Driver/Inc/stm32f4xx_ll_dma.h **** /**
1003:Drivers/STM32F4xx_HAL_Driver/Inc/stm32f4xx_ll_dma.h ****   * @brief Select Channel number associated to the Stream.
1004:Drivers/STM32F4xx_HAL_Driver/Inc/stm32f4xx_ll_dma.h ****   * @rmtoll CR          CHSEL           LL_DMA_SetChannelSelection
1005:Drivers/STM32F4xx_HAL_Driver/Inc/stm32f4xx_ll_dma.h ****   * @param  DMAx DMAx Instance
1006:Drivers/STM32F4xx_HAL_Driver/Inc/stm32f4xx_ll_dma.h ****   * @param  Stream This parameter can be one of the following values:
1007:Drivers/STM32F4xx_HAL_Driver/Inc/stm32f4xx_ll_dma.h ****   *         @arg @ref LL_DMA_STREAM_0
1008:Drivers/STM32F4xx_HAL_Driver/Inc/stm32f4xx_ll_dma.h ****   *         @arg @ref LL_DMA_STREAM_1
1009:Drivers/STM32F4xx_HAL_Driver/Inc/stm32f4xx_ll_dma.h ****   *         @arg @ref LL_DMA_STREAM_2
1010:Drivers/STM32F4xx_HAL_Driver/Inc/stm32f4xx_ll_dma.h ****   *         @arg @ref LL_DMA_STREAM_3
1011:Drivers/STM32F4xx_HAL_Driver/Inc/stm32f4xx_ll_dma.h ****   *         @arg @ref LL_DMA_STREAM_4
1012:Drivers/STM32F4xx_HAL_Driver/Inc/stm32f4xx_ll_dma.h ****   *         @arg @ref LL_DMA_STREAM_5
1013:Drivers/STM32F4xx_HAL_Driver/Inc/stm32f4xx_ll_dma.h ****   *         @arg @ref LL_DMA_STREAM_6
1014:Drivers/STM32F4xx_HAL_Driver/Inc/stm32f4xx_ll_dma.h ****   *         @arg @ref LL_DMA_STREAM_7
1015:Drivers/STM32F4xx_HAL_Driver/Inc/stm32f4xx_ll_dma.h ****   * @param  Channel This parameter can be one of the following values:
1016:Drivers/STM32F4xx_HAL_Driver/Inc/stm32f4xx_ll_dma.h ****   *         @arg @ref LL_DMA_CHANNEL_0
1017:Drivers/STM32F4xx_HAL_Driver/Inc/stm32f4xx_ll_dma.h ****   *         @arg @ref LL_DMA_CHANNEL_1
1018:Drivers/STM32F4xx_HAL_Driver/Inc/stm32f4xx_ll_dma.h ****   *         @arg @ref LL_DMA_CHANNEL_2
ARM GAS  /tmp/cc58ZD3F.s 			page 30


1019:Drivers/STM32F4xx_HAL_Driver/Inc/stm32f4xx_ll_dma.h ****   *         @arg @ref LL_DMA_CHANNEL_3
1020:Drivers/STM32F4xx_HAL_Driver/Inc/stm32f4xx_ll_dma.h ****   *         @arg @ref LL_DMA_CHANNEL_4
1021:Drivers/STM32F4xx_HAL_Driver/Inc/stm32f4xx_ll_dma.h ****   *         @arg @ref LL_DMA_CHANNEL_5
1022:Drivers/STM32F4xx_HAL_Driver/Inc/stm32f4xx_ll_dma.h ****   *         @arg @ref LL_DMA_CHANNEL_6
1023:Drivers/STM32F4xx_HAL_Driver/Inc/stm32f4xx_ll_dma.h ****   *         @arg @ref LL_DMA_CHANNEL_7
1024:Drivers/STM32F4xx_HAL_Driver/Inc/stm32f4xx_ll_dma.h ****   * @retval None
1025:Drivers/STM32F4xx_HAL_Driver/Inc/stm32f4xx_ll_dma.h ****   */
1026:Drivers/STM32F4xx_HAL_Driver/Inc/stm32f4xx_ll_dma.h **** __STATIC_INLINE void LL_DMA_SetChannelSelection(DMA_TypeDef *DMAx, uint32_t Stream, uint32_t Channe
1027:Drivers/STM32F4xx_HAL_Driver/Inc/stm32f4xx_ll_dma.h **** {
1028:Drivers/STM32F4xx_HAL_Driver/Inc/stm32f4xx_ll_dma.h ****   MODIFY_REG(((DMA_Stream_TypeDef*)((uint32_t)((uint32_t)DMAx + STREAM_OFFSET_TAB[Stream])))->CR, D
1029:Drivers/STM32F4xx_HAL_Driver/Inc/stm32f4xx_ll_dma.h **** }
1030:Drivers/STM32F4xx_HAL_Driver/Inc/stm32f4xx_ll_dma.h **** 
1031:Drivers/STM32F4xx_HAL_Driver/Inc/stm32f4xx_ll_dma.h **** /**
1032:Drivers/STM32F4xx_HAL_Driver/Inc/stm32f4xx_ll_dma.h ****   * @brief Get the Channel number associated to the Stream.
1033:Drivers/STM32F4xx_HAL_Driver/Inc/stm32f4xx_ll_dma.h ****   * @rmtoll CR          CHSEL           LL_DMA_GetChannelSelection
1034:Drivers/STM32F4xx_HAL_Driver/Inc/stm32f4xx_ll_dma.h ****   * @param  DMAx DMAx Instance
1035:Drivers/STM32F4xx_HAL_Driver/Inc/stm32f4xx_ll_dma.h ****   * @param  Stream This parameter can be one of the following values:
1036:Drivers/STM32F4xx_HAL_Driver/Inc/stm32f4xx_ll_dma.h ****   *         @arg @ref LL_DMA_STREAM_0
1037:Drivers/STM32F4xx_HAL_Driver/Inc/stm32f4xx_ll_dma.h ****   *         @arg @ref LL_DMA_STREAM_1
1038:Drivers/STM32F4xx_HAL_Driver/Inc/stm32f4xx_ll_dma.h ****   *         @arg @ref LL_DMA_STREAM_2
1039:Drivers/STM32F4xx_HAL_Driver/Inc/stm32f4xx_ll_dma.h ****   *         @arg @ref LL_DMA_STREAM_3
1040:Drivers/STM32F4xx_HAL_Driver/Inc/stm32f4xx_ll_dma.h ****   *         @arg @ref LL_DMA_STREAM_4
1041:Drivers/STM32F4xx_HAL_Driver/Inc/stm32f4xx_ll_dma.h ****   *         @arg @ref LL_DMA_STREAM_5
1042:Drivers/STM32F4xx_HAL_Driver/Inc/stm32f4xx_ll_dma.h ****   *         @arg @ref LL_DMA_STREAM_6
1043:Drivers/STM32F4xx_HAL_Driver/Inc/stm32f4xx_ll_dma.h ****   *         @arg @ref LL_DMA_STREAM_7
1044:Drivers/STM32F4xx_HAL_Driver/Inc/stm32f4xx_ll_dma.h ****   * @retval Returned value can be one of the following values:
1045:Drivers/STM32F4xx_HAL_Driver/Inc/stm32f4xx_ll_dma.h ****   *         @arg @ref LL_DMA_CHANNEL_0
1046:Drivers/STM32F4xx_HAL_Driver/Inc/stm32f4xx_ll_dma.h ****   *         @arg @ref LL_DMA_CHANNEL_1
1047:Drivers/STM32F4xx_HAL_Driver/Inc/stm32f4xx_ll_dma.h ****   *         @arg @ref LL_DMA_CHANNEL_2
1048:Drivers/STM32F4xx_HAL_Driver/Inc/stm32f4xx_ll_dma.h ****   *         @arg @ref LL_DMA_CHANNEL_3
1049:Drivers/STM32F4xx_HAL_Driver/Inc/stm32f4xx_ll_dma.h ****   *         @arg @ref LL_DMA_CHANNEL_4
1050:Drivers/STM32F4xx_HAL_Driver/Inc/stm32f4xx_ll_dma.h ****   *         @arg @ref LL_DMA_CHANNEL_5
1051:Drivers/STM32F4xx_HAL_Driver/Inc/stm32f4xx_ll_dma.h ****   *         @arg @ref LL_DMA_CHANNEL_6
1052:Drivers/STM32F4xx_HAL_Driver/Inc/stm32f4xx_ll_dma.h ****   *         @arg @ref LL_DMA_CHANNEL_7
1053:Drivers/STM32F4xx_HAL_Driver/Inc/stm32f4xx_ll_dma.h ****   */
1054:Drivers/STM32F4xx_HAL_Driver/Inc/stm32f4xx_ll_dma.h **** __STATIC_INLINE uint32_t LL_DMA_GetChannelSelection(DMA_TypeDef *DMAx, uint32_t Stream)
1055:Drivers/STM32F4xx_HAL_Driver/Inc/stm32f4xx_ll_dma.h **** {
1056:Drivers/STM32F4xx_HAL_Driver/Inc/stm32f4xx_ll_dma.h ****   return (READ_BIT(((DMA_Stream_TypeDef*)((uint32_t)((uint32_t)DMAx + STREAM_OFFSET_TAB[Stream])))-
1057:Drivers/STM32F4xx_HAL_Driver/Inc/stm32f4xx_ll_dma.h **** }
1058:Drivers/STM32F4xx_HAL_Driver/Inc/stm32f4xx_ll_dma.h **** 
1059:Drivers/STM32F4xx_HAL_Driver/Inc/stm32f4xx_ll_dma.h **** /**
1060:Drivers/STM32F4xx_HAL_Driver/Inc/stm32f4xx_ll_dma.h ****   * @brief Set Memory burst transfer configuration.
1061:Drivers/STM32F4xx_HAL_Driver/Inc/stm32f4xx_ll_dma.h ****   * @rmtoll CR          MBURST           LL_DMA_SetMemoryBurstxfer
1062:Drivers/STM32F4xx_HAL_Driver/Inc/stm32f4xx_ll_dma.h ****   * @param  DMAx DMAx Instance
1063:Drivers/STM32F4xx_HAL_Driver/Inc/stm32f4xx_ll_dma.h ****   * @param  Stream This parameter can be one of the following values:
1064:Drivers/STM32F4xx_HAL_Driver/Inc/stm32f4xx_ll_dma.h ****   *         @arg @ref LL_DMA_STREAM_0
1065:Drivers/STM32F4xx_HAL_Driver/Inc/stm32f4xx_ll_dma.h ****   *         @arg @ref LL_DMA_STREAM_1
1066:Drivers/STM32F4xx_HAL_Driver/Inc/stm32f4xx_ll_dma.h ****   *         @arg @ref LL_DMA_STREAM_2
1067:Drivers/STM32F4xx_HAL_Driver/Inc/stm32f4xx_ll_dma.h ****   *         @arg @ref LL_DMA_STREAM_3
1068:Drivers/STM32F4xx_HAL_Driver/Inc/stm32f4xx_ll_dma.h ****   *         @arg @ref LL_DMA_STREAM_4
1069:Drivers/STM32F4xx_HAL_Driver/Inc/stm32f4xx_ll_dma.h ****   *         @arg @ref LL_DMA_STREAM_5
1070:Drivers/STM32F4xx_HAL_Driver/Inc/stm32f4xx_ll_dma.h ****   *         @arg @ref LL_DMA_STREAM_6
1071:Drivers/STM32F4xx_HAL_Driver/Inc/stm32f4xx_ll_dma.h ****   *         @arg @ref LL_DMA_STREAM_7
1072:Drivers/STM32F4xx_HAL_Driver/Inc/stm32f4xx_ll_dma.h ****   * @param  Mburst This parameter can be one of the following values:
1073:Drivers/STM32F4xx_HAL_Driver/Inc/stm32f4xx_ll_dma.h ****   *         @arg @ref LL_DMA_MBURST_SINGLE
1074:Drivers/STM32F4xx_HAL_Driver/Inc/stm32f4xx_ll_dma.h ****   *         @arg @ref LL_DMA_MBURST_INC4
1075:Drivers/STM32F4xx_HAL_Driver/Inc/stm32f4xx_ll_dma.h ****   *         @arg @ref LL_DMA_MBURST_INC8
ARM GAS  /tmp/cc58ZD3F.s 			page 31


1076:Drivers/STM32F4xx_HAL_Driver/Inc/stm32f4xx_ll_dma.h ****   *         @arg @ref LL_DMA_MBURST_INC16
1077:Drivers/STM32F4xx_HAL_Driver/Inc/stm32f4xx_ll_dma.h ****   * @retval None
1078:Drivers/STM32F4xx_HAL_Driver/Inc/stm32f4xx_ll_dma.h ****   */
1079:Drivers/STM32F4xx_HAL_Driver/Inc/stm32f4xx_ll_dma.h **** __STATIC_INLINE void LL_DMA_SetMemoryBurstxfer(DMA_TypeDef *DMAx, uint32_t Stream, uint32_t Mburst)
1080:Drivers/STM32F4xx_HAL_Driver/Inc/stm32f4xx_ll_dma.h **** {
1081:Drivers/STM32F4xx_HAL_Driver/Inc/stm32f4xx_ll_dma.h ****   MODIFY_REG(((DMA_Stream_TypeDef*)((uint32_t)((uint32_t)DMAx + STREAM_OFFSET_TAB[Stream])))->CR, D
1082:Drivers/STM32F4xx_HAL_Driver/Inc/stm32f4xx_ll_dma.h **** }
1083:Drivers/STM32F4xx_HAL_Driver/Inc/stm32f4xx_ll_dma.h **** 
1084:Drivers/STM32F4xx_HAL_Driver/Inc/stm32f4xx_ll_dma.h **** /**
1085:Drivers/STM32F4xx_HAL_Driver/Inc/stm32f4xx_ll_dma.h ****   * @brief Get Memory burst transfer configuration.
1086:Drivers/STM32F4xx_HAL_Driver/Inc/stm32f4xx_ll_dma.h ****   * @rmtoll CR          MBURST           LL_DMA_GetMemoryBurstxfer
1087:Drivers/STM32F4xx_HAL_Driver/Inc/stm32f4xx_ll_dma.h ****   * @param  DMAx DMAx Instance
1088:Drivers/STM32F4xx_HAL_Driver/Inc/stm32f4xx_ll_dma.h ****   * @param  Stream This parameter can be one of the following values:
1089:Drivers/STM32F4xx_HAL_Driver/Inc/stm32f4xx_ll_dma.h ****   *         @arg @ref LL_DMA_STREAM_0
1090:Drivers/STM32F4xx_HAL_Driver/Inc/stm32f4xx_ll_dma.h ****   *         @arg @ref LL_DMA_STREAM_1
1091:Drivers/STM32F4xx_HAL_Driver/Inc/stm32f4xx_ll_dma.h ****   *         @arg @ref LL_DMA_STREAM_2
1092:Drivers/STM32F4xx_HAL_Driver/Inc/stm32f4xx_ll_dma.h ****   *         @arg @ref LL_DMA_STREAM_3
1093:Drivers/STM32F4xx_HAL_Driver/Inc/stm32f4xx_ll_dma.h ****   *         @arg @ref LL_DMA_STREAM_4
1094:Drivers/STM32F4xx_HAL_Driver/Inc/stm32f4xx_ll_dma.h ****   *         @arg @ref LL_DMA_STREAM_5
1095:Drivers/STM32F4xx_HAL_Driver/Inc/stm32f4xx_ll_dma.h ****   *         @arg @ref LL_DMA_STREAM_6
1096:Drivers/STM32F4xx_HAL_Driver/Inc/stm32f4xx_ll_dma.h ****   *         @arg @ref LL_DMA_STREAM_7
1097:Drivers/STM32F4xx_HAL_Driver/Inc/stm32f4xx_ll_dma.h ****   * @retval Returned value can be one of the following values:
1098:Drivers/STM32F4xx_HAL_Driver/Inc/stm32f4xx_ll_dma.h ****   *         @arg @ref LL_DMA_MBURST_SINGLE
1099:Drivers/STM32F4xx_HAL_Driver/Inc/stm32f4xx_ll_dma.h ****   *         @arg @ref LL_DMA_MBURST_INC4
1100:Drivers/STM32F4xx_HAL_Driver/Inc/stm32f4xx_ll_dma.h ****   *         @arg @ref LL_DMA_MBURST_INC8
1101:Drivers/STM32F4xx_HAL_Driver/Inc/stm32f4xx_ll_dma.h ****   *         @arg @ref LL_DMA_MBURST_INC16
1102:Drivers/STM32F4xx_HAL_Driver/Inc/stm32f4xx_ll_dma.h ****   */
1103:Drivers/STM32F4xx_HAL_Driver/Inc/stm32f4xx_ll_dma.h **** __STATIC_INLINE uint32_t LL_DMA_GetMemoryBurstxfer(DMA_TypeDef *DMAx, uint32_t Stream)
1104:Drivers/STM32F4xx_HAL_Driver/Inc/stm32f4xx_ll_dma.h **** {
1105:Drivers/STM32F4xx_HAL_Driver/Inc/stm32f4xx_ll_dma.h ****   return (READ_BIT(((DMA_Stream_TypeDef*)((uint32_t)((uint32_t)DMAx + STREAM_OFFSET_TAB[Stream])))-
1106:Drivers/STM32F4xx_HAL_Driver/Inc/stm32f4xx_ll_dma.h **** }
1107:Drivers/STM32F4xx_HAL_Driver/Inc/stm32f4xx_ll_dma.h **** 
1108:Drivers/STM32F4xx_HAL_Driver/Inc/stm32f4xx_ll_dma.h **** /**
1109:Drivers/STM32F4xx_HAL_Driver/Inc/stm32f4xx_ll_dma.h ****   * @brief Set  Peripheral burst transfer configuration.
1110:Drivers/STM32F4xx_HAL_Driver/Inc/stm32f4xx_ll_dma.h ****   * @rmtoll CR          PBURST           LL_DMA_SetPeriphBurstxfer
1111:Drivers/STM32F4xx_HAL_Driver/Inc/stm32f4xx_ll_dma.h ****   * @param  DMAx DMAx Instance
1112:Drivers/STM32F4xx_HAL_Driver/Inc/stm32f4xx_ll_dma.h ****   * @param  Stream This parameter can be one of the following values:
1113:Drivers/STM32F4xx_HAL_Driver/Inc/stm32f4xx_ll_dma.h ****   *         @arg @ref LL_DMA_STREAM_0
1114:Drivers/STM32F4xx_HAL_Driver/Inc/stm32f4xx_ll_dma.h ****   *         @arg @ref LL_DMA_STREAM_1
1115:Drivers/STM32F4xx_HAL_Driver/Inc/stm32f4xx_ll_dma.h ****   *         @arg @ref LL_DMA_STREAM_2
1116:Drivers/STM32F4xx_HAL_Driver/Inc/stm32f4xx_ll_dma.h ****   *         @arg @ref LL_DMA_STREAM_3
1117:Drivers/STM32F4xx_HAL_Driver/Inc/stm32f4xx_ll_dma.h ****   *         @arg @ref LL_DMA_STREAM_4
1118:Drivers/STM32F4xx_HAL_Driver/Inc/stm32f4xx_ll_dma.h ****   *         @arg @ref LL_DMA_STREAM_5
1119:Drivers/STM32F4xx_HAL_Driver/Inc/stm32f4xx_ll_dma.h ****   *         @arg @ref LL_DMA_STREAM_6
1120:Drivers/STM32F4xx_HAL_Driver/Inc/stm32f4xx_ll_dma.h ****   *         @arg @ref LL_DMA_STREAM_7
1121:Drivers/STM32F4xx_HAL_Driver/Inc/stm32f4xx_ll_dma.h ****   * @param  Pburst This parameter can be one of the following values:
1122:Drivers/STM32F4xx_HAL_Driver/Inc/stm32f4xx_ll_dma.h ****   *         @arg @ref LL_DMA_PBURST_SINGLE
1123:Drivers/STM32F4xx_HAL_Driver/Inc/stm32f4xx_ll_dma.h ****   *         @arg @ref LL_DMA_PBURST_INC4
1124:Drivers/STM32F4xx_HAL_Driver/Inc/stm32f4xx_ll_dma.h ****   *         @arg @ref LL_DMA_PBURST_INC8
1125:Drivers/STM32F4xx_HAL_Driver/Inc/stm32f4xx_ll_dma.h ****   *         @arg @ref LL_DMA_PBURST_INC16
1126:Drivers/STM32F4xx_HAL_Driver/Inc/stm32f4xx_ll_dma.h ****   * @retval None
1127:Drivers/STM32F4xx_HAL_Driver/Inc/stm32f4xx_ll_dma.h ****   */
1128:Drivers/STM32F4xx_HAL_Driver/Inc/stm32f4xx_ll_dma.h **** __STATIC_INLINE void LL_DMA_SetPeriphBurstxfer(DMA_TypeDef *DMAx, uint32_t Stream, uint32_t Pburst)
1129:Drivers/STM32F4xx_HAL_Driver/Inc/stm32f4xx_ll_dma.h **** {
1130:Drivers/STM32F4xx_HAL_Driver/Inc/stm32f4xx_ll_dma.h ****   MODIFY_REG(((DMA_Stream_TypeDef*)((uint32_t)((uint32_t)DMAx + STREAM_OFFSET_TAB[Stream])))->CR, D
1131:Drivers/STM32F4xx_HAL_Driver/Inc/stm32f4xx_ll_dma.h **** }
1132:Drivers/STM32F4xx_HAL_Driver/Inc/stm32f4xx_ll_dma.h **** 
ARM GAS  /tmp/cc58ZD3F.s 			page 32


1133:Drivers/STM32F4xx_HAL_Driver/Inc/stm32f4xx_ll_dma.h **** /**
1134:Drivers/STM32F4xx_HAL_Driver/Inc/stm32f4xx_ll_dma.h ****   * @brief Get Peripheral burst transfer configuration.
1135:Drivers/STM32F4xx_HAL_Driver/Inc/stm32f4xx_ll_dma.h ****   * @rmtoll CR          PBURST           LL_DMA_GetPeriphBurstxfer
1136:Drivers/STM32F4xx_HAL_Driver/Inc/stm32f4xx_ll_dma.h ****   * @param  DMAx DMAx Instance
1137:Drivers/STM32F4xx_HAL_Driver/Inc/stm32f4xx_ll_dma.h ****   * @param  Stream This parameter can be one of the following values:
1138:Drivers/STM32F4xx_HAL_Driver/Inc/stm32f4xx_ll_dma.h ****   *         @arg @ref LL_DMA_STREAM_0
1139:Drivers/STM32F4xx_HAL_Driver/Inc/stm32f4xx_ll_dma.h ****   *         @arg @ref LL_DMA_STREAM_1
1140:Drivers/STM32F4xx_HAL_Driver/Inc/stm32f4xx_ll_dma.h ****   *         @arg @ref LL_DMA_STREAM_2
1141:Drivers/STM32F4xx_HAL_Driver/Inc/stm32f4xx_ll_dma.h ****   *         @arg @ref LL_DMA_STREAM_3
1142:Drivers/STM32F4xx_HAL_Driver/Inc/stm32f4xx_ll_dma.h ****   *         @arg @ref LL_DMA_STREAM_4
1143:Drivers/STM32F4xx_HAL_Driver/Inc/stm32f4xx_ll_dma.h ****   *         @arg @ref LL_DMA_STREAM_5
1144:Drivers/STM32F4xx_HAL_Driver/Inc/stm32f4xx_ll_dma.h ****   *         @arg @ref LL_DMA_STREAM_6
1145:Drivers/STM32F4xx_HAL_Driver/Inc/stm32f4xx_ll_dma.h ****   *         @arg @ref LL_DMA_STREAM_7
1146:Drivers/STM32F4xx_HAL_Driver/Inc/stm32f4xx_ll_dma.h ****   * @retval Returned value can be one of the following values:
1147:Drivers/STM32F4xx_HAL_Driver/Inc/stm32f4xx_ll_dma.h ****   *         @arg @ref LL_DMA_PBURST_SINGLE
1148:Drivers/STM32F4xx_HAL_Driver/Inc/stm32f4xx_ll_dma.h ****   *         @arg @ref LL_DMA_PBURST_INC4
1149:Drivers/STM32F4xx_HAL_Driver/Inc/stm32f4xx_ll_dma.h ****   *         @arg @ref LL_DMA_PBURST_INC8
1150:Drivers/STM32F4xx_HAL_Driver/Inc/stm32f4xx_ll_dma.h ****   *         @arg @ref LL_DMA_PBURST_INC16
1151:Drivers/STM32F4xx_HAL_Driver/Inc/stm32f4xx_ll_dma.h ****   */
1152:Drivers/STM32F4xx_HAL_Driver/Inc/stm32f4xx_ll_dma.h **** __STATIC_INLINE uint32_t LL_DMA_GetPeriphBurstxfer(DMA_TypeDef *DMAx, uint32_t Stream)
1153:Drivers/STM32F4xx_HAL_Driver/Inc/stm32f4xx_ll_dma.h **** {
1154:Drivers/STM32F4xx_HAL_Driver/Inc/stm32f4xx_ll_dma.h ****   return (READ_BIT(((DMA_Stream_TypeDef*)((uint32_t)((uint32_t)DMAx + STREAM_OFFSET_TAB[Stream])))-
1155:Drivers/STM32F4xx_HAL_Driver/Inc/stm32f4xx_ll_dma.h **** }
1156:Drivers/STM32F4xx_HAL_Driver/Inc/stm32f4xx_ll_dma.h **** 
1157:Drivers/STM32F4xx_HAL_Driver/Inc/stm32f4xx_ll_dma.h **** /**
1158:Drivers/STM32F4xx_HAL_Driver/Inc/stm32f4xx_ll_dma.h ****   * @brief Set Current target (only in double buffer mode) to Memory 1 or Memory 0.
1159:Drivers/STM32F4xx_HAL_Driver/Inc/stm32f4xx_ll_dma.h ****   * @rmtoll CR          CT           LL_DMA_SetCurrentTargetMem 
1160:Drivers/STM32F4xx_HAL_Driver/Inc/stm32f4xx_ll_dma.h ****   * @param  DMAx DMAx Instance
1161:Drivers/STM32F4xx_HAL_Driver/Inc/stm32f4xx_ll_dma.h ****   * @param  Stream This parameter can be one of the following values:
1162:Drivers/STM32F4xx_HAL_Driver/Inc/stm32f4xx_ll_dma.h ****   *         @arg @ref LL_DMA_STREAM_0
1163:Drivers/STM32F4xx_HAL_Driver/Inc/stm32f4xx_ll_dma.h ****   *         @arg @ref LL_DMA_STREAM_1
1164:Drivers/STM32F4xx_HAL_Driver/Inc/stm32f4xx_ll_dma.h ****   *         @arg @ref LL_DMA_STREAM_2
1165:Drivers/STM32F4xx_HAL_Driver/Inc/stm32f4xx_ll_dma.h ****   *         @arg @ref LL_DMA_STREAM_3
1166:Drivers/STM32F4xx_HAL_Driver/Inc/stm32f4xx_ll_dma.h ****   *         @arg @ref LL_DMA_STREAM_4
1167:Drivers/STM32F4xx_HAL_Driver/Inc/stm32f4xx_ll_dma.h ****   *         @arg @ref LL_DMA_STREAM_5
1168:Drivers/STM32F4xx_HAL_Driver/Inc/stm32f4xx_ll_dma.h ****   *         @arg @ref LL_DMA_STREAM_6
1169:Drivers/STM32F4xx_HAL_Driver/Inc/stm32f4xx_ll_dma.h ****   *         @arg @ref LL_DMA_STREAM_7
1170:Drivers/STM32F4xx_HAL_Driver/Inc/stm32f4xx_ll_dma.h ****   * @param CurrentMemory This parameter can be one of the following values:
1171:Drivers/STM32F4xx_HAL_Driver/Inc/stm32f4xx_ll_dma.h ****   *         @arg @ref LL_DMA_CURRENTTARGETMEM0
1172:Drivers/STM32F4xx_HAL_Driver/Inc/stm32f4xx_ll_dma.h ****   *         @arg @ref LL_DMA_CURRENTTARGETMEM1
1173:Drivers/STM32F4xx_HAL_Driver/Inc/stm32f4xx_ll_dma.h ****   * @retval None
1174:Drivers/STM32F4xx_HAL_Driver/Inc/stm32f4xx_ll_dma.h ****   */
1175:Drivers/STM32F4xx_HAL_Driver/Inc/stm32f4xx_ll_dma.h **** __STATIC_INLINE void LL_DMA_SetCurrentTargetMem(DMA_TypeDef *DMAx, uint32_t Stream, uint32_t Curren
1176:Drivers/STM32F4xx_HAL_Driver/Inc/stm32f4xx_ll_dma.h **** {
1177:Drivers/STM32F4xx_HAL_Driver/Inc/stm32f4xx_ll_dma.h ****    MODIFY_REG(((DMA_Stream_TypeDef*)((uint32_t)((uint32_t)DMAx + STREAM_OFFSET_TAB[Stream])))->CR, 
1178:Drivers/STM32F4xx_HAL_Driver/Inc/stm32f4xx_ll_dma.h **** }
1179:Drivers/STM32F4xx_HAL_Driver/Inc/stm32f4xx_ll_dma.h **** 
1180:Drivers/STM32F4xx_HAL_Driver/Inc/stm32f4xx_ll_dma.h **** /**
1181:Drivers/STM32F4xx_HAL_Driver/Inc/stm32f4xx_ll_dma.h ****   * @brief Set Current target (only in double buffer mode) to Memory 1 or Memory 0.
1182:Drivers/STM32F4xx_HAL_Driver/Inc/stm32f4xx_ll_dma.h ****   * @rmtoll CR          CT           LL_DMA_GetCurrentTargetMem 
1183:Drivers/STM32F4xx_HAL_Driver/Inc/stm32f4xx_ll_dma.h ****   * @param  DMAx DMAx Instance
1184:Drivers/STM32F4xx_HAL_Driver/Inc/stm32f4xx_ll_dma.h ****   * @param  Stream This parameter can be one of the following values:
1185:Drivers/STM32F4xx_HAL_Driver/Inc/stm32f4xx_ll_dma.h ****   *         @arg @ref LL_DMA_STREAM_0
1186:Drivers/STM32F4xx_HAL_Driver/Inc/stm32f4xx_ll_dma.h ****   *         @arg @ref LL_DMA_STREAM_1
1187:Drivers/STM32F4xx_HAL_Driver/Inc/stm32f4xx_ll_dma.h ****   *         @arg @ref LL_DMA_STREAM_2
1188:Drivers/STM32F4xx_HAL_Driver/Inc/stm32f4xx_ll_dma.h ****   *         @arg @ref LL_DMA_STREAM_3
1189:Drivers/STM32F4xx_HAL_Driver/Inc/stm32f4xx_ll_dma.h ****   *         @arg @ref LL_DMA_STREAM_4
ARM GAS  /tmp/cc58ZD3F.s 			page 33


1190:Drivers/STM32F4xx_HAL_Driver/Inc/stm32f4xx_ll_dma.h ****   *         @arg @ref LL_DMA_STREAM_5
1191:Drivers/STM32F4xx_HAL_Driver/Inc/stm32f4xx_ll_dma.h ****   *         @arg @ref LL_DMA_STREAM_6
1192:Drivers/STM32F4xx_HAL_Driver/Inc/stm32f4xx_ll_dma.h ****   *         @arg @ref LL_DMA_STREAM_7
1193:Drivers/STM32F4xx_HAL_Driver/Inc/stm32f4xx_ll_dma.h ****   * @retval Returned value can be one of the following values:
1194:Drivers/STM32F4xx_HAL_Driver/Inc/stm32f4xx_ll_dma.h ****   *         @arg @ref LL_DMA_CURRENTTARGETMEM0
1195:Drivers/STM32F4xx_HAL_Driver/Inc/stm32f4xx_ll_dma.h ****   *         @arg @ref LL_DMA_CURRENTTARGETMEM1
1196:Drivers/STM32F4xx_HAL_Driver/Inc/stm32f4xx_ll_dma.h ****   */
1197:Drivers/STM32F4xx_HAL_Driver/Inc/stm32f4xx_ll_dma.h **** __STATIC_INLINE uint32_t LL_DMA_GetCurrentTargetMem(DMA_TypeDef *DMAx, uint32_t Stream)
1198:Drivers/STM32F4xx_HAL_Driver/Inc/stm32f4xx_ll_dma.h **** {
1199:Drivers/STM32F4xx_HAL_Driver/Inc/stm32f4xx_ll_dma.h ****   return (READ_BIT(((DMA_Stream_TypeDef*)((uint32_t)((uint32_t)DMAx + STREAM_OFFSET_TAB[Stream])))-
1200:Drivers/STM32F4xx_HAL_Driver/Inc/stm32f4xx_ll_dma.h **** }
1201:Drivers/STM32F4xx_HAL_Driver/Inc/stm32f4xx_ll_dma.h **** 
1202:Drivers/STM32F4xx_HAL_Driver/Inc/stm32f4xx_ll_dma.h **** /**
1203:Drivers/STM32F4xx_HAL_Driver/Inc/stm32f4xx_ll_dma.h ****   * @brief Enable the double buffer mode.
1204:Drivers/STM32F4xx_HAL_Driver/Inc/stm32f4xx_ll_dma.h ****   * @rmtoll CR          DBM           LL_DMA_EnableDoubleBufferMode
1205:Drivers/STM32F4xx_HAL_Driver/Inc/stm32f4xx_ll_dma.h ****   * @param  DMAx DMAx Instance
1206:Drivers/STM32F4xx_HAL_Driver/Inc/stm32f4xx_ll_dma.h ****   * @param  Stream This parameter can be one of the following values:
1207:Drivers/STM32F4xx_HAL_Driver/Inc/stm32f4xx_ll_dma.h ****   *         @arg @ref LL_DMA_STREAM_0
1208:Drivers/STM32F4xx_HAL_Driver/Inc/stm32f4xx_ll_dma.h ****   *         @arg @ref LL_DMA_STREAM_1
1209:Drivers/STM32F4xx_HAL_Driver/Inc/stm32f4xx_ll_dma.h ****   *         @arg @ref LL_DMA_STREAM_2
1210:Drivers/STM32F4xx_HAL_Driver/Inc/stm32f4xx_ll_dma.h ****   *         @arg @ref LL_DMA_STREAM_3
1211:Drivers/STM32F4xx_HAL_Driver/Inc/stm32f4xx_ll_dma.h ****   *         @arg @ref LL_DMA_STREAM_4
1212:Drivers/STM32F4xx_HAL_Driver/Inc/stm32f4xx_ll_dma.h ****   *         @arg @ref LL_DMA_STREAM_5
1213:Drivers/STM32F4xx_HAL_Driver/Inc/stm32f4xx_ll_dma.h ****   *         @arg @ref LL_DMA_STREAM_6
1214:Drivers/STM32F4xx_HAL_Driver/Inc/stm32f4xx_ll_dma.h ****   *         @arg @ref LL_DMA_STREAM_7
1215:Drivers/STM32F4xx_HAL_Driver/Inc/stm32f4xx_ll_dma.h ****   * @retval None
1216:Drivers/STM32F4xx_HAL_Driver/Inc/stm32f4xx_ll_dma.h ****   */
1217:Drivers/STM32F4xx_HAL_Driver/Inc/stm32f4xx_ll_dma.h **** __STATIC_INLINE void LL_DMA_EnableDoubleBufferMode(DMA_TypeDef *DMAx, uint32_t Stream)
1218:Drivers/STM32F4xx_HAL_Driver/Inc/stm32f4xx_ll_dma.h **** {
1219:Drivers/STM32F4xx_HAL_Driver/Inc/stm32f4xx_ll_dma.h ****   SET_BIT(((DMA_Stream_TypeDef *)((uint32_t)((uint32_t)DMAx + STREAM_OFFSET_TAB[Stream])))->CR, DMA
1220:Drivers/STM32F4xx_HAL_Driver/Inc/stm32f4xx_ll_dma.h **** }
1221:Drivers/STM32F4xx_HAL_Driver/Inc/stm32f4xx_ll_dma.h **** 
1222:Drivers/STM32F4xx_HAL_Driver/Inc/stm32f4xx_ll_dma.h **** /**
1223:Drivers/STM32F4xx_HAL_Driver/Inc/stm32f4xx_ll_dma.h ****   * @brief Disable the double buffer mode.
1224:Drivers/STM32F4xx_HAL_Driver/Inc/stm32f4xx_ll_dma.h ****   * @rmtoll CR          DBM           LL_DMA_DisableDoubleBufferMode 
1225:Drivers/STM32F4xx_HAL_Driver/Inc/stm32f4xx_ll_dma.h ****   * @param  DMAx DMAx Instance
1226:Drivers/STM32F4xx_HAL_Driver/Inc/stm32f4xx_ll_dma.h ****   * @param  Stream This parameter can be one of the following values:
1227:Drivers/STM32F4xx_HAL_Driver/Inc/stm32f4xx_ll_dma.h ****   *         @arg @ref LL_DMA_STREAM_0
1228:Drivers/STM32F4xx_HAL_Driver/Inc/stm32f4xx_ll_dma.h ****   *         @arg @ref LL_DMA_STREAM_1
1229:Drivers/STM32F4xx_HAL_Driver/Inc/stm32f4xx_ll_dma.h ****   *         @arg @ref LL_DMA_STREAM_2
1230:Drivers/STM32F4xx_HAL_Driver/Inc/stm32f4xx_ll_dma.h ****   *         @arg @ref LL_DMA_STREAM_3
1231:Drivers/STM32F4xx_HAL_Driver/Inc/stm32f4xx_ll_dma.h ****   *         @arg @ref LL_DMA_STREAM_4
1232:Drivers/STM32F4xx_HAL_Driver/Inc/stm32f4xx_ll_dma.h ****   *         @arg @ref LL_DMA_STREAM_5
1233:Drivers/STM32F4xx_HAL_Driver/Inc/stm32f4xx_ll_dma.h ****   *         @arg @ref LL_DMA_STREAM_6
1234:Drivers/STM32F4xx_HAL_Driver/Inc/stm32f4xx_ll_dma.h ****   *         @arg @ref LL_DMA_STREAM_7
1235:Drivers/STM32F4xx_HAL_Driver/Inc/stm32f4xx_ll_dma.h ****   * @retval None
1236:Drivers/STM32F4xx_HAL_Driver/Inc/stm32f4xx_ll_dma.h ****   */
1237:Drivers/STM32F4xx_HAL_Driver/Inc/stm32f4xx_ll_dma.h **** __STATIC_INLINE void LL_DMA_DisableDoubleBufferMode(DMA_TypeDef *DMAx, uint32_t Stream)
1238:Drivers/STM32F4xx_HAL_Driver/Inc/stm32f4xx_ll_dma.h **** {
1239:Drivers/STM32F4xx_HAL_Driver/Inc/stm32f4xx_ll_dma.h ****   CLEAR_BIT(((DMA_Stream_TypeDef *)((uint32_t)((uint32_t)DMAx + STREAM_OFFSET_TAB[Stream])))->CR, D
1240:Drivers/STM32F4xx_HAL_Driver/Inc/stm32f4xx_ll_dma.h **** }
1241:Drivers/STM32F4xx_HAL_Driver/Inc/stm32f4xx_ll_dma.h **** 
1242:Drivers/STM32F4xx_HAL_Driver/Inc/stm32f4xx_ll_dma.h **** /**
1243:Drivers/STM32F4xx_HAL_Driver/Inc/stm32f4xx_ll_dma.h ****   * @brief Get FIFO status.
1244:Drivers/STM32F4xx_HAL_Driver/Inc/stm32f4xx_ll_dma.h ****   * @rmtoll FCR          FS          LL_DMA_GetFIFOStatus
1245:Drivers/STM32F4xx_HAL_Driver/Inc/stm32f4xx_ll_dma.h ****   * @param  DMAx DMAx Instance
1246:Drivers/STM32F4xx_HAL_Driver/Inc/stm32f4xx_ll_dma.h ****   * @param  Stream This parameter can be one of the following values:
ARM GAS  /tmp/cc58ZD3F.s 			page 34


1247:Drivers/STM32F4xx_HAL_Driver/Inc/stm32f4xx_ll_dma.h ****   *         @arg @ref LL_DMA_STREAM_0
1248:Drivers/STM32F4xx_HAL_Driver/Inc/stm32f4xx_ll_dma.h ****   *         @arg @ref LL_DMA_STREAM_1
1249:Drivers/STM32F4xx_HAL_Driver/Inc/stm32f4xx_ll_dma.h ****   *         @arg @ref LL_DMA_STREAM_2
1250:Drivers/STM32F4xx_HAL_Driver/Inc/stm32f4xx_ll_dma.h ****   *         @arg @ref LL_DMA_STREAM_3
1251:Drivers/STM32F4xx_HAL_Driver/Inc/stm32f4xx_ll_dma.h ****   *         @arg @ref LL_DMA_STREAM_4
1252:Drivers/STM32F4xx_HAL_Driver/Inc/stm32f4xx_ll_dma.h ****   *         @arg @ref LL_DMA_STREAM_5
1253:Drivers/STM32F4xx_HAL_Driver/Inc/stm32f4xx_ll_dma.h ****   *         @arg @ref LL_DMA_STREAM_6
1254:Drivers/STM32F4xx_HAL_Driver/Inc/stm32f4xx_ll_dma.h ****   *         @arg @ref LL_DMA_STREAM_7
1255:Drivers/STM32F4xx_HAL_Driver/Inc/stm32f4xx_ll_dma.h ****   * @retval Returned value can be one of the following values:
1256:Drivers/STM32F4xx_HAL_Driver/Inc/stm32f4xx_ll_dma.h ****   *         @arg @ref LL_DMA_FIFOSTATUS_0_25
1257:Drivers/STM32F4xx_HAL_Driver/Inc/stm32f4xx_ll_dma.h ****   *         @arg @ref LL_DMA_FIFOSTATUS_25_50
1258:Drivers/STM32F4xx_HAL_Driver/Inc/stm32f4xx_ll_dma.h ****   *         @arg @ref LL_DMA_FIFOSTATUS_50_75
1259:Drivers/STM32F4xx_HAL_Driver/Inc/stm32f4xx_ll_dma.h ****   *         @arg @ref LL_DMA_FIFOSTATUS_75_100
1260:Drivers/STM32F4xx_HAL_Driver/Inc/stm32f4xx_ll_dma.h ****   *         @arg @ref LL_DMA_FIFOSTATUS_EMPTY
1261:Drivers/STM32F4xx_HAL_Driver/Inc/stm32f4xx_ll_dma.h ****   *         @arg @ref LL_DMA_FIFOSTATUS_FULL
1262:Drivers/STM32F4xx_HAL_Driver/Inc/stm32f4xx_ll_dma.h ****   */
1263:Drivers/STM32F4xx_HAL_Driver/Inc/stm32f4xx_ll_dma.h **** __STATIC_INLINE uint32_t LL_DMA_GetFIFOStatus(DMA_TypeDef *DMAx, uint32_t Stream)
1264:Drivers/STM32F4xx_HAL_Driver/Inc/stm32f4xx_ll_dma.h **** {
1265:Drivers/STM32F4xx_HAL_Driver/Inc/stm32f4xx_ll_dma.h ****   return (READ_BIT(((DMA_Stream_TypeDef*)((uint32_t)((uint32_t)DMAx + STREAM_OFFSET_TAB[Stream])))-
1266:Drivers/STM32F4xx_HAL_Driver/Inc/stm32f4xx_ll_dma.h **** }
1267:Drivers/STM32F4xx_HAL_Driver/Inc/stm32f4xx_ll_dma.h **** 
1268:Drivers/STM32F4xx_HAL_Driver/Inc/stm32f4xx_ll_dma.h **** /**
1269:Drivers/STM32F4xx_HAL_Driver/Inc/stm32f4xx_ll_dma.h ****   * @brief Disable Fifo mode.
1270:Drivers/STM32F4xx_HAL_Driver/Inc/stm32f4xx_ll_dma.h ****   * @rmtoll FCR          DMDIS          LL_DMA_DisableFifoMode
1271:Drivers/STM32F4xx_HAL_Driver/Inc/stm32f4xx_ll_dma.h ****   * @param  DMAx DMAx Instance
1272:Drivers/STM32F4xx_HAL_Driver/Inc/stm32f4xx_ll_dma.h ****   * @param  Stream This parameter can be one of the following values:
1273:Drivers/STM32F4xx_HAL_Driver/Inc/stm32f4xx_ll_dma.h ****   *         @arg @ref LL_DMA_STREAM_0
1274:Drivers/STM32F4xx_HAL_Driver/Inc/stm32f4xx_ll_dma.h ****   *         @arg @ref LL_DMA_STREAM_1
1275:Drivers/STM32F4xx_HAL_Driver/Inc/stm32f4xx_ll_dma.h ****   *         @arg @ref LL_DMA_STREAM_2
1276:Drivers/STM32F4xx_HAL_Driver/Inc/stm32f4xx_ll_dma.h ****   *         @arg @ref LL_DMA_STREAM_3
1277:Drivers/STM32F4xx_HAL_Driver/Inc/stm32f4xx_ll_dma.h ****   *         @arg @ref LL_DMA_STREAM_4
1278:Drivers/STM32F4xx_HAL_Driver/Inc/stm32f4xx_ll_dma.h ****   *         @arg @ref LL_DMA_STREAM_5
1279:Drivers/STM32F4xx_HAL_Driver/Inc/stm32f4xx_ll_dma.h ****   *         @arg @ref LL_DMA_STREAM_6
1280:Drivers/STM32F4xx_HAL_Driver/Inc/stm32f4xx_ll_dma.h ****   *         @arg @ref LL_DMA_STREAM_7
1281:Drivers/STM32F4xx_HAL_Driver/Inc/stm32f4xx_ll_dma.h ****   * @retval None
1282:Drivers/STM32F4xx_HAL_Driver/Inc/stm32f4xx_ll_dma.h ****   */
1283:Drivers/STM32F4xx_HAL_Driver/Inc/stm32f4xx_ll_dma.h **** __STATIC_INLINE void LL_DMA_DisableFifoMode(DMA_TypeDef *DMAx, uint32_t Stream)
1284:Drivers/STM32F4xx_HAL_Driver/Inc/stm32f4xx_ll_dma.h **** {
1285:Drivers/STM32F4xx_HAL_Driver/Inc/stm32f4xx_ll_dma.h ****   CLEAR_BIT(((DMA_Stream_TypeDef *)((uint32_t)((uint32_t)DMAx + STREAM_OFFSET_TAB[Stream])))->FCR, 
1286:Drivers/STM32F4xx_HAL_Driver/Inc/stm32f4xx_ll_dma.h **** }
1287:Drivers/STM32F4xx_HAL_Driver/Inc/stm32f4xx_ll_dma.h **** 
1288:Drivers/STM32F4xx_HAL_Driver/Inc/stm32f4xx_ll_dma.h **** /**
1289:Drivers/STM32F4xx_HAL_Driver/Inc/stm32f4xx_ll_dma.h ****   * @brief Enable Fifo mode.
1290:Drivers/STM32F4xx_HAL_Driver/Inc/stm32f4xx_ll_dma.h ****   * @rmtoll FCR          DMDIS          LL_DMA_EnableFifoMode 
1291:Drivers/STM32F4xx_HAL_Driver/Inc/stm32f4xx_ll_dma.h ****   * @param  DMAx DMAx Instance
1292:Drivers/STM32F4xx_HAL_Driver/Inc/stm32f4xx_ll_dma.h ****   * @param  Stream This parameter can be one of the following values:
1293:Drivers/STM32F4xx_HAL_Driver/Inc/stm32f4xx_ll_dma.h ****   *         @arg @ref LL_DMA_STREAM_0
1294:Drivers/STM32F4xx_HAL_Driver/Inc/stm32f4xx_ll_dma.h ****   *         @arg @ref LL_DMA_STREAM_1
1295:Drivers/STM32F4xx_HAL_Driver/Inc/stm32f4xx_ll_dma.h ****   *         @arg @ref LL_DMA_STREAM_2
1296:Drivers/STM32F4xx_HAL_Driver/Inc/stm32f4xx_ll_dma.h ****   *         @arg @ref LL_DMA_STREAM_3
1297:Drivers/STM32F4xx_HAL_Driver/Inc/stm32f4xx_ll_dma.h ****   *         @arg @ref LL_DMA_STREAM_4
1298:Drivers/STM32F4xx_HAL_Driver/Inc/stm32f4xx_ll_dma.h ****   *         @arg @ref LL_DMA_STREAM_5
1299:Drivers/STM32F4xx_HAL_Driver/Inc/stm32f4xx_ll_dma.h ****   *         @arg @ref LL_DMA_STREAM_6
1300:Drivers/STM32F4xx_HAL_Driver/Inc/stm32f4xx_ll_dma.h ****   *         @arg @ref LL_DMA_STREAM_7
1301:Drivers/STM32F4xx_HAL_Driver/Inc/stm32f4xx_ll_dma.h ****   * @retval None
1302:Drivers/STM32F4xx_HAL_Driver/Inc/stm32f4xx_ll_dma.h ****   */
1303:Drivers/STM32F4xx_HAL_Driver/Inc/stm32f4xx_ll_dma.h **** __STATIC_INLINE void LL_DMA_EnableFifoMode(DMA_TypeDef *DMAx, uint32_t Stream)
ARM GAS  /tmp/cc58ZD3F.s 			page 35


1304:Drivers/STM32F4xx_HAL_Driver/Inc/stm32f4xx_ll_dma.h **** {
1305:Drivers/STM32F4xx_HAL_Driver/Inc/stm32f4xx_ll_dma.h ****   SET_BIT(((DMA_Stream_TypeDef *)((uint32_t)((uint32_t)DMAx + STREAM_OFFSET_TAB[Stream])))->FCR, DM
1306:Drivers/STM32F4xx_HAL_Driver/Inc/stm32f4xx_ll_dma.h **** }
1307:Drivers/STM32F4xx_HAL_Driver/Inc/stm32f4xx_ll_dma.h **** 
1308:Drivers/STM32F4xx_HAL_Driver/Inc/stm32f4xx_ll_dma.h **** /**
1309:Drivers/STM32F4xx_HAL_Driver/Inc/stm32f4xx_ll_dma.h ****   * @brief Select FIFO threshold.
1310:Drivers/STM32F4xx_HAL_Driver/Inc/stm32f4xx_ll_dma.h ****   * @rmtoll FCR         FTH          LL_DMA_SetFIFOThreshold
1311:Drivers/STM32F4xx_HAL_Driver/Inc/stm32f4xx_ll_dma.h ****   * @param  DMAx DMAx Instance
1312:Drivers/STM32F4xx_HAL_Driver/Inc/stm32f4xx_ll_dma.h ****   * @param  Stream This parameter can be one of the following values:
1313:Drivers/STM32F4xx_HAL_Driver/Inc/stm32f4xx_ll_dma.h ****   *         @arg @ref LL_DMA_STREAM_0
1314:Drivers/STM32F4xx_HAL_Driver/Inc/stm32f4xx_ll_dma.h ****   *         @arg @ref LL_DMA_STREAM_1
1315:Drivers/STM32F4xx_HAL_Driver/Inc/stm32f4xx_ll_dma.h ****   *         @arg @ref LL_DMA_STREAM_2
1316:Drivers/STM32F4xx_HAL_Driver/Inc/stm32f4xx_ll_dma.h ****   *         @arg @ref LL_DMA_STREAM_3
1317:Drivers/STM32F4xx_HAL_Driver/Inc/stm32f4xx_ll_dma.h ****   *         @arg @ref LL_DMA_STREAM_4
1318:Drivers/STM32F4xx_HAL_Driver/Inc/stm32f4xx_ll_dma.h ****   *         @arg @ref LL_DMA_STREAM_5
1319:Drivers/STM32F4xx_HAL_Driver/Inc/stm32f4xx_ll_dma.h ****   *         @arg @ref LL_DMA_STREAM_6
1320:Drivers/STM32F4xx_HAL_Driver/Inc/stm32f4xx_ll_dma.h ****   *         @arg @ref LL_DMA_STREAM_7
1321:Drivers/STM32F4xx_HAL_Driver/Inc/stm32f4xx_ll_dma.h ****   * @param  Threshold This parameter can be one of the following values:
1322:Drivers/STM32F4xx_HAL_Driver/Inc/stm32f4xx_ll_dma.h ****   *         @arg @ref LL_DMA_FIFOTHRESHOLD_1_4
1323:Drivers/STM32F4xx_HAL_Driver/Inc/stm32f4xx_ll_dma.h ****   *         @arg @ref LL_DMA_FIFOTHRESHOLD_1_2
1324:Drivers/STM32F4xx_HAL_Driver/Inc/stm32f4xx_ll_dma.h ****   *         @arg @ref LL_DMA_FIFOTHRESHOLD_3_4
1325:Drivers/STM32F4xx_HAL_Driver/Inc/stm32f4xx_ll_dma.h ****   *         @arg @ref LL_DMA_FIFOTHRESHOLD_FULL
1326:Drivers/STM32F4xx_HAL_Driver/Inc/stm32f4xx_ll_dma.h ****   * @retval None
1327:Drivers/STM32F4xx_HAL_Driver/Inc/stm32f4xx_ll_dma.h ****   */
1328:Drivers/STM32F4xx_HAL_Driver/Inc/stm32f4xx_ll_dma.h **** __STATIC_INLINE void LL_DMA_SetFIFOThreshold(DMA_TypeDef *DMAx, uint32_t Stream, uint32_t Threshold
1329:Drivers/STM32F4xx_HAL_Driver/Inc/stm32f4xx_ll_dma.h **** {
1330:Drivers/STM32F4xx_HAL_Driver/Inc/stm32f4xx_ll_dma.h ****   MODIFY_REG(((DMA_Stream_TypeDef*)((uint32_t)((uint32_t)DMAx + STREAM_OFFSET_TAB[Stream])))->FCR, 
1331:Drivers/STM32F4xx_HAL_Driver/Inc/stm32f4xx_ll_dma.h **** }
1332:Drivers/STM32F4xx_HAL_Driver/Inc/stm32f4xx_ll_dma.h **** 
1333:Drivers/STM32F4xx_HAL_Driver/Inc/stm32f4xx_ll_dma.h **** /**
1334:Drivers/STM32F4xx_HAL_Driver/Inc/stm32f4xx_ll_dma.h ****   * @brief Get FIFO threshold.
1335:Drivers/STM32F4xx_HAL_Driver/Inc/stm32f4xx_ll_dma.h ****   * @rmtoll FCR         FTH          LL_DMA_GetFIFOThreshold
1336:Drivers/STM32F4xx_HAL_Driver/Inc/stm32f4xx_ll_dma.h ****   * @param  DMAx DMAx Instance
1337:Drivers/STM32F4xx_HAL_Driver/Inc/stm32f4xx_ll_dma.h ****   * @param  Stream This parameter can be one of the following values:
1338:Drivers/STM32F4xx_HAL_Driver/Inc/stm32f4xx_ll_dma.h ****   *         @arg @ref LL_DMA_STREAM_0
1339:Drivers/STM32F4xx_HAL_Driver/Inc/stm32f4xx_ll_dma.h ****   *         @arg @ref LL_DMA_STREAM_1
1340:Drivers/STM32F4xx_HAL_Driver/Inc/stm32f4xx_ll_dma.h ****   *         @arg @ref LL_DMA_STREAM_2
1341:Drivers/STM32F4xx_HAL_Driver/Inc/stm32f4xx_ll_dma.h ****   *         @arg @ref LL_DMA_STREAM_3
1342:Drivers/STM32F4xx_HAL_Driver/Inc/stm32f4xx_ll_dma.h ****   *         @arg @ref LL_DMA_STREAM_4
1343:Drivers/STM32F4xx_HAL_Driver/Inc/stm32f4xx_ll_dma.h ****   *         @arg @ref LL_DMA_STREAM_5
1344:Drivers/STM32F4xx_HAL_Driver/Inc/stm32f4xx_ll_dma.h ****   *         @arg @ref LL_DMA_STREAM_6
1345:Drivers/STM32F4xx_HAL_Driver/Inc/stm32f4xx_ll_dma.h ****   *         @arg @ref LL_DMA_STREAM_7
1346:Drivers/STM32F4xx_HAL_Driver/Inc/stm32f4xx_ll_dma.h ****   * @retval Returned value can be one of the following values:
1347:Drivers/STM32F4xx_HAL_Driver/Inc/stm32f4xx_ll_dma.h ****   *         @arg @ref LL_DMA_FIFOTHRESHOLD_1_4
1348:Drivers/STM32F4xx_HAL_Driver/Inc/stm32f4xx_ll_dma.h ****   *         @arg @ref LL_DMA_FIFOTHRESHOLD_1_2
1349:Drivers/STM32F4xx_HAL_Driver/Inc/stm32f4xx_ll_dma.h ****   *         @arg @ref LL_DMA_FIFOTHRESHOLD_3_4
1350:Drivers/STM32F4xx_HAL_Driver/Inc/stm32f4xx_ll_dma.h ****   *         @arg @ref LL_DMA_FIFOTHRESHOLD_FULL
1351:Drivers/STM32F4xx_HAL_Driver/Inc/stm32f4xx_ll_dma.h ****   */
1352:Drivers/STM32F4xx_HAL_Driver/Inc/stm32f4xx_ll_dma.h **** __STATIC_INLINE uint32_t LL_DMA_GetFIFOThreshold(DMA_TypeDef *DMAx, uint32_t Stream)
1353:Drivers/STM32F4xx_HAL_Driver/Inc/stm32f4xx_ll_dma.h **** {
1354:Drivers/STM32F4xx_HAL_Driver/Inc/stm32f4xx_ll_dma.h ****   return (READ_BIT(((DMA_Stream_TypeDef*)((uint32_t)((uint32_t)DMAx + STREAM_OFFSET_TAB[Stream])))-
1355:Drivers/STM32F4xx_HAL_Driver/Inc/stm32f4xx_ll_dma.h **** }
1356:Drivers/STM32F4xx_HAL_Driver/Inc/stm32f4xx_ll_dma.h **** 
1357:Drivers/STM32F4xx_HAL_Driver/Inc/stm32f4xx_ll_dma.h **** /**
1358:Drivers/STM32F4xx_HAL_Driver/Inc/stm32f4xx_ll_dma.h ****   * @brief Configure the FIFO .
1359:Drivers/STM32F4xx_HAL_Driver/Inc/stm32f4xx_ll_dma.h ****   * @rmtoll FCR         FTH          LL_DMA_ConfigFifo\n
1360:Drivers/STM32F4xx_HAL_Driver/Inc/stm32f4xx_ll_dma.h ****   *         FCR         DMDIS        LL_DMA_ConfigFifo
ARM GAS  /tmp/cc58ZD3F.s 			page 36


1361:Drivers/STM32F4xx_HAL_Driver/Inc/stm32f4xx_ll_dma.h ****   * @param  DMAx DMAx Instance
1362:Drivers/STM32F4xx_HAL_Driver/Inc/stm32f4xx_ll_dma.h ****   * @param  Stream This parameter can be one of the following values:
1363:Drivers/STM32F4xx_HAL_Driver/Inc/stm32f4xx_ll_dma.h ****   *         @arg @ref LL_DMA_STREAM_0
1364:Drivers/STM32F4xx_HAL_Driver/Inc/stm32f4xx_ll_dma.h ****   *         @arg @ref LL_DMA_STREAM_1
1365:Drivers/STM32F4xx_HAL_Driver/Inc/stm32f4xx_ll_dma.h ****   *         @arg @ref LL_DMA_STREAM_2
1366:Drivers/STM32F4xx_HAL_Driver/Inc/stm32f4xx_ll_dma.h ****   *         @arg @ref LL_DMA_STREAM_3
1367:Drivers/STM32F4xx_HAL_Driver/Inc/stm32f4xx_ll_dma.h ****   *         @arg @ref LL_DMA_STREAM_4
1368:Drivers/STM32F4xx_HAL_Driver/Inc/stm32f4xx_ll_dma.h ****   *         @arg @ref LL_DMA_STREAM_5
1369:Drivers/STM32F4xx_HAL_Driver/Inc/stm32f4xx_ll_dma.h ****   *         @arg @ref LL_DMA_STREAM_6
1370:Drivers/STM32F4xx_HAL_Driver/Inc/stm32f4xx_ll_dma.h ****   *         @arg @ref LL_DMA_STREAM_7
1371:Drivers/STM32F4xx_HAL_Driver/Inc/stm32f4xx_ll_dma.h ****   * @param  FifoMode This parameter can be one of the following values:
1372:Drivers/STM32F4xx_HAL_Driver/Inc/stm32f4xx_ll_dma.h ****   *         @arg @ref LL_DMA_FIFOMODE_ENABLE
1373:Drivers/STM32F4xx_HAL_Driver/Inc/stm32f4xx_ll_dma.h ****   *         @arg @ref LL_DMA_FIFOMODE_DISABLE
1374:Drivers/STM32F4xx_HAL_Driver/Inc/stm32f4xx_ll_dma.h ****   * @param  FifoThreshold This parameter can be one of the following values:
1375:Drivers/STM32F4xx_HAL_Driver/Inc/stm32f4xx_ll_dma.h ****   *         @arg @ref LL_DMA_FIFOTHRESHOLD_1_4
1376:Drivers/STM32F4xx_HAL_Driver/Inc/stm32f4xx_ll_dma.h ****   *         @arg @ref LL_DMA_FIFOTHRESHOLD_1_2
1377:Drivers/STM32F4xx_HAL_Driver/Inc/stm32f4xx_ll_dma.h ****   *         @arg @ref LL_DMA_FIFOTHRESHOLD_3_4
1378:Drivers/STM32F4xx_HAL_Driver/Inc/stm32f4xx_ll_dma.h ****   *         @arg @ref LL_DMA_FIFOTHRESHOLD_FULL
1379:Drivers/STM32F4xx_HAL_Driver/Inc/stm32f4xx_ll_dma.h ****   * @retval None
1380:Drivers/STM32F4xx_HAL_Driver/Inc/stm32f4xx_ll_dma.h ****   */
1381:Drivers/STM32F4xx_HAL_Driver/Inc/stm32f4xx_ll_dma.h **** __STATIC_INLINE void LL_DMA_ConfigFifo(DMA_TypeDef *DMAx, uint32_t Stream, uint32_t FifoMode, uint3
1382:Drivers/STM32F4xx_HAL_Driver/Inc/stm32f4xx_ll_dma.h **** {
1383:Drivers/STM32F4xx_HAL_Driver/Inc/stm32f4xx_ll_dma.h ****   MODIFY_REG(((DMA_Stream_TypeDef*)((uint32_t)((uint32_t)DMAx + STREAM_OFFSET_TAB[Stream])))->FCR, 
1384:Drivers/STM32F4xx_HAL_Driver/Inc/stm32f4xx_ll_dma.h **** }
1385:Drivers/STM32F4xx_HAL_Driver/Inc/stm32f4xx_ll_dma.h **** 
1386:Drivers/STM32F4xx_HAL_Driver/Inc/stm32f4xx_ll_dma.h **** /**
1387:Drivers/STM32F4xx_HAL_Driver/Inc/stm32f4xx_ll_dma.h ****   * @brief Configure the Source and Destination addresses.
1388:Drivers/STM32F4xx_HAL_Driver/Inc/stm32f4xx_ll_dma.h ****   * @note   This API must not be called when the DMA stream is enabled.
1389:Drivers/STM32F4xx_HAL_Driver/Inc/stm32f4xx_ll_dma.h ****   * @rmtoll M0AR        M0A         LL_DMA_ConfigAddresses\n 
1390:Drivers/STM32F4xx_HAL_Driver/Inc/stm32f4xx_ll_dma.h ****   *         PAR         PA          LL_DMA_ConfigAddresses
1391:Drivers/STM32F4xx_HAL_Driver/Inc/stm32f4xx_ll_dma.h ****   * @param  DMAx DMAx Instance
1392:Drivers/STM32F4xx_HAL_Driver/Inc/stm32f4xx_ll_dma.h ****   * @param  Stream This parameter can be one of the following values:
1393:Drivers/STM32F4xx_HAL_Driver/Inc/stm32f4xx_ll_dma.h ****   *         @arg @ref LL_DMA_STREAM_0
1394:Drivers/STM32F4xx_HAL_Driver/Inc/stm32f4xx_ll_dma.h ****   *         @arg @ref LL_DMA_STREAM_1
1395:Drivers/STM32F4xx_HAL_Driver/Inc/stm32f4xx_ll_dma.h ****   *         @arg @ref LL_DMA_STREAM_2
1396:Drivers/STM32F4xx_HAL_Driver/Inc/stm32f4xx_ll_dma.h ****   *         @arg @ref LL_DMA_STREAM_3
1397:Drivers/STM32F4xx_HAL_Driver/Inc/stm32f4xx_ll_dma.h ****   *         @arg @ref LL_DMA_STREAM_4
1398:Drivers/STM32F4xx_HAL_Driver/Inc/stm32f4xx_ll_dma.h ****   *         @arg @ref LL_DMA_STREAM_5
1399:Drivers/STM32F4xx_HAL_Driver/Inc/stm32f4xx_ll_dma.h ****   *         @arg @ref LL_DMA_STREAM_6
1400:Drivers/STM32F4xx_HAL_Driver/Inc/stm32f4xx_ll_dma.h ****   *         @arg @ref LL_DMA_STREAM_7
1401:Drivers/STM32F4xx_HAL_Driver/Inc/stm32f4xx_ll_dma.h ****   * @param  SrcAddress Between 0 to 0xFFFFFFFF
1402:Drivers/STM32F4xx_HAL_Driver/Inc/stm32f4xx_ll_dma.h ****   * @param  DstAddress Between 0 to 0xFFFFFFFF
1403:Drivers/STM32F4xx_HAL_Driver/Inc/stm32f4xx_ll_dma.h ****   * @param  Direction This parameter can be one of the following values:
1404:Drivers/STM32F4xx_HAL_Driver/Inc/stm32f4xx_ll_dma.h ****   *         @arg @ref LL_DMA_DIRECTION_PERIPH_TO_MEMORY
1405:Drivers/STM32F4xx_HAL_Driver/Inc/stm32f4xx_ll_dma.h ****   *         @arg @ref LL_DMA_DIRECTION_MEMORY_TO_PERIPH
1406:Drivers/STM32F4xx_HAL_Driver/Inc/stm32f4xx_ll_dma.h ****   *         @arg @ref LL_DMA_DIRECTION_MEMORY_TO_MEMORY
1407:Drivers/STM32F4xx_HAL_Driver/Inc/stm32f4xx_ll_dma.h ****   * @retval None
1408:Drivers/STM32F4xx_HAL_Driver/Inc/stm32f4xx_ll_dma.h ****   */
1409:Drivers/STM32F4xx_HAL_Driver/Inc/stm32f4xx_ll_dma.h **** __STATIC_INLINE void LL_DMA_ConfigAddresses(DMA_TypeDef* DMAx, uint32_t Stream, uint32_t SrcAddress
1410:Drivers/STM32F4xx_HAL_Driver/Inc/stm32f4xx_ll_dma.h **** {
1411:Drivers/STM32F4xx_HAL_Driver/Inc/stm32f4xx_ll_dma.h ****   /* Direction Memory to Periph */
1412:Drivers/STM32F4xx_HAL_Driver/Inc/stm32f4xx_ll_dma.h ****   if (Direction == LL_DMA_DIRECTION_MEMORY_TO_PERIPH)
1413:Drivers/STM32F4xx_HAL_Driver/Inc/stm32f4xx_ll_dma.h ****   {
1414:Drivers/STM32F4xx_HAL_Driver/Inc/stm32f4xx_ll_dma.h ****     WRITE_REG(((DMA_Stream_TypeDef*)((uint32_t)((uint32_t)DMAx + STREAM_OFFSET_TAB[Stream])))->M0AR
1415:Drivers/STM32F4xx_HAL_Driver/Inc/stm32f4xx_ll_dma.h ****     WRITE_REG(((DMA_Stream_TypeDef*)((uint32_t)((uint32_t)DMAx + STREAM_OFFSET_TAB[Stream])))->PAR,
1416:Drivers/STM32F4xx_HAL_Driver/Inc/stm32f4xx_ll_dma.h ****   }
1417:Drivers/STM32F4xx_HAL_Driver/Inc/stm32f4xx_ll_dma.h ****   /* Direction Periph to Memory and Memory to Memory */
ARM GAS  /tmp/cc58ZD3F.s 			page 37


1418:Drivers/STM32F4xx_HAL_Driver/Inc/stm32f4xx_ll_dma.h ****   else
1419:Drivers/STM32F4xx_HAL_Driver/Inc/stm32f4xx_ll_dma.h ****   {
1420:Drivers/STM32F4xx_HAL_Driver/Inc/stm32f4xx_ll_dma.h ****     WRITE_REG(((DMA_Stream_TypeDef*)((uint32_t)((uint32_t)DMAx + STREAM_OFFSET_TAB[Stream])))->PAR,
1421:Drivers/STM32F4xx_HAL_Driver/Inc/stm32f4xx_ll_dma.h ****     WRITE_REG(((DMA_Stream_TypeDef*)((uint32_t)((uint32_t)DMAx + STREAM_OFFSET_TAB[Stream])))->M0AR
1422:Drivers/STM32F4xx_HAL_Driver/Inc/stm32f4xx_ll_dma.h ****   }
1423:Drivers/STM32F4xx_HAL_Driver/Inc/stm32f4xx_ll_dma.h **** }
1424:Drivers/STM32F4xx_HAL_Driver/Inc/stm32f4xx_ll_dma.h **** 
1425:Drivers/STM32F4xx_HAL_Driver/Inc/stm32f4xx_ll_dma.h **** /**
1426:Drivers/STM32F4xx_HAL_Driver/Inc/stm32f4xx_ll_dma.h ****   * @brief  Set the Memory address.
1427:Drivers/STM32F4xx_HAL_Driver/Inc/stm32f4xx_ll_dma.h ****   * @rmtoll M0AR        M0A         LL_DMA_SetMemoryAddress
1428:Drivers/STM32F4xx_HAL_Driver/Inc/stm32f4xx_ll_dma.h ****   * @note   Interface used for direction LL_DMA_DIRECTION_PERIPH_TO_MEMORY or LL_DMA_DIRECTION_MEMO
1429:Drivers/STM32F4xx_HAL_Driver/Inc/stm32f4xx_ll_dma.h ****   * @note   This API must not be called when the DMA channel is enabled.
1430:Drivers/STM32F4xx_HAL_Driver/Inc/stm32f4xx_ll_dma.h ****   * @param  DMAx DMAx Instance
1431:Drivers/STM32F4xx_HAL_Driver/Inc/stm32f4xx_ll_dma.h ****   * @param  Stream This parameter can be one of the following values:
1432:Drivers/STM32F4xx_HAL_Driver/Inc/stm32f4xx_ll_dma.h ****   *         @arg @ref LL_DMA_STREAM_0
1433:Drivers/STM32F4xx_HAL_Driver/Inc/stm32f4xx_ll_dma.h ****   *         @arg @ref LL_DMA_STREAM_1
1434:Drivers/STM32F4xx_HAL_Driver/Inc/stm32f4xx_ll_dma.h ****   *         @arg @ref LL_DMA_STREAM_2
1435:Drivers/STM32F4xx_HAL_Driver/Inc/stm32f4xx_ll_dma.h ****   *         @arg @ref LL_DMA_STREAM_3
1436:Drivers/STM32F4xx_HAL_Driver/Inc/stm32f4xx_ll_dma.h ****   *         @arg @ref LL_DMA_STREAM_4
1437:Drivers/STM32F4xx_HAL_Driver/Inc/stm32f4xx_ll_dma.h ****   *         @arg @ref LL_DMA_STREAM_5
1438:Drivers/STM32F4xx_HAL_Driver/Inc/stm32f4xx_ll_dma.h ****   *         @arg @ref LL_DMA_STREAM_6
1439:Drivers/STM32F4xx_HAL_Driver/Inc/stm32f4xx_ll_dma.h ****   *         @arg @ref LL_DMA_STREAM_7
1440:Drivers/STM32F4xx_HAL_Driver/Inc/stm32f4xx_ll_dma.h ****   * @param  MemoryAddress Between 0 to 0xFFFFFFFF
1441:Drivers/STM32F4xx_HAL_Driver/Inc/stm32f4xx_ll_dma.h ****   * @retval None
1442:Drivers/STM32F4xx_HAL_Driver/Inc/stm32f4xx_ll_dma.h ****   */
1443:Drivers/STM32F4xx_HAL_Driver/Inc/stm32f4xx_ll_dma.h **** __STATIC_INLINE void LL_DMA_SetMemoryAddress(DMA_TypeDef* DMAx, uint32_t Stream, uint32_t MemoryAdd
1444:Drivers/STM32F4xx_HAL_Driver/Inc/stm32f4xx_ll_dma.h **** {
1445:Drivers/STM32F4xx_HAL_Driver/Inc/stm32f4xx_ll_dma.h ****   WRITE_REG(((DMA_Stream_TypeDef*)((uint32_t)((uint32_t)DMAx + STREAM_OFFSET_TAB[Stream])))->M0AR, 
 290              		.loc 2 1445 0
 291 0046 664B     		ldr	r3, .L19+16
 292 0048 DF60     		str	r7, [r3, #12]
 293              	.LVL24:
 294              	.LBE59:
 295              	.LBE58:
 296              	.LBB60:
 297              	.LBB61:
 977:Drivers/STM32F4xx_HAL_Driver/Inc/stm32f4xx_ll_dma.h **** }
 298              		.loc 2 977 0
 299 004a 5A68     		ldr	r2, [r3, #4]
 300 004c 120C     		lsrs	r2, r2, #16
 301 004e 1204     		lsls	r2, r2, #16
 302 0050 42F48072 		orr	r2, r2, #256
 303 0054 5A60     		str	r2, [r3, #4]
 304              	.LVL25:
 305              	.LBE61:
 306              	.LBE60:
 307              	.LBB62:
 308              	.LBB63:
1446:Drivers/STM32F4xx_HAL_Driver/Inc/stm32f4xx_ll_dma.h **** }
1447:Drivers/STM32F4xx_HAL_Driver/Inc/stm32f4xx_ll_dma.h **** 
1448:Drivers/STM32F4xx_HAL_Driver/Inc/stm32f4xx_ll_dma.h **** /**
1449:Drivers/STM32F4xx_HAL_Driver/Inc/stm32f4xx_ll_dma.h ****   * @brief  Set the Peripheral address.
1450:Drivers/STM32F4xx_HAL_Driver/Inc/stm32f4xx_ll_dma.h ****   * @rmtoll PAR        PA         LL_DMA_SetPeriphAddress
1451:Drivers/STM32F4xx_HAL_Driver/Inc/stm32f4xx_ll_dma.h ****   * @note   Interface used for direction LL_DMA_DIRECTION_PERIPH_TO_MEMORY or LL_DMA_DIRECTION_MEMO
1452:Drivers/STM32F4xx_HAL_Driver/Inc/stm32f4xx_ll_dma.h ****   * @note   This API must not be called when the DMA channel is enabled.
1453:Drivers/STM32F4xx_HAL_Driver/Inc/stm32f4xx_ll_dma.h ****   * @param  DMAx DMAx Instance
1454:Drivers/STM32F4xx_HAL_Driver/Inc/stm32f4xx_ll_dma.h ****   * @param  Stream This parameter can be one of the following values:
ARM GAS  /tmp/cc58ZD3F.s 			page 38


1455:Drivers/STM32F4xx_HAL_Driver/Inc/stm32f4xx_ll_dma.h ****   *         @arg @ref LL_DMA_STREAM_0
1456:Drivers/STM32F4xx_HAL_Driver/Inc/stm32f4xx_ll_dma.h ****   *         @arg @ref LL_DMA_STREAM_1
1457:Drivers/STM32F4xx_HAL_Driver/Inc/stm32f4xx_ll_dma.h ****   *         @arg @ref LL_DMA_STREAM_2
1458:Drivers/STM32F4xx_HAL_Driver/Inc/stm32f4xx_ll_dma.h ****   *         @arg @ref LL_DMA_STREAM_3
1459:Drivers/STM32F4xx_HAL_Driver/Inc/stm32f4xx_ll_dma.h ****   *         @arg @ref LL_DMA_STREAM_4
1460:Drivers/STM32F4xx_HAL_Driver/Inc/stm32f4xx_ll_dma.h ****   *         @arg @ref LL_DMA_STREAM_5
1461:Drivers/STM32F4xx_HAL_Driver/Inc/stm32f4xx_ll_dma.h ****   *         @arg @ref LL_DMA_STREAM_6
1462:Drivers/STM32F4xx_HAL_Driver/Inc/stm32f4xx_ll_dma.h ****   *         @arg @ref LL_DMA_STREAM_7
1463:Drivers/STM32F4xx_HAL_Driver/Inc/stm32f4xx_ll_dma.h ****   * @param  PeriphAddress Between 0 to 0xFFFFFFFF
1464:Drivers/STM32F4xx_HAL_Driver/Inc/stm32f4xx_ll_dma.h ****   * @retval None
1465:Drivers/STM32F4xx_HAL_Driver/Inc/stm32f4xx_ll_dma.h ****   */
1466:Drivers/STM32F4xx_HAL_Driver/Inc/stm32f4xx_ll_dma.h **** __STATIC_INLINE void LL_DMA_SetPeriphAddress(DMA_TypeDef* DMAx, uint32_t Stream, uint32_t PeriphAdd
1467:Drivers/STM32F4xx_HAL_Driver/Inc/stm32f4xx_ll_dma.h **** {
1468:Drivers/STM32F4xx_HAL_Driver/Inc/stm32f4xx_ll_dma.h ****   WRITE_REG(((DMA_Stream_TypeDef*)((uint32_t)((uint32_t)DMAx + STREAM_OFFSET_TAB[Stream])))->PAR, P
 309              		.loc 2 1468 0
 310 0056 634A     		ldr	r2, .L19+20
 311 0058 9A60     		str	r2, [r3, #8]
 312              	.LVL26:
 313              	.LBE63:
 314              	.LBE62:
 315              	.LBB64:
 316              	.LBB65:
1469:Drivers/STM32F4xx_HAL_Driver/Inc/stm32f4xx_ll_dma.h **** }
1470:Drivers/STM32F4xx_HAL_Driver/Inc/stm32f4xx_ll_dma.h **** 
1471:Drivers/STM32F4xx_HAL_Driver/Inc/stm32f4xx_ll_dma.h **** /**
1472:Drivers/STM32F4xx_HAL_Driver/Inc/stm32f4xx_ll_dma.h ****   * @brief  Get the Memory address.
1473:Drivers/STM32F4xx_HAL_Driver/Inc/stm32f4xx_ll_dma.h ****   * @rmtoll M0AR        M0A         LL_DMA_GetMemoryAddress
1474:Drivers/STM32F4xx_HAL_Driver/Inc/stm32f4xx_ll_dma.h ****   * @note   Interface used for direction LL_DMA_DIRECTION_PERIPH_TO_MEMORY or LL_DMA_DIRECTION_MEMO
1475:Drivers/STM32F4xx_HAL_Driver/Inc/stm32f4xx_ll_dma.h ****   * @param  DMAx DMAx Instance
1476:Drivers/STM32F4xx_HAL_Driver/Inc/stm32f4xx_ll_dma.h ****   * @param  Stream This parameter can be one of the following values:
1477:Drivers/STM32F4xx_HAL_Driver/Inc/stm32f4xx_ll_dma.h ****   *         @arg @ref LL_DMA_STREAM_0
1478:Drivers/STM32F4xx_HAL_Driver/Inc/stm32f4xx_ll_dma.h ****   *         @arg @ref LL_DMA_STREAM_1
1479:Drivers/STM32F4xx_HAL_Driver/Inc/stm32f4xx_ll_dma.h ****   *         @arg @ref LL_DMA_STREAM_2
1480:Drivers/STM32F4xx_HAL_Driver/Inc/stm32f4xx_ll_dma.h ****   *         @arg @ref LL_DMA_STREAM_3
1481:Drivers/STM32F4xx_HAL_Driver/Inc/stm32f4xx_ll_dma.h ****   *         @arg @ref LL_DMA_STREAM_4
1482:Drivers/STM32F4xx_HAL_Driver/Inc/stm32f4xx_ll_dma.h ****   *         @arg @ref LL_DMA_STREAM_5
1483:Drivers/STM32F4xx_HAL_Driver/Inc/stm32f4xx_ll_dma.h ****   *         @arg @ref LL_DMA_STREAM_6
1484:Drivers/STM32F4xx_HAL_Driver/Inc/stm32f4xx_ll_dma.h ****   *         @arg @ref LL_DMA_STREAM_7
1485:Drivers/STM32F4xx_HAL_Driver/Inc/stm32f4xx_ll_dma.h ****   * @retval Between 0 to 0xFFFFFFFF
1486:Drivers/STM32F4xx_HAL_Driver/Inc/stm32f4xx_ll_dma.h ****   */
1487:Drivers/STM32F4xx_HAL_Driver/Inc/stm32f4xx_ll_dma.h **** __STATIC_INLINE uint32_t LL_DMA_GetMemoryAddress(DMA_TypeDef* DMAx, uint32_t Stream)
1488:Drivers/STM32F4xx_HAL_Driver/Inc/stm32f4xx_ll_dma.h **** {
1489:Drivers/STM32F4xx_HAL_Driver/Inc/stm32f4xx_ll_dma.h ****   return (READ_REG(((DMA_Stream_TypeDef*)((uint32_t)((uint32_t)DMAx + STREAM_OFFSET_TAB[Stream])))-
1490:Drivers/STM32F4xx_HAL_Driver/Inc/stm32f4xx_ll_dma.h **** }
1491:Drivers/STM32F4xx_HAL_Driver/Inc/stm32f4xx_ll_dma.h **** 
1492:Drivers/STM32F4xx_HAL_Driver/Inc/stm32f4xx_ll_dma.h **** /**
1493:Drivers/STM32F4xx_HAL_Driver/Inc/stm32f4xx_ll_dma.h ****   * @brief  Get the Peripheral address.
1494:Drivers/STM32F4xx_HAL_Driver/Inc/stm32f4xx_ll_dma.h ****   * @rmtoll PAR        PA         LL_DMA_GetPeriphAddress
1495:Drivers/STM32F4xx_HAL_Driver/Inc/stm32f4xx_ll_dma.h ****   * @note   Interface used for direction LL_DMA_DIRECTION_PERIPH_TO_MEMORY or LL_DMA_DIRECTION_MEMO
1496:Drivers/STM32F4xx_HAL_Driver/Inc/stm32f4xx_ll_dma.h ****   * @param  DMAx DMAx Instance
1497:Drivers/STM32F4xx_HAL_Driver/Inc/stm32f4xx_ll_dma.h ****   * @param  Stream This parameter can be one of the following values:
1498:Drivers/STM32F4xx_HAL_Driver/Inc/stm32f4xx_ll_dma.h ****   *         @arg @ref LL_DMA_STREAM_0
1499:Drivers/STM32F4xx_HAL_Driver/Inc/stm32f4xx_ll_dma.h ****   *         @arg @ref LL_DMA_STREAM_1
1500:Drivers/STM32F4xx_HAL_Driver/Inc/stm32f4xx_ll_dma.h ****   *         @arg @ref LL_DMA_STREAM_2
1501:Drivers/STM32F4xx_HAL_Driver/Inc/stm32f4xx_ll_dma.h ****   *         @arg @ref LL_DMA_STREAM_3
1502:Drivers/STM32F4xx_HAL_Driver/Inc/stm32f4xx_ll_dma.h ****   *         @arg @ref LL_DMA_STREAM_4
1503:Drivers/STM32F4xx_HAL_Driver/Inc/stm32f4xx_ll_dma.h ****   *         @arg @ref LL_DMA_STREAM_5
ARM GAS  /tmp/cc58ZD3F.s 			page 39


1504:Drivers/STM32F4xx_HAL_Driver/Inc/stm32f4xx_ll_dma.h ****   *         @arg @ref LL_DMA_STREAM_6
1505:Drivers/STM32F4xx_HAL_Driver/Inc/stm32f4xx_ll_dma.h ****   *         @arg @ref LL_DMA_STREAM_7
1506:Drivers/STM32F4xx_HAL_Driver/Inc/stm32f4xx_ll_dma.h ****   * @retval Between 0 to 0xFFFFFFFF
1507:Drivers/STM32F4xx_HAL_Driver/Inc/stm32f4xx_ll_dma.h ****   */
1508:Drivers/STM32F4xx_HAL_Driver/Inc/stm32f4xx_ll_dma.h **** __STATIC_INLINE uint32_t LL_DMA_GetPeriphAddress(DMA_TypeDef* DMAx, uint32_t Stream)
1509:Drivers/STM32F4xx_HAL_Driver/Inc/stm32f4xx_ll_dma.h **** {
1510:Drivers/STM32F4xx_HAL_Driver/Inc/stm32f4xx_ll_dma.h ****   return (READ_REG(((DMA_Stream_TypeDef *)((uint32_t)((uint32_t)DMAx + STREAM_OFFSET_TAB[Stream])))
1511:Drivers/STM32F4xx_HAL_Driver/Inc/stm32f4xx_ll_dma.h **** }
1512:Drivers/STM32F4xx_HAL_Driver/Inc/stm32f4xx_ll_dma.h **** 
1513:Drivers/STM32F4xx_HAL_Driver/Inc/stm32f4xx_ll_dma.h **** /**
1514:Drivers/STM32F4xx_HAL_Driver/Inc/stm32f4xx_ll_dma.h ****   * @brief  Set the Memory to Memory Source address.
1515:Drivers/STM32F4xx_HAL_Driver/Inc/stm32f4xx_ll_dma.h ****   * @rmtoll PAR        PA         LL_DMA_SetM2MSrcAddress
1516:Drivers/STM32F4xx_HAL_Driver/Inc/stm32f4xx_ll_dma.h ****   * @note   Interface used for direction LL_DMA_DIRECTION_MEMORY_TO_MEMORY only.
1517:Drivers/STM32F4xx_HAL_Driver/Inc/stm32f4xx_ll_dma.h ****   * @note   This API must not be called when the DMA channel is enabled.
1518:Drivers/STM32F4xx_HAL_Driver/Inc/stm32f4xx_ll_dma.h ****   * @param  DMAx DMAx Instance
1519:Drivers/STM32F4xx_HAL_Driver/Inc/stm32f4xx_ll_dma.h ****   * @param  Stream This parameter can be one of the following values:
1520:Drivers/STM32F4xx_HAL_Driver/Inc/stm32f4xx_ll_dma.h ****   *         @arg @ref LL_DMA_STREAM_0
1521:Drivers/STM32F4xx_HAL_Driver/Inc/stm32f4xx_ll_dma.h ****   *         @arg @ref LL_DMA_STREAM_1
1522:Drivers/STM32F4xx_HAL_Driver/Inc/stm32f4xx_ll_dma.h ****   *         @arg @ref LL_DMA_STREAM_2
1523:Drivers/STM32F4xx_HAL_Driver/Inc/stm32f4xx_ll_dma.h ****   *         @arg @ref LL_DMA_STREAM_3
1524:Drivers/STM32F4xx_HAL_Driver/Inc/stm32f4xx_ll_dma.h ****   *         @arg @ref LL_DMA_STREAM_4
1525:Drivers/STM32F4xx_HAL_Driver/Inc/stm32f4xx_ll_dma.h ****   *         @arg @ref LL_DMA_STREAM_5
1526:Drivers/STM32F4xx_HAL_Driver/Inc/stm32f4xx_ll_dma.h ****   *         @arg @ref LL_DMA_STREAM_6
1527:Drivers/STM32F4xx_HAL_Driver/Inc/stm32f4xx_ll_dma.h ****   *         @arg @ref LL_DMA_STREAM_7
1528:Drivers/STM32F4xx_HAL_Driver/Inc/stm32f4xx_ll_dma.h ****   * @param  MemoryAddress Between 0 to 0xFFFFFFFF
1529:Drivers/STM32F4xx_HAL_Driver/Inc/stm32f4xx_ll_dma.h ****   * @retval None
1530:Drivers/STM32F4xx_HAL_Driver/Inc/stm32f4xx_ll_dma.h ****   */
1531:Drivers/STM32F4xx_HAL_Driver/Inc/stm32f4xx_ll_dma.h **** __STATIC_INLINE void LL_DMA_SetM2MSrcAddress(DMA_TypeDef* DMAx, uint32_t Stream, uint32_t MemoryAdd
1532:Drivers/STM32F4xx_HAL_Driver/Inc/stm32f4xx_ll_dma.h **** {
1533:Drivers/STM32F4xx_HAL_Driver/Inc/stm32f4xx_ll_dma.h ****   WRITE_REG(((DMA_Stream_TypeDef*)((uint32_t)((uint32_t)DMAx + STREAM_OFFSET_TAB[Stream])))->PAR, M
1534:Drivers/STM32F4xx_HAL_Driver/Inc/stm32f4xx_ll_dma.h **** }
1535:Drivers/STM32F4xx_HAL_Driver/Inc/stm32f4xx_ll_dma.h **** 
1536:Drivers/STM32F4xx_HAL_Driver/Inc/stm32f4xx_ll_dma.h **** /**
1537:Drivers/STM32F4xx_HAL_Driver/Inc/stm32f4xx_ll_dma.h ****   * @brief  Set the Memory to Memory Destination address.
1538:Drivers/STM32F4xx_HAL_Driver/Inc/stm32f4xx_ll_dma.h ****   * @rmtoll M0AR        M0A         LL_DMA_SetM2MDstAddress
1539:Drivers/STM32F4xx_HAL_Driver/Inc/stm32f4xx_ll_dma.h ****   * @note   Interface used for direction LL_DMA_DIRECTION_MEMORY_TO_MEMORY only.
1540:Drivers/STM32F4xx_HAL_Driver/Inc/stm32f4xx_ll_dma.h ****   * @note   This API must not be called when the DMA channel is enabled.
1541:Drivers/STM32F4xx_HAL_Driver/Inc/stm32f4xx_ll_dma.h ****   * @param  DMAx DMAx Instance
1542:Drivers/STM32F4xx_HAL_Driver/Inc/stm32f4xx_ll_dma.h ****   * @param  Stream This parameter can be one of the following values:
1543:Drivers/STM32F4xx_HAL_Driver/Inc/stm32f4xx_ll_dma.h ****   *         @arg @ref LL_DMA_STREAM_0
1544:Drivers/STM32F4xx_HAL_Driver/Inc/stm32f4xx_ll_dma.h ****   *         @arg @ref LL_DMA_STREAM_1
1545:Drivers/STM32F4xx_HAL_Driver/Inc/stm32f4xx_ll_dma.h ****   *         @arg @ref LL_DMA_STREAM_2
1546:Drivers/STM32F4xx_HAL_Driver/Inc/stm32f4xx_ll_dma.h ****   *         @arg @ref LL_DMA_STREAM_3
1547:Drivers/STM32F4xx_HAL_Driver/Inc/stm32f4xx_ll_dma.h ****   *         @arg @ref LL_DMA_STREAM_4
1548:Drivers/STM32F4xx_HAL_Driver/Inc/stm32f4xx_ll_dma.h ****   *         @arg @ref LL_DMA_STREAM_5
1549:Drivers/STM32F4xx_HAL_Driver/Inc/stm32f4xx_ll_dma.h ****   *         @arg @ref LL_DMA_STREAM_6
1550:Drivers/STM32F4xx_HAL_Driver/Inc/stm32f4xx_ll_dma.h ****   *         @arg @ref LL_DMA_STREAM_7
1551:Drivers/STM32F4xx_HAL_Driver/Inc/stm32f4xx_ll_dma.h ****   * @param  MemoryAddress Between 0 to 0xFFFFFFFF
1552:Drivers/STM32F4xx_HAL_Driver/Inc/stm32f4xx_ll_dma.h ****   * @retval None
1553:Drivers/STM32F4xx_HAL_Driver/Inc/stm32f4xx_ll_dma.h ****   */
1554:Drivers/STM32F4xx_HAL_Driver/Inc/stm32f4xx_ll_dma.h **** __STATIC_INLINE void LL_DMA_SetM2MDstAddress(DMA_TypeDef* DMAx, uint32_t Stream, uint32_t MemoryAdd
1555:Drivers/STM32F4xx_HAL_Driver/Inc/stm32f4xx_ll_dma.h ****   {
1556:Drivers/STM32F4xx_HAL_Driver/Inc/stm32f4xx_ll_dma.h ****     WRITE_REG(((DMA_Stream_TypeDef*)((uint32_t)((uint32_t)DMAx + STREAM_OFFSET_TAB[Stream])))->M0AR
1557:Drivers/STM32F4xx_HAL_Driver/Inc/stm32f4xx_ll_dma.h ****   }
1558:Drivers/STM32F4xx_HAL_Driver/Inc/stm32f4xx_ll_dma.h **** 
1559:Drivers/STM32F4xx_HAL_Driver/Inc/stm32f4xx_ll_dma.h **** /**
1560:Drivers/STM32F4xx_HAL_Driver/Inc/stm32f4xx_ll_dma.h ****   * @brief  Get the Memory to Memory Source address.
ARM GAS  /tmp/cc58ZD3F.s 			page 40


1561:Drivers/STM32F4xx_HAL_Driver/Inc/stm32f4xx_ll_dma.h ****   * @rmtoll PAR        PA         LL_DMA_GetM2MSrcAddress
1562:Drivers/STM32F4xx_HAL_Driver/Inc/stm32f4xx_ll_dma.h ****   * @note   Interface used for direction LL_DMA_DIRECTION_MEMORY_TO_MEMORY only.
1563:Drivers/STM32F4xx_HAL_Driver/Inc/stm32f4xx_ll_dma.h ****   * @param  DMAx DMAx Instance
1564:Drivers/STM32F4xx_HAL_Driver/Inc/stm32f4xx_ll_dma.h ****   * @param  Stream This parameter can be one of the following values:
1565:Drivers/STM32F4xx_HAL_Driver/Inc/stm32f4xx_ll_dma.h ****   *         @arg @ref LL_DMA_STREAM_0
1566:Drivers/STM32F4xx_HAL_Driver/Inc/stm32f4xx_ll_dma.h ****   *         @arg @ref LL_DMA_STREAM_1
1567:Drivers/STM32F4xx_HAL_Driver/Inc/stm32f4xx_ll_dma.h ****   *         @arg @ref LL_DMA_STREAM_2
1568:Drivers/STM32F4xx_HAL_Driver/Inc/stm32f4xx_ll_dma.h ****   *         @arg @ref LL_DMA_STREAM_3
1569:Drivers/STM32F4xx_HAL_Driver/Inc/stm32f4xx_ll_dma.h ****   *         @arg @ref LL_DMA_STREAM_4
1570:Drivers/STM32F4xx_HAL_Driver/Inc/stm32f4xx_ll_dma.h ****   *         @arg @ref LL_DMA_STREAM_5
1571:Drivers/STM32F4xx_HAL_Driver/Inc/stm32f4xx_ll_dma.h ****   *         @arg @ref LL_DMA_STREAM_6
1572:Drivers/STM32F4xx_HAL_Driver/Inc/stm32f4xx_ll_dma.h ****   *         @arg @ref LL_DMA_STREAM_7
1573:Drivers/STM32F4xx_HAL_Driver/Inc/stm32f4xx_ll_dma.h ****   * @retval Between 0 to 0xFFFFFFFF
1574:Drivers/STM32F4xx_HAL_Driver/Inc/stm32f4xx_ll_dma.h ****   */
1575:Drivers/STM32F4xx_HAL_Driver/Inc/stm32f4xx_ll_dma.h **** __STATIC_INLINE uint32_t LL_DMA_GetM2MSrcAddress(DMA_TypeDef* DMAx, uint32_t Stream)
1576:Drivers/STM32F4xx_HAL_Driver/Inc/stm32f4xx_ll_dma.h ****   {
1577:Drivers/STM32F4xx_HAL_Driver/Inc/stm32f4xx_ll_dma.h ****    return (READ_REG(((DMA_Stream_TypeDef *)((uint32_t)((uint32_t)DMAx + STREAM_OFFSET_TAB[Stream]))
1578:Drivers/STM32F4xx_HAL_Driver/Inc/stm32f4xx_ll_dma.h ****   }
1579:Drivers/STM32F4xx_HAL_Driver/Inc/stm32f4xx_ll_dma.h **** 
1580:Drivers/STM32F4xx_HAL_Driver/Inc/stm32f4xx_ll_dma.h **** /**
1581:Drivers/STM32F4xx_HAL_Driver/Inc/stm32f4xx_ll_dma.h ****   * @brief  Get the Memory to Memory Destination address.
1582:Drivers/STM32F4xx_HAL_Driver/Inc/stm32f4xx_ll_dma.h ****   * @rmtoll M0AR        M0A         LL_DMA_GetM2MDstAddress
1583:Drivers/STM32F4xx_HAL_Driver/Inc/stm32f4xx_ll_dma.h ****   * @note   Interface used for direction LL_DMA_DIRECTION_MEMORY_TO_MEMORY only.
1584:Drivers/STM32F4xx_HAL_Driver/Inc/stm32f4xx_ll_dma.h ****   * @param  DMAx DMAx Instance
1585:Drivers/STM32F4xx_HAL_Driver/Inc/stm32f4xx_ll_dma.h ****   * @param  Stream This parameter can be one of the following values:
1586:Drivers/STM32F4xx_HAL_Driver/Inc/stm32f4xx_ll_dma.h ****   *         @arg @ref LL_DMA_STREAM_0
1587:Drivers/STM32F4xx_HAL_Driver/Inc/stm32f4xx_ll_dma.h ****   *         @arg @ref LL_DMA_STREAM_1
1588:Drivers/STM32F4xx_HAL_Driver/Inc/stm32f4xx_ll_dma.h ****   *         @arg @ref LL_DMA_STREAM_2
1589:Drivers/STM32F4xx_HAL_Driver/Inc/stm32f4xx_ll_dma.h ****   *         @arg @ref LL_DMA_STREAM_3
1590:Drivers/STM32F4xx_HAL_Driver/Inc/stm32f4xx_ll_dma.h ****   *         @arg @ref LL_DMA_STREAM_4
1591:Drivers/STM32F4xx_HAL_Driver/Inc/stm32f4xx_ll_dma.h ****   *         @arg @ref LL_DMA_STREAM_5
1592:Drivers/STM32F4xx_HAL_Driver/Inc/stm32f4xx_ll_dma.h ****   *         @arg @ref LL_DMA_STREAM_6
1593:Drivers/STM32F4xx_HAL_Driver/Inc/stm32f4xx_ll_dma.h ****   *         @arg @ref LL_DMA_STREAM_7
1594:Drivers/STM32F4xx_HAL_Driver/Inc/stm32f4xx_ll_dma.h ****   * @retval Between 0 to 0xFFFFFFFF
1595:Drivers/STM32F4xx_HAL_Driver/Inc/stm32f4xx_ll_dma.h ****   */
1596:Drivers/STM32F4xx_HAL_Driver/Inc/stm32f4xx_ll_dma.h **** __STATIC_INLINE uint32_t LL_DMA_GetM2MDstAddress(DMA_TypeDef* DMAx, uint32_t Stream)
1597:Drivers/STM32F4xx_HAL_Driver/Inc/stm32f4xx_ll_dma.h **** {
1598:Drivers/STM32F4xx_HAL_Driver/Inc/stm32f4xx_ll_dma.h ****  return (READ_REG(((DMA_Stream_TypeDef*)((uint32_t)((uint32_t)DMAx + STREAM_OFFSET_TAB[Stream])))->
1599:Drivers/STM32F4xx_HAL_Driver/Inc/stm32f4xx_ll_dma.h **** }
1600:Drivers/STM32F4xx_HAL_Driver/Inc/stm32f4xx_ll_dma.h **** 
1601:Drivers/STM32F4xx_HAL_Driver/Inc/stm32f4xx_ll_dma.h **** /**
1602:Drivers/STM32F4xx_HAL_Driver/Inc/stm32f4xx_ll_dma.h ****   * @brief Set Memory 1 address (used in case of Double buffer mode).
1603:Drivers/STM32F4xx_HAL_Driver/Inc/stm32f4xx_ll_dma.h ****   * @rmtoll M1AR        M1A         LL_DMA_SetMemory1Address
1604:Drivers/STM32F4xx_HAL_Driver/Inc/stm32f4xx_ll_dma.h ****   * @param  DMAx DMAx Instance
1605:Drivers/STM32F4xx_HAL_Driver/Inc/stm32f4xx_ll_dma.h ****   * @param  Stream This parameter can be one of the following values:
1606:Drivers/STM32F4xx_HAL_Driver/Inc/stm32f4xx_ll_dma.h ****   *         @arg @ref LL_DMA_STREAM_0
1607:Drivers/STM32F4xx_HAL_Driver/Inc/stm32f4xx_ll_dma.h ****   *         @arg @ref LL_DMA_STREAM_1
1608:Drivers/STM32F4xx_HAL_Driver/Inc/stm32f4xx_ll_dma.h ****   *         @arg @ref LL_DMA_STREAM_2
1609:Drivers/STM32F4xx_HAL_Driver/Inc/stm32f4xx_ll_dma.h ****   *         @arg @ref LL_DMA_STREAM_3
1610:Drivers/STM32F4xx_HAL_Driver/Inc/stm32f4xx_ll_dma.h ****   *         @arg @ref LL_DMA_STREAM_4
1611:Drivers/STM32F4xx_HAL_Driver/Inc/stm32f4xx_ll_dma.h ****   *         @arg @ref LL_DMA_STREAM_5
1612:Drivers/STM32F4xx_HAL_Driver/Inc/stm32f4xx_ll_dma.h ****   *         @arg @ref LL_DMA_STREAM_6
1613:Drivers/STM32F4xx_HAL_Driver/Inc/stm32f4xx_ll_dma.h ****   *         @arg @ref LL_DMA_STREAM_7
1614:Drivers/STM32F4xx_HAL_Driver/Inc/stm32f4xx_ll_dma.h ****   * @param  Address Between 0 to 0xFFFFFFFF
1615:Drivers/STM32F4xx_HAL_Driver/Inc/stm32f4xx_ll_dma.h ****   * @retval None
1616:Drivers/STM32F4xx_HAL_Driver/Inc/stm32f4xx_ll_dma.h ****   */
1617:Drivers/STM32F4xx_HAL_Driver/Inc/stm32f4xx_ll_dma.h **** __STATIC_INLINE void LL_DMA_SetMemory1Address(DMA_TypeDef *DMAx, uint32_t Stream, uint32_t Address)
ARM GAS  /tmp/cc58ZD3F.s 			page 41


1618:Drivers/STM32F4xx_HAL_Driver/Inc/stm32f4xx_ll_dma.h **** {
1619:Drivers/STM32F4xx_HAL_Driver/Inc/stm32f4xx_ll_dma.h ****   MODIFY_REG(((DMA_Stream_TypeDef*)((uint32_t)((uint32_t)DMAx + STREAM_OFFSET_TAB[Stream])))->M1AR,
1620:Drivers/STM32F4xx_HAL_Driver/Inc/stm32f4xx_ll_dma.h **** }
1621:Drivers/STM32F4xx_HAL_Driver/Inc/stm32f4xx_ll_dma.h **** 
1622:Drivers/STM32F4xx_HAL_Driver/Inc/stm32f4xx_ll_dma.h **** /**
1623:Drivers/STM32F4xx_HAL_Driver/Inc/stm32f4xx_ll_dma.h ****   * @brief Get Memory 1 address (used in case of Double buffer mode).
1624:Drivers/STM32F4xx_HAL_Driver/Inc/stm32f4xx_ll_dma.h ****   * @rmtoll M1AR        M1A         LL_DMA_GetMemory1Address
1625:Drivers/STM32F4xx_HAL_Driver/Inc/stm32f4xx_ll_dma.h ****   * @param  DMAx DMAx Instance
1626:Drivers/STM32F4xx_HAL_Driver/Inc/stm32f4xx_ll_dma.h ****   * @param  Stream This parameter can be one of the following values:
1627:Drivers/STM32F4xx_HAL_Driver/Inc/stm32f4xx_ll_dma.h ****   *         @arg @ref LL_DMA_STREAM_0
1628:Drivers/STM32F4xx_HAL_Driver/Inc/stm32f4xx_ll_dma.h ****   *         @arg @ref LL_DMA_STREAM_1
1629:Drivers/STM32F4xx_HAL_Driver/Inc/stm32f4xx_ll_dma.h ****   *         @arg @ref LL_DMA_STREAM_2
1630:Drivers/STM32F4xx_HAL_Driver/Inc/stm32f4xx_ll_dma.h ****   *         @arg @ref LL_DMA_STREAM_3
1631:Drivers/STM32F4xx_HAL_Driver/Inc/stm32f4xx_ll_dma.h ****   *         @arg @ref LL_DMA_STREAM_4
1632:Drivers/STM32F4xx_HAL_Driver/Inc/stm32f4xx_ll_dma.h ****   *         @arg @ref LL_DMA_STREAM_5
1633:Drivers/STM32F4xx_HAL_Driver/Inc/stm32f4xx_ll_dma.h ****   *         @arg @ref LL_DMA_STREAM_6
1634:Drivers/STM32F4xx_HAL_Driver/Inc/stm32f4xx_ll_dma.h ****   *         @arg @ref LL_DMA_STREAM_7
1635:Drivers/STM32F4xx_HAL_Driver/Inc/stm32f4xx_ll_dma.h ****   * @retval Between 0 to 0xFFFFFFFF
1636:Drivers/STM32F4xx_HAL_Driver/Inc/stm32f4xx_ll_dma.h ****   */
1637:Drivers/STM32F4xx_HAL_Driver/Inc/stm32f4xx_ll_dma.h **** __STATIC_INLINE uint32_t LL_DMA_GetMemory1Address(DMA_TypeDef *DMAx, uint32_t Stream)
1638:Drivers/STM32F4xx_HAL_Driver/Inc/stm32f4xx_ll_dma.h **** {
1639:Drivers/STM32F4xx_HAL_Driver/Inc/stm32f4xx_ll_dma.h ****   return (((DMA_Stream_TypeDef*)((uint32_t)((uint32_t)DMAx + STREAM_OFFSET_TAB[Stream])))->M1AR);
1640:Drivers/STM32F4xx_HAL_Driver/Inc/stm32f4xx_ll_dma.h **** }
1641:Drivers/STM32F4xx_HAL_Driver/Inc/stm32f4xx_ll_dma.h **** 
1642:Drivers/STM32F4xx_HAL_Driver/Inc/stm32f4xx_ll_dma.h **** /**
1643:Drivers/STM32F4xx_HAL_Driver/Inc/stm32f4xx_ll_dma.h ****   * @}
1644:Drivers/STM32F4xx_HAL_Driver/Inc/stm32f4xx_ll_dma.h ****   */
1645:Drivers/STM32F4xx_HAL_Driver/Inc/stm32f4xx_ll_dma.h **** 
1646:Drivers/STM32F4xx_HAL_Driver/Inc/stm32f4xx_ll_dma.h **** /** @defgroup DMA_LL_EF_FLAG_Management FLAG_Management
1647:Drivers/STM32F4xx_HAL_Driver/Inc/stm32f4xx_ll_dma.h ****   * @{
1648:Drivers/STM32F4xx_HAL_Driver/Inc/stm32f4xx_ll_dma.h ****   */
1649:Drivers/STM32F4xx_HAL_Driver/Inc/stm32f4xx_ll_dma.h **** 
1650:Drivers/STM32F4xx_HAL_Driver/Inc/stm32f4xx_ll_dma.h **** /**
1651:Drivers/STM32F4xx_HAL_Driver/Inc/stm32f4xx_ll_dma.h ****   * @brief Get Stream 0 half transfer flag.
1652:Drivers/STM32F4xx_HAL_Driver/Inc/stm32f4xx_ll_dma.h ****   * @rmtoll LISR  HTIF0    LL_DMA_IsActiveFlag_HT0
1653:Drivers/STM32F4xx_HAL_Driver/Inc/stm32f4xx_ll_dma.h ****   * @param  DMAx DMAx Instance
1654:Drivers/STM32F4xx_HAL_Driver/Inc/stm32f4xx_ll_dma.h ****   * @retval State of bit (1 or 0).
1655:Drivers/STM32F4xx_HAL_Driver/Inc/stm32f4xx_ll_dma.h ****   */
1656:Drivers/STM32F4xx_HAL_Driver/Inc/stm32f4xx_ll_dma.h **** __STATIC_INLINE uint32_t LL_DMA_IsActiveFlag_HT0(DMA_TypeDef *DMAx)
1657:Drivers/STM32F4xx_HAL_Driver/Inc/stm32f4xx_ll_dma.h **** {
1658:Drivers/STM32F4xx_HAL_Driver/Inc/stm32f4xx_ll_dma.h ****   return (READ_BIT(DMAx->LISR ,DMA_LISR_HTIF0)==(DMA_LISR_HTIF0));
1659:Drivers/STM32F4xx_HAL_Driver/Inc/stm32f4xx_ll_dma.h **** }
1660:Drivers/STM32F4xx_HAL_Driver/Inc/stm32f4xx_ll_dma.h **** 
1661:Drivers/STM32F4xx_HAL_Driver/Inc/stm32f4xx_ll_dma.h **** /**
1662:Drivers/STM32F4xx_HAL_Driver/Inc/stm32f4xx_ll_dma.h ****   * @brief Get Stream 1 half transfer flag.
1663:Drivers/STM32F4xx_HAL_Driver/Inc/stm32f4xx_ll_dma.h ****   * @rmtoll LISR  HTIF1    LL_DMA_IsActiveFlag_HT1
1664:Drivers/STM32F4xx_HAL_Driver/Inc/stm32f4xx_ll_dma.h ****   * @param  DMAx DMAx Instance
1665:Drivers/STM32F4xx_HAL_Driver/Inc/stm32f4xx_ll_dma.h ****   * @retval State of bit (1 or 0).
1666:Drivers/STM32F4xx_HAL_Driver/Inc/stm32f4xx_ll_dma.h ****   */
1667:Drivers/STM32F4xx_HAL_Driver/Inc/stm32f4xx_ll_dma.h **** __STATIC_INLINE uint32_t LL_DMA_IsActiveFlag_HT1(DMA_TypeDef *DMAx)
1668:Drivers/STM32F4xx_HAL_Driver/Inc/stm32f4xx_ll_dma.h **** {
1669:Drivers/STM32F4xx_HAL_Driver/Inc/stm32f4xx_ll_dma.h ****   return (READ_BIT(DMAx->LISR ,DMA_LISR_HTIF1)==(DMA_LISR_HTIF1));
1670:Drivers/STM32F4xx_HAL_Driver/Inc/stm32f4xx_ll_dma.h **** }
1671:Drivers/STM32F4xx_HAL_Driver/Inc/stm32f4xx_ll_dma.h **** 
1672:Drivers/STM32F4xx_HAL_Driver/Inc/stm32f4xx_ll_dma.h **** /**
1673:Drivers/STM32F4xx_HAL_Driver/Inc/stm32f4xx_ll_dma.h ****   * @brief Get Stream 2 half transfer flag.
1674:Drivers/STM32F4xx_HAL_Driver/Inc/stm32f4xx_ll_dma.h ****   * @rmtoll LISR  HTIF2    LL_DMA_IsActiveFlag_HT2
ARM GAS  /tmp/cc58ZD3F.s 			page 42


1675:Drivers/STM32F4xx_HAL_Driver/Inc/stm32f4xx_ll_dma.h ****   * @param  DMAx DMAx Instance
1676:Drivers/STM32F4xx_HAL_Driver/Inc/stm32f4xx_ll_dma.h ****   * @retval State of bit (1 or 0).
1677:Drivers/STM32F4xx_HAL_Driver/Inc/stm32f4xx_ll_dma.h ****   */
1678:Drivers/STM32F4xx_HAL_Driver/Inc/stm32f4xx_ll_dma.h **** __STATIC_INLINE uint32_t LL_DMA_IsActiveFlag_HT2(DMA_TypeDef *DMAx)
1679:Drivers/STM32F4xx_HAL_Driver/Inc/stm32f4xx_ll_dma.h **** {
1680:Drivers/STM32F4xx_HAL_Driver/Inc/stm32f4xx_ll_dma.h ****   return (READ_BIT(DMAx->LISR ,DMA_LISR_HTIF2)==(DMA_LISR_HTIF2));
1681:Drivers/STM32F4xx_HAL_Driver/Inc/stm32f4xx_ll_dma.h **** }
1682:Drivers/STM32F4xx_HAL_Driver/Inc/stm32f4xx_ll_dma.h **** 
1683:Drivers/STM32F4xx_HAL_Driver/Inc/stm32f4xx_ll_dma.h **** /**
1684:Drivers/STM32F4xx_HAL_Driver/Inc/stm32f4xx_ll_dma.h ****   * @brief Get Stream 3 half transfer flag.
1685:Drivers/STM32F4xx_HAL_Driver/Inc/stm32f4xx_ll_dma.h ****   * @rmtoll LISR  HTIF3    LL_DMA_IsActiveFlag_HT3
1686:Drivers/STM32F4xx_HAL_Driver/Inc/stm32f4xx_ll_dma.h ****   * @param  DMAx DMAx Instance
1687:Drivers/STM32F4xx_HAL_Driver/Inc/stm32f4xx_ll_dma.h ****   * @retval State of bit (1 or 0).
1688:Drivers/STM32F4xx_HAL_Driver/Inc/stm32f4xx_ll_dma.h ****   */
1689:Drivers/STM32F4xx_HAL_Driver/Inc/stm32f4xx_ll_dma.h **** __STATIC_INLINE uint32_t LL_DMA_IsActiveFlag_HT3(DMA_TypeDef *DMAx)
1690:Drivers/STM32F4xx_HAL_Driver/Inc/stm32f4xx_ll_dma.h **** {
1691:Drivers/STM32F4xx_HAL_Driver/Inc/stm32f4xx_ll_dma.h ****   return (READ_BIT(DMAx->LISR ,DMA_LISR_HTIF3)==(DMA_LISR_HTIF3));
1692:Drivers/STM32F4xx_HAL_Driver/Inc/stm32f4xx_ll_dma.h **** }
1693:Drivers/STM32F4xx_HAL_Driver/Inc/stm32f4xx_ll_dma.h **** 
1694:Drivers/STM32F4xx_HAL_Driver/Inc/stm32f4xx_ll_dma.h **** /**
1695:Drivers/STM32F4xx_HAL_Driver/Inc/stm32f4xx_ll_dma.h ****   * @brief Get Stream 4 half transfer flag.
1696:Drivers/STM32F4xx_HAL_Driver/Inc/stm32f4xx_ll_dma.h ****   * @rmtoll HISR  HTIF4    LL_DMA_IsActiveFlag_HT4
1697:Drivers/STM32F4xx_HAL_Driver/Inc/stm32f4xx_ll_dma.h ****   * @param  DMAx DMAx Instance
1698:Drivers/STM32F4xx_HAL_Driver/Inc/stm32f4xx_ll_dma.h ****   * @retval State of bit (1 or 0).
1699:Drivers/STM32F4xx_HAL_Driver/Inc/stm32f4xx_ll_dma.h ****   */
1700:Drivers/STM32F4xx_HAL_Driver/Inc/stm32f4xx_ll_dma.h **** __STATIC_INLINE uint32_t LL_DMA_IsActiveFlag_HT4(DMA_TypeDef *DMAx)
1701:Drivers/STM32F4xx_HAL_Driver/Inc/stm32f4xx_ll_dma.h **** {
1702:Drivers/STM32F4xx_HAL_Driver/Inc/stm32f4xx_ll_dma.h ****   return (READ_BIT(DMAx->HISR ,DMA_HISR_HTIF4)==(DMA_HISR_HTIF4));
1703:Drivers/STM32F4xx_HAL_Driver/Inc/stm32f4xx_ll_dma.h **** }
1704:Drivers/STM32F4xx_HAL_Driver/Inc/stm32f4xx_ll_dma.h **** 
1705:Drivers/STM32F4xx_HAL_Driver/Inc/stm32f4xx_ll_dma.h **** /**
1706:Drivers/STM32F4xx_HAL_Driver/Inc/stm32f4xx_ll_dma.h ****   * @brief Get Stream 5 half transfer flag.
1707:Drivers/STM32F4xx_HAL_Driver/Inc/stm32f4xx_ll_dma.h ****   * @rmtoll HISR  HTIF0    LL_DMA_IsActiveFlag_HT5
1708:Drivers/STM32F4xx_HAL_Driver/Inc/stm32f4xx_ll_dma.h ****   * @param  DMAx DMAx Instance
1709:Drivers/STM32F4xx_HAL_Driver/Inc/stm32f4xx_ll_dma.h ****   * @retval State of bit (1 or 0).
1710:Drivers/STM32F4xx_HAL_Driver/Inc/stm32f4xx_ll_dma.h ****   */
1711:Drivers/STM32F4xx_HAL_Driver/Inc/stm32f4xx_ll_dma.h **** __STATIC_INLINE uint32_t LL_DMA_IsActiveFlag_HT5(DMA_TypeDef *DMAx)
1712:Drivers/STM32F4xx_HAL_Driver/Inc/stm32f4xx_ll_dma.h **** {
1713:Drivers/STM32F4xx_HAL_Driver/Inc/stm32f4xx_ll_dma.h ****   return (READ_BIT(DMAx->HISR ,DMA_HISR_HTIF5)==(DMA_HISR_HTIF5));
1714:Drivers/STM32F4xx_HAL_Driver/Inc/stm32f4xx_ll_dma.h **** }
1715:Drivers/STM32F4xx_HAL_Driver/Inc/stm32f4xx_ll_dma.h **** 
1716:Drivers/STM32F4xx_HAL_Driver/Inc/stm32f4xx_ll_dma.h **** /**
1717:Drivers/STM32F4xx_HAL_Driver/Inc/stm32f4xx_ll_dma.h ****   * @brief Get Stream 6 half transfer flag.
1718:Drivers/STM32F4xx_HAL_Driver/Inc/stm32f4xx_ll_dma.h ****   * @rmtoll HISR  HTIF6    LL_DMA_IsActiveFlag_HT6
1719:Drivers/STM32F4xx_HAL_Driver/Inc/stm32f4xx_ll_dma.h ****   * @param  DMAx DMAx Instance
1720:Drivers/STM32F4xx_HAL_Driver/Inc/stm32f4xx_ll_dma.h ****   * @retval State of bit (1 or 0).
1721:Drivers/STM32F4xx_HAL_Driver/Inc/stm32f4xx_ll_dma.h ****   */
1722:Drivers/STM32F4xx_HAL_Driver/Inc/stm32f4xx_ll_dma.h **** __STATIC_INLINE uint32_t LL_DMA_IsActiveFlag_HT6(DMA_TypeDef *DMAx)
1723:Drivers/STM32F4xx_HAL_Driver/Inc/stm32f4xx_ll_dma.h **** {
1724:Drivers/STM32F4xx_HAL_Driver/Inc/stm32f4xx_ll_dma.h ****   return (READ_BIT(DMAx->HISR ,DMA_HISR_HTIF6)==(DMA_HISR_HTIF6));
1725:Drivers/STM32F4xx_HAL_Driver/Inc/stm32f4xx_ll_dma.h **** }
1726:Drivers/STM32F4xx_HAL_Driver/Inc/stm32f4xx_ll_dma.h **** 
1727:Drivers/STM32F4xx_HAL_Driver/Inc/stm32f4xx_ll_dma.h **** /**
1728:Drivers/STM32F4xx_HAL_Driver/Inc/stm32f4xx_ll_dma.h ****   * @brief Get Stream 7 half transfer flag.
1729:Drivers/STM32F4xx_HAL_Driver/Inc/stm32f4xx_ll_dma.h ****   * @rmtoll HISR  HTIF7    LL_DMA_IsActiveFlag_HT7
1730:Drivers/STM32F4xx_HAL_Driver/Inc/stm32f4xx_ll_dma.h ****   * @param  DMAx DMAx Instance
1731:Drivers/STM32F4xx_HAL_Driver/Inc/stm32f4xx_ll_dma.h ****   * @retval State of bit (1 or 0).
ARM GAS  /tmp/cc58ZD3F.s 			page 43


1732:Drivers/STM32F4xx_HAL_Driver/Inc/stm32f4xx_ll_dma.h ****   */
1733:Drivers/STM32F4xx_HAL_Driver/Inc/stm32f4xx_ll_dma.h **** __STATIC_INLINE uint32_t LL_DMA_IsActiveFlag_HT7(DMA_TypeDef *DMAx)
1734:Drivers/STM32F4xx_HAL_Driver/Inc/stm32f4xx_ll_dma.h **** {
1735:Drivers/STM32F4xx_HAL_Driver/Inc/stm32f4xx_ll_dma.h ****   return (READ_BIT(DMAx->HISR ,DMA_HISR_HTIF7)==(DMA_HISR_HTIF7));
1736:Drivers/STM32F4xx_HAL_Driver/Inc/stm32f4xx_ll_dma.h **** } 
1737:Drivers/STM32F4xx_HAL_Driver/Inc/stm32f4xx_ll_dma.h **** 
1738:Drivers/STM32F4xx_HAL_Driver/Inc/stm32f4xx_ll_dma.h **** /**
1739:Drivers/STM32F4xx_HAL_Driver/Inc/stm32f4xx_ll_dma.h ****   * @brief Get Stream 0 transfer complete flag.
1740:Drivers/STM32F4xx_HAL_Driver/Inc/stm32f4xx_ll_dma.h ****   * @rmtoll LISR  TCIF0    LL_DMA_IsActiveFlag_TC0
1741:Drivers/STM32F4xx_HAL_Driver/Inc/stm32f4xx_ll_dma.h ****   * @param  DMAx DMAx Instance
1742:Drivers/STM32F4xx_HAL_Driver/Inc/stm32f4xx_ll_dma.h ****   * @retval State of bit (1 or 0).
1743:Drivers/STM32F4xx_HAL_Driver/Inc/stm32f4xx_ll_dma.h ****   */
1744:Drivers/STM32F4xx_HAL_Driver/Inc/stm32f4xx_ll_dma.h **** __STATIC_INLINE uint32_t LL_DMA_IsActiveFlag_TC0(DMA_TypeDef *DMAx)
1745:Drivers/STM32F4xx_HAL_Driver/Inc/stm32f4xx_ll_dma.h **** {
1746:Drivers/STM32F4xx_HAL_Driver/Inc/stm32f4xx_ll_dma.h ****   return (READ_BIT(DMAx->LISR ,DMA_LISR_TCIF0)==(DMA_LISR_TCIF0));
1747:Drivers/STM32F4xx_HAL_Driver/Inc/stm32f4xx_ll_dma.h **** }
1748:Drivers/STM32F4xx_HAL_Driver/Inc/stm32f4xx_ll_dma.h **** 
1749:Drivers/STM32F4xx_HAL_Driver/Inc/stm32f4xx_ll_dma.h **** /**
1750:Drivers/STM32F4xx_HAL_Driver/Inc/stm32f4xx_ll_dma.h ****   * @brief Get Stream 1 transfer complete flag.
1751:Drivers/STM32F4xx_HAL_Driver/Inc/stm32f4xx_ll_dma.h ****   * @rmtoll LISR  TCIF1    LL_DMA_IsActiveFlag_TC1
1752:Drivers/STM32F4xx_HAL_Driver/Inc/stm32f4xx_ll_dma.h ****   * @param  DMAx DMAx Instance
1753:Drivers/STM32F4xx_HAL_Driver/Inc/stm32f4xx_ll_dma.h ****   * @retval State of bit (1 or 0).
1754:Drivers/STM32F4xx_HAL_Driver/Inc/stm32f4xx_ll_dma.h ****   */
1755:Drivers/STM32F4xx_HAL_Driver/Inc/stm32f4xx_ll_dma.h **** __STATIC_INLINE uint32_t LL_DMA_IsActiveFlag_TC1(DMA_TypeDef *DMAx)
1756:Drivers/STM32F4xx_HAL_Driver/Inc/stm32f4xx_ll_dma.h **** {
1757:Drivers/STM32F4xx_HAL_Driver/Inc/stm32f4xx_ll_dma.h ****   return (READ_BIT(DMAx->LISR ,DMA_LISR_TCIF1)==(DMA_LISR_TCIF1));
1758:Drivers/STM32F4xx_HAL_Driver/Inc/stm32f4xx_ll_dma.h **** }
1759:Drivers/STM32F4xx_HAL_Driver/Inc/stm32f4xx_ll_dma.h **** 
1760:Drivers/STM32F4xx_HAL_Driver/Inc/stm32f4xx_ll_dma.h **** /**
1761:Drivers/STM32F4xx_HAL_Driver/Inc/stm32f4xx_ll_dma.h ****   * @brief Get Stream 2 transfer complete flag.
1762:Drivers/STM32F4xx_HAL_Driver/Inc/stm32f4xx_ll_dma.h ****   * @rmtoll LISR  TCIF2    LL_DMA_IsActiveFlag_TC2
1763:Drivers/STM32F4xx_HAL_Driver/Inc/stm32f4xx_ll_dma.h ****   * @param  DMAx DMAx Instance
1764:Drivers/STM32F4xx_HAL_Driver/Inc/stm32f4xx_ll_dma.h ****   * @retval State of bit (1 or 0).
1765:Drivers/STM32F4xx_HAL_Driver/Inc/stm32f4xx_ll_dma.h ****   */
1766:Drivers/STM32F4xx_HAL_Driver/Inc/stm32f4xx_ll_dma.h **** __STATIC_INLINE uint32_t LL_DMA_IsActiveFlag_TC2(DMA_TypeDef *DMAx)
1767:Drivers/STM32F4xx_HAL_Driver/Inc/stm32f4xx_ll_dma.h **** {
1768:Drivers/STM32F4xx_HAL_Driver/Inc/stm32f4xx_ll_dma.h ****   return (READ_BIT(DMAx->LISR ,DMA_LISR_TCIF2)==(DMA_LISR_TCIF2));
1769:Drivers/STM32F4xx_HAL_Driver/Inc/stm32f4xx_ll_dma.h **** }
1770:Drivers/STM32F4xx_HAL_Driver/Inc/stm32f4xx_ll_dma.h **** 
1771:Drivers/STM32F4xx_HAL_Driver/Inc/stm32f4xx_ll_dma.h **** /**
1772:Drivers/STM32F4xx_HAL_Driver/Inc/stm32f4xx_ll_dma.h ****   * @brief Get Stream 3 transfer complete flag.
1773:Drivers/STM32F4xx_HAL_Driver/Inc/stm32f4xx_ll_dma.h ****   * @rmtoll LISR  TCIF3    LL_DMA_IsActiveFlag_TC3
1774:Drivers/STM32F4xx_HAL_Driver/Inc/stm32f4xx_ll_dma.h ****   * @param  DMAx DMAx Instance
1775:Drivers/STM32F4xx_HAL_Driver/Inc/stm32f4xx_ll_dma.h ****   * @retval State of bit (1 or 0).
1776:Drivers/STM32F4xx_HAL_Driver/Inc/stm32f4xx_ll_dma.h ****   */
1777:Drivers/STM32F4xx_HAL_Driver/Inc/stm32f4xx_ll_dma.h **** __STATIC_INLINE uint32_t LL_DMA_IsActiveFlag_TC3(DMA_TypeDef *DMAx)
1778:Drivers/STM32F4xx_HAL_Driver/Inc/stm32f4xx_ll_dma.h **** {
1779:Drivers/STM32F4xx_HAL_Driver/Inc/stm32f4xx_ll_dma.h ****   return (READ_BIT(DMAx->LISR ,DMA_LISR_TCIF3)==(DMA_LISR_TCIF3));
1780:Drivers/STM32F4xx_HAL_Driver/Inc/stm32f4xx_ll_dma.h **** }
1781:Drivers/STM32F4xx_HAL_Driver/Inc/stm32f4xx_ll_dma.h **** 
1782:Drivers/STM32F4xx_HAL_Driver/Inc/stm32f4xx_ll_dma.h **** /**
1783:Drivers/STM32F4xx_HAL_Driver/Inc/stm32f4xx_ll_dma.h ****   * @brief Get Stream 4 transfer complete flag.
1784:Drivers/STM32F4xx_HAL_Driver/Inc/stm32f4xx_ll_dma.h ****   * @rmtoll HISR  TCIF4    LL_DMA_IsActiveFlag_TC4
1785:Drivers/STM32F4xx_HAL_Driver/Inc/stm32f4xx_ll_dma.h ****   * @param  DMAx DMAx Instance
1786:Drivers/STM32F4xx_HAL_Driver/Inc/stm32f4xx_ll_dma.h ****   * @retval State of bit (1 or 0).
1787:Drivers/STM32F4xx_HAL_Driver/Inc/stm32f4xx_ll_dma.h ****   */
1788:Drivers/STM32F4xx_HAL_Driver/Inc/stm32f4xx_ll_dma.h **** __STATIC_INLINE uint32_t LL_DMA_IsActiveFlag_TC4(DMA_TypeDef *DMAx)
ARM GAS  /tmp/cc58ZD3F.s 			page 44


1789:Drivers/STM32F4xx_HAL_Driver/Inc/stm32f4xx_ll_dma.h **** {
1790:Drivers/STM32F4xx_HAL_Driver/Inc/stm32f4xx_ll_dma.h ****   return (READ_BIT(DMAx->HISR ,DMA_HISR_TCIF4)==(DMA_HISR_TCIF4));
1791:Drivers/STM32F4xx_HAL_Driver/Inc/stm32f4xx_ll_dma.h **** }
1792:Drivers/STM32F4xx_HAL_Driver/Inc/stm32f4xx_ll_dma.h **** 
1793:Drivers/STM32F4xx_HAL_Driver/Inc/stm32f4xx_ll_dma.h **** /**
1794:Drivers/STM32F4xx_HAL_Driver/Inc/stm32f4xx_ll_dma.h ****   * @brief Get Stream 5 transfer complete flag.
1795:Drivers/STM32F4xx_HAL_Driver/Inc/stm32f4xx_ll_dma.h ****   * @rmtoll HISR  TCIF0    LL_DMA_IsActiveFlag_TC5
1796:Drivers/STM32F4xx_HAL_Driver/Inc/stm32f4xx_ll_dma.h ****   * @param  DMAx DMAx Instance
1797:Drivers/STM32F4xx_HAL_Driver/Inc/stm32f4xx_ll_dma.h ****   * @retval State of bit (1 or 0).
1798:Drivers/STM32F4xx_HAL_Driver/Inc/stm32f4xx_ll_dma.h ****   */
1799:Drivers/STM32F4xx_HAL_Driver/Inc/stm32f4xx_ll_dma.h **** __STATIC_INLINE uint32_t LL_DMA_IsActiveFlag_TC5(DMA_TypeDef *DMAx)
1800:Drivers/STM32F4xx_HAL_Driver/Inc/stm32f4xx_ll_dma.h **** {
1801:Drivers/STM32F4xx_HAL_Driver/Inc/stm32f4xx_ll_dma.h ****   return (READ_BIT(DMAx->HISR ,DMA_HISR_TCIF5)==(DMA_HISR_TCIF5));
1802:Drivers/STM32F4xx_HAL_Driver/Inc/stm32f4xx_ll_dma.h **** }
1803:Drivers/STM32F4xx_HAL_Driver/Inc/stm32f4xx_ll_dma.h **** 
1804:Drivers/STM32F4xx_HAL_Driver/Inc/stm32f4xx_ll_dma.h **** /**
1805:Drivers/STM32F4xx_HAL_Driver/Inc/stm32f4xx_ll_dma.h ****   * @brief Get Stream 6 transfer complete flag.
1806:Drivers/STM32F4xx_HAL_Driver/Inc/stm32f4xx_ll_dma.h ****   * @rmtoll HISR  TCIF6    LL_DMA_IsActiveFlag_TC6
1807:Drivers/STM32F4xx_HAL_Driver/Inc/stm32f4xx_ll_dma.h ****   * @param  DMAx DMAx Instance
1808:Drivers/STM32F4xx_HAL_Driver/Inc/stm32f4xx_ll_dma.h ****   * @retval State of bit (1 or 0).
1809:Drivers/STM32F4xx_HAL_Driver/Inc/stm32f4xx_ll_dma.h ****   */
1810:Drivers/STM32F4xx_HAL_Driver/Inc/stm32f4xx_ll_dma.h **** __STATIC_INLINE uint32_t LL_DMA_IsActiveFlag_TC6(DMA_TypeDef *DMAx)
1811:Drivers/STM32F4xx_HAL_Driver/Inc/stm32f4xx_ll_dma.h **** {
1812:Drivers/STM32F4xx_HAL_Driver/Inc/stm32f4xx_ll_dma.h ****   return (READ_BIT(DMAx->HISR ,DMA_HISR_TCIF6)==(DMA_HISR_TCIF6));
1813:Drivers/STM32F4xx_HAL_Driver/Inc/stm32f4xx_ll_dma.h **** }
1814:Drivers/STM32F4xx_HAL_Driver/Inc/stm32f4xx_ll_dma.h **** 
1815:Drivers/STM32F4xx_HAL_Driver/Inc/stm32f4xx_ll_dma.h **** /**
1816:Drivers/STM32F4xx_HAL_Driver/Inc/stm32f4xx_ll_dma.h ****   * @brief Get Stream 7 transfer complete flag.
1817:Drivers/STM32F4xx_HAL_Driver/Inc/stm32f4xx_ll_dma.h ****   * @rmtoll HISR  TCIF7    LL_DMA_IsActiveFlag_TC7
1818:Drivers/STM32F4xx_HAL_Driver/Inc/stm32f4xx_ll_dma.h ****   * @param  DMAx DMAx Instance
1819:Drivers/STM32F4xx_HAL_Driver/Inc/stm32f4xx_ll_dma.h ****   * @retval State of bit (1 or 0).
1820:Drivers/STM32F4xx_HAL_Driver/Inc/stm32f4xx_ll_dma.h ****   */
1821:Drivers/STM32F4xx_HAL_Driver/Inc/stm32f4xx_ll_dma.h **** __STATIC_INLINE uint32_t LL_DMA_IsActiveFlag_TC7(DMA_TypeDef *DMAx)
1822:Drivers/STM32F4xx_HAL_Driver/Inc/stm32f4xx_ll_dma.h **** {
1823:Drivers/STM32F4xx_HAL_Driver/Inc/stm32f4xx_ll_dma.h ****   return (READ_BIT(DMAx->HISR ,DMA_HISR_TCIF7)==(DMA_HISR_TCIF7));
1824:Drivers/STM32F4xx_HAL_Driver/Inc/stm32f4xx_ll_dma.h **** } 
1825:Drivers/STM32F4xx_HAL_Driver/Inc/stm32f4xx_ll_dma.h **** 
1826:Drivers/STM32F4xx_HAL_Driver/Inc/stm32f4xx_ll_dma.h **** /**
1827:Drivers/STM32F4xx_HAL_Driver/Inc/stm32f4xx_ll_dma.h ****   * @brief Get Stream 0 transfer error flag.
1828:Drivers/STM32F4xx_HAL_Driver/Inc/stm32f4xx_ll_dma.h ****   * @rmtoll LISR  TEIF0    LL_DMA_IsActiveFlag_TE0
1829:Drivers/STM32F4xx_HAL_Driver/Inc/stm32f4xx_ll_dma.h ****   * @param  DMAx DMAx Instance
1830:Drivers/STM32F4xx_HAL_Driver/Inc/stm32f4xx_ll_dma.h ****   * @retval State of bit (1 or 0).
1831:Drivers/STM32F4xx_HAL_Driver/Inc/stm32f4xx_ll_dma.h ****   */
1832:Drivers/STM32F4xx_HAL_Driver/Inc/stm32f4xx_ll_dma.h **** __STATIC_INLINE uint32_t LL_DMA_IsActiveFlag_TE0(DMA_TypeDef *DMAx)
1833:Drivers/STM32F4xx_HAL_Driver/Inc/stm32f4xx_ll_dma.h **** {
1834:Drivers/STM32F4xx_HAL_Driver/Inc/stm32f4xx_ll_dma.h ****   return (READ_BIT(DMAx->LISR ,DMA_LISR_TEIF0)==(DMA_LISR_TEIF0));
1835:Drivers/STM32F4xx_HAL_Driver/Inc/stm32f4xx_ll_dma.h **** }
1836:Drivers/STM32F4xx_HAL_Driver/Inc/stm32f4xx_ll_dma.h **** 
1837:Drivers/STM32F4xx_HAL_Driver/Inc/stm32f4xx_ll_dma.h **** /**
1838:Drivers/STM32F4xx_HAL_Driver/Inc/stm32f4xx_ll_dma.h ****   * @brief Get Stream 1 transfer error flag.
1839:Drivers/STM32F4xx_HAL_Driver/Inc/stm32f4xx_ll_dma.h ****   * @rmtoll LISR  TEIF1    LL_DMA_IsActiveFlag_TE1
1840:Drivers/STM32F4xx_HAL_Driver/Inc/stm32f4xx_ll_dma.h ****   * @param  DMAx DMAx Instance
1841:Drivers/STM32F4xx_HAL_Driver/Inc/stm32f4xx_ll_dma.h ****   * @retval State of bit (1 or 0).
1842:Drivers/STM32F4xx_HAL_Driver/Inc/stm32f4xx_ll_dma.h ****   */
1843:Drivers/STM32F4xx_HAL_Driver/Inc/stm32f4xx_ll_dma.h **** __STATIC_INLINE uint32_t LL_DMA_IsActiveFlag_TE1(DMA_TypeDef *DMAx)
1844:Drivers/STM32F4xx_HAL_Driver/Inc/stm32f4xx_ll_dma.h **** {
1845:Drivers/STM32F4xx_HAL_Driver/Inc/stm32f4xx_ll_dma.h ****   return (READ_BIT(DMAx->LISR ,DMA_LISR_TEIF1)==(DMA_LISR_TEIF1));
ARM GAS  /tmp/cc58ZD3F.s 			page 45


1846:Drivers/STM32F4xx_HAL_Driver/Inc/stm32f4xx_ll_dma.h **** }
1847:Drivers/STM32F4xx_HAL_Driver/Inc/stm32f4xx_ll_dma.h **** 
1848:Drivers/STM32F4xx_HAL_Driver/Inc/stm32f4xx_ll_dma.h **** /**
1849:Drivers/STM32F4xx_HAL_Driver/Inc/stm32f4xx_ll_dma.h ****   * @brief Get Stream 2 transfer error flag.
1850:Drivers/STM32F4xx_HAL_Driver/Inc/stm32f4xx_ll_dma.h ****   * @rmtoll LISR  TEIF2    LL_DMA_IsActiveFlag_TE2
1851:Drivers/STM32F4xx_HAL_Driver/Inc/stm32f4xx_ll_dma.h ****   * @param  DMAx DMAx Instance
1852:Drivers/STM32F4xx_HAL_Driver/Inc/stm32f4xx_ll_dma.h ****   * @retval State of bit (1 or 0).
1853:Drivers/STM32F4xx_HAL_Driver/Inc/stm32f4xx_ll_dma.h ****   */
1854:Drivers/STM32F4xx_HAL_Driver/Inc/stm32f4xx_ll_dma.h **** __STATIC_INLINE uint32_t LL_DMA_IsActiveFlag_TE2(DMA_TypeDef *DMAx)
1855:Drivers/STM32F4xx_HAL_Driver/Inc/stm32f4xx_ll_dma.h **** {
1856:Drivers/STM32F4xx_HAL_Driver/Inc/stm32f4xx_ll_dma.h ****   return (READ_BIT(DMAx->LISR ,DMA_LISR_TEIF2)==(DMA_LISR_TEIF2));
1857:Drivers/STM32F4xx_HAL_Driver/Inc/stm32f4xx_ll_dma.h **** }
1858:Drivers/STM32F4xx_HAL_Driver/Inc/stm32f4xx_ll_dma.h **** 
1859:Drivers/STM32F4xx_HAL_Driver/Inc/stm32f4xx_ll_dma.h **** /**
1860:Drivers/STM32F4xx_HAL_Driver/Inc/stm32f4xx_ll_dma.h ****   * @brief Get Stream 3 transfer error flag.
1861:Drivers/STM32F4xx_HAL_Driver/Inc/stm32f4xx_ll_dma.h ****   * @rmtoll LISR  TEIF3    LL_DMA_IsActiveFlag_TE3
1862:Drivers/STM32F4xx_HAL_Driver/Inc/stm32f4xx_ll_dma.h ****   * @param  DMAx DMAx Instance
1863:Drivers/STM32F4xx_HAL_Driver/Inc/stm32f4xx_ll_dma.h ****   * @retval State of bit (1 or 0).
1864:Drivers/STM32F4xx_HAL_Driver/Inc/stm32f4xx_ll_dma.h ****   */
1865:Drivers/STM32F4xx_HAL_Driver/Inc/stm32f4xx_ll_dma.h **** __STATIC_INLINE uint32_t LL_DMA_IsActiveFlag_TE3(DMA_TypeDef *DMAx)
1866:Drivers/STM32F4xx_HAL_Driver/Inc/stm32f4xx_ll_dma.h **** {
1867:Drivers/STM32F4xx_HAL_Driver/Inc/stm32f4xx_ll_dma.h ****   return (READ_BIT(DMAx->LISR ,DMA_LISR_TEIF3)==(DMA_LISR_TEIF3));
1868:Drivers/STM32F4xx_HAL_Driver/Inc/stm32f4xx_ll_dma.h **** }
1869:Drivers/STM32F4xx_HAL_Driver/Inc/stm32f4xx_ll_dma.h **** 
1870:Drivers/STM32F4xx_HAL_Driver/Inc/stm32f4xx_ll_dma.h **** /**
1871:Drivers/STM32F4xx_HAL_Driver/Inc/stm32f4xx_ll_dma.h ****   * @brief Get Stream 4 transfer error flag.
1872:Drivers/STM32F4xx_HAL_Driver/Inc/stm32f4xx_ll_dma.h ****   * @rmtoll HISR  TEIF4    LL_DMA_IsActiveFlag_TE4
1873:Drivers/STM32F4xx_HAL_Driver/Inc/stm32f4xx_ll_dma.h ****   * @param  DMAx DMAx Instance
1874:Drivers/STM32F4xx_HAL_Driver/Inc/stm32f4xx_ll_dma.h ****   * @retval State of bit (1 or 0).
1875:Drivers/STM32F4xx_HAL_Driver/Inc/stm32f4xx_ll_dma.h ****   */
1876:Drivers/STM32F4xx_HAL_Driver/Inc/stm32f4xx_ll_dma.h **** __STATIC_INLINE uint32_t LL_DMA_IsActiveFlag_TE4(DMA_TypeDef *DMAx)
1877:Drivers/STM32F4xx_HAL_Driver/Inc/stm32f4xx_ll_dma.h **** {
1878:Drivers/STM32F4xx_HAL_Driver/Inc/stm32f4xx_ll_dma.h ****   return (READ_BIT(DMAx->HISR ,DMA_HISR_TEIF4)==(DMA_HISR_TEIF4));
1879:Drivers/STM32F4xx_HAL_Driver/Inc/stm32f4xx_ll_dma.h **** }
1880:Drivers/STM32F4xx_HAL_Driver/Inc/stm32f4xx_ll_dma.h **** 
1881:Drivers/STM32F4xx_HAL_Driver/Inc/stm32f4xx_ll_dma.h **** /**
1882:Drivers/STM32F4xx_HAL_Driver/Inc/stm32f4xx_ll_dma.h ****   * @brief Get Stream 5 transfer error flag.
1883:Drivers/STM32F4xx_HAL_Driver/Inc/stm32f4xx_ll_dma.h ****   * @rmtoll HISR  TEIF0    LL_DMA_IsActiveFlag_TE5
1884:Drivers/STM32F4xx_HAL_Driver/Inc/stm32f4xx_ll_dma.h ****   * @param  DMAx DMAx Instance
1885:Drivers/STM32F4xx_HAL_Driver/Inc/stm32f4xx_ll_dma.h ****   * @retval State of bit (1 or 0).
1886:Drivers/STM32F4xx_HAL_Driver/Inc/stm32f4xx_ll_dma.h ****   */
1887:Drivers/STM32F4xx_HAL_Driver/Inc/stm32f4xx_ll_dma.h **** __STATIC_INLINE uint32_t LL_DMA_IsActiveFlag_TE5(DMA_TypeDef *DMAx)
1888:Drivers/STM32F4xx_HAL_Driver/Inc/stm32f4xx_ll_dma.h **** {
1889:Drivers/STM32F4xx_HAL_Driver/Inc/stm32f4xx_ll_dma.h ****   return (READ_BIT(DMAx->HISR ,DMA_HISR_TEIF5)==(DMA_HISR_TEIF5));
1890:Drivers/STM32F4xx_HAL_Driver/Inc/stm32f4xx_ll_dma.h **** }
1891:Drivers/STM32F4xx_HAL_Driver/Inc/stm32f4xx_ll_dma.h **** 
1892:Drivers/STM32F4xx_HAL_Driver/Inc/stm32f4xx_ll_dma.h **** /**
1893:Drivers/STM32F4xx_HAL_Driver/Inc/stm32f4xx_ll_dma.h ****   * @brief Get Stream 6 transfer error flag.
1894:Drivers/STM32F4xx_HAL_Driver/Inc/stm32f4xx_ll_dma.h ****   * @rmtoll HISR  TEIF6    LL_DMA_IsActiveFlag_TE6
1895:Drivers/STM32F4xx_HAL_Driver/Inc/stm32f4xx_ll_dma.h ****   * @param  DMAx DMAx Instance
1896:Drivers/STM32F4xx_HAL_Driver/Inc/stm32f4xx_ll_dma.h ****   * @retval State of bit (1 or 0).
1897:Drivers/STM32F4xx_HAL_Driver/Inc/stm32f4xx_ll_dma.h ****   */
1898:Drivers/STM32F4xx_HAL_Driver/Inc/stm32f4xx_ll_dma.h **** __STATIC_INLINE uint32_t LL_DMA_IsActiveFlag_TE6(DMA_TypeDef *DMAx)
1899:Drivers/STM32F4xx_HAL_Driver/Inc/stm32f4xx_ll_dma.h **** {
1900:Drivers/STM32F4xx_HAL_Driver/Inc/stm32f4xx_ll_dma.h ****   return (READ_BIT(DMAx->HISR ,DMA_HISR_TEIF6)==(DMA_HISR_TEIF6));
1901:Drivers/STM32F4xx_HAL_Driver/Inc/stm32f4xx_ll_dma.h **** }
1902:Drivers/STM32F4xx_HAL_Driver/Inc/stm32f4xx_ll_dma.h **** 
ARM GAS  /tmp/cc58ZD3F.s 			page 46


1903:Drivers/STM32F4xx_HAL_Driver/Inc/stm32f4xx_ll_dma.h **** /**
1904:Drivers/STM32F4xx_HAL_Driver/Inc/stm32f4xx_ll_dma.h ****   * @brief Get Stream 7 transfer error flag.
1905:Drivers/STM32F4xx_HAL_Driver/Inc/stm32f4xx_ll_dma.h ****   * @rmtoll HISR  TEIF7    LL_DMA_IsActiveFlag_TE7
1906:Drivers/STM32F4xx_HAL_Driver/Inc/stm32f4xx_ll_dma.h ****   * @param  DMAx DMAx Instance
1907:Drivers/STM32F4xx_HAL_Driver/Inc/stm32f4xx_ll_dma.h ****   * @retval State of bit (1 or 0).
1908:Drivers/STM32F4xx_HAL_Driver/Inc/stm32f4xx_ll_dma.h ****   */
1909:Drivers/STM32F4xx_HAL_Driver/Inc/stm32f4xx_ll_dma.h **** __STATIC_INLINE uint32_t LL_DMA_IsActiveFlag_TE7(DMA_TypeDef *DMAx)
1910:Drivers/STM32F4xx_HAL_Driver/Inc/stm32f4xx_ll_dma.h **** {
1911:Drivers/STM32F4xx_HAL_Driver/Inc/stm32f4xx_ll_dma.h ****   return (READ_BIT(DMAx->HISR ,DMA_HISR_TEIF7)==(DMA_HISR_TEIF7));
1912:Drivers/STM32F4xx_HAL_Driver/Inc/stm32f4xx_ll_dma.h **** } 
1913:Drivers/STM32F4xx_HAL_Driver/Inc/stm32f4xx_ll_dma.h **** 
1914:Drivers/STM32F4xx_HAL_Driver/Inc/stm32f4xx_ll_dma.h **** /**
1915:Drivers/STM32F4xx_HAL_Driver/Inc/stm32f4xx_ll_dma.h ****   * @brief Get Stream 0 direct mode error flag.
1916:Drivers/STM32F4xx_HAL_Driver/Inc/stm32f4xx_ll_dma.h ****   * @rmtoll LISR  DMEIF0    LL_DMA_IsActiveFlag_DME0
1917:Drivers/STM32F4xx_HAL_Driver/Inc/stm32f4xx_ll_dma.h ****   * @param  DMAx DMAx Instance
1918:Drivers/STM32F4xx_HAL_Driver/Inc/stm32f4xx_ll_dma.h ****   * @retval State of bit (1 or 0).
1919:Drivers/STM32F4xx_HAL_Driver/Inc/stm32f4xx_ll_dma.h ****   */
1920:Drivers/STM32F4xx_HAL_Driver/Inc/stm32f4xx_ll_dma.h **** __STATIC_INLINE uint32_t LL_DMA_IsActiveFlag_DME0(DMA_TypeDef *DMAx)
1921:Drivers/STM32F4xx_HAL_Driver/Inc/stm32f4xx_ll_dma.h **** {
1922:Drivers/STM32F4xx_HAL_Driver/Inc/stm32f4xx_ll_dma.h ****   return (READ_BIT(DMAx->LISR ,DMA_LISR_DMEIF0)==(DMA_LISR_DMEIF0));
1923:Drivers/STM32F4xx_HAL_Driver/Inc/stm32f4xx_ll_dma.h **** }
1924:Drivers/STM32F4xx_HAL_Driver/Inc/stm32f4xx_ll_dma.h **** 
1925:Drivers/STM32F4xx_HAL_Driver/Inc/stm32f4xx_ll_dma.h **** /**
1926:Drivers/STM32F4xx_HAL_Driver/Inc/stm32f4xx_ll_dma.h ****   * @brief Get Stream 1 direct mode error flag.
1927:Drivers/STM32F4xx_HAL_Driver/Inc/stm32f4xx_ll_dma.h ****   * @rmtoll LISR  DMEIF1    LL_DMA_IsActiveFlag_DME1
1928:Drivers/STM32F4xx_HAL_Driver/Inc/stm32f4xx_ll_dma.h ****   * @param  DMAx DMAx Instance
1929:Drivers/STM32F4xx_HAL_Driver/Inc/stm32f4xx_ll_dma.h ****   * @retval State of bit (1 or 0).
1930:Drivers/STM32F4xx_HAL_Driver/Inc/stm32f4xx_ll_dma.h ****   */
1931:Drivers/STM32F4xx_HAL_Driver/Inc/stm32f4xx_ll_dma.h **** __STATIC_INLINE uint32_t LL_DMA_IsActiveFlag_DME1(DMA_TypeDef *DMAx)
1932:Drivers/STM32F4xx_HAL_Driver/Inc/stm32f4xx_ll_dma.h **** {
1933:Drivers/STM32F4xx_HAL_Driver/Inc/stm32f4xx_ll_dma.h ****   return (READ_BIT(DMAx->LISR ,DMA_LISR_DMEIF1)==(DMA_LISR_DMEIF1));
1934:Drivers/STM32F4xx_HAL_Driver/Inc/stm32f4xx_ll_dma.h **** }
1935:Drivers/STM32F4xx_HAL_Driver/Inc/stm32f4xx_ll_dma.h **** 
1936:Drivers/STM32F4xx_HAL_Driver/Inc/stm32f4xx_ll_dma.h **** /**
1937:Drivers/STM32F4xx_HAL_Driver/Inc/stm32f4xx_ll_dma.h ****   * @brief Get Stream 2 direct mode error flag.
1938:Drivers/STM32F4xx_HAL_Driver/Inc/stm32f4xx_ll_dma.h ****   * @rmtoll LISR  DMEIF2    LL_DMA_IsActiveFlag_DME2
1939:Drivers/STM32F4xx_HAL_Driver/Inc/stm32f4xx_ll_dma.h ****   * @param  DMAx DMAx Instance
1940:Drivers/STM32F4xx_HAL_Driver/Inc/stm32f4xx_ll_dma.h ****   * @retval State of bit (1 or 0).
1941:Drivers/STM32F4xx_HAL_Driver/Inc/stm32f4xx_ll_dma.h ****   */
1942:Drivers/STM32F4xx_HAL_Driver/Inc/stm32f4xx_ll_dma.h **** __STATIC_INLINE uint32_t LL_DMA_IsActiveFlag_DME2(DMA_TypeDef *DMAx)
1943:Drivers/STM32F4xx_HAL_Driver/Inc/stm32f4xx_ll_dma.h **** {
1944:Drivers/STM32F4xx_HAL_Driver/Inc/stm32f4xx_ll_dma.h ****   return (READ_BIT(DMAx->LISR ,DMA_LISR_DMEIF2)==(DMA_LISR_DMEIF2));
1945:Drivers/STM32F4xx_HAL_Driver/Inc/stm32f4xx_ll_dma.h **** }
1946:Drivers/STM32F4xx_HAL_Driver/Inc/stm32f4xx_ll_dma.h **** 
1947:Drivers/STM32F4xx_HAL_Driver/Inc/stm32f4xx_ll_dma.h **** /**
1948:Drivers/STM32F4xx_HAL_Driver/Inc/stm32f4xx_ll_dma.h ****   * @brief Get Stream 3 direct mode error flag.
1949:Drivers/STM32F4xx_HAL_Driver/Inc/stm32f4xx_ll_dma.h ****   * @rmtoll LISR  DMEIF3    LL_DMA_IsActiveFlag_DME3
1950:Drivers/STM32F4xx_HAL_Driver/Inc/stm32f4xx_ll_dma.h ****   * @param  DMAx DMAx Instance
1951:Drivers/STM32F4xx_HAL_Driver/Inc/stm32f4xx_ll_dma.h ****   * @retval State of bit (1 or 0).
1952:Drivers/STM32F4xx_HAL_Driver/Inc/stm32f4xx_ll_dma.h ****   */
1953:Drivers/STM32F4xx_HAL_Driver/Inc/stm32f4xx_ll_dma.h **** __STATIC_INLINE uint32_t LL_DMA_IsActiveFlag_DME3(DMA_TypeDef *DMAx)
1954:Drivers/STM32F4xx_HAL_Driver/Inc/stm32f4xx_ll_dma.h **** {
1955:Drivers/STM32F4xx_HAL_Driver/Inc/stm32f4xx_ll_dma.h ****   return (READ_BIT(DMAx->LISR ,DMA_LISR_DMEIF3)==(DMA_LISR_DMEIF3));
1956:Drivers/STM32F4xx_HAL_Driver/Inc/stm32f4xx_ll_dma.h **** }
1957:Drivers/STM32F4xx_HAL_Driver/Inc/stm32f4xx_ll_dma.h **** 
1958:Drivers/STM32F4xx_HAL_Driver/Inc/stm32f4xx_ll_dma.h **** /**
1959:Drivers/STM32F4xx_HAL_Driver/Inc/stm32f4xx_ll_dma.h ****   * @brief Get Stream 4 direct mode error flag.
ARM GAS  /tmp/cc58ZD3F.s 			page 47


1960:Drivers/STM32F4xx_HAL_Driver/Inc/stm32f4xx_ll_dma.h ****   * @rmtoll HISR  DMEIF4    LL_DMA_IsActiveFlag_DME4
1961:Drivers/STM32F4xx_HAL_Driver/Inc/stm32f4xx_ll_dma.h ****   * @param  DMAx DMAx Instance
1962:Drivers/STM32F4xx_HAL_Driver/Inc/stm32f4xx_ll_dma.h ****   * @retval State of bit (1 or 0).
1963:Drivers/STM32F4xx_HAL_Driver/Inc/stm32f4xx_ll_dma.h ****   */
1964:Drivers/STM32F4xx_HAL_Driver/Inc/stm32f4xx_ll_dma.h **** __STATIC_INLINE uint32_t LL_DMA_IsActiveFlag_DME4(DMA_TypeDef *DMAx)
1965:Drivers/STM32F4xx_HAL_Driver/Inc/stm32f4xx_ll_dma.h **** {
1966:Drivers/STM32F4xx_HAL_Driver/Inc/stm32f4xx_ll_dma.h ****   return (READ_BIT(DMAx->HISR ,DMA_HISR_DMEIF4)==(DMA_HISR_DMEIF4));
1967:Drivers/STM32F4xx_HAL_Driver/Inc/stm32f4xx_ll_dma.h **** }
1968:Drivers/STM32F4xx_HAL_Driver/Inc/stm32f4xx_ll_dma.h **** 
1969:Drivers/STM32F4xx_HAL_Driver/Inc/stm32f4xx_ll_dma.h **** /**
1970:Drivers/STM32F4xx_HAL_Driver/Inc/stm32f4xx_ll_dma.h ****   * @brief Get Stream 5 direct mode error flag.
1971:Drivers/STM32F4xx_HAL_Driver/Inc/stm32f4xx_ll_dma.h ****   * @rmtoll HISR  DMEIF0    LL_DMA_IsActiveFlag_DME5
1972:Drivers/STM32F4xx_HAL_Driver/Inc/stm32f4xx_ll_dma.h ****   * @param  DMAx DMAx Instance
1973:Drivers/STM32F4xx_HAL_Driver/Inc/stm32f4xx_ll_dma.h ****   * @retval State of bit (1 or 0).
1974:Drivers/STM32F4xx_HAL_Driver/Inc/stm32f4xx_ll_dma.h ****   */
1975:Drivers/STM32F4xx_HAL_Driver/Inc/stm32f4xx_ll_dma.h **** __STATIC_INLINE uint32_t LL_DMA_IsActiveFlag_DME5(DMA_TypeDef *DMAx)
1976:Drivers/STM32F4xx_HAL_Driver/Inc/stm32f4xx_ll_dma.h **** {
1977:Drivers/STM32F4xx_HAL_Driver/Inc/stm32f4xx_ll_dma.h ****   return (READ_BIT(DMAx->HISR ,DMA_HISR_DMEIF5)==(DMA_HISR_DMEIF5));
1978:Drivers/STM32F4xx_HAL_Driver/Inc/stm32f4xx_ll_dma.h **** }
1979:Drivers/STM32F4xx_HAL_Driver/Inc/stm32f4xx_ll_dma.h **** 
1980:Drivers/STM32F4xx_HAL_Driver/Inc/stm32f4xx_ll_dma.h **** /**
1981:Drivers/STM32F4xx_HAL_Driver/Inc/stm32f4xx_ll_dma.h ****   * @brief Get Stream 6 direct mode error flag.
1982:Drivers/STM32F4xx_HAL_Driver/Inc/stm32f4xx_ll_dma.h ****   * @rmtoll HISR  DMEIF6    LL_DMA_IsActiveFlag_DME6
1983:Drivers/STM32F4xx_HAL_Driver/Inc/stm32f4xx_ll_dma.h ****   * @param  DMAx DMAx Instance
1984:Drivers/STM32F4xx_HAL_Driver/Inc/stm32f4xx_ll_dma.h ****   * @retval State of bit (1 or 0).
1985:Drivers/STM32F4xx_HAL_Driver/Inc/stm32f4xx_ll_dma.h ****   */
1986:Drivers/STM32F4xx_HAL_Driver/Inc/stm32f4xx_ll_dma.h **** __STATIC_INLINE uint32_t LL_DMA_IsActiveFlag_DME6(DMA_TypeDef *DMAx)
1987:Drivers/STM32F4xx_HAL_Driver/Inc/stm32f4xx_ll_dma.h **** {
1988:Drivers/STM32F4xx_HAL_Driver/Inc/stm32f4xx_ll_dma.h ****   return (READ_BIT(DMAx->HISR ,DMA_HISR_DMEIF6)==(DMA_HISR_DMEIF6));
1989:Drivers/STM32F4xx_HAL_Driver/Inc/stm32f4xx_ll_dma.h **** }
1990:Drivers/STM32F4xx_HAL_Driver/Inc/stm32f4xx_ll_dma.h **** 
1991:Drivers/STM32F4xx_HAL_Driver/Inc/stm32f4xx_ll_dma.h **** /**
1992:Drivers/STM32F4xx_HAL_Driver/Inc/stm32f4xx_ll_dma.h ****   * @brief Get Stream 7 direct mode error flag.
1993:Drivers/STM32F4xx_HAL_Driver/Inc/stm32f4xx_ll_dma.h ****   * @rmtoll HISR  DMEIF7    LL_DMA_IsActiveFlag_DME7
1994:Drivers/STM32F4xx_HAL_Driver/Inc/stm32f4xx_ll_dma.h ****   * @param  DMAx DMAx Instance
1995:Drivers/STM32F4xx_HAL_Driver/Inc/stm32f4xx_ll_dma.h ****   * @retval State of bit (1 or 0).
1996:Drivers/STM32F4xx_HAL_Driver/Inc/stm32f4xx_ll_dma.h ****   */
1997:Drivers/STM32F4xx_HAL_Driver/Inc/stm32f4xx_ll_dma.h **** __STATIC_INLINE uint32_t LL_DMA_IsActiveFlag_DME7(DMA_TypeDef *DMAx)
1998:Drivers/STM32F4xx_HAL_Driver/Inc/stm32f4xx_ll_dma.h **** {
1999:Drivers/STM32F4xx_HAL_Driver/Inc/stm32f4xx_ll_dma.h ****   return (READ_BIT(DMAx->HISR ,DMA_HISR_DMEIF7)==(DMA_HISR_DMEIF7));
2000:Drivers/STM32F4xx_HAL_Driver/Inc/stm32f4xx_ll_dma.h **** }
2001:Drivers/STM32F4xx_HAL_Driver/Inc/stm32f4xx_ll_dma.h **** 
2002:Drivers/STM32F4xx_HAL_Driver/Inc/stm32f4xx_ll_dma.h **** /**
2003:Drivers/STM32F4xx_HAL_Driver/Inc/stm32f4xx_ll_dma.h ****   * @brief Get Stream 0 FIFO error flag.
2004:Drivers/STM32F4xx_HAL_Driver/Inc/stm32f4xx_ll_dma.h ****   * @rmtoll LISR  FEIF0    LL_DMA_IsActiveFlag_FE0
2005:Drivers/STM32F4xx_HAL_Driver/Inc/stm32f4xx_ll_dma.h ****   * @param  DMAx DMAx Instance
2006:Drivers/STM32F4xx_HAL_Driver/Inc/stm32f4xx_ll_dma.h ****   * @retval State of bit (1 or 0).
2007:Drivers/STM32F4xx_HAL_Driver/Inc/stm32f4xx_ll_dma.h ****   */
2008:Drivers/STM32F4xx_HAL_Driver/Inc/stm32f4xx_ll_dma.h **** __STATIC_INLINE uint32_t LL_DMA_IsActiveFlag_FE0(DMA_TypeDef *DMAx)
2009:Drivers/STM32F4xx_HAL_Driver/Inc/stm32f4xx_ll_dma.h **** {
2010:Drivers/STM32F4xx_HAL_Driver/Inc/stm32f4xx_ll_dma.h ****   return (READ_BIT(DMAx->LISR ,DMA_LISR_FEIF0)==(DMA_LISR_FEIF0));
2011:Drivers/STM32F4xx_HAL_Driver/Inc/stm32f4xx_ll_dma.h **** }
2012:Drivers/STM32F4xx_HAL_Driver/Inc/stm32f4xx_ll_dma.h **** 
2013:Drivers/STM32F4xx_HAL_Driver/Inc/stm32f4xx_ll_dma.h **** /**
2014:Drivers/STM32F4xx_HAL_Driver/Inc/stm32f4xx_ll_dma.h ****   * @brief Get Stream 1 FIFO error flag.
2015:Drivers/STM32F4xx_HAL_Driver/Inc/stm32f4xx_ll_dma.h ****   * @rmtoll LISR  FEIF1    LL_DMA_IsActiveFlag_FE1
2016:Drivers/STM32F4xx_HAL_Driver/Inc/stm32f4xx_ll_dma.h ****   * @param  DMAx DMAx Instance
ARM GAS  /tmp/cc58ZD3F.s 			page 48


2017:Drivers/STM32F4xx_HAL_Driver/Inc/stm32f4xx_ll_dma.h ****   * @retval State of bit (1 or 0).
2018:Drivers/STM32F4xx_HAL_Driver/Inc/stm32f4xx_ll_dma.h ****   */
2019:Drivers/STM32F4xx_HAL_Driver/Inc/stm32f4xx_ll_dma.h **** __STATIC_INLINE uint32_t LL_DMA_IsActiveFlag_FE1(DMA_TypeDef *DMAx)
2020:Drivers/STM32F4xx_HAL_Driver/Inc/stm32f4xx_ll_dma.h **** {
2021:Drivers/STM32F4xx_HAL_Driver/Inc/stm32f4xx_ll_dma.h ****   return (READ_BIT(DMAx->LISR ,DMA_LISR_FEIF1)==(DMA_LISR_FEIF1));
2022:Drivers/STM32F4xx_HAL_Driver/Inc/stm32f4xx_ll_dma.h **** }
2023:Drivers/STM32F4xx_HAL_Driver/Inc/stm32f4xx_ll_dma.h **** 
2024:Drivers/STM32F4xx_HAL_Driver/Inc/stm32f4xx_ll_dma.h **** /**
2025:Drivers/STM32F4xx_HAL_Driver/Inc/stm32f4xx_ll_dma.h ****   * @brief Get Stream 2 FIFO error flag.
2026:Drivers/STM32F4xx_HAL_Driver/Inc/stm32f4xx_ll_dma.h ****   * @rmtoll LISR  FEIF2    LL_DMA_IsActiveFlag_FE2
2027:Drivers/STM32F4xx_HAL_Driver/Inc/stm32f4xx_ll_dma.h ****   * @param  DMAx DMAx Instance
2028:Drivers/STM32F4xx_HAL_Driver/Inc/stm32f4xx_ll_dma.h ****   * @retval State of bit (1 or 0).
2029:Drivers/STM32F4xx_HAL_Driver/Inc/stm32f4xx_ll_dma.h ****   */
2030:Drivers/STM32F4xx_HAL_Driver/Inc/stm32f4xx_ll_dma.h **** __STATIC_INLINE uint32_t LL_DMA_IsActiveFlag_FE2(DMA_TypeDef *DMAx)
2031:Drivers/STM32F4xx_HAL_Driver/Inc/stm32f4xx_ll_dma.h **** {
2032:Drivers/STM32F4xx_HAL_Driver/Inc/stm32f4xx_ll_dma.h ****   return (READ_BIT(DMAx->LISR ,DMA_LISR_FEIF2)==(DMA_LISR_FEIF2));
2033:Drivers/STM32F4xx_HAL_Driver/Inc/stm32f4xx_ll_dma.h **** }
2034:Drivers/STM32F4xx_HAL_Driver/Inc/stm32f4xx_ll_dma.h **** 
2035:Drivers/STM32F4xx_HAL_Driver/Inc/stm32f4xx_ll_dma.h **** /**
2036:Drivers/STM32F4xx_HAL_Driver/Inc/stm32f4xx_ll_dma.h ****   * @brief Get Stream 3 FIFO error flag.
2037:Drivers/STM32F4xx_HAL_Driver/Inc/stm32f4xx_ll_dma.h ****   * @rmtoll LISR  FEIF3    LL_DMA_IsActiveFlag_FE3
2038:Drivers/STM32F4xx_HAL_Driver/Inc/stm32f4xx_ll_dma.h ****   * @param  DMAx DMAx Instance
2039:Drivers/STM32F4xx_HAL_Driver/Inc/stm32f4xx_ll_dma.h ****   * @retval State of bit (1 or 0).
2040:Drivers/STM32F4xx_HAL_Driver/Inc/stm32f4xx_ll_dma.h ****   */
2041:Drivers/STM32F4xx_HAL_Driver/Inc/stm32f4xx_ll_dma.h **** __STATIC_INLINE uint32_t LL_DMA_IsActiveFlag_FE3(DMA_TypeDef *DMAx)
2042:Drivers/STM32F4xx_HAL_Driver/Inc/stm32f4xx_ll_dma.h **** {
2043:Drivers/STM32F4xx_HAL_Driver/Inc/stm32f4xx_ll_dma.h ****   return (READ_BIT(DMAx->LISR ,DMA_LISR_FEIF3)==(DMA_LISR_FEIF3));
2044:Drivers/STM32F4xx_HAL_Driver/Inc/stm32f4xx_ll_dma.h **** }
2045:Drivers/STM32F4xx_HAL_Driver/Inc/stm32f4xx_ll_dma.h **** 
2046:Drivers/STM32F4xx_HAL_Driver/Inc/stm32f4xx_ll_dma.h **** /**
2047:Drivers/STM32F4xx_HAL_Driver/Inc/stm32f4xx_ll_dma.h ****   * @brief Get Stream 4 FIFO error flag.
2048:Drivers/STM32F4xx_HAL_Driver/Inc/stm32f4xx_ll_dma.h ****   * @rmtoll HISR  FEIF4    LL_DMA_IsActiveFlag_FE4
2049:Drivers/STM32F4xx_HAL_Driver/Inc/stm32f4xx_ll_dma.h ****   * @param  DMAx DMAx Instance
2050:Drivers/STM32F4xx_HAL_Driver/Inc/stm32f4xx_ll_dma.h ****   * @retval State of bit (1 or 0).
2051:Drivers/STM32F4xx_HAL_Driver/Inc/stm32f4xx_ll_dma.h ****   */
2052:Drivers/STM32F4xx_HAL_Driver/Inc/stm32f4xx_ll_dma.h **** __STATIC_INLINE uint32_t LL_DMA_IsActiveFlag_FE4(DMA_TypeDef *DMAx)
2053:Drivers/STM32F4xx_HAL_Driver/Inc/stm32f4xx_ll_dma.h **** {
2054:Drivers/STM32F4xx_HAL_Driver/Inc/stm32f4xx_ll_dma.h ****   return (READ_BIT(DMAx->HISR ,DMA_HISR_FEIF4)==(DMA_HISR_FEIF4));
2055:Drivers/STM32F4xx_HAL_Driver/Inc/stm32f4xx_ll_dma.h **** }
2056:Drivers/STM32F4xx_HAL_Driver/Inc/stm32f4xx_ll_dma.h **** 
2057:Drivers/STM32F4xx_HAL_Driver/Inc/stm32f4xx_ll_dma.h **** /**
2058:Drivers/STM32F4xx_HAL_Driver/Inc/stm32f4xx_ll_dma.h ****   * @brief Get Stream 5 FIFO error flag.
2059:Drivers/STM32F4xx_HAL_Driver/Inc/stm32f4xx_ll_dma.h ****   * @rmtoll HISR  FEIF0    LL_DMA_IsActiveFlag_FE5
2060:Drivers/STM32F4xx_HAL_Driver/Inc/stm32f4xx_ll_dma.h ****   * @param  DMAx DMAx Instance
2061:Drivers/STM32F4xx_HAL_Driver/Inc/stm32f4xx_ll_dma.h ****   * @retval State of bit (1 or 0).
2062:Drivers/STM32F4xx_HAL_Driver/Inc/stm32f4xx_ll_dma.h ****   */
2063:Drivers/STM32F4xx_HAL_Driver/Inc/stm32f4xx_ll_dma.h **** __STATIC_INLINE uint32_t LL_DMA_IsActiveFlag_FE5(DMA_TypeDef *DMAx)
2064:Drivers/STM32F4xx_HAL_Driver/Inc/stm32f4xx_ll_dma.h **** {
2065:Drivers/STM32F4xx_HAL_Driver/Inc/stm32f4xx_ll_dma.h ****   return (READ_BIT(DMAx->HISR ,DMA_HISR_FEIF5)==(DMA_HISR_FEIF5));
2066:Drivers/STM32F4xx_HAL_Driver/Inc/stm32f4xx_ll_dma.h **** }
2067:Drivers/STM32F4xx_HAL_Driver/Inc/stm32f4xx_ll_dma.h **** 
2068:Drivers/STM32F4xx_HAL_Driver/Inc/stm32f4xx_ll_dma.h **** /**
2069:Drivers/STM32F4xx_HAL_Driver/Inc/stm32f4xx_ll_dma.h ****   * @brief Get Stream 6 FIFO error flag.
2070:Drivers/STM32F4xx_HAL_Driver/Inc/stm32f4xx_ll_dma.h ****   * @rmtoll HISR  FEIF6    LL_DMA_IsActiveFlag_FE6
2071:Drivers/STM32F4xx_HAL_Driver/Inc/stm32f4xx_ll_dma.h ****   * @param  DMAx DMAx Instance
2072:Drivers/STM32F4xx_HAL_Driver/Inc/stm32f4xx_ll_dma.h ****   * @retval State of bit (1 or 0).
2073:Drivers/STM32F4xx_HAL_Driver/Inc/stm32f4xx_ll_dma.h ****   */
ARM GAS  /tmp/cc58ZD3F.s 			page 49


2074:Drivers/STM32F4xx_HAL_Driver/Inc/stm32f4xx_ll_dma.h **** __STATIC_INLINE uint32_t LL_DMA_IsActiveFlag_FE6(DMA_TypeDef *DMAx)
2075:Drivers/STM32F4xx_HAL_Driver/Inc/stm32f4xx_ll_dma.h **** {
2076:Drivers/STM32F4xx_HAL_Driver/Inc/stm32f4xx_ll_dma.h ****   return (READ_BIT(DMAx->HISR ,DMA_HISR_FEIF6)==(DMA_HISR_FEIF6));
2077:Drivers/STM32F4xx_HAL_Driver/Inc/stm32f4xx_ll_dma.h **** }
2078:Drivers/STM32F4xx_HAL_Driver/Inc/stm32f4xx_ll_dma.h **** 
2079:Drivers/STM32F4xx_HAL_Driver/Inc/stm32f4xx_ll_dma.h **** /**
2080:Drivers/STM32F4xx_HAL_Driver/Inc/stm32f4xx_ll_dma.h ****   * @brief Get Stream 7 FIFO error flag.
2081:Drivers/STM32F4xx_HAL_Driver/Inc/stm32f4xx_ll_dma.h ****   * @rmtoll HISR  FEIF7    LL_DMA_IsActiveFlag_FE7
2082:Drivers/STM32F4xx_HAL_Driver/Inc/stm32f4xx_ll_dma.h ****   * @param  DMAx DMAx Instance
2083:Drivers/STM32F4xx_HAL_Driver/Inc/stm32f4xx_ll_dma.h ****   * @retval State of bit (1 or 0).
2084:Drivers/STM32F4xx_HAL_Driver/Inc/stm32f4xx_ll_dma.h ****   */
2085:Drivers/STM32F4xx_HAL_Driver/Inc/stm32f4xx_ll_dma.h **** __STATIC_INLINE uint32_t LL_DMA_IsActiveFlag_FE7(DMA_TypeDef *DMAx)
2086:Drivers/STM32F4xx_HAL_Driver/Inc/stm32f4xx_ll_dma.h **** {
2087:Drivers/STM32F4xx_HAL_Driver/Inc/stm32f4xx_ll_dma.h ****   return (READ_BIT(DMAx->HISR ,DMA_HISR_FEIF7)==(DMA_HISR_FEIF7));
2088:Drivers/STM32F4xx_HAL_Driver/Inc/stm32f4xx_ll_dma.h **** }
2089:Drivers/STM32F4xx_HAL_Driver/Inc/stm32f4xx_ll_dma.h **** 
2090:Drivers/STM32F4xx_HAL_Driver/Inc/stm32f4xx_ll_dma.h **** /**
2091:Drivers/STM32F4xx_HAL_Driver/Inc/stm32f4xx_ll_dma.h ****   * @brief Clear Stream 0 half transfer flag.
2092:Drivers/STM32F4xx_HAL_Driver/Inc/stm32f4xx_ll_dma.h ****   * @rmtoll LIFCR  CHTIF0    LL_DMA_ClearFlag_HT0
2093:Drivers/STM32F4xx_HAL_Driver/Inc/stm32f4xx_ll_dma.h ****   * @param  DMAx DMAx Instance
2094:Drivers/STM32F4xx_HAL_Driver/Inc/stm32f4xx_ll_dma.h ****   * @retval None
2095:Drivers/STM32F4xx_HAL_Driver/Inc/stm32f4xx_ll_dma.h ****   */
2096:Drivers/STM32F4xx_HAL_Driver/Inc/stm32f4xx_ll_dma.h **** __STATIC_INLINE void LL_DMA_ClearFlag_HT0(DMA_TypeDef *DMAx)
2097:Drivers/STM32F4xx_HAL_Driver/Inc/stm32f4xx_ll_dma.h **** {
2098:Drivers/STM32F4xx_HAL_Driver/Inc/stm32f4xx_ll_dma.h ****   WRITE_REG(DMAx->LIFCR , DMA_LIFCR_CHTIF0);
2099:Drivers/STM32F4xx_HAL_Driver/Inc/stm32f4xx_ll_dma.h **** }
2100:Drivers/STM32F4xx_HAL_Driver/Inc/stm32f4xx_ll_dma.h **** 
2101:Drivers/STM32F4xx_HAL_Driver/Inc/stm32f4xx_ll_dma.h **** /**
2102:Drivers/STM32F4xx_HAL_Driver/Inc/stm32f4xx_ll_dma.h ****   * @brief Clear Stream 1 half transfer flag.
2103:Drivers/STM32F4xx_HAL_Driver/Inc/stm32f4xx_ll_dma.h ****   * @rmtoll LIFCR  CHTIF1    LL_DMA_ClearFlag_HT1
2104:Drivers/STM32F4xx_HAL_Driver/Inc/stm32f4xx_ll_dma.h ****   * @param  DMAx DMAx Instance
2105:Drivers/STM32F4xx_HAL_Driver/Inc/stm32f4xx_ll_dma.h ****   * @retval None
2106:Drivers/STM32F4xx_HAL_Driver/Inc/stm32f4xx_ll_dma.h ****   */
2107:Drivers/STM32F4xx_HAL_Driver/Inc/stm32f4xx_ll_dma.h **** __STATIC_INLINE void LL_DMA_ClearFlag_HT1(DMA_TypeDef *DMAx)
2108:Drivers/STM32F4xx_HAL_Driver/Inc/stm32f4xx_ll_dma.h **** {
2109:Drivers/STM32F4xx_HAL_Driver/Inc/stm32f4xx_ll_dma.h ****   WRITE_REG(DMAx->LIFCR , DMA_LIFCR_CHTIF1);
2110:Drivers/STM32F4xx_HAL_Driver/Inc/stm32f4xx_ll_dma.h **** }
2111:Drivers/STM32F4xx_HAL_Driver/Inc/stm32f4xx_ll_dma.h **** 
2112:Drivers/STM32F4xx_HAL_Driver/Inc/stm32f4xx_ll_dma.h **** /**
2113:Drivers/STM32F4xx_HAL_Driver/Inc/stm32f4xx_ll_dma.h ****   * @brief Clear Stream 2 half transfer flag.
2114:Drivers/STM32F4xx_HAL_Driver/Inc/stm32f4xx_ll_dma.h ****   * @rmtoll LIFCR  CHTIF2    LL_DMA_ClearFlag_HT2
2115:Drivers/STM32F4xx_HAL_Driver/Inc/stm32f4xx_ll_dma.h ****   * @param  DMAx DMAx Instance
2116:Drivers/STM32F4xx_HAL_Driver/Inc/stm32f4xx_ll_dma.h ****   * @retval None
2117:Drivers/STM32F4xx_HAL_Driver/Inc/stm32f4xx_ll_dma.h ****   */
2118:Drivers/STM32F4xx_HAL_Driver/Inc/stm32f4xx_ll_dma.h **** __STATIC_INLINE void LL_DMA_ClearFlag_HT2(DMA_TypeDef *DMAx)
2119:Drivers/STM32F4xx_HAL_Driver/Inc/stm32f4xx_ll_dma.h **** {
2120:Drivers/STM32F4xx_HAL_Driver/Inc/stm32f4xx_ll_dma.h ****   WRITE_REG(DMAx->LIFCR , DMA_LIFCR_CHTIF2);
2121:Drivers/STM32F4xx_HAL_Driver/Inc/stm32f4xx_ll_dma.h **** }
2122:Drivers/STM32F4xx_HAL_Driver/Inc/stm32f4xx_ll_dma.h **** 
2123:Drivers/STM32F4xx_HAL_Driver/Inc/stm32f4xx_ll_dma.h **** /**
2124:Drivers/STM32F4xx_HAL_Driver/Inc/stm32f4xx_ll_dma.h ****   * @brief Clear Stream 3 half transfer flag.
2125:Drivers/STM32F4xx_HAL_Driver/Inc/stm32f4xx_ll_dma.h ****   * @rmtoll LIFCR  CHTIF3    LL_DMA_ClearFlag_HT3
2126:Drivers/STM32F4xx_HAL_Driver/Inc/stm32f4xx_ll_dma.h ****   * @param  DMAx DMAx Instance
2127:Drivers/STM32F4xx_HAL_Driver/Inc/stm32f4xx_ll_dma.h ****   * @retval None
2128:Drivers/STM32F4xx_HAL_Driver/Inc/stm32f4xx_ll_dma.h ****   */
2129:Drivers/STM32F4xx_HAL_Driver/Inc/stm32f4xx_ll_dma.h **** __STATIC_INLINE void LL_DMA_ClearFlag_HT3(DMA_TypeDef *DMAx)
2130:Drivers/STM32F4xx_HAL_Driver/Inc/stm32f4xx_ll_dma.h **** {
ARM GAS  /tmp/cc58ZD3F.s 			page 50


2131:Drivers/STM32F4xx_HAL_Driver/Inc/stm32f4xx_ll_dma.h ****   WRITE_REG(DMAx->LIFCR , DMA_LIFCR_CHTIF3);
2132:Drivers/STM32F4xx_HAL_Driver/Inc/stm32f4xx_ll_dma.h **** }
2133:Drivers/STM32F4xx_HAL_Driver/Inc/stm32f4xx_ll_dma.h **** 
2134:Drivers/STM32F4xx_HAL_Driver/Inc/stm32f4xx_ll_dma.h **** /**
2135:Drivers/STM32F4xx_HAL_Driver/Inc/stm32f4xx_ll_dma.h ****   * @brief Clear Stream 4 half transfer flag.
2136:Drivers/STM32F4xx_HAL_Driver/Inc/stm32f4xx_ll_dma.h ****   * @rmtoll HIFCR  CHTIF4    LL_DMA_ClearFlag_HT4
2137:Drivers/STM32F4xx_HAL_Driver/Inc/stm32f4xx_ll_dma.h ****   * @param  DMAx DMAx Instance
2138:Drivers/STM32F4xx_HAL_Driver/Inc/stm32f4xx_ll_dma.h ****   * @retval None
2139:Drivers/STM32F4xx_HAL_Driver/Inc/stm32f4xx_ll_dma.h ****   */
2140:Drivers/STM32F4xx_HAL_Driver/Inc/stm32f4xx_ll_dma.h **** __STATIC_INLINE void LL_DMA_ClearFlag_HT4(DMA_TypeDef *DMAx)
2141:Drivers/STM32F4xx_HAL_Driver/Inc/stm32f4xx_ll_dma.h **** {
2142:Drivers/STM32F4xx_HAL_Driver/Inc/stm32f4xx_ll_dma.h ****   WRITE_REG(DMAx->HIFCR , DMA_HIFCR_CHTIF4);
2143:Drivers/STM32F4xx_HAL_Driver/Inc/stm32f4xx_ll_dma.h **** }
2144:Drivers/STM32F4xx_HAL_Driver/Inc/stm32f4xx_ll_dma.h **** 
2145:Drivers/STM32F4xx_HAL_Driver/Inc/stm32f4xx_ll_dma.h **** /**
2146:Drivers/STM32F4xx_HAL_Driver/Inc/stm32f4xx_ll_dma.h ****   * @brief Clear Stream 5 half transfer flag.
2147:Drivers/STM32F4xx_HAL_Driver/Inc/stm32f4xx_ll_dma.h ****   * @rmtoll HIFCR  CHTIF5    LL_DMA_ClearFlag_HT5
2148:Drivers/STM32F4xx_HAL_Driver/Inc/stm32f4xx_ll_dma.h ****   * @param  DMAx DMAx Instance
2149:Drivers/STM32F4xx_HAL_Driver/Inc/stm32f4xx_ll_dma.h ****   * @retval None
2150:Drivers/STM32F4xx_HAL_Driver/Inc/stm32f4xx_ll_dma.h ****   */
2151:Drivers/STM32F4xx_HAL_Driver/Inc/stm32f4xx_ll_dma.h **** __STATIC_INLINE void LL_DMA_ClearFlag_HT5(DMA_TypeDef *DMAx)
2152:Drivers/STM32F4xx_HAL_Driver/Inc/stm32f4xx_ll_dma.h **** {
2153:Drivers/STM32F4xx_HAL_Driver/Inc/stm32f4xx_ll_dma.h ****   WRITE_REG(DMAx->HIFCR , DMA_HIFCR_CHTIF5);
2154:Drivers/STM32F4xx_HAL_Driver/Inc/stm32f4xx_ll_dma.h **** }
2155:Drivers/STM32F4xx_HAL_Driver/Inc/stm32f4xx_ll_dma.h **** 
2156:Drivers/STM32F4xx_HAL_Driver/Inc/stm32f4xx_ll_dma.h **** /**
2157:Drivers/STM32F4xx_HAL_Driver/Inc/stm32f4xx_ll_dma.h ****   * @brief Clear Stream 6 half transfer flag.
2158:Drivers/STM32F4xx_HAL_Driver/Inc/stm32f4xx_ll_dma.h ****   * @rmtoll HIFCR  CHTIF6    LL_DMA_ClearFlag_HT6
2159:Drivers/STM32F4xx_HAL_Driver/Inc/stm32f4xx_ll_dma.h ****   * @param  DMAx DMAx Instance
2160:Drivers/STM32F4xx_HAL_Driver/Inc/stm32f4xx_ll_dma.h ****   * @retval None
2161:Drivers/STM32F4xx_HAL_Driver/Inc/stm32f4xx_ll_dma.h ****   */
2162:Drivers/STM32F4xx_HAL_Driver/Inc/stm32f4xx_ll_dma.h **** __STATIC_INLINE void LL_DMA_ClearFlag_HT6(DMA_TypeDef *DMAx)
2163:Drivers/STM32F4xx_HAL_Driver/Inc/stm32f4xx_ll_dma.h **** {
2164:Drivers/STM32F4xx_HAL_Driver/Inc/stm32f4xx_ll_dma.h ****   WRITE_REG(DMAx->HIFCR , DMA_HIFCR_CHTIF6);
2165:Drivers/STM32F4xx_HAL_Driver/Inc/stm32f4xx_ll_dma.h **** }
2166:Drivers/STM32F4xx_HAL_Driver/Inc/stm32f4xx_ll_dma.h **** 
2167:Drivers/STM32F4xx_HAL_Driver/Inc/stm32f4xx_ll_dma.h **** /**
2168:Drivers/STM32F4xx_HAL_Driver/Inc/stm32f4xx_ll_dma.h ****   * @brief Clear Stream 7 half transfer flag.
2169:Drivers/STM32F4xx_HAL_Driver/Inc/stm32f4xx_ll_dma.h ****   * @rmtoll HIFCR  CHTIF7    LL_DMA_ClearFlag_HT7
2170:Drivers/STM32F4xx_HAL_Driver/Inc/stm32f4xx_ll_dma.h ****   * @param  DMAx DMAx Instance
2171:Drivers/STM32F4xx_HAL_Driver/Inc/stm32f4xx_ll_dma.h ****   * @retval None
2172:Drivers/STM32F4xx_HAL_Driver/Inc/stm32f4xx_ll_dma.h ****   */
2173:Drivers/STM32F4xx_HAL_Driver/Inc/stm32f4xx_ll_dma.h **** __STATIC_INLINE void LL_DMA_ClearFlag_HT7(DMA_TypeDef *DMAx)
2174:Drivers/STM32F4xx_HAL_Driver/Inc/stm32f4xx_ll_dma.h **** {
2175:Drivers/STM32F4xx_HAL_Driver/Inc/stm32f4xx_ll_dma.h ****   WRITE_REG(DMAx->HIFCR , DMA_HIFCR_CHTIF7);
2176:Drivers/STM32F4xx_HAL_Driver/Inc/stm32f4xx_ll_dma.h **** }
2177:Drivers/STM32F4xx_HAL_Driver/Inc/stm32f4xx_ll_dma.h **** 
2178:Drivers/STM32F4xx_HAL_Driver/Inc/stm32f4xx_ll_dma.h **** /**
2179:Drivers/STM32F4xx_HAL_Driver/Inc/stm32f4xx_ll_dma.h ****   * @brief Clear Stream 0 transfer complete flag.
2180:Drivers/STM32F4xx_HAL_Driver/Inc/stm32f4xx_ll_dma.h ****   * @rmtoll LIFCR  CTCIF0    LL_DMA_ClearFlag_TC0
2181:Drivers/STM32F4xx_HAL_Driver/Inc/stm32f4xx_ll_dma.h ****   * @param  DMAx DMAx Instance
2182:Drivers/STM32F4xx_HAL_Driver/Inc/stm32f4xx_ll_dma.h ****   * @retval None
2183:Drivers/STM32F4xx_HAL_Driver/Inc/stm32f4xx_ll_dma.h ****   */
2184:Drivers/STM32F4xx_HAL_Driver/Inc/stm32f4xx_ll_dma.h **** __STATIC_INLINE void LL_DMA_ClearFlag_TC0(DMA_TypeDef *DMAx)
2185:Drivers/STM32F4xx_HAL_Driver/Inc/stm32f4xx_ll_dma.h **** {
2186:Drivers/STM32F4xx_HAL_Driver/Inc/stm32f4xx_ll_dma.h ****   WRITE_REG(DMAx->LIFCR , DMA_LIFCR_CTCIF0);
2187:Drivers/STM32F4xx_HAL_Driver/Inc/stm32f4xx_ll_dma.h **** }
ARM GAS  /tmp/cc58ZD3F.s 			page 51


2188:Drivers/STM32F4xx_HAL_Driver/Inc/stm32f4xx_ll_dma.h **** 
2189:Drivers/STM32F4xx_HAL_Driver/Inc/stm32f4xx_ll_dma.h **** /**
2190:Drivers/STM32F4xx_HAL_Driver/Inc/stm32f4xx_ll_dma.h ****   * @brief Clear Stream 1 transfer complete flag.
