ARM GAS  /tmp/ccNW83Kq.s 			page 1


   1              		.cpu cortex-m4
   2              		.eabi_attribute 27, 1
   3              		.eabi_attribute 28, 1
   4              		.eabi_attribute 20, 1
   5              		.eabi_attribute 21, 1
   6              		.eabi_attribute 23, 3
   7              		.eabi_attribute 24, 1
   8              		.eabi_attribute 25, 1
   9              		.eabi_attribute 26, 1
  10              		.eabi_attribute 30, 1
  11              		.eabi_attribute 34, 1
  12              		.eabi_attribute 18, 4
  13              		.file	"stm32f4xx_ll_exti.c"
  14              		.text
  15              	.Ltext0:
  16              		.cfi_sections	.debug_frame
  17              		.section	.text.LL_EXTI_DeInit,"ax",%progbits
  18              		.align	1
  19              		.global	LL_EXTI_DeInit
  20              		.syntax unified
  21              		.thumb
  22              		.thumb_func
  23              		.fpu fpv4-sp-d16
  25              	LL_EXTI_DeInit:
  26              	.LFB679:
  27              		.file 1 "Drivers/STM32F4xx_HAL_Driver/Src/stm32f4xx_ll_exti.c"
   1:Drivers/STM32F4xx_HAL_Driver/Src/stm32f4xx_ll_exti.c **** /**
   2:Drivers/STM32F4xx_HAL_Driver/Src/stm32f4xx_ll_exti.c ****   ******************************************************************************
   3:Drivers/STM32F4xx_HAL_Driver/Src/stm32f4xx_ll_exti.c ****   * @file    stm32f4xx_ll_exti.c
   4:Drivers/STM32F4xx_HAL_Driver/Src/stm32f4xx_ll_exti.c ****   * @author  MCD Application Team
   5:Drivers/STM32F4xx_HAL_Driver/Src/stm32f4xx_ll_exti.c ****   * @brief   EXTI LL module driver.
   6:Drivers/STM32F4xx_HAL_Driver/Src/stm32f4xx_ll_exti.c ****   ******************************************************************************
   7:Drivers/STM32F4xx_HAL_Driver/Src/stm32f4xx_ll_exti.c ****   * @attention
   8:Drivers/STM32F4xx_HAL_Driver/Src/stm32f4xx_ll_exti.c ****   *
   9:Drivers/STM32F4xx_HAL_Driver/Src/stm32f4xx_ll_exti.c ****   * <h2><center>&copy; COPYRIGHT(c) 2017 STMicroelectronics</center></h2>
  10:Drivers/STM32F4xx_HAL_Driver/Src/stm32f4xx_ll_exti.c ****   *
  11:Drivers/STM32F4xx_HAL_Driver/Src/stm32f4xx_ll_exti.c ****   * Redistribution and use in source and binary forms, with or without modification,
  12:Drivers/STM32F4xx_HAL_Driver/Src/stm32f4xx_ll_exti.c ****   * are permitted provided that the following conditions are met:
  13:Drivers/STM32F4xx_HAL_Driver/Src/stm32f4xx_ll_exti.c ****   *   1. Redistributions of source code must retain the above copyright notice,
  14:Drivers/STM32F4xx_HAL_Driver/Src/stm32f4xx_ll_exti.c ****   *      this list of conditions and the following disclaimer.
  15:Drivers/STM32F4xx_HAL_Driver/Src/stm32f4xx_ll_exti.c ****   *   2. Redistributions in binary form must reproduce the above copyright notice,
  16:Drivers/STM32F4xx_HAL_Driver/Src/stm32f4xx_ll_exti.c ****   *      this list of conditions and the following disclaimer in the documentation
  17:Drivers/STM32F4xx_HAL_Driver/Src/stm32f4xx_ll_exti.c ****   *      and/or other materials provided with the distribution.
  18:Drivers/STM32F4xx_HAL_Driver/Src/stm32f4xx_ll_exti.c ****   *   3. Neither the name of STMicroelectronics nor the names of its contributors
  19:Drivers/STM32F4xx_HAL_Driver/Src/stm32f4xx_ll_exti.c ****   *      may be used to endorse or promote products derived from this software
  20:Drivers/STM32F4xx_HAL_Driver/Src/stm32f4xx_ll_exti.c ****   *      without specific prior written permission.
  21:Drivers/STM32F4xx_HAL_Driver/Src/stm32f4xx_ll_exti.c ****   *
  22:Drivers/STM32F4xx_HAL_Driver/Src/stm32f4xx_ll_exti.c ****   * THIS SOFTWARE IS PROVIDED BY THE COPYRIGHT HOLDERS AND CONTRIBUTORS "AS IS"
  23:Drivers/STM32F4xx_HAL_Driver/Src/stm32f4xx_ll_exti.c ****   * AND ANY EXPRESS OR IMPLIED WARRANTIES, INCLUDING, BUT NOT LIMITED TO, THE
  24:Drivers/STM32F4xx_HAL_Driver/Src/stm32f4xx_ll_exti.c ****   * IMPLIED WARRANTIES OF MERCHANTABILITY AND FITNESS FOR A PARTICULAR PURPOSE ARE
  25:Drivers/STM32F4xx_HAL_Driver/Src/stm32f4xx_ll_exti.c ****   * DISCLAIMED. IN NO EVENT SHALL THE COPYRIGHT HOLDER OR CONTRIBUTORS BE LIABLE
  26:Drivers/STM32F4xx_HAL_Driver/Src/stm32f4xx_ll_exti.c ****   * FOR ANY DIRECT, INDIRECT, INCIDENTAL, SPECIAL, EXEMPLARY, OR CONSEQUENTIAL
  27:Drivers/STM32F4xx_HAL_Driver/Src/stm32f4xx_ll_exti.c ****   * DAMAGES (INCLUDING, BUT NOT LIMITED TO, PROCUREMENT OF SUBSTITUTE GOODS OR
  28:Drivers/STM32F4xx_HAL_Driver/Src/stm32f4xx_ll_exti.c ****   * SERVICES; LOSS OF USE, DATA, OR PROFITS; OR BUSINESS INTERRUPTION) HOWEVER
  29:Drivers/STM32F4xx_HAL_Driver/Src/stm32f4xx_ll_exti.c ****   * CAUSED AND ON ANY THEORY OF LIABILITY, WHETHER IN CONTRACT, STRICT LIABILITY,
  30:Drivers/STM32F4xx_HAL_Driver/Src/stm32f4xx_ll_exti.c ****   * OR TORT (INCLUDING NEGLIGENCE OR OTHERWISE) ARISING IN ANY WAY OUT OF THE USE
  31:Drivers/STM32F4xx_HAL_Driver/Src/stm32f4xx_ll_exti.c ****   * OF THIS SOFTWARE, EVEN IF ADVISED OF THE POSSIBILITY OF SUCH DAMAGE.
ARM GAS  /tmp/ccNW83Kq.s 			page 2


  32:Drivers/STM32F4xx_HAL_Driver/Src/stm32f4xx_ll_exti.c ****   *
  33:Drivers/STM32F4xx_HAL_Driver/Src/stm32f4xx_ll_exti.c ****   ******************************************************************************
  34:Drivers/STM32F4xx_HAL_Driver/Src/stm32f4xx_ll_exti.c ****   */
  35:Drivers/STM32F4xx_HAL_Driver/Src/stm32f4xx_ll_exti.c **** #if defined(USE_FULL_LL_DRIVER)
  36:Drivers/STM32F4xx_HAL_Driver/Src/stm32f4xx_ll_exti.c **** 
  37:Drivers/STM32F4xx_HAL_Driver/Src/stm32f4xx_ll_exti.c **** /* Includes ------------------------------------------------------------------*/
  38:Drivers/STM32F4xx_HAL_Driver/Src/stm32f4xx_ll_exti.c **** #include "stm32f4xx_ll_exti.h"
  39:Drivers/STM32F4xx_HAL_Driver/Src/stm32f4xx_ll_exti.c **** #ifdef  USE_FULL_ASSERT
  40:Drivers/STM32F4xx_HAL_Driver/Src/stm32f4xx_ll_exti.c **** #include "stm32_assert.h"
  41:Drivers/STM32F4xx_HAL_Driver/Src/stm32f4xx_ll_exti.c **** #else
  42:Drivers/STM32F4xx_HAL_Driver/Src/stm32f4xx_ll_exti.c **** #define assert_param(expr) ((void)0U)
  43:Drivers/STM32F4xx_HAL_Driver/Src/stm32f4xx_ll_exti.c **** #endif
  44:Drivers/STM32F4xx_HAL_Driver/Src/stm32f4xx_ll_exti.c **** 
  45:Drivers/STM32F4xx_HAL_Driver/Src/stm32f4xx_ll_exti.c **** /** @addtogroup STM32F4xx_LL_Driver
  46:Drivers/STM32F4xx_HAL_Driver/Src/stm32f4xx_ll_exti.c ****   * @{
  47:Drivers/STM32F4xx_HAL_Driver/Src/stm32f4xx_ll_exti.c ****   */
  48:Drivers/STM32F4xx_HAL_Driver/Src/stm32f4xx_ll_exti.c **** 
  49:Drivers/STM32F4xx_HAL_Driver/Src/stm32f4xx_ll_exti.c **** #if defined (EXTI)
  50:Drivers/STM32F4xx_HAL_Driver/Src/stm32f4xx_ll_exti.c **** 
  51:Drivers/STM32F4xx_HAL_Driver/Src/stm32f4xx_ll_exti.c **** /** @defgroup EXTI_LL EXTI
  52:Drivers/STM32F4xx_HAL_Driver/Src/stm32f4xx_ll_exti.c ****   * @{
  53:Drivers/STM32F4xx_HAL_Driver/Src/stm32f4xx_ll_exti.c ****   */
  54:Drivers/STM32F4xx_HAL_Driver/Src/stm32f4xx_ll_exti.c **** 
  55:Drivers/STM32F4xx_HAL_Driver/Src/stm32f4xx_ll_exti.c **** /* Private types -------------------------------------------------------------*/
  56:Drivers/STM32F4xx_HAL_Driver/Src/stm32f4xx_ll_exti.c **** /* Private variables ---------------------------------------------------------*/
  57:Drivers/STM32F4xx_HAL_Driver/Src/stm32f4xx_ll_exti.c **** /* Private constants ---------------------------------------------------------*/
  58:Drivers/STM32F4xx_HAL_Driver/Src/stm32f4xx_ll_exti.c **** /* Private macros ------------------------------------------------------------*/
  59:Drivers/STM32F4xx_HAL_Driver/Src/stm32f4xx_ll_exti.c **** /** @addtogroup EXTI_LL_Private_Macros
  60:Drivers/STM32F4xx_HAL_Driver/Src/stm32f4xx_ll_exti.c ****   * @{
  61:Drivers/STM32F4xx_HAL_Driver/Src/stm32f4xx_ll_exti.c ****   */
  62:Drivers/STM32F4xx_HAL_Driver/Src/stm32f4xx_ll_exti.c **** 
  63:Drivers/STM32F4xx_HAL_Driver/Src/stm32f4xx_ll_exti.c **** #define IS_LL_EXTI_LINE_0_31(__VALUE__)              (((__VALUE__) & ~LL_EXTI_LINE_ALL_0_31) == 0x0
  64:Drivers/STM32F4xx_HAL_Driver/Src/stm32f4xx_ll_exti.c **** 
  65:Drivers/STM32F4xx_HAL_Driver/Src/stm32f4xx_ll_exti.c **** #define IS_LL_EXTI_MODE(__VALUE__)                   (((__VALUE__) == LL_EXTI_MODE_IT)            \
  66:Drivers/STM32F4xx_HAL_Driver/Src/stm32f4xx_ll_exti.c ****                                                    || ((__VALUE__) == LL_EXTI_MODE_EVENT)         \
  67:Drivers/STM32F4xx_HAL_Driver/Src/stm32f4xx_ll_exti.c ****                                                    || ((__VALUE__) == LL_EXTI_MODE_IT_EVENT))
  68:Drivers/STM32F4xx_HAL_Driver/Src/stm32f4xx_ll_exti.c **** 
  69:Drivers/STM32F4xx_HAL_Driver/Src/stm32f4xx_ll_exti.c **** 
  70:Drivers/STM32F4xx_HAL_Driver/Src/stm32f4xx_ll_exti.c **** #define IS_LL_EXTI_TRIGGER(__VALUE__)                (((__VALUE__) == LL_EXTI_TRIGGER_NONE)       \
  71:Drivers/STM32F4xx_HAL_Driver/Src/stm32f4xx_ll_exti.c ****                                                    || ((__VALUE__) == LL_EXTI_TRIGGER_RISING)     \
  72:Drivers/STM32F4xx_HAL_Driver/Src/stm32f4xx_ll_exti.c ****                                                    || ((__VALUE__) == LL_EXTI_TRIGGER_FALLING)    \
  73:Drivers/STM32F4xx_HAL_Driver/Src/stm32f4xx_ll_exti.c ****                                                    || ((__VALUE__) == LL_EXTI_TRIGGER_RISING_FALLIN
  74:Drivers/STM32F4xx_HAL_Driver/Src/stm32f4xx_ll_exti.c **** 
  75:Drivers/STM32F4xx_HAL_Driver/Src/stm32f4xx_ll_exti.c **** /**
  76:Drivers/STM32F4xx_HAL_Driver/Src/stm32f4xx_ll_exti.c ****   * @}
  77:Drivers/STM32F4xx_HAL_Driver/Src/stm32f4xx_ll_exti.c ****   */
  78:Drivers/STM32F4xx_HAL_Driver/Src/stm32f4xx_ll_exti.c **** 
  79:Drivers/STM32F4xx_HAL_Driver/Src/stm32f4xx_ll_exti.c **** /* Private function prototypes -----------------------------------------------*/
  80:Drivers/STM32F4xx_HAL_Driver/Src/stm32f4xx_ll_exti.c **** 
  81:Drivers/STM32F4xx_HAL_Driver/Src/stm32f4xx_ll_exti.c **** /* Exported functions --------------------------------------------------------*/
  82:Drivers/STM32F4xx_HAL_Driver/Src/stm32f4xx_ll_exti.c **** /** @addtogroup EXTI_LL_Exported_Functions
  83:Drivers/STM32F4xx_HAL_Driver/Src/stm32f4xx_ll_exti.c ****   * @{
  84:Drivers/STM32F4xx_HAL_Driver/Src/stm32f4xx_ll_exti.c ****   */
  85:Drivers/STM32F4xx_HAL_Driver/Src/stm32f4xx_ll_exti.c **** 
  86:Drivers/STM32F4xx_HAL_Driver/Src/stm32f4xx_ll_exti.c **** /** @addtogroup EXTI_LL_EF_Init
  87:Drivers/STM32F4xx_HAL_Driver/Src/stm32f4xx_ll_exti.c ****   * @{
  88:Drivers/STM32F4xx_HAL_Driver/Src/stm32f4xx_ll_exti.c ****   */
ARM GAS  /tmp/ccNW83Kq.s 			page 3


  89:Drivers/STM32F4xx_HAL_Driver/Src/stm32f4xx_ll_exti.c **** 
  90:Drivers/STM32F4xx_HAL_Driver/Src/stm32f4xx_ll_exti.c **** /**
  91:Drivers/STM32F4xx_HAL_Driver/Src/stm32f4xx_ll_exti.c ****   * @brief  De-initialize the EXTI registers to their default reset values.
  92:Drivers/STM32F4xx_HAL_Driver/Src/stm32f4xx_ll_exti.c ****   * @retval An ErrorStatus enumeration value:
  93:Drivers/STM32F4xx_HAL_Driver/Src/stm32f4xx_ll_exti.c ****   *          - SUCCESS: EXTI registers are de-initialized
  94:Drivers/STM32F4xx_HAL_Driver/Src/stm32f4xx_ll_exti.c ****   *          - ERROR: not applicable
  95:Drivers/STM32F4xx_HAL_Driver/Src/stm32f4xx_ll_exti.c ****   */
  96:Drivers/STM32F4xx_HAL_Driver/Src/stm32f4xx_ll_exti.c **** uint32_t LL_EXTI_DeInit(void)
  97:Drivers/STM32F4xx_HAL_Driver/Src/stm32f4xx_ll_exti.c **** {
  28              		.loc 1 97 0
  29              		.cfi_startproc
  30              		@ args = 0, pretend = 0, frame = 0
  31              		@ frame_needed = 0, uses_anonymous_args = 0
  32              		@ link register save eliminated.
  98:Drivers/STM32F4xx_HAL_Driver/Src/stm32f4xx_ll_exti.c ****   /* Interrupt mask register set to default reset values */
  99:Drivers/STM32F4xx_HAL_Driver/Src/stm32f4xx_ll_exti.c ****   LL_EXTI_WriteReg(IMR,   0x00000000U);
  33              		.loc 1 99 0
  34 0000 054B     		ldr	r3, .L2
  35 0002 0022     		movs	r2, #0
  36 0004 1A60     		str	r2, [r3]
 100:Drivers/STM32F4xx_HAL_Driver/Src/stm32f4xx_ll_exti.c ****   /* Event mask register set to default reset values */
 101:Drivers/STM32F4xx_HAL_Driver/Src/stm32f4xx_ll_exti.c ****   LL_EXTI_WriteReg(EMR,   0x00000000U);
  37              		.loc 1 101 0
  38 0006 5A60     		str	r2, [r3, #4]
 102:Drivers/STM32F4xx_HAL_Driver/Src/stm32f4xx_ll_exti.c ****   /* Rising Trigger selection register set to default reset values */
 103:Drivers/STM32F4xx_HAL_Driver/Src/stm32f4xx_ll_exti.c ****   LL_EXTI_WriteReg(RTSR,  0x00000000U);
  39              		.loc 1 103 0
  40 0008 9A60     		str	r2, [r3, #8]
 104:Drivers/STM32F4xx_HAL_Driver/Src/stm32f4xx_ll_exti.c ****   /* Falling Trigger selection register set to default reset values */
 105:Drivers/STM32F4xx_HAL_Driver/Src/stm32f4xx_ll_exti.c ****   LL_EXTI_WriteReg(FTSR,  0x00000000U);
  41              		.loc 1 105 0
  42 000a DA60     		str	r2, [r3, #12]
 106:Drivers/STM32F4xx_HAL_Driver/Src/stm32f4xx_ll_exti.c ****   /* Software interrupt event register set to default reset values */
 107:Drivers/STM32F4xx_HAL_Driver/Src/stm32f4xx_ll_exti.c ****   LL_EXTI_WriteReg(SWIER, 0x00000000U);
  43              		.loc 1 107 0
  44 000c 1A61     		str	r2, [r3, #16]
 108:Drivers/STM32F4xx_HAL_Driver/Src/stm32f4xx_ll_exti.c ****   /* Pending register set to default reset values */
 109:Drivers/STM32F4xx_HAL_Driver/Src/stm32f4xx_ll_exti.c ****   LL_EXTI_WriteReg(PR,    0x00FFFFFFU);
  45              		.loc 1 109 0
  46 000e 6FF07F42 		mvn	r2, #-16777216
  47 0012 5A61     		str	r2, [r3, #20]
 110:Drivers/STM32F4xx_HAL_Driver/Src/stm32f4xx_ll_exti.c **** 
 111:Drivers/STM32F4xx_HAL_Driver/Src/stm32f4xx_ll_exti.c ****   return SUCCESS;
 112:Drivers/STM32F4xx_HAL_Driver/Src/stm32f4xx_ll_exti.c **** }
  48              		.loc 1 112 0
  49 0014 0120     		movs	r0, #1
  50 0016 7047     		bx	lr
  51              	.L3:
  52              		.align	2
  53              	.L2:
  54 0018 003C0140 		.word	1073822720
  55              		.cfi_endproc
  56              	.LFE679:
  58              		.section	.text.LL_EXTI_Init,"ax",%progbits
  59              		.align	1
  60              		.global	LL_EXTI_Init
  61              		.syntax unified
ARM GAS  /tmp/ccNW83Kq.s 			page 4


  62              		.thumb
  63              		.thumb_func
  64              		.fpu fpv4-sp-d16
  66              	LL_EXTI_Init:
  67              	.LFB680:
 113:Drivers/STM32F4xx_HAL_Driver/Src/stm32f4xx_ll_exti.c **** 
 114:Drivers/STM32F4xx_HAL_Driver/Src/stm32f4xx_ll_exti.c **** /**
 115:Drivers/STM32F4xx_HAL_Driver/Src/stm32f4xx_ll_exti.c ****   * @brief  Initialize the EXTI registers according to the specified parameters in EXTI_InitStruct.
 116:Drivers/STM32F4xx_HAL_Driver/Src/stm32f4xx_ll_exti.c ****   * @param  EXTI_InitStruct pointer to a @ref LL_EXTI_InitTypeDef structure.
 117:Drivers/STM32F4xx_HAL_Driver/Src/stm32f4xx_ll_exti.c ****   * @retval An ErrorStatus enumeration value:
 118:Drivers/STM32F4xx_HAL_Driver/Src/stm32f4xx_ll_exti.c ****   *          - SUCCESS: EXTI registers are initialized
 119:Drivers/STM32F4xx_HAL_Driver/Src/stm32f4xx_ll_exti.c ****   *          - ERROR: not applicable
 120:Drivers/STM32F4xx_HAL_Driver/Src/stm32f4xx_ll_exti.c ****   */
 121:Drivers/STM32F4xx_HAL_Driver/Src/stm32f4xx_ll_exti.c **** uint32_t LL_EXTI_Init(LL_EXTI_InitTypeDef *EXTI_InitStruct)
 122:Drivers/STM32F4xx_HAL_Driver/Src/stm32f4xx_ll_exti.c **** {
  68              		.loc 1 122 0
  69              		.cfi_startproc
  70              		@ args = 0, pretend = 0, frame = 0
  71              		@ frame_needed = 0, uses_anonymous_args = 0
  72              		@ link register save eliminated.
  73              	.LVL0:
  74 0000 0346     		mov	r3, r0
  75              	.LVL1:
 123:Drivers/STM32F4xx_HAL_Driver/Src/stm32f4xx_ll_exti.c ****   ErrorStatus status = SUCCESS;
 124:Drivers/STM32F4xx_HAL_Driver/Src/stm32f4xx_ll_exti.c ****   /* Check the parameters */
 125:Drivers/STM32F4xx_HAL_Driver/Src/stm32f4xx_ll_exti.c ****   assert_param(IS_LL_EXTI_LINE_0_31(EXTI_InitStruct->Line_0_31));
 126:Drivers/STM32F4xx_HAL_Driver/Src/stm32f4xx_ll_exti.c ****   assert_param(IS_FUNCTIONAL_STATE(EXTI_InitStruct->LineCommand));
 127:Drivers/STM32F4xx_HAL_Driver/Src/stm32f4xx_ll_exti.c ****   assert_param(IS_LL_EXTI_MODE(EXTI_InitStruct->Mode));
 128:Drivers/STM32F4xx_HAL_Driver/Src/stm32f4xx_ll_exti.c **** 
 129:Drivers/STM32F4xx_HAL_Driver/Src/stm32f4xx_ll_exti.c ****   /* ENABLE LineCommand */
 130:Drivers/STM32F4xx_HAL_Driver/Src/stm32f4xx_ll_exti.c ****   if (EXTI_InitStruct->LineCommand != DISABLE)
  76              		.loc 1 130 0
  77 0002 0279     		ldrb	r2, [r0, #4]	@ zero_extendqisi2
  78 0004 002A     		cmp	r2, #0
  79 0006 57D0     		beq	.L5
 131:Drivers/STM32F4xx_HAL_Driver/Src/stm32f4xx_ll_exti.c ****   {
 132:Drivers/STM32F4xx_HAL_Driver/Src/stm32f4xx_ll_exti.c ****     assert_param(IS_LL_EXTI_TRIGGER(EXTI_InitStruct->Trigger));
 133:Drivers/STM32F4xx_HAL_Driver/Src/stm32f4xx_ll_exti.c **** 
 134:Drivers/STM32F4xx_HAL_Driver/Src/stm32f4xx_ll_exti.c ****     /* Configure EXTI Lines in range from 0 to 31 */
 135:Drivers/STM32F4xx_HAL_Driver/Src/stm32f4xx_ll_exti.c ****     if (EXTI_InitStruct->Line_0_31 != LL_EXTI_LINE_NONE)
  80              		.loc 1 135 0
  81 0008 0268     		ldr	r2, [r0]
  82 000a 002A     		cmp	r2, #0
  83 000c 61D0     		beq	.L14
 136:Drivers/STM32F4xx_HAL_Driver/Src/stm32f4xx_ll_exti.c ****     {
 137:Drivers/STM32F4xx_HAL_Driver/Src/stm32f4xx_ll_exti.c ****       switch (EXTI_InitStruct->Mode)
  84              		.loc 1 137 0
  85 000e 4179     		ldrb	r1, [r0, #5]	@ zero_extendqisi2
  86 0010 0129     		cmp	r1, #1
  87 0012 1CD0     		beq	.L8
  88 0014 19B1     		cbz	r1, .L9
  89 0016 0229     		cmp	r1, #2
  90 0018 24D0     		beq	.L10
 138:Drivers/STM32F4xx_HAL_Driver/Src/stm32f4xx_ll_exti.c ****       {
 139:Drivers/STM32F4xx_HAL_Driver/Src/stm32f4xx_ll_exti.c ****         case LL_EXTI_MODE_IT:
 140:Drivers/STM32F4xx_HAL_Driver/Src/stm32f4xx_ll_exti.c ****           /* First Disable Event on provided Lines */
 141:Drivers/STM32F4xx_HAL_Driver/Src/stm32f4xx_ll_exti.c ****           LL_EXTI_DisableEvent_0_31(EXTI_InitStruct->Line_0_31);
ARM GAS  /tmp/ccNW83Kq.s 			page 5


 142:Drivers/STM32F4xx_HAL_Driver/Src/stm32f4xx_ll_exti.c ****           /* Then Enable IT on provided Lines */
 143:Drivers/STM32F4xx_HAL_Driver/Src/stm32f4xx_ll_exti.c ****           LL_EXTI_EnableIT_0_31(EXTI_InitStruct->Line_0_31);
 144:Drivers/STM32F4xx_HAL_Driver/Src/stm32f4xx_ll_exti.c ****           break;
 145:Drivers/STM32F4xx_HAL_Driver/Src/stm32f4xx_ll_exti.c ****         case LL_EXTI_MODE_EVENT:
 146:Drivers/STM32F4xx_HAL_Driver/Src/stm32f4xx_ll_exti.c ****           /* First Disable IT on provided Lines */
 147:Drivers/STM32F4xx_HAL_Driver/Src/stm32f4xx_ll_exti.c ****           LL_EXTI_DisableIT_0_31(EXTI_InitStruct->Line_0_31);
 148:Drivers/STM32F4xx_HAL_Driver/Src/stm32f4xx_ll_exti.c ****           /* Then Enable Event on provided Lines */
 149:Drivers/STM32F4xx_HAL_Driver/Src/stm32f4xx_ll_exti.c ****           LL_EXTI_EnableEvent_0_31(EXTI_InitStruct->Line_0_31);
 150:Drivers/STM32F4xx_HAL_Driver/Src/stm32f4xx_ll_exti.c ****           break;
 151:Drivers/STM32F4xx_HAL_Driver/Src/stm32f4xx_ll_exti.c ****         case LL_EXTI_MODE_IT_EVENT:
 152:Drivers/STM32F4xx_HAL_Driver/Src/stm32f4xx_ll_exti.c ****           /* Directly Enable IT & Event on provided Lines */
 153:Drivers/STM32F4xx_HAL_Driver/Src/stm32f4xx_ll_exti.c ****           LL_EXTI_EnableIT_0_31(EXTI_InitStruct->Line_0_31);
 154:Drivers/STM32F4xx_HAL_Driver/Src/stm32f4xx_ll_exti.c ****           LL_EXTI_EnableEvent_0_31(EXTI_InitStruct->Line_0_31);
 155:Drivers/STM32F4xx_HAL_Driver/Src/stm32f4xx_ll_exti.c ****           break;
 156:Drivers/STM32F4xx_HAL_Driver/Src/stm32f4xx_ll_exti.c ****         default:
 157:Drivers/STM32F4xx_HAL_Driver/Src/stm32f4xx_ll_exti.c ****           status = ERROR;
  91              		.loc 1 157 0
  92 001a 0020     		movs	r0, #0
  93              	.LVL2:
  94 001c 09E0     		b	.L7
  95              	.LVL3:
  96              	.L9:
  97              	.LBB30:
  98              	.LBB31:
  99              		.file 2 "Drivers/STM32F4xx_HAL_Driver/Inc/stm32f4xx_ll_exti.h"
   1:Drivers/STM32F4xx_HAL_Driver/Inc/stm32f4xx_ll_exti.h **** /**
   2:Drivers/STM32F4xx_HAL_Driver/Inc/stm32f4xx_ll_exti.h ****   ******************************************************************************
   3:Drivers/STM32F4xx_HAL_Driver/Inc/stm32f4xx_ll_exti.h ****   * @file    stm32f4xx_ll_exti.h
   4:Drivers/STM32F4xx_HAL_Driver/Inc/stm32f4xx_ll_exti.h ****   * @author  MCD Application Team
   5:Drivers/STM32F4xx_HAL_Driver/Inc/stm32f4xx_ll_exti.h ****   * @brief   Header file of EXTI LL module.
   6:Drivers/STM32F4xx_HAL_Driver/Inc/stm32f4xx_ll_exti.h ****   ******************************************************************************
   7:Drivers/STM32F4xx_HAL_Driver/Inc/stm32f4xx_ll_exti.h ****   * @attention
   8:Drivers/STM32F4xx_HAL_Driver/Inc/stm32f4xx_ll_exti.h ****   *
   9:Drivers/STM32F4xx_HAL_Driver/Inc/stm32f4xx_ll_exti.h ****   * <h2><center>&copy; COPYRIGHT(c) 2017 STMicroelectronics</center></h2>
  10:Drivers/STM32F4xx_HAL_Driver/Inc/stm32f4xx_ll_exti.h ****   *
  11:Drivers/STM32F4xx_HAL_Driver/Inc/stm32f4xx_ll_exti.h ****   * Redistribution and use in source and binary forms, with or without modification,
  12:Drivers/STM32F4xx_HAL_Driver/Inc/stm32f4xx_ll_exti.h ****   * are permitted provided that the following conditions are met:
  13:Drivers/STM32F4xx_HAL_Driver/Inc/stm32f4xx_ll_exti.h ****   *   1. Redistributions of source code must retain the above copyright notice,
  14:Drivers/STM32F4xx_HAL_Driver/Inc/stm32f4xx_ll_exti.h ****   *      this list of conditions and the following disclaimer.
  15:Drivers/STM32F4xx_HAL_Driver/Inc/stm32f4xx_ll_exti.h ****   *   2. Redistributions in binary form must reproduce the above copyright notice,
  16:Drivers/STM32F4xx_HAL_Driver/Inc/stm32f4xx_ll_exti.h ****   *      this list of conditions and the following disclaimer in the documentation
  17:Drivers/STM32F4xx_HAL_Driver/Inc/stm32f4xx_ll_exti.h ****   *      and/or other materials provided with the distribution.
  18:Drivers/STM32F4xx_HAL_Driver/Inc/stm32f4xx_ll_exti.h ****   *   3. Neither the name of STMicroelectronics nor the names of its contributors
  19:Drivers/STM32F4xx_HAL_Driver/Inc/stm32f4xx_ll_exti.h ****   *      may be used to endorse or promote products derived from this software
  20:Drivers/STM32F4xx_HAL_Driver/Inc/stm32f4xx_ll_exti.h ****   *      without specific prior written permission.
  21:Drivers/STM32F4xx_HAL_Driver/Inc/stm32f4xx_ll_exti.h ****   *
  22:Drivers/STM32F4xx_HAL_Driver/Inc/stm32f4xx_ll_exti.h ****   * THIS SOFTWARE IS PROVIDED BY THE COPYRIGHT HOLDERS AND CONTRIBUTORS "AS IS"
  23:Drivers/STM32F4xx_HAL_Driver/Inc/stm32f4xx_ll_exti.h ****   * AND ANY EXPRESS OR IMPLIED WARRANTIES, INCLUDING, BUT NOT LIMITED TO, THE
  24:Drivers/STM32F4xx_HAL_Driver/Inc/stm32f4xx_ll_exti.h ****   * IMPLIED WARRANTIES OF MERCHANTABILITY AND FITNESS FOR A PARTICULAR PURPOSE ARE
  25:Drivers/STM32F4xx_HAL_Driver/Inc/stm32f4xx_ll_exti.h ****   * DISCLAIMED. IN NO EVENT SHALL THE COPYRIGHT HOLDER OR CONTRIBUTORS BE LIABLE
  26:Drivers/STM32F4xx_HAL_Driver/Inc/stm32f4xx_ll_exti.h ****   * FOR ANY DIRECT, INDIRECT, INCIDENTAL, SPECIAL, EXEMPLARY, OR CONSEQUENTIAL
  27:Drivers/STM32F4xx_HAL_Driver/Inc/stm32f4xx_ll_exti.h ****   * DAMAGES (INCLUDING, BUT NOT LIMITED TO, PROCUREMENT OF SUBSTITUTE GOODS OR
  28:Drivers/STM32F4xx_HAL_Driver/Inc/stm32f4xx_ll_exti.h ****   * SERVICES; LOSS OF USE, DATA, OR PROFITS; OR BUSINESS INTERRUPTION) HOWEVER
  29:Drivers/STM32F4xx_HAL_Driver/Inc/stm32f4xx_ll_exti.h ****   * CAUSED AND ON ANY THEORY OF LIABILITY, WHETHER IN CONTRACT, STRICT LIABILITY,
  30:Drivers/STM32F4xx_HAL_Driver/Inc/stm32f4xx_ll_exti.h ****   * OR TORT (INCLUDING NEGLIGENCE OR OTHERWISE) ARISING IN ANY WAY OUT OF THE USE
  31:Drivers/STM32F4xx_HAL_Driver/Inc/stm32f4xx_ll_exti.h ****   * OF THIS SOFTWARE, EVEN IF ADVISED OF THE POSSIBILITY OF SUCH DAMAGE.
  32:Drivers/STM32F4xx_HAL_Driver/Inc/stm32f4xx_ll_exti.h ****   *
ARM GAS  /tmp/ccNW83Kq.s 			page 6


  33:Drivers/STM32F4xx_HAL_Driver/Inc/stm32f4xx_ll_exti.h ****   ******************************************************************************
  34:Drivers/STM32F4xx_HAL_Driver/Inc/stm32f4xx_ll_exti.h ****   */
  35:Drivers/STM32F4xx_HAL_Driver/Inc/stm32f4xx_ll_exti.h **** 
  36:Drivers/STM32F4xx_HAL_Driver/Inc/stm32f4xx_ll_exti.h **** /* Define to prevent recursive inclusion -------------------------------------*/
  37:Drivers/STM32F4xx_HAL_Driver/Inc/stm32f4xx_ll_exti.h **** #ifndef __STM32F4xx_LL_EXTI_H
  38:Drivers/STM32F4xx_HAL_Driver/Inc/stm32f4xx_ll_exti.h **** #define __STM32F4xx_LL_EXTI_H
  39:Drivers/STM32F4xx_HAL_Driver/Inc/stm32f4xx_ll_exti.h **** 
  40:Drivers/STM32F4xx_HAL_Driver/Inc/stm32f4xx_ll_exti.h **** #ifdef __cplusplus
  41:Drivers/STM32F4xx_HAL_Driver/Inc/stm32f4xx_ll_exti.h **** extern "C" {
  42:Drivers/STM32F4xx_HAL_Driver/Inc/stm32f4xx_ll_exti.h **** #endif
  43:Drivers/STM32F4xx_HAL_Driver/Inc/stm32f4xx_ll_exti.h **** 
  44:Drivers/STM32F4xx_HAL_Driver/Inc/stm32f4xx_ll_exti.h **** /* Includes ------------------------------------------------------------------*/
  45:Drivers/STM32F4xx_HAL_Driver/Inc/stm32f4xx_ll_exti.h **** #include "stm32f4xx.h"
  46:Drivers/STM32F4xx_HAL_Driver/Inc/stm32f4xx_ll_exti.h **** 
  47:Drivers/STM32F4xx_HAL_Driver/Inc/stm32f4xx_ll_exti.h **** /** @addtogroup STM32F4xx_LL_Driver
  48:Drivers/STM32F4xx_HAL_Driver/Inc/stm32f4xx_ll_exti.h ****   * @{
  49:Drivers/STM32F4xx_HAL_Driver/Inc/stm32f4xx_ll_exti.h ****   */
  50:Drivers/STM32F4xx_HAL_Driver/Inc/stm32f4xx_ll_exti.h **** 
  51:Drivers/STM32F4xx_HAL_Driver/Inc/stm32f4xx_ll_exti.h **** #if defined (EXTI)
  52:Drivers/STM32F4xx_HAL_Driver/Inc/stm32f4xx_ll_exti.h **** 
  53:Drivers/STM32F4xx_HAL_Driver/Inc/stm32f4xx_ll_exti.h **** /** @defgroup EXTI_LL EXTI
  54:Drivers/STM32F4xx_HAL_Driver/Inc/stm32f4xx_ll_exti.h ****   * @{
  55:Drivers/STM32F4xx_HAL_Driver/Inc/stm32f4xx_ll_exti.h ****   */
  56:Drivers/STM32F4xx_HAL_Driver/Inc/stm32f4xx_ll_exti.h **** 
  57:Drivers/STM32F4xx_HAL_Driver/Inc/stm32f4xx_ll_exti.h **** /* Private types -------------------------------------------------------------*/
  58:Drivers/STM32F4xx_HAL_Driver/Inc/stm32f4xx_ll_exti.h **** /* Private variables ---------------------------------------------------------*/
  59:Drivers/STM32F4xx_HAL_Driver/Inc/stm32f4xx_ll_exti.h **** /* Private constants ---------------------------------------------------------*/
  60:Drivers/STM32F4xx_HAL_Driver/Inc/stm32f4xx_ll_exti.h **** /* Private Macros ------------------------------------------------------------*/
  61:Drivers/STM32F4xx_HAL_Driver/Inc/stm32f4xx_ll_exti.h **** #if defined(USE_FULL_LL_DRIVER)
  62:Drivers/STM32F4xx_HAL_Driver/Inc/stm32f4xx_ll_exti.h **** /** @defgroup EXTI_LL_Private_Macros EXTI Private Macros
  63:Drivers/STM32F4xx_HAL_Driver/Inc/stm32f4xx_ll_exti.h ****   * @{
  64:Drivers/STM32F4xx_HAL_Driver/Inc/stm32f4xx_ll_exti.h ****   */
  65:Drivers/STM32F4xx_HAL_Driver/Inc/stm32f4xx_ll_exti.h **** /**
  66:Drivers/STM32F4xx_HAL_Driver/Inc/stm32f4xx_ll_exti.h ****   * @}
  67:Drivers/STM32F4xx_HAL_Driver/Inc/stm32f4xx_ll_exti.h ****   */
  68:Drivers/STM32F4xx_HAL_Driver/Inc/stm32f4xx_ll_exti.h **** #endif /*USE_FULL_LL_DRIVER*/
  69:Drivers/STM32F4xx_HAL_Driver/Inc/stm32f4xx_ll_exti.h **** /* Exported types ------------------------------------------------------------*/
  70:Drivers/STM32F4xx_HAL_Driver/Inc/stm32f4xx_ll_exti.h **** #if defined(USE_FULL_LL_DRIVER)
  71:Drivers/STM32F4xx_HAL_Driver/Inc/stm32f4xx_ll_exti.h **** /** @defgroup EXTI_LL_ES_INIT EXTI Exported Init structure
  72:Drivers/STM32F4xx_HAL_Driver/Inc/stm32f4xx_ll_exti.h ****   * @{
  73:Drivers/STM32F4xx_HAL_Driver/Inc/stm32f4xx_ll_exti.h ****   */
  74:Drivers/STM32F4xx_HAL_Driver/Inc/stm32f4xx_ll_exti.h **** typedef struct
  75:Drivers/STM32F4xx_HAL_Driver/Inc/stm32f4xx_ll_exti.h **** {
  76:Drivers/STM32F4xx_HAL_Driver/Inc/stm32f4xx_ll_exti.h **** 
  77:Drivers/STM32F4xx_HAL_Driver/Inc/stm32f4xx_ll_exti.h ****   uint32_t Line_0_31;           /*!< Specifies the EXTI lines to be enabled or disabled for Lines i
  78:Drivers/STM32F4xx_HAL_Driver/Inc/stm32f4xx_ll_exti.h ****                                      This parameter can be any combination of @ref EXTI_LL_EC_LINE 
  79:Drivers/STM32F4xx_HAL_Driver/Inc/stm32f4xx_ll_exti.h **** 
  80:Drivers/STM32F4xx_HAL_Driver/Inc/stm32f4xx_ll_exti.h ****   FunctionalState LineCommand;  /*!< Specifies the new state of the selected EXTI lines.
  81:Drivers/STM32F4xx_HAL_Driver/Inc/stm32f4xx_ll_exti.h ****                                      This parameter can be set either to ENABLE or DISABLE */
  82:Drivers/STM32F4xx_HAL_Driver/Inc/stm32f4xx_ll_exti.h **** 
  83:Drivers/STM32F4xx_HAL_Driver/Inc/stm32f4xx_ll_exti.h ****   uint8_t Mode;                 /*!< Specifies the mode for the EXTI lines.
  84:Drivers/STM32F4xx_HAL_Driver/Inc/stm32f4xx_ll_exti.h ****                                      This parameter can be a value of @ref EXTI_LL_EC_MODE. */
  85:Drivers/STM32F4xx_HAL_Driver/Inc/stm32f4xx_ll_exti.h **** 
  86:Drivers/STM32F4xx_HAL_Driver/Inc/stm32f4xx_ll_exti.h ****   uint8_t Trigger;              /*!< Specifies the trigger signal active edge for the EXTI lines.
  87:Drivers/STM32F4xx_HAL_Driver/Inc/stm32f4xx_ll_exti.h ****                                      This parameter can be a value of @ref EXTI_LL_EC_TRIGGER. */
  88:Drivers/STM32F4xx_HAL_Driver/Inc/stm32f4xx_ll_exti.h **** } LL_EXTI_InitTypeDef;
  89:Drivers/STM32F4xx_HAL_Driver/Inc/stm32f4xx_ll_exti.h **** 
ARM GAS  /tmp/ccNW83Kq.s 			page 7


  90:Drivers/STM32F4xx_HAL_Driver/Inc/stm32f4xx_ll_exti.h **** /**
  91:Drivers/STM32F4xx_HAL_Driver/Inc/stm32f4xx_ll_exti.h ****   * @}
  92:Drivers/STM32F4xx_HAL_Driver/Inc/stm32f4xx_ll_exti.h ****   */
  93:Drivers/STM32F4xx_HAL_Driver/Inc/stm32f4xx_ll_exti.h **** #endif /*USE_FULL_LL_DRIVER*/
  94:Drivers/STM32F4xx_HAL_Driver/Inc/stm32f4xx_ll_exti.h **** 
  95:Drivers/STM32F4xx_HAL_Driver/Inc/stm32f4xx_ll_exti.h **** /* Exported constants --------------------------------------------------------*/
  96:Drivers/STM32F4xx_HAL_Driver/Inc/stm32f4xx_ll_exti.h **** /** @defgroup EXTI_LL_Exported_Constants EXTI Exported Constants
  97:Drivers/STM32F4xx_HAL_Driver/Inc/stm32f4xx_ll_exti.h ****   * @{
  98:Drivers/STM32F4xx_HAL_Driver/Inc/stm32f4xx_ll_exti.h ****   */
  99:Drivers/STM32F4xx_HAL_Driver/Inc/stm32f4xx_ll_exti.h **** 
 100:Drivers/STM32F4xx_HAL_Driver/Inc/stm32f4xx_ll_exti.h **** /** @defgroup EXTI_LL_EC_LINE LINE
 101:Drivers/STM32F4xx_HAL_Driver/Inc/stm32f4xx_ll_exti.h ****   * @{
 102:Drivers/STM32F4xx_HAL_Driver/Inc/stm32f4xx_ll_exti.h ****   */
 103:Drivers/STM32F4xx_HAL_Driver/Inc/stm32f4xx_ll_exti.h **** #define LL_EXTI_LINE_0                 EXTI_IMR_IM0           /*!< Extended line 0 */
 104:Drivers/STM32F4xx_HAL_Driver/Inc/stm32f4xx_ll_exti.h **** #define LL_EXTI_LINE_1                 EXTI_IMR_IM1           /*!< Extended line 1 */
 105:Drivers/STM32F4xx_HAL_Driver/Inc/stm32f4xx_ll_exti.h **** #define LL_EXTI_LINE_2                 EXTI_IMR_IM2           /*!< Extended line 2 */
 106:Drivers/STM32F4xx_HAL_Driver/Inc/stm32f4xx_ll_exti.h **** #define LL_EXTI_LINE_3                 EXTI_IMR_IM3           /*!< Extended line 3 */
 107:Drivers/STM32F4xx_HAL_Driver/Inc/stm32f4xx_ll_exti.h **** #define LL_EXTI_LINE_4                 EXTI_IMR_IM4           /*!< Extended line 4 */
 108:Drivers/STM32F4xx_HAL_Driver/Inc/stm32f4xx_ll_exti.h **** #define LL_EXTI_LINE_5                 EXTI_IMR_IM5           /*!< Extended line 5 */
 109:Drivers/STM32F4xx_HAL_Driver/Inc/stm32f4xx_ll_exti.h **** #define LL_EXTI_LINE_6                 EXTI_IMR_IM6           /*!< Extended line 6 */
 110:Drivers/STM32F4xx_HAL_Driver/Inc/stm32f4xx_ll_exti.h **** #define LL_EXTI_LINE_7                 EXTI_IMR_IM7           /*!< Extended line 7 */
 111:Drivers/STM32F4xx_HAL_Driver/Inc/stm32f4xx_ll_exti.h **** #define LL_EXTI_LINE_8                 EXTI_IMR_IM8           /*!< Extended line 8 */
 112:Drivers/STM32F4xx_HAL_Driver/Inc/stm32f4xx_ll_exti.h **** #define LL_EXTI_LINE_9                 EXTI_IMR_IM9           /*!< Extended line 9 */
 113:Drivers/STM32F4xx_HAL_Driver/Inc/stm32f4xx_ll_exti.h **** #define LL_EXTI_LINE_10                EXTI_IMR_IM10          /*!< Extended line 10 */
 114:Drivers/STM32F4xx_HAL_Driver/Inc/stm32f4xx_ll_exti.h **** #define LL_EXTI_LINE_11                EXTI_IMR_IM11          /*!< Extended line 11 */
 115:Drivers/STM32F4xx_HAL_Driver/Inc/stm32f4xx_ll_exti.h **** #define LL_EXTI_LINE_12                EXTI_IMR_IM12          /*!< Extended line 12 */
 116:Drivers/STM32F4xx_HAL_Driver/Inc/stm32f4xx_ll_exti.h **** #define LL_EXTI_LINE_13                EXTI_IMR_IM13          /*!< Extended line 13 */
 117:Drivers/STM32F4xx_HAL_Driver/Inc/stm32f4xx_ll_exti.h **** #define LL_EXTI_LINE_14                EXTI_IMR_IM14          /*!< Extended line 14 */
 118:Drivers/STM32F4xx_HAL_Driver/Inc/stm32f4xx_ll_exti.h **** #define LL_EXTI_LINE_15                EXTI_IMR_IM15          /*!< Extended line 15 */
 119:Drivers/STM32F4xx_HAL_Driver/Inc/stm32f4xx_ll_exti.h **** #if defined(EXTI_IMR_IM16)
 120:Drivers/STM32F4xx_HAL_Driver/Inc/stm32f4xx_ll_exti.h **** #define LL_EXTI_LINE_16                EXTI_IMR_IM16          /*!< Extended line 16 */
 121:Drivers/STM32F4xx_HAL_Driver/Inc/stm32f4xx_ll_exti.h **** #endif
 122:Drivers/STM32F4xx_HAL_Driver/Inc/stm32f4xx_ll_exti.h **** #define LL_EXTI_LINE_17                EXTI_IMR_IM17          /*!< Extended line 17 */
 123:Drivers/STM32F4xx_HAL_Driver/Inc/stm32f4xx_ll_exti.h **** #if defined(EXTI_IMR_IM18)
 124:Drivers/STM32F4xx_HAL_Driver/Inc/stm32f4xx_ll_exti.h **** #define LL_EXTI_LINE_18                EXTI_IMR_IM18          /*!< Extended line 18 */
 125:Drivers/STM32F4xx_HAL_Driver/Inc/stm32f4xx_ll_exti.h **** #endif
 126:Drivers/STM32F4xx_HAL_Driver/Inc/stm32f4xx_ll_exti.h **** #define LL_EXTI_LINE_19                EXTI_IMR_IM19          /*!< Extended line 19 */
 127:Drivers/STM32F4xx_HAL_Driver/Inc/stm32f4xx_ll_exti.h **** #if defined(EXTI_IMR_IM20)
 128:Drivers/STM32F4xx_HAL_Driver/Inc/stm32f4xx_ll_exti.h **** #define LL_EXTI_LINE_20                EXTI_IMR_IM20          /*!< Extended line 20 */
 129:Drivers/STM32F4xx_HAL_Driver/Inc/stm32f4xx_ll_exti.h **** #endif
 130:Drivers/STM32F4xx_HAL_Driver/Inc/stm32f4xx_ll_exti.h **** #if defined(EXTI_IMR_IM21)
 131:Drivers/STM32F4xx_HAL_Driver/Inc/stm32f4xx_ll_exti.h **** #define LL_EXTI_LINE_21                EXTI_IMR_IM21          /*!< Extended line 21 */
 132:Drivers/STM32F4xx_HAL_Driver/Inc/stm32f4xx_ll_exti.h **** #endif
 133:Drivers/STM32F4xx_HAL_Driver/Inc/stm32f4xx_ll_exti.h **** #if defined(EXTI_IMR_IM22)
 134:Drivers/STM32F4xx_HAL_Driver/Inc/stm32f4xx_ll_exti.h **** #define LL_EXTI_LINE_22                EXTI_IMR_IM22          /*!< Extended line 22 */
 135:Drivers/STM32F4xx_HAL_Driver/Inc/stm32f4xx_ll_exti.h **** #endif
 136:Drivers/STM32F4xx_HAL_Driver/Inc/stm32f4xx_ll_exti.h **** #if defined(EXTI_IMR_IM23)
 137:Drivers/STM32F4xx_HAL_Driver/Inc/stm32f4xx_ll_exti.h **** #define LL_EXTI_LINE_23                EXTI_IMR_IM23          /*!< Extended line 23 */
 138:Drivers/STM32F4xx_HAL_Driver/Inc/stm32f4xx_ll_exti.h **** #endif
 139:Drivers/STM32F4xx_HAL_Driver/Inc/stm32f4xx_ll_exti.h **** #if defined(EXTI_IMR_IM24)
 140:Drivers/STM32F4xx_HAL_Driver/Inc/stm32f4xx_ll_exti.h **** #define LL_EXTI_LINE_24                EXTI_IMR_IM24          /*!< Extended line 24 */
 141:Drivers/STM32F4xx_HAL_Driver/Inc/stm32f4xx_ll_exti.h **** #endif
 142:Drivers/STM32F4xx_HAL_Driver/Inc/stm32f4xx_ll_exti.h **** #if defined(EXTI_IMR_IM25)
 143:Drivers/STM32F4xx_HAL_Driver/Inc/stm32f4xx_ll_exti.h **** #define LL_EXTI_LINE_25                EXTI_IMR_IM25          /*!< Extended line 25 */
 144:Drivers/STM32F4xx_HAL_Driver/Inc/stm32f4xx_ll_exti.h **** #endif
 145:Drivers/STM32F4xx_HAL_Driver/Inc/stm32f4xx_ll_exti.h **** #if defined(EXTI_IMR_IM26)
 146:Drivers/STM32F4xx_HAL_Driver/Inc/stm32f4xx_ll_exti.h **** #define LL_EXTI_LINE_26                EXTI_IMR_IM26          /*!< Extended line 26 */
ARM GAS  /tmp/ccNW83Kq.s 			page 8


 147:Drivers/STM32F4xx_HAL_Driver/Inc/stm32f4xx_ll_exti.h **** #endif
 148:Drivers/STM32F4xx_HAL_Driver/Inc/stm32f4xx_ll_exti.h **** #if defined(EXTI_IMR_IM27)
 149:Drivers/STM32F4xx_HAL_Driver/Inc/stm32f4xx_ll_exti.h **** #define LL_EXTI_LINE_27                EXTI_IMR_IM27          /*!< Extended line 27 */
 150:Drivers/STM32F4xx_HAL_Driver/Inc/stm32f4xx_ll_exti.h **** #endif
 151:Drivers/STM32F4xx_HAL_Driver/Inc/stm32f4xx_ll_exti.h **** #if defined(EXTI_IMR_IM28)
 152:Drivers/STM32F4xx_HAL_Driver/Inc/stm32f4xx_ll_exti.h **** #define LL_EXTI_LINE_28                EXTI_IMR_IM28          /*!< Extended line 28 */
 153:Drivers/STM32F4xx_HAL_Driver/Inc/stm32f4xx_ll_exti.h **** #endif
 154:Drivers/STM32F4xx_HAL_Driver/Inc/stm32f4xx_ll_exti.h **** #if defined(EXTI_IMR_IM29)
 155:Drivers/STM32F4xx_HAL_Driver/Inc/stm32f4xx_ll_exti.h **** #define LL_EXTI_LINE_29                EXTI_IMR_IM29          /*!< Extended line 29 */
 156:Drivers/STM32F4xx_HAL_Driver/Inc/stm32f4xx_ll_exti.h **** #endif
 157:Drivers/STM32F4xx_HAL_Driver/Inc/stm32f4xx_ll_exti.h **** #if defined(EXTI_IMR_IM30)
 158:Drivers/STM32F4xx_HAL_Driver/Inc/stm32f4xx_ll_exti.h **** #define LL_EXTI_LINE_30                EXTI_IMR_IM30          /*!< Extended line 30 */
 159:Drivers/STM32F4xx_HAL_Driver/Inc/stm32f4xx_ll_exti.h **** #endif
 160:Drivers/STM32F4xx_HAL_Driver/Inc/stm32f4xx_ll_exti.h **** #if defined(EXTI_IMR_IM31)
 161:Drivers/STM32F4xx_HAL_Driver/Inc/stm32f4xx_ll_exti.h **** #define LL_EXTI_LINE_31                EXTI_IMR_IM31          /*!< Extended line 31 */
 162:Drivers/STM32F4xx_HAL_Driver/Inc/stm32f4xx_ll_exti.h **** #endif
 163:Drivers/STM32F4xx_HAL_Driver/Inc/stm32f4xx_ll_exti.h **** #define LL_EXTI_LINE_ALL_0_31          EXTI_IMR_IM            /*!< All Extended line not reserved*/
 164:Drivers/STM32F4xx_HAL_Driver/Inc/stm32f4xx_ll_exti.h **** 
 165:Drivers/STM32F4xx_HAL_Driver/Inc/stm32f4xx_ll_exti.h **** 
 166:Drivers/STM32F4xx_HAL_Driver/Inc/stm32f4xx_ll_exti.h **** #define LL_EXTI_LINE_ALL               ((uint32_t)0xFFFFFFFFU)  /*!< All Extended line */
 167:Drivers/STM32F4xx_HAL_Driver/Inc/stm32f4xx_ll_exti.h **** 
 168:Drivers/STM32F4xx_HAL_Driver/Inc/stm32f4xx_ll_exti.h **** #if defined(USE_FULL_LL_DRIVER)
 169:Drivers/STM32F4xx_HAL_Driver/Inc/stm32f4xx_ll_exti.h **** #define LL_EXTI_LINE_NONE              ((uint32_t)0x00000000U)  /*!< None Extended line */
 170:Drivers/STM32F4xx_HAL_Driver/Inc/stm32f4xx_ll_exti.h **** #endif /*USE_FULL_LL_DRIVER*/
 171:Drivers/STM32F4xx_HAL_Driver/Inc/stm32f4xx_ll_exti.h **** 
 172:Drivers/STM32F4xx_HAL_Driver/Inc/stm32f4xx_ll_exti.h **** /**
 173:Drivers/STM32F4xx_HAL_Driver/Inc/stm32f4xx_ll_exti.h ****   * @}
 174:Drivers/STM32F4xx_HAL_Driver/Inc/stm32f4xx_ll_exti.h ****   */
 175:Drivers/STM32F4xx_HAL_Driver/Inc/stm32f4xx_ll_exti.h **** #if defined(USE_FULL_LL_DRIVER)
 176:Drivers/STM32F4xx_HAL_Driver/Inc/stm32f4xx_ll_exti.h **** 
 177:Drivers/STM32F4xx_HAL_Driver/Inc/stm32f4xx_ll_exti.h **** /** @defgroup EXTI_LL_EC_MODE Mode
 178:Drivers/STM32F4xx_HAL_Driver/Inc/stm32f4xx_ll_exti.h ****   * @{
 179:Drivers/STM32F4xx_HAL_Driver/Inc/stm32f4xx_ll_exti.h ****   */
 180:Drivers/STM32F4xx_HAL_Driver/Inc/stm32f4xx_ll_exti.h **** #define LL_EXTI_MODE_IT                 ((uint8_t)0x00U) /*!< Interrupt Mode */
 181:Drivers/STM32F4xx_HAL_Driver/Inc/stm32f4xx_ll_exti.h **** #define LL_EXTI_MODE_EVENT              ((uint8_t)0x01U) /*!< Event Mode */
 182:Drivers/STM32F4xx_HAL_Driver/Inc/stm32f4xx_ll_exti.h **** #define LL_EXTI_MODE_IT_EVENT           ((uint8_t)0x02U) /*!< Interrupt & Event Mode */
 183:Drivers/STM32F4xx_HAL_Driver/Inc/stm32f4xx_ll_exti.h **** /**
 184:Drivers/STM32F4xx_HAL_Driver/Inc/stm32f4xx_ll_exti.h ****   * @}
 185:Drivers/STM32F4xx_HAL_Driver/Inc/stm32f4xx_ll_exti.h ****   */
 186:Drivers/STM32F4xx_HAL_Driver/Inc/stm32f4xx_ll_exti.h **** 
 187:Drivers/STM32F4xx_HAL_Driver/Inc/stm32f4xx_ll_exti.h **** /** @defgroup EXTI_LL_EC_TRIGGER Edge Trigger
 188:Drivers/STM32F4xx_HAL_Driver/Inc/stm32f4xx_ll_exti.h ****   * @{
 189:Drivers/STM32F4xx_HAL_Driver/Inc/stm32f4xx_ll_exti.h ****   */
 190:Drivers/STM32F4xx_HAL_Driver/Inc/stm32f4xx_ll_exti.h **** #define LL_EXTI_TRIGGER_NONE            ((uint8_t)0x00U) /*!< No Trigger Mode */
 191:Drivers/STM32F4xx_HAL_Driver/Inc/stm32f4xx_ll_exti.h **** #define LL_EXTI_TRIGGER_RISING          ((uint8_t)0x01U) /*!< Trigger Rising Mode */
 192:Drivers/STM32F4xx_HAL_Driver/Inc/stm32f4xx_ll_exti.h **** #define LL_EXTI_TRIGGER_FALLING         ((uint8_t)0x02U) /*!< Trigger Falling Mode */
 193:Drivers/STM32F4xx_HAL_Driver/Inc/stm32f4xx_ll_exti.h **** #define LL_EXTI_TRIGGER_RISING_FALLING  ((uint8_t)0x03U) /*!< Trigger Rising & Falling Mode */
 194:Drivers/STM32F4xx_HAL_Driver/Inc/stm32f4xx_ll_exti.h **** 
 195:Drivers/STM32F4xx_HAL_Driver/Inc/stm32f4xx_ll_exti.h **** /**
 196:Drivers/STM32F4xx_HAL_Driver/Inc/stm32f4xx_ll_exti.h ****   * @}
 197:Drivers/STM32F4xx_HAL_Driver/Inc/stm32f4xx_ll_exti.h ****   */
 198:Drivers/STM32F4xx_HAL_Driver/Inc/stm32f4xx_ll_exti.h **** 
 199:Drivers/STM32F4xx_HAL_Driver/Inc/stm32f4xx_ll_exti.h **** 
 200:Drivers/STM32F4xx_HAL_Driver/Inc/stm32f4xx_ll_exti.h **** #endif /*USE_FULL_LL_DRIVER*/
 201:Drivers/STM32F4xx_HAL_Driver/Inc/stm32f4xx_ll_exti.h **** 
 202:Drivers/STM32F4xx_HAL_Driver/Inc/stm32f4xx_ll_exti.h **** 
 203:Drivers/STM32F4xx_HAL_Driver/Inc/stm32f4xx_ll_exti.h **** /**
ARM GAS  /tmp/ccNW83Kq.s 			page 9


 204:Drivers/STM32F4xx_HAL_Driver/Inc/stm32f4xx_ll_exti.h ****   * @}
 205:Drivers/STM32F4xx_HAL_Driver/Inc/stm32f4xx_ll_exti.h ****   */
 206:Drivers/STM32F4xx_HAL_Driver/Inc/stm32f4xx_ll_exti.h **** 
 207:Drivers/STM32F4xx_HAL_Driver/Inc/stm32f4xx_ll_exti.h **** /* Exported macro ------------------------------------------------------------*/
 208:Drivers/STM32F4xx_HAL_Driver/Inc/stm32f4xx_ll_exti.h **** /** @defgroup EXTI_LL_Exported_Macros EXTI Exported Macros
 209:Drivers/STM32F4xx_HAL_Driver/Inc/stm32f4xx_ll_exti.h ****   * @{
 210:Drivers/STM32F4xx_HAL_Driver/Inc/stm32f4xx_ll_exti.h ****   */
 211:Drivers/STM32F4xx_HAL_Driver/Inc/stm32f4xx_ll_exti.h **** 
 212:Drivers/STM32F4xx_HAL_Driver/Inc/stm32f4xx_ll_exti.h **** /** @defgroup EXTI_LL_EM_WRITE_READ Common Write and read registers Macros
 213:Drivers/STM32F4xx_HAL_Driver/Inc/stm32f4xx_ll_exti.h ****   * @{
 214:Drivers/STM32F4xx_HAL_Driver/Inc/stm32f4xx_ll_exti.h ****   */
 215:Drivers/STM32F4xx_HAL_Driver/Inc/stm32f4xx_ll_exti.h **** 
 216:Drivers/STM32F4xx_HAL_Driver/Inc/stm32f4xx_ll_exti.h **** /**
 217:Drivers/STM32F4xx_HAL_Driver/Inc/stm32f4xx_ll_exti.h ****   * @brief  Write a value in EXTI register
 218:Drivers/STM32F4xx_HAL_Driver/Inc/stm32f4xx_ll_exti.h ****   * @param  __REG__ Register to be written
 219:Drivers/STM32F4xx_HAL_Driver/Inc/stm32f4xx_ll_exti.h ****   * @param  __VALUE__ Value to be written in the register
 220:Drivers/STM32F4xx_HAL_Driver/Inc/stm32f4xx_ll_exti.h ****   * @retval None
 221:Drivers/STM32F4xx_HAL_Driver/Inc/stm32f4xx_ll_exti.h ****   */
 222:Drivers/STM32F4xx_HAL_Driver/Inc/stm32f4xx_ll_exti.h **** #define LL_EXTI_WriteReg(__REG__, __VALUE__) WRITE_REG(EXTI->__REG__, (__VALUE__))
 223:Drivers/STM32F4xx_HAL_Driver/Inc/stm32f4xx_ll_exti.h **** 
 224:Drivers/STM32F4xx_HAL_Driver/Inc/stm32f4xx_ll_exti.h **** /**
 225:Drivers/STM32F4xx_HAL_Driver/Inc/stm32f4xx_ll_exti.h ****   * @brief  Read a value in EXTI register
 226:Drivers/STM32F4xx_HAL_Driver/Inc/stm32f4xx_ll_exti.h ****   * @param  __REG__ Register to be read
 227:Drivers/STM32F4xx_HAL_Driver/Inc/stm32f4xx_ll_exti.h ****   * @retval Register value
 228:Drivers/STM32F4xx_HAL_Driver/Inc/stm32f4xx_ll_exti.h ****   */
 229:Drivers/STM32F4xx_HAL_Driver/Inc/stm32f4xx_ll_exti.h **** #define LL_EXTI_ReadReg(__REG__) READ_REG(EXTI->__REG__)
 230:Drivers/STM32F4xx_HAL_Driver/Inc/stm32f4xx_ll_exti.h **** /**
 231:Drivers/STM32F4xx_HAL_Driver/Inc/stm32f4xx_ll_exti.h ****   * @}
 232:Drivers/STM32F4xx_HAL_Driver/Inc/stm32f4xx_ll_exti.h ****   */
 233:Drivers/STM32F4xx_HAL_Driver/Inc/stm32f4xx_ll_exti.h **** 
 234:Drivers/STM32F4xx_HAL_Driver/Inc/stm32f4xx_ll_exti.h **** 
 235:Drivers/STM32F4xx_HAL_Driver/Inc/stm32f4xx_ll_exti.h **** /**
 236:Drivers/STM32F4xx_HAL_Driver/Inc/stm32f4xx_ll_exti.h ****   * @}
 237:Drivers/STM32F4xx_HAL_Driver/Inc/stm32f4xx_ll_exti.h ****   */
 238:Drivers/STM32F4xx_HAL_Driver/Inc/stm32f4xx_ll_exti.h **** 
 239:Drivers/STM32F4xx_HAL_Driver/Inc/stm32f4xx_ll_exti.h **** 
 240:Drivers/STM32F4xx_HAL_Driver/Inc/stm32f4xx_ll_exti.h **** 
 241:Drivers/STM32F4xx_HAL_Driver/Inc/stm32f4xx_ll_exti.h **** /* Exported functions --------------------------------------------------------*/
 242:Drivers/STM32F4xx_HAL_Driver/Inc/stm32f4xx_ll_exti.h **** /** @defgroup EXTI_LL_Exported_Functions EXTI Exported Functions
 243:Drivers/STM32F4xx_HAL_Driver/Inc/stm32f4xx_ll_exti.h ****  * @{
 244:Drivers/STM32F4xx_HAL_Driver/Inc/stm32f4xx_ll_exti.h ****  */
 245:Drivers/STM32F4xx_HAL_Driver/Inc/stm32f4xx_ll_exti.h **** /** @defgroup EXTI_LL_EF_IT_Management IT_Management
 246:Drivers/STM32F4xx_HAL_Driver/Inc/stm32f4xx_ll_exti.h ****   * @{
 247:Drivers/STM32F4xx_HAL_Driver/Inc/stm32f4xx_ll_exti.h ****   */
 248:Drivers/STM32F4xx_HAL_Driver/Inc/stm32f4xx_ll_exti.h **** 
 249:Drivers/STM32F4xx_HAL_Driver/Inc/stm32f4xx_ll_exti.h **** /**
 250:Drivers/STM32F4xx_HAL_Driver/Inc/stm32f4xx_ll_exti.h ****   * @brief  Enable ExtiLine Interrupt request for Lines in range 0 to 31
 251:Drivers/STM32F4xx_HAL_Driver/Inc/stm32f4xx_ll_exti.h ****   * @note The reset value for the direct or internal lines (see RM)
 252:Drivers/STM32F4xx_HAL_Driver/Inc/stm32f4xx_ll_exti.h ****   *       is set to 1 in order to enable the interrupt by default.
 253:Drivers/STM32F4xx_HAL_Driver/Inc/stm32f4xx_ll_exti.h ****   *       Bits are set automatically at Power on.
 254:Drivers/STM32F4xx_HAL_Driver/Inc/stm32f4xx_ll_exti.h ****   * @rmtoll IMR         IMx           LL_EXTI_EnableIT_0_31
 255:Drivers/STM32F4xx_HAL_Driver/Inc/stm32f4xx_ll_exti.h ****   * @param  ExtiLine This parameter can be one of the following values:
 256:Drivers/STM32F4xx_HAL_Driver/Inc/stm32f4xx_ll_exti.h ****   *         @arg @ref LL_EXTI_LINE_0
 257:Drivers/STM32F4xx_HAL_Driver/Inc/stm32f4xx_ll_exti.h ****   *         @arg @ref LL_EXTI_LINE_1
 258:Drivers/STM32F4xx_HAL_Driver/Inc/stm32f4xx_ll_exti.h ****   *         @arg @ref LL_EXTI_LINE_2
 259:Drivers/STM32F4xx_HAL_Driver/Inc/stm32f4xx_ll_exti.h ****   *         @arg @ref LL_EXTI_LINE_3
 260:Drivers/STM32F4xx_HAL_Driver/Inc/stm32f4xx_ll_exti.h ****   *         @arg @ref LL_EXTI_LINE_4
ARM GAS  /tmp/ccNW83Kq.s 			page 10


 261:Drivers/STM32F4xx_HAL_Driver/Inc/stm32f4xx_ll_exti.h ****   *         @arg @ref LL_EXTI_LINE_5
 262:Drivers/STM32F4xx_HAL_Driver/Inc/stm32f4xx_ll_exti.h ****   *         @arg @ref LL_EXTI_LINE_6
 263:Drivers/STM32F4xx_HAL_Driver/Inc/stm32f4xx_ll_exti.h ****   *         @arg @ref LL_EXTI_LINE_7
 264:Drivers/STM32F4xx_HAL_Driver/Inc/stm32f4xx_ll_exti.h ****   *         @arg @ref LL_EXTI_LINE_8
 265:Drivers/STM32F4xx_HAL_Driver/Inc/stm32f4xx_ll_exti.h ****   *         @arg @ref LL_EXTI_LINE_9
 266:Drivers/STM32F4xx_HAL_Driver/Inc/stm32f4xx_ll_exti.h ****   *         @arg @ref LL_EXTI_LINE_10
 267:Drivers/STM32F4xx_HAL_Driver/Inc/stm32f4xx_ll_exti.h ****   *         @arg @ref LL_EXTI_LINE_11
 268:Drivers/STM32F4xx_HAL_Driver/Inc/stm32f4xx_ll_exti.h ****   *         @arg @ref LL_EXTI_LINE_12
 269:Drivers/STM32F4xx_HAL_Driver/Inc/stm32f4xx_ll_exti.h ****   *         @arg @ref LL_EXTI_LINE_13
 270:Drivers/STM32F4xx_HAL_Driver/Inc/stm32f4xx_ll_exti.h ****   *         @arg @ref LL_EXTI_LINE_14
 271:Drivers/STM32F4xx_HAL_Driver/Inc/stm32f4xx_ll_exti.h ****   *         @arg @ref LL_EXTI_LINE_15
 272:Drivers/STM32F4xx_HAL_Driver/Inc/stm32f4xx_ll_exti.h ****   *         @arg @ref LL_EXTI_LINE_16
 273:Drivers/STM32F4xx_HAL_Driver/Inc/stm32f4xx_ll_exti.h ****   *         @arg @ref LL_EXTI_LINE_17
 274:Drivers/STM32F4xx_HAL_Driver/Inc/stm32f4xx_ll_exti.h ****   *         @arg @ref LL_EXTI_LINE_18
 275:Drivers/STM32F4xx_HAL_Driver/Inc/stm32f4xx_ll_exti.h ****   *         @arg @ref LL_EXTI_LINE_19(*)
 276:Drivers/STM32F4xx_HAL_Driver/Inc/stm32f4xx_ll_exti.h ****   *         @arg @ref LL_EXTI_LINE_20(*)
 277:Drivers/STM32F4xx_HAL_Driver/Inc/stm32f4xx_ll_exti.h ****   *         @arg @ref LL_EXTI_LINE_21
 278:Drivers/STM32F4xx_HAL_Driver/Inc/stm32f4xx_ll_exti.h ****   *         @arg @ref LL_EXTI_LINE_22
 279:Drivers/STM32F4xx_HAL_Driver/Inc/stm32f4xx_ll_exti.h ****   *         @arg @ref LL_EXTI_LINE_23(*)
 280:Drivers/STM32F4xx_HAL_Driver/Inc/stm32f4xx_ll_exti.h ****   *         @arg @ref LL_EXTI_LINE_ALL_0_31
 281:Drivers/STM32F4xx_HAL_Driver/Inc/stm32f4xx_ll_exti.h ****   * @note   (*): Available in some devices
 282:Drivers/STM32F4xx_HAL_Driver/Inc/stm32f4xx_ll_exti.h ****   * @note   Please check each device line mapping for EXTI Line availability
 283:Drivers/STM32F4xx_HAL_Driver/Inc/stm32f4xx_ll_exti.h ****   * @retval None
 284:Drivers/STM32F4xx_HAL_Driver/Inc/stm32f4xx_ll_exti.h ****   */
 285:Drivers/STM32F4xx_HAL_Driver/Inc/stm32f4xx_ll_exti.h **** __STATIC_INLINE void LL_EXTI_EnableIT_0_31(uint32_t ExtiLine)
 286:Drivers/STM32F4xx_HAL_Driver/Inc/stm32f4xx_ll_exti.h **** {
 287:Drivers/STM32F4xx_HAL_Driver/Inc/stm32f4xx_ll_exti.h ****   SET_BIT(EXTI->IMR, ExtiLine);
 288:Drivers/STM32F4xx_HAL_Driver/Inc/stm32f4xx_ll_exti.h **** }
 289:Drivers/STM32F4xx_HAL_Driver/Inc/stm32f4xx_ll_exti.h **** 
 290:Drivers/STM32F4xx_HAL_Driver/Inc/stm32f4xx_ll_exti.h **** /**
 291:Drivers/STM32F4xx_HAL_Driver/Inc/stm32f4xx_ll_exti.h ****   * @brief  Disable ExtiLine Interrupt request for Lines in range 0 to 31
 292:Drivers/STM32F4xx_HAL_Driver/Inc/stm32f4xx_ll_exti.h ****   * @note The reset value for the direct or internal lines (see RM)
 293:Drivers/STM32F4xx_HAL_Driver/Inc/stm32f4xx_ll_exti.h ****   *       is set to 1 in order to enable the interrupt by default.
 294:Drivers/STM32F4xx_HAL_Driver/Inc/stm32f4xx_ll_exti.h ****   *       Bits are set automatically at Power on.
 295:Drivers/STM32F4xx_HAL_Driver/Inc/stm32f4xx_ll_exti.h ****   * @rmtoll IMR         IMx           LL_EXTI_DisableIT_0_31
 296:Drivers/STM32F4xx_HAL_Driver/Inc/stm32f4xx_ll_exti.h ****   * @param  ExtiLine This parameter can be one of the following values:
 297:Drivers/STM32F4xx_HAL_Driver/Inc/stm32f4xx_ll_exti.h ****   *         @arg @ref LL_EXTI_LINE_0
 298:Drivers/STM32F4xx_HAL_Driver/Inc/stm32f4xx_ll_exti.h ****   *         @arg @ref LL_EXTI_LINE_1
 299:Drivers/STM32F4xx_HAL_Driver/Inc/stm32f4xx_ll_exti.h ****   *         @arg @ref LL_EXTI_LINE_2
 300:Drivers/STM32F4xx_HAL_Driver/Inc/stm32f4xx_ll_exti.h ****   *         @arg @ref LL_EXTI_LINE_3
 301:Drivers/STM32F4xx_HAL_Driver/Inc/stm32f4xx_ll_exti.h ****   *         @arg @ref LL_EXTI_LINE_4
 302:Drivers/STM32F4xx_HAL_Driver/Inc/stm32f4xx_ll_exti.h ****   *         @arg @ref LL_EXTI_LINE_5
 303:Drivers/STM32F4xx_HAL_Driver/Inc/stm32f4xx_ll_exti.h ****   *         @arg @ref LL_EXTI_LINE_6
 304:Drivers/STM32F4xx_HAL_Driver/Inc/stm32f4xx_ll_exti.h ****   *         @arg @ref LL_EXTI_LINE_7
 305:Drivers/STM32F4xx_HAL_Driver/Inc/stm32f4xx_ll_exti.h ****   *         @arg @ref LL_EXTI_LINE_8
 306:Drivers/STM32F4xx_HAL_Driver/Inc/stm32f4xx_ll_exti.h ****   *         @arg @ref LL_EXTI_LINE_9
 307:Drivers/STM32F4xx_HAL_Driver/Inc/stm32f4xx_ll_exti.h ****   *         @arg @ref LL_EXTI_LINE_10
 308:Drivers/STM32F4xx_HAL_Driver/Inc/stm32f4xx_ll_exti.h ****   *         @arg @ref LL_EXTI_LINE_11
 309:Drivers/STM32F4xx_HAL_Driver/Inc/stm32f4xx_ll_exti.h ****   *         @arg @ref LL_EXTI_LINE_12
 310:Drivers/STM32F4xx_HAL_Driver/Inc/stm32f4xx_ll_exti.h ****   *         @arg @ref LL_EXTI_LINE_13
 311:Drivers/STM32F4xx_HAL_Driver/Inc/stm32f4xx_ll_exti.h ****   *         @arg @ref LL_EXTI_LINE_14
 312:Drivers/STM32F4xx_HAL_Driver/Inc/stm32f4xx_ll_exti.h ****   *         @arg @ref LL_EXTI_LINE_15
 313:Drivers/STM32F4xx_HAL_Driver/Inc/stm32f4xx_ll_exti.h ****   *         @arg @ref LL_EXTI_LINE_16
 314:Drivers/STM32F4xx_HAL_Driver/Inc/stm32f4xx_ll_exti.h ****   *         @arg @ref LL_EXTI_LINE_17
 315:Drivers/STM32F4xx_HAL_Driver/Inc/stm32f4xx_ll_exti.h ****   *         @arg @ref LL_EXTI_LINE_18
 316:Drivers/STM32F4xx_HAL_Driver/Inc/stm32f4xx_ll_exti.h ****   *         @arg @ref LL_EXTI_LINE_19(*)
 317:Drivers/STM32F4xx_HAL_Driver/Inc/stm32f4xx_ll_exti.h ****   *         @arg @ref LL_EXTI_LINE_20(*)
ARM GAS  /tmp/ccNW83Kq.s 			page 11


 318:Drivers/STM32F4xx_HAL_Driver/Inc/stm32f4xx_ll_exti.h ****   *         @arg @ref LL_EXTI_LINE_21
 319:Drivers/STM32F4xx_HAL_Driver/Inc/stm32f4xx_ll_exti.h ****   *         @arg @ref LL_EXTI_LINE_22
 320:Drivers/STM32F4xx_HAL_Driver/Inc/stm32f4xx_ll_exti.h ****   *         @arg @ref LL_EXTI_LINE_23(*)
 321:Drivers/STM32F4xx_HAL_Driver/Inc/stm32f4xx_ll_exti.h ****   *         @arg @ref LL_EXTI_LINE_ALL_0_31
 322:Drivers/STM32F4xx_HAL_Driver/Inc/stm32f4xx_ll_exti.h ****   * @note   (*): Available in some devices
 323:Drivers/STM32F4xx_HAL_Driver/Inc/stm32f4xx_ll_exti.h ****   * @note   Please check each device line mapping for EXTI Line availability
 324:Drivers/STM32F4xx_HAL_Driver/Inc/stm32f4xx_ll_exti.h ****   * @retval None
 325:Drivers/STM32F4xx_HAL_Driver/Inc/stm32f4xx_ll_exti.h ****   */
 326:Drivers/STM32F4xx_HAL_Driver/Inc/stm32f4xx_ll_exti.h **** __STATIC_INLINE void LL_EXTI_DisableIT_0_31(uint32_t ExtiLine)
 327:Drivers/STM32F4xx_HAL_Driver/Inc/stm32f4xx_ll_exti.h **** {
 328:Drivers/STM32F4xx_HAL_Driver/Inc/stm32f4xx_ll_exti.h ****   CLEAR_BIT(EXTI->IMR, ExtiLine);
 329:Drivers/STM32F4xx_HAL_Driver/Inc/stm32f4xx_ll_exti.h **** }
 330:Drivers/STM32F4xx_HAL_Driver/Inc/stm32f4xx_ll_exti.h **** 
 331:Drivers/STM32F4xx_HAL_Driver/Inc/stm32f4xx_ll_exti.h **** 
 332:Drivers/STM32F4xx_HAL_Driver/Inc/stm32f4xx_ll_exti.h **** /**
 333:Drivers/STM32F4xx_HAL_Driver/Inc/stm32f4xx_ll_exti.h ****   * @brief  Indicate if ExtiLine Interrupt request is enabled for Lines in range 0 to 31
 334:Drivers/STM32F4xx_HAL_Driver/Inc/stm32f4xx_ll_exti.h ****   * @note The reset value for the direct or internal lines (see RM)
 335:Drivers/STM32F4xx_HAL_Driver/Inc/stm32f4xx_ll_exti.h ****   *       is set to 1 in order to enable the interrupt by default.
 336:Drivers/STM32F4xx_HAL_Driver/Inc/stm32f4xx_ll_exti.h ****   *       Bits are set automatically at Power on.
 337:Drivers/STM32F4xx_HAL_Driver/Inc/stm32f4xx_ll_exti.h ****   * @rmtoll IMR         IMx           LL_EXTI_IsEnabledIT_0_31
 338:Drivers/STM32F4xx_HAL_Driver/Inc/stm32f4xx_ll_exti.h ****   * @param  ExtiLine This parameter can be one of the following values:
 339:Drivers/STM32F4xx_HAL_Driver/Inc/stm32f4xx_ll_exti.h ****   *         @arg @ref LL_EXTI_LINE_0
 340:Drivers/STM32F4xx_HAL_Driver/Inc/stm32f4xx_ll_exti.h ****   *         @arg @ref LL_EXTI_LINE_1
 341:Drivers/STM32F4xx_HAL_Driver/Inc/stm32f4xx_ll_exti.h ****   *         @arg @ref LL_EXTI_LINE_2
 342:Drivers/STM32F4xx_HAL_Driver/Inc/stm32f4xx_ll_exti.h ****   *         @arg @ref LL_EXTI_LINE_3
 343:Drivers/STM32F4xx_HAL_Driver/Inc/stm32f4xx_ll_exti.h ****   *         @arg @ref LL_EXTI_LINE_4
 344:Drivers/STM32F4xx_HAL_Driver/Inc/stm32f4xx_ll_exti.h ****   *         @arg @ref LL_EXTI_LINE_5
 345:Drivers/STM32F4xx_HAL_Driver/Inc/stm32f4xx_ll_exti.h ****   *         @arg @ref LL_EXTI_LINE_6
 346:Drivers/STM32F4xx_HAL_Driver/Inc/stm32f4xx_ll_exti.h ****   *         @arg @ref LL_EXTI_LINE_7
 347:Drivers/STM32F4xx_HAL_Driver/Inc/stm32f4xx_ll_exti.h ****   *         @arg @ref LL_EXTI_LINE_8
 348:Drivers/STM32F4xx_HAL_Driver/Inc/stm32f4xx_ll_exti.h ****   *         @arg @ref LL_EXTI_LINE_9
 349:Drivers/STM32F4xx_HAL_Driver/Inc/stm32f4xx_ll_exti.h ****   *         @arg @ref LL_EXTI_LINE_10
 350:Drivers/STM32F4xx_HAL_Driver/Inc/stm32f4xx_ll_exti.h ****   *         @arg @ref LL_EXTI_LINE_11
 351:Drivers/STM32F4xx_HAL_Driver/Inc/stm32f4xx_ll_exti.h ****   *         @arg @ref LL_EXTI_LINE_12
 352:Drivers/STM32F4xx_HAL_Driver/Inc/stm32f4xx_ll_exti.h ****   *         @arg @ref LL_EXTI_LINE_13
 353:Drivers/STM32F4xx_HAL_Driver/Inc/stm32f4xx_ll_exti.h ****   *         @arg @ref LL_EXTI_LINE_14
 354:Drivers/STM32F4xx_HAL_Driver/Inc/stm32f4xx_ll_exti.h ****   *         @arg @ref LL_EXTI_LINE_15
 355:Drivers/STM32F4xx_HAL_Driver/Inc/stm32f4xx_ll_exti.h ****   *         @arg @ref LL_EXTI_LINE_16
 356:Drivers/STM32F4xx_HAL_Driver/Inc/stm32f4xx_ll_exti.h ****   *         @arg @ref LL_EXTI_LINE_17
 357:Drivers/STM32F4xx_HAL_Driver/Inc/stm32f4xx_ll_exti.h ****   *         @arg @ref LL_EXTI_LINE_18
 358:Drivers/STM32F4xx_HAL_Driver/Inc/stm32f4xx_ll_exti.h ****   *         @arg @ref LL_EXTI_LINE_19(*)
 359:Drivers/STM32F4xx_HAL_Driver/Inc/stm32f4xx_ll_exti.h ****   *         @arg @ref LL_EXTI_LINE_20(*)
 360:Drivers/STM32F4xx_HAL_Driver/Inc/stm32f4xx_ll_exti.h ****   *         @arg @ref LL_EXTI_LINE_21
 361:Drivers/STM32F4xx_HAL_Driver/Inc/stm32f4xx_ll_exti.h ****   *         @arg @ref LL_EXTI_LINE_22
 362:Drivers/STM32F4xx_HAL_Driver/Inc/stm32f4xx_ll_exti.h ****   *         @arg @ref LL_EXTI_LINE_23(*)
 363:Drivers/STM32F4xx_HAL_Driver/Inc/stm32f4xx_ll_exti.h ****   *         @arg @ref LL_EXTI_LINE_ALL_0_31
 364:Drivers/STM32F4xx_HAL_Driver/Inc/stm32f4xx_ll_exti.h ****   * @note   (*): Available in some devices
 365:Drivers/STM32F4xx_HAL_Driver/Inc/stm32f4xx_ll_exti.h ****   * @note   Please check each device line mapping for EXTI Line availability
 366:Drivers/STM32F4xx_HAL_Driver/Inc/stm32f4xx_ll_exti.h ****   * @retval State of bit (1 or 0).
 367:Drivers/STM32F4xx_HAL_Driver/Inc/stm32f4xx_ll_exti.h ****   */
 368:Drivers/STM32F4xx_HAL_Driver/Inc/stm32f4xx_ll_exti.h **** __STATIC_INLINE uint32_t LL_EXTI_IsEnabledIT_0_31(uint32_t ExtiLine)
 369:Drivers/STM32F4xx_HAL_Driver/Inc/stm32f4xx_ll_exti.h **** {
 370:Drivers/STM32F4xx_HAL_Driver/Inc/stm32f4xx_ll_exti.h ****   return (READ_BIT(EXTI->IMR, ExtiLine) == (ExtiLine));
 371:Drivers/STM32F4xx_HAL_Driver/Inc/stm32f4xx_ll_exti.h **** }
 372:Drivers/STM32F4xx_HAL_Driver/Inc/stm32f4xx_ll_exti.h **** 
 373:Drivers/STM32F4xx_HAL_Driver/Inc/stm32f4xx_ll_exti.h **** 
 374:Drivers/STM32F4xx_HAL_Driver/Inc/stm32f4xx_ll_exti.h **** /**
ARM GAS  /tmp/ccNW83Kq.s 			page 12


 375:Drivers/STM32F4xx_HAL_Driver/Inc/stm32f4xx_ll_exti.h ****   * @}
 376:Drivers/STM32F4xx_HAL_Driver/Inc/stm32f4xx_ll_exti.h ****   */
 377:Drivers/STM32F4xx_HAL_Driver/Inc/stm32f4xx_ll_exti.h **** 
 378:Drivers/STM32F4xx_HAL_Driver/Inc/stm32f4xx_ll_exti.h **** /** @defgroup EXTI_LL_EF_Event_Management Event_Management
 379:Drivers/STM32F4xx_HAL_Driver/Inc/stm32f4xx_ll_exti.h ****   * @{
 380:Drivers/STM32F4xx_HAL_Driver/Inc/stm32f4xx_ll_exti.h ****   */
 381:Drivers/STM32F4xx_HAL_Driver/Inc/stm32f4xx_ll_exti.h **** 
 382:Drivers/STM32F4xx_HAL_Driver/Inc/stm32f4xx_ll_exti.h **** /**
 383:Drivers/STM32F4xx_HAL_Driver/Inc/stm32f4xx_ll_exti.h ****   * @brief  Enable ExtiLine Event request for Lines in range 0 to 31
 384:Drivers/STM32F4xx_HAL_Driver/Inc/stm32f4xx_ll_exti.h ****   * @rmtoll EMR         EMx           LL_EXTI_EnableEvent_0_31
 385:Drivers/STM32F4xx_HAL_Driver/Inc/stm32f4xx_ll_exti.h ****   * @param  ExtiLine This parameter can be one of the following values:
 386:Drivers/STM32F4xx_HAL_Driver/Inc/stm32f4xx_ll_exti.h ****   *         @arg @ref LL_EXTI_LINE_0
 387:Drivers/STM32F4xx_HAL_Driver/Inc/stm32f4xx_ll_exti.h ****   *         @arg @ref LL_EXTI_LINE_1
 388:Drivers/STM32F4xx_HAL_Driver/Inc/stm32f4xx_ll_exti.h ****   *         @arg @ref LL_EXTI_LINE_2
 389:Drivers/STM32F4xx_HAL_Driver/Inc/stm32f4xx_ll_exti.h ****   *         @arg @ref LL_EXTI_LINE_3
 390:Drivers/STM32F4xx_HAL_Driver/Inc/stm32f4xx_ll_exti.h ****   *         @arg @ref LL_EXTI_LINE_4
 391:Drivers/STM32F4xx_HAL_Driver/Inc/stm32f4xx_ll_exti.h ****   *         @arg @ref LL_EXTI_LINE_5
 392:Drivers/STM32F4xx_HAL_Driver/Inc/stm32f4xx_ll_exti.h ****   *         @arg @ref LL_EXTI_LINE_6
 393:Drivers/STM32F4xx_HAL_Driver/Inc/stm32f4xx_ll_exti.h ****   *         @arg @ref LL_EXTI_LINE_7
 394:Drivers/STM32F4xx_HAL_Driver/Inc/stm32f4xx_ll_exti.h ****   *         @arg @ref LL_EXTI_LINE_8
 395:Drivers/STM32F4xx_HAL_Driver/Inc/stm32f4xx_ll_exti.h ****   *         @arg @ref LL_EXTI_LINE_9
 396:Drivers/STM32F4xx_HAL_Driver/Inc/stm32f4xx_ll_exti.h ****   *         @arg @ref LL_EXTI_LINE_10
 397:Drivers/STM32F4xx_HAL_Driver/Inc/stm32f4xx_ll_exti.h ****   *         @arg @ref LL_EXTI_LINE_11
 398:Drivers/STM32F4xx_HAL_Driver/Inc/stm32f4xx_ll_exti.h ****   *         @arg @ref LL_EXTI_LINE_12
 399:Drivers/STM32F4xx_HAL_Driver/Inc/stm32f4xx_ll_exti.h ****   *         @arg @ref LL_EXTI_LINE_13
 400:Drivers/STM32F4xx_HAL_Driver/Inc/stm32f4xx_ll_exti.h ****   *         @arg @ref LL_EXTI_LINE_14
 401:Drivers/STM32F4xx_HAL_Driver/Inc/stm32f4xx_ll_exti.h ****   *         @arg @ref LL_EXTI_LINE_15
 402:Drivers/STM32F4xx_HAL_Driver/Inc/stm32f4xx_ll_exti.h ****   *         @arg @ref LL_EXTI_LINE_16
 403:Drivers/STM32F4xx_HAL_Driver/Inc/stm32f4xx_ll_exti.h ****   *         @arg @ref LL_EXTI_LINE_17
 404:Drivers/STM32F4xx_HAL_Driver/Inc/stm32f4xx_ll_exti.h ****   *         @arg @ref LL_EXTI_LINE_18
 405:Drivers/STM32F4xx_HAL_Driver/Inc/stm32f4xx_ll_exti.h ****   *         @arg @ref LL_EXTI_LINE_19(*)
 406:Drivers/STM32F4xx_HAL_Driver/Inc/stm32f4xx_ll_exti.h ****   *         @arg @ref LL_EXTI_LINE_20(*)
 407:Drivers/STM32F4xx_HAL_Driver/Inc/stm32f4xx_ll_exti.h ****   *         @arg @ref LL_EXTI_LINE_21
 408:Drivers/STM32F4xx_HAL_Driver/Inc/stm32f4xx_ll_exti.h ****   *         @arg @ref LL_EXTI_LINE_22
 409:Drivers/STM32F4xx_HAL_Driver/Inc/stm32f4xx_ll_exti.h ****   *         @arg @ref LL_EXTI_LINE_23(*)
 410:Drivers/STM32F4xx_HAL_Driver/Inc/stm32f4xx_ll_exti.h ****   *         @arg @ref LL_EXTI_LINE_ALL_0_31
 411:Drivers/STM32F4xx_HAL_Driver/Inc/stm32f4xx_ll_exti.h ****   * @note   (*): Available in some devices
 412:Drivers/STM32F4xx_HAL_Driver/Inc/stm32f4xx_ll_exti.h ****   * @note   Please check each device line mapping for EXTI Line availability
 413:Drivers/STM32F4xx_HAL_Driver/Inc/stm32f4xx_ll_exti.h ****   * @retval None
 414:Drivers/STM32F4xx_HAL_Driver/Inc/stm32f4xx_ll_exti.h ****   */
 415:Drivers/STM32F4xx_HAL_Driver/Inc/stm32f4xx_ll_exti.h **** __STATIC_INLINE void LL_EXTI_EnableEvent_0_31(uint32_t ExtiLine)
 416:Drivers/STM32F4xx_HAL_Driver/Inc/stm32f4xx_ll_exti.h **** {
 417:Drivers/STM32F4xx_HAL_Driver/Inc/stm32f4xx_ll_exti.h ****   SET_BIT(EXTI->EMR, ExtiLine);
 418:Drivers/STM32F4xx_HAL_Driver/Inc/stm32f4xx_ll_exti.h **** 
 419:Drivers/STM32F4xx_HAL_Driver/Inc/stm32f4xx_ll_exti.h **** }
 420:Drivers/STM32F4xx_HAL_Driver/Inc/stm32f4xx_ll_exti.h **** 
 421:Drivers/STM32F4xx_HAL_Driver/Inc/stm32f4xx_ll_exti.h **** 
 422:Drivers/STM32F4xx_HAL_Driver/Inc/stm32f4xx_ll_exti.h **** /**
 423:Drivers/STM32F4xx_HAL_Driver/Inc/stm32f4xx_ll_exti.h ****   * @brief  Disable ExtiLine Event request for Lines in range 0 to 31
 424:Drivers/STM32F4xx_HAL_Driver/Inc/stm32f4xx_ll_exti.h ****   * @rmtoll EMR         EMx           LL_EXTI_DisableEvent_0_31
 425:Drivers/STM32F4xx_HAL_Driver/Inc/stm32f4xx_ll_exti.h ****   * @param  ExtiLine This parameter can be one of the following values:
 426:Drivers/STM32F4xx_HAL_Driver/Inc/stm32f4xx_ll_exti.h ****   *         @arg @ref LL_EXTI_LINE_0
 427:Drivers/STM32F4xx_HAL_Driver/Inc/stm32f4xx_ll_exti.h ****   *         @arg @ref LL_EXTI_LINE_1
 428:Drivers/STM32F4xx_HAL_Driver/Inc/stm32f4xx_ll_exti.h ****   *         @arg @ref LL_EXTI_LINE_2
 429:Drivers/STM32F4xx_HAL_Driver/Inc/stm32f4xx_ll_exti.h ****   *         @arg @ref LL_EXTI_LINE_3
 430:Drivers/STM32F4xx_HAL_Driver/Inc/stm32f4xx_ll_exti.h ****   *         @arg @ref LL_EXTI_LINE_4
 431:Drivers/STM32F4xx_HAL_Driver/Inc/stm32f4xx_ll_exti.h ****   *         @arg @ref LL_EXTI_LINE_5
ARM GAS  /tmp/ccNW83Kq.s 			page 13


 432:Drivers/STM32F4xx_HAL_Driver/Inc/stm32f4xx_ll_exti.h ****   *         @arg @ref LL_EXTI_LINE_6
 433:Drivers/STM32F4xx_HAL_Driver/Inc/stm32f4xx_ll_exti.h ****   *         @arg @ref LL_EXTI_LINE_7
 434:Drivers/STM32F4xx_HAL_Driver/Inc/stm32f4xx_ll_exti.h ****   *         @arg @ref LL_EXTI_LINE_8
 435:Drivers/STM32F4xx_HAL_Driver/Inc/stm32f4xx_ll_exti.h ****   *         @arg @ref LL_EXTI_LINE_9
 436:Drivers/STM32F4xx_HAL_Driver/Inc/stm32f4xx_ll_exti.h ****   *         @arg @ref LL_EXTI_LINE_10
 437:Drivers/STM32F4xx_HAL_Driver/Inc/stm32f4xx_ll_exti.h ****   *         @arg @ref LL_EXTI_LINE_11
 438:Drivers/STM32F4xx_HAL_Driver/Inc/stm32f4xx_ll_exti.h ****   *         @arg @ref LL_EXTI_LINE_12
 439:Drivers/STM32F4xx_HAL_Driver/Inc/stm32f4xx_ll_exti.h ****   *         @arg @ref LL_EXTI_LINE_13
 440:Drivers/STM32F4xx_HAL_Driver/Inc/stm32f4xx_ll_exti.h ****   *         @arg @ref LL_EXTI_LINE_14
 441:Drivers/STM32F4xx_HAL_Driver/Inc/stm32f4xx_ll_exti.h ****   *         @arg @ref LL_EXTI_LINE_15
 442:Drivers/STM32F4xx_HAL_Driver/Inc/stm32f4xx_ll_exti.h ****   *         @arg @ref LL_EXTI_LINE_16
 443:Drivers/STM32F4xx_HAL_Driver/Inc/stm32f4xx_ll_exti.h ****   *         @arg @ref LL_EXTI_LINE_17
 444:Drivers/STM32F4xx_HAL_Driver/Inc/stm32f4xx_ll_exti.h ****   *         @arg @ref LL_EXTI_LINE_18
 445:Drivers/STM32F4xx_HAL_Driver/Inc/stm32f4xx_ll_exti.h ****   *         @arg @ref LL_EXTI_LINE_19(*)
 446:Drivers/STM32F4xx_HAL_Driver/Inc/stm32f4xx_ll_exti.h ****   *         @arg @ref LL_EXTI_LINE_20(*)
 447:Drivers/STM32F4xx_HAL_Driver/Inc/stm32f4xx_ll_exti.h ****   *         @arg @ref LL_EXTI_LINE_21
 448:Drivers/STM32F4xx_HAL_Driver/Inc/stm32f4xx_ll_exti.h ****   *         @arg @ref LL_EXTI_LINE_22
 449:Drivers/STM32F4xx_HAL_Driver/Inc/stm32f4xx_ll_exti.h ****   *         @arg @ref LL_EXTI_LINE_23(*)
 450:Drivers/STM32F4xx_HAL_Driver/Inc/stm32f4xx_ll_exti.h ****   *         @arg @ref LL_EXTI_LINE_ALL_0_31
 451:Drivers/STM32F4xx_HAL_Driver/Inc/stm32f4xx_ll_exti.h ****   * @note   (*): Available in some devices
 452:Drivers/STM32F4xx_HAL_Driver/Inc/stm32f4xx_ll_exti.h ****   * @note   Please check each device line mapping for EXTI Line availability
 453:Drivers/STM32F4xx_HAL_Driver/Inc/stm32f4xx_ll_exti.h ****   * @retval None
 454:Drivers/STM32F4xx_HAL_Driver/Inc/stm32f4xx_ll_exti.h ****   */
 455:Drivers/STM32F4xx_HAL_Driver/Inc/stm32f4xx_ll_exti.h **** __STATIC_INLINE void LL_EXTI_DisableEvent_0_31(uint32_t ExtiLine)
 456:Drivers/STM32F4xx_HAL_Driver/Inc/stm32f4xx_ll_exti.h **** {
 457:Drivers/STM32F4xx_HAL_Driver/Inc/stm32f4xx_ll_exti.h ****   CLEAR_BIT(EXTI->EMR, ExtiLine);
 100              		.loc 2 457 0
 101 001e 2E49     		ldr	r1, .L24
 102 0020 4868     		ldr	r0, [r1, #4]
 103              	.LVL4:
 104 0022 20EA0202 		bic	r2, r0, r2
 105              	.LVL5:
 106 0026 4A60     		str	r2, [r1, #4]
 107              	.LVL6:
 108              	.LBE31:
 109              	.LBE30:
 143:Drivers/STM32F4xx_HAL_Driver/Src/stm32f4xx_ll_exti.c ****           break;
 110              		.loc 1 143 0
 111 0028 1A68     		ldr	r2, [r3]
 112              	.LVL7:
 113              	.LBB32:
 114              	.LBB33:
 287:Drivers/STM32F4xx_HAL_Driver/Inc/stm32f4xx_ll_exti.h **** }
 115              		.loc 2 287 0
 116 002a 0868     		ldr	r0, [r1]
 117 002c 0243     		orrs	r2, r2, r0
 118              	.LVL8:
 119 002e 0A60     		str	r2, [r1]
 120              	.LVL9:
 121              	.LBE33:
 122              	.LBE32:
 123:Drivers/STM32F4xx_HAL_Driver/Src/stm32f4xx_ll_exti.c ****   /* Check the parameters */
 123              		.loc 1 123 0
 124 0030 0120     		movs	r0, #1
 125              	.L7:
 126              	.LVL10:
 158:Drivers/STM32F4xx_HAL_Driver/Src/stm32f4xx_ll_exti.c ****           break;
ARM GAS  /tmp/ccNW83Kq.s 			page 14


 159:Drivers/STM32F4xx_HAL_Driver/Src/stm32f4xx_ll_exti.c ****       }
 160:Drivers/STM32F4xx_HAL_Driver/Src/stm32f4xx_ll_exti.c ****       if (EXTI_InitStruct->Trigger != LL_EXTI_TRIGGER_NONE)
 127              		.loc 1 160 0
 128 0032 9A79     		ldrb	r2, [r3, #6]	@ zero_extendqisi2
 129 0034 002A     		cmp	r2, #0
 130 0036 4ED0     		beq	.L20
 122:Drivers/STM32F4xx_HAL_Driver/Src/stm32f4xx_ll_exti.c ****   ErrorStatus status = SUCCESS;
 131              		.loc 1 122 0
 132 0038 10B4     		push	{r4}
 133              	.LCFI0:
 134              		.cfi_def_cfa_offset 4
 135              		.cfi_offset 4, -4
 161:Drivers/STM32F4xx_HAL_Driver/Src/stm32f4xx_ll_exti.c ****       {
 162:Drivers/STM32F4xx_HAL_Driver/Src/stm32f4xx_ll_exti.c ****         switch (EXTI_InitStruct->Trigger)
 136              		.loc 1 162 0
 137 003a 022A     		cmp	r2, #2
 138 003c 27D0     		beq	.L11
 139 003e 032A     		cmp	r2, #3
 140 0040 30D0     		beq	.L12
 141 0042 012A     		cmp	r2, #1
 142 0044 18D0     		beq	.L23
 163:Drivers/STM32F4xx_HAL_Driver/Src/stm32f4xx_ll_exti.c ****         {
 164:Drivers/STM32F4xx_HAL_Driver/Src/stm32f4xx_ll_exti.c ****           case LL_EXTI_TRIGGER_RISING:
 165:Drivers/STM32F4xx_HAL_Driver/Src/stm32f4xx_ll_exti.c ****             /* First Disable Falling Trigger on provided Lines */
 166:Drivers/STM32F4xx_HAL_Driver/Src/stm32f4xx_ll_exti.c ****             LL_EXTI_DisableFallingTrig_0_31(EXTI_InitStruct->Line_0_31);
 167:Drivers/STM32F4xx_HAL_Driver/Src/stm32f4xx_ll_exti.c ****             /* Then Enable Rising Trigger on provided Lines */
 168:Drivers/STM32F4xx_HAL_Driver/Src/stm32f4xx_ll_exti.c ****             LL_EXTI_EnableRisingTrig_0_31(EXTI_InitStruct->Line_0_31);
 169:Drivers/STM32F4xx_HAL_Driver/Src/stm32f4xx_ll_exti.c ****             break;
 170:Drivers/STM32F4xx_HAL_Driver/Src/stm32f4xx_ll_exti.c ****           case LL_EXTI_TRIGGER_FALLING:
 171:Drivers/STM32F4xx_HAL_Driver/Src/stm32f4xx_ll_exti.c ****             /* First Disable Rising Trigger on provided Lines */
 172:Drivers/STM32F4xx_HAL_Driver/Src/stm32f4xx_ll_exti.c ****             LL_EXTI_DisableRisingTrig_0_31(EXTI_InitStruct->Line_0_31);
 173:Drivers/STM32F4xx_HAL_Driver/Src/stm32f4xx_ll_exti.c ****             /* Then Enable Falling Trigger on provided Lines */
 174:Drivers/STM32F4xx_HAL_Driver/Src/stm32f4xx_ll_exti.c ****             LL_EXTI_EnableFallingTrig_0_31(EXTI_InitStruct->Line_0_31);
 175:Drivers/STM32F4xx_HAL_Driver/Src/stm32f4xx_ll_exti.c ****             break;
 176:Drivers/STM32F4xx_HAL_Driver/Src/stm32f4xx_ll_exti.c ****           case LL_EXTI_TRIGGER_RISING_FALLING:
 177:Drivers/STM32F4xx_HAL_Driver/Src/stm32f4xx_ll_exti.c ****             LL_EXTI_EnableRisingTrig_0_31(EXTI_InitStruct->Line_0_31);
 178:Drivers/STM32F4xx_HAL_Driver/Src/stm32f4xx_ll_exti.c ****             LL_EXTI_EnableFallingTrig_0_31(EXTI_InitStruct->Line_0_31);
 179:Drivers/STM32F4xx_HAL_Driver/Src/stm32f4xx_ll_exti.c ****             break;
 180:Drivers/STM32F4xx_HAL_Driver/Src/stm32f4xx_ll_exti.c ****           default:
 181:Drivers/STM32F4xx_HAL_Driver/Src/stm32f4xx_ll_exti.c ****             status = ERROR;
 143              		.loc 1 181 0
 144 0046 0020     		movs	r0, #0
 145              	.LVL11:
 146              	.L6:
 182:Drivers/STM32F4xx_HAL_Driver/Src/stm32f4xx_ll_exti.c ****             break;
 183:Drivers/STM32F4xx_HAL_Driver/Src/stm32f4xx_ll_exti.c ****         }
 184:Drivers/STM32F4xx_HAL_Driver/Src/stm32f4xx_ll_exti.c ****       }
 185:Drivers/STM32F4xx_HAL_Driver/Src/stm32f4xx_ll_exti.c ****     }
 186:Drivers/STM32F4xx_HAL_Driver/Src/stm32f4xx_ll_exti.c ****   }
 187:Drivers/STM32F4xx_HAL_Driver/Src/stm32f4xx_ll_exti.c ****   /* DISABLE LineCommand */
 188:Drivers/STM32F4xx_HAL_Driver/Src/stm32f4xx_ll_exti.c ****   else
 189:Drivers/STM32F4xx_HAL_Driver/Src/stm32f4xx_ll_exti.c ****   {
 190:Drivers/STM32F4xx_HAL_Driver/Src/stm32f4xx_ll_exti.c ****     /* De-configure EXTI Lines in range from 0 to 31 */
 191:Drivers/STM32F4xx_HAL_Driver/Src/stm32f4xx_ll_exti.c ****     LL_EXTI_DisableIT_0_31(EXTI_InitStruct->Line_0_31);
 192:Drivers/STM32F4xx_HAL_Driver/Src/stm32f4xx_ll_exti.c ****     LL_EXTI_DisableEvent_0_31(EXTI_InitStruct->Line_0_31);
 193:Drivers/STM32F4xx_HAL_Driver/Src/stm32f4xx_ll_exti.c ****   }
 194:Drivers/STM32F4xx_HAL_Driver/Src/stm32f4xx_ll_exti.c ****   return status;
ARM GAS  /tmp/ccNW83Kq.s 			page 15


 195:Drivers/STM32F4xx_HAL_Driver/Src/stm32f4xx_ll_exti.c **** }
 147              		.loc 1 195 0
 148 0048 5DF8044B 		ldr	r4, [sp], #4
 149              	.LCFI1:
 150              		.cfi_restore 4
 151              		.cfi_def_cfa_offset 0
 152 004c 7047     		bx	lr
 153              	.LVL12:
 154              	.L8:
 155              	.LBB34:
 156              	.LBB35:
 328:Drivers/STM32F4xx_HAL_Driver/Inc/stm32f4xx_ll_exti.h **** }
 157              		.loc 2 328 0
 158 004e 2249     		ldr	r1, .L24
 159 0050 0868     		ldr	r0, [r1]
 160              	.LVL13:
 161 0052 20EA0202 		bic	r2, r0, r2
 162              	.LVL14:
 163 0056 0A60     		str	r2, [r1]
 164              	.LVL15:
 165              	.LBE35:
 166              	.LBE34:
 149:Drivers/STM32F4xx_HAL_Driver/Src/stm32f4xx_ll_exti.c ****           break;
 167              		.loc 1 149 0
 168 0058 1A68     		ldr	r2, [r3]
 169              	.LVL16:
 170              	.LBB36:
 171              	.LBB37:
 417:Drivers/STM32F4xx_HAL_Driver/Inc/stm32f4xx_ll_exti.h **** 
 172              		.loc 2 417 0
 173 005a 4868     		ldr	r0, [r1, #4]
 174 005c 0243     		orrs	r2, r2, r0
 175              	.LVL17:
 176 005e 4A60     		str	r2, [r1, #4]
 177              	.LVL18:
 178              	.LBE37:
 179              	.LBE36:
 123:Drivers/STM32F4xx_HAL_Driver/Src/stm32f4xx_ll_exti.c ****   /* Check the parameters */
 180              		.loc 1 123 0
 181 0060 0120     		movs	r0, #1
 182 0062 E6E7     		b	.L7
 183              	.LVL19:
 184              	.L10:
 185              	.LBB38:
 186              	.LBB39:
 287:Drivers/STM32F4xx_HAL_Driver/Inc/stm32f4xx_ll_exti.h **** }
 187              		.loc 2 287 0
 188 0064 1C49     		ldr	r1, .L24
 189 0066 0868     		ldr	r0, [r1]
 190              	.LVL20:
 191 0068 0243     		orrs	r2, r2, r0
 192              	.LVL21:
 193 006a 0A60     		str	r2, [r1]
 194              	.LVL22:
 195              	.LBE39:
 196              	.LBE38:
 154:Drivers/STM32F4xx_HAL_Driver/Src/stm32f4xx_ll_exti.c ****           break;
ARM GAS  /tmp/ccNW83Kq.s 			page 16


 197              		.loc 1 154 0
 198 006c 1A68     		ldr	r2, [r3]
 199              	.LVL23:
 200              	.LBB40:
 201              	.LBB41:
 417:Drivers/STM32F4xx_HAL_Driver/Inc/stm32f4xx_ll_exti.h **** 
 202              		.loc 2 417 0
 203 006e 4868     		ldr	r0, [r1, #4]
 204 0070 0243     		orrs	r2, r2, r0
 205              	.LVL24:
 206 0072 4A60     		str	r2, [r1, #4]
 207              	.LVL25:
 208              	.LBE41:
 209              	.LBE40:
 123:Drivers/STM32F4xx_HAL_Driver/Src/stm32f4xx_ll_exti.c ****   /* Check the parameters */
 210              		.loc 1 123 0
 211 0074 0120     		movs	r0, #1
 212 0076 DCE7     		b	.L7
 213              	.LVL26:
 214              	.L23:
 215              	.LCFI2:
 216              		.cfi_def_cfa_offset 4
 217              		.cfi_offset 4, -4
 166:Drivers/STM32F4xx_HAL_Driver/Src/stm32f4xx_ll_exti.c ****             /* Then Enable Rising Trigger on provided Lines */
 218              		.loc 1 166 0
 219 0078 1C68     		ldr	r4, [r3]
 220              	.LVL27:
 221              	.LBB42:
 222              	.LBB43:
 458:Drivers/STM32F4xx_HAL_Driver/Inc/stm32f4xx_ll_exti.h **** }
 459:Drivers/STM32F4xx_HAL_Driver/Inc/stm32f4xx_ll_exti.h **** 
 460:Drivers/STM32F4xx_HAL_Driver/Inc/stm32f4xx_ll_exti.h **** 
 461:Drivers/STM32F4xx_HAL_Driver/Inc/stm32f4xx_ll_exti.h **** /**
 462:Drivers/STM32F4xx_HAL_Driver/Inc/stm32f4xx_ll_exti.h ****   * @brief  Indicate if ExtiLine Event request is enabled for Lines in range 0 to 31
 463:Drivers/STM32F4xx_HAL_Driver/Inc/stm32f4xx_ll_exti.h ****   * @rmtoll EMR         EMx           LL_EXTI_IsEnabledEvent_0_31
 464:Drivers/STM32F4xx_HAL_Driver/Inc/stm32f4xx_ll_exti.h ****   * @param  ExtiLine This parameter can be one of the following values:
 465:Drivers/STM32F4xx_HAL_Driver/Inc/stm32f4xx_ll_exti.h ****   *         @arg @ref LL_EXTI_LINE_0
 466:Drivers/STM32F4xx_HAL_Driver/Inc/stm32f4xx_ll_exti.h ****   *         @arg @ref LL_EXTI_LINE_1
 467:Drivers/STM32F4xx_HAL_Driver/Inc/stm32f4xx_ll_exti.h ****   *         @arg @ref LL_EXTI_LINE_2
 468:Drivers/STM32F4xx_HAL_Driver/Inc/stm32f4xx_ll_exti.h ****   *         @arg @ref LL_EXTI_LINE_3
 469:Drivers/STM32F4xx_HAL_Driver/Inc/stm32f4xx_ll_exti.h ****   *         @arg @ref LL_EXTI_LINE_4
 470:Drivers/STM32F4xx_HAL_Driver/Inc/stm32f4xx_ll_exti.h ****   *         @arg @ref LL_EXTI_LINE_5
 471:Drivers/STM32F4xx_HAL_Driver/Inc/stm32f4xx_ll_exti.h ****   *         @arg @ref LL_EXTI_LINE_6
 472:Drivers/STM32F4xx_HAL_Driver/Inc/stm32f4xx_ll_exti.h ****   *         @arg @ref LL_EXTI_LINE_7
 473:Drivers/STM32F4xx_HAL_Driver/Inc/stm32f4xx_ll_exti.h ****   *         @arg @ref LL_EXTI_LINE_8
 474:Drivers/STM32F4xx_HAL_Driver/Inc/stm32f4xx_ll_exti.h ****   *         @arg @ref LL_EXTI_LINE_9
 475:Drivers/STM32F4xx_HAL_Driver/Inc/stm32f4xx_ll_exti.h ****   *         @arg @ref LL_EXTI_LINE_10
 476:Drivers/STM32F4xx_HAL_Driver/Inc/stm32f4xx_ll_exti.h ****   *         @arg @ref LL_EXTI_LINE_11
 477:Drivers/STM32F4xx_HAL_Driver/Inc/stm32f4xx_ll_exti.h ****   *         @arg @ref LL_EXTI_LINE_12
 478:Drivers/STM32F4xx_HAL_Driver/Inc/stm32f4xx_ll_exti.h ****   *         @arg @ref LL_EXTI_LINE_13
 479:Drivers/STM32F4xx_HAL_Driver/Inc/stm32f4xx_ll_exti.h ****   *         @arg @ref LL_EXTI_LINE_14
 480:Drivers/STM32F4xx_HAL_Driver/Inc/stm32f4xx_ll_exti.h ****   *         @arg @ref LL_EXTI_LINE_15
 481:Drivers/STM32F4xx_HAL_Driver/Inc/stm32f4xx_ll_exti.h ****   *         @arg @ref LL_EXTI_LINE_16
 482:Drivers/STM32F4xx_HAL_Driver/Inc/stm32f4xx_ll_exti.h ****   *         @arg @ref LL_EXTI_LINE_17
 483:Drivers/STM32F4xx_HAL_Driver/Inc/stm32f4xx_ll_exti.h ****   *         @arg @ref LL_EXTI_LINE_18
 484:Drivers/STM32F4xx_HAL_Driver/Inc/stm32f4xx_ll_exti.h ****   *         @arg @ref LL_EXTI_LINE_19(*)
 485:Drivers/STM32F4xx_HAL_Driver/Inc/stm32f4xx_ll_exti.h ****   *         @arg @ref LL_EXTI_LINE_20(*)
ARM GAS  /tmp/ccNW83Kq.s 			page 17


 486:Drivers/STM32F4xx_HAL_Driver/Inc/stm32f4xx_ll_exti.h ****   *         @arg @ref LL_EXTI_LINE_21
 487:Drivers/STM32F4xx_HAL_Driver/Inc/stm32f4xx_ll_exti.h ****   *         @arg @ref LL_EXTI_LINE_22
 488:Drivers/STM32F4xx_HAL_Driver/Inc/stm32f4xx_ll_exti.h ****   *         @arg @ref LL_EXTI_LINE_23(*)
 489:Drivers/STM32F4xx_HAL_Driver/Inc/stm32f4xx_ll_exti.h ****   *         @arg @ref LL_EXTI_LINE_ALL_0_31
 490:Drivers/STM32F4xx_HAL_Driver/Inc/stm32f4xx_ll_exti.h ****   * @note   (*): Available in some devices
 491:Drivers/STM32F4xx_HAL_Driver/Inc/stm32f4xx_ll_exti.h ****   * @note   Please check each device line mapping for EXTI Line availability
 492:Drivers/STM32F4xx_HAL_Driver/Inc/stm32f4xx_ll_exti.h ****   * @retval State of bit (1 or 0).
 493:Drivers/STM32F4xx_HAL_Driver/Inc/stm32f4xx_ll_exti.h ****   */
 494:Drivers/STM32F4xx_HAL_Driver/Inc/stm32f4xx_ll_exti.h **** __STATIC_INLINE uint32_t LL_EXTI_IsEnabledEvent_0_31(uint32_t ExtiLine)
 495:Drivers/STM32F4xx_HAL_Driver/Inc/stm32f4xx_ll_exti.h **** {
 496:Drivers/STM32F4xx_HAL_Driver/Inc/stm32f4xx_ll_exti.h ****   return (READ_BIT(EXTI->EMR, ExtiLine) == (ExtiLine));
 497:Drivers/STM32F4xx_HAL_Driver/Inc/stm32f4xx_ll_exti.h **** 
 498:Drivers/STM32F4xx_HAL_Driver/Inc/stm32f4xx_ll_exti.h **** }
 499:Drivers/STM32F4xx_HAL_Driver/Inc/stm32f4xx_ll_exti.h **** 
 500:Drivers/STM32F4xx_HAL_Driver/Inc/stm32f4xx_ll_exti.h **** 
 501:Drivers/STM32F4xx_HAL_Driver/Inc/stm32f4xx_ll_exti.h **** /**
 502:Drivers/STM32F4xx_HAL_Driver/Inc/stm32f4xx_ll_exti.h ****   * @}
 503:Drivers/STM32F4xx_HAL_Driver/Inc/stm32f4xx_ll_exti.h ****   */
 504:Drivers/STM32F4xx_HAL_Driver/Inc/stm32f4xx_ll_exti.h **** 
 505:Drivers/STM32F4xx_HAL_Driver/Inc/stm32f4xx_ll_exti.h **** /** @defgroup EXTI_LL_EF_Rising_Trigger_Management Rising_Trigger_Management
 506:Drivers/STM32F4xx_HAL_Driver/Inc/stm32f4xx_ll_exti.h ****   * @{
 507:Drivers/STM32F4xx_HAL_Driver/Inc/stm32f4xx_ll_exti.h ****   */
 508:Drivers/STM32F4xx_HAL_Driver/Inc/stm32f4xx_ll_exti.h **** 
 509:Drivers/STM32F4xx_HAL_Driver/Inc/stm32f4xx_ll_exti.h **** /**
 510:Drivers/STM32F4xx_HAL_Driver/Inc/stm32f4xx_ll_exti.h ****   * @brief  Enable ExtiLine Rising Edge Trigger for Lines in range 0 to 31
 511:Drivers/STM32F4xx_HAL_Driver/Inc/stm32f4xx_ll_exti.h ****   * @note The configurable wakeup lines are edge-triggered. No glitch must be
 512:Drivers/STM32F4xx_HAL_Driver/Inc/stm32f4xx_ll_exti.h ****   *       generated on these lines. If a rising edge on a configurable interrupt
 513:Drivers/STM32F4xx_HAL_Driver/Inc/stm32f4xx_ll_exti.h ****   *       line occurs during a write operation in the EXTI_RTSR register, the
 514:Drivers/STM32F4xx_HAL_Driver/Inc/stm32f4xx_ll_exti.h ****   *       pending bit is not set.
 515:Drivers/STM32F4xx_HAL_Driver/Inc/stm32f4xx_ll_exti.h ****   *       Rising and falling edge triggers can be set for
 516:Drivers/STM32F4xx_HAL_Driver/Inc/stm32f4xx_ll_exti.h ****   *       the same interrupt line. In this case, both generate a trigger
 517:Drivers/STM32F4xx_HAL_Driver/Inc/stm32f4xx_ll_exti.h ****   *       condition.
 518:Drivers/STM32F4xx_HAL_Driver/Inc/stm32f4xx_ll_exti.h ****   * @rmtoll RTSR        RTx           LL_EXTI_EnableRisingTrig_0_31
 519:Drivers/STM32F4xx_HAL_Driver/Inc/stm32f4xx_ll_exti.h ****   * @param  ExtiLine This parameter can be a combination of the following values:
 520:Drivers/STM32F4xx_HAL_Driver/Inc/stm32f4xx_ll_exti.h ****   *         @arg @ref LL_EXTI_LINE_0
 521:Drivers/STM32F4xx_HAL_Driver/Inc/stm32f4xx_ll_exti.h ****   *         @arg @ref LL_EXTI_LINE_1
 522:Drivers/STM32F4xx_HAL_Driver/Inc/stm32f4xx_ll_exti.h ****   *         @arg @ref LL_EXTI_LINE_2
 523:Drivers/STM32F4xx_HAL_Driver/Inc/stm32f4xx_ll_exti.h ****   *         @arg @ref LL_EXTI_LINE_3
 524:Drivers/STM32F4xx_HAL_Driver/Inc/stm32f4xx_ll_exti.h ****   *         @arg @ref LL_EXTI_LINE_4
 525:Drivers/STM32F4xx_HAL_Driver/Inc/stm32f4xx_ll_exti.h ****   *         @arg @ref LL_EXTI_LINE_5
 526:Drivers/STM32F4xx_HAL_Driver/Inc/stm32f4xx_ll_exti.h ****   *         @arg @ref LL_EXTI_LINE_6
 527:Drivers/STM32F4xx_HAL_Driver/Inc/stm32f4xx_ll_exti.h ****   *         @arg @ref LL_EXTI_LINE_7
 528:Drivers/STM32F4xx_HAL_Driver/Inc/stm32f4xx_ll_exti.h ****   *         @arg @ref LL_EXTI_LINE_8
 529:Drivers/STM32F4xx_HAL_Driver/Inc/stm32f4xx_ll_exti.h ****   *         @arg @ref LL_EXTI_LINE_9
 530:Drivers/STM32F4xx_HAL_Driver/Inc/stm32f4xx_ll_exti.h ****   *         @arg @ref LL_EXTI_LINE_10
 531:Drivers/STM32F4xx_HAL_Driver/Inc/stm32f4xx_ll_exti.h ****   *         @arg @ref LL_EXTI_LINE_11
 532:Drivers/STM32F4xx_HAL_Driver/Inc/stm32f4xx_ll_exti.h ****   *         @arg @ref LL_EXTI_LINE_12
 533:Drivers/STM32F4xx_HAL_Driver/Inc/stm32f4xx_ll_exti.h ****   *         @arg @ref LL_EXTI_LINE_13
 534:Drivers/STM32F4xx_HAL_Driver/Inc/stm32f4xx_ll_exti.h ****   *         @arg @ref LL_EXTI_LINE_14
 535:Drivers/STM32F4xx_HAL_Driver/Inc/stm32f4xx_ll_exti.h ****   *         @arg @ref LL_EXTI_LINE_15
 536:Drivers/STM32F4xx_HAL_Driver/Inc/stm32f4xx_ll_exti.h ****   *         @arg @ref LL_EXTI_LINE_16
 537:Drivers/STM32F4xx_HAL_Driver/Inc/stm32f4xx_ll_exti.h ****   *         @arg @ref LL_EXTI_LINE_18
 538:Drivers/STM32F4xx_HAL_Driver/Inc/stm32f4xx_ll_exti.h ****   *         @arg @ref LL_EXTI_LINE_19(*)
 539:Drivers/STM32F4xx_HAL_Driver/Inc/stm32f4xx_ll_exti.h ****   *         @arg @ref LL_EXTI_LINE_20(*)
 540:Drivers/STM32F4xx_HAL_Driver/Inc/stm32f4xx_ll_exti.h ****   *         @arg @ref LL_EXTI_LINE_21
 541:Drivers/STM32F4xx_HAL_Driver/Inc/stm32f4xx_ll_exti.h ****   *         @arg @ref LL_EXTI_LINE_22
 542:Drivers/STM32F4xx_HAL_Driver/Inc/stm32f4xx_ll_exti.h ****   * @note   (*): Available in some devices
ARM GAS  /tmp/ccNW83Kq.s 			page 18


 543:Drivers/STM32F4xx_HAL_Driver/Inc/stm32f4xx_ll_exti.h ****   * @note   Please check each device line mapping for EXTI Line availability
 544:Drivers/STM32F4xx_HAL_Driver/Inc/stm32f4xx_ll_exti.h ****   * @retval None
 545:Drivers/STM32F4xx_HAL_Driver/Inc/stm32f4xx_ll_exti.h ****   */
 546:Drivers/STM32F4xx_HAL_Driver/Inc/stm32f4xx_ll_exti.h **** __STATIC_INLINE void LL_EXTI_EnableRisingTrig_0_31(uint32_t ExtiLine)
 547:Drivers/STM32F4xx_HAL_Driver/Inc/stm32f4xx_ll_exti.h **** {
 548:Drivers/STM32F4xx_HAL_Driver/Inc/stm32f4xx_ll_exti.h ****   SET_BIT(EXTI->RTSR, ExtiLine);
 549:Drivers/STM32F4xx_HAL_Driver/Inc/stm32f4xx_ll_exti.h **** 
 550:Drivers/STM32F4xx_HAL_Driver/Inc/stm32f4xx_ll_exti.h **** }
 551:Drivers/STM32F4xx_HAL_Driver/Inc/stm32f4xx_ll_exti.h **** 
 552:Drivers/STM32F4xx_HAL_Driver/Inc/stm32f4xx_ll_exti.h **** 
 553:Drivers/STM32F4xx_HAL_Driver/Inc/stm32f4xx_ll_exti.h **** /**
 554:Drivers/STM32F4xx_HAL_Driver/Inc/stm32f4xx_ll_exti.h ****   * @brief  Disable ExtiLine Rising Edge Trigger for Lines in range 0 to 31
 555:Drivers/STM32F4xx_HAL_Driver/Inc/stm32f4xx_ll_exti.h ****   * @note The configurable wakeup lines are edge-triggered. No glitch must be
 556:Drivers/STM32F4xx_HAL_Driver/Inc/stm32f4xx_ll_exti.h ****   *       generated on these lines. If a rising edge on a configurable interrupt
 557:Drivers/STM32F4xx_HAL_Driver/Inc/stm32f4xx_ll_exti.h ****   *       line occurs during a write operation in the EXTI_RTSR register, the
 558:Drivers/STM32F4xx_HAL_Driver/Inc/stm32f4xx_ll_exti.h ****   *       pending bit is not set.
 559:Drivers/STM32F4xx_HAL_Driver/Inc/stm32f4xx_ll_exti.h ****   *       Rising and falling edge triggers can be set for
 560:Drivers/STM32F4xx_HAL_Driver/Inc/stm32f4xx_ll_exti.h ****   *       the same interrupt line. In this case, both generate a trigger
 561:Drivers/STM32F4xx_HAL_Driver/Inc/stm32f4xx_ll_exti.h ****   *       condition.
 562:Drivers/STM32F4xx_HAL_Driver/Inc/stm32f4xx_ll_exti.h ****   * @rmtoll RTSR        RTx           LL_EXTI_DisableRisingTrig_0_31
 563:Drivers/STM32F4xx_HAL_Driver/Inc/stm32f4xx_ll_exti.h ****   * @param  ExtiLine This parameter can be a combination of the following values:
 564:Drivers/STM32F4xx_HAL_Driver/Inc/stm32f4xx_ll_exti.h ****   *         @arg @ref LL_EXTI_LINE_0
 565:Drivers/STM32F4xx_HAL_Driver/Inc/stm32f4xx_ll_exti.h ****   *         @arg @ref LL_EXTI_LINE_1
 566:Drivers/STM32F4xx_HAL_Driver/Inc/stm32f4xx_ll_exti.h ****   *         @arg @ref LL_EXTI_LINE_2
 567:Drivers/STM32F4xx_HAL_Driver/Inc/stm32f4xx_ll_exti.h ****   *         @arg @ref LL_EXTI_LINE_3
 568:Drivers/STM32F4xx_HAL_Driver/Inc/stm32f4xx_ll_exti.h ****   *         @arg @ref LL_EXTI_LINE_4
 569:Drivers/STM32F4xx_HAL_Driver/Inc/stm32f4xx_ll_exti.h ****   *         @arg @ref LL_EXTI_LINE_5
 570:Drivers/STM32F4xx_HAL_Driver/Inc/stm32f4xx_ll_exti.h ****   *         @arg @ref LL_EXTI_LINE_6
 571:Drivers/STM32F4xx_HAL_Driver/Inc/stm32f4xx_ll_exti.h ****   *         @arg @ref LL_EXTI_LINE_7
 572:Drivers/STM32F4xx_HAL_Driver/Inc/stm32f4xx_ll_exti.h ****   *         @arg @ref LL_EXTI_LINE_8
 573:Drivers/STM32F4xx_HAL_Driver/Inc/stm32f4xx_ll_exti.h ****   *         @arg @ref LL_EXTI_LINE_9
 574:Drivers/STM32F4xx_HAL_Driver/Inc/stm32f4xx_ll_exti.h ****   *         @arg @ref LL_EXTI_LINE_10
 575:Drivers/STM32F4xx_HAL_Driver/Inc/stm32f4xx_ll_exti.h ****   *         @arg @ref LL_EXTI_LINE_11
 576:Drivers/STM32F4xx_HAL_Driver/Inc/stm32f4xx_ll_exti.h ****   *         @arg @ref LL_EXTI_LINE_12
 577:Drivers/STM32F4xx_HAL_Driver/Inc/stm32f4xx_ll_exti.h ****   *         @arg @ref LL_EXTI_LINE_13
 578:Drivers/STM32F4xx_HAL_Driver/Inc/stm32f4xx_ll_exti.h ****   *         @arg @ref LL_EXTI_LINE_14
 579:Drivers/STM32F4xx_HAL_Driver/Inc/stm32f4xx_ll_exti.h ****   *         @arg @ref LL_EXTI_LINE_15
 580:Drivers/STM32F4xx_HAL_Driver/Inc/stm32f4xx_ll_exti.h ****   *         @arg @ref LL_EXTI_LINE_16
 581:Drivers/STM32F4xx_HAL_Driver/Inc/stm32f4xx_ll_exti.h ****   *         @arg @ref LL_EXTI_LINE_18
 582:Drivers/STM32F4xx_HAL_Driver/Inc/stm32f4xx_ll_exti.h ****   *         @arg @ref LL_EXTI_LINE_19(*)
 583:Drivers/STM32F4xx_HAL_Driver/Inc/stm32f4xx_ll_exti.h ****   *         @arg @ref LL_EXTI_LINE_20(*)
 584:Drivers/STM32F4xx_HAL_Driver/Inc/stm32f4xx_ll_exti.h ****   *         @arg @ref LL_EXTI_LINE_21
 585:Drivers/STM32F4xx_HAL_Driver/Inc/stm32f4xx_ll_exti.h ****   *         @arg @ref LL_EXTI_LINE_22
 586:Drivers/STM32F4xx_HAL_Driver/Inc/stm32f4xx_ll_exti.h ****   * @note   (*): Available in some devices
 587:Drivers/STM32F4xx_HAL_Driver/Inc/stm32f4xx_ll_exti.h ****   * @note   Please check each device line mapping for EXTI Line availability
 588:Drivers/STM32F4xx_HAL_Driver/Inc/stm32f4xx_ll_exti.h ****   * @retval None
 589:Drivers/STM32F4xx_HAL_Driver/Inc/stm32f4xx_ll_exti.h ****   */
 590:Drivers/STM32F4xx_HAL_Driver/Inc/stm32f4xx_ll_exti.h **** __STATIC_INLINE void LL_EXTI_DisableRisingTrig_0_31(uint32_t ExtiLine)
 591:Drivers/STM32F4xx_HAL_Driver/Inc/stm32f4xx_ll_exti.h **** {
 592:Drivers/STM32F4xx_HAL_Driver/Inc/stm32f4xx_ll_exti.h ****   CLEAR_BIT(EXTI->RTSR, ExtiLine);
 593:Drivers/STM32F4xx_HAL_Driver/Inc/stm32f4xx_ll_exti.h **** 
 594:Drivers/STM32F4xx_HAL_Driver/Inc/stm32f4xx_ll_exti.h **** }
 595:Drivers/STM32F4xx_HAL_Driver/Inc/stm32f4xx_ll_exti.h **** 
 596:Drivers/STM32F4xx_HAL_Driver/Inc/stm32f4xx_ll_exti.h **** 
 597:Drivers/STM32F4xx_HAL_Driver/Inc/stm32f4xx_ll_exti.h **** /**
 598:Drivers/STM32F4xx_HAL_Driver/Inc/stm32f4xx_ll_exti.h ****   * @brief  Check if rising edge trigger is enabled for Lines in range 0 to 31
 599:Drivers/STM32F4xx_HAL_Driver/Inc/stm32f4xx_ll_exti.h ****   * @rmtoll RTSR        RTx           LL_EXTI_IsEnabledRisingTrig_0_31
ARM GAS  /tmp/ccNW83Kq.s 			page 19


 600:Drivers/STM32F4xx_HAL_Driver/Inc/stm32f4xx_ll_exti.h ****   * @param  ExtiLine This parameter can be a combination of the following values:
 601:Drivers/STM32F4xx_HAL_Driver/Inc/stm32f4xx_ll_exti.h ****   *         @arg @ref LL_EXTI_LINE_0
 602:Drivers/STM32F4xx_HAL_Driver/Inc/stm32f4xx_ll_exti.h ****   *         @arg @ref LL_EXTI_LINE_1
 603:Drivers/STM32F4xx_HAL_Driver/Inc/stm32f4xx_ll_exti.h ****   *         @arg @ref LL_EXTI_LINE_2
 604:Drivers/STM32F4xx_HAL_Driver/Inc/stm32f4xx_ll_exti.h ****   *         @arg @ref LL_EXTI_LINE_3
 605:Drivers/STM32F4xx_HAL_Driver/Inc/stm32f4xx_ll_exti.h ****   *         @arg @ref LL_EXTI_LINE_4
 606:Drivers/STM32F4xx_HAL_Driver/Inc/stm32f4xx_ll_exti.h ****   *         @arg @ref LL_EXTI_LINE_5
 607:Drivers/STM32F4xx_HAL_Driver/Inc/stm32f4xx_ll_exti.h ****   *         @arg @ref LL_EXTI_LINE_6
 608:Drivers/STM32F4xx_HAL_Driver/Inc/stm32f4xx_ll_exti.h ****   *         @arg @ref LL_EXTI_LINE_7
 609:Drivers/STM32F4xx_HAL_Driver/Inc/stm32f4xx_ll_exti.h ****   *         @arg @ref LL_EXTI_LINE_8
 610:Drivers/STM32F4xx_HAL_Driver/Inc/stm32f4xx_ll_exti.h ****   *         @arg @ref LL_EXTI_LINE_9
 611:Drivers/STM32F4xx_HAL_Driver/Inc/stm32f4xx_ll_exti.h ****   *         @arg @ref LL_EXTI_LINE_10
 612:Drivers/STM32F4xx_HAL_Driver/Inc/stm32f4xx_ll_exti.h ****   *         @arg @ref LL_EXTI_LINE_11
 613:Drivers/STM32F4xx_HAL_Driver/Inc/stm32f4xx_ll_exti.h ****   *         @arg @ref LL_EXTI_LINE_12
 614:Drivers/STM32F4xx_HAL_Driver/Inc/stm32f4xx_ll_exti.h ****   *         @arg @ref LL_EXTI_LINE_13
 615:Drivers/STM32F4xx_HAL_Driver/Inc/stm32f4xx_ll_exti.h ****   *         @arg @ref LL_EXTI_LINE_14
 616:Drivers/STM32F4xx_HAL_Driver/Inc/stm32f4xx_ll_exti.h ****   *         @arg @ref LL_EXTI_LINE_15
 617:Drivers/STM32F4xx_HAL_Driver/Inc/stm32f4xx_ll_exti.h ****   *         @arg @ref LL_EXTI_LINE_16
 618:Drivers/STM32F4xx_HAL_Driver/Inc/stm32f4xx_ll_exti.h ****   *         @arg @ref LL_EXTI_LINE_18
 619:Drivers/STM32F4xx_HAL_Driver/Inc/stm32f4xx_ll_exti.h ****   *         @arg @ref LL_EXTI_LINE_19(*)
 620:Drivers/STM32F4xx_HAL_Driver/Inc/stm32f4xx_ll_exti.h ****   *         @arg @ref LL_EXTI_LINE_20(*)
 621:Drivers/STM32F4xx_HAL_Driver/Inc/stm32f4xx_ll_exti.h ****   *         @arg @ref LL_EXTI_LINE_21
 622:Drivers/STM32F4xx_HAL_Driver/Inc/stm32f4xx_ll_exti.h ****   *         @arg @ref LL_EXTI_LINE_22
 623:Drivers/STM32F4xx_HAL_Driver/Inc/stm32f4xx_ll_exti.h ****   * @note   (*): Available in some devices
 624:Drivers/STM32F4xx_HAL_Driver/Inc/stm32f4xx_ll_exti.h ****   * @note   Please check each device line mapping for EXTI Line availability
 625:Drivers/STM32F4xx_HAL_Driver/Inc/stm32f4xx_ll_exti.h ****   * @retval State of bit (1 or 0).
 626:Drivers/STM32F4xx_HAL_Driver/Inc/stm32f4xx_ll_exti.h ****   */
 627:Drivers/STM32F4xx_HAL_Driver/Inc/stm32f4xx_ll_exti.h **** __STATIC_INLINE uint32_t LL_EXTI_IsEnabledRisingTrig_0_31(uint32_t ExtiLine)
 628:Drivers/STM32F4xx_HAL_Driver/Inc/stm32f4xx_ll_exti.h **** {
 629:Drivers/STM32F4xx_HAL_Driver/Inc/stm32f4xx_ll_exti.h ****   return (READ_BIT(EXTI->RTSR, ExtiLine) == (ExtiLine));
 630:Drivers/STM32F4xx_HAL_Driver/Inc/stm32f4xx_ll_exti.h **** }
 631:Drivers/STM32F4xx_HAL_Driver/Inc/stm32f4xx_ll_exti.h **** 
 632:Drivers/STM32F4xx_HAL_Driver/Inc/stm32f4xx_ll_exti.h **** 
 633:Drivers/STM32F4xx_HAL_Driver/Inc/stm32f4xx_ll_exti.h **** /**
 634:Drivers/STM32F4xx_HAL_Driver/Inc/stm32f4xx_ll_exti.h ****   * @}
 635:Drivers/STM32F4xx_HAL_Driver/Inc/stm32f4xx_ll_exti.h ****   */
 636:Drivers/STM32F4xx_HAL_Driver/Inc/stm32f4xx_ll_exti.h **** 
 637:Drivers/STM32F4xx_HAL_Driver/Inc/stm32f4xx_ll_exti.h **** /** @defgroup EXTI_LL_EF_Falling_Trigger_Management Falling_Trigger_Management
 638:Drivers/STM32F4xx_HAL_Driver/Inc/stm32f4xx_ll_exti.h ****   * @{
 639:Drivers/STM32F4xx_HAL_Driver/Inc/stm32f4xx_ll_exti.h ****   */
 640:Drivers/STM32F4xx_HAL_Driver/Inc/stm32f4xx_ll_exti.h **** 
 641:Drivers/STM32F4xx_HAL_Driver/Inc/stm32f4xx_ll_exti.h **** /**
 642:Drivers/STM32F4xx_HAL_Driver/Inc/stm32f4xx_ll_exti.h ****   * @brief  Enable ExtiLine Falling Edge Trigger for Lines in range 0 to 31
 643:Drivers/STM32F4xx_HAL_Driver/Inc/stm32f4xx_ll_exti.h ****   * @note The configurable wakeup lines are edge-triggered. No glitch must be
 644:Drivers/STM32F4xx_HAL_Driver/Inc/stm32f4xx_ll_exti.h ****   *       generated on these lines. If a falling edge on a configurable interrupt
 645:Drivers/STM32F4xx_HAL_Driver/Inc/stm32f4xx_ll_exti.h ****   *       line occurs during a write operation in the EXTI_FTSR register, the
 646:Drivers/STM32F4xx_HAL_Driver/Inc/stm32f4xx_ll_exti.h ****   *       pending bit is not set.
 647:Drivers/STM32F4xx_HAL_Driver/Inc/stm32f4xx_ll_exti.h ****   *       Rising and falling edge triggers can be set for
 648:Drivers/STM32F4xx_HAL_Driver/Inc/stm32f4xx_ll_exti.h ****   *       the same interrupt line. In this case, both generate a trigger
 649:Drivers/STM32F4xx_HAL_Driver/Inc/stm32f4xx_ll_exti.h ****   *       condition.
 650:Drivers/STM32F4xx_HAL_Driver/Inc/stm32f4xx_ll_exti.h ****   * @rmtoll FTSR        FTx           LL_EXTI_EnableFallingTrig_0_31
 651:Drivers/STM32F4xx_HAL_Driver/Inc/stm32f4xx_ll_exti.h ****   * @param  ExtiLine This parameter can be a combination of the following values:
 652:Drivers/STM32F4xx_HAL_Driver/Inc/stm32f4xx_ll_exti.h ****   *         @arg @ref LL_EXTI_LINE_0
 653:Drivers/STM32F4xx_HAL_Driver/Inc/stm32f4xx_ll_exti.h ****   *         @arg @ref LL_EXTI_LINE_1
 654:Drivers/STM32F4xx_HAL_Driver/Inc/stm32f4xx_ll_exti.h ****   *         @arg @ref LL_EXTI_LINE_2
 655:Drivers/STM32F4xx_HAL_Driver/Inc/stm32f4xx_ll_exti.h ****   *         @arg @ref LL_EXTI_LINE_3
 656:Drivers/STM32F4xx_HAL_Driver/Inc/stm32f4xx_ll_exti.h ****   *         @arg @ref LL_EXTI_LINE_4
ARM GAS  /tmp/ccNW83Kq.s 			page 20


 657:Drivers/STM32F4xx_HAL_Driver/Inc/stm32f4xx_ll_exti.h ****   *         @arg @ref LL_EXTI_LINE_5
 658:Drivers/STM32F4xx_HAL_Driver/Inc/stm32f4xx_ll_exti.h ****   *         @arg @ref LL_EXTI_LINE_6
 659:Drivers/STM32F4xx_HAL_Driver/Inc/stm32f4xx_ll_exti.h ****   *         @arg @ref LL_EXTI_LINE_7
 660:Drivers/STM32F4xx_HAL_Driver/Inc/stm32f4xx_ll_exti.h ****   *         @arg @ref LL_EXTI_LINE_8
 661:Drivers/STM32F4xx_HAL_Driver/Inc/stm32f4xx_ll_exti.h ****   *         @arg @ref LL_EXTI_LINE_9
 662:Drivers/STM32F4xx_HAL_Driver/Inc/stm32f4xx_ll_exti.h ****   *         @arg @ref LL_EXTI_LINE_10
 663:Drivers/STM32F4xx_HAL_Driver/Inc/stm32f4xx_ll_exti.h ****   *         @arg @ref LL_EXTI_LINE_11
 664:Drivers/STM32F4xx_HAL_Driver/Inc/stm32f4xx_ll_exti.h ****   *         @arg @ref LL_EXTI_LINE_12
 665:Drivers/STM32F4xx_HAL_Driver/Inc/stm32f4xx_ll_exti.h ****   *         @arg @ref LL_EXTI_LINE_13
 666:Drivers/STM32F4xx_HAL_Driver/Inc/stm32f4xx_ll_exti.h ****   *         @arg @ref LL_EXTI_LINE_14
 667:Drivers/STM32F4xx_HAL_Driver/Inc/stm32f4xx_ll_exti.h ****   *         @arg @ref LL_EXTI_LINE_15
 668:Drivers/STM32F4xx_HAL_Driver/Inc/stm32f4xx_ll_exti.h ****   *         @arg @ref LL_EXTI_LINE_16
 669:Drivers/STM32F4xx_HAL_Driver/Inc/stm32f4xx_ll_exti.h ****   *         @arg @ref LL_EXTI_LINE_18
 670:Drivers/STM32F4xx_HAL_Driver/Inc/stm32f4xx_ll_exti.h ****   *         @arg @ref LL_EXTI_LINE_19(*)
 671:Drivers/STM32F4xx_HAL_Driver/Inc/stm32f4xx_ll_exti.h ****   *         @arg @ref LL_EXTI_LINE_20(*)
 672:Drivers/STM32F4xx_HAL_Driver/Inc/stm32f4xx_ll_exti.h ****   *         @arg @ref LL_EXTI_LINE_21
 673:Drivers/STM32F4xx_HAL_Driver/Inc/stm32f4xx_ll_exti.h ****   *         @arg @ref LL_EXTI_LINE_22
 674:Drivers/STM32F4xx_HAL_Driver/Inc/stm32f4xx_ll_exti.h ****   * @note   (*): Available in some devices
 675:Drivers/STM32F4xx_HAL_Driver/Inc/stm32f4xx_ll_exti.h ****   * @note   Please check each device line mapping for EXTI Line availability
 676:Drivers/STM32F4xx_HAL_Driver/Inc/stm32f4xx_ll_exti.h ****   * @retval None
 677:Drivers/STM32F4xx_HAL_Driver/Inc/stm32f4xx_ll_exti.h ****   */
 678:Drivers/STM32F4xx_HAL_Driver/Inc/stm32f4xx_ll_exti.h **** __STATIC_INLINE void LL_EXTI_EnableFallingTrig_0_31(uint32_t ExtiLine)
 679:Drivers/STM32F4xx_HAL_Driver/Inc/stm32f4xx_ll_exti.h **** {
 680:Drivers/STM32F4xx_HAL_Driver/Inc/stm32f4xx_ll_exti.h ****   SET_BIT(EXTI->FTSR, ExtiLine);
 681:Drivers/STM32F4xx_HAL_Driver/Inc/stm32f4xx_ll_exti.h **** }
 682:Drivers/STM32F4xx_HAL_Driver/Inc/stm32f4xx_ll_exti.h **** 
 683:Drivers/STM32F4xx_HAL_Driver/Inc/stm32f4xx_ll_exti.h **** 
 684:Drivers/STM32F4xx_HAL_Driver/Inc/stm32f4xx_ll_exti.h **** /**
 685:Drivers/STM32F4xx_HAL_Driver/Inc/stm32f4xx_ll_exti.h ****   * @brief  Disable ExtiLine Falling Edge Trigger for Lines in range 0 to 31
 686:Drivers/STM32F4xx_HAL_Driver/Inc/stm32f4xx_ll_exti.h ****   * @note The configurable wakeup lines are edge-triggered. No glitch must be
 687:Drivers/STM32F4xx_HAL_Driver/Inc/stm32f4xx_ll_exti.h ****   *       generated on these lines. If a Falling edge on a configurable interrupt
 688:Drivers/STM32F4xx_HAL_Driver/Inc/stm32f4xx_ll_exti.h ****   *       line occurs during a write operation in the EXTI_FTSR register, the
 689:Drivers/STM32F4xx_HAL_Driver/Inc/stm32f4xx_ll_exti.h ****   *       pending bit is not set.
 690:Drivers/STM32F4xx_HAL_Driver/Inc/stm32f4xx_ll_exti.h ****   *       Rising and falling edge triggers can be set for the same interrupt line.
 691:Drivers/STM32F4xx_HAL_Driver/Inc/stm32f4xx_ll_exti.h ****   *       In this case, both generate a trigger condition.
 692:Drivers/STM32F4xx_HAL_Driver/Inc/stm32f4xx_ll_exti.h ****   * @rmtoll FTSR        FTx           LL_EXTI_DisableFallingTrig_0_31
 693:Drivers/STM32F4xx_HAL_Driver/Inc/stm32f4xx_ll_exti.h ****   * @param  ExtiLine This parameter can be a combination of the following values:
 694:Drivers/STM32F4xx_HAL_Driver/Inc/stm32f4xx_ll_exti.h ****   *         @arg @ref LL_EXTI_LINE_0
 695:Drivers/STM32F4xx_HAL_Driver/Inc/stm32f4xx_ll_exti.h ****   *         @arg @ref LL_EXTI_LINE_1
 696:Drivers/STM32F4xx_HAL_Driver/Inc/stm32f4xx_ll_exti.h ****   *         @arg @ref LL_EXTI_LINE_2
 697:Drivers/STM32F4xx_HAL_Driver/Inc/stm32f4xx_ll_exti.h ****   *         @arg @ref LL_EXTI_LINE_3
 698:Drivers/STM32F4xx_HAL_Driver/Inc/stm32f4xx_ll_exti.h ****   *         @arg @ref LL_EXTI_LINE_4
 699:Drivers/STM32F4xx_HAL_Driver/Inc/stm32f4xx_ll_exti.h ****   *         @arg @ref LL_EXTI_LINE_5
 700:Drivers/STM32F4xx_HAL_Driver/Inc/stm32f4xx_ll_exti.h ****   *         @arg @ref LL_EXTI_LINE_6
 701:Drivers/STM32F4xx_HAL_Driver/Inc/stm32f4xx_ll_exti.h ****   *         @arg @ref LL_EXTI_LINE_7
 702:Drivers/STM32F4xx_HAL_Driver/Inc/stm32f4xx_ll_exti.h ****   *         @arg @ref LL_EXTI_LINE_8
 703:Drivers/STM32F4xx_HAL_Driver/Inc/stm32f4xx_ll_exti.h ****   *         @arg @ref LL_EXTI_LINE_9
 704:Drivers/STM32F4xx_HAL_Driver/Inc/stm32f4xx_ll_exti.h ****   *         @arg @ref LL_EXTI_LINE_10
 705:Drivers/STM32F4xx_HAL_Driver/Inc/stm32f4xx_ll_exti.h ****   *         @arg @ref LL_EXTI_LINE_11
 706:Drivers/STM32F4xx_HAL_Driver/Inc/stm32f4xx_ll_exti.h ****   *         @arg @ref LL_EXTI_LINE_12
 707:Drivers/STM32F4xx_HAL_Driver/Inc/stm32f4xx_ll_exti.h ****   *         @arg @ref LL_EXTI_LINE_13
 708:Drivers/STM32F4xx_HAL_Driver/Inc/stm32f4xx_ll_exti.h ****   *         @arg @ref LL_EXTI_LINE_14
 709:Drivers/STM32F4xx_HAL_Driver/Inc/stm32f4xx_ll_exti.h ****   *         @arg @ref LL_EXTI_LINE_15
 710:Drivers/STM32F4xx_HAL_Driver/Inc/stm32f4xx_ll_exti.h ****   *         @arg @ref LL_EXTI_LINE_16
 711:Drivers/STM32F4xx_HAL_Driver/Inc/stm32f4xx_ll_exti.h ****   *         @arg @ref LL_EXTI_LINE_18
 712:Drivers/STM32F4xx_HAL_Driver/Inc/stm32f4xx_ll_exti.h ****   *         @arg @ref LL_EXTI_LINE_19(*)
 713:Drivers/STM32F4xx_HAL_Driver/Inc/stm32f4xx_ll_exti.h ****   *         @arg @ref LL_EXTI_LINE_20(*)
ARM GAS  /tmp/ccNW83Kq.s 			page 21


 714:Drivers/STM32F4xx_HAL_Driver/Inc/stm32f4xx_ll_exti.h ****   *         @arg @ref LL_EXTI_LINE_21
 715:Drivers/STM32F4xx_HAL_Driver/Inc/stm32f4xx_ll_exti.h ****   *         @arg @ref LL_EXTI_LINE_22
 716:Drivers/STM32F4xx_HAL_Driver/Inc/stm32f4xx_ll_exti.h ****   * @note   (*): Available in some devices
 717:Drivers/STM32F4xx_HAL_Driver/Inc/stm32f4xx_ll_exti.h ****   * @note   Please check each device line mapping for EXTI Line availability
 718:Drivers/STM32F4xx_HAL_Driver/Inc/stm32f4xx_ll_exti.h ****   * @retval None
 719:Drivers/STM32F4xx_HAL_Driver/Inc/stm32f4xx_ll_exti.h ****   */
 720:Drivers/STM32F4xx_HAL_Driver/Inc/stm32f4xx_ll_exti.h **** __STATIC_INLINE void LL_EXTI_DisableFallingTrig_0_31(uint32_t ExtiLine)
 721:Drivers/STM32F4xx_HAL_Driver/Inc/stm32f4xx_ll_exti.h **** {
 722:Drivers/STM32F4xx_HAL_Driver/Inc/stm32f4xx_ll_exti.h ****   CLEAR_BIT(EXTI->FTSR, ExtiLine);
 223              		.loc 2 722 0
 224 007a 174A     		ldr	r2, .L24
 225 007c D168     		ldr	r1, [r2, #12]
 226 007e 21EA0401 		bic	r1, r1, r4
 227 0082 D160     		str	r1, [r2, #12]
 228              	.LVL28:
 229              	.LBE43:
 230              	.LBE42:
 168:Drivers/STM32F4xx_HAL_Driver/Src/stm32f4xx_ll_exti.c ****             break;
 231              		.loc 1 168 0
 232 0084 1B68     		ldr	r3, [r3]
 233              	.LVL29:
 234              	.LBB44:
 235              	.LBB45:
 548:Drivers/STM32F4xx_HAL_Driver/Inc/stm32f4xx_ll_exti.h **** 
 236              		.loc 2 548 0
 237 0086 9168     		ldr	r1, [r2, #8]
 238 0088 0B43     		orrs	r3, r3, r1
 239              	.LVL30:
 240 008a 9360     		str	r3, [r2, #8]
 241              	.LVL31:
 242 008c DCE7     		b	.L6
 243              	.LVL32:
 244              	.L11:
 245              	.LBE45:
 246              	.LBE44:
 172:Drivers/STM32F4xx_HAL_Driver/Src/stm32f4xx_ll_exti.c ****             /* Then Enable Falling Trigger on provided Lines */
 247              		.loc 1 172 0
 248 008e 1C68     		ldr	r4, [r3]
 249              	.LVL33:
 250              	.LBB46:
 251              	.LBB47:
 592:Drivers/STM32F4xx_HAL_Driver/Inc/stm32f4xx_ll_exti.h **** 
 252              		.loc 2 592 0
 253 0090 114A     		ldr	r2, .L24
 254 0092 9168     		ldr	r1, [r2, #8]
 255 0094 21EA0401 		bic	r1, r1, r4
 256 0098 9160     		str	r1, [r2, #8]
 257              	.LVL34:
 258              	.LBE47:
 259              	.LBE46:
 174:Drivers/STM32F4xx_HAL_Driver/Src/stm32f4xx_ll_exti.c ****             break;
 260              		.loc 1 174 0
 261 009a 1B68     		ldr	r3, [r3]
 262              	.LVL35:
 263              	.LBB48:
 264              	.LBB49:
 680:Drivers/STM32F4xx_HAL_Driver/Inc/stm32f4xx_ll_exti.h **** }
ARM GAS  /tmp/ccNW83Kq.s 			page 22


 265              		.loc 2 680 0
 266 009c D168     		ldr	r1, [r2, #12]
 267 009e 0B43     		orrs	r3, r3, r1
 268              	.LVL36:
 269 00a0 D360     		str	r3, [r2, #12]
 270              	.LVL37:
 271 00a2 D1E7     		b	.L6
 272              	.LVL38:
 273              	.L12:
 274              	.LBE49:
 275              	.LBE48:
 177:Drivers/STM32F4xx_HAL_Driver/Src/stm32f4xx_ll_exti.c ****             LL_EXTI_EnableFallingTrig_0_31(EXTI_InitStruct->Line_0_31);
 276              		.loc 1 177 0
 277 00a4 1968     		ldr	r1, [r3]
 278              	.LVL39:
 279              	.LBB50:
 280              	.LBB51:
 548:Drivers/STM32F4xx_HAL_Driver/Inc/stm32f4xx_ll_exti.h **** 
 281              		.loc 2 548 0
 282 00a6 0C4A     		ldr	r2, .L24
 283 00a8 9468     		ldr	r4, [r2, #8]
 284 00aa 2143     		orrs	r1, r1, r4
 285              	.LVL40:
 286 00ac 9160     		str	r1, [r2, #8]
 287              	.LVL41:
 288              	.LBE51:
 289              	.LBE50:
 178:Drivers/STM32F4xx_HAL_Driver/Src/stm32f4xx_ll_exti.c ****             break;
 290              		.loc 1 178 0
 291 00ae 1B68     		ldr	r3, [r3]
 292              	.LVL42:
 293              	.LBB52:
 294              	.LBB53:
 680:Drivers/STM32F4xx_HAL_Driver/Inc/stm32f4xx_ll_exti.h **** }
 295              		.loc 2 680 0
 296 00b0 D168     		ldr	r1, [r2, #12]
 297 00b2 0B43     		orrs	r3, r3, r1
 298              	.LVL43:
 299 00b4 D360     		str	r3, [r2, #12]
 300              	.LVL44:
 301 00b6 C7E7     		b	.L6
 302              	.LVL45:
 303              	.L5:
 304              	.LCFI3:
 305              		.cfi_def_cfa_offset 0
 306              		.cfi_restore 4
 307              	.LBE53:
 308              	.LBE52:
 191:Drivers/STM32F4xx_HAL_Driver/Src/stm32f4xx_ll_exti.c ****     LL_EXTI_DisableEvent_0_31(EXTI_InitStruct->Line_0_31);
 309              		.loc 1 191 0
 310 00b8 0068     		ldr	r0, [r0]
 311              	.LVL46:
 312              	.LBB54:
 313              	.LBB55:
 328:Drivers/STM32F4xx_HAL_Driver/Inc/stm32f4xx_ll_exti.h **** }
 314              		.loc 2 328 0
 315 00ba 074A     		ldr	r2, .L24
ARM GAS  /tmp/ccNW83Kq.s 			page 23


 316 00bc 1168     		ldr	r1, [r2]
 317 00be 21EA0001 		bic	r1, r1, r0
 318 00c2 1160     		str	r1, [r2]
 319              	.LVL47:
 320              	.LBE55:
 321              	.LBE54:
 192:Drivers/STM32F4xx_HAL_Driver/Src/stm32f4xx_ll_exti.c ****   }
 322              		.loc 1 192 0
 323 00c4 1968     		ldr	r1, [r3]
 324              	.LVL48:
 325              	.LBB56:
 326              	.LBB57:
 457:Drivers/STM32F4xx_HAL_Driver/Inc/stm32f4xx_ll_exti.h **** }
 327              		.loc 2 457 0
 328 00c6 5368     		ldr	r3, [r2, #4]
 329              	.LVL49:
 330 00c8 23EA0103 		bic	r3, r3, r1
 331 00cc 5360     		str	r3, [r2, #4]
 332              	.LBE57:
 333              	.LBE56:
 123:Drivers/STM32F4xx_HAL_Driver/Src/stm32f4xx_ll_exti.c ****   /* Check the parameters */
 334              		.loc 1 123 0
 335 00ce 0120     		movs	r0, #1
 336 00d0 7047     		bx	lr
 337              	.LVL50:
 338              	.L14:
 339 00d2 0120     		movs	r0, #1
 340              	.LVL51:
 341 00d4 7047     		bx	lr
 342              	.LVL52:
 343              	.L20:
 344              		.loc 1 195 0
 345 00d6 7047     		bx	lr
 346              	.L25:
 347              		.align	2
 348              	.L24:
 349 00d8 003C0140 		.word	1073822720
 350              		.cfi_endproc
 351              	.LFE680:
 353              		.section	.text.LL_EXTI_StructInit,"ax",%progbits
 354              		.align	1
 355              		.global	LL_EXTI_StructInit
 356              		.syntax unified
 357              		.thumb
 358              		.thumb_func
 359              		.fpu fpv4-sp-d16
 361              	LL_EXTI_StructInit:
 362              	.LFB681:
 196:Drivers/STM32F4xx_HAL_Driver/Src/stm32f4xx_ll_exti.c **** 
 197:Drivers/STM32F4xx_HAL_Driver/Src/stm32f4xx_ll_exti.c **** /**
 198:Drivers/STM32F4xx_HAL_Driver/Src/stm32f4xx_ll_exti.c ****   * @brief  Set each @ref LL_EXTI_InitTypeDef field to default value.
 199:Drivers/STM32F4xx_HAL_Driver/Src/stm32f4xx_ll_exti.c ****   * @param  EXTI_InitStruct Pointer to a @ref LL_EXTI_InitTypeDef structure.
 200:Drivers/STM32F4xx_HAL_Driver/Src/stm32f4xx_ll_exti.c ****   * @retval None
 201:Drivers/STM32F4xx_HAL_Driver/Src/stm32f4xx_ll_exti.c ****   */
 202:Drivers/STM32F4xx_HAL_Driver/Src/stm32f4xx_ll_exti.c **** void LL_EXTI_StructInit(LL_EXTI_InitTypeDef *EXTI_InitStruct)
 203:Drivers/STM32F4xx_HAL_Driver/Src/stm32f4xx_ll_exti.c **** {
 363              		.loc 1 203 0
ARM GAS  /tmp/ccNW83Kq.s 			page 24


 364              		.cfi_startproc
 365              		@ args = 0, pretend = 0, frame = 0
 366              		@ frame_needed = 0, uses_anonymous_args = 0
 367              		@ link register save eliminated.
 368              	.LVL53:
 204:Drivers/STM32F4xx_HAL_Driver/Src/stm32f4xx_ll_exti.c ****   EXTI_InitStruct->Line_0_31      = LL_EXTI_LINE_NONE;
 369              		.loc 1 204 0
 370 0000 0023     		movs	r3, #0
 371 0002 0360     		str	r3, [r0]
 205:Drivers/STM32F4xx_HAL_Driver/Src/stm32f4xx_ll_exti.c ****   EXTI_InitStruct->LineCommand    = DISABLE;
 372              		.loc 1 205 0
 373 0004 0371     		strb	r3, [r0, #4]
 206:Drivers/STM32F4xx_HAL_Driver/Src/stm32f4xx_ll_exti.c ****   EXTI_InitStruct->Mode           = LL_EXTI_MODE_IT;
 374              		.loc 1 206 0
 375 0006 4371     		strb	r3, [r0, #5]
 207:Drivers/STM32F4xx_HAL_Driver/Src/stm32f4xx_ll_exti.c ****   EXTI_InitStruct->Trigger        = LL_EXTI_TRIGGER_FALLING;
 376              		.loc 1 207 0
 377 0008 0223     		movs	r3, #2
 378 000a 8371     		strb	r3, [r0, #6]
 208:Drivers/STM32F4xx_HAL_Driver/Src/stm32f4xx_ll_exti.c **** }
 379              		.loc 1 208 0
 380 000c 7047     		bx	lr
 381              		.cfi_endproc
 382              	.LFE681:
 384              		.text
 385              	.Letext0:
 386              		.file 3 "/usr/arm-none-eabi/include/machine/_default_types.h"
 387              		.file 4 "/usr/arm-none-eabi/include/sys/_stdint.h"
 388              		.file 5 "Drivers/CMSIS/Include/core_cm4.h"
 389              		.file 6 "Drivers/CMSIS/Device/ST/STM32F4xx/Include/system_stm32f4xx.h"
 390              		.file 7 "Drivers/CMSIS/Device/ST/STM32F4xx/Include/stm32f401xe.h"
 391              		.file 8 "Drivers/CMSIS/Device/ST/STM32F4xx/Include/stm32f4xx.h"
 392              		.file 9 "/usr/arm-none-eabi/include/sys/lock.h"
 393              		.file 10 "/usr/arm-none-eabi/include/sys/_types.h"
 394              		.file 11 "/usr/lib/gcc/arm-none-eabi/7.3.0/include/stddef.h"
 395              		.file 12 "/usr/arm-none-eabi/include/sys/reent.h"
 396              		.file 13 "Drivers/STM32F4xx_HAL_Driver/Inc/stm32f4xx_ll_dma.h"
ARM GAS  /tmp/ccNW83Kq.s 			page 25

