ARM GAS  /tmp/cc5hn8aR.s 			page 1


   1              		.cpu cortex-m4
   2              		.eabi_attribute 27, 1
   3              		.eabi_attribute 28, 1
   4              		.eabi_attribute 20, 1
   5              		.eabi_attribute 21, 1
   6              		.eabi_attribute 23, 3
   7              		.eabi_attribute 24, 1
   8              		.eabi_attribute 25, 1
   9              		.eabi_attribute 26, 1
  10              		.eabi_attribute 30, 1
  11              		.eabi_attribute 34, 1
  12              		.eabi_attribute 18, 4
  13              		.file	"system.c"
  14              		.text
  15              	.Ltext0:
  16              		.cfi_sections	.debug_frame
  17              		.section	.text.wait_start,"ax",%progbits
  18              		.align	1
  19              		.global	wait_start
  20              		.syntax unified
  21              		.thumb
  22              		.thumb_func
  23              		.fpu fpv4-sp-d16
  25              	wait_start:
  26              	.LFB679:
  27              		.file 1 "Src/system.c"
   1:Src/system.c  **** #include "system.h"
   2:Src/system.c  **** 
   3:Src/system.c  **** #define JACK_PLUGGED (HAL_GPIO_ReadPin(JACK_START_GPIO_Port, JACK_START_Pin) == GPIO_PIN_RESET)
   4:Src/system.c  **** 
   5:Src/system.c  **** Team wait_start(){
  28              		.loc 1 5 0
  29              		.cfi_startproc
  30              		@ args = 0, pretend = 0, frame = 0
  31              		@ frame_needed = 0, uses_anonymous_args = 0
  32 0000 70B5     		push	{r4, r5, r6, lr}
  33              	.LCFI0:
  34              		.cfi_def_cfa_offset 16
  35              		.cfi_offset 4, -16
  36              		.cfi_offset 5, -12
  37              		.cfi_offset 6, -8
  38              		.cfi_offset 14, -4
  39              	.LVL0:
   6:Src/system.c  ****   Team team = GREEN_TEAM;
   7:Src/system.c  ****   int i = JACK_FILTER;
  40              		.loc 1 7 0
  41 0002 0524     		movs	r4, #5
   6:Src/system.c  ****   Team team = GREEN_TEAM;
  42              		.loc 1 6 0
  43 0004 0025     		movs	r5, #0
   8:Src/system.c  **** 
   9:Src/system.c  ****   while(--i){
  44              		.loc 1 9 0
  45 0006 17E0     		b	.L2
  46              	.LVL1:
  47              	.L3:
  10:Src/system.c  ****     if(JACK_PLUGGED)
ARM GAS  /tmp/cc5hn8aR.s 			page 2


  11:Src/system.c  ****       i = JACK_FILTER;
  12:Src/system.c  **** 
  13:Src/system.c  ****     team = HAL_GPIO_ReadPin(SELEC_GPIO_Port, SELEC_Pin);
  48              		.loc 1 13 0
  49 0008 4021     		movs	r1, #64
  50 000a 1348     		ldr	r0, .L8
  51 000c FFF7FEFF 		bl	HAL_GPIO_ReadPin
  52              	.LVL2:
  53 0010 0546     		mov	r5, r0
  54              	.LVL3:
  14:Src/system.c  ****     HAL_GPIO_WritePin(LED_RED_GPIO_Port, LED_RED_Pin, (team==ORANGE_TEAM));
  55              		.loc 1 14 0
  56 0012 124E     		ldr	r6, .L8+4
  57 0014 0128     		cmp	r0, #1
  58 0016 14BF     		ite	ne
  59 0018 0022     		movne	r2, #0
  60 001a 0122     		moveq	r2, #1
  61 001c 8021     		movs	r1, #128
  62 001e 3046     		mov	r0, r6
  63              	.LVL4:
  64 0020 FFF7FEFF 		bl	HAL_GPIO_WritePin
  65              	.LVL5:
  15:Src/system.c  ****     HAL_GPIO_WritePin(LED_GREEN_GPIO_Port, LED_GREEN_Pin, (team==GREEN_TEAM));
  66              		.loc 1 15 0
  67 0024 B5FA85F2 		clz	r2, r5
  68 0028 5209     		lsrs	r2, r2, #5
  69 002a 4021     		movs	r1, #64
  70 002c 3046     		mov	r0, r6
  71 002e FFF7FEFF 		bl	HAL_GPIO_WritePin
  72              	.LVL6:
  16:Src/system.c  **** 
  17:Src/system.c  ****     HAL_Delay(1);
  73              		.loc 1 17 0
  74 0032 0120     		movs	r0, #1
  75 0034 FFF7FEFF 		bl	HAL_Delay
  76              	.LVL7:
  77              	.L2:
   9:Src/system.c  ****     if(JACK_PLUGGED)
  78              		.loc 1 9 0
  79 0038 013C     		subs	r4, r4, #1
  80              	.LVL8:
  81 003a 08D0     		beq	.L7
  10:Src/system.c  ****       i = JACK_FILTER;
  82              		.loc 1 10 0
  83 003c 4FF48071 		mov	r1, #256
  84 0040 0548     		ldr	r0, .L8
  85 0042 FFF7FEFF 		bl	HAL_GPIO_ReadPin
  86              	.LVL9:
  87 0046 0028     		cmp	r0, #0
  88 0048 DED1     		bne	.L3
  11:Src/system.c  **** 
  89              		.loc 1 11 0
  90 004a 0524     		movs	r4, #5
  91              	.LVL10:
  92 004c DCE7     		b	.L3
  93              	.LVL11:
  94              	.L7:
ARM GAS  /tmp/cc5hn8aR.s 			page 3


  18:Src/system.c  ****   }
  19:Src/system.c  **** 
  20:Src/system.c  ****   HAL_TIM_Base_Start_IT(&htim2);
  95              		.loc 1 20 0
  96 004e 0448     		ldr	r0, .L8+8
  97 0050 FFF7FEFF 		bl	HAL_TIM_Base_Start_IT
  98              	.LVL12:
  21:Src/system.c  ****   
  22:Src/system.c  ****   return team;
  23:Src/system.c  **** }
  99              		.loc 1 23 0
 100 0054 2846     		mov	r0, r5
 101 0056 70BD     		pop	{r4, r5, r6, pc}
 102              	.LVL13:
 103              	.L9:
 104              		.align	2
 105              	.L8:
 106 0058 00080240 		.word	1073874944
 107 005c 00000240 		.word	1073872896
 108 0060 00000000 		.word	htim2
 109              		.cfi_endproc
 110              	.LFE679:
 112              		.section	.text.remote_stop,"ax",%progbits
 113              		.align	1
 114              		.global	remote_stop
 115              		.syntax unified
 116              		.thumb
 117              		.thumb_func
 118              		.fpu fpv4-sp-d16
 120              	remote_stop:
 121              	.LFB680:
  24:Src/system.c  **** 
  25:Src/system.c  **** 
  26:Src/system.c  **** void remote_stop(){
 122              		.loc 1 26 0
 123              		.cfi_startproc
 124              		@ args = 0, pretend = 0, frame = 0
 125              		@ frame_needed = 0, uses_anonymous_args = 0
 126 0000 10B5     		push	{r4, lr}
 127              	.LCFI1:
 128              		.cfi_def_cfa_offset 8
 129              		.cfi_offset 4, -8
 130              		.cfi_offset 14, -4
 131              	.LVL14:
  27:Src/system.c  ****   int i = JACK_FILTER;
 132              		.loc 1 27 0
 133 0002 0524     		movs	r4, #5
 134              	.LVL15:
 135              	.L11:
  28:Src/system.c  ****   while(--i){
 136              		.loc 1 28 0
 137 0004 013C     		subs	r4, r4, #1
 138              	.LVL16:
 139 0006 08D0     		beq	.L16
  29:Src/system.c  ****     if(!JACK_PLUGGED){
 140              		.loc 1 29 0
 141 0008 4FF48071 		mov	r1, #256
ARM GAS  /tmp/cc5hn8aR.s 			page 4


 142 000c 0448     		ldr	r0, .L17
 143 000e FFF7FEFF 		bl	HAL_GPIO_ReadPin
 144              	.LVL17:
 145 0012 0028     		cmp	r0, #0
 146 0014 F6D0     		beq	.L11
  30:Src/system.c  ****       i = JACK_FILTER;
 147              		.loc 1 30 0
 148 0016 0524     		movs	r4, #5
 149              	.LVL18:
 150 0018 F4E7     		b	.L11
 151              	.LVL19:
 152              	.L16:
  31:Src/system.c  ****     }
  32:Src/system.c  ****   }
  33:Src/system.c  ****   HAL_NVIC_SystemReset();
 153              		.loc 1 33 0
 154 001a FFF7FEFF 		bl	HAL_NVIC_SystemReset
 155              	.LVL20:
  34:Src/system.c  **** }
 156              		.loc 1 34 0
 157 001e 10BD     		pop	{r4, pc}
 158              	.LVL21:
 159              	.L18:
 160              		.align	2
 161              	.L17:
 162 0020 00080240 		.word	1073874944
 163              		.cfi_endproc
 164              	.LFE680:
 166              		.section	.text.hlt,"ax",%progbits
 167              		.align	1
 168              		.global	hlt
 169              		.syntax unified
 170              		.thumb
 171              		.thumb_func
 172              		.fpu fpv4-sp-d16
 174              	hlt:
 175              	.LFB682:
  35:Src/system.c  **** 
  36:Src/system.c  **** void stop(){
  37:Src/system.c  ****   //Stop match timer
  38:Src/system.c  ****   HAL_TIM_Base_Stop_IT(&htim2);
  39:Src/system.c  **** 
  40:Src/system.c  ****   //Stop PI
  41:Src/system.c  ****   PI_Stop();
  42:Src/system.c  **** 
  43:Src/system.c  ****   //Halt
  44:Src/system.c  ****   hlt();
  45:Src/system.c  **** }
  46:Src/system.c  **** 
  47:Src/system.c  **** void hlt(){
 176              		.loc 1 47 0
 177              		.cfi_startproc
 178              		@ Volatile: function does not return.
 179              		@ args = 0, pretend = 0, frame = 0
 180              		@ frame_needed = 0, uses_anonymous_args = 0
 181              		@ link register save eliminated.
 182              	.LBB4:
ARM GAS  /tmp/cc5hn8aR.s 			page 5


 183              	.LBB5:
 184              		.file 2 "Drivers/CMSIS/Include/cmsis_gcc.h"
   1:Drivers/CMSIS/Include/cmsis_gcc.h **** /**************************************************************************//**
   2:Drivers/CMSIS/Include/cmsis_gcc.h ****  * @file     cmsis_gcc.h
   3:Drivers/CMSIS/Include/cmsis_gcc.h ****  * @brief    CMSIS Cortex-M Core Function/Instruction Header File
   4:Drivers/CMSIS/Include/cmsis_gcc.h ****  * @version  V4.30
   5:Drivers/CMSIS/Include/cmsis_gcc.h ****  * @date     20. October 2015
   6:Drivers/CMSIS/Include/cmsis_gcc.h ****  ******************************************************************************/
   7:Drivers/CMSIS/Include/cmsis_gcc.h **** /* Copyright (c) 2009 - 2015 ARM LIMITED
   8:Drivers/CMSIS/Include/cmsis_gcc.h **** 
   9:Drivers/CMSIS/Include/cmsis_gcc.h ****    All rights reserved.
  10:Drivers/CMSIS/Include/cmsis_gcc.h ****    Redistribution and use in source and binary forms, with or without
  11:Drivers/CMSIS/Include/cmsis_gcc.h ****    modification, are permitted provided that the following conditions are met:
  12:Drivers/CMSIS/Include/cmsis_gcc.h ****    - Redistributions of source code must retain the above copyright
  13:Drivers/CMSIS/Include/cmsis_gcc.h ****      notice, this list of conditions and the following disclaimer.
  14:Drivers/CMSIS/Include/cmsis_gcc.h ****    - Redistributions in binary form must reproduce the above copyright
  15:Drivers/CMSIS/Include/cmsis_gcc.h ****      notice, this list of conditions and the following disclaimer in the
  16:Drivers/CMSIS/Include/cmsis_gcc.h ****      documentation and/or other materials provided with the distribution.
  17:Drivers/CMSIS/Include/cmsis_gcc.h ****    - Neither the name of ARM nor the names of its contributors may be used
  18:Drivers/CMSIS/Include/cmsis_gcc.h ****      to endorse or promote products derived from this software without
  19:Drivers/CMSIS/Include/cmsis_gcc.h ****      specific prior written permission.
  20:Drivers/CMSIS/Include/cmsis_gcc.h ****    *
  21:Drivers/CMSIS/Include/cmsis_gcc.h ****    THIS SOFTWARE IS PROVIDED BY THE COPYRIGHT HOLDERS AND CONTRIBUTORS "AS IS"
  22:Drivers/CMSIS/Include/cmsis_gcc.h ****    AND ANY EXPRESS OR IMPLIED WARRANTIES, INCLUDING, BUT NOT LIMITED TO, THE
  23:Drivers/CMSIS/Include/cmsis_gcc.h ****    IMPLIED WARRANTIES OF MERCHANTABILITY AND FITNESS FOR A PARTICULAR PURPOSE
  24:Drivers/CMSIS/Include/cmsis_gcc.h ****    ARE DISCLAIMED. IN NO EVENT SHALL COPYRIGHT HOLDERS AND CONTRIBUTORS BE
  25:Drivers/CMSIS/Include/cmsis_gcc.h ****    LIABLE FOR ANY DIRECT, INDIRECT, INCIDENTAL, SPECIAL, EXEMPLARY, OR
  26:Drivers/CMSIS/Include/cmsis_gcc.h ****    CONSEQUENTIAL DAMAGES (INCLUDING, BUT NOT LIMITED TO, PROCUREMENT OF
  27:Drivers/CMSIS/Include/cmsis_gcc.h ****    SUBSTITUTE GOODS OR SERVICES; LOSS OF USE, DATA, OR PROFITS; OR BUSINESS
  28:Drivers/CMSIS/Include/cmsis_gcc.h ****    INTERRUPTION) HOWEVER CAUSED AND ON ANY THEORY OF LIABILITY, WHETHER IN
  29:Drivers/CMSIS/Include/cmsis_gcc.h ****    CONTRACT, STRICT LIABILITY, OR TORT (INCLUDING NEGLIGENCE OR OTHERWISE)
  30:Drivers/CMSIS/Include/cmsis_gcc.h ****    ARISING IN ANY WAY OUT OF THE USE OF THIS SOFTWARE, EVEN IF ADVISED OF THE
  31:Drivers/CMSIS/Include/cmsis_gcc.h ****    POSSIBILITY OF SUCH DAMAGE.
  32:Drivers/CMSIS/Include/cmsis_gcc.h ****    ---------------------------------------------------------------------------*/
  33:Drivers/CMSIS/Include/cmsis_gcc.h **** 
  34:Drivers/CMSIS/Include/cmsis_gcc.h **** 
  35:Drivers/CMSIS/Include/cmsis_gcc.h **** #ifndef __CMSIS_GCC_H
  36:Drivers/CMSIS/Include/cmsis_gcc.h **** #define __CMSIS_GCC_H
  37:Drivers/CMSIS/Include/cmsis_gcc.h **** 
  38:Drivers/CMSIS/Include/cmsis_gcc.h **** /* ignore some GCC warnings */
  39:Drivers/CMSIS/Include/cmsis_gcc.h **** #if defined ( __GNUC__ )
  40:Drivers/CMSIS/Include/cmsis_gcc.h **** #pragma GCC diagnostic push
  41:Drivers/CMSIS/Include/cmsis_gcc.h **** #pragma GCC diagnostic ignored "-Wsign-conversion"
  42:Drivers/CMSIS/Include/cmsis_gcc.h **** #pragma GCC diagnostic ignored "-Wconversion"
  43:Drivers/CMSIS/Include/cmsis_gcc.h **** #pragma GCC diagnostic ignored "-Wunused-parameter"
  44:Drivers/CMSIS/Include/cmsis_gcc.h **** #endif
  45:Drivers/CMSIS/Include/cmsis_gcc.h **** 
  46:Drivers/CMSIS/Include/cmsis_gcc.h **** 
  47:Drivers/CMSIS/Include/cmsis_gcc.h **** /* ###########################  Core Function Access  ########################### */
  48:Drivers/CMSIS/Include/cmsis_gcc.h **** /** \ingroup  CMSIS_Core_FunctionInterface
  49:Drivers/CMSIS/Include/cmsis_gcc.h ****     \defgroup CMSIS_Core_RegAccFunctions CMSIS Core Register Access Functions
  50:Drivers/CMSIS/Include/cmsis_gcc.h ****   @{
  51:Drivers/CMSIS/Include/cmsis_gcc.h ****  */
  52:Drivers/CMSIS/Include/cmsis_gcc.h **** 
  53:Drivers/CMSIS/Include/cmsis_gcc.h **** /**
  54:Drivers/CMSIS/Include/cmsis_gcc.h ****   \brief   Enable IRQ Interrupts
  55:Drivers/CMSIS/Include/cmsis_gcc.h ****   \details Enables IRQ interrupts by clearing the I-bit in the CPSR.
ARM GAS  /tmp/cc5hn8aR.s 			page 6


  56:Drivers/CMSIS/Include/cmsis_gcc.h ****            Can only be executed in Privileged modes.
  57:Drivers/CMSIS/Include/cmsis_gcc.h ****  */
  58:Drivers/CMSIS/Include/cmsis_gcc.h **** __attribute__( ( always_inline ) ) __STATIC_INLINE void __enable_irq(void)
  59:Drivers/CMSIS/Include/cmsis_gcc.h **** {
  60:Drivers/CMSIS/Include/cmsis_gcc.h ****   __ASM volatile ("cpsie i" : : : "memory");
  61:Drivers/CMSIS/Include/cmsis_gcc.h **** }
  62:Drivers/CMSIS/Include/cmsis_gcc.h **** 
  63:Drivers/CMSIS/Include/cmsis_gcc.h **** 
  64:Drivers/CMSIS/Include/cmsis_gcc.h **** /**
  65:Drivers/CMSIS/Include/cmsis_gcc.h ****   \brief   Disable IRQ Interrupts
  66:Drivers/CMSIS/Include/cmsis_gcc.h ****   \details Disables IRQ interrupts by setting the I-bit in the CPSR.
  67:Drivers/CMSIS/Include/cmsis_gcc.h ****   Can only be executed in Privileged modes.
  68:Drivers/CMSIS/Include/cmsis_gcc.h ****  */
  69:Drivers/CMSIS/Include/cmsis_gcc.h **** __attribute__( ( always_inline ) ) __STATIC_INLINE void __disable_irq(void)
  70:Drivers/CMSIS/Include/cmsis_gcc.h **** {
  71:Drivers/CMSIS/Include/cmsis_gcc.h ****   __ASM volatile ("cpsid i" : : : "memory");
 185              		.loc 2 71 0
 186              		.syntax unified
 187              	@ 71 "Drivers/CMSIS/Include/cmsis_gcc.h" 1
 188 0000 72B6     		cpsid i
 189              	@ 0 "" 2
 190              		.thumb
 191              		.syntax unified
 192              	.L20:
 193 0002 FEE7     		b	.L20
 194              	.LBE5:
 195              	.LBE4:
 196              		.cfi_endproc
 197              	.LFE682:
 199              		.section	.text.stop,"ax",%progbits
 200              		.align	1
 201              		.global	stop
 202              		.syntax unified
 203              		.thumb
 204              		.thumb_func
 205              		.fpu fpv4-sp-d16
 207              	stop:
 208              	.LFB681:
  36:Src/system.c  ****   //Stop match timer
 209              		.loc 1 36 0
 210              		.cfi_startproc
 211              		@ Volatile: function does not return.
 212              		@ args = 0, pretend = 0, frame = 0
 213              		@ frame_needed = 0, uses_anonymous_args = 0
 214 0000 08B5     		push	{r3, lr}
 215              	.LCFI2:
 216              		.cfi_def_cfa_offset 8
 217              		.cfi_offset 3, -8
 218              		.cfi_offset 14, -4
  38:Src/system.c  **** 
 219              		.loc 1 38 0
 220 0002 0348     		ldr	r0, .L23
 221 0004 FFF7FEFF 		bl	HAL_TIM_Base_Stop_IT
 222              	.LVL22:
  41:Src/system.c  **** 
 223              		.loc 1 41 0
 224 0008 FFF7FEFF 		bl	PI_Stop
ARM GAS  /tmp/cc5hn8aR.s 			page 7


 225              	.LVL23:
  44:Src/system.c  **** }
 226              		.loc 1 44 0
 227 000c FFF7FEFF 		bl	hlt
 228              	.LVL24:
 229              	.L24:
 230              		.align	2
 231              	.L23:
 232 0010 00000000 		.word	htim2
 233              		.cfi_endproc
 234              	.LFE681:
 236              		.text
 237              	.Letext0:
 238              		.file 3 "/usr/arm-none-eabi/include/machine/_default_types.h"
 239              		.file 4 "/usr/arm-none-eabi/include/sys/_stdint.h"
 240              		.file 5 "Drivers/CMSIS/Include/core_cm4.h"
 241              		.file 6 "Drivers/CMSIS/Device/ST/STM32F4xx/Include/system_stm32f4xx.h"
 242              		.file 7 "Drivers/CMSIS/Device/ST/STM32F4xx/Include/stm32f401xe.h"
 243              		.file 8 "/usr/arm-none-eabi/include/sys/lock.h"
 244              		.file 9 "/usr/arm-none-eabi/include/sys/_types.h"
 245              		.file 10 "/usr/lib/gcc/arm-none-eabi/7.3.0/include/stddef.h"
 246              		.file 11 "/usr/arm-none-eabi/include/sys/reent.h"
 247              		.file 12 "Drivers/STM32F4xx_HAL_Driver/Inc/stm32f4xx_hal_def.h"
 248              		.file 13 "Drivers/STM32F4xx_HAL_Driver/Inc/stm32f4xx_hal_gpio.h"
 249              		.file 14 "Drivers/STM32F4xx_HAL_Driver/Inc/stm32f4xx_hal_dma.h"
 250              		.file 15 "Drivers/STM32F4xx_HAL_Driver/Inc/stm32f4xx_hal_tim.h"
 251              		.file 16 "Inc/crc_16.h"
 252              		.file 17 "Inc/robotronik_protocol.h"
 253              		.file 18 "Inc/usart.h"
 254              		.file 19 "/usr/arm-none-eabi/include/stdlib.h"
 255              		.file 20 "Inc/tim.h"
 256              		.file 21 "Inc/system.h"
 257              		.file 22 "Drivers/STM32F4xx_HAL_Driver/Inc/stm32f4xx_ll_dma.h"
 258              		.file 23 "Inc/pi_client.h"
 259              		.file 24 "Drivers/STM32F4xx_HAL_Driver/Inc/stm32f4xx_hal_cortex.h"
 260              		.file 25 "Drivers/STM32F4xx_HAL_Driver/Inc/stm32f4xx_hal.h"
ARM GAS  /tmp/cc5hn8aR.s 			page 8

