ARM GAS  /tmp/ccRgLxQJ.s 			page 1


   1              		.cpu cortex-m4
   2              		.eabi_attribute 27, 1
   3              		.eabi_attribute 28, 1
   4              		.eabi_attribute 20, 1
   5              		.eabi_attribute 21, 1
   6              		.eabi_attribute 23, 3
   7              		.eabi_attribute 24, 1
   8              		.eabi_attribute 25, 1
   9              		.eabi_attribute 26, 1
  10              		.eabi_attribute 30, 1
  11              		.eabi_attribute 34, 1
  12              		.eabi_attribute 18, 4
  13              		.file	"tof.c"
  14              		.text
  15              	.Ltext0:
  16              		.cfi_sections	.debug_frame
  17              		.section	.text.ToF_Init_Struct,"ax",%progbits
  18              		.align	1
  19              		.global	ToF_Init_Struct
  20              		.syntax unified
  21              		.thumb
  22              		.thumb_func
  23              		.fpu fpv4-sp-d16
  25              	ToF_Init_Struct:
  26              	.LFB679:
  27              		.file 1 "Src/tof.c"
   1:Src/tof.c     **** #include "tof.h"
   2:Src/tof.c     **** 
   3:Src/tof.c     **** void ToF_Init_Struct(ToF_Dev *dev, I2C_HandleTypeDef *hi2c, uint8_t addr){
  28              		.loc 1 3 0
  29              		.cfi_startproc
  30              		@ args = 0, pretend = 0, frame = 0
  31              		@ frame_needed = 0, uses_anonymous_args = 0
  32              	.LVL0:
  33 0000 08B5     		push	{r3, lr}
  34              	.LCFI0:
  35              		.cfi_def_cfa_offset 8
  36              		.cfi_offset 3, -8
  37              		.cfi_offset 14, -4
   4:Src/tof.c     ****   dev->I2cHandle = hi2c;
  38              		.loc 1 4 0
  39 0002 C0F85C11 		str	r1, [r0, #348]
   5:Src/tof.c     ****   dev->I2cDevAddr = addr;
  40              		.loc 1 5 0
  41 0006 80F86021 		strb	r2, [r0, #352]
   6:Src/tof.c     ****   dev->Present = 0;
  42              		.loc 1 6 0
  43 000a 0022     		movs	r2, #0
  44              	.LVL1:
  45 000c C0F86821 		str	r2, [r0, #360]
   7:Src/tof.c     **** 
   8:Src/tof.c     ****   //Set I2C speed to 400KHz
   9:Src/tof.c     ****   VL53L0X_WrByte(dev, 0x88, 0x00);
  46              		.loc 1 9 0
  47 0010 8821     		movs	r1, #136
  48              	.LVL2:
  49 0012 FFF7FEFF 		bl	VL53L0X_WrByte
ARM GAS  /tmp/ccRgLxQJ.s 			page 2


  50              	.LVL3:
  10:Src/tof.c     **** }
  51              		.loc 1 10 0
  52 0016 08BD     		pop	{r3, pc}
  53              		.cfi_endproc
  54              	.LFE679:
  56              		.section	.text.ToF_Poke,"ax",%progbits
  57              		.align	1
  58              		.global	ToF_Poke
  59              		.syntax unified
  60              		.thumb
  61              		.thumb_func
  62              		.fpu fpv4-sp-d16
  64              	ToF_Poke:
  65              	.LFB680:
  11:Src/tof.c     **** 
  12:Src/tof.c     **** int ToF_Poke(ToF_Dev *dev){
  66              		.loc 1 12 0
  67              		.cfi_startproc
  68              		@ args = 0, pretend = 0, frame = 8
  69              		@ frame_needed = 0, uses_anonymous_args = 0
  70              	.LVL4:
  71 0000 00B5     		push	{lr}
  72              	.LCFI1:
  73              		.cfi_def_cfa_offset 4
  74              		.cfi_offset 14, -4
  75 0002 83B0     		sub	sp, sp, #12
  76              	.LCFI2:
  77              		.cfi_def_cfa_offset 16
  13:Src/tof.c     ****   int status;
  14:Src/tof.c     ****   //Read ID to know if the address is correct
  15:Src/tof.c     ****   uint16_t id;
  16:Src/tof.c     ****   status = VL53L0X_RdWord(dev, VL53L0X_REG_IDENTIFICATION_MODEL_ID, &id);
  78              		.loc 1 16 0
  79 0004 0DF10602 		add	r2, sp, #6
  80 0008 C021     		movs	r1, #192
  81 000a FFF7FEFF 		bl	VL53L0X_RdWord
  82              	.LVL5:
  17:Src/tof.c     ****   
  18:Src/tof.c     ****   //I2C error or bad ID
  19:Src/tof.c     ****   if(status || id != 0xEEAA){
  83              		.loc 1 19 0
  84 000e 60B9     		cbnz	r0, .L5
  85              		.loc 1 19 0 is_stmt 0 discriminator 1
  86 0010 BDF80620 		ldrh	r2, [sp, #6]
  87 0014 4EF6AA63 		movw	r3, #61098
  88 0018 9A42     		cmp	r2, r3
  89 001a 03D1     		bne	.L8
  20:Src/tof.c     ****     return -1;
  21:Src/tof.c     ****   }
  22:Src/tof.c     **** 
  23:Src/tof.c     ****   return 0;
  90              		.loc 1 23 0 is_stmt 1
  91 001c 0020     		movs	r0, #0
  92              	.LVL6:
  93              	.L3:
  24:Src/tof.c     **** }
ARM GAS  /tmp/ccRgLxQJ.s 			page 3


  94              		.loc 1 24 0
  95 001e 03B0     		add	sp, sp, #12
  96              	.LCFI3:
  97              		.cfi_remember_state
  98              		.cfi_def_cfa_offset 4
  99              		@ sp needed
 100 0020 5DF804FB 		ldr	pc, [sp], #4
 101              	.LVL7:
 102              	.L8:
 103              	.LCFI4:
 104              		.cfi_restore_state
  20:Src/tof.c     ****     return -1;
 105              		.loc 1 20 0
 106 0024 4FF0FF30 		mov	r0, #-1
 107              	.LVL8:
 108 0028 F9E7     		b	.L3
 109              	.LVL9:
 110              	.L5:
 111 002a 4FF0FF30 		mov	r0, #-1
 112              	.LVL10:
 113 002e F6E7     		b	.L3
 114              		.cfi_endproc
 115              	.LFE680:
 117              		.section	.text.ToF_Set_Address,"ax",%progbits
 118              		.align	1
 119              		.global	ToF_Set_Address
 120              		.syntax unified
 121              		.thumb
 122              		.thumb_func
 123              		.fpu fpv4-sp-d16
 125              	ToF_Set_Address:
 126              	.LFB681:
  25:Src/tof.c     **** 
  26:Src/tof.c     **** int ToF_Set_Address(ToF_Dev *dev, uint8_t addr){
 127              		.loc 1 26 0
 128              		.cfi_startproc
 129              		@ args = 0, pretend = 0, frame = 0
 130              		@ frame_needed = 0, uses_anonymous_args = 0
 131              	.LVL11:
 132 0000 38B5     		push	{r3, r4, r5, lr}
 133              	.LCFI5:
 134              		.cfi_def_cfa_offset 16
 135              		.cfi_offset 3, -16
 136              		.cfi_offset 4, -12
 137              		.cfi_offset 5, -8
 138              		.cfi_offset 14, -4
 139 0002 0446     		mov	r4, r0
 140 0004 0D46     		mov	r5, r1
  27:Src/tof.c     ****   //Set device address
  28:Src/tof.c     ****   int status = VL53L0X_SetDeviceAddress(dev, addr);
 141              		.loc 1 28 0
 142 0006 FFF7FEFF 		bl	VL53L0X_SetDeviceAddress
 143              	.LVL12:
  29:Src/tof.c     ****   if(status) return -1;
 144              		.loc 1 29 0
 145 000a 28B9     		cbnz	r0, .L11
  30:Src/tof.c     ****   dev->I2cDevAddr = addr;
ARM GAS  /tmp/ccRgLxQJ.s 			page 4


 146              		.loc 1 30 0
 147 000c 84F86051 		strb	r5, [r4, #352]
  31:Src/tof.c     **** 
  32:Src/tof.c     ****   //Check if the device work with the new address
  33:Src/tof.c     ****   return ToF_Poke(dev);
 148              		.loc 1 33 0
 149 0010 2046     		mov	r0, r4
 150              	.LVL13:
 151 0012 FFF7FEFF 		bl	ToF_Poke
 152              	.LVL14:
 153              	.L9:
  34:Src/tof.c     **** }
 154              		.loc 1 34 0
 155 0016 38BD     		pop	{r3, r4, r5, pc}
 156              	.LVL15:
 157              	.L11:
  29:Src/tof.c     ****   dev->I2cDevAddr = addr;
 158              		.loc 1 29 0
 159 0018 4FF0FF30 		mov	r0, #-1
 160              	.LVL16:
 161 001c FBE7     		b	.L9
 162              		.cfi_endproc
 163              	.LFE681:
 165              		.section	.text.ToF_Init_Device,"ax",%progbits
 166              		.align	1
 167              		.global	ToF_Init_Device
 168              		.syntax unified
 169              		.thumb
 170              		.thumb_func
 171              		.fpu fpv4-sp-d16
 173              	ToF_Init_Device:
 174              	.LFB682:
  35:Src/tof.c     **** 
  36:Src/tof.c     **** int ToF_Init_Device(ToF_Dev *dev){
 175              		.loc 1 36 0
 176              		.cfi_startproc
 177              		@ args = 0, pretend = 0, frame = 0
 178              		@ frame_needed = 0, uses_anonymous_args = 0
 179              	.LVL17:
 180 0000 10B5     		push	{r4, lr}
 181              	.LCFI6:
 182              		.cfi_def_cfa_offset 8
 183              		.cfi_offset 4, -8
 184              		.cfi_offset 14, -4
 185 0002 0446     		mov	r4, r0
  37:Src/tof.c     ****   //Init the device
  38:Src/tof.c     ****   int status = VL53L0X_DataInit(dev);
 186              		.loc 1 38 0
 187 0004 FFF7FEFF 		bl	VL53L0X_DataInit
 188              	.LVL18:
  39:Src/tof.c     ****   if(status == 0)
 189              		.loc 1 39 0
 190 0008 58B9     		cbnz	r0, .L15
  40:Src/tof.c     ****     dev->Present = 1;
 191              		.loc 1 40 0
 192 000a 0123     		movs	r3, #1
 193 000c C4F86831 		str	r3, [r4, #360]
ARM GAS  /tmp/ccRgLxQJ.s 			page 5


  41:Src/tof.c     ****   else
  42:Src/tof.c     ****     return -1;
  43:Src/tof.c     ****   
  44:Src/tof.c     ****   //Static init
  45:Src/tof.c     ****   status = VL53L0X_StaticInit(dev);
 194              		.loc 1 45 0
 195 0010 2046     		mov	r0, r4
 196              	.LVL19:
 197 0012 FFF7FEFF 		bl	VL53L0X_StaticInit
 198              	.LVL20:
  46:Src/tof.c     ****   if(status) return -1;
 199              		.loc 1 46 0
 200 0016 08B9     		cbnz	r0, .L18
  47:Src/tof.c     ****   return 0;
 201              		.loc 1 47 0
 202 0018 0020     		movs	r0, #0
 203              	.LVL21:
 204              	.L13:
  48:Src/tof.c     **** }
 205              		.loc 1 48 0
 206 001a 10BD     		pop	{r4, pc}
 207              	.LVL22:
 208              	.L18:
  46:Src/tof.c     ****   if(status) return -1;
 209              		.loc 1 46 0
 210 001c 4FF0FF30 		mov	r0, #-1
 211              	.LVL23:
 212 0020 FBE7     		b	.L13
 213              	.LVL24:
 214              	.L15:
  42:Src/tof.c     ****   
 215              		.loc 1 42 0
 216 0022 4FF0FF30 		mov	r0, #-1
 217              	.LVL25:
 218 0026 F8E7     		b	.L13
 219              		.cfi_endproc
 220              	.LFE682:
 222              		.section	.text.ToF_Configure_Device,"ax",%progbits
 223              		.align	1
 224              		.global	ToF_Configure_Device
 225              		.syntax unified
 226              		.thumb
 227              		.thumb_func
 228              		.fpu fpv4-sp-d16
 230              	ToF_Configure_Device:
 231              	.LFB683:
  49:Src/tof.c     **** 
  50:Src/tof.c     **** int ToF_Configure_Device(ToF_Dev *dev, ToF_Params *params){
 232              		.loc 1 50 0
 233              		.cfi_startproc
 234              		@ args = 0, pretend = 0, frame = 0
 235              		@ frame_needed = 0, uses_anonymous_args = 0
 236              	.LVL26:
 237 0000 70B5     		push	{r4, r5, r6, lr}
 238              	.LCFI7:
 239              		.cfi_def_cfa_offset 16
 240              		.cfi_offset 4, -16
ARM GAS  /tmp/ccRgLxQJ.s 			page 6


 241              		.cfi_offset 5, -12
 242              		.cfi_offset 6, -8
 243              		.cfi_offset 14, -4
 244 0002 0446     		mov	r4, r0
 245 0004 0D46     		mov	r5, r1
  51:Src/tof.c     ****   //Ref calibration
  52:Src/tof.c     ****   VL53L0X_PerformRefCalibration(dev, &params->VhvSettings, &params->PhaseCal);
 246              		.loc 1 52 0
 247 0006 4E1C     		adds	r6, r1, #1
 248 0008 3246     		mov	r2, r6
 249 000a FFF7FEFF 		bl	VL53L0X_PerformRefCalibration
 250              	.LVL27:
  53:Src/tof.c     **** 
  54:Src/tof.c     ****   //Ref Spad Management
  55:Src/tof.c     ****   VL53L0X_PerformRefSpadManagement(dev, &params->refSpadCount, &params->isApertureSpads);
 251              		.loc 1 55 0
 252 000e 05F10802 		add	r2, r5, #8
 253 0012 291D     		adds	r1, r5, #4
 254 0014 2046     		mov	r0, r4
 255 0016 FFF7FEFF 		bl	VL53L0X_PerformRefSpadManagement
 256              	.LVL28:
  56:Src/tof.c     **** 
  57:Src/tof.c     ****   //Set single ranging mode
  58:Src/tof.c     ****   VL53L0X_SetDeviceMode(dev, VL53L0X_DEVICEMODE_SINGLE_RANGING);
 257              		.loc 1 58 0
 258 001a 0021     		movs	r1, #0
 259 001c 2046     		mov	r0, r4
 260 001e FFF7FEFF 		bl	VL53L0X_SetDeviceMode
 261              	.LVL29:
  59:Src/tof.c     **** 
  60:Src/tof.c     ****   //Enable Sigma Limit
  61:Src/tof.c     ****   VL53L0X_SetLimitCheckEnable(dev, VL53L0X_CHECKENABLE_SIGMA_FINAL_RANGE, 1);
 262              		.loc 1 61 0
 263 0022 0122     		movs	r2, #1
 264 0024 0021     		movs	r1, #0
 265 0026 2046     		mov	r0, r4
 266 0028 FFF7FEFF 		bl	VL53L0X_SetLimitCheckEnable
 267              	.LVL30:
  62:Src/tof.c     **** 
  63:Src/tof.c     ****   //Enable Signal Limit
  64:Src/tof.c     ****   VL53L0X_SetLimitCheckEnable(dev, VL53L0X_CHECKENABLE_SIGNAL_RATE_FINAL_RANGE, 1);
 268              		.loc 1 64 0
 269 002c 0122     		movs	r2, #1
 270 002e 1146     		mov	r1, r2
 271 0030 2046     		mov	r0, r4
 272 0032 FFF7FEFF 		bl	VL53L0X_SetLimitCheckEnable
 273              	.LVL31:
  65:Src/tof.c     **** 
  66:Src/tof.c     ****   VL53L0X_SetLimitCheckValue(dev, VL53L0X_CHECKENABLE_SIGNAL_RATE_FINAL_RANGE, params->signalLimit)
 274              		.loc 1 66 0
 275 0036 EA68     		ldr	r2, [r5, #12]
 276 0038 0121     		movs	r1, #1
 277 003a 2046     		mov	r0, r4
 278 003c FFF7FEFF 		bl	VL53L0X_SetLimitCheckValue
 279              	.LVL32:
  67:Src/tof.c     ****   VL53L0X_SetLimitCheckValue(dev, VL53L0X_CHECKENABLE_SIGMA_FINAL_RANGE, params->sigmaLimit);
 280              		.loc 1 67 0
ARM GAS  /tmp/ccRgLxQJ.s 			page 7


 281 0040 2A69     		ldr	r2, [r5, #16]
 282 0042 0021     		movs	r1, #0
 283 0044 2046     		mov	r0, r4
 284 0046 FFF7FEFF 		bl	VL53L0X_SetLimitCheckValue
 285              	.LVL33:
  68:Src/tof.c     ****   VL53L0X_SetMeasurementTimingBudgetMicroSeconds(dev, params->timingBudget);
 286              		.loc 1 68 0
 287 004a 6969     		ldr	r1, [r5, #20]
 288 004c 2046     		mov	r0, r4
 289 004e FFF7FEFF 		bl	VL53L0X_SetMeasurementTimingBudgetMicroSeconds
 290              	.LVL34:
  69:Src/tof.c     ****   VL53L0X_SetVcselPulsePeriod(dev, VL53L0X_VCSEL_PERIOD_PRE_RANGE, params->preRangeVcselPeriod);
 291              		.loc 1 69 0
 292 0052 2A7E     		ldrb	r2, [r5, #24]	@ zero_extendqisi2
 293 0054 0021     		movs	r1, #0
 294 0056 2046     		mov	r0, r4
 295 0058 FFF7FEFF 		bl	VL53L0X_SetVcselPulsePeriod
 296              	.LVL35:
  70:Src/tof.c     ****   VL53L0X_SetVcselPulsePeriod(dev, VL53L0X_VCSEL_PERIOD_FINAL_RANGE, params->finalRangeVcselPeriod)
 297              		.loc 1 70 0
 298 005c 6A7E     		ldrb	r2, [r5, #25]	@ zero_extendqisi2
 299 005e 0121     		movs	r1, #1
 300 0060 2046     		mov	r0, r4
 301 0062 FFF7FEFF 		bl	VL53L0X_SetVcselPulsePeriod
 302              	.LVL36:
  71:Src/tof.c     ****   VL53L0X_PerformRefCalibration(dev, &params->VhvSettings, &params->PhaseCal);
 303              		.loc 1 71 0
 304 0066 3246     		mov	r2, r6
 305 0068 2946     		mov	r1, r5
 306 006a 2046     		mov	r0, r4
 307 006c FFF7FEFF 		bl	VL53L0X_PerformRefCalibration
 308              	.LVL37:
  72:Src/tof.c     **** 
  73:Src/tof.c     ****   dev->LeakyFirst = 1;
 309              		.loc 1 73 0
 310 0070 0123     		movs	r3, #1
 311 0072 C4F87C31 		str	r3, [r4, #380]
  74:Src/tof.c     **** 
  75:Src/tof.c     ****   return 0;
  76:Src/tof.c     **** }
 312              		.loc 1 76 0
 313 0076 0020     		movs	r0, #0
 314 0078 70BD     		pop	{r4, r5, r6, pc}
 315              		.cfi_endproc
 316              	.LFE683:
 318              		.section	.text.ToF_Perform_Measurement,"ax",%progbits
 319              		.align	1
 320              		.global	ToF_Perform_Measurement
 321              		.syntax unified
 322              		.thumb
 323              		.thumb_func
 324              		.fpu fpv4-sp-d16
 326              	ToF_Perform_Measurement:
 327              	.LFB684:
  77:Src/tof.c     **** 
  78:Src/tof.c     **** int ToF_Perform_Measurement(ToF_Dev *dev, ToF_Data *data){
 328              		.loc 1 78 0
ARM GAS  /tmp/ccRgLxQJ.s 			page 8


 329              		.cfi_startproc
 330              		@ args = 0, pretend = 0, frame = 0
 331              		@ frame_needed = 0, uses_anonymous_args = 0
 332              	.LVL38:
 333 0000 38B5     		push	{r3, r4, r5, lr}
 334              	.LCFI8:
 335              		.cfi_def_cfa_offset 16
 336              		.cfi_offset 3, -16
 337              		.cfi_offset 4, -12
 338              		.cfi_offset 5, -8
 339              		.cfi_offset 14, -4
  79:Src/tof.c     ****   static int LeakyFactorFix8 = (int)( 0.6 *256);
  80:Src/tof.c     **** 
  81:Src/tof.c     ****   if(!dev->Present) return -1;
 340              		.loc 1 81 0
 341 0002 D0F86831 		ldr	r3, [r0, #360]
 342 0006 13B3     		cbz	r3, .L25
 343 0008 0D46     		mov	r5, r1
 344 000a 0446     		mov	r4, r0
  82:Src/tof.c     **** 
  83:Src/tof.c     ****   VL53L0X_PerformSingleRangingMeasurement(dev, data);
 345              		.loc 1 83 0
 346 000c FFF7FEFF 		bl	VL53L0X_PerformSingleRangingMeasurement
 347              	.LVL39:
  84:Src/tof.c     **** 
  85:Src/tof.c     ****   //Sensor_SetNewRange
  86:Src/tof.c     ****   /* Store new ranging data into the device structure, apply leaky
  87:Src/tof.c     ****      integrator if needed */
  88:Src/tof.c     ****   if(data->RangeStatus == 0){
 348              		.loc 1 88 0
 349 0010 2B7E     		ldrb	r3, [r5, #24]	@ zero_extendqisi2
 350 0012 BBB9     		cbnz	r3, .L23
  89:Src/tof.c     ****     if(dev->LeakyFirst){
 351              		.loc 1 89 0
 352 0014 D4F87C01 		ldr	r0, [r4, #380]
 353 0018 30B1     		cbz	r0, .L24
  90:Src/tof.c     ****       dev->LeakyFirst = 0;
 354              		.loc 1 90 0
 355 001a 0020     		movs	r0, #0
 356 001c C4F87C01 		str	r0, [r4, #380]
  91:Src/tof.c     ****       dev->LeakyRange = data->RangeMilliMeter;
 357              		.loc 1 91 0
 358 0020 2B89     		ldrh	r3, [r5, #8]
 359 0022 C4F87831 		str	r3, [r4, #376]
 360 0026 11E0     		b	.L21
 361              	.L24:
  92:Src/tof.c     ****     }
  93:Src/tof.c     ****     else{
  94:Src/tof.c     ****       dev->LeakyRange = (dev->LeakyRange*LeakyFactorFix8 + (256-LeakyFactorFix8)*data->RangeMilliMe
 362              		.loc 1 94 0
 363 0028 D4F87831 		ldr	r3, [r4, #376]
 364 002c 03EBC303 		add	r3, r3, r3, lsl #3
 365 0030 03EB0313 		add	r3, r3, r3, lsl #4
 366 0034 2A89     		ldrh	r2, [r5, #8]
 367 0036 6721     		movs	r1, #103
 368 0038 01FB0233 		mla	r3, r1, r2, r3
 369 003c 1B12     		asrs	r3, r3, #8
ARM GAS  /tmp/ccRgLxQJ.s 			page 9


 370 003e C4F87831 		str	r3, [r4, #376]
 371 0042 03E0     		b	.L21
 372              	.L23:
  95:Src/tof.c     ****     }
  96:Src/tof.c     ****   }
  97:Src/tof.c     ****   else{
  98:Src/tof.c     ****     dev->LeakyFirst = 1;
 373              		.loc 1 98 0
 374 0044 0123     		movs	r3, #1
 375 0046 C4F87C31 		str	r3, [r4, #380]
  99:Src/tof.c     ****   }
 100:Src/tof.c     ****   
 101:Src/tof.c     ****   return 0;
 376              		.loc 1 101 0
 377 004a 0020     		movs	r0, #0
 378              	.LVL40:
 379              	.L21:
 102:Src/tof.c     **** }
 380              		.loc 1 102 0
 381 004c 38BD     		pop	{r3, r4, r5, pc}
 382              	.LVL41:
 383              	.L25:
  81:Src/tof.c     **** 
 384              		.loc 1 81 0
 385 004e 4FF0FF30 		mov	r0, #-1
 386              	.LVL42:
 387 0052 FBE7     		b	.L21
 388              		.cfi_endproc
 389              	.LFE684:
 391              		.text
 392              	.Letext0:
 393              		.file 2 "/usr/arm-none-eabi/include/machine/_default_types.h"
 394              		.file 3 "/usr/arm-none-eabi/include/sys/_stdint.h"
 395              		.file 4 "Drivers/VL53L0X/API/vl53l0x_types.h"
 396              		.file 5 "Drivers/VL53L0X/API/vl53l0x_device.h"
 397              		.file 6 "Drivers/VL53L0X/API/vl53l0x_def.h"
 398              		.file 7 "/usr/arm-none-eabi/include/sys/lock.h"
 399              		.file 8 "/usr/arm-none-eabi/include/sys/_types.h"
 400              		.file 9 "/usr/lib/gcc/arm-none-eabi/7.3.0/include/stddef.h"
 401              		.file 10 "/usr/arm-none-eabi/include/sys/reent.h"
 402              		.file 11 "Drivers/CMSIS/Include/core_cm4.h"
 403              		.file 12 "Drivers/CMSIS/Device/ST/STM32F4xx/Include/system_stm32f4xx.h"
 404              		.file 13 "Drivers/CMSIS/Device/ST/STM32F4xx/Include/stm32f401xe.h"
 405              		.file 14 "Drivers/STM32F4xx_HAL_Driver/Inc/stm32f4xx_hal_def.h"
 406              		.file 15 "Drivers/STM32F4xx_HAL_Driver/Inc/stm32f4xx_hal_dma.h"
 407              		.file 16 "Drivers/STM32F4xx_HAL_Driver/Inc/stm32f4xx_hal_i2c.h"
 408              		.file 17 "Drivers/VL53L0X/Platform/vl53l0x_platform.h"
 409              		.file 18 "Inc/tof.h"
 410              		.file 19 "Drivers/STM32F4xx_HAL_Driver/Inc/stm32f4xx_ll_dma.h"
 411              		.file 20 "Drivers/VL53L0X/API/vl53l0x_api.h"
ARM GAS  /tmp/ccRgLxQJ.s 			page 10

