ARM GAS  /tmp/ccq7BpOX.s 			page 1


   1              		.cpu cortex-m4
   2              		.eabi_attribute 27, 1
   3              		.eabi_attribute 28, 1
   4              		.eabi_attribute 20, 1
   5              		.eabi_attribute 21, 1
   6              		.eabi_attribute 23, 3
   7              		.eabi_attribute 24, 1
   8              		.eabi_attribute 25, 1
   9              		.eabi_attribute 26, 1
  10              		.eabi_attribute 30, 1
  11              		.eabi_attribute 34, 1
  12              		.eabi_attribute 18, 4
  13              		.file	"vl53l0x_api.c"
  14              		.text
  15              	.Ltext0:
  16              		.cfi_sections	.debug_frame
  17              		.section	.text.VL53L0X_GetVersion,"ax",%progbits
  18              		.align	1
  19              		.global	VL53L0X_GetVersion
  20              		.syntax unified
  21              		.thumb
  22              		.thumb_func
  23              		.fpu fpv4-sp-d16
  25              	VL53L0X_GetVersion:
  26              	.LFB126:
  27              		.file 1 "Drivers/VL53L0X/API/vl53l0x_api.c"
   1:Drivers/VL53L0X/API/vl53l0x_api.c **** /*******************************************************************************
   2:Drivers/VL53L0X/API/vl53l0x_api.c ****  Copyright © 2016, STMicroelectronics International N.V.
   3:Drivers/VL53L0X/API/vl53l0x_api.c ****  All rights reserved.
   4:Drivers/VL53L0X/API/vl53l0x_api.c **** 
   5:Drivers/VL53L0X/API/vl53l0x_api.c ****  Redistribution and use in source and binary forms, with or without
   6:Drivers/VL53L0X/API/vl53l0x_api.c ****  modification, are permitted provided that the following conditions are met:
   7:Drivers/VL53L0X/API/vl53l0x_api.c ****  * Redistributions of source code must retain the above copyright
   8:Drivers/VL53L0X/API/vl53l0x_api.c ****  notice, this list of conditions and the following disclaimer.
   9:Drivers/VL53L0X/API/vl53l0x_api.c ****  * Redistributions in binary form must reproduce the above copyright
  10:Drivers/VL53L0X/API/vl53l0x_api.c ****  notice, this list of conditions and the following disclaimer in the
  11:Drivers/VL53L0X/API/vl53l0x_api.c ****  documentation and/or other materials provided with the distribution.
  12:Drivers/VL53L0X/API/vl53l0x_api.c ****  * Neither the name of STMicroelectronics nor the
  13:Drivers/VL53L0X/API/vl53l0x_api.c ****  names of its contributors may be used to endorse or promote products
  14:Drivers/VL53L0X/API/vl53l0x_api.c ****  derived from this software without specific prior written permission.
  15:Drivers/VL53L0X/API/vl53l0x_api.c **** 
  16:Drivers/VL53L0X/API/vl53l0x_api.c ****  THIS SOFTWARE IS PROVIDED BY THE COPYRIGHT HOLDERS AND CONTRIBUTORS "AS IS" AND
  17:Drivers/VL53L0X/API/vl53l0x_api.c ****  ANY EXPRESS OR IMPLIED WARRANTIES, INCLUDING, BUT NOT LIMITED TO, THE IMPLIED
  18:Drivers/VL53L0X/API/vl53l0x_api.c ****  WARRANTIES OF MERCHANTABILITY, FITNESS FOR A PARTICULAR PURPOSE, AND
  19:Drivers/VL53L0X/API/vl53l0x_api.c ****  NON-INFRINGEMENT OF INTELLECTUAL PROPERTY RIGHTS ARE DISCLAIMED.
  20:Drivers/VL53L0X/API/vl53l0x_api.c ****  IN NO EVENT SHALL STMICROELECTRONICS INTERNATIONAL N.V. BE LIABLE FOR ANY
  21:Drivers/VL53L0X/API/vl53l0x_api.c ****  DIRECT, INDIRECT, INCIDENTAL, SPECIAL, EXEMPLARY, OR CONSEQUENTIAL DAMAGES
  22:Drivers/VL53L0X/API/vl53l0x_api.c ****  (INCLUDING, BUT NOT LIMITED TO, PROCUREMENT OF SUBSTITUTE GOODS OR SERVICES;
  23:Drivers/VL53L0X/API/vl53l0x_api.c ****  LOSS OF USE, DATA, OR PROFITS; OR BUSINESS INTERRUPTION) HOWEVER CAUSED AND
  24:Drivers/VL53L0X/API/vl53l0x_api.c ****  ON ANY THEORY OF LIABILITY, WHETHER IN CONTRACT, STRICT LIABILITY, OR TORT
  25:Drivers/VL53L0X/API/vl53l0x_api.c ****  (INCLUDING NEGLIGENCE OR OTHERWISE) ARISING IN ANY WAY OUT OF THE USE OF THIS
  26:Drivers/VL53L0X/API/vl53l0x_api.c ****  SOFTWARE, EVEN IF ADVISED OF THE POSSIBILITY OF SUCH DAMAGE.
  27:Drivers/VL53L0X/API/vl53l0x_api.c ****  ******************************************************************************/
  28:Drivers/VL53L0X/API/vl53l0x_api.c **** 
  29:Drivers/VL53L0X/API/vl53l0x_api.c **** #include "vl53l0x_api.h"
  30:Drivers/VL53L0X/API/vl53l0x_api.c **** #include "vl53l0x_tuning.h"
  31:Drivers/VL53L0X/API/vl53l0x_api.c **** #include "vl53l0x_interrupt_threshold_settings.h"
ARM GAS  /tmp/ccq7BpOX.s 			page 2


  32:Drivers/VL53L0X/API/vl53l0x_api.c **** #include "vl53l0x_api_core.h"
  33:Drivers/VL53L0X/API/vl53l0x_api.c **** #include "vl53l0x_api_calibration.h"
  34:Drivers/VL53L0X/API/vl53l0x_api.c **** #include "vl53l0x_api_strings.h"
  35:Drivers/VL53L0X/API/vl53l0x_api.c **** 
  36:Drivers/VL53L0X/API/vl53l0x_api.c **** #ifndef __KERNEL__
  37:Drivers/VL53L0X/API/vl53l0x_api.c **** #include <stdlib.h>
  38:Drivers/VL53L0X/API/vl53l0x_api.c **** #endif
  39:Drivers/VL53L0X/API/vl53l0x_api.c **** #define LOG_FUNCTION_START(fmt, ...) \
  40:Drivers/VL53L0X/API/vl53l0x_api.c **** 	_LOG_FUNCTION_START(TRACE_MODULE_API, fmt, ##__VA_ARGS__)
  41:Drivers/VL53L0X/API/vl53l0x_api.c **** #define LOG_FUNCTION_END(status, ...) \
  42:Drivers/VL53L0X/API/vl53l0x_api.c **** 	_LOG_FUNCTION_END(TRACE_MODULE_API, status, ##__VA_ARGS__)
  43:Drivers/VL53L0X/API/vl53l0x_api.c **** #define LOG_FUNCTION_END_FMT(status, fmt, ...) \
  44:Drivers/VL53L0X/API/vl53l0x_api.c **** 	_LOG_FUNCTION_END_FMT(TRACE_MODULE_API, status, fmt, ##__VA_ARGS__)
  45:Drivers/VL53L0X/API/vl53l0x_api.c **** 
  46:Drivers/VL53L0X/API/vl53l0x_api.c **** #ifdef VL53L0X_LOG_ENABLE
  47:Drivers/VL53L0X/API/vl53l0x_api.c **** #define trace_print(level, ...) trace_print_module_function(TRACE_MODULE_API, \
  48:Drivers/VL53L0X/API/vl53l0x_api.c **** 	level, TRACE_FUNCTION_NONE, ##__VA_ARGS__)
  49:Drivers/VL53L0X/API/vl53l0x_api.c **** #endif
  50:Drivers/VL53L0X/API/vl53l0x_api.c **** 
  51:Drivers/VL53L0X/API/vl53l0x_api.c **** /* Group PAL General Functions */
  52:Drivers/VL53L0X/API/vl53l0x_api.c **** 
  53:Drivers/VL53L0X/API/vl53l0x_api.c **** VL53L0X_Error VL53L0X_GetVersion(VL53L0X_Version_t *pVersion)
  54:Drivers/VL53L0X/API/vl53l0x_api.c **** {
  28              		.loc 1 54 0
  29              		.cfi_startproc
  30              		@ args = 0, pretend = 0, frame = 0
  31              		@ frame_needed = 0, uses_anonymous_args = 0
  32              		@ link register save eliminated.
  33              	.LVL0:
  34 0000 0346     		mov	r3, r0
  35              	.LVL1:
  55:Drivers/VL53L0X/API/vl53l0x_api.c **** 	VL53L0X_Error Status = VL53L0X_ERROR_NONE;
  56:Drivers/VL53L0X/API/vl53l0x_api.c **** 	LOG_FUNCTION_START("");
  57:Drivers/VL53L0X/API/vl53l0x_api.c **** 
  58:Drivers/VL53L0X/API/vl53l0x_api.c **** 	pVersion->major = VL53L0X_IMPLEMENTATION_VER_MAJOR;
  36              		.loc 1 58 0
  37 0002 0122     		movs	r2, #1
  38 0004 0271     		strb	r2, [r0, #4]
  59:Drivers/VL53L0X/API/vl53l0x_api.c **** 	pVersion->minor = VL53L0X_IMPLEMENTATION_VER_MINOR;
  39              		.loc 1 59 0
  40 0006 0020     		movs	r0, #0
  41              	.LVL2:
  42 0008 5871     		strb	r0, [r3, #5]
  60:Drivers/VL53L0X/API/vl53l0x_api.c **** 	pVersion->build = VL53L0X_IMPLEMENTATION_VER_SUB;
  43              		.loc 1 60 0
  44 000a 0222     		movs	r2, #2
  45 000c 9A71     		strb	r2, [r3, #6]
  61:Drivers/VL53L0X/API/vl53l0x_api.c **** 
  62:Drivers/VL53L0X/API/vl53l0x_api.c **** 	pVersion->revision = VL53L0X_IMPLEMENTATION_VER_REVISION;
  46              		.loc 1 62 0
  47 000e 41F2D722 		movw	r2, #4823
  48 0012 1A60     		str	r2, [r3]
  63:Drivers/VL53L0X/API/vl53l0x_api.c **** 
  64:Drivers/VL53L0X/API/vl53l0x_api.c **** 	LOG_FUNCTION_END(Status);
  65:Drivers/VL53L0X/API/vl53l0x_api.c **** 	return Status;
  66:Drivers/VL53L0X/API/vl53l0x_api.c **** }
  49              		.loc 1 66 0
ARM GAS  /tmp/ccq7BpOX.s 			page 3


  50 0014 7047     		bx	lr
  51              		.cfi_endproc
  52              	.LFE126:
  54              		.section	.text.VL53L0X_GetPalSpecVersion,"ax",%progbits
  55              		.align	1
  56              		.global	VL53L0X_GetPalSpecVersion
  57              		.syntax unified
  58              		.thumb
  59              		.thumb_func
  60              		.fpu fpv4-sp-d16
  62              	VL53L0X_GetPalSpecVersion:
  63              	.LFB127:
  67:Drivers/VL53L0X/API/vl53l0x_api.c **** 
  68:Drivers/VL53L0X/API/vl53l0x_api.c **** VL53L0X_Error VL53L0X_GetPalSpecVersion(VL53L0X_Version_t *pPalSpecVersion)
  69:Drivers/VL53L0X/API/vl53l0x_api.c **** {
  64              		.loc 1 69 0
  65              		.cfi_startproc
  66              		@ args = 0, pretend = 0, frame = 0
  67              		@ frame_needed = 0, uses_anonymous_args = 0
  68              		@ link register save eliminated.
  69              	.LVL3:
  70:Drivers/VL53L0X/API/vl53l0x_api.c **** 	VL53L0X_Error Status = VL53L0X_ERROR_NONE;
  71:Drivers/VL53L0X/API/vl53l0x_api.c **** 
  72:Drivers/VL53L0X/API/vl53l0x_api.c **** 	LOG_FUNCTION_START("");
  73:Drivers/VL53L0X/API/vl53l0x_api.c **** 
  74:Drivers/VL53L0X/API/vl53l0x_api.c **** 	pPalSpecVersion->major = VL53L0X_SPECIFICATION_VER_MAJOR;
  70              		.loc 1 74 0
  71 0000 0123     		movs	r3, #1
  72 0002 0371     		strb	r3, [r0, #4]
  75:Drivers/VL53L0X/API/vl53l0x_api.c **** 	pPalSpecVersion->minor = VL53L0X_SPECIFICATION_VER_MINOR;
  73              		.loc 1 75 0
  74 0004 0223     		movs	r3, #2
  75 0006 4371     		strb	r3, [r0, #5]
  76:Drivers/VL53L0X/API/vl53l0x_api.c **** 	pPalSpecVersion->build = VL53L0X_SPECIFICATION_VER_SUB;
  76              		.loc 1 76 0
  77 0008 0723     		movs	r3, #7
  78 000a 8371     		strb	r3, [r0, #6]
  77:Drivers/VL53L0X/API/vl53l0x_api.c **** 
  78:Drivers/VL53L0X/API/vl53l0x_api.c **** 	pPalSpecVersion->revision = VL53L0X_SPECIFICATION_VER_REVISION;
  79              		.loc 1 78 0
  80 000c 4FF4B463 		mov	r3, #1440
  81 0010 0360     		str	r3, [r0]
  79:Drivers/VL53L0X/API/vl53l0x_api.c **** 
  80:Drivers/VL53L0X/API/vl53l0x_api.c **** 	LOG_FUNCTION_END(Status);
  81:Drivers/VL53L0X/API/vl53l0x_api.c **** 	return Status;
  82:Drivers/VL53L0X/API/vl53l0x_api.c **** }
  82              		.loc 1 82 0
  83 0012 0020     		movs	r0, #0
  84              	.LVL4:
  85 0014 7047     		bx	lr
  86              		.cfi_endproc
  87              	.LFE127:
  89              		.section	.text.VL53L0X_GetProductRevision,"ax",%progbits
  90              		.align	1
  91              		.global	VL53L0X_GetProductRevision
  92              		.syntax unified
  93              		.thumb
ARM GAS  /tmp/ccq7BpOX.s 			page 4


  94              		.thumb_func
  95              		.fpu fpv4-sp-d16
  97              	VL53L0X_GetProductRevision:
  98              	.LFB128:
  83:Drivers/VL53L0X/API/vl53l0x_api.c **** 
  84:Drivers/VL53L0X/API/vl53l0x_api.c **** VL53L0X_Error VL53L0X_GetProductRevision(VL53L0X_DEV Dev,
  85:Drivers/VL53L0X/API/vl53l0x_api.c **** 	uint8_t *pProductRevisionMajor, uint8_t *pProductRevisionMinor)
  86:Drivers/VL53L0X/API/vl53l0x_api.c **** {
  99              		.loc 1 86 0
 100              		.cfi_startproc
 101              		@ args = 0, pretend = 0, frame = 8
 102              		@ frame_needed = 0, uses_anonymous_args = 0
 103              	.LVL5:
 104 0000 30B5     		push	{r4, r5, lr}
 105              	.LCFI0:
 106              		.cfi_def_cfa_offset 12
 107              		.cfi_offset 4, -12
 108              		.cfi_offset 5, -8
 109              		.cfi_offset 14, -4
 110 0002 83B0     		sub	sp, sp, #12
 111              	.LCFI1:
 112              		.cfi_def_cfa_offset 24
 113 0004 0D46     		mov	r5, r1
 114 0006 1446     		mov	r4, r2
 115              	.LVL6:
  87:Drivers/VL53L0X/API/vl53l0x_api.c **** 	VL53L0X_Error Status = VL53L0X_ERROR_NONE;
  88:Drivers/VL53L0X/API/vl53l0x_api.c **** 	uint8_t revision_id;
  89:Drivers/VL53L0X/API/vl53l0x_api.c **** 
  90:Drivers/VL53L0X/API/vl53l0x_api.c **** 	LOG_FUNCTION_START("");
  91:Drivers/VL53L0X/API/vl53l0x_api.c **** 
  92:Drivers/VL53L0X/API/vl53l0x_api.c **** 	Status = VL53L0X_RdByte(Dev, VL53L0X_REG_IDENTIFICATION_REVISION_ID,
 116              		.loc 1 92 0
 117 0008 0DF10702 		add	r2, sp, #7
 118              	.LVL7:
 119 000c C221     		movs	r1, #194
 120              	.LVL8:
 121 000e FFF7FEFF 		bl	VL53L0X_RdByte
 122              	.LVL9:
  93:Drivers/VL53L0X/API/vl53l0x_api.c **** 		&revision_id);
  94:Drivers/VL53L0X/API/vl53l0x_api.c **** 	*pProductRevisionMajor = 1;
 123              		.loc 1 94 0
 124 0012 0123     		movs	r3, #1
 125 0014 2B70     		strb	r3, [r5]
  95:Drivers/VL53L0X/API/vl53l0x_api.c **** 	*pProductRevisionMinor = (revision_id & 0xF0) >> 4;
 126              		.loc 1 95 0
 127 0016 9DF80730 		ldrb	r3, [sp, #7]	@ zero_extendqisi2
 128 001a 1B09     		lsrs	r3, r3, #4
 129 001c 2370     		strb	r3, [r4]
  96:Drivers/VL53L0X/API/vl53l0x_api.c **** 
  97:Drivers/VL53L0X/API/vl53l0x_api.c **** 	LOG_FUNCTION_END(Status);
  98:Drivers/VL53L0X/API/vl53l0x_api.c **** 	return Status;
  99:Drivers/VL53L0X/API/vl53l0x_api.c **** 
 100:Drivers/VL53L0X/API/vl53l0x_api.c **** }
 130              		.loc 1 100 0
 131 001e 03B0     		add	sp, sp, #12
 132              	.LCFI2:
 133              		.cfi_def_cfa_offset 12
ARM GAS  /tmp/ccq7BpOX.s 			page 5


 134              		@ sp needed
 135 0020 30BD     		pop	{r4, r5, pc}
 136              		.cfi_endproc
 137              	.LFE128:
 139              		.section	.text.VL53L0X_GetDeviceInfo,"ax",%progbits
 140              		.align	1
 141              		.global	VL53L0X_GetDeviceInfo
 142              		.syntax unified
 143              		.thumb
 144              		.thumb_func
 145              		.fpu fpv4-sp-d16
 147              	VL53L0X_GetDeviceInfo:
 148              	.LFB129:
 101:Drivers/VL53L0X/API/vl53l0x_api.c **** 
 102:Drivers/VL53L0X/API/vl53l0x_api.c **** VL53L0X_Error VL53L0X_GetDeviceInfo(VL53L0X_DEV Dev,
 103:Drivers/VL53L0X/API/vl53l0x_api.c **** 	VL53L0X_DeviceInfo_t *pVL53L0X_DeviceInfo)
 104:Drivers/VL53L0X/API/vl53l0x_api.c **** {
 149              		.loc 1 104 0
 150              		.cfi_startproc
 151              		@ args = 0, pretend = 0, frame = 0
 152              		@ frame_needed = 0, uses_anonymous_args = 0
 153              	.LVL10:
 154 0000 08B5     		push	{r3, lr}
 155              	.LCFI3:
 156              		.cfi_def_cfa_offset 8
 157              		.cfi_offset 3, -8
 158              		.cfi_offset 14, -4
 159              	.LVL11:
 105:Drivers/VL53L0X/API/vl53l0x_api.c **** 	VL53L0X_Error Status = VL53L0X_ERROR_NONE;
 106:Drivers/VL53L0X/API/vl53l0x_api.c **** 	LOG_FUNCTION_START("");
 107:Drivers/VL53L0X/API/vl53l0x_api.c **** 
 108:Drivers/VL53L0X/API/vl53l0x_api.c **** 	Status = VL53L0X_get_device_info(Dev, pVL53L0X_DeviceInfo);
 160              		.loc 1 108 0
 161 0002 FFF7FEFF 		bl	VL53L0X_get_device_info
 162              	.LVL12:
 109:Drivers/VL53L0X/API/vl53l0x_api.c **** 
 110:Drivers/VL53L0X/API/vl53l0x_api.c **** 	LOG_FUNCTION_END(Status);
 111:Drivers/VL53L0X/API/vl53l0x_api.c **** 	return Status;
 112:Drivers/VL53L0X/API/vl53l0x_api.c **** }
 163              		.loc 1 112 0
 164 0006 08BD     		pop	{r3, pc}
 165              		.cfi_endproc
 166              	.LFE129:
 168              		.section	.text.VL53L0X_GetDeviceErrorStatus,"ax",%progbits
 169              		.align	1
 170              		.global	VL53L0X_GetDeviceErrorStatus
 171              		.syntax unified
 172              		.thumb
 173              		.thumb_func
 174              		.fpu fpv4-sp-d16
 176              	VL53L0X_GetDeviceErrorStatus:
 177              	.LFB130:
 113:Drivers/VL53L0X/API/vl53l0x_api.c **** 
 114:Drivers/VL53L0X/API/vl53l0x_api.c **** VL53L0X_Error VL53L0X_GetDeviceErrorStatus(VL53L0X_DEV Dev,
 115:Drivers/VL53L0X/API/vl53l0x_api.c **** 	VL53L0X_DeviceError *pDeviceErrorStatus)
 116:Drivers/VL53L0X/API/vl53l0x_api.c **** {
 178              		.loc 1 116 0
ARM GAS  /tmp/ccq7BpOX.s 			page 6


 179              		.cfi_startproc
 180              		@ args = 0, pretend = 0, frame = 8
 181              		@ frame_needed = 0, uses_anonymous_args = 0
 182              	.LVL13:
 183 0000 10B5     		push	{r4, lr}
 184              	.LCFI4:
 185              		.cfi_def_cfa_offset 8
 186              		.cfi_offset 4, -8
 187              		.cfi_offset 14, -4
 188 0002 82B0     		sub	sp, sp, #8
 189              	.LCFI5:
 190              		.cfi_def_cfa_offset 16
 191 0004 0C46     		mov	r4, r1
 192              	.LVL14:
 117:Drivers/VL53L0X/API/vl53l0x_api.c **** 	VL53L0X_Error Status = VL53L0X_ERROR_NONE;
 118:Drivers/VL53L0X/API/vl53l0x_api.c **** 	uint8_t RangeStatus;
 119:Drivers/VL53L0X/API/vl53l0x_api.c **** 
 120:Drivers/VL53L0X/API/vl53l0x_api.c **** 	LOG_FUNCTION_START("");
 121:Drivers/VL53L0X/API/vl53l0x_api.c **** 
 122:Drivers/VL53L0X/API/vl53l0x_api.c **** 	Status = VL53L0X_RdByte(Dev, VL53L0X_REG_RESULT_RANGE_STATUS,
 193              		.loc 1 122 0
 194 0006 0DF10702 		add	r2, sp, #7
 195 000a 1421     		movs	r1, #20
 196              	.LVL15:
 197 000c FFF7FEFF 		bl	VL53L0X_RdByte
 198              	.LVL16:
 123:Drivers/VL53L0X/API/vl53l0x_api.c **** 		&RangeStatus);
 124:Drivers/VL53L0X/API/vl53l0x_api.c **** 
 125:Drivers/VL53L0X/API/vl53l0x_api.c **** 	*pDeviceErrorStatus = (VL53L0X_DeviceError)((RangeStatus & 0x78) >> 3);
 199              		.loc 1 125 0
 200 0010 9DF80730 		ldrb	r3, [sp, #7]	@ zero_extendqisi2
 201 0014 C3F3C303 		ubfx	r3, r3, #3, #4
 202 0018 2370     		strb	r3, [r4]
 126:Drivers/VL53L0X/API/vl53l0x_api.c **** 
 127:Drivers/VL53L0X/API/vl53l0x_api.c **** 	LOG_FUNCTION_END(Status);
 128:Drivers/VL53L0X/API/vl53l0x_api.c **** 	return Status;
 129:Drivers/VL53L0X/API/vl53l0x_api.c **** }
 203              		.loc 1 129 0
 204 001a 02B0     		add	sp, sp, #8
 205              	.LCFI6:
 206              		.cfi_def_cfa_offset 8
 207              		@ sp needed
 208 001c 10BD     		pop	{r4, pc}
 209              		.cfi_endproc
 210              	.LFE130:
 212              		.section	.text.VL53L0X_GetDeviceErrorString,"ax",%progbits
 213              		.align	1
 214              		.global	VL53L0X_GetDeviceErrorString
 215              		.syntax unified
 216              		.thumb
 217              		.thumb_func
 218              		.fpu fpv4-sp-d16
 220              	VL53L0X_GetDeviceErrorString:
 221              	.LFB131:
 130:Drivers/VL53L0X/API/vl53l0x_api.c **** 
 131:Drivers/VL53L0X/API/vl53l0x_api.c **** 
 132:Drivers/VL53L0X/API/vl53l0x_api.c **** VL53L0X_Error VL53L0X_GetDeviceErrorString(VL53L0X_DeviceError ErrorCode,
ARM GAS  /tmp/ccq7BpOX.s 			page 7


 133:Drivers/VL53L0X/API/vl53l0x_api.c **** 	char *pDeviceErrorString)
 134:Drivers/VL53L0X/API/vl53l0x_api.c **** {
 222              		.loc 1 134 0
 223              		.cfi_startproc
 224              		@ args = 0, pretend = 0, frame = 0
 225              		@ frame_needed = 0, uses_anonymous_args = 0
 226              	.LVL17:
 227 0000 08B5     		push	{r3, lr}
 228              	.LCFI7:
 229              		.cfi_def_cfa_offset 8
 230              		.cfi_offset 3, -8
 231              		.cfi_offset 14, -4
 232              	.LVL18:
 135:Drivers/VL53L0X/API/vl53l0x_api.c **** 	VL53L0X_Error Status = VL53L0X_ERROR_NONE;
 136:Drivers/VL53L0X/API/vl53l0x_api.c **** 
 137:Drivers/VL53L0X/API/vl53l0x_api.c **** 	LOG_FUNCTION_START("");
 138:Drivers/VL53L0X/API/vl53l0x_api.c **** 
 139:Drivers/VL53L0X/API/vl53l0x_api.c **** 	Status = VL53L0X_get_device_error_string(ErrorCode, pDeviceErrorString);
 233              		.loc 1 139 0
 234 0002 FFF7FEFF 		bl	VL53L0X_get_device_error_string
 235              	.LVL19:
 140:Drivers/VL53L0X/API/vl53l0x_api.c **** 
 141:Drivers/VL53L0X/API/vl53l0x_api.c **** 	LOG_FUNCTION_END(Status);
 142:Drivers/VL53L0X/API/vl53l0x_api.c **** 	return Status;
 143:Drivers/VL53L0X/API/vl53l0x_api.c **** }
 236              		.loc 1 143 0
 237 0006 08BD     		pop	{r3, pc}
 238              		.cfi_endproc
 239              	.LFE131:
 241              		.section	.text.VL53L0X_GetRangeStatusString,"ax",%progbits
 242              		.align	1
 243              		.global	VL53L0X_GetRangeStatusString
 244              		.syntax unified
 245              		.thumb
 246              		.thumb_func
 247              		.fpu fpv4-sp-d16
 249              	VL53L0X_GetRangeStatusString:
 250              	.LFB132:
 144:Drivers/VL53L0X/API/vl53l0x_api.c **** 
 145:Drivers/VL53L0X/API/vl53l0x_api.c **** VL53L0X_Error VL53L0X_GetRangeStatusString(uint8_t RangeStatus,
 146:Drivers/VL53L0X/API/vl53l0x_api.c **** 	char *pRangeStatusString)
 147:Drivers/VL53L0X/API/vl53l0x_api.c **** {
 251              		.loc 1 147 0
 252              		.cfi_startproc
 253              		@ args = 0, pretend = 0, frame = 0
 254              		@ frame_needed = 0, uses_anonymous_args = 0
 255              	.LVL20:
 256 0000 08B5     		push	{r3, lr}
 257              	.LCFI8:
 258              		.cfi_def_cfa_offset 8
 259              		.cfi_offset 3, -8
 260              		.cfi_offset 14, -4
 261              	.LVL21:
 148:Drivers/VL53L0X/API/vl53l0x_api.c **** 	VL53L0X_Error Status = VL53L0X_ERROR_NONE;
 149:Drivers/VL53L0X/API/vl53l0x_api.c **** 	LOG_FUNCTION_START("");
 150:Drivers/VL53L0X/API/vl53l0x_api.c **** 
 151:Drivers/VL53L0X/API/vl53l0x_api.c **** 	Status = VL53L0X_get_range_status_string(RangeStatus,
ARM GAS  /tmp/ccq7BpOX.s 			page 8


 262              		.loc 1 151 0
 263 0002 FFF7FEFF 		bl	VL53L0X_get_range_status_string
 264              	.LVL22:
 152:Drivers/VL53L0X/API/vl53l0x_api.c **** 		pRangeStatusString);
 153:Drivers/VL53L0X/API/vl53l0x_api.c **** 
 154:Drivers/VL53L0X/API/vl53l0x_api.c **** 	LOG_FUNCTION_END(Status);
 155:Drivers/VL53L0X/API/vl53l0x_api.c **** 	return Status;
 156:Drivers/VL53L0X/API/vl53l0x_api.c **** }
 265              		.loc 1 156 0
 266 0006 08BD     		pop	{r3, pc}
 267              		.cfi_endproc
 268              	.LFE132:
 270              		.section	.text.VL53L0X_GetPalErrorString,"ax",%progbits
 271              		.align	1
 272              		.global	VL53L0X_GetPalErrorString
 273              		.syntax unified
 274              		.thumb
 275              		.thumb_func
 276              		.fpu fpv4-sp-d16
 278              	VL53L0X_GetPalErrorString:
 279              	.LFB133:
 157:Drivers/VL53L0X/API/vl53l0x_api.c **** 
 158:Drivers/VL53L0X/API/vl53l0x_api.c **** VL53L0X_Error VL53L0X_GetPalErrorString(VL53L0X_Error PalErrorCode,
 159:Drivers/VL53L0X/API/vl53l0x_api.c **** 	char *pPalErrorString)
 160:Drivers/VL53L0X/API/vl53l0x_api.c **** {
 280              		.loc 1 160 0
 281              		.cfi_startproc
 282              		@ args = 0, pretend = 0, frame = 0
 283              		@ frame_needed = 0, uses_anonymous_args = 0
 284              	.LVL23:
 285 0000 08B5     		push	{r3, lr}
 286              	.LCFI9:
 287              		.cfi_def_cfa_offset 8
 288              		.cfi_offset 3, -8
 289              		.cfi_offset 14, -4
 290              	.LVL24:
 161:Drivers/VL53L0X/API/vl53l0x_api.c **** 	VL53L0X_Error Status = VL53L0X_ERROR_NONE;
 162:Drivers/VL53L0X/API/vl53l0x_api.c **** 	LOG_FUNCTION_START("");
 163:Drivers/VL53L0X/API/vl53l0x_api.c **** 
 164:Drivers/VL53L0X/API/vl53l0x_api.c **** 	Status = VL53L0X_get_pal_error_string(PalErrorCode, pPalErrorString);
 291              		.loc 1 164 0
 292 0002 FFF7FEFF 		bl	VL53L0X_get_pal_error_string
 293              	.LVL25:
 165:Drivers/VL53L0X/API/vl53l0x_api.c **** 
 166:Drivers/VL53L0X/API/vl53l0x_api.c **** 	LOG_FUNCTION_END(Status);
 167:Drivers/VL53L0X/API/vl53l0x_api.c **** 	return Status;
 168:Drivers/VL53L0X/API/vl53l0x_api.c **** }
 294              		.loc 1 168 0
 295 0006 08BD     		pop	{r3, pc}
 296              		.cfi_endproc
 297              	.LFE133:
 299              		.section	.text.VL53L0X_GetPalStateString,"ax",%progbits
 300              		.align	1
 301              		.global	VL53L0X_GetPalStateString
 302              		.syntax unified
 303              		.thumb
 304              		.thumb_func
ARM GAS  /tmp/ccq7BpOX.s 			page 9


 305              		.fpu fpv4-sp-d16
 307              	VL53L0X_GetPalStateString:
 308              	.LFB134:
 169:Drivers/VL53L0X/API/vl53l0x_api.c **** 
 170:Drivers/VL53L0X/API/vl53l0x_api.c **** VL53L0X_Error VL53L0X_GetPalStateString(VL53L0X_State PalStateCode,
 171:Drivers/VL53L0X/API/vl53l0x_api.c **** 	char *pPalStateString)
 172:Drivers/VL53L0X/API/vl53l0x_api.c **** {
 309              		.loc 1 172 0
 310              		.cfi_startproc
 311              		@ args = 0, pretend = 0, frame = 0
 312              		@ frame_needed = 0, uses_anonymous_args = 0
 313              	.LVL26:
 314 0000 08B5     		push	{r3, lr}
 315              	.LCFI10:
 316              		.cfi_def_cfa_offset 8
 317              		.cfi_offset 3, -8
 318              		.cfi_offset 14, -4
 319              	.LVL27:
 173:Drivers/VL53L0X/API/vl53l0x_api.c **** 	VL53L0X_Error Status = VL53L0X_ERROR_NONE;
 174:Drivers/VL53L0X/API/vl53l0x_api.c **** 	LOG_FUNCTION_START("");
 175:Drivers/VL53L0X/API/vl53l0x_api.c **** 
 176:Drivers/VL53L0X/API/vl53l0x_api.c **** 	Status = VL53L0X_get_pal_state_string(PalStateCode, pPalStateString);
 320              		.loc 1 176 0
 321 0002 FFF7FEFF 		bl	VL53L0X_get_pal_state_string
 322              	.LVL28:
 177:Drivers/VL53L0X/API/vl53l0x_api.c **** 
 178:Drivers/VL53L0X/API/vl53l0x_api.c **** 	LOG_FUNCTION_END(Status);
 179:Drivers/VL53L0X/API/vl53l0x_api.c **** 	return Status;
 180:Drivers/VL53L0X/API/vl53l0x_api.c **** }
 323              		.loc 1 180 0
 324 0006 08BD     		pop	{r3, pc}
 325              		.cfi_endproc
 326              	.LFE134:
 328              		.section	.text.VL53L0X_GetPalState,"ax",%progbits
 329              		.align	1
 330              		.global	VL53L0X_GetPalState
 331              		.syntax unified
 332              		.thumb
 333              		.thumb_func
 334              		.fpu fpv4-sp-d16
 336              	VL53L0X_GetPalState:
 337              	.LFB135:
 181:Drivers/VL53L0X/API/vl53l0x_api.c **** 
 182:Drivers/VL53L0X/API/vl53l0x_api.c **** VL53L0X_Error VL53L0X_GetPalState(VL53L0X_DEV Dev, VL53L0X_State *pPalState)
 183:Drivers/VL53L0X/API/vl53l0x_api.c **** {
 338              		.loc 1 183 0
 339              		.cfi_startproc
 340              		@ args = 0, pretend = 0, frame = 0
 341              		@ frame_needed = 0, uses_anonymous_args = 0
 342              		@ link register save eliminated.
 343              	.LVL29:
 184:Drivers/VL53L0X/API/vl53l0x_api.c **** 	VL53L0X_Error Status = VL53L0X_ERROR_NONE;
 185:Drivers/VL53L0X/API/vl53l0x_api.c **** 	LOG_FUNCTION_START("");
 186:Drivers/VL53L0X/API/vl53l0x_api.c **** 
 187:Drivers/VL53L0X/API/vl53l0x_api.c **** 	*pPalState = PALDevDataGet(Dev, PalState);
 344              		.loc 1 187 0
 345 0000 90F83231 		ldrb	r3, [r0, #306]	@ zero_extendqisi2
ARM GAS  /tmp/ccq7BpOX.s 			page 10


 346 0004 0B70     		strb	r3, [r1]
 188:Drivers/VL53L0X/API/vl53l0x_api.c **** 
 189:Drivers/VL53L0X/API/vl53l0x_api.c **** 	LOG_FUNCTION_END(Status);
 190:Drivers/VL53L0X/API/vl53l0x_api.c **** 	return Status;
 191:Drivers/VL53L0X/API/vl53l0x_api.c **** }
 347              		.loc 1 191 0
 348 0006 0020     		movs	r0, #0
 349              	.LVL30:
 350 0008 7047     		bx	lr
 351              		.cfi_endproc
 352              	.LFE135:
 354              		.section	.text.VL53L0X_GetPowerMode,"ax",%progbits
 355              		.align	1
 356              		.global	VL53L0X_GetPowerMode
 357              		.syntax unified
 358              		.thumb
 359              		.thumb_func
 360              		.fpu fpv4-sp-d16
 362              	VL53L0X_GetPowerMode:
 363              	.LFB137:
 192:Drivers/VL53L0X/API/vl53l0x_api.c **** 
 193:Drivers/VL53L0X/API/vl53l0x_api.c **** VL53L0X_Error VL53L0X_SetPowerMode(VL53L0X_DEV Dev, VL53L0X_PowerModes PowerMode)
 194:Drivers/VL53L0X/API/vl53l0x_api.c **** {
 195:Drivers/VL53L0X/API/vl53l0x_api.c **** 	VL53L0X_Error Status = VL53L0X_ERROR_NONE;
 196:Drivers/VL53L0X/API/vl53l0x_api.c **** 	LOG_FUNCTION_START("");
 197:Drivers/VL53L0X/API/vl53l0x_api.c **** 
 198:Drivers/VL53L0X/API/vl53l0x_api.c **** 	/* Only level1 of Power mode exists */
 199:Drivers/VL53L0X/API/vl53l0x_api.c **** 	if ((PowerMode != VL53L0X_POWERMODE_STANDBY_LEVEL1)
 200:Drivers/VL53L0X/API/vl53l0x_api.c **** 		&& (PowerMode != VL53L0X_POWERMODE_IDLE_LEVEL1)) {
 201:Drivers/VL53L0X/API/vl53l0x_api.c **** 		Status = VL53L0X_ERROR_MODE_NOT_SUPPORTED;
 202:Drivers/VL53L0X/API/vl53l0x_api.c **** 	} else if (PowerMode == VL53L0X_POWERMODE_STANDBY_LEVEL1) {
 203:Drivers/VL53L0X/API/vl53l0x_api.c **** 		/* set the standby level1 of power mode */
 204:Drivers/VL53L0X/API/vl53l0x_api.c **** 		Status = VL53L0X_WrByte(Dev, 0x80, 0x00);
 205:Drivers/VL53L0X/API/vl53l0x_api.c **** 		if (Status == VL53L0X_ERROR_NONE) {
 206:Drivers/VL53L0X/API/vl53l0x_api.c **** 			/* Set PAL State to standby */
 207:Drivers/VL53L0X/API/vl53l0x_api.c **** 			PALDevDataSet(Dev, PalState, VL53L0X_STATE_STANDBY);
 208:Drivers/VL53L0X/API/vl53l0x_api.c **** 			PALDevDataSet(Dev, PowerMode,
 209:Drivers/VL53L0X/API/vl53l0x_api.c **** 				VL53L0X_POWERMODE_STANDBY_LEVEL1);
 210:Drivers/VL53L0X/API/vl53l0x_api.c **** 		}
 211:Drivers/VL53L0X/API/vl53l0x_api.c **** 
 212:Drivers/VL53L0X/API/vl53l0x_api.c **** 	} else {
 213:Drivers/VL53L0X/API/vl53l0x_api.c **** 		/* VL53L0X_POWERMODE_IDLE_LEVEL1 */
 214:Drivers/VL53L0X/API/vl53l0x_api.c **** 		Status = VL53L0X_WrByte(Dev, 0x80, 0x00);
 215:Drivers/VL53L0X/API/vl53l0x_api.c **** 		if (Status == VL53L0X_ERROR_NONE)
 216:Drivers/VL53L0X/API/vl53l0x_api.c **** 			Status = VL53L0X_StaticInit(Dev);
 217:Drivers/VL53L0X/API/vl53l0x_api.c **** 
 218:Drivers/VL53L0X/API/vl53l0x_api.c **** 		if (Status == VL53L0X_ERROR_NONE)
 219:Drivers/VL53L0X/API/vl53l0x_api.c **** 			PALDevDataSet(Dev, PowerMode,
 220:Drivers/VL53L0X/API/vl53l0x_api.c **** 				VL53L0X_POWERMODE_IDLE_LEVEL1);
 221:Drivers/VL53L0X/API/vl53l0x_api.c **** 
 222:Drivers/VL53L0X/API/vl53l0x_api.c **** 	}
 223:Drivers/VL53L0X/API/vl53l0x_api.c **** 
 224:Drivers/VL53L0X/API/vl53l0x_api.c **** 	LOG_FUNCTION_END(Status);
 225:Drivers/VL53L0X/API/vl53l0x_api.c **** 	return Status;
 226:Drivers/VL53L0X/API/vl53l0x_api.c **** }
 227:Drivers/VL53L0X/API/vl53l0x_api.c **** 
 228:Drivers/VL53L0X/API/vl53l0x_api.c **** VL53L0X_Error VL53L0X_GetPowerMode(VL53L0X_DEV Dev, VL53L0X_PowerModes *pPowerMode)
ARM GAS  /tmp/ccq7BpOX.s 			page 11


 229:Drivers/VL53L0X/API/vl53l0x_api.c **** {
 364              		.loc 1 229 0
 365              		.cfi_startproc
 366              		@ args = 0, pretend = 0, frame = 8
 367              		@ frame_needed = 0, uses_anonymous_args = 0
 368              	.LVL31:
 369 0000 10B5     		push	{r4, lr}
 370              	.LCFI11:
 371              		.cfi_def_cfa_offset 8
 372              		.cfi_offset 4, -8
 373              		.cfi_offset 14, -4
 374 0002 82B0     		sub	sp, sp, #8
 375              	.LCFI12:
 376              		.cfi_def_cfa_offset 16
 377 0004 0446     		mov	r4, r0
 378              	.LVL32:
 230:Drivers/VL53L0X/API/vl53l0x_api.c **** 	VL53L0X_Error Status = VL53L0X_ERROR_NONE;
 231:Drivers/VL53L0X/API/vl53l0x_api.c **** 	uint8_t Byte;
 232:Drivers/VL53L0X/API/vl53l0x_api.c **** 	LOG_FUNCTION_START("");
 233:Drivers/VL53L0X/API/vl53l0x_api.c **** 
 234:Drivers/VL53L0X/API/vl53l0x_api.c **** 	/* Only level1 of Power mode exists */
 235:Drivers/VL53L0X/API/vl53l0x_api.c **** 	Status = VL53L0X_RdByte(Dev, 0x80, &Byte);
 379              		.loc 1 235 0
 380 0006 0DF10702 		add	r2, sp, #7
 381 000a 8021     		movs	r1, #128
 382              	.LVL33:
 383 000c FFF7FEFF 		bl	VL53L0X_RdByte
 384              	.LVL34:
 236:Drivers/VL53L0X/API/vl53l0x_api.c **** 
 237:Drivers/VL53L0X/API/vl53l0x_api.c **** 	if (Status == VL53L0X_ERROR_NONE) {
 385              		.loc 1 237 0
 386 0010 0346     		mov	r3, r0
 387 0012 30B9     		cbnz	r0, .L19
 238:Drivers/VL53L0X/API/vl53l0x_api.c **** 		if (Byte == 1) {
 388              		.loc 1 238 0
 389 0014 9DF80720 		ldrb	r2, [sp, #7]	@ zero_extendqisi2
 390 0018 012A     		cmp	r2, #1
 391 001a 05D0     		beq	.L22
 239:Drivers/VL53L0X/API/vl53l0x_api.c **** 			PALDevDataSet(Dev, PowerMode,
 240:Drivers/VL53L0X/API/vl53l0x_api.c **** 				VL53L0X_POWERMODE_IDLE_LEVEL1);
 241:Drivers/VL53L0X/API/vl53l0x_api.c **** 		} else {
 242:Drivers/VL53L0X/API/vl53l0x_api.c **** 			PALDevDataSet(Dev, PowerMode,
 392              		.loc 1 242 0
 393 001c 0022     		movs	r2, #0
 394 001e 84F83321 		strb	r2, [r4, #307]
 395              	.L19:
 243:Drivers/VL53L0X/API/vl53l0x_api.c **** 				VL53L0X_POWERMODE_STANDBY_LEVEL1);
 244:Drivers/VL53L0X/API/vl53l0x_api.c **** 		}
 245:Drivers/VL53L0X/API/vl53l0x_api.c **** 	}
 246:Drivers/VL53L0X/API/vl53l0x_api.c **** 
 247:Drivers/VL53L0X/API/vl53l0x_api.c **** 	LOG_FUNCTION_END(Status);
 248:Drivers/VL53L0X/API/vl53l0x_api.c **** 	return Status;
 249:Drivers/VL53L0X/API/vl53l0x_api.c **** }
 396              		.loc 1 249 0
 397 0022 1846     		mov	r0, r3
 398              	.LVL35:
 399 0024 02B0     		add	sp, sp, #8
ARM GAS  /tmp/ccq7BpOX.s 			page 12


 400              	.LCFI13:
 401              		.cfi_remember_state
 402              		.cfi_def_cfa_offset 8
 403              		@ sp needed
 404 0026 10BD     		pop	{r4, pc}
 405              	.LVL36:
 406              	.L22:
 407              	.LCFI14:
 408              		.cfi_restore_state
 239:Drivers/VL53L0X/API/vl53l0x_api.c **** 			PALDevDataSet(Dev, PowerMode,
 409              		.loc 1 239 0
 410 0028 0222     		movs	r2, #2
 411 002a 84F83321 		strb	r2, [r4, #307]
 412 002e F8E7     		b	.L19
 413              		.cfi_endproc
 414              	.LFE137:
 416              		.section	.text.VL53L0X_SetOffsetCalibrationDataMicroMeter,"ax",%progbits
 417              		.align	1
 418              		.global	VL53L0X_SetOffsetCalibrationDataMicroMeter
 419              		.syntax unified
 420              		.thumb
 421              		.thumb_func
 422              		.fpu fpv4-sp-d16
 424              	VL53L0X_SetOffsetCalibrationDataMicroMeter:
 425              	.LFB138:
 250:Drivers/VL53L0X/API/vl53l0x_api.c **** 
 251:Drivers/VL53L0X/API/vl53l0x_api.c **** VL53L0X_Error VL53L0X_SetOffsetCalibrationDataMicroMeter(VL53L0X_DEV Dev,
 252:Drivers/VL53L0X/API/vl53l0x_api.c **** 	int32_t OffsetCalibrationDataMicroMeter)
 253:Drivers/VL53L0X/API/vl53l0x_api.c **** {
 426              		.loc 1 253 0
 427              		.cfi_startproc
 428              		@ args = 0, pretend = 0, frame = 0
 429              		@ frame_needed = 0, uses_anonymous_args = 0
 430              	.LVL37:
 431 0000 08B5     		push	{r3, lr}
 432              	.LCFI15:
 433              		.cfi_def_cfa_offset 8
 434              		.cfi_offset 3, -8
 435              		.cfi_offset 14, -4
 436              	.LVL38:
 254:Drivers/VL53L0X/API/vl53l0x_api.c **** 	VL53L0X_Error Status = VL53L0X_ERROR_NONE;
 255:Drivers/VL53L0X/API/vl53l0x_api.c **** 	LOG_FUNCTION_START("");
 256:Drivers/VL53L0X/API/vl53l0x_api.c **** 
 257:Drivers/VL53L0X/API/vl53l0x_api.c **** 	Status = VL53L0X_set_offset_calibration_data_micro_meter(Dev,
 437              		.loc 1 257 0
 438 0002 FFF7FEFF 		bl	VL53L0X_set_offset_calibration_data_micro_meter
 439              	.LVL39:
 258:Drivers/VL53L0X/API/vl53l0x_api.c **** 		OffsetCalibrationDataMicroMeter);
 259:Drivers/VL53L0X/API/vl53l0x_api.c **** 
 260:Drivers/VL53L0X/API/vl53l0x_api.c **** 	LOG_FUNCTION_END(Status);
 261:Drivers/VL53L0X/API/vl53l0x_api.c **** 	return Status;
 262:Drivers/VL53L0X/API/vl53l0x_api.c **** }
 440              		.loc 1 262 0
 441 0006 08BD     		pop	{r3, pc}
 442              		.cfi_endproc
 443              	.LFE138:
 445              		.section	.text.VL53L0X_GetOffsetCalibrationDataMicroMeter,"ax",%progbits
ARM GAS  /tmp/ccq7BpOX.s 			page 13


 446              		.align	1
 447              		.global	VL53L0X_GetOffsetCalibrationDataMicroMeter
 448              		.syntax unified
 449              		.thumb
 450              		.thumb_func
 451              		.fpu fpv4-sp-d16
 453              	VL53L0X_GetOffsetCalibrationDataMicroMeter:
 454              	.LFB139:
 263:Drivers/VL53L0X/API/vl53l0x_api.c **** 
 264:Drivers/VL53L0X/API/vl53l0x_api.c **** VL53L0X_Error VL53L0X_GetOffsetCalibrationDataMicroMeter(VL53L0X_DEV Dev,
 265:Drivers/VL53L0X/API/vl53l0x_api.c **** 	int32_t *pOffsetCalibrationDataMicroMeter)
 266:Drivers/VL53L0X/API/vl53l0x_api.c **** {
 455              		.loc 1 266 0
 456              		.cfi_startproc
 457              		@ args = 0, pretend = 0, frame = 0
 458              		@ frame_needed = 0, uses_anonymous_args = 0
 459              	.LVL40:
 460 0000 08B5     		push	{r3, lr}
 461              	.LCFI16:
 462              		.cfi_def_cfa_offset 8
 463              		.cfi_offset 3, -8
 464              		.cfi_offset 14, -4
 465              	.LVL41:
 267:Drivers/VL53L0X/API/vl53l0x_api.c **** 	VL53L0X_Error Status = VL53L0X_ERROR_NONE;
 268:Drivers/VL53L0X/API/vl53l0x_api.c **** 	LOG_FUNCTION_START("");
 269:Drivers/VL53L0X/API/vl53l0x_api.c **** 
 270:Drivers/VL53L0X/API/vl53l0x_api.c **** 	Status = VL53L0X_get_offset_calibration_data_micro_meter(Dev,
 466              		.loc 1 270 0
 467 0002 FFF7FEFF 		bl	VL53L0X_get_offset_calibration_data_micro_meter
 468              	.LVL42:
 271:Drivers/VL53L0X/API/vl53l0x_api.c **** 		pOffsetCalibrationDataMicroMeter);
 272:Drivers/VL53L0X/API/vl53l0x_api.c **** 
 273:Drivers/VL53L0X/API/vl53l0x_api.c **** 	LOG_FUNCTION_END(Status);
 274:Drivers/VL53L0X/API/vl53l0x_api.c **** 	return Status;
 275:Drivers/VL53L0X/API/vl53l0x_api.c **** }
 469              		.loc 1 275 0
 470 0006 08BD     		pop	{r3, pc}
 471              		.cfi_endproc
 472              	.LFE139:
 474              		.section	.text.VL53L0X_SetLinearityCorrectiveGain,"ax",%progbits
 475              		.align	1
 476              		.global	VL53L0X_SetLinearityCorrectiveGain
 477              		.syntax unified
 478              		.thumb
 479              		.thumb_func
 480              		.fpu fpv4-sp-d16
 482              	VL53L0X_SetLinearityCorrectiveGain:
 483              	.LFB140:
 276:Drivers/VL53L0X/API/vl53l0x_api.c **** 
 277:Drivers/VL53L0X/API/vl53l0x_api.c **** VL53L0X_Error VL53L0X_SetLinearityCorrectiveGain(VL53L0X_DEV Dev,
 278:Drivers/VL53L0X/API/vl53l0x_api.c **** 	int16_t LinearityCorrectiveGain)
 279:Drivers/VL53L0X/API/vl53l0x_api.c **** {
 484              		.loc 1 279 0
 485              		.cfi_startproc
 486              		@ args = 0, pretend = 0, frame = 0
 487              		@ frame_needed = 0, uses_anonymous_args = 0
 488              	.LVL43:
ARM GAS  /tmp/ccq7BpOX.s 			page 14


 489 0000 08B5     		push	{r3, lr}
 490              	.LCFI17:
 491              		.cfi_def_cfa_offset 8
 492              		.cfi_offset 3, -8
 493              		.cfi_offset 14, -4
 494              	.LVL44:
 280:Drivers/VL53L0X/API/vl53l0x_api.c **** 	VL53L0X_Error Status = VL53L0X_ERROR_NONE;
 281:Drivers/VL53L0X/API/vl53l0x_api.c **** 	LOG_FUNCTION_START("");
 282:Drivers/VL53L0X/API/vl53l0x_api.c **** 
 283:Drivers/VL53L0X/API/vl53l0x_api.c **** 	if ((LinearityCorrectiveGain < 0) || (LinearityCorrectiveGain > 1000))
 495              		.loc 1 283 0
 496 0002 8BB2     		uxth	r3, r1
 497 0004 B3F57A7F 		cmp	r3, #1000
 498 0008 09D8     		bhi	.L29
 284:Drivers/VL53L0X/API/vl53l0x_api.c **** 		Status = VL53L0X_ERROR_INVALID_PARAMS;
 285:Drivers/VL53L0X/API/vl53l0x_api.c **** 	else {
 286:Drivers/VL53L0X/API/vl53l0x_api.c **** 		PALDevDataSet(Dev, LinearityCorrectiveGain,
 499              		.loc 1 286 0
 500 000a A0F85231 		strh	r3, [r0, #338]	@ movhi
 287:Drivers/VL53L0X/API/vl53l0x_api.c **** 			LinearityCorrectiveGain);
 288:Drivers/VL53L0X/API/vl53l0x_api.c **** 
 289:Drivers/VL53L0X/API/vl53l0x_api.c **** 		if (LinearityCorrectiveGain != 1000) {
 501              		.loc 1 289 0
 502 000e B1F57A7F 		cmp	r1, #1000
 503 0012 07D0     		beq	.L30
 290:Drivers/VL53L0X/API/vl53l0x_api.c **** 			/* Disable FW Xtalk */
 291:Drivers/VL53L0X/API/vl53l0x_api.c **** 			Status = VL53L0X_WrWord(Dev,
 504              		.loc 1 291 0
 505 0014 0022     		movs	r2, #0
 506 0016 2021     		movs	r1, #32
 507              	.LVL45:
 508 0018 FFF7FEFF 		bl	VL53L0X_WrWord
 509              	.LVL46:
 510              	.L28:
 292:Drivers/VL53L0X/API/vl53l0x_api.c **** 			VL53L0X_REG_CROSSTALK_COMPENSATION_PEAK_RATE_MCPS, 0);
 293:Drivers/VL53L0X/API/vl53l0x_api.c **** 		}
 294:Drivers/VL53L0X/API/vl53l0x_api.c **** 	}
 295:Drivers/VL53L0X/API/vl53l0x_api.c **** 
 296:Drivers/VL53L0X/API/vl53l0x_api.c **** 	LOG_FUNCTION_END(Status);
 297:Drivers/VL53L0X/API/vl53l0x_api.c **** 	return Status;
 298:Drivers/VL53L0X/API/vl53l0x_api.c **** }
 511              		.loc 1 298 0
 512 001c 08BD     		pop	{r3, pc}
 513              	.LVL47:
 514              	.L29:
 284:Drivers/VL53L0X/API/vl53l0x_api.c **** 	else {
 515              		.loc 1 284 0
 516 001e 6FF00300 		mvn	r0, #3
 517              	.LVL48:
 518 0022 FBE7     		b	.L28
 519              	.LVL49:
 520              	.L30:
 280:Drivers/VL53L0X/API/vl53l0x_api.c **** 	LOG_FUNCTION_START("");
 521              		.loc 1 280 0
 522 0024 0020     		movs	r0, #0
 523              	.LVL50:
 524 0026 F9E7     		b	.L28
ARM GAS  /tmp/ccq7BpOX.s 			page 15


 525              		.cfi_endproc
 526              	.LFE140:
 528              		.section	.text.VL53L0X_GetLinearityCorrectiveGain,"ax",%progbits
 529              		.align	1
 530              		.global	VL53L0X_GetLinearityCorrectiveGain
 531              		.syntax unified
 532              		.thumb
 533              		.thumb_func
 534              		.fpu fpv4-sp-d16
 536              	VL53L0X_GetLinearityCorrectiveGain:
 537              	.LFB141:
 299:Drivers/VL53L0X/API/vl53l0x_api.c **** 
 300:Drivers/VL53L0X/API/vl53l0x_api.c **** VL53L0X_Error VL53L0X_GetLinearityCorrectiveGain(VL53L0X_DEV Dev,
 301:Drivers/VL53L0X/API/vl53l0x_api.c **** 	uint16_t *pLinearityCorrectiveGain)
 302:Drivers/VL53L0X/API/vl53l0x_api.c **** {
 538              		.loc 1 302 0
 539              		.cfi_startproc
 540              		@ args = 0, pretend = 0, frame = 0
 541              		@ frame_needed = 0, uses_anonymous_args = 0
 542              		@ link register save eliminated.
 543              	.LVL51:
 303:Drivers/VL53L0X/API/vl53l0x_api.c **** 	VL53L0X_Error Status = VL53L0X_ERROR_NONE;
 304:Drivers/VL53L0X/API/vl53l0x_api.c **** 	LOG_FUNCTION_START("");
 305:Drivers/VL53L0X/API/vl53l0x_api.c **** 
 306:Drivers/VL53L0X/API/vl53l0x_api.c **** 	*pLinearityCorrectiveGain = PALDevDataGet(Dev, LinearityCorrectiveGain);
 544              		.loc 1 306 0
 545 0000 B0F85231 		ldrh	r3, [r0, #338]
 546 0004 0B80     		strh	r3, [r1]	@ movhi
 307:Drivers/VL53L0X/API/vl53l0x_api.c **** 
 308:Drivers/VL53L0X/API/vl53l0x_api.c **** 	LOG_FUNCTION_END(Status);
 309:Drivers/VL53L0X/API/vl53l0x_api.c **** 	return Status;
 310:Drivers/VL53L0X/API/vl53l0x_api.c **** }
 547              		.loc 1 310 0
 548 0006 0020     		movs	r0, #0
 549              	.LVL52:
 550 0008 7047     		bx	lr
 551              		.cfi_endproc
 552              	.LFE141:
 554              		.section	.text.VL53L0X_SetGroupParamHold,"ax",%progbits
 555              		.align	1
 556              		.global	VL53L0X_SetGroupParamHold
 557              		.syntax unified
 558              		.thumb
 559              		.thumb_func
 560              		.fpu fpv4-sp-d16
 562              	VL53L0X_SetGroupParamHold:
 563              	.LFB142:
 311:Drivers/VL53L0X/API/vl53l0x_api.c **** 
 312:Drivers/VL53L0X/API/vl53l0x_api.c **** VL53L0X_Error VL53L0X_SetGroupParamHold(VL53L0X_DEV Dev, uint8_t GroupParamHold)
 313:Drivers/VL53L0X/API/vl53l0x_api.c **** {
 564              		.loc 1 313 0
 565              		.cfi_startproc
 566              		@ args = 0, pretend = 0, frame = 0
 567              		@ frame_needed = 0, uses_anonymous_args = 0
 568              		@ link register save eliminated.
 569              	.LVL53:
 314:Drivers/VL53L0X/API/vl53l0x_api.c **** 	VL53L0X_Error Status = VL53L0X_ERROR_NOT_IMPLEMENTED;
ARM GAS  /tmp/ccq7BpOX.s 			page 16


 315:Drivers/VL53L0X/API/vl53l0x_api.c **** 	LOG_FUNCTION_START("");
 316:Drivers/VL53L0X/API/vl53l0x_api.c **** 
 317:Drivers/VL53L0X/API/vl53l0x_api.c **** 	/* not implemented on VL53L0X */
 318:Drivers/VL53L0X/API/vl53l0x_api.c **** 
 319:Drivers/VL53L0X/API/vl53l0x_api.c **** 	LOG_FUNCTION_END(Status);
 320:Drivers/VL53L0X/API/vl53l0x_api.c **** 	return Status;
 321:Drivers/VL53L0X/API/vl53l0x_api.c **** }
 570              		.loc 1 321 0
 571 0000 6FF06200 		mvn	r0, #98
 572              	.LVL54:
 573 0004 7047     		bx	lr
 574              		.cfi_endproc
 575              	.LFE142:
 577              		.section	.text.VL53L0X_GetUpperLimitMilliMeter,"ax",%progbits
 578              		.align	1
 579              		.global	VL53L0X_GetUpperLimitMilliMeter
 580              		.syntax unified
 581              		.thumb
 582              		.thumb_func
 583              		.fpu fpv4-sp-d16
 585              	VL53L0X_GetUpperLimitMilliMeter:
 586              	.LFB143:
 322:Drivers/VL53L0X/API/vl53l0x_api.c **** 
 323:Drivers/VL53L0X/API/vl53l0x_api.c **** VL53L0X_Error VL53L0X_GetUpperLimitMilliMeter(VL53L0X_DEV Dev,
 324:Drivers/VL53L0X/API/vl53l0x_api.c **** 	uint16_t *pUpperLimitMilliMeter)
 325:Drivers/VL53L0X/API/vl53l0x_api.c **** {
 587              		.loc 1 325 0
 588              		.cfi_startproc
 589              		@ args = 0, pretend = 0, frame = 0
 590              		@ frame_needed = 0, uses_anonymous_args = 0
 591              		@ link register save eliminated.
 592              	.LVL55:
 326:Drivers/VL53L0X/API/vl53l0x_api.c **** 	VL53L0X_Error Status = VL53L0X_ERROR_NOT_IMPLEMENTED;
 327:Drivers/VL53L0X/API/vl53l0x_api.c **** 	LOG_FUNCTION_START("");
 328:Drivers/VL53L0X/API/vl53l0x_api.c **** 
 329:Drivers/VL53L0X/API/vl53l0x_api.c **** 	/* not implemented on VL53L0X */
 330:Drivers/VL53L0X/API/vl53l0x_api.c **** 
 331:Drivers/VL53L0X/API/vl53l0x_api.c **** 	LOG_FUNCTION_END(Status);
 332:Drivers/VL53L0X/API/vl53l0x_api.c **** 	return Status;
 333:Drivers/VL53L0X/API/vl53l0x_api.c **** }
 593              		.loc 1 333 0
 594 0000 6FF06200 		mvn	r0, #98
 595              	.LVL56:
 596 0004 7047     		bx	lr
 597              		.cfi_endproc
 598              	.LFE143:
 600              		.section	.text.VL53L0X_GetTotalSignalRate,"ax",%progbits
 601              		.align	1
 602              		.global	VL53L0X_GetTotalSignalRate
 603              		.syntax unified
 604              		.thumb
 605              		.thumb_func
 606              		.fpu fpv4-sp-d16
 608              	VL53L0X_GetTotalSignalRate:
 609              	.LFB144:
 334:Drivers/VL53L0X/API/vl53l0x_api.c **** 
 335:Drivers/VL53L0X/API/vl53l0x_api.c **** VL53L0X_Error VL53L0X_GetTotalSignalRate(VL53L0X_DEV Dev,
ARM GAS  /tmp/ccq7BpOX.s 			page 17


 336:Drivers/VL53L0X/API/vl53l0x_api.c **** 	FixPoint1616_t *pTotalSignalRate)
 337:Drivers/VL53L0X/API/vl53l0x_api.c **** {
 610              		.loc 1 337 0
 611              		.cfi_startproc
 612              		@ args = 0, pretend = 0, frame = 32
 613              		@ frame_needed = 0, uses_anonymous_args = 0
 614              	.LVL57:
 615 0000 F0B5     		push	{r4, r5, r6, r7, lr}
 616              	.LCFI18:
 617              		.cfi_def_cfa_offset 20
 618              		.cfi_offset 4, -20
 619              		.cfi_offset 5, -16
 620              		.cfi_offset 6, -12
 621              		.cfi_offset 7, -8
 622              		.cfi_offset 14, -4
 623 0002 89B0     		sub	sp, sp, #36
 624              	.LCFI19:
 625              		.cfi_def_cfa_offset 56
 626 0004 0646     		mov	r6, r0
 627 0006 0F46     		mov	r7, r1
 628              	.LVL58:
 338:Drivers/VL53L0X/API/vl53l0x_api.c **** 	VL53L0X_Error Status = VL53L0X_ERROR_NONE;
 339:Drivers/VL53L0X/API/vl53l0x_api.c **** 	VL53L0X_RangingMeasurementData_t LastRangeDataBuffer;
 340:Drivers/VL53L0X/API/vl53l0x_api.c **** 
 341:Drivers/VL53L0X/API/vl53l0x_api.c **** 	LOG_FUNCTION_START("");
 342:Drivers/VL53L0X/API/vl53l0x_api.c **** 
 343:Drivers/VL53L0X/API/vl53l0x_api.c **** 	LastRangeDataBuffer = PALDevDataGet(Dev, LastRangeMeasure);
 629              		.loc 1 343 0
 630 0008 01AC     		add	r4, sp, #4
 631 000a 00F15005 		add	r5, r0, #80
 632 000e 0FCD     		ldmia	r5!, {r0, r1, r2, r3}
 633              	.LVL59:
 634 0010 0FC4     		stmia	r4!, {r0, r1, r2, r3}
 635 0012 95E80700 		ldm	r5, {r0, r1, r2}
 636 0016 84E80700 		stm	r4, {r0, r1, r2}
 344:Drivers/VL53L0X/API/vl53l0x_api.c **** 
 345:Drivers/VL53L0X/API/vl53l0x_api.c **** 	Status = VL53L0X_get_total_signal_rate(
 637              		.loc 1 345 0
 638 001a 3A46     		mov	r2, r7
 639 001c 01A9     		add	r1, sp, #4
 640 001e 3046     		mov	r0, r6
 641 0020 FFF7FEFF 		bl	VL53L0X_get_total_signal_rate
 642              	.LVL60:
 346:Drivers/VL53L0X/API/vl53l0x_api.c **** 		Dev, &LastRangeDataBuffer, pTotalSignalRate);
 347:Drivers/VL53L0X/API/vl53l0x_api.c **** 
 348:Drivers/VL53L0X/API/vl53l0x_api.c **** 	LOG_FUNCTION_END(Status);
 349:Drivers/VL53L0X/API/vl53l0x_api.c **** 	return Status;
 350:Drivers/VL53L0X/API/vl53l0x_api.c **** }
 643              		.loc 1 350 0
 644 0024 09B0     		add	sp, sp, #36
 645              	.LCFI20:
 646              		.cfi_def_cfa_offset 20
 647              		@ sp needed
 648 0026 F0BD     		pop	{r4, r5, r6, r7, pc}
 649              		.cfi_endproc
 650              	.LFE144:
 652              		.section	.text.VL53L0X_SetDeviceAddress,"ax",%progbits
ARM GAS  /tmp/ccq7BpOX.s 			page 18


 653              		.align	1
 654              		.global	VL53L0X_SetDeviceAddress
 655              		.syntax unified
 656              		.thumb
 657              		.thumb_func
 658              		.fpu fpv4-sp-d16
 660              	VL53L0X_SetDeviceAddress:
 661              	.LFB145:
 351:Drivers/VL53L0X/API/vl53l0x_api.c **** 
 352:Drivers/VL53L0X/API/vl53l0x_api.c **** /* End Group PAL General Functions */
 353:Drivers/VL53L0X/API/vl53l0x_api.c **** 
 354:Drivers/VL53L0X/API/vl53l0x_api.c **** /* Group PAL Init Functions */
 355:Drivers/VL53L0X/API/vl53l0x_api.c **** VL53L0X_Error VL53L0X_SetDeviceAddress(VL53L0X_DEV Dev, uint8_t DeviceAddress)
 356:Drivers/VL53L0X/API/vl53l0x_api.c **** {
 662              		.loc 1 356 0
 663              		.cfi_startproc
 664              		@ args = 0, pretend = 0, frame = 0
 665              		@ frame_needed = 0, uses_anonymous_args = 0
 666              	.LVL61:
 667 0000 08B5     		push	{r3, lr}
 668              	.LCFI21:
 669              		.cfi_def_cfa_offset 8
 670              		.cfi_offset 3, -8
 671              		.cfi_offset 14, -4
 672              	.LVL62:
 357:Drivers/VL53L0X/API/vl53l0x_api.c **** 	VL53L0X_Error Status = VL53L0X_ERROR_NONE;
 358:Drivers/VL53L0X/API/vl53l0x_api.c **** 	LOG_FUNCTION_START("");
 359:Drivers/VL53L0X/API/vl53l0x_api.c **** 
 360:Drivers/VL53L0X/API/vl53l0x_api.c **** 	Status = VL53L0X_WrByte(Dev, VL53L0X_REG_I2C_SLAVE_DEVICE_ADDRESS,
 673              		.loc 1 360 0
 674 0002 4A08     		lsrs	r2, r1, #1
 675 0004 8A21     		movs	r1, #138
 676              	.LVL63:
 677 0006 FFF7FEFF 		bl	VL53L0X_WrByte
 678              	.LVL64:
 361:Drivers/VL53L0X/API/vl53l0x_api.c **** 		DeviceAddress / 2);
 362:Drivers/VL53L0X/API/vl53l0x_api.c **** 
 363:Drivers/VL53L0X/API/vl53l0x_api.c **** 	LOG_FUNCTION_END(Status);
 364:Drivers/VL53L0X/API/vl53l0x_api.c **** 	return Status;
 365:Drivers/VL53L0X/API/vl53l0x_api.c **** }
 679              		.loc 1 365 0
 680 000a 08BD     		pop	{r3, pc}
 681              		.cfi_endproc
 682              	.LFE145:
 684              		.section	.text.VL53L0X_SetTuningSettingBuffer,"ax",%progbits
 685              		.align	1
 686              		.global	VL53L0X_SetTuningSettingBuffer
 687              		.syntax unified
 688              		.thumb
 689              		.thumb_func
 690              		.fpu fpv4-sp-d16
 692              	VL53L0X_SetTuningSettingBuffer:
 693              	.LFB147:
 366:Drivers/VL53L0X/API/vl53l0x_api.c **** 
 367:Drivers/VL53L0X/API/vl53l0x_api.c **** VL53L0X_Error VL53L0X_DataInit(VL53L0X_DEV Dev)
 368:Drivers/VL53L0X/API/vl53l0x_api.c **** {
 369:Drivers/VL53L0X/API/vl53l0x_api.c **** 	VL53L0X_Error Status = VL53L0X_ERROR_NONE;
ARM GAS  /tmp/ccq7BpOX.s 			page 19


 370:Drivers/VL53L0X/API/vl53l0x_api.c **** 	VL53L0X_DeviceParameters_t CurrentParameters;
 371:Drivers/VL53L0X/API/vl53l0x_api.c **** 	int i;
 372:Drivers/VL53L0X/API/vl53l0x_api.c **** 	uint8_t StopVariable;
 373:Drivers/VL53L0X/API/vl53l0x_api.c **** 
 374:Drivers/VL53L0X/API/vl53l0x_api.c **** 	LOG_FUNCTION_START("");
 375:Drivers/VL53L0X/API/vl53l0x_api.c **** 
 376:Drivers/VL53L0X/API/vl53l0x_api.c **** 	/* by default the I2C is running at 1V8 if you want to change it you
 377:Drivers/VL53L0X/API/vl53l0x_api.c **** 	 * need to include this define at compilation level. */
 378:Drivers/VL53L0X/API/vl53l0x_api.c **** #ifdef USE_I2C_2V8
 379:Drivers/VL53L0X/API/vl53l0x_api.c **** 	Status = VL53L0X_UpdateByte(Dev,
 380:Drivers/VL53L0X/API/vl53l0x_api.c **** 		VL53L0X_REG_VHV_CONFIG_PAD_SCL_SDA__EXTSUP_HV,
 381:Drivers/VL53L0X/API/vl53l0x_api.c **** 		0xFE,
 382:Drivers/VL53L0X/API/vl53l0x_api.c **** 		0x01);
 383:Drivers/VL53L0X/API/vl53l0x_api.c **** #endif
 384:Drivers/VL53L0X/API/vl53l0x_api.c **** 
 385:Drivers/VL53L0X/API/vl53l0x_api.c **** 	/* Set I2C standard mode */
 386:Drivers/VL53L0X/API/vl53l0x_api.c **** 	if (Status == VL53L0X_ERROR_NONE)
 387:Drivers/VL53L0X/API/vl53l0x_api.c **** 		Status = VL53L0X_WrByte(Dev, 0x88, 0x00);
 388:Drivers/VL53L0X/API/vl53l0x_api.c **** 
 389:Drivers/VL53L0X/API/vl53l0x_api.c **** 	VL53L0X_SETDEVICESPECIFICPARAMETER(Dev, ReadDataFromDeviceDone, 0);
 390:Drivers/VL53L0X/API/vl53l0x_api.c **** 
 391:Drivers/VL53L0X/API/vl53l0x_api.c **** #ifdef USE_IQC_STATION
 392:Drivers/VL53L0X/API/vl53l0x_api.c **** 	if (Status == VL53L0X_ERROR_NONE)
 393:Drivers/VL53L0X/API/vl53l0x_api.c **** 		Status = VL53L0X_apply_offset_adjustment(Dev);
 394:Drivers/VL53L0X/API/vl53l0x_api.c **** #endif
 395:Drivers/VL53L0X/API/vl53l0x_api.c **** 
 396:Drivers/VL53L0X/API/vl53l0x_api.c **** 	/* Default value is 1000 for Linearity Corrective Gain */
 397:Drivers/VL53L0X/API/vl53l0x_api.c **** 	PALDevDataSet(Dev, LinearityCorrectiveGain, 1000);
 398:Drivers/VL53L0X/API/vl53l0x_api.c **** 
 399:Drivers/VL53L0X/API/vl53l0x_api.c **** 	/* Dmax default Parameter */
 400:Drivers/VL53L0X/API/vl53l0x_api.c **** 	PALDevDataSet(Dev, DmaxCalRangeMilliMeter, 400);
 401:Drivers/VL53L0X/API/vl53l0x_api.c **** 	PALDevDataSet(Dev, DmaxCalSignalRateRtnMegaCps,
 402:Drivers/VL53L0X/API/vl53l0x_api.c **** 		(FixPoint1616_t)((0x00016B85))); /* 1.42 No Cover Glass*/
 403:Drivers/VL53L0X/API/vl53l0x_api.c **** 
 404:Drivers/VL53L0X/API/vl53l0x_api.c **** 	/* Set Default static parameters
 405:Drivers/VL53L0X/API/vl53l0x_api.c **** 	 *set first temporary values 9.44MHz * 65536 = 618660 */
 406:Drivers/VL53L0X/API/vl53l0x_api.c **** 	VL53L0X_SETDEVICESPECIFICPARAMETER(Dev, OscFrequencyMHz, 618660);
 407:Drivers/VL53L0X/API/vl53l0x_api.c **** 
 408:Drivers/VL53L0X/API/vl53l0x_api.c **** 	/* Set Default XTalkCompensationRateMegaCps to 0  */
 409:Drivers/VL53L0X/API/vl53l0x_api.c **** 	VL53L0X_SETPARAMETERFIELD(Dev, XTalkCompensationRateMegaCps, 0);
 410:Drivers/VL53L0X/API/vl53l0x_api.c **** 
 411:Drivers/VL53L0X/API/vl53l0x_api.c **** 	/* Get default parameters */
 412:Drivers/VL53L0X/API/vl53l0x_api.c **** 	Status = VL53L0X_GetDeviceParameters(Dev, &CurrentParameters);
 413:Drivers/VL53L0X/API/vl53l0x_api.c **** 	if (Status == VL53L0X_ERROR_NONE) {
 414:Drivers/VL53L0X/API/vl53l0x_api.c **** 		/* initialize PAL values */
 415:Drivers/VL53L0X/API/vl53l0x_api.c **** 		CurrentParameters.DeviceMode = VL53L0X_DEVICEMODE_SINGLE_RANGING;
 416:Drivers/VL53L0X/API/vl53l0x_api.c **** 		CurrentParameters.HistogramMode = VL53L0X_HISTOGRAMMODE_DISABLED;
 417:Drivers/VL53L0X/API/vl53l0x_api.c **** 		PALDevDataSet(Dev, CurrentParameters, CurrentParameters);
 418:Drivers/VL53L0X/API/vl53l0x_api.c **** 	}
 419:Drivers/VL53L0X/API/vl53l0x_api.c **** 
 420:Drivers/VL53L0X/API/vl53l0x_api.c **** 	/* Sigma estimator variable */
 421:Drivers/VL53L0X/API/vl53l0x_api.c **** 	PALDevDataSet(Dev, SigmaEstRefArray, 100);
 422:Drivers/VL53L0X/API/vl53l0x_api.c **** 	PALDevDataSet(Dev, SigmaEstEffPulseWidth, 900);
 423:Drivers/VL53L0X/API/vl53l0x_api.c **** 	PALDevDataSet(Dev, SigmaEstEffAmbWidth, 500);
 424:Drivers/VL53L0X/API/vl53l0x_api.c **** 	PALDevDataSet(Dev, targetRefRate, 0x0A00); /* 20 MCPS in 9:7 format */
 425:Drivers/VL53L0X/API/vl53l0x_api.c **** 
 426:Drivers/VL53L0X/API/vl53l0x_api.c **** 	/* Use internal default settings */
ARM GAS  /tmp/ccq7BpOX.s 			page 20


 427:Drivers/VL53L0X/API/vl53l0x_api.c **** 	PALDevDataSet(Dev, UseInternalTuningSettings, 1);
 428:Drivers/VL53L0X/API/vl53l0x_api.c **** 
 429:Drivers/VL53L0X/API/vl53l0x_api.c **** 	Status |= VL53L0X_WrByte(Dev, 0x80, 0x01);
 430:Drivers/VL53L0X/API/vl53l0x_api.c **** 	Status |= VL53L0X_WrByte(Dev, 0xFF, 0x01);
 431:Drivers/VL53L0X/API/vl53l0x_api.c **** 	Status |= VL53L0X_WrByte(Dev, 0x00, 0x00);
 432:Drivers/VL53L0X/API/vl53l0x_api.c **** 	Status |= VL53L0X_RdByte(Dev, 0x91, &StopVariable);
 433:Drivers/VL53L0X/API/vl53l0x_api.c **** 	PALDevDataSet(Dev, StopVariable, StopVariable);
 434:Drivers/VL53L0X/API/vl53l0x_api.c **** 	Status |= VL53L0X_WrByte(Dev, 0x00, 0x01);
 435:Drivers/VL53L0X/API/vl53l0x_api.c **** 	Status |= VL53L0X_WrByte(Dev, 0xFF, 0x00);
 436:Drivers/VL53L0X/API/vl53l0x_api.c **** 	Status |= VL53L0X_WrByte(Dev, 0x80, 0x00);
 437:Drivers/VL53L0X/API/vl53l0x_api.c **** 
 438:Drivers/VL53L0X/API/vl53l0x_api.c **** 	/* Enable all check */
 439:Drivers/VL53L0X/API/vl53l0x_api.c **** 	for (i = 0; i < VL53L0X_CHECKENABLE_NUMBER_OF_CHECKS; i++) {
 440:Drivers/VL53L0X/API/vl53l0x_api.c **** 		if (Status == VL53L0X_ERROR_NONE)
 441:Drivers/VL53L0X/API/vl53l0x_api.c **** 			Status |= VL53L0X_SetLimitCheckEnable(Dev, i, 1);
 442:Drivers/VL53L0X/API/vl53l0x_api.c **** 		else
 443:Drivers/VL53L0X/API/vl53l0x_api.c **** 			break;
 444:Drivers/VL53L0X/API/vl53l0x_api.c **** 
 445:Drivers/VL53L0X/API/vl53l0x_api.c **** 	}
 446:Drivers/VL53L0X/API/vl53l0x_api.c **** 
 447:Drivers/VL53L0X/API/vl53l0x_api.c **** 	/* Disable the following checks */
 448:Drivers/VL53L0X/API/vl53l0x_api.c **** 	if (Status == VL53L0X_ERROR_NONE)
 449:Drivers/VL53L0X/API/vl53l0x_api.c **** 		Status = VL53L0X_SetLimitCheckEnable(Dev,
 450:Drivers/VL53L0X/API/vl53l0x_api.c **** 			VL53L0X_CHECKENABLE_SIGNAL_REF_CLIP, 0);
 451:Drivers/VL53L0X/API/vl53l0x_api.c **** 
 452:Drivers/VL53L0X/API/vl53l0x_api.c **** 	if (Status == VL53L0X_ERROR_NONE)
 453:Drivers/VL53L0X/API/vl53l0x_api.c **** 		Status = VL53L0X_SetLimitCheckEnable(Dev,
 454:Drivers/VL53L0X/API/vl53l0x_api.c **** 			VL53L0X_CHECKENABLE_RANGE_IGNORE_THRESHOLD, 0);
 455:Drivers/VL53L0X/API/vl53l0x_api.c **** 
 456:Drivers/VL53L0X/API/vl53l0x_api.c **** 	if (Status == VL53L0X_ERROR_NONE)
 457:Drivers/VL53L0X/API/vl53l0x_api.c **** 		Status = VL53L0X_SetLimitCheckEnable(Dev,
 458:Drivers/VL53L0X/API/vl53l0x_api.c **** 			VL53L0X_CHECKENABLE_SIGNAL_RATE_MSRC, 0);
 459:Drivers/VL53L0X/API/vl53l0x_api.c **** 
 460:Drivers/VL53L0X/API/vl53l0x_api.c **** 	if (Status == VL53L0X_ERROR_NONE)
 461:Drivers/VL53L0X/API/vl53l0x_api.c **** 		Status = VL53L0X_SetLimitCheckEnable(Dev,
 462:Drivers/VL53L0X/API/vl53l0x_api.c **** 			VL53L0X_CHECKENABLE_SIGNAL_RATE_PRE_RANGE, 0);
 463:Drivers/VL53L0X/API/vl53l0x_api.c **** 
 464:Drivers/VL53L0X/API/vl53l0x_api.c **** 	/* Limit default values */
 465:Drivers/VL53L0X/API/vl53l0x_api.c **** 	if (Status == VL53L0X_ERROR_NONE) {
 466:Drivers/VL53L0X/API/vl53l0x_api.c **** 		Status = VL53L0X_SetLimitCheckValue(Dev,
 467:Drivers/VL53L0X/API/vl53l0x_api.c **** 			VL53L0X_CHECKENABLE_SIGMA_FINAL_RANGE,
 468:Drivers/VL53L0X/API/vl53l0x_api.c **** 				(FixPoint1616_t)(18 * 65536));
 469:Drivers/VL53L0X/API/vl53l0x_api.c **** 	}
 470:Drivers/VL53L0X/API/vl53l0x_api.c **** 	if (Status == VL53L0X_ERROR_NONE) {
 471:Drivers/VL53L0X/API/vl53l0x_api.c **** 		Status = VL53L0X_SetLimitCheckValue(Dev,
 472:Drivers/VL53L0X/API/vl53l0x_api.c **** 			VL53L0X_CHECKENABLE_SIGNAL_RATE_FINAL_RANGE,
 473:Drivers/VL53L0X/API/vl53l0x_api.c **** 				(FixPoint1616_t)(25 * 65536 / 100));
 474:Drivers/VL53L0X/API/vl53l0x_api.c **** 				/* 0.25 * 65536 */
 475:Drivers/VL53L0X/API/vl53l0x_api.c **** 	}
 476:Drivers/VL53L0X/API/vl53l0x_api.c **** 
 477:Drivers/VL53L0X/API/vl53l0x_api.c **** 	if (Status == VL53L0X_ERROR_NONE) {
 478:Drivers/VL53L0X/API/vl53l0x_api.c **** 		Status = VL53L0X_SetLimitCheckValue(Dev,
 479:Drivers/VL53L0X/API/vl53l0x_api.c **** 			VL53L0X_CHECKENABLE_SIGNAL_REF_CLIP,
 480:Drivers/VL53L0X/API/vl53l0x_api.c **** 				(FixPoint1616_t)(35 * 65536));
 481:Drivers/VL53L0X/API/vl53l0x_api.c **** 	}
 482:Drivers/VL53L0X/API/vl53l0x_api.c **** 
 483:Drivers/VL53L0X/API/vl53l0x_api.c **** 	if (Status == VL53L0X_ERROR_NONE) {
ARM GAS  /tmp/ccq7BpOX.s 			page 21


 484:Drivers/VL53L0X/API/vl53l0x_api.c **** 		Status = VL53L0X_SetLimitCheckValue(Dev,
 485:Drivers/VL53L0X/API/vl53l0x_api.c **** 			VL53L0X_CHECKENABLE_RANGE_IGNORE_THRESHOLD,
 486:Drivers/VL53L0X/API/vl53l0x_api.c **** 				(FixPoint1616_t)(0 * 65536));
 487:Drivers/VL53L0X/API/vl53l0x_api.c **** 	}
 488:Drivers/VL53L0X/API/vl53l0x_api.c **** 
 489:Drivers/VL53L0X/API/vl53l0x_api.c **** 	if (Status == VL53L0X_ERROR_NONE) {
 490:Drivers/VL53L0X/API/vl53l0x_api.c **** 
 491:Drivers/VL53L0X/API/vl53l0x_api.c **** 		PALDevDataSet(Dev, SequenceConfig, 0xFF);
 492:Drivers/VL53L0X/API/vl53l0x_api.c **** 		Status = VL53L0X_WrByte(Dev, VL53L0X_REG_SYSTEM_SEQUENCE_CONFIG,
 493:Drivers/VL53L0X/API/vl53l0x_api.c **** 			0xFF);
 494:Drivers/VL53L0X/API/vl53l0x_api.c **** 
 495:Drivers/VL53L0X/API/vl53l0x_api.c **** 		/* Set PAL state to tell that we are waiting for call to
 496:Drivers/VL53L0X/API/vl53l0x_api.c **** 		 * VL53L0X_StaticInit */
 497:Drivers/VL53L0X/API/vl53l0x_api.c **** 		PALDevDataSet(Dev, PalState, VL53L0X_STATE_WAIT_STATICINIT);
 498:Drivers/VL53L0X/API/vl53l0x_api.c **** 	}
 499:Drivers/VL53L0X/API/vl53l0x_api.c **** 
 500:Drivers/VL53L0X/API/vl53l0x_api.c **** 	if (Status == VL53L0X_ERROR_NONE)
 501:Drivers/VL53L0X/API/vl53l0x_api.c **** 		VL53L0X_SETDEVICESPECIFICPARAMETER(Dev, RefSpadsInitialised, 0);
 502:Drivers/VL53L0X/API/vl53l0x_api.c **** 
 503:Drivers/VL53L0X/API/vl53l0x_api.c **** 
 504:Drivers/VL53L0X/API/vl53l0x_api.c **** 	LOG_FUNCTION_END(Status);
 505:Drivers/VL53L0X/API/vl53l0x_api.c **** 	return Status;
 506:Drivers/VL53L0X/API/vl53l0x_api.c **** }
 507:Drivers/VL53L0X/API/vl53l0x_api.c **** 
 508:Drivers/VL53L0X/API/vl53l0x_api.c **** VL53L0X_Error VL53L0X_SetTuningSettingBuffer(VL53L0X_DEV Dev,
 509:Drivers/VL53L0X/API/vl53l0x_api.c **** 	uint8_t *pTuningSettingBuffer, uint8_t UseInternalTuningSettings)
 510:Drivers/VL53L0X/API/vl53l0x_api.c **** {
 694              		.loc 1 510 0
 695              		.cfi_startproc
 696              		@ args = 0, pretend = 0, frame = 0
 697              		@ frame_needed = 0, uses_anonymous_args = 0
 698              		@ link register save eliminated.
 699              	.LVL65:
 511:Drivers/VL53L0X/API/vl53l0x_api.c **** 	VL53L0X_Error Status = VL53L0X_ERROR_NONE;
 512:Drivers/VL53L0X/API/vl53l0x_api.c **** 
 513:Drivers/VL53L0X/API/vl53l0x_api.c **** 	LOG_FUNCTION_START("");
 514:Drivers/VL53L0X/API/vl53l0x_api.c **** 
 515:Drivers/VL53L0X/API/vl53l0x_api.c **** 	if (UseInternalTuningSettings == 1) {
 700              		.loc 1 515 0
 701 0000 012A     		cmp	r2, #1
 702 0002 08D0     		beq	.L43
 516:Drivers/VL53L0X/API/vl53l0x_api.c **** 		/* Force use internal settings */
 517:Drivers/VL53L0X/API/vl53l0x_api.c **** 		PALDevDataSet(Dev, UseInternalTuningSettings, 1);
 518:Drivers/VL53L0X/API/vl53l0x_api.c **** 	} else {
 519:Drivers/VL53L0X/API/vl53l0x_api.c **** 
 520:Drivers/VL53L0X/API/vl53l0x_api.c **** 		/* check that the first byte is not 0 */
 521:Drivers/VL53L0X/API/vl53l0x_api.c **** 		if (*pTuningSettingBuffer != 0) {
 703              		.loc 1 521 0
 704 0004 0B78     		ldrb	r3, [r1]	@ zero_extendqisi2
 705 0006 5BB1     		cbz	r3, .L42
 522:Drivers/VL53L0X/API/vl53l0x_api.c **** 			PALDevDataSet(Dev, pTuningSettingsPointer,
 706              		.loc 1 522 0
 707 0008 C0F84C11 		str	r1, [r0, #332]
 523:Drivers/VL53L0X/API/vl53l0x_api.c **** 				pTuningSettingBuffer);
 524:Drivers/VL53L0X/API/vl53l0x_api.c **** 			PALDevDataSet(Dev, UseInternalTuningSettings, 0);
 708              		.loc 1 524 0
 709 000c 0023     		movs	r3, #0
ARM GAS  /tmp/ccq7BpOX.s 			page 22


 710 000e 80F85031 		strb	r3, [r0, #336]
 511:Drivers/VL53L0X/API/vl53l0x_api.c **** 
 711              		.loc 1 511 0
 712 0012 1846     		mov	r0, r3
 713              	.LVL66:
 714 0014 7047     		bx	lr
 715              	.LVL67:
 716              	.L43:
 517:Drivers/VL53L0X/API/vl53l0x_api.c **** 	} else {
 717              		.loc 1 517 0
 718 0016 0123     		movs	r3, #1
 719 0018 80F85031 		strb	r3, [r0, #336]
 511:Drivers/VL53L0X/API/vl53l0x_api.c **** 
 720              		.loc 1 511 0
 721 001c 0020     		movs	r0, #0
 722              	.LVL68:
 723 001e 7047     		bx	lr
 724              	.LVL69:
 725              	.L42:
 525:Drivers/VL53L0X/API/vl53l0x_api.c **** 
 526:Drivers/VL53L0X/API/vl53l0x_api.c **** 		} else {
 527:Drivers/VL53L0X/API/vl53l0x_api.c **** 			Status = VL53L0X_ERROR_INVALID_PARAMS;
 726              		.loc 1 527 0
 727 0020 6FF00300 		mvn	r0, #3
 728              	.LVL70:
 528:Drivers/VL53L0X/API/vl53l0x_api.c **** 		}
 529:Drivers/VL53L0X/API/vl53l0x_api.c **** 	}
 530:Drivers/VL53L0X/API/vl53l0x_api.c **** 
 531:Drivers/VL53L0X/API/vl53l0x_api.c **** 	LOG_FUNCTION_END(Status);
 532:Drivers/VL53L0X/API/vl53l0x_api.c **** 	return Status;
 533:Drivers/VL53L0X/API/vl53l0x_api.c **** }
 729              		.loc 1 533 0
 730 0024 7047     		bx	lr
 731              		.cfi_endproc
 732              	.LFE147:
 734              		.section	.text.VL53L0X_GetTuningSettingBuffer,"ax",%progbits
 735              		.align	1
 736              		.global	VL53L0X_GetTuningSettingBuffer
 737              		.syntax unified
 738              		.thumb
 739              		.thumb_func
 740              		.fpu fpv4-sp-d16
 742              	VL53L0X_GetTuningSettingBuffer:
 743              	.LFB148:
 534:Drivers/VL53L0X/API/vl53l0x_api.c **** 
 535:Drivers/VL53L0X/API/vl53l0x_api.c **** VL53L0X_Error VL53L0X_GetTuningSettingBuffer(VL53L0X_DEV Dev,
 536:Drivers/VL53L0X/API/vl53l0x_api.c **** 	uint8_t **ppTuningSettingBuffer, uint8_t *pUseInternalTuningSettings)
 537:Drivers/VL53L0X/API/vl53l0x_api.c **** {
 744              		.loc 1 537 0
 745              		.cfi_startproc
 746              		@ args = 0, pretend = 0, frame = 0
 747              		@ frame_needed = 0, uses_anonymous_args = 0
 748              		@ link register save eliminated.
 749              	.LVL71:
 538:Drivers/VL53L0X/API/vl53l0x_api.c **** 	VL53L0X_Error Status = VL53L0X_ERROR_NONE;
 539:Drivers/VL53L0X/API/vl53l0x_api.c **** 
 540:Drivers/VL53L0X/API/vl53l0x_api.c **** 	LOG_FUNCTION_START("");
ARM GAS  /tmp/ccq7BpOX.s 			page 23


 541:Drivers/VL53L0X/API/vl53l0x_api.c **** 
 542:Drivers/VL53L0X/API/vl53l0x_api.c **** 	*ppTuningSettingBuffer = PALDevDataGet(Dev, pTuningSettingsPointer);
 750              		.loc 1 542 0
 751 0000 D0F84C31 		ldr	r3, [r0, #332]
 752 0004 0B60     		str	r3, [r1]
 543:Drivers/VL53L0X/API/vl53l0x_api.c **** 	*pUseInternalTuningSettings = PALDevDataGet(Dev,
 753              		.loc 1 543 0
 754 0006 90F85031 		ldrb	r3, [r0, #336]	@ zero_extendqisi2
 755 000a 1370     		strb	r3, [r2]
 544:Drivers/VL53L0X/API/vl53l0x_api.c **** 		UseInternalTuningSettings);
 545:Drivers/VL53L0X/API/vl53l0x_api.c **** 
 546:Drivers/VL53L0X/API/vl53l0x_api.c **** 	LOG_FUNCTION_END(Status);
 547:Drivers/VL53L0X/API/vl53l0x_api.c **** 	return Status;
 548:Drivers/VL53L0X/API/vl53l0x_api.c **** }
 756              		.loc 1 548 0
 757 000c 0020     		movs	r0, #0
 758              	.LVL72:
 759 000e 7047     		bx	lr
 760              		.cfi_endproc
 761              	.LFE148:
 763              		.section	.text.VL53L0X_WaitDeviceBooted,"ax",%progbits
 764              		.align	1
 765              		.global	VL53L0X_WaitDeviceBooted
 766              		.syntax unified
 767              		.thumb
 768              		.thumb_func
 769              		.fpu fpv4-sp-d16
 771              	VL53L0X_WaitDeviceBooted:
 772              	.LFB150:
 549:Drivers/VL53L0X/API/vl53l0x_api.c **** 
 550:Drivers/VL53L0X/API/vl53l0x_api.c **** VL53L0X_Error VL53L0X_StaticInit(VL53L0X_DEV Dev)
 551:Drivers/VL53L0X/API/vl53l0x_api.c **** {
 552:Drivers/VL53L0X/API/vl53l0x_api.c **** 	VL53L0X_Error Status = VL53L0X_ERROR_NONE;
 553:Drivers/VL53L0X/API/vl53l0x_api.c **** 	VL53L0X_DeviceParameters_t CurrentParameters = {0};
 554:Drivers/VL53L0X/API/vl53l0x_api.c **** 	uint8_t *pTuningSettingBuffer;
 555:Drivers/VL53L0X/API/vl53l0x_api.c **** 	uint16_t tempword = 0;
 556:Drivers/VL53L0X/API/vl53l0x_api.c **** 	uint8_t tempbyte = 0;
 557:Drivers/VL53L0X/API/vl53l0x_api.c **** 	uint8_t UseInternalTuningSettings = 0;
 558:Drivers/VL53L0X/API/vl53l0x_api.c **** 	uint32_t count = 0;
 559:Drivers/VL53L0X/API/vl53l0x_api.c **** 	uint8_t isApertureSpads = 0;
 560:Drivers/VL53L0X/API/vl53l0x_api.c **** 	uint32_t refSpadCount = 0;
 561:Drivers/VL53L0X/API/vl53l0x_api.c **** 	uint8_t ApertureSpads = 0;
 562:Drivers/VL53L0X/API/vl53l0x_api.c **** 	uint8_t vcselPulsePeriodPCLK;
 563:Drivers/VL53L0X/API/vl53l0x_api.c **** 	uint32_t seqTimeoutMicroSecs;
 564:Drivers/VL53L0X/API/vl53l0x_api.c **** 
 565:Drivers/VL53L0X/API/vl53l0x_api.c **** 	LOG_FUNCTION_START("");
 566:Drivers/VL53L0X/API/vl53l0x_api.c **** 
 567:Drivers/VL53L0X/API/vl53l0x_api.c **** 	Status = VL53L0X_get_info_from_device(Dev, 1);
 568:Drivers/VL53L0X/API/vl53l0x_api.c **** 
 569:Drivers/VL53L0X/API/vl53l0x_api.c **** 	/* set the ref spad from NVM */
 570:Drivers/VL53L0X/API/vl53l0x_api.c **** 	count	= (uint32_t)VL53L0X_GETDEVICESPECIFICPARAMETER(Dev,
 571:Drivers/VL53L0X/API/vl53l0x_api.c **** 		ReferenceSpadCount);
 572:Drivers/VL53L0X/API/vl53l0x_api.c **** 	ApertureSpads = VL53L0X_GETDEVICESPECIFICPARAMETER(Dev,
 573:Drivers/VL53L0X/API/vl53l0x_api.c **** 		ReferenceSpadType);
 574:Drivers/VL53L0X/API/vl53l0x_api.c **** 
 575:Drivers/VL53L0X/API/vl53l0x_api.c **** 	/* NVM value invalid */
 576:Drivers/VL53L0X/API/vl53l0x_api.c **** 	if ((ApertureSpads > 1) ||
ARM GAS  /tmp/ccq7BpOX.s 			page 24


 577:Drivers/VL53L0X/API/vl53l0x_api.c **** 		((ApertureSpads == 1) && (count > 32)) ||
 578:Drivers/VL53L0X/API/vl53l0x_api.c **** 		((ApertureSpads == 0) && (count > 12)))
 579:Drivers/VL53L0X/API/vl53l0x_api.c **** 		Status = VL53L0X_perform_ref_spad_management(Dev, &refSpadCount,
 580:Drivers/VL53L0X/API/vl53l0x_api.c **** 			&isApertureSpads);
 581:Drivers/VL53L0X/API/vl53l0x_api.c **** 	else
 582:Drivers/VL53L0X/API/vl53l0x_api.c **** 		Status = VL53L0X_set_reference_spads(Dev, count, ApertureSpads);
 583:Drivers/VL53L0X/API/vl53l0x_api.c **** 
 584:Drivers/VL53L0X/API/vl53l0x_api.c **** 
 585:Drivers/VL53L0X/API/vl53l0x_api.c **** 	/* Initialize tuning settings buffer to prevent compiler warning. */
 586:Drivers/VL53L0X/API/vl53l0x_api.c **** 	pTuningSettingBuffer = DefaultTuningSettings;
 587:Drivers/VL53L0X/API/vl53l0x_api.c **** 
 588:Drivers/VL53L0X/API/vl53l0x_api.c **** 	if (Status == VL53L0X_ERROR_NONE) {
 589:Drivers/VL53L0X/API/vl53l0x_api.c **** 		UseInternalTuningSettings = PALDevDataGet(Dev,
 590:Drivers/VL53L0X/API/vl53l0x_api.c **** 			UseInternalTuningSettings);
 591:Drivers/VL53L0X/API/vl53l0x_api.c **** 
 592:Drivers/VL53L0X/API/vl53l0x_api.c **** 		if (UseInternalTuningSettings == 0)
 593:Drivers/VL53L0X/API/vl53l0x_api.c **** 			pTuningSettingBuffer = PALDevDataGet(Dev,
 594:Drivers/VL53L0X/API/vl53l0x_api.c **** 				pTuningSettingsPointer);
 595:Drivers/VL53L0X/API/vl53l0x_api.c **** 		else
 596:Drivers/VL53L0X/API/vl53l0x_api.c **** 			pTuningSettingBuffer = DefaultTuningSettings;
 597:Drivers/VL53L0X/API/vl53l0x_api.c **** 
 598:Drivers/VL53L0X/API/vl53l0x_api.c **** 	}
 599:Drivers/VL53L0X/API/vl53l0x_api.c **** 
 600:Drivers/VL53L0X/API/vl53l0x_api.c **** 	if (Status == VL53L0X_ERROR_NONE)
 601:Drivers/VL53L0X/API/vl53l0x_api.c **** 		Status = VL53L0X_load_tuning_settings(Dev, pTuningSettingBuffer);
 602:Drivers/VL53L0X/API/vl53l0x_api.c **** 
 603:Drivers/VL53L0X/API/vl53l0x_api.c **** 
 604:Drivers/VL53L0X/API/vl53l0x_api.c **** 	/* Set interrupt config to new sample ready */
 605:Drivers/VL53L0X/API/vl53l0x_api.c **** 	if (Status == VL53L0X_ERROR_NONE) {
 606:Drivers/VL53L0X/API/vl53l0x_api.c **** 		Status = VL53L0X_SetGpioConfig(Dev, 0, 0,
 607:Drivers/VL53L0X/API/vl53l0x_api.c **** 		VL53L0X_REG_SYSTEM_INTERRUPT_GPIO_NEW_SAMPLE_READY,
 608:Drivers/VL53L0X/API/vl53l0x_api.c **** 		VL53L0X_INTERRUPTPOLARITY_LOW);
 609:Drivers/VL53L0X/API/vl53l0x_api.c **** 	}
 610:Drivers/VL53L0X/API/vl53l0x_api.c **** 
 611:Drivers/VL53L0X/API/vl53l0x_api.c **** 	if (Status == VL53L0X_ERROR_NONE) {
 612:Drivers/VL53L0X/API/vl53l0x_api.c **** 		Status = VL53L0X_WrByte(Dev, 0xFF, 0x01);
 613:Drivers/VL53L0X/API/vl53l0x_api.c **** 		Status |= VL53L0X_RdWord(Dev, 0x84, &tempword);
 614:Drivers/VL53L0X/API/vl53l0x_api.c **** 		Status |= VL53L0X_WrByte(Dev, 0xFF, 0x00);
 615:Drivers/VL53L0X/API/vl53l0x_api.c **** 	}
 616:Drivers/VL53L0X/API/vl53l0x_api.c **** 
 617:Drivers/VL53L0X/API/vl53l0x_api.c **** 	if (Status == VL53L0X_ERROR_NONE) {
 618:Drivers/VL53L0X/API/vl53l0x_api.c **** 		VL53L0X_SETDEVICESPECIFICPARAMETER(Dev, OscFrequencyMHz,
 619:Drivers/VL53L0X/API/vl53l0x_api.c **** 			VL53L0X_FIXPOINT412TOFIXPOINT1616(tempword));
 620:Drivers/VL53L0X/API/vl53l0x_api.c **** 	}
 621:Drivers/VL53L0X/API/vl53l0x_api.c **** 
 622:Drivers/VL53L0X/API/vl53l0x_api.c **** 	/* After static init, some device parameters may be changed,
 623:Drivers/VL53L0X/API/vl53l0x_api.c **** 	 * so update them */
 624:Drivers/VL53L0X/API/vl53l0x_api.c **** 	if (Status == VL53L0X_ERROR_NONE)
 625:Drivers/VL53L0X/API/vl53l0x_api.c **** 		Status = VL53L0X_GetDeviceParameters(Dev, &CurrentParameters);
 626:Drivers/VL53L0X/API/vl53l0x_api.c **** 
 627:Drivers/VL53L0X/API/vl53l0x_api.c **** 
 628:Drivers/VL53L0X/API/vl53l0x_api.c **** 	if (Status == VL53L0X_ERROR_NONE) {
 629:Drivers/VL53L0X/API/vl53l0x_api.c **** 		Status = VL53L0X_GetFractionEnable(Dev, &tempbyte);
 630:Drivers/VL53L0X/API/vl53l0x_api.c **** 		if (Status == VL53L0X_ERROR_NONE)
 631:Drivers/VL53L0X/API/vl53l0x_api.c **** 			PALDevDataSet(Dev, RangeFractionalEnable, tempbyte);
 632:Drivers/VL53L0X/API/vl53l0x_api.c **** 
 633:Drivers/VL53L0X/API/vl53l0x_api.c **** 	}
ARM GAS  /tmp/ccq7BpOX.s 			page 25


 634:Drivers/VL53L0X/API/vl53l0x_api.c **** 
 635:Drivers/VL53L0X/API/vl53l0x_api.c **** 	if (Status == VL53L0X_ERROR_NONE)
 636:Drivers/VL53L0X/API/vl53l0x_api.c **** 		PALDevDataSet(Dev, CurrentParameters, CurrentParameters);
 637:Drivers/VL53L0X/API/vl53l0x_api.c **** 
 638:Drivers/VL53L0X/API/vl53l0x_api.c **** 
 639:Drivers/VL53L0X/API/vl53l0x_api.c **** 	/* read the sequence config and save it */
 640:Drivers/VL53L0X/API/vl53l0x_api.c **** 	if (Status == VL53L0X_ERROR_NONE) {
 641:Drivers/VL53L0X/API/vl53l0x_api.c **** 		Status = VL53L0X_RdByte(Dev,
 642:Drivers/VL53L0X/API/vl53l0x_api.c **** 		VL53L0X_REG_SYSTEM_SEQUENCE_CONFIG, &tempbyte);
 643:Drivers/VL53L0X/API/vl53l0x_api.c **** 		if (Status == VL53L0X_ERROR_NONE)
 644:Drivers/VL53L0X/API/vl53l0x_api.c **** 			PALDevDataSet(Dev, SequenceConfig, tempbyte);
 645:Drivers/VL53L0X/API/vl53l0x_api.c **** 
 646:Drivers/VL53L0X/API/vl53l0x_api.c **** 	}
 647:Drivers/VL53L0X/API/vl53l0x_api.c **** 
 648:Drivers/VL53L0X/API/vl53l0x_api.c **** 	/* Disable MSRC and TCC by default */
 649:Drivers/VL53L0X/API/vl53l0x_api.c **** 	if (Status == VL53L0X_ERROR_NONE)
 650:Drivers/VL53L0X/API/vl53l0x_api.c **** 		Status = VL53L0X_SetSequenceStepEnable(Dev,
 651:Drivers/VL53L0X/API/vl53l0x_api.c **** 					VL53L0X_SEQUENCESTEP_TCC, 0);
 652:Drivers/VL53L0X/API/vl53l0x_api.c **** 
 653:Drivers/VL53L0X/API/vl53l0x_api.c **** 
 654:Drivers/VL53L0X/API/vl53l0x_api.c **** 	if (Status == VL53L0X_ERROR_NONE)
 655:Drivers/VL53L0X/API/vl53l0x_api.c **** 		Status = VL53L0X_SetSequenceStepEnable(Dev,
 656:Drivers/VL53L0X/API/vl53l0x_api.c **** 		VL53L0X_SEQUENCESTEP_MSRC, 0);
 657:Drivers/VL53L0X/API/vl53l0x_api.c **** 
 658:Drivers/VL53L0X/API/vl53l0x_api.c **** 
 659:Drivers/VL53L0X/API/vl53l0x_api.c **** 	/* Set PAL State to standby */
 660:Drivers/VL53L0X/API/vl53l0x_api.c **** 	if (Status == VL53L0X_ERROR_NONE)
 661:Drivers/VL53L0X/API/vl53l0x_api.c **** 		PALDevDataSet(Dev, PalState, VL53L0X_STATE_IDLE);
 662:Drivers/VL53L0X/API/vl53l0x_api.c **** 
 663:Drivers/VL53L0X/API/vl53l0x_api.c **** 
 664:Drivers/VL53L0X/API/vl53l0x_api.c **** 
 665:Drivers/VL53L0X/API/vl53l0x_api.c **** 	/* Store pre-range vcsel period */
 666:Drivers/VL53L0X/API/vl53l0x_api.c **** 	if (Status == VL53L0X_ERROR_NONE) {
 667:Drivers/VL53L0X/API/vl53l0x_api.c **** 		Status = VL53L0X_GetVcselPulsePeriod(
 668:Drivers/VL53L0X/API/vl53l0x_api.c **** 			Dev,
 669:Drivers/VL53L0X/API/vl53l0x_api.c **** 			VL53L0X_VCSEL_PERIOD_PRE_RANGE,
 670:Drivers/VL53L0X/API/vl53l0x_api.c **** 			&vcselPulsePeriodPCLK);
 671:Drivers/VL53L0X/API/vl53l0x_api.c **** 	}
 672:Drivers/VL53L0X/API/vl53l0x_api.c **** 
 673:Drivers/VL53L0X/API/vl53l0x_api.c **** 	if (Status == VL53L0X_ERROR_NONE) {
 674:Drivers/VL53L0X/API/vl53l0x_api.c **** 			VL53L0X_SETDEVICESPECIFICPARAMETER(
 675:Drivers/VL53L0X/API/vl53l0x_api.c **** 				Dev,
 676:Drivers/VL53L0X/API/vl53l0x_api.c **** 				PreRangeVcselPulsePeriod,
 677:Drivers/VL53L0X/API/vl53l0x_api.c **** 				vcselPulsePeriodPCLK);
 678:Drivers/VL53L0X/API/vl53l0x_api.c **** 	}
 679:Drivers/VL53L0X/API/vl53l0x_api.c **** 
 680:Drivers/VL53L0X/API/vl53l0x_api.c **** 	/* Store final-range vcsel period */
 681:Drivers/VL53L0X/API/vl53l0x_api.c **** 	if (Status == VL53L0X_ERROR_NONE) {
 682:Drivers/VL53L0X/API/vl53l0x_api.c **** 		Status = VL53L0X_GetVcselPulsePeriod(
 683:Drivers/VL53L0X/API/vl53l0x_api.c **** 			Dev,
 684:Drivers/VL53L0X/API/vl53l0x_api.c **** 			VL53L0X_VCSEL_PERIOD_FINAL_RANGE,
 685:Drivers/VL53L0X/API/vl53l0x_api.c **** 			&vcselPulsePeriodPCLK);
 686:Drivers/VL53L0X/API/vl53l0x_api.c **** 	}
 687:Drivers/VL53L0X/API/vl53l0x_api.c **** 
 688:Drivers/VL53L0X/API/vl53l0x_api.c **** 	if (Status == VL53L0X_ERROR_NONE) {
 689:Drivers/VL53L0X/API/vl53l0x_api.c **** 			VL53L0X_SETDEVICESPECIFICPARAMETER(
 690:Drivers/VL53L0X/API/vl53l0x_api.c **** 				Dev,
ARM GAS  /tmp/ccq7BpOX.s 			page 26


 691:Drivers/VL53L0X/API/vl53l0x_api.c **** 				FinalRangeVcselPulsePeriod,
 692:Drivers/VL53L0X/API/vl53l0x_api.c **** 				vcselPulsePeriodPCLK);
 693:Drivers/VL53L0X/API/vl53l0x_api.c **** 	}
 694:Drivers/VL53L0X/API/vl53l0x_api.c **** 
 695:Drivers/VL53L0X/API/vl53l0x_api.c **** 	/* Store pre-range timeout */
 696:Drivers/VL53L0X/API/vl53l0x_api.c **** 	if (Status == VL53L0X_ERROR_NONE) {
 697:Drivers/VL53L0X/API/vl53l0x_api.c **** 		Status = get_sequence_step_timeout(
 698:Drivers/VL53L0X/API/vl53l0x_api.c **** 			Dev,
 699:Drivers/VL53L0X/API/vl53l0x_api.c **** 			VL53L0X_SEQUENCESTEP_PRE_RANGE,
 700:Drivers/VL53L0X/API/vl53l0x_api.c **** 			&seqTimeoutMicroSecs);
 701:Drivers/VL53L0X/API/vl53l0x_api.c **** 	}
 702:Drivers/VL53L0X/API/vl53l0x_api.c **** 
 703:Drivers/VL53L0X/API/vl53l0x_api.c **** 	if (Status == VL53L0X_ERROR_NONE) {
 704:Drivers/VL53L0X/API/vl53l0x_api.c **** 		VL53L0X_SETDEVICESPECIFICPARAMETER(
 705:Drivers/VL53L0X/API/vl53l0x_api.c **** 			Dev,
 706:Drivers/VL53L0X/API/vl53l0x_api.c **** 			PreRangeTimeoutMicroSecs,
 707:Drivers/VL53L0X/API/vl53l0x_api.c **** 			seqTimeoutMicroSecs);
 708:Drivers/VL53L0X/API/vl53l0x_api.c **** 	}
 709:Drivers/VL53L0X/API/vl53l0x_api.c **** 
 710:Drivers/VL53L0X/API/vl53l0x_api.c **** 	/* Store final-range timeout */
 711:Drivers/VL53L0X/API/vl53l0x_api.c **** 	if (Status == VL53L0X_ERROR_NONE) {
 712:Drivers/VL53L0X/API/vl53l0x_api.c **** 		Status = get_sequence_step_timeout(
 713:Drivers/VL53L0X/API/vl53l0x_api.c **** 			Dev,
 714:Drivers/VL53L0X/API/vl53l0x_api.c **** 			VL53L0X_SEQUENCESTEP_FINAL_RANGE,
 715:Drivers/VL53L0X/API/vl53l0x_api.c **** 			&seqTimeoutMicroSecs);
 716:Drivers/VL53L0X/API/vl53l0x_api.c **** 	}
 717:Drivers/VL53L0X/API/vl53l0x_api.c **** 
 718:Drivers/VL53L0X/API/vl53l0x_api.c **** 	if (Status == VL53L0X_ERROR_NONE) {
 719:Drivers/VL53L0X/API/vl53l0x_api.c **** 		VL53L0X_SETDEVICESPECIFICPARAMETER(
 720:Drivers/VL53L0X/API/vl53l0x_api.c **** 			Dev,
 721:Drivers/VL53L0X/API/vl53l0x_api.c **** 			FinalRangeTimeoutMicroSecs,
 722:Drivers/VL53L0X/API/vl53l0x_api.c **** 			seqTimeoutMicroSecs);
 723:Drivers/VL53L0X/API/vl53l0x_api.c **** 	}
 724:Drivers/VL53L0X/API/vl53l0x_api.c **** 
 725:Drivers/VL53L0X/API/vl53l0x_api.c **** 	LOG_FUNCTION_END(Status);
 726:Drivers/VL53L0X/API/vl53l0x_api.c **** 	return Status;
 727:Drivers/VL53L0X/API/vl53l0x_api.c **** }
 728:Drivers/VL53L0X/API/vl53l0x_api.c **** 
 729:Drivers/VL53L0X/API/vl53l0x_api.c **** VL53L0X_Error VL53L0X_WaitDeviceBooted(VL53L0X_DEV Dev)
 730:Drivers/VL53L0X/API/vl53l0x_api.c **** {
 773              		.loc 1 730 0
 774              		.cfi_startproc
 775              		@ args = 0, pretend = 0, frame = 0
 776              		@ frame_needed = 0, uses_anonymous_args = 0
 777              		@ link register save eliminated.
 778              	.LVL73:
 731:Drivers/VL53L0X/API/vl53l0x_api.c **** 	VL53L0X_Error Status = VL53L0X_ERROR_NOT_IMPLEMENTED;
 732:Drivers/VL53L0X/API/vl53l0x_api.c **** 	LOG_FUNCTION_START("");
 733:Drivers/VL53L0X/API/vl53l0x_api.c **** 
 734:Drivers/VL53L0X/API/vl53l0x_api.c **** 	/* not implemented on VL53L0X */
 735:Drivers/VL53L0X/API/vl53l0x_api.c **** 
 736:Drivers/VL53L0X/API/vl53l0x_api.c **** 	LOG_FUNCTION_END(Status);
 737:Drivers/VL53L0X/API/vl53l0x_api.c **** 	return Status;
 738:Drivers/VL53L0X/API/vl53l0x_api.c **** }
 779              		.loc 1 738 0
 780 0000 6FF06200 		mvn	r0, #98
 781              	.LVL74:
ARM GAS  /tmp/ccq7BpOX.s 			page 27


 782 0004 7047     		bx	lr
 783              		.cfi_endproc
 784              	.LFE150:
 786              		.section	.text.VL53L0X_ResetDevice,"ax",%progbits
 787              		.align	1
 788              		.global	VL53L0X_ResetDevice
 789              		.syntax unified
 790              		.thumb
 791              		.thumb_func
 792              		.fpu fpv4-sp-d16
 794              	VL53L0X_ResetDevice:
 795              	.LFB151:
 739:Drivers/VL53L0X/API/vl53l0x_api.c **** 
 740:Drivers/VL53L0X/API/vl53l0x_api.c **** VL53L0X_Error VL53L0X_ResetDevice(VL53L0X_DEV Dev)
 741:Drivers/VL53L0X/API/vl53l0x_api.c **** {
 796              		.loc 1 741 0
 797              		.cfi_startproc
 798              		@ args = 0, pretend = 0, frame = 8
 799              		@ frame_needed = 0, uses_anonymous_args = 0
 800              	.LVL75:
 801 0000 30B5     		push	{r4, r5, lr}
 802              	.LCFI22:
 803              		.cfi_def_cfa_offset 12
 804              		.cfi_offset 4, -12
 805              		.cfi_offset 5, -8
 806              		.cfi_offset 14, -4
 807 0002 83B0     		sub	sp, sp, #12
 808              	.LCFI23:
 809              		.cfi_def_cfa_offset 24
 810 0004 0446     		mov	r4, r0
 811              	.LVL76:
 742:Drivers/VL53L0X/API/vl53l0x_api.c **** 	VL53L0X_Error Status = VL53L0X_ERROR_NONE;
 743:Drivers/VL53L0X/API/vl53l0x_api.c **** 	uint8_t Byte;
 744:Drivers/VL53L0X/API/vl53l0x_api.c **** 	LOG_FUNCTION_START("");
 745:Drivers/VL53L0X/API/vl53l0x_api.c **** 
 746:Drivers/VL53L0X/API/vl53l0x_api.c **** 	/* Set reset bit */
 747:Drivers/VL53L0X/API/vl53l0x_api.c **** 	Status = VL53L0X_WrByte(Dev, VL53L0X_REG_SOFT_RESET_GO2_SOFT_RESET_N,
 812              		.loc 1 747 0
 813 0006 0022     		movs	r2, #0
 814 0008 BF21     		movs	r1, #191
 815 000a FFF7FEFF 		bl	VL53L0X_WrByte
 816              	.LVL77:
 748:Drivers/VL53L0X/API/vl53l0x_api.c **** 		0x00);
 749:Drivers/VL53L0X/API/vl53l0x_api.c **** 
 750:Drivers/VL53L0X/API/vl53l0x_api.c **** 	/* Wait for some time */
 751:Drivers/VL53L0X/API/vl53l0x_api.c **** 	if (Status == VL53L0X_ERROR_NONE) {
 817              		.loc 1 751 0
 818 000e 48B9     		cbnz	r0, .L47
 819              	.LVL78:
 820              	.L48:
 752:Drivers/VL53L0X/API/vl53l0x_api.c **** 		do {
 753:Drivers/VL53L0X/API/vl53l0x_api.c **** 			Status = VL53L0X_RdByte(Dev,
 821              		.loc 1 753 0 discriminator 1
 822 0010 0DF10702 		add	r2, sp, #7
 823 0014 C021     		movs	r1, #192
 824 0016 2046     		mov	r0, r4
 825 0018 FFF7FEFF 		bl	VL53L0X_RdByte
ARM GAS  /tmp/ccq7BpOX.s 			page 28


 826              	.LVL79:
 754:Drivers/VL53L0X/API/vl53l0x_api.c **** 			VL53L0X_REG_IDENTIFICATION_MODEL_ID, &Byte);
 755:Drivers/VL53L0X/API/vl53l0x_api.c **** 		} while (Byte != 0x00);
 827              		.loc 1 755 0 discriminator 1
 828 001c 9DF80730 		ldrb	r3, [sp, #7]	@ zero_extendqisi2
 829 0020 002B     		cmp	r3, #0
 830 0022 F5D1     		bne	.L48
 831              	.L47:
 756:Drivers/VL53L0X/API/vl53l0x_api.c **** 	}
 757:Drivers/VL53L0X/API/vl53l0x_api.c **** 
 758:Drivers/VL53L0X/API/vl53l0x_api.c **** 	VL53L0X_PollingDelay(Dev);
 832              		.loc 1 758 0
 833 0024 2046     		mov	r0, r4
 834 0026 FFF7FEFF 		bl	VL53L0X_PollingDelay
 835              	.LVL80:
 759:Drivers/VL53L0X/API/vl53l0x_api.c **** 
 760:Drivers/VL53L0X/API/vl53l0x_api.c **** 	/* Release reset */
 761:Drivers/VL53L0X/API/vl53l0x_api.c **** 	Status = VL53L0X_WrByte(Dev, VL53L0X_REG_SOFT_RESET_GO2_SOFT_RESET_N,
 836              		.loc 1 761 0
 837 002a 0122     		movs	r2, #1
 838 002c BF21     		movs	r1, #191
 839 002e 2046     		mov	r0, r4
 840 0030 FFF7FEFF 		bl	VL53L0X_WrByte
 841              	.LVL81:
 762:Drivers/VL53L0X/API/vl53l0x_api.c **** 		0x01);
 763:Drivers/VL53L0X/API/vl53l0x_api.c **** 
 764:Drivers/VL53L0X/API/vl53l0x_api.c **** 	/* Wait until correct boot-up of the device */
 765:Drivers/VL53L0X/API/vl53l0x_api.c **** 	if (Status == VL53L0X_ERROR_NONE) {
 842              		.loc 1 765 0
 843 0034 0546     		mov	r5, r0
 844 0036 50B9     		cbnz	r0, .L49
 845              	.LVL82:
 846              	.L50:
 766:Drivers/VL53L0X/API/vl53l0x_api.c **** 		do {
 767:Drivers/VL53L0X/API/vl53l0x_api.c **** 			Status = VL53L0X_RdByte(Dev,
 847              		.loc 1 767 0 discriminator 1
 848 0038 0DF10702 		add	r2, sp, #7
 849 003c C021     		movs	r1, #192
 850 003e 2046     		mov	r0, r4
 851 0040 FFF7FEFF 		bl	VL53L0X_RdByte
 852              	.LVL83:
 853 0044 0546     		mov	r5, r0
 854              	.LVL84:
 768:Drivers/VL53L0X/API/vl53l0x_api.c **** 			VL53L0X_REG_IDENTIFICATION_MODEL_ID, &Byte);
 769:Drivers/VL53L0X/API/vl53l0x_api.c **** 		} while (Byte == 0x00);
 855              		.loc 1 769 0 discriminator 1
 856 0046 9DF80730 		ldrb	r3, [sp, #7]	@ zero_extendqisi2
 857 004a 002B     		cmp	r3, #0
 858 004c F4D0     		beq	.L50
 859              	.LVL85:
 860              	.L49:
 770:Drivers/VL53L0X/API/vl53l0x_api.c **** 	}
 771:Drivers/VL53L0X/API/vl53l0x_api.c **** 
 772:Drivers/VL53L0X/API/vl53l0x_api.c **** 	VL53L0X_PollingDelay(Dev);
 861              		.loc 1 772 0
 862 004e 2046     		mov	r0, r4
 863 0050 FFF7FEFF 		bl	VL53L0X_PollingDelay
ARM GAS  /tmp/ccq7BpOX.s 			page 29


 864              	.LVL86:
 773:Drivers/VL53L0X/API/vl53l0x_api.c **** 
 774:Drivers/VL53L0X/API/vl53l0x_api.c **** 	/* Set PAL State to VL53L0X_STATE_POWERDOWN */
 775:Drivers/VL53L0X/API/vl53l0x_api.c **** 	if (Status == VL53L0X_ERROR_NONE)
 865              		.loc 1 775 0
 866 0054 15B9     		cbnz	r5, .L51
 776:Drivers/VL53L0X/API/vl53l0x_api.c **** 		PALDevDataSet(Dev, PalState, VL53L0X_STATE_POWERDOWN);
 867              		.loc 1 776 0
 868 0056 0023     		movs	r3, #0
 869 0058 84F83231 		strb	r3, [r4, #306]
 870              	.L51:
 777:Drivers/VL53L0X/API/vl53l0x_api.c **** 
 778:Drivers/VL53L0X/API/vl53l0x_api.c **** 
 779:Drivers/VL53L0X/API/vl53l0x_api.c **** 	LOG_FUNCTION_END(Status);
 780:Drivers/VL53L0X/API/vl53l0x_api.c **** 	return Status;
 781:Drivers/VL53L0X/API/vl53l0x_api.c **** }
 871              		.loc 1 781 0
 872 005c 2846     		mov	r0, r5
 873 005e 03B0     		add	sp, sp, #12
 874              	.LCFI24:
 875              		.cfi_def_cfa_offset 12
 876              		@ sp needed
 877 0060 30BD     		pop	{r4, r5, pc}
 878              		.cfi_endproc
 879              	.LFE151:
 881              		.section	.text.VL53L0X_SetDeviceMode,"ax",%progbits
 882              		.align	1
 883              		.global	VL53L0X_SetDeviceMode
 884              		.syntax unified
 885              		.thumb
 886              		.thumb_func
 887              		.fpu fpv4-sp-d16
 889              	VL53L0X_SetDeviceMode:
 890              	.LFB154:
 782:Drivers/VL53L0X/API/vl53l0x_api.c **** /* End Group PAL Init Functions */
 783:Drivers/VL53L0X/API/vl53l0x_api.c **** 
 784:Drivers/VL53L0X/API/vl53l0x_api.c **** /* Group PAL Parameters Functions */
 785:Drivers/VL53L0X/API/vl53l0x_api.c **** VL53L0X_Error VL53L0X_SetDeviceParameters(VL53L0X_DEV Dev,
 786:Drivers/VL53L0X/API/vl53l0x_api.c **** 	const VL53L0X_DeviceParameters_t *pDeviceParameters)
 787:Drivers/VL53L0X/API/vl53l0x_api.c **** {
 788:Drivers/VL53L0X/API/vl53l0x_api.c **** 	VL53L0X_Error Status = VL53L0X_ERROR_NONE;
 789:Drivers/VL53L0X/API/vl53l0x_api.c **** 	int i;
 790:Drivers/VL53L0X/API/vl53l0x_api.c **** 	LOG_FUNCTION_START("");
 791:Drivers/VL53L0X/API/vl53l0x_api.c **** 	Status = VL53L0X_SetDeviceMode(Dev, pDeviceParameters->DeviceMode);
 792:Drivers/VL53L0X/API/vl53l0x_api.c **** 
 793:Drivers/VL53L0X/API/vl53l0x_api.c **** 	if (Status == VL53L0X_ERROR_NONE)
 794:Drivers/VL53L0X/API/vl53l0x_api.c **** 		Status = VL53L0X_SetInterMeasurementPeriodMilliSeconds(Dev,
 795:Drivers/VL53L0X/API/vl53l0x_api.c **** 			pDeviceParameters->InterMeasurementPeriodMilliSeconds);
 796:Drivers/VL53L0X/API/vl53l0x_api.c **** 
 797:Drivers/VL53L0X/API/vl53l0x_api.c **** 
 798:Drivers/VL53L0X/API/vl53l0x_api.c **** 	if (Status == VL53L0X_ERROR_NONE)
 799:Drivers/VL53L0X/API/vl53l0x_api.c **** 		Status = VL53L0X_SetXTalkCompensationRateMegaCps(Dev,
 800:Drivers/VL53L0X/API/vl53l0x_api.c **** 			pDeviceParameters->XTalkCompensationRateMegaCps);
 801:Drivers/VL53L0X/API/vl53l0x_api.c **** 
 802:Drivers/VL53L0X/API/vl53l0x_api.c **** 
 803:Drivers/VL53L0X/API/vl53l0x_api.c **** 	if (Status == VL53L0X_ERROR_NONE)
 804:Drivers/VL53L0X/API/vl53l0x_api.c **** 		Status = VL53L0X_SetOffsetCalibrationDataMicroMeter(Dev,
ARM GAS  /tmp/ccq7BpOX.s 			page 30


 805:Drivers/VL53L0X/API/vl53l0x_api.c **** 			pDeviceParameters->RangeOffsetMicroMeters);
 806:Drivers/VL53L0X/API/vl53l0x_api.c **** 
 807:Drivers/VL53L0X/API/vl53l0x_api.c **** 
 808:Drivers/VL53L0X/API/vl53l0x_api.c **** 	for (i = 0; i < VL53L0X_CHECKENABLE_NUMBER_OF_CHECKS; i++) {
 809:Drivers/VL53L0X/API/vl53l0x_api.c **** 		if (Status == VL53L0X_ERROR_NONE)
 810:Drivers/VL53L0X/API/vl53l0x_api.c **** 			Status |= VL53L0X_SetLimitCheckEnable(Dev, i,
 811:Drivers/VL53L0X/API/vl53l0x_api.c **** 				pDeviceParameters->LimitChecksEnable[i]);
 812:Drivers/VL53L0X/API/vl53l0x_api.c **** 		else
 813:Drivers/VL53L0X/API/vl53l0x_api.c **** 			break;
 814:Drivers/VL53L0X/API/vl53l0x_api.c **** 
 815:Drivers/VL53L0X/API/vl53l0x_api.c **** 		if (Status == VL53L0X_ERROR_NONE)
 816:Drivers/VL53L0X/API/vl53l0x_api.c **** 			Status |= VL53L0X_SetLimitCheckValue(Dev, i,
 817:Drivers/VL53L0X/API/vl53l0x_api.c **** 				pDeviceParameters->LimitChecksValue[i]);
 818:Drivers/VL53L0X/API/vl53l0x_api.c **** 		else
 819:Drivers/VL53L0X/API/vl53l0x_api.c **** 			break;
 820:Drivers/VL53L0X/API/vl53l0x_api.c **** 
 821:Drivers/VL53L0X/API/vl53l0x_api.c **** 	}
 822:Drivers/VL53L0X/API/vl53l0x_api.c **** 
 823:Drivers/VL53L0X/API/vl53l0x_api.c **** 	if (Status == VL53L0X_ERROR_NONE)
 824:Drivers/VL53L0X/API/vl53l0x_api.c **** 		Status = VL53L0X_SetWrapAroundCheckEnable(Dev,
 825:Drivers/VL53L0X/API/vl53l0x_api.c **** 			pDeviceParameters->WrapAroundCheckEnable);
 826:Drivers/VL53L0X/API/vl53l0x_api.c **** 
 827:Drivers/VL53L0X/API/vl53l0x_api.c **** 	if (Status == VL53L0X_ERROR_NONE)
 828:Drivers/VL53L0X/API/vl53l0x_api.c **** 		Status = VL53L0X_SetMeasurementTimingBudgetMicroSeconds(Dev,
 829:Drivers/VL53L0X/API/vl53l0x_api.c **** 			pDeviceParameters->MeasurementTimingBudgetMicroSeconds);
 830:Drivers/VL53L0X/API/vl53l0x_api.c **** 
 831:Drivers/VL53L0X/API/vl53l0x_api.c **** 
 832:Drivers/VL53L0X/API/vl53l0x_api.c **** 	LOG_FUNCTION_END(Status);
 833:Drivers/VL53L0X/API/vl53l0x_api.c **** 	return Status;
 834:Drivers/VL53L0X/API/vl53l0x_api.c **** }
 835:Drivers/VL53L0X/API/vl53l0x_api.c **** 
 836:Drivers/VL53L0X/API/vl53l0x_api.c **** VL53L0X_Error VL53L0X_GetDeviceParameters(VL53L0X_DEV Dev,
 837:Drivers/VL53L0X/API/vl53l0x_api.c **** 	VL53L0X_DeviceParameters_t *pDeviceParameters)
 838:Drivers/VL53L0X/API/vl53l0x_api.c **** {
 839:Drivers/VL53L0X/API/vl53l0x_api.c **** 	VL53L0X_Error Status = VL53L0X_ERROR_NONE;
 840:Drivers/VL53L0X/API/vl53l0x_api.c **** 	int i;
 841:Drivers/VL53L0X/API/vl53l0x_api.c **** 
 842:Drivers/VL53L0X/API/vl53l0x_api.c **** 	LOG_FUNCTION_START("");
 843:Drivers/VL53L0X/API/vl53l0x_api.c **** 
 844:Drivers/VL53L0X/API/vl53l0x_api.c **** 	Status = VL53L0X_GetDeviceMode(Dev, &(pDeviceParameters->DeviceMode));
 845:Drivers/VL53L0X/API/vl53l0x_api.c **** 
 846:Drivers/VL53L0X/API/vl53l0x_api.c **** 	if (Status == VL53L0X_ERROR_NONE)
 847:Drivers/VL53L0X/API/vl53l0x_api.c **** 		Status = VL53L0X_GetInterMeasurementPeriodMilliSeconds(Dev,
 848:Drivers/VL53L0X/API/vl53l0x_api.c **** 		&(pDeviceParameters->InterMeasurementPeriodMilliSeconds));
 849:Drivers/VL53L0X/API/vl53l0x_api.c **** 
 850:Drivers/VL53L0X/API/vl53l0x_api.c **** 
 851:Drivers/VL53L0X/API/vl53l0x_api.c **** 	if (Status == VL53L0X_ERROR_NONE)
 852:Drivers/VL53L0X/API/vl53l0x_api.c **** 		pDeviceParameters->XTalkCompensationEnable = 0;
 853:Drivers/VL53L0X/API/vl53l0x_api.c **** 
 854:Drivers/VL53L0X/API/vl53l0x_api.c **** 	if (Status == VL53L0X_ERROR_NONE)
 855:Drivers/VL53L0X/API/vl53l0x_api.c **** 		Status = VL53L0X_GetXTalkCompensationRateMegaCps(Dev,
 856:Drivers/VL53L0X/API/vl53l0x_api.c **** 			&(pDeviceParameters->XTalkCompensationRateMegaCps));
 857:Drivers/VL53L0X/API/vl53l0x_api.c **** 
 858:Drivers/VL53L0X/API/vl53l0x_api.c **** 
 859:Drivers/VL53L0X/API/vl53l0x_api.c **** 	if (Status == VL53L0X_ERROR_NONE)
 860:Drivers/VL53L0X/API/vl53l0x_api.c **** 		Status = VL53L0X_GetOffsetCalibrationDataMicroMeter(Dev,
 861:Drivers/VL53L0X/API/vl53l0x_api.c **** 			&(pDeviceParameters->RangeOffsetMicroMeters));
ARM GAS  /tmp/ccq7BpOX.s 			page 31


 862:Drivers/VL53L0X/API/vl53l0x_api.c **** 
 863:Drivers/VL53L0X/API/vl53l0x_api.c **** 
 864:Drivers/VL53L0X/API/vl53l0x_api.c **** 	if (Status == VL53L0X_ERROR_NONE) {
 865:Drivers/VL53L0X/API/vl53l0x_api.c **** 		for (i = 0; i < VL53L0X_CHECKENABLE_NUMBER_OF_CHECKS; i++) {
 866:Drivers/VL53L0X/API/vl53l0x_api.c **** 			/* get first the values, then the enables.
 867:Drivers/VL53L0X/API/vl53l0x_api.c **** 			 * VL53L0X_GetLimitCheckValue will modify the enable
 868:Drivers/VL53L0X/API/vl53l0x_api.c **** 			 * flags
 869:Drivers/VL53L0X/API/vl53l0x_api.c **** 			 */
 870:Drivers/VL53L0X/API/vl53l0x_api.c **** 			if (Status == VL53L0X_ERROR_NONE) {
 871:Drivers/VL53L0X/API/vl53l0x_api.c **** 				Status |= VL53L0X_GetLimitCheckValue(Dev, i,
 872:Drivers/VL53L0X/API/vl53l0x_api.c **** 				&(pDeviceParameters->LimitChecksValue[i]));
 873:Drivers/VL53L0X/API/vl53l0x_api.c **** 			} else {
 874:Drivers/VL53L0X/API/vl53l0x_api.c **** 				break;
 875:Drivers/VL53L0X/API/vl53l0x_api.c **** 			}
 876:Drivers/VL53L0X/API/vl53l0x_api.c **** 			if (Status == VL53L0X_ERROR_NONE) {
 877:Drivers/VL53L0X/API/vl53l0x_api.c **** 				Status |= VL53L0X_GetLimitCheckEnable(Dev, i,
 878:Drivers/VL53L0X/API/vl53l0x_api.c **** 				&(pDeviceParameters->LimitChecksEnable[i]));
 879:Drivers/VL53L0X/API/vl53l0x_api.c **** 			} else {
 880:Drivers/VL53L0X/API/vl53l0x_api.c **** 				break;
 881:Drivers/VL53L0X/API/vl53l0x_api.c **** 			}
 882:Drivers/VL53L0X/API/vl53l0x_api.c **** 		}
 883:Drivers/VL53L0X/API/vl53l0x_api.c **** 	}
 884:Drivers/VL53L0X/API/vl53l0x_api.c **** 
 885:Drivers/VL53L0X/API/vl53l0x_api.c **** 	if (Status == VL53L0X_ERROR_NONE) {
 886:Drivers/VL53L0X/API/vl53l0x_api.c **** 		Status = VL53L0X_GetWrapAroundCheckEnable(Dev,
 887:Drivers/VL53L0X/API/vl53l0x_api.c **** 			&(pDeviceParameters->WrapAroundCheckEnable));
 888:Drivers/VL53L0X/API/vl53l0x_api.c **** 	}
 889:Drivers/VL53L0X/API/vl53l0x_api.c **** 
 890:Drivers/VL53L0X/API/vl53l0x_api.c **** 	/* Need to be done at the end as it uses VCSELPulsePeriod */
 891:Drivers/VL53L0X/API/vl53l0x_api.c **** 	if (Status == VL53L0X_ERROR_NONE) {
 892:Drivers/VL53L0X/API/vl53l0x_api.c **** 		Status = VL53L0X_GetMeasurementTimingBudgetMicroSeconds(Dev,
 893:Drivers/VL53L0X/API/vl53l0x_api.c **** 		&(pDeviceParameters->MeasurementTimingBudgetMicroSeconds));
 894:Drivers/VL53L0X/API/vl53l0x_api.c **** 	}
 895:Drivers/VL53L0X/API/vl53l0x_api.c **** 
 896:Drivers/VL53L0X/API/vl53l0x_api.c **** 	LOG_FUNCTION_END(Status);
 897:Drivers/VL53L0X/API/vl53l0x_api.c **** 	return Status;
 898:Drivers/VL53L0X/API/vl53l0x_api.c **** }
 899:Drivers/VL53L0X/API/vl53l0x_api.c **** 
 900:Drivers/VL53L0X/API/vl53l0x_api.c **** VL53L0X_Error VL53L0X_SetDeviceMode(VL53L0X_DEV Dev, VL53L0X_DeviceModes DeviceMode)
 901:Drivers/VL53L0X/API/vl53l0x_api.c **** {
 891              		.loc 1 901 0
 892              		.cfi_startproc
 893              		@ args = 0, pretend = 0, frame = 0
 894              		@ frame_needed = 0, uses_anonymous_args = 0
 895              		@ link register save eliminated.
 896              	.LVL87:
 902:Drivers/VL53L0X/API/vl53l0x_api.c **** 	VL53L0X_Error Status = VL53L0X_ERROR_NONE;
 903:Drivers/VL53L0X/API/vl53l0x_api.c **** 
 904:Drivers/VL53L0X/API/vl53l0x_api.c **** 	LOG_FUNCTION_START("%d", (int)DeviceMode);
 905:Drivers/VL53L0X/API/vl53l0x_api.c **** 
 906:Drivers/VL53L0X/API/vl53l0x_api.c **** 	switch (DeviceMode) {
 897              		.loc 1 906 0
 898 0000 1529     		cmp	r1, #21
 899 0002 0FD8     		bhi	.L57
 900 0004 DFE801F0 		tbb	[pc, r1]
 901              	.L56:
 902 0008 0B       		.byte	(.L55-.L56)/2
ARM GAS  /tmp/ccq7BpOX.s 			page 32


 903 0009 0B       		.byte	(.L55-.L56)/2
 904 000a 0E       		.byte	(.L57-.L56)/2
 905 000b 0B       		.byte	(.L55-.L56)/2
 906 000c 0E       		.byte	(.L57-.L56)/2
 907 000d 0E       		.byte	(.L57-.L56)/2
 908 000e 0E       		.byte	(.L57-.L56)/2
 909 000f 0E       		.byte	(.L57-.L56)/2
 910 0010 0E       		.byte	(.L57-.L56)/2
 911 0011 0E       		.byte	(.L57-.L56)/2
 912 0012 0E       		.byte	(.L57-.L56)/2
 913 0013 0E       		.byte	(.L57-.L56)/2
 914 0014 0E       		.byte	(.L57-.L56)/2
 915 0015 0E       		.byte	(.L57-.L56)/2
 916 0016 0E       		.byte	(.L57-.L56)/2
 917 0017 0E       		.byte	(.L57-.L56)/2
 918 0018 0E       		.byte	(.L57-.L56)/2
 919 0019 0E       		.byte	(.L57-.L56)/2
 920 001a 0E       		.byte	(.L57-.L56)/2
 921 001b 0E       		.byte	(.L57-.L56)/2
 922 001c 0B       		.byte	(.L55-.L56)/2
 923 001d 0B       		.byte	(.L55-.L56)/2
 924              		.p2align 1
 925              	.L55:
 907:Drivers/VL53L0X/API/vl53l0x_api.c **** 	case VL53L0X_DEVICEMODE_SINGLE_RANGING:
 908:Drivers/VL53L0X/API/vl53l0x_api.c **** 	case VL53L0X_DEVICEMODE_CONTINUOUS_RANGING:
 909:Drivers/VL53L0X/API/vl53l0x_api.c **** 	case VL53L0X_DEVICEMODE_CONTINUOUS_TIMED_RANGING:
 910:Drivers/VL53L0X/API/vl53l0x_api.c **** 	case VL53L0X_DEVICEMODE_GPIO_DRIVE:
 911:Drivers/VL53L0X/API/vl53l0x_api.c **** 	case VL53L0X_DEVICEMODE_GPIO_OSC:
 912:Drivers/VL53L0X/API/vl53l0x_api.c **** 		/* Supported modes */
 913:Drivers/VL53L0X/API/vl53l0x_api.c **** 		VL53L0X_SETPARAMETERFIELD(Dev, DeviceMode, DeviceMode);
 926              		.loc 1 913 0
 927 001e 0174     		strb	r1, [r0, #16]
 902:Drivers/VL53L0X/API/vl53l0x_api.c **** 	VL53L0X_Error Status = VL53L0X_ERROR_NONE;
 928              		.loc 1 902 0
 929 0020 0020     		movs	r0, #0
 930              	.LVL88:
 914:Drivers/VL53L0X/API/vl53l0x_api.c **** 		break;
 931              		.loc 1 914 0
 932 0022 7047     		bx	lr
 933              	.LVL89:
 934              	.L57:
 915:Drivers/VL53L0X/API/vl53l0x_api.c **** 	default:
 916:Drivers/VL53L0X/API/vl53l0x_api.c **** 		/* Unsupported mode */
 917:Drivers/VL53L0X/API/vl53l0x_api.c **** 		Status = VL53L0X_ERROR_MODE_NOT_SUPPORTED;
 935              		.loc 1 917 0
 936 0024 6FF00700 		mvn	r0, #7
 937              	.LVL90:
 918:Drivers/VL53L0X/API/vl53l0x_api.c **** 	}
 919:Drivers/VL53L0X/API/vl53l0x_api.c **** 
 920:Drivers/VL53L0X/API/vl53l0x_api.c **** 	LOG_FUNCTION_END(Status);
 921:Drivers/VL53L0X/API/vl53l0x_api.c **** 	return Status;
 922:Drivers/VL53L0X/API/vl53l0x_api.c **** }
 938              		.loc 1 922 0
 939 0028 7047     		bx	lr
 940              		.cfi_endproc
 941              	.LFE154:
 943              		.section	.text.VL53L0X_GetDeviceMode,"ax",%progbits
ARM GAS  /tmp/ccq7BpOX.s 			page 33


 944              		.align	1
 945              		.global	VL53L0X_GetDeviceMode
 946              		.syntax unified
 947              		.thumb
 948              		.thumb_func
 949              		.fpu fpv4-sp-d16
 951              	VL53L0X_GetDeviceMode:
 952              	.LFB155:
 923:Drivers/VL53L0X/API/vl53l0x_api.c **** 
 924:Drivers/VL53L0X/API/vl53l0x_api.c **** VL53L0X_Error VL53L0X_GetDeviceMode(VL53L0X_DEV Dev,
 925:Drivers/VL53L0X/API/vl53l0x_api.c **** 	VL53L0X_DeviceModes *pDeviceMode)
 926:Drivers/VL53L0X/API/vl53l0x_api.c **** {
 953              		.loc 1 926 0
 954              		.cfi_startproc
 955              		@ args = 0, pretend = 0, frame = 0
 956              		@ frame_needed = 0, uses_anonymous_args = 0
 957              		@ link register save eliminated.
 958              	.LVL91:
 927:Drivers/VL53L0X/API/vl53l0x_api.c **** 	VL53L0X_Error Status = VL53L0X_ERROR_NONE;
 928:Drivers/VL53L0X/API/vl53l0x_api.c **** 	LOG_FUNCTION_START("");
 929:Drivers/VL53L0X/API/vl53l0x_api.c **** 
 930:Drivers/VL53L0X/API/vl53l0x_api.c **** 	VL53L0X_GETPARAMETERFIELD(Dev, DeviceMode, *pDeviceMode);
 959              		.loc 1 930 0
 960 0000 037C     		ldrb	r3, [r0, #16]	@ zero_extendqisi2
 961 0002 0B70     		strb	r3, [r1]
 931:Drivers/VL53L0X/API/vl53l0x_api.c **** 
 932:Drivers/VL53L0X/API/vl53l0x_api.c **** 	LOG_FUNCTION_END(Status);
 933:Drivers/VL53L0X/API/vl53l0x_api.c **** 	return Status;
 934:Drivers/VL53L0X/API/vl53l0x_api.c **** }
 962              		.loc 1 934 0
 963 0004 0020     		movs	r0, #0
 964              	.LVL92:
 965 0006 7047     		bx	lr
 966              		.cfi_endproc
 967              	.LFE155:
 969              		.section	.text.VL53L0X_SetRangeFractionEnable,"ax",%progbits
 970              		.align	1
 971              		.global	VL53L0X_SetRangeFractionEnable
 972              		.syntax unified
 973              		.thumb
 974              		.thumb_func
 975              		.fpu fpv4-sp-d16
 977              	VL53L0X_SetRangeFractionEnable:
 978              	.LFB156:
 935:Drivers/VL53L0X/API/vl53l0x_api.c **** 
 936:Drivers/VL53L0X/API/vl53l0x_api.c **** VL53L0X_Error VL53L0X_SetRangeFractionEnable(VL53L0X_DEV Dev,	uint8_t Enable)
 937:Drivers/VL53L0X/API/vl53l0x_api.c **** {
 979              		.loc 1 937 0
 980              		.cfi_startproc
 981              		@ args = 0, pretend = 0, frame = 0
 982              		@ frame_needed = 0, uses_anonymous_args = 0
 983              	.LVL93:
 984 0000 38B5     		push	{r3, r4, r5, lr}
 985              	.LCFI25:
 986              		.cfi_def_cfa_offset 16
 987              		.cfi_offset 3, -16
 988              		.cfi_offset 4, -12
ARM GAS  /tmp/ccq7BpOX.s 			page 34


 989              		.cfi_offset 5, -8
 990              		.cfi_offset 14, -4
 991 0002 0546     		mov	r5, r0
 992 0004 0C46     		mov	r4, r1
 993              	.LVL94:
 938:Drivers/VL53L0X/API/vl53l0x_api.c **** 	VL53L0X_Error Status = VL53L0X_ERROR_NONE;
 939:Drivers/VL53L0X/API/vl53l0x_api.c **** 
 940:Drivers/VL53L0X/API/vl53l0x_api.c **** 	LOG_FUNCTION_START("%d", (int)Enable);
 941:Drivers/VL53L0X/API/vl53l0x_api.c **** 
 942:Drivers/VL53L0X/API/vl53l0x_api.c **** 	Status = VL53L0X_WrByte(Dev, VL53L0X_REG_SYSTEM_RANGE_CONFIG, Enable);
 994              		.loc 1 942 0
 995 0006 0A46     		mov	r2, r1
 996 0008 0921     		movs	r1, #9
 997              	.LVL95:
 998 000a FFF7FEFF 		bl	VL53L0X_WrByte
 999              	.LVL96:
 943:Drivers/VL53L0X/API/vl53l0x_api.c **** 
 944:Drivers/VL53L0X/API/vl53l0x_api.c **** 	if (Status == VL53L0X_ERROR_NONE)
 1000              		.loc 1 944 0
 1001 000e 0346     		mov	r3, r0
 1002 0010 08B9     		cbnz	r0, .L60
 945:Drivers/VL53L0X/API/vl53l0x_api.c **** 		PALDevDataSet(Dev, RangeFractionalEnable, Enable);
 1003              		.loc 1 945 0
 1004 0012 85F83141 		strb	r4, [r5, #305]
 1005              	.L60:
 946:Drivers/VL53L0X/API/vl53l0x_api.c **** 
 947:Drivers/VL53L0X/API/vl53l0x_api.c **** 	LOG_FUNCTION_END(Status);
 948:Drivers/VL53L0X/API/vl53l0x_api.c **** 	return Status;
 949:Drivers/VL53L0X/API/vl53l0x_api.c **** }
 1006              		.loc 1 949 0
 1007 0016 1846     		mov	r0, r3
 1008              	.LVL97:
 1009 0018 38BD     		pop	{r3, r4, r5, pc}
 1010              		.cfi_endproc
 1011              	.LFE156:
 1013              		.section	.text.VL53L0X_GetFractionEnable,"ax",%progbits
 1014              		.align	1
 1015              		.global	VL53L0X_GetFractionEnable
 1016              		.syntax unified
 1017              		.thumb
 1018              		.thumb_func
 1019              		.fpu fpv4-sp-d16
 1021              	VL53L0X_GetFractionEnable:
 1022              	.LFB157:
 950:Drivers/VL53L0X/API/vl53l0x_api.c **** 
 951:Drivers/VL53L0X/API/vl53l0x_api.c **** VL53L0X_Error VL53L0X_GetFractionEnable(VL53L0X_DEV Dev, uint8_t *pEnabled)
 952:Drivers/VL53L0X/API/vl53l0x_api.c **** {
 1023              		.loc 1 952 0
 1024              		.cfi_startproc
 1025              		@ args = 0, pretend = 0, frame = 0
 1026              		@ frame_needed = 0, uses_anonymous_args = 0
 1027              	.LVL98:
 1028 0000 10B5     		push	{r4, lr}
 1029              	.LCFI26:
 1030              		.cfi_def_cfa_offset 8
 1031              		.cfi_offset 4, -8
 1032              		.cfi_offset 14, -4
ARM GAS  /tmp/ccq7BpOX.s 			page 35


 1033 0002 0C46     		mov	r4, r1
 1034              	.LVL99:
 953:Drivers/VL53L0X/API/vl53l0x_api.c **** 	VL53L0X_Error Status = VL53L0X_ERROR_NONE;
 954:Drivers/VL53L0X/API/vl53l0x_api.c **** 	LOG_FUNCTION_START("");
 955:Drivers/VL53L0X/API/vl53l0x_api.c **** 
 956:Drivers/VL53L0X/API/vl53l0x_api.c **** 	Status = VL53L0X_RdByte(Dev, VL53L0X_REG_SYSTEM_RANGE_CONFIG, pEnabled);
 1035              		.loc 1 956 0
 1036 0004 0A46     		mov	r2, r1
 1037 0006 0921     		movs	r1, #9
 1038              	.LVL100:
 1039 0008 FFF7FEFF 		bl	VL53L0X_RdByte
 1040              	.LVL101:
 957:Drivers/VL53L0X/API/vl53l0x_api.c **** 
 958:Drivers/VL53L0X/API/vl53l0x_api.c **** 	if (Status == VL53L0X_ERROR_NONE)
 1041              		.loc 1 958 0
 1042 000c 0246     		mov	r2, r0
 1043 000e 18B9     		cbnz	r0, .L63
 959:Drivers/VL53L0X/API/vl53l0x_api.c **** 		*pEnabled = (*pEnabled & 1);
 1044              		.loc 1 959 0
 1045 0010 2378     		ldrb	r3, [r4]	@ zero_extendqisi2
 1046 0012 03F00103 		and	r3, r3, #1
 1047 0016 2370     		strb	r3, [r4]
 1048              	.L63:
 960:Drivers/VL53L0X/API/vl53l0x_api.c **** 
 961:Drivers/VL53L0X/API/vl53l0x_api.c **** 	LOG_FUNCTION_END(Status);
 962:Drivers/VL53L0X/API/vl53l0x_api.c **** 	return Status;
 963:Drivers/VL53L0X/API/vl53l0x_api.c **** }
 1049              		.loc 1 963 0
 1050 0018 1046     		mov	r0, r2
 1051              	.LVL102:
 1052 001a 10BD     		pop	{r4, pc}
 1053              		.cfi_endproc
 1054              	.LFE157:
 1056              		.section	.text.VL53L0X_SetHistogramMode,"ax",%progbits
 1057              		.align	1
 1058              		.global	VL53L0X_SetHistogramMode
 1059              		.syntax unified
 1060              		.thumb
 1061              		.thumb_func
 1062              		.fpu fpv4-sp-d16
 1064              	VL53L0X_SetHistogramMode:
 1065              	.LFB158:
 964:Drivers/VL53L0X/API/vl53l0x_api.c **** 
 965:Drivers/VL53L0X/API/vl53l0x_api.c **** VL53L0X_Error VL53L0X_SetHistogramMode(VL53L0X_DEV Dev,
 966:Drivers/VL53L0X/API/vl53l0x_api.c **** 	VL53L0X_HistogramModes HistogramMode)
 967:Drivers/VL53L0X/API/vl53l0x_api.c **** {
 1066              		.loc 1 967 0
 1067              		.cfi_startproc
 1068              		@ args = 0, pretend = 0, frame = 0
 1069              		@ frame_needed = 0, uses_anonymous_args = 0
 1070              		@ link register save eliminated.
 1071              	.LVL103:
 968:Drivers/VL53L0X/API/vl53l0x_api.c **** 	VL53L0X_Error Status = VL53L0X_ERROR_NOT_IMPLEMENTED;
 969:Drivers/VL53L0X/API/vl53l0x_api.c **** 	LOG_FUNCTION_START("");
 970:Drivers/VL53L0X/API/vl53l0x_api.c **** 
 971:Drivers/VL53L0X/API/vl53l0x_api.c **** 	/* not implemented on VL53L0X */
 972:Drivers/VL53L0X/API/vl53l0x_api.c **** 
ARM GAS  /tmp/ccq7BpOX.s 			page 36


 973:Drivers/VL53L0X/API/vl53l0x_api.c **** 	LOG_FUNCTION_END(Status);
 974:Drivers/VL53L0X/API/vl53l0x_api.c **** 	return Status;
 975:Drivers/VL53L0X/API/vl53l0x_api.c **** }
 1072              		.loc 1 975 0
 1073 0000 6FF06200 		mvn	r0, #98
 1074              	.LVL104:
 1075 0004 7047     		bx	lr
 1076              		.cfi_endproc
 1077              	.LFE158:
 1079              		.section	.text.VL53L0X_GetHistogramMode,"ax",%progbits
 1080              		.align	1
 1081              		.global	VL53L0X_GetHistogramMode
 1082              		.syntax unified
 1083              		.thumb
 1084              		.thumb_func
 1085              		.fpu fpv4-sp-d16
 1087              	VL53L0X_GetHistogramMode:
 1088              	.LFB159:
 976:Drivers/VL53L0X/API/vl53l0x_api.c **** 
 977:Drivers/VL53L0X/API/vl53l0x_api.c **** VL53L0X_Error VL53L0X_GetHistogramMode(VL53L0X_DEV Dev,
 978:Drivers/VL53L0X/API/vl53l0x_api.c **** 	VL53L0X_HistogramModes *pHistogramMode)
 979:Drivers/VL53L0X/API/vl53l0x_api.c **** {
 1089              		.loc 1 979 0
 1090              		.cfi_startproc
 1091              		@ args = 0, pretend = 0, frame = 0
 1092              		@ frame_needed = 0, uses_anonymous_args = 0
 1093              		@ link register save eliminated.
 1094              	.LVL105:
 980:Drivers/VL53L0X/API/vl53l0x_api.c **** 	VL53L0X_Error Status = VL53L0X_ERROR_NOT_IMPLEMENTED;
 981:Drivers/VL53L0X/API/vl53l0x_api.c **** 	LOG_FUNCTION_START("");
 982:Drivers/VL53L0X/API/vl53l0x_api.c **** 
 983:Drivers/VL53L0X/API/vl53l0x_api.c **** 	/* not implemented on VL53L0X */
 984:Drivers/VL53L0X/API/vl53l0x_api.c **** 
 985:Drivers/VL53L0X/API/vl53l0x_api.c **** 	LOG_FUNCTION_END(Status);
 986:Drivers/VL53L0X/API/vl53l0x_api.c **** 	return Status;
 987:Drivers/VL53L0X/API/vl53l0x_api.c **** }
 1095              		.loc 1 987 0
 1096 0000 6FF06200 		mvn	r0, #98
 1097              	.LVL106:
 1098 0004 7047     		bx	lr
 1099              		.cfi_endproc
 1100              	.LFE159:
 1102              		.section	.text.VL53L0X_SetMeasurementTimingBudgetMicroSeconds,"ax",%progbits
 1103              		.align	1
 1104              		.global	VL53L0X_SetMeasurementTimingBudgetMicroSeconds
 1105              		.syntax unified
 1106              		.thumb
 1107              		.thumb_func
 1108              		.fpu fpv4-sp-d16
 1110              	VL53L0X_SetMeasurementTimingBudgetMicroSeconds:
 1111              	.LFB160:
 988:Drivers/VL53L0X/API/vl53l0x_api.c **** 
 989:Drivers/VL53L0X/API/vl53l0x_api.c **** VL53L0X_Error VL53L0X_SetMeasurementTimingBudgetMicroSeconds(VL53L0X_DEV Dev,
 990:Drivers/VL53L0X/API/vl53l0x_api.c **** 	uint32_t MeasurementTimingBudgetMicroSeconds)
 991:Drivers/VL53L0X/API/vl53l0x_api.c **** {
 1112              		.loc 1 991 0
 1113              		.cfi_startproc
ARM GAS  /tmp/ccq7BpOX.s 			page 37


 1114              		@ args = 0, pretend = 0, frame = 0
 1115              		@ frame_needed = 0, uses_anonymous_args = 0
 1116              	.LVL107:
 1117 0000 08B5     		push	{r3, lr}
 1118              	.LCFI27:
 1119              		.cfi_def_cfa_offset 8
 1120              		.cfi_offset 3, -8
 1121              		.cfi_offset 14, -4
 1122              	.LVL108:
 992:Drivers/VL53L0X/API/vl53l0x_api.c **** 	VL53L0X_Error Status = VL53L0X_ERROR_NONE;
 993:Drivers/VL53L0X/API/vl53l0x_api.c **** 	LOG_FUNCTION_START("");
 994:Drivers/VL53L0X/API/vl53l0x_api.c **** 
 995:Drivers/VL53L0X/API/vl53l0x_api.c **** 	Status = VL53L0X_set_measurement_timing_budget_micro_seconds(Dev,
 1123              		.loc 1 995 0
 1124 0002 FFF7FEFF 		bl	VL53L0X_set_measurement_timing_budget_micro_seconds
 1125              	.LVL109:
 996:Drivers/VL53L0X/API/vl53l0x_api.c **** 		MeasurementTimingBudgetMicroSeconds);
 997:Drivers/VL53L0X/API/vl53l0x_api.c **** 
 998:Drivers/VL53L0X/API/vl53l0x_api.c **** 	LOG_FUNCTION_END(Status);
 999:Drivers/VL53L0X/API/vl53l0x_api.c **** 
1000:Drivers/VL53L0X/API/vl53l0x_api.c **** 	return Status;
1001:Drivers/VL53L0X/API/vl53l0x_api.c **** }
 1126              		.loc 1 1001 0
 1127 0006 08BD     		pop	{r3, pc}
 1128              		.cfi_endproc
 1129              	.LFE160:
 1131              		.section	.text.VL53L0X_GetMeasurementTimingBudgetMicroSeconds,"ax",%progbits
 1132              		.align	1
 1133              		.global	VL53L0X_GetMeasurementTimingBudgetMicroSeconds
 1134              		.syntax unified
 1135              		.thumb
 1136              		.thumb_func
 1137              		.fpu fpv4-sp-d16
 1139              	VL53L0X_GetMeasurementTimingBudgetMicroSeconds:
 1140              	.LFB161:
1002:Drivers/VL53L0X/API/vl53l0x_api.c **** 
1003:Drivers/VL53L0X/API/vl53l0x_api.c **** VL53L0X_Error VL53L0X_GetMeasurementTimingBudgetMicroSeconds(VL53L0X_DEV Dev,
1004:Drivers/VL53L0X/API/vl53l0x_api.c **** 	uint32_t *pMeasurementTimingBudgetMicroSeconds)
1005:Drivers/VL53L0X/API/vl53l0x_api.c **** {
 1141              		.loc 1 1005 0
 1142              		.cfi_startproc
 1143              		@ args = 0, pretend = 0, frame = 0
 1144              		@ frame_needed = 0, uses_anonymous_args = 0
 1145              	.LVL110:
 1146 0000 08B5     		push	{r3, lr}
 1147              	.LCFI28:
 1148              		.cfi_def_cfa_offset 8
 1149              		.cfi_offset 3, -8
 1150              		.cfi_offset 14, -4
 1151              	.LVL111:
1006:Drivers/VL53L0X/API/vl53l0x_api.c **** 	VL53L0X_Error Status = VL53L0X_ERROR_NONE;
1007:Drivers/VL53L0X/API/vl53l0x_api.c **** 	LOG_FUNCTION_START("");
1008:Drivers/VL53L0X/API/vl53l0x_api.c **** 
1009:Drivers/VL53L0X/API/vl53l0x_api.c **** 	Status = VL53L0X_get_measurement_timing_budget_micro_seconds(Dev,
 1152              		.loc 1 1009 0
 1153 0002 FFF7FEFF 		bl	VL53L0X_get_measurement_timing_budget_micro_seconds
 1154              	.LVL112:
ARM GAS  /tmp/ccq7BpOX.s 			page 38


1010:Drivers/VL53L0X/API/vl53l0x_api.c **** 		pMeasurementTimingBudgetMicroSeconds);
1011:Drivers/VL53L0X/API/vl53l0x_api.c **** 
1012:Drivers/VL53L0X/API/vl53l0x_api.c **** 	LOG_FUNCTION_END(Status);
1013:Drivers/VL53L0X/API/vl53l0x_api.c **** 	return Status;
1014:Drivers/VL53L0X/API/vl53l0x_api.c **** }
 1155              		.loc 1 1014 0
 1156 0006 08BD     		pop	{r3, pc}
 1157              		.cfi_endproc
 1158              	.LFE161:
 1160              		.section	.text.VL53L0X_SetVcselPulsePeriod,"ax",%progbits
 1161              		.align	1
 1162              		.global	VL53L0X_SetVcselPulsePeriod
 1163              		.syntax unified
 1164              		.thumb
 1165              		.thumb_func
 1166              		.fpu fpv4-sp-d16
 1168              	VL53L0X_SetVcselPulsePeriod:
 1169              	.LFB162:
1015:Drivers/VL53L0X/API/vl53l0x_api.c **** 
1016:Drivers/VL53L0X/API/vl53l0x_api.c **** VL53L0X_Error VL53L0X_SetVcselPulsePeriod(VL53L0X_DEV Dev,
1017:Drivers/VL53L0X/API/vl53l0x_api.c **** 	VL53L0X_VcselPeriod VcselPeriodType, uint8_t VCSELPulsePeriodPCLK)
1018:Drivers/VL53L0X/API/vl53l0x_api.c **** {
 1170              		.loc 1 1018 0
 1171              		.cfi_startproc
 1172              		@ args = 0, pretend = 0, frame = 0
 1173              		@ frame_needed = 0, uses_anonymous_args = 0
 1174              	.LVL113:
 1175 0000 08B5     		push	{r3, lr}
 1176              	.LCFI29:
 1177              		.cfi_def_cfa_offset 8
 1178              		.cfi_offset 3, -8
 1179              		.cfi_offset 14, -4
 1180              	.LVL114:
1019:Drivers/VL53L0X/API/vl53l0x_api.c **** 	VL53L0X_Error Status = VL53L0X_ERROR_NONE;
1020:Drivers/VL53L0X/API/vl53l0x_api.c **** 	LOG_FUNCTION_START("");
1021:Drivers/VL53L0X/API/vl53l0x_api.c **** 
1022:Drivers/VL53L0X/API/vl53l0x_api.c **** 	Status = VL53L0X_set_vcsel_pulse_period(Dev, VcselPeriodType,
 1181              		.loc 1 1022 0
 1182 0002 FFF7FEFF 		bl	VL53L0X_set_vcsel_pulse_period
 1183              	.LVL115:
1023:Drivers/VL53L0X/API/vl53l0x_api.c **** 		VCSELPulsePeriodPCLK);
1024:Drivers/VL53L0X/API/vl53l0x_api.c **** 
1025:Drivers/VL53L0X/API/vl53l0x_api.c **** 	LOG_FUNCTION_END(Status);
1026:Drivers/VL53L0X/API/vl53l0x_api.c **** 	return Status;
1027:Drivers/VL53L0X/API/vl53l0x_api.c **** }
 1184              		.loc 1 1027 0
 1185 0006 08BD     		pop	{r3, pc}
 1186              		.cfi_endproc
 1187              	.LFE162:
 1189              		.section	.text.VL53L0X_GetVcselPulsePeriod,"ax",%progbits
 1190              		.align	1
 1191              		.global	VL53L0X_GetVcselPulsePeriod
 1192              		.syntax unified
 1193              		.thumb
 1194              		.thumb_func
 1195              		.fpu fpv4-sp-d16
 1197              	VL53L0X_GetVcselPulsePeriod:
ARM GAS  /tmp/ccq7BpOX.s 			page 39


 1198              	.LFB163:
1028:Drivers/VL53L0X/API/vl53l0x_api.c **** 
1029:Drivers/VL53L0X/API/vl53l0x_api.c **** VL53L0X_Error VL53L0X_GetVcselPulsePeriod(VL53L0X_DEV Dev,
1030:Drivers/VL53L0X/API/vl53l0x_api.c **** 	VL53L0X_VcselPeriod VcselPeriodType, uint8_t *pVCSELPulsePeriodPCLK)
1031:Drivers/VL53L0X/API/vl53l0x_api.c **** {
 1199              		.loc 1 1031 0
 1200              		.cfi_startproc
 1201              		@ args = 0, pretend = 0, frame = 0
 1202              		@ frame_needed = 0, uses_anonymous_args = 0
 1203              	.LVL116:
 1204 0000 08B5     		push	{r3, lr}
 1205              	.LCFI30:
 1206              		.cfi_def_cfa_offset 8
 1207              		.cfi_offset 3, -8
 1208              		.cfi_offset 14, -4
 1209              	.LVL117:
1032:Drivers/VL53L0X/API/vl53l0x_api.c **** 	VL53L0X_Error Status = VL53L0X_ERROR_NONE;
1033:Drivers/VL53L0X/API/vl53l0x_api.c **** 	LOG_FUNCTION_START("");
1034:Drivers/VL53L0X/API/vl53l0x_api.c **** 
1035:Drivers/VL53L0X/API/vl53l0x_api.c **** 	Status = VL53L0X_get_vcsel_pulse_period(Dev, VcselPeriodType,
 1210              		.loc 1 1035 0
 1211 0002 FFF7FEFF 		bl	VL53L0X_get_vcsel_pulse_period
 1212              	.LVL118:
1036:Drivers/VL53L0X/API/vl53l0x_api.c **** 		pVCSELPulsePeriodPCLK);
1037:Drivers/VL53L0X/API/vl53l0x_api.c **** 
1038:Drivers/VL53L0X/API/vl53l0x_api.c **** 	LOG_FUNCTION_END(Status);
1039:Drivers/VL53L0X/API/vl53l0x_api.c **** 	return Status;
1040:Drivers/VL53L0X/API/vl53l0x_api.c **** }
 1213              		.loc 1 1040 0
 1214 0006 08BD     		pop	{r3, pc}
 1215              		.cfi_endproc
 1216              	.LFE163:
 1218              		.section	.text.VL53L0X_SetSequenceStepEnable,"ax",%progbits
 1219              		.align	1
 1220              		.global	VL53L0X_SetSequenceStepEnable
 1221              		.syntax unified
 1222              		.thumb
 1223              		.thumb_func
 1224              		.fpu fpv4-sp-d16
 1226              	VL53L0X_SetSequenceStepEnable:
 1227              	.LFB164:
1041:Drivers/VL53L0X/API/vl53l0x_api.c **** 
1042:Drivers/VL53L0X/API/vl53l0x_api.c **** VL53L0X_Error VL53L0X_SetSequenceStepEnable(VL53L0X_DEV Dev,
1043:Drivers/VL53L0X/API/vl53l0x_api.c **** 	VL53L0X_SequenceStepId SequenceStepId, uint8_t SequenceStepEnabled)
1044:Drivers/VL53L0X/API/vl53l0x_api.c **** {
 1228              		.loc 1 1044 0
 1229              		.cfi_startproc
 1230              		@ args = 0, pretend = 0, frame = 8
 1231              		@ frame_needed = 0, uses_anonymous_args = 0
 1232              	.LVL119:
 1233 0000 F0B5     		push	{r4, r5, r6, r7, lr}
 1234              	.LCFI31:
 1235              		.cfi_def_cfa_offset 20
 1236              		.cfi_offset 4, -20
 1237              		.cfi_offset 5, -16
 1238              		.cfi_offset 6, -12
 1239              		.cfi_offset 7, -8
ARM GAS  /tmp/ccq7BpOX.s 			page 40


 1240              		.cfi_offset 14, -4
 1241 0002 83B0     		sub	sp, sp, #12
 1242              	.LCFI32:
 1243              		.cfi_def_cfa_offset 32
 1244 0004 0646     		mov	r6, r0
 1245 0006 0D46     		mov	r5, r1
 1246 0008 1746     		mov	r7, r2
 1247              	.LVL120:
1045:Drivers/VL53L0X/API/vl53l0x_api.c **** 	VL53L0X_Error Status = VL53L0X_ERROR_NONE;
1046:Drivers/VL53L0X/API/vl53l0x_api.c **** 	uint8_t SequenceConfig = 0;
 1248              		.loc 1 1046 0
 1249 000a 02AA     		add	r2, sp, #8
 1250              	.LVL121:
 1251 000c 0023     		movs	r3, #0
 1252 000e 02F8013D 		strb	r3, [r2, #-1]!
 1253              	.LVL122:
1047:Drivers/VL53L0X/API/vl53l0x_api.c **** 	uint8_t SequenceConfigNew = 0;
1048:Drivers/VL53L0X/API/vl53l0x_api.c **** 	uint32_t MeasurementTimingBudgetMicroSeconds;
1049:Drivers/VL53L0X/API/vl53l0x_api.c **** 	LOG_FUNCTION_START("");
1050:Drivers/VL53L0X/API/vl53l0x_api.c **** 
1051:Drivers/VL53L0X/API/vl53l0x_api.c **** 	Status = VL53L0X_RdByte(Dev, VL53L0X_REG_SYSTEM_SEQUENCE_CONFIG,
 1254              		.loc 1 1051 0
 1255 0012 0121     		movs	r1, #1
 1256              	.LVL123:
 1257 0014 FFF7FEFF 		bl	VL53L0X_RdByte
 1258              	.LVL124:
1052:Drivers/VL53L0X/API/vl53l0x_api.c **** 		&SequenceConfig);
1053:Drivers/VL53L0X/API/vl53l0x_api.c **** 
1054:Drivers/VL53L0X/API/vl53l0x_api.c **** 	SequenceConfigNew = SequenceConfig;
 1259              		.loc 1 1054 0
 1260 0018 9DF80730 		ldrb	r3, [sp, #7]	@ zero_extendqisi2
 1261              	.LVL125:
1055:Drivers/VL53L0X/API/vl53l0x_api.c **** 
1056:Drivers/VL53L0X/API/vl53l0x_api.c **** 	if (Status == VL53L0X_ERROR_NONE) {
 1262              		.loc 1 1056 0
 1263 001c 0446     		mov	r4, r0
 1264 001e 68BB     		cbnz	r0, .L93
1057:Drivers/VL53L0X/API/vl53l0x_api.c **** 		if (SequenceStepEnabled == 1) {
 1265              		.loc 1 1057 0
 1266 0020 012F     		cmp	r7, #1
 1267 0022 06D0     		beq	.L97
1058:Drivers/VL53L0X/API/vl53l0x_api.c **** 
1059:Drivers/VL53L0X/API/vl53l0x_api.c **** 			/* Enable requested sequence step
1060:Drivers/VL53L0X/API/vl53l0x_api.c **** 			 */
1061:Drivers/VL53L0X/API/vl53l0x_api.c **** 			switch (SequenceStepId) {
1062:Drivers/VL53L0X/API/vl53l0x_api.c **** 			case VL53L0X_SEQUENCESTEP_TCC:
1063:Drivers/VL53L0X/API/vl53l0x_api.c **** 				SequenceConfigNew |= 0x10;
1064:Drivers/VL53L0X/API/vl53l0x_api.c **** 				break;
1065:Drivers/VL53L0X/API/vl53l0x_api.c **** 			case VL53L0X_SEQUENCESTEP_DSS:
1066:Drivers/VL53L0X/API/vl53l0x_api.c **** 				SequenceConfigNew |= 0x28;
1067:Drivers/VL53L0X/API/vl53l0x_api.c **** 				break;
1068:Drivers/VL53L0X/API/vl53l0x_api.c **** 			case VL53L0X_SEQUENCESTEP_MSRC:
1069:Drivers/VL53L0X/API/vl53l0x_api.c **** 				SequenceConfigNew |= 0x04;
1070:Drivers/VL53L0X/API/vl53l0x_api.c **** 				break;
1071:Drivers/VL53L0X/API/vl53l0x_api.c **** 			case VL53L0X_SEQUENCESTEP_PRE_RANGE:
1072:Drivers/VL53L0X/API/vl53l0x_api.c **** 				SequenceConfigNew |= 0x40;
1073:Drivers/VL53L0X/API/vl53l0x_api.c **** 				break;
ARM GAS  /tmp/ccq7BpOX.s 			page 41


1074:Drivers/VL53L0X/API/vl53l0x_api.c **** 			case VL53L0X_SEQUENCESTEP_FINAL_RANGE:
1075:Drivers/VL53L0X/API/vl53l0x_api.c **** 				SequenceConfigNew |= 0x80;
1076:Drivers/VL53L0X/API/vl53l0x_api.c **** 				break;
1077:Drivers/VL53L0X/API/vl53l0x_api.c **** 			default:
1078:Drivers/VL53L0X/API/vl53l0x_api.c **** 				Status = VL53L0X_ERROR_INVALID_PARAMS;
1079:Drivers/VL53L0X/API/vl53l0x_api.c **** 			}
1080:Drivers/VL53L0X/API/vl53l0x_api.c **** 		} else {
1081:Drivers/VL53L0X/API/vl53l0x_api.c **** 			/* Disable requested sequence step
1082:Drivers/VL53L0X/API/vl53l0x_api.c **** 			 */
1083:Drivers/VL53L0X/API/vl53l0x_api.c **** 			switch (SequenceStepId) {
 1268              		.loc 1 1083 0
 1269 0024 042D     		cmp	r5, #4
 1270 0026 38D8     		bhi	.L95
 1271 0028 DFE805F0 		tbb	[pc, r5]
 1272              	.L85:
 1273 002c 19       		.byte	(.L84-.L85)/2
 1274 002d 1C       		.byte	(.L86-.L85)/2
 1275 002e 1F       		.byte	(.L87-.L85)/2
 1276 002f 22       		.byte	(.L88-.L85)/2
 1277 0030 25       		.byte	(.L89-.L85)/2
 1278 0031 00       		.p2align 1
 1279              	.L97:
1061:Drivers/VL53L0X/API/vl53l0x_api.c **** 			case VL53L0X_SEQUENCESTEP_TCC:
 1280              		.loc 1 1061 0
 1281 0032 042D     		cmp	r5, #4
 1282 0034 2DD8     		bhi	.L94
 1283 0036 DFE805F0 		tbb	[pc, r5]
 1284              	.L79:
 1285 003a 03       		.byte	(.L78-.L79)/2
 1286 003b 06       		.byte	(.L80-.L79)/2
 1287 003c 09       		.byte	(.L81-.L79)/2
 1288 003d 0C       		.byte	(.L82-.L79)/2
 1289 003e 0F       		.byte	(.L83-.L79)/2
 1290 003f 00       		.p2align 1
 1291              	.L78:
1063:Drivers/VL53L0X/API/vl53l0x_api.c **** 				break;
 1292              		.loc 1 1063 0
 1293 0040 43F01005 		orr	r5, r3, #16
 1294              	.LVL126:
1064:Drivers/VL53L0X/API/vl53l0x_api.c **** 			case VL53L0X_SEQUENCESTEP_DSS:
 1295              		.loc 1 1064 0
 1296 0044 1BE0     		b	.L76
 1297              	.LVL127:
 1298              	.L80:
1066:Drivers/VL53L0X/API/vl53l0x_api.c **** 				break;
 1299              		.loc 1 1066 0
 1300 0046 43F02805 		orr	r5, r3, #40
 1301              	.LVL128:
1067:Drivers/VL53L0X/API/vl53l0x_api.c **** 			case VL53L0X_SEQUENCESTEP_MSRC:
 1302              		.loc 1 1067 0
 1303 004a 18E0     		b	.L76
 1304              	.LVL129:
 1305              	.L81:
1069:Drivers/VL53L0X/API/vl53l0x_api.c **** 				break;
 1306              		.loc 1 1069 0
 1307 004c 43F00405 		orr	r5, r3, #4
 1308              	.LVL130:
ARM GAS  /tmp/ccq7BpOX.s 			page 42


1070:Drivers/VL53L0X/API/vl53l0x_api.c **** 			case VL53L0X_SEQUENCESTEP_PRE_RANGE:
 1309              		.loc 1 1070 0
 1310 0050 15E0     		b	.L76
 1311              	.LVL131:
 1312              	.L82:
1072:Drivers/VL53L0X/API/vl53l0x_api.c **** 				break;
 1313              		.loc 1 1072 0
 1314 0052 43F04005 		orr	r5, r3, #64
 1315              	.LVL132:
1073:Drivers/VL53L0X/API/vl53l0x_api.c **** 			case VL53L0X_SEQUENCESTEP_FINAL_RANGE:
 1316              		.loc 1 1073 0
 1317 0056 12E0     		b	.L76
 1318              	.LVL133:
 1319              	.L83:
1075:Drivers/VL53L0X/API/vl53l0x_api.c **** 				break;
 1320              		.loc 1 1075 0
 1321 0058 43F08005 		orr	r5, r3, #128
 1322              	.LVL134:
1076:Drivers/VL53L0X/API/vl53l0x_api.c **** 			default:
 1323              		.loc 1 1076 0
 1324 005c 0FE0     		b	.L76
 1325              	.LVL135:
 1326              	.L84:
1084:Drivers/VL53L0X/API/vl53l0x_api.c **** 			case VL53L0X_SEQUENCESTEP_TCC:
1085:Drivers/VL53L0X/API/vl53l0x_api.c **** 				SequenceConfigNew &= 0xef;
 1327              		.loc 1 1085 0
 1328 005e 03F0EF05 		and	r5, r3, #239
 1329              	.LVL136:
1086:Drivers/VL53L0X/API/vl53l0x_api.c **** 				break;
 1330              		.loc 1 1086 0
 1331 0062 0CE0     		b	.L76
 1332              	.LVL137:
 1333              	.L86:
1087:Drivers/VL53L0X/API/vl53l0x_api.c **** 			case VL53L0X_SEQUENCESTEP_DSS:
1088:Drivers/VL53L0X/API/vl53l0x_api.c **** 				SequenceConfigNew &= 0xd7;
 1334              		.loc 1 1088 0
 1335 0064 03F0D705 		and	r5, r3, #215
 1336              	.LVL138:
1089:Drivers/VL53L0X/API/vl53l0x_api.c **** 				break;
 1337              		.loc 1 1089 0
 1338 0068 09E0     		b	.L76
 1339              	.LVL139:
 1340              	.L87:
1090:Drivers/VL53L0X/API/vl53l0x_api.c **** 			case VL53L0X_SEQUENCESTEP_MSRC:
1091:Drivers/VL53L0X/API/vl53l0x_api.c **** 				SequenceConfigNew &= 0xfb;
 1341              		.loc 1 1091 0
 1342 006a 03F0FB05 		and	r5, r3, #251
 1343              	.LVL140:
1092:Drivers/VL53L0X/API/vl53l0x_api.c **** 				break;
 1344              		.loc 1 1092 0
 1345 006e 06E0     		b	.L76
 1346              	.LVL141:
 1347              	.L88:
1093:Drivers/VL53L0X/API/vl53l0x_api.c **** 			case VL53L0X_SEQUENCESTEP_PRE_RANGE:
1094:Drivers/VL53L0X/API/vl53l0x_api.c **** 				SequenceConfigNew &= 0xbf;
 1348              		.loc 1 1094 0
 1349 0070 03F0BF05 		and	r5, r3, #191
ARM GAS  /tmp/ccq7BpOX.s 			page 43


 1350              	.LVL142:
1095:Drivers/VL53L0X/API/vl53l0x_api.c **** 				break;
 1351              		.loc 1 1095 0
 1352 0074 03E0     		b	.L76
 1353              	.LVL143:
 1354              	.L89:
1096:Drivers/VL53L0X/API/vl53l0x_api.c **** 			case VL53L0X_SEQUENCESTEP_FINAL_RANGE:
1097:Drivers/VL53L0X/API/vl53l0x_api.c **** 				SequenceConfigNew &= 0x7f;
 1355              		.loc 1 1097 0
 1356 0076 03F07F05 		and	r5, r3, #127
 1357              	.LVL144:
1098:Drivers/VL53L0X/API/vl53l0x_api.c **** 				break;
 1358              		.loc 1 1098 0
 1359 007a 00E0     		b	.L76
 1360              	.LVL145:
 1361              	.L93:
1054:Drivers/VL53L0X/API/vl53l0x_api.c **** 
 1362              		.loc 1 1054 0
 1363 007c 1D46     		mov	r5, r3
 1364              	.LVL146:
 1365              	.L76:
1099:Drivers/VL53L0X/API/vl53l0x_api.c **** 			default:
1100:Drivers/VL53L0X/API/vl53l0x_api.c **** 				Status = VL53L0X_ERROR_INVALID_PARAMS;
1101:Drivers/VL53L0X/API/vl53l0x_api.c **** 			}
1102:Drivers/VL53L0X/API/vl53l0x_api.c **** 		}
1103:Drivers/VL53L0X/API/vl53l0x_api.c **** 	}
1104:Drivers/VL53L0X/API/vl53l0x_api.c **** 
1105:Drivers/VL53L0X/API/vl53l0x_api.c **** 	if (SequenceConfigNew != SequenceConfig) {
 1366              		.loc 1 1105 0
 1367 007e 9D42     		cmp	r5, r3
 1368 0080 04D0     		beq	.L90
1106:Drivers/VL53L0X/API/vl53l0x_api.c **** 		/* Apply New Setting */
1107:Drivers/VL53L0X/API/vl53l0x_api.c **** 		if (Status == VL53L0X_ERROR_NONE) {
 1369              		.loc 1 1107 0
 1370 0082 74B1     		cbz	r4, .L98
 1371              	.L91:
1108:Drivers/VL53L0X/API/vl53l0x_api.c **** 			Status = VL53L0X_WrByte(Dev,
1109:Drivers/VL53L0X/API/vl53l0x_api.c **** 			VL53L0X_REG_SYSTEM_SEQUENCE_CONFIG, SequenceConfigNew);
1110:Drivers/VL53L0X/API/vl53l0x_api.c **** 		}
1111:Drivers/VL53L0X/API/vl53l0x_api.c **** 		if (Status == VL53L0X_ERROR_NONE)
 1372              		.loc 1 1111 0
 1373 0084 0CB9     		cbnz	r4, .L92
1112:Drivers/VL53L0X/API/vl53l0x_api.c **** 			PALDevDataSet(Dev, SequenceConfig, SequenceConfigNew);
 1374              		.loc 1 1112 0
 1375 0086 86F83051 		strb	r5, [r6, #304]
 1376              	.L92:
1113:Drivers/VL53L0X/API/vl53l0x_api.c **** 
1114:Drivers/VL53L0X/API/vl53l0x_api.c **** 
1115:Drivers/VL53L0X/API/vl53l0x_api.c **** 		/* Recalculate timing budget */
1116:Drivers/VL53L0X/API/vl53l0x_api.c **** 		if (Status == VL53L0X_ERROR_NONE) {
 1377              		.loc 1 1116 0
 1378 008a 8CB1     		cbz	r4, .L99
 1379              	.L90:
1117:Drivers/VL53L0X/API/vl53l0x_api.c **** 			VL53L0X_GETPARAMETERFIELD(Dev,
1118:Drivers/VL53L0X/API/vl53l0x_api.c **** 				MeasurementTimingBudgetMicroSeconds,
1119:Drivers/VL53L0X/API/vl53l0x_api.c **** 				MeasurementTimingBudgetMicroSeconds);
1120:Drivers/VL53L0X/API/vl53l0x_api.c **** 
ARM GAS  /tmp/ccq7BpOX.s 			page 44


1121:Drivers/VL53L0X/API/vl53l0x_api.c **** 			VL53L0X_SetMeasurementTimingBudgetMicroSeconds(Dev,
1122:Drivers/VL53L0X/API/vl53l0x_api.c **** 				MeasurementTimingBudgetMicroSeconds);
1123:Drivers/VL53L0X/API/vl53l0x_api.c **** 		}
1124:Drivers/VL53L0X/API/vl53l0x_api.c **** 	}
1125:Drivers/VL53L0X/API/vl53l0x_api.c **** 
1126:Drivers/VL53L0X/API/vl53l0x_api.c **** 	LOG_FUNCTION_END(Status);
1127:Drivers/VL53L0X/API/vl53l0x_api.c **** 
1128:Drivers/VL53L0X/API/vl53l0x_api.c **** 	return Status;
1129:Drivers/VL53L0X/API/vl53l0x_api.c **** }
 1380              		.loc 1 1129 0
 1381 008c 2046     		mov	r0, r4
 1382 008e 03B0     		add	sp, sp, #12
 1383              	.LCFI33:
 1384              		.cfi_remember_state
 1385              		.cfi_def_cfa_offset 20
 1386              		@ sp needed
 1387 0090 F0BD     		pop	{r4, r5, r6, r7, pc}
 1388              	.LVL147:
 1389              	.L94:
1054:Drivers/VL53L0X/API/vl53l0x_api.c **** 
 1390              		.loc 1 1054 0
 1391 0092 1D46     		mov	r5, r3
1078:Drivers/VL53L0X/API/vl53l0x_api.c **** 			}
 1392              		.loc 1 1078 0
 1393 0094 6FF00304 		mvn	r4, #3
 1394 0098 F1E7     		b	.L76
 1395              	.L95:
1054:Drivers/VL53L0X/API/vl53l0x_api.c **** 
 1396              		.loc 1 1054 0
 1397 009a 1D46     		mov	r5, r3
1100:Drivers/VL53L0X/API/vl53l0x_api.c **** 			}
 1398              		.loc 1 1100 0
 1399 009c 6FF00304 		mvn	r4, #3
 1400 00a0 EDE7     		b	.L76
 1401              	.LVL148:
 1402              	.L98:
 1403              	.LCFI34:
 1404              		.cfi_restore_state
1108:Drivers/VL53L0X/API/vl53l0x_api.c **** 			VL53L0X_REG_SYSTEM_SEQUENCE_CONFIG, SequenceConfigNew);
 1405              		.loc 1 1108 0
 1406 00a2 2A46     		mov	r2, r5
 1407 00a4 0121     		movs	r1, #1
 1408 00a6 3046     		mov	r0, r6
 1409 00a8 FFF7FEFF 		bl	VL53L0X_WrByte
 1410              	.LVL149:
 1411 00ac 0446     		mov	r4, r0
 1412              	.LVL150:
 1413 00ae E9E7     		b	.L91
 1414              	.L99:
 1415              	.LVL151:
1121:Drivers/VL53L0X/API/vl53l0x_api.c **** 				MeasurementTimingBudgetMicroSeconds);
 1416              		.loc 1 1121 0
 1417 00b0 7169     		ldr	r1, [r6, #20]
 1418 00b2 3046     		mov	r0, r6
 1419 00b4 FFF7FEFF 		bl	VL53L0X_SetMeasurementTimingBudgetMicroSeconds
 1420              	.LVL152:
 1421 00b8 E8E7     		b	.L90
ARM GAS  /tmp/ccq7BpOX.s 			page 45


 1422              		.cfi_endproc
 1423              	.LFE164:
 1425              		.section	.text.sequence_step_enabled,"ax",%progbits
 1426              		.align	1
 1427              		.global	sequence_step_enabled
 1428              		.syntax unified
 1429              		.thumb
 1430              		.thumb_func
 1431              		.fpu fpv4-sp-d16
 1433              	sequence_step_enabled:
 1434              	.LFB165:
1130:Drivers/VL53L0X/API/vl53l0x_api.c **** 
1131:Drivers/VL53L0X/API/vl53l0x_api.c **** VL53L0X_Error sequence_step_enabled(VL53L0X_DEV Dev,
1132:Drivers/VL53L0X/API/vl53l0x_api.c **** 	VL53L0X_SequenceStepId SequenceStepId, uint8_t SequenceConfig,
1133:Drivers/VL53L0X/API/vl53l0x_api.c **** 	uint8_t *pSequenceStepEnabled)
1134:Drivers/VL53L0X/API/vl53l0x_api.c **** {
 1435              		.loc 1 1134 0
 1436              		.cfi_startproc
 1437              		@ args = 0, pretend = 0, frame = 0
 1438              		@ frame_needed = 0, uses_anonymous_args = 0
 1439              		@ link register save eliminated.
 1440              	.LVL153:
1135:Drivers/VL53L0X/API/vl53l0x_api.c **** 	VL53L0X_Error Status = VL53L0X_ERROR_NONE;
1136:Drivers/VL53L0X/API/vl53l0x_api.c **** 	*pSequenceStepEnabled = 0;
 1441              		.loc 1 1136 0
 1442 0000 0020     		movs	r0, #0
 1443              	.LVL154:
 1444 0002 1870     		strb	r0, [r3]
1137:Drivers/VL53L0X/API/vl53l0x_api.c **** 	LOG_FUNCTION_START("");
1138:Drivers/VL53L0X/API/vl53l0x_api.c **** 
1139:Drivers/VL53L0X/API/vl53l0x_api.c **** 	switch (SequenceStepId) {
 1445              		.loc 1 1139 0
 1446 0004 0429     		cmp	r1, #4
 1447 0006 1CD8     		bhi	.L108
 1448 0008 DFE801F0 		tbb	[pc, r1]
 1449              	.L103:
 1450 000c 03       		.byte	(.L102-.L103)/2
 1451 000d 08       		.byte	(.L104-.L103)/2
 1452 000e 0D       		.byte	(.L105-.L103)/2
 1453 000f 12       		.byte	(.L106-.L103)/2
 1454 0010 17       		.byte	(.L107-.L103)/2
 1455 0011 00       		.p2align 1
 1456              	.L102:
1140:Drivers/VL53L0X/API/vl53l0x_api.c **** 	case VL53L0X_SEQUENCESTEP_TCC:
1141:Drivers/VL53L0X/API/vl53l0x_api.c **** 		*pSequenceStepEnabled = (SequenceConfig & 0x10) >> 4;
 1457              		.loc 1 1141 0
 1458 0012 C2F30012 		ubfx	r2, r2, #4, #1
 1459              	.LVL155:
 1460 0016 1A70     		strb	r2, [r3]
1135:Drivers/VL53L0X/API/vl53l0x_api.c **** 	*pSequenceStepEnabled = 0;
 1461              		.loc 1 1135 0
 1462 0018 0020     		movs	r0, #0
1142:Drivers/VL53L0X/API/vl53l0x_api.c **** 		break;
 1463              		.loc 1 1142 0
 1464 001a 7047     		bx	lr
 1465              	.LVL156:
 1466              	.L104:
ARM GAS  /tmp/ccq7BpOX.s 			page 46


1143:Drivers/VL53L0X/API/vl53l0x_api.c **** 	case VL53L0X_SEQUENCESTEP_DSS:
1144:Drivers/VL53L0X/API/vl53l0x_api.c **** 		*pSequenceStepEnabled = (SequenceConfig & 0x08) >> 3;
 1467              		.loc 1 1144 0
 1468 001c C2F3C002 		ubfx	r2, r2, #3, #1
 1469              	.LVL157:
 1470 0020 1A70     		strb	r2, [r3]
1135:Drivers/VL53L0X/API/vl53l0x_api.c **** 	*pSequenceStepEnabled = 0;
 1471              		.loc 1 1135 0
 1472 0022 0020     		movs	r0, #0
1145:Drivers/VL53L0X/API/vl53l0x_api.c **** 		break;
 1473              		.loc 1 1145 0
 1474 0024 7047     		bx	lr
 1475              	.LVL158:
 1476              	.L105:
1146:Drivers/VL53L0X/API/vl53l0x_api.c **** 	case VL53L0X_SEQUENCESTEP_MSRC:
1147:Drivers/VL53L0X/API/vl53l0x_api.c **** 		*pSequenceStepEnabled = (SequenceConfig & 0x04) >> 2;
 1477              		.loc 1 1147 0
 1478 0026 C2F38002 		ubfx	r2, r2, #2, #1
 1479              	.LVL159:
 1480 002a 1A70     		strb	r2, [r3]
1135:Drivers/VL53L0X/API/vl53l0x_api.c **** 	*pSequenceStepEnabled = 0;
 1481              		.loc 1 1135 0
 1482 002c 0020     		movs	r0, #0
1148:Drivers/VL53L0X/API/vl53l0x_api.c **** 		break;
 1483              		.loc 1 1148 0
 1484 002e 7047     		bx	lr
 1485              	.LVL160:
 1486              	.L106:
1149:Drivers/VL53L0X/API/vl53l0x_api.c **** 	case VL53L0X_SEQUENCESTEP_PRE_RANGE:
1150:Drivers/VL53L0X/API/vl53l0x_api.c **** 		*pSequenceStepEnabled = (SequenceConfig & 0x40) >> 6;
 1487              		.loc 1 1150 0
 1488 0030 C2F38012 		ubfx	r2, r2, #6, #1
 1489              	.LVL161:
 1490 0034 1A70     		strb	r2, [r3]
1135:Drivers/VL53L0X/API/vl53l0x_api.c **** 	*pSequenceStepEnabled = 0;
 1491              		.loc 1 1135 0
 1492 0036 0020     		movs	r0, #0
1151:Drivers/VL53L0X/API/vl53l0x_api.c **** 		break;
 1493              		.loc 1 1151 0
 1494 0038 7047     		bx	lr
 1495              	.LVL162:
 1496              	.L107:
1152:Drivers/VL53L0X/API/vl53l0x_api.c **** 	case VL53L0X_SEQUENCESTEP_FINAL_RANGE:
1153:Drivers/VL53L0X/API/vl53l0x_api.c **** 		*pSequenceStepEnabled = (SequenceConfig & 0x80) >> 7;
 1497              		.loc 1 1153 0
 1498 003a D209     		lsrs	r2, r2, #7
 1499              	.LVL163:
 1500 003c 1A70     		strb	r2, [r3]
1135:Drivers/VL53L0X/API/vl53l0x_api.c **** 	*pSequenceStepEnabled = 0;
 1501              		.loc 1 1135 0
 1502 003e 0020     		movs	r0, #0
1154:Drivers/VL53L0X/API/vl53l0x_api.c **** 		break;
 1503              		.loc 1 1154 0
 1504 0040 7047     		bx	lr
 1505              	.LVL164:
 1506              	.L108:
1155:Drivers/VL53L0X/API/vl53l0x_api.c **** 	default:
ARM GAS  /tmp/ccq7BpOX.s 			page 47


1156:Drivers/VL53L0X/API/vl53l0x_api.c **** 		Status = VL53L0X_ERROR_INVALID_PARAMS;
 1507              		.loc 1 1156 0
 1508 0042 6FF00300 		mvn	r0, #3
 1509              	.LVL165:
1157:Drivers/VL53L0X/API/vl53l0x_api.c **** 	}
1158:Drivers/VL53L0X/API/vl53l0x_api.c **** 
1159:Drivers/VL53L0X/API/vl53l0x_api.c **** 	LOG_FUNCTION_END(Status);
1160:Drivers/VL53L0X/API/vl53l0x_api.c **** 	return Status;
1161:Drivers/VL53L0X/API/vl53l0x_api.c **** }
 1510              		.loc 1 1161 0
 1511 0046 7047     		bx	lr
 1512              		.cfi_endproc
 1513              	.LFE165:
 1515              		.section	.text.VL53L0X_GetSequenceStepEnable,"ax",%progbits
 1516              		.align	1
 1517              		.global	VL53L0X_GetSequenceStepEnable
 1518              		.syntax unified
 1519              		.thumb
 1520              		.thumb_func
 1521              		.fpu fpv4-sp-d16
 1523              	VL53L0X_GetSequenceStepEnable:
 1524              	.LFB166:
1162:Drivers/VL53L0X/API/vl53l0x_api.c **** 
1163:Drivers/VL53L0X/API/vl53l0x_api.c **** VL53L0X_Error VL53L0X_GetSequenceStepEnable(VL53L0X_DEV Dev,
1164:Drivers/VL53L0X/API/vl53l0x_api.c **** 	VL53L0X_SequenceStepId SequenceStepId, uint8_t *pSequenceStepEnabled)
1165:Drivers/VL53L0X/API/vl53l0x_api.c **** {
 1525              		.loc 1 1165 0
 1526              		.cfi_startproc
 1527              		@ args = 0, pretend = 0, frame = 8
 1528              		@ frame_needed = 0, uses_anonymous_args = 0
 1529              	.LVL166:
 1530 0000 70B5     		push	{r4, r5, r6, lr}
 1531              	.LCFI35:
 1532              		.cfi_def_cfa_offset 16
 1533              		.cfi_offset 4, -16
 1534              		.cfi_offset 5, -12
 1535              		.cfi_offset 6, -8
 1536              		.cfi_offset 14, -4
 1537 0002 82B0     		sub	sp, sp, #8
 1538              	.LCFI36:
 1539              		.cfi_def_cfa_offset 24
 1540 0004 0446     		mov	r4, r0
 1541 0006 0D46     		mov	r5, r1
 1542 0008 1646     		mov	r6, r2
 1543              	.LVL167:
1166:Drivers/VL53L0X/API/vl53l0x_api.c **** 	VL53L0X_Error Status = VL53L0X_ERROR_NONE;
1167:Drivers/VL53L0X/API/vl53l0x_api.c **** 	uint8_t SequenceConfig = 0;
 1544              		.loc 1 1167 0
 1545 000a 02AA     		add	r2, sp, #8
 1546              	.LVL168:
 1547 000c 0023     		movs	r3, #0
 1548 000e 02F8013D 		strb	r3, [r2, #-1]!
1168:Drivers/VL53L0X/API/vl53l0x_api.c **** 	LOG_FUNCTION_START("");
1169:Drivers/VL53L0X/API/vl53l0x_api.c **** 
1170:Drivers/VL53L0X/API/vl53l0x_api.c **** 	Status = VL53L0X_RdByte(Dev, VL53L0X_REG_SYSTEM_SEQUENCE_CONFIG,
 1549              		.loc 1 1170 0
 1550 0012 0121     		movs	r1, #1
ARM GAS  /tmp/ccq7BpOX.s 			page 48


 1551              	.LVL169:
 1552 0014 FFF7FEFF 		bl	VL53L0X_RdByte
 1553              	.LVL170:
1171:Drivers/VL53L0X/API/vl53l0x_api.c **** 		&SequenceConfig);
1172:Drivers/VL53L0X/API/vl53l0x_api.c **** 
1173:Drivers/VL53L0X/API/vl53l0x_api.c **** 	if (Status == VL53L0X_ERROR_NONE) {
 1554              		.loc 1 1173 0
 1555 0018 0346     		mov	r3, r0
 1556 001a 10B1     		cbz	r0, .L112
 1557              	.LVL171:
 1558              	.L110:
1174:Drivers/VL53L0X/API/vl53l0x_api.c **** 		Status = sequence_step_enabled(Dev, SequenceStepId,
1175:Drivers/VL53L0X/API/vl53l0x_api.c **** 			SequenceConfig, pSequenceStepEnabled);
1176:Drivers/VL53L0X/API/vl53l0x_api.c **** 	}
1177:Drivers/VL53L0X/API/vl53l0x_api.c **** 
1178:Drivers/VL53L0X/API/vl53l0x_api.c **** 	LOG_FUNCTION_END(Status);
1179:Drivers/VL53L0X/API/vl53l0x_api.c **** 	return Status;
1180:Drivers/VL53L0X/API/vl53l0x_api.c **** }
 1559              		.loc 1 1180 0
 1560 001c 1846     		mov	r0, r3
 1561 001e 02B0     		add	sp, sp, #8
 1562              	.LCFI37:
 1563              		.cfi_remember_state
 1564              		.cfi_def_cfa_offset 16
 1565              		@ sp needed
 1566 0020 70BD     		pop	{r4, r5, r6, pc}
 1567              	.LVL172:
 1568              	.L112:
 1569              	.LCFI38:
 1570              		.cfi_restore_state
1174:Drivers/VL53L0X/API/vl53l0x_api.c **** 		Status = sequence_step_enabled(Dev, SequenceStepId,
 1571              		.loc 1 1174 0
 1572 0022 3346     		mov	r3, r6
 1573 0024 9DF80720 		ldrb	r2, [sp, #7]	@ zero_extendqisi2
 1574 0028 2946     		mov	r1, r5
 1575 002a 2046     		mov	r0, r4
 1576              	.LVL173:
 1577 002c FFF7FEFF 		bl	sequence_step_enabled
 1578              	.LVL174:
 1579 0030 0346     		mov	r3, r0
 1580              	.LVL175:
 1581 0032 F3E7     		b	.L110
 1582              		.cfi_endproc
 1583              	.LFE166:
 1585              		.section	.text.VL53L0X_GetSequenceStepEnables,"ax",%progbits
 1586              		.align	1
 1587              		.global	VL53L0X_GetSequenceStepEnables
 1588              		.syntax unified
 1589              		.thumb
 1590              		.thumb_func
 1591              		.fpu fpv4-sp-d16
 1593              	VL53L0X_GetSequenceStepEnables:
 1594              	.LFB167:
1181:Drivers/VL53L0X/API/vl53l0x_api.c **** 
1182:Drivers/VL53L0X/API/vl53l0x_api.c **** VL53L0X_Error VL53L0X_GetSequenceStepEnables(VL53L0X_DEV Dev,
1183:Drivers/VL53L0X/API/vl53l0x_api.c **** 	VL53L0X_SchedulerSequenceSteps_t *pSchedulerSequenceSteps)
1184:Drivers/VL53L0X/API/vl53l0x_api.c **** {
ARM GAS  /tmp/ccq7BpOX.s 			page 49


 1595              		.loc 1 1184 0
 1596              		.cfi_startproc
 1597              		@ args = 0, pretend = 0, frame = 8
 1598              		@ frame_needed = 0, uses_anonymous_args = 0
 1599              	.LVL176:
 1600 0000 30B5     		push	{r4, r5, lr}
 1601              	.LCFI39:
 1602              		.cfi_def_cfa_offset 12
 1603              		.cfi_offset 4, -12
 1604              		.cfi_offset 5, -8
 1605              		.cfi_offset 14, -4
 1606 0002 83B0     		sub	sp, sp, #12
 1607              	.LCFI40:
 1608              		.cfi_def_cfa_offset 24
 1609 0004 0446     		mov	r4, r0
 1610 0006 0D46     		mov	r5, r1
 1611              	.LVL177:
1185:Drivers/VL53L0X/API/vl53l0x_api.c **** 	VL53L0X_Error Status = VL53L0X_ERROR_NONE;
1186:Drivers/VL53L0X/API/vl53l0x_api.c **** 	uint8_t SequenceConfig = 0;
 1612              		.loc 1 1186 0
 1613 0008 02AA     		add	r2, sp, #8
 1614 000a 0023     		movs	r3, #0
 1615 000c 02F8013D 		strb	r3, [r2, #-1]!
1187:Drivers/VL53L0X/API/vl53l0x_api.c **** 	LOG_FUNCTION_START("");
1188:Drivers/VL53L0X/API/vl53l0x_api.c **** 
1189:Drivers/VL53L0X/API/vl53l0x_api.c **** 	Status = VL53L0X_RdByte(Dev, VL53L0X_REG_SYSTEM_SEQUENCE_CONFIG,
 1616              		.loc 1 1189 0
 1617 0010 0121     		movs	r1, #1
 1618              	.LVL178:
 1619 0012 FFF7FEFF 		bl	VL53L0X_RdByte
 1620              	.LVL179:
1190:Drivers/VL53L0X/API/vl53l0x_api.c **** 		&SequenceConfig);
1191:Drivers/VL53L0X/API/vl53l0x_api.c **** 
1192:Drivers/VL53L0X/API/vl53l0x_api.c **** 	if (Status == VL53L0X_ERROR_NONE) {
 1621              		.loc 1 1192 0
 1622 0016 0346     		mov	r3, r0
 1623 0018 30B1     		cbz	r0, .L120
 1624              	.LVL180:
 1625              	.L114:
1193:Drivers/VL53L0X/API/vl53l0x_api.c **** 		Status = sequence_step_enabled(Dev,
1194:Drivers/VL53L0X/API/vl53l0x_api.c **** 		VL53L0X_SEQUENCESTEP_TCC, SequenceConfig,
1195:Drivers/VL53L0X/API/vl53l0x_api.c **** 			&pSchedulerSequenceSteps->TccOn);
1196:Drivers/VL53L0X/API/vl53l0x_api.c **** 	}
1197:Drivers/VL53L0X/API/vl53l0x_api.c **** 	if (Status == VL53L0X_ERROR_NONE) {
 1626              		.loc 1 1197 0
 1627 001a 73B1     		cbz	r3, .L121
 1628              	.L115:
1198:Drivers/VL53L0X/API/vl53l0x_api.c **** 		Status = sequence_step_enabled(Dev,
1199:Drivers/VL53L0X/API/vl53l0x_api.c **** 		VL53L0X_SEQUENCESTEP_DSS, SequenceConfig,
1200:Drivers/VL53L0X/API/vl53l0x_api.c **** 			&pSchedulerSequenceSteps->DssOn);
1201:Drivers/VL53L0X/API/vl53l0x_api.c **** 	}
1202:Drivers/VL53L0X/API/vl53l0x_api.c **** 	if (Status == VL53L0X_ERROR_NONE) {
 1629              		.loc 1 1202 0
 1630 001c B3B1     		cbz	r3, .L122
 1631              	.L116:
1203:Drivers/VL53L0X/API/vl53l0x_api.c **** 		Status = sequence_step_enabled(Dev,
1204:Drivers/VL53L0X/API/vl53l0x_api.c **** 		VL53L0X_SEQUENCESTEP_MSRC, SequenceConfig,
ARM GAS  /tmp/ccq7BpOX.s 			page 50


1205:Drivers/VL53L0X/API/vl53l0x_api.c **** 			&pSchedulerSequenceSteps->MsrcOn);
1206:Drivers/VL53L0X/API/vl53l0x_api.c **** 	}
1207:Drivers/VL53L0X/API/vl53l0x_api.c **** 	if (Status == VL53L0X_ERROR_NONE) {
 1632              		.loc 1 1207 0
 1633 001e F3B1     		cbz	r3, .L123
 1634              	.L117:
1208:Drivers/VL53L0X/API/vl53l0x_api.c **** 		Status = sequence_step_enabled(Dev,
1209:Drivers/VL53L0X/API/vl53l0x_api.c **** 		VL53L0X_SEQUENCESTEP_PRE_RANGE, SequenceConfig,
1210:Drivers/VL53L0X/API/vl53l0x_api.c **** 			&pSchedulerSequenceSteps->PreRangeOn);
1211:Drivers/VL53L0X/API/vl53l0x_api.c **** 	}
1212:Drivers/VL53L0X/API/vl53l0x_api.c **** 	if (Status == VL53L0X_ERROR_NONE) {
 1635              		.loc 1 1212 0
 1636 0020 33B3     		cbz	r3, .L124
 1637              	.L118:
1213:Drivers/VL53L0X/API/vl53l0x_api.c **** 		Status = sequence_step_enabled(Dev,
1214:Drivers/VL53L0X/API/vl53l0x_api.c **** 		VL53L0X_SEQUENCESTEP_FINAL_RANGE, SequenceConfig,
1215:Drivers/VL53L0X/API/vl53l0x_api.c **** 			&pSchedulerSequenceSteps->FinalRangeOn);
1216:Drivers/VL53L0X/API/vl53l0x_api.c **** 	}
1217:Drivers/VL53L0X/API/vl53l0x_api.c **** 
1218:Drivers/VL53L0X/API/vl53l0x_api.c **** 	LOG_FUNCTION_END(Status);
1219:Drivers/VL53L0X/API/vl53l0x_api.c **** 	return Status;
1220:Drivers/VL53L0X/API/vl53l0x_api.c **** }
 1638              		.loc 1 1220 0
 1639 0022 1846     		mov	r0, r3
 1640 0024 03B0     		add	sp, sp, #12
 1641              	.LCFI41:
 1642              		.cfi_remember_state
 1643              		.cfi_def_cfa_offset 12
 1644              		@ sp needed
 1645 0026 30BD     		pop	{r4, r5, pc}
 1646              	.LVL181:
 1647              	.L120:
 1648              	.LCFI42:
 1649              		.cfi_restore_state
1193:Drivers/VL53L0X/API/vl53l0x_api.c **** 		VL53L0X_SEQUENCESTEP_TCC, SequenceConfig,
 1650              		.loc 1 1193 0
 1651 0028 2B46     		mov	r3, r5
 1652 002a 9DF80720 		ldrb	r2, [sp, #7]	@ zero_extendqisi2
 1653 002e 0021     		movs	r1, #0
 1654 0030 2046     		mov	r0, r4
 1655              	.LVL182:
 1656 0032 FFF7FEFF 		bl	sequence_step_enabled
 1657              	.LVL183:
 1658 0036 0346     		mov	r3, r0
 1659              	.LVL184:
 1660 0038 EFE7     		b	.L114
 1661              	.L121:
1198:Drivers/VL53L0X/API/vl53l0x_api.c **** 		VL53L0X_SEQUENCESTEP_DSS, SequenceConfig,
 1662              		.loc 1 1198 0
 1663 003a AB1C     		adds	r3, r5, #2
 1664              	.LVL185:
 1665 003c 9DF80720 		ldrb	r2, [sp, #7]	@ zero_extendqisi2
 1666 0040 0121     		movs	r1, #1
 1667 0042 2046     		mov	r0, r4
 1668 0044 FFF7FEFF 		bl	sequence_step_enabled
 1669              	.LVL186:
 1670 0048 0346     		mov	r3, r0
ARM GAS  /tmp/ccq7BpOX.s 			page 51


 1671              	.LVL187:
 1672 004a E7E7     		b	.L115
 1673              	.L122:
1203:Drivers/VL53L0X/API/vl53l0x_api.c **** 		VL53L0X_SEQUENCESTEP_MSRC, SequenceConfig,
 1674              		.loc 1 1203 0
 1675 004c 6B1C     		adds	r3, r5, #1
 1676              	.LVL188:
 1677 004e 9DF80720 		ldrb	r2, [sp, #7]	@ zero_extendqisi2
 1678 0052 0221     		movs	r1, #2
 1679 0054 2046     		mov	r0, r4
 1680 0056 FFF7FEFF 		bl	sequence_step_enabled
 1681              	.LVL189:
 1682 005a 0346     		mov	r3, r0
 1683              	.LVL190:
 1684 005c DFE7     		b	.L116
 1685              	.L123:
1208:Drivers/VL53L0X/API/vl53l0x_api.c **** 		VL53L0X_SEQUENCESTEP_PRE_RANGE, SequenceConfig,
 1686              		.loc 1 1208 0
 1687 005e EB1C     		adds	r3, r5, #3
 1688              	.LVL191:
 1689 0060 9DF80720 		ldrb	r2, [sp, #7]	@ zero_extendqisi2
 1690 0064 0321     		movs	r1, #3
 1691 0066 2046     		mov	r0, r4
 1692 0068 FFF7FEFF 		bl	sequence_step_enabled
 1693              	.LVL192:
 1694 006c 0346     		mov	r3, r0
 1695              	.LVL193:
 1696 006e D7E7     		b	.L117
 1697              	.L124:
1213:Drivers/VL53L0X/API/vl53l0x_api.c **** 		VL53L0X_SEQUENCESTEP_FINAL_RANGE, SequenceConfig,
 1698              		.loc 1 1213 0
 1699 0070 2B1D     		adds	r3, r5, #4
 1700              	.LVL194:
 1701 0072 9DF80720 		ldrb	r2, [sp, #7]	@ zero_extendqisi2
 1702 0076 0421     		movs	r1, #4
 1703 0078 2046     		mov	r0, r4
 1704 007a FFF7FEFF 		bl	sequence_step_enabled
 1705              	.LVL195:
 1706 007e 0346     		mov	r3, r0
 1707              	.LVL196:
 1708 0080 CFE7     		b	.L118
 1709              		.cfi_endproc
 1710              	.LFE167:
 1712              		.section	.text.VL53L0X_GetNumberOfSequenceSteps,"ax",%progbits
 1713              		.align	1
 1714              		.global	VL53L0X_GetNumberOfSequenceSteps
 1715              		.syntax unified
 1716              		.thumb
 1717              		.thumb_func
 1718              		.fpu fpv4-sp-d16
 1720              	VL53L0X_GetNumberOfSequenceSteps:
 1721              	.LFB168:
1221:Drivers/VL53L0X/API/vl53l0x_api.c **** 
1222:Drivers/VL53L0X/API/vl53l0x_api.c **** VL53L0X_Error VL53L0X_GetNumberOfSequenceSteps(VL53L0X_DEV Dev,
1223:Drivers/VL53L0X/API/vl53l0x_api.c **** 	uint8_t *pNumberOfSequenceSteps)
1224:Drivers/VL53L0X/API/vl53l0x_api.c **** {
 1722              		.loc 1 1224 0
ARM GAS  /tmp/ccq7BpOX.s 			page 52


 1723              		.cfi_startproc
 1724              		@ args = 0, pretend = 0, frame = 0
 1725              		@ frame_needed = 0, uses_anonymous_args = 0
 1726              		@ link register save eliminated.
 1727              	.LVL197:
1225:Drivers/VL53L0X/API/vl53l0x_api.c **** 	VL53L0X_Error Status = VL53L0X_ERROR_NONE;
1226:Drivers/VL53L0X/API/vl53l0x_api.c **** 	LOG_FUNCTION_START("");
1227:Drivers/VL53L0X/API/vl53l0x_api.c **** 
1228:Drivers/VL53L0X/API/vl53l0x_api.c **** 	*pNumberOfSequenceSteps = VL53L0X_SEQUENCESTEP_NUMBER_OF_CHECKS;
 1728              		.loc 1 1228 0
 1729 0000 0523     		movs	r3, #5
 1730 0002 0B70     		strb	r3, [r1]
1229:Drivers/VL53L0X/API/vl53l0x_api.c **** 
1230:Drivers/VL53L0X/API/vl53l0x_api.c **** 	LOG_FUNCTION_END(Status);
1231:Drivers/VL53L0X/API/vl53l0x_api.c **** 	return Status;
1232:Drivers/VL53L0X/API/vl53l0x_api.c **** }
 1731              		.loc 1 1232 0
 1732 0004 0020     		movs	r0, #0
 1733              	.LVL198:
 1734 0006 7047     		bx	lr
 1735              		.cfi_endproc
 1736              	.LFE168:
 1738              		.section	.text.VL53L0X_GetSequenceStepsInfo,"ax",%progbits
 1739              		.align	1
 1740              		.global	VL53L0X_GetSequenceStepsInfo
 1741              		.syntax unified
 1742              		.thumb
 1743              		.thumb_func
 1744              		.fpu fpv4-sp-d16
 1746              	VL53L0X_GetSequenceStepsInfo:
 1747              	.LFB169:
1233:Drivers/VL53L0X/API/vl53l0x_api.c **** 
1234:Drivers/VL53L0X/API/vl53l0x_api.c **** VL53L0X_Error VL53L0X_GetSequenceStepsInfo(VL53L0X_SequenceStepId SequenceStepId,
1235:Drivers/VL53L0X/API/vl53l0x_api.c **** 	char *pSequenceStepsString)
1236:Drivers/VL53L0X/API/vl53l0x_api.c **** {
 1748              		.loc 1 1236 0
 1749              		.cfi_startproc
 1750              		@ args = 0, pretend = 0, frame = 0
 1751              		@ frame_needed = 0, uses_anonymous_args = 0
 1752              	.LVL199:
 1753 0000 08B5     		push	{r3, lr}
 1754              	.LCFI43:
 1755              		.cfi_def_cfa_offset 8
 1756              		.cfi_offset 3, -8
 1757              		.cfi_offset 14, -4
 1758              	.LVL200:
1237:Drivers/VL53L0X/API/vl53l0x_api.c **** 	VL53L0X_Error Status = VL53L0X_ERROR_NONE;
1238:Drivers/VL53L0X/API/vl53l0x_api.c **** 	LOG_FUNCTION_START("");
1239:Drivers/VL53L0X/API/vl53l0x_api.c **** 
1240:Drivers/VL53L0X/API/vl53l0x_api.c **** 	Status = VL53L0X_get_sequence_steps_info(
 1759              		.loc 1 1240 0
 1760 0002 FFF7FEFF 		bl	VL53L0X_get_sequence_steps_info
 1761              	.LVL201:
1241:Drivers/VL53L0X/API/vl53l0x_api.c **** 			SequenceStepId,
1242:Drivers/VL53L0X/API/vl53l0x_api.c **** 			pSequenceStepsString);
1243:Drivers/VL53L0X/API/vl53l0x_api.c **** 
1244:Drivers/VL53L0X/API/vl53l0x_api.c **** 	LOG_FUNCTION_END(Status);
ARM GAS  /tmp/ccq7BpOX.s 			page 53


1245:Drivers/VL53L0X/API/vl53l0x_api.c **** 
1246:Drivers/VL53L0X/API/vl53l0x_api.c **** 	return Status;
1247:Drivers/VL53L0X/API/vl53l0x_api.c **** }
 1762              		.loc 1 1247 0
 1763 0006 08BD     		pop	{r3, pc}
 1764              		.cfi_endproc
 1765              	.LFE169:
 1767              		.section	.text.VL53L0X_SetSequenceStepTimeout,"ax",%progbits
 1768              		.align	1
 1769              		.global	VL53L0X_SetSequenceStepTimeout
 1770              		.syntax unified
 1771              		.thumb
 1772              		.thumb_func
 1773              		.fpu fpv4-sp-d16
 1775              	VL53L0X_SetSequenceStepTimeout:
 1776              	.LFB170:
1248:Drivers/VL53L0X/API/vl53l0x_api.c **** 
1249:Drivers/VL53L0X/API/vl53l0x_api.c **** VL53L0X_Error VL53L0X_SetSequenceStepTimeout(VL53L0X_DEV Dev,
1250:Drivers/VL53L0X/API/vl53l0x_api.c **** 	VL53L0X_SequenceStepId SequenceStepId, FixPoint1616_t TimeOutMilliSecs)
1251:Drivers/VL53L0X/API/vl53l0x_api.c **** {
 1777              		.loc 1 1251 0
 1778              		.cfi_startproc
 1779              		@ args = 0, pretend = 0, frame = 8
 1780              		@ frame_needed = 0, uses_anonymous_args = 0
 1781              	.LVL202:
 1782 0000 70B5     		push	{r4, r5, r6, lr}
 1783              	.LCFI44:
 1784              		.cfi_def_cfa_offset 16
 1785              		.cfi_offset 4, -16
 1786              		.cfi_offset 5, -12
 1787              		.cfi_offset 6, -8
 1788              		.cfi_offset 14, -4
 1789 0002 82B0     		sub	sp, sp, #8
 1790              	.LCFI45:
 1791              		.cfi_def_cfa_offset 24
 1792 0004 0546     		mov	r5, r0
 1793 0006 0E46     		mov	r6, r1
 1794              	.LVL203:
1252:Drivers/VL53L0X/API/vl53l0x_api.c **** 	VL53L0X_Error Status = VL53L0X_ERROR_NONE;
1253:Drivers/VL53L0X/API/vl53l0x_api.c **** 	VL53L0X_Error Status1 = VL53L0X_ERROR_NONE;
1254:Drivers/VL53L0X/API/vl53l0x_api.c **** 	uint32_t TimeoutMicroSeconds = ((TimeOutMilliSecs * 1000) + 0x8000)
 1795              		.loc 1 1254 0
 1796 0008 4FF47A73 		mov	r3, #1000
 1797 000c 03FB02F2 		mul	r2, r3, r2
 1798              	.LVL204:
 1799 0010 02F50042 		add	r2, r2, #32768
 1800 0014 140C     		lsrs	r4, r2, #16
 1801              	.LVL205:
1255:Drivers/VL53L0X/API/vl53l0x_api.c **** 		>> 16;
1256:Drivers/VL53L0X/API/vl53l0x_api.c **** 	uint32_t MeasurementTimingBudgetMicroSeconds;
1257:Drivers/VL53L0X/API/vl53l0x_api.c **** 	FixPoint1616_t OldTimeOutMicroSeconds;
1258:Drivers/VL53L0X/API/vl53l0x_api.c **** 
1259:Drivers/VL53L0X/API/vl53l0x_api.c **** 	LOG_FUNCTION_START("");
1260:Drivers/VL53L0X/API/vl53l0x_api.c **** 
1261:Drivers/VL53L0X/API/vl53l0x_api.c **** 	/* Read back the current value in case we need to revert back to this.
1262:Drivers/VL53L0X/API/vl53l0x_api.c **** 	 */
1263:Drivers/VL53L0X/API/vl53l0x_api.c **** 	Status = get_sequence_step_timeout(Dev, SequenceStepId,
ARM GAS  /tmp/ccq7BpOX.s 			page 54


 1802              		.loc 1 1263 0
 1803 0016 01AA     		add	r2, sp, #4
 1804 0018 FFF7FEFF 		bl	get_sequence_step_timeout
 1805              	.LVL206:
1264:Drivers/VL53L0X/API/vl53l0x_api.c **** 		&OldTimeOutMicroSeconds);
1265:Drivers/VL53L0X/API/vl53l0x_api.c **** 
1266:Drivers/VL53L0X/API/vl53l0x_api.c **** 	if (Status == VL53L0X_ERROR_NONE) {
 1806              		.loc 1 1266 0
 1807 001c 0346     		mov	r3, r0
 1808 001e 18B1     		cbz	r0, .L132
 1809              	.LVL207:
 1810              	.L129:
1267:Drivers/VL53L0X/API/vl53l0x_api.c **** 		Status = set_sequence_step_timeout(Dev, SequenceStepId,
1268:Drivers/VL53L0X/API/vl53l0x_api.c **** 			TimeoutMicroSeconds);
1269:Drivers/VL53L0X/API/vl53l0x_api.c **** 	}
1270:Drivers/VL53L0X/API/vl53l0x_api.c **** 
1271:Drivers/VL53L0X/API/vl53l0x_api.c **** 	if (Status == VL53L0X_ERROR_NONE) {
 1811              		.loc 1 1271 0
 1812 0020 4BB1     		cbz	r3, .L133
 1813              	.LVL208:
 1814              	.L130:
1272:Drivers/VL53L0X/API/vl53l0x_api.c **** 		VL53L0X_GETPARAMETERFIELD(Dev,
1273:Drivers/VL53L0X/API/vl53l0x_api.c **** 			MeasurementTimingBudgetMicroSeconds,
1274:Drivers/VL53L0X/API/vl53l0x_api.c **** 			MeasurementTimingBudgetMicroSeconds);
1275:Drivers/VL53L0X/API/vl53l0x_api.c **** 
1276:Drivers/VL53L0X/API/vl53l0x_api.c **** 		/* At this point we don't know if the requested value is valid,
1277:Drivers/VL53L0X/API/vl53l0x_api.c **** 		 therefore proceed to update the entire timing budget and
1278:Drivers/VL53L0X/API/vl53l0x_api.c **** 		 if this fails, revert back to the previous value.
1279:Drivers/VL53L0X/API/vl53l0x_api.c **** 		 */
1280:Drivers/VL53L0X/API/vl53l0x_api.c **** 		Status = VL53L0X_SetMeasurementTimingBudgetMicroSeconds(Dev,
1281:Drivers/VL53L0X/API/vl53l0x_api.c **** 			MeasurementTimingBudgetMicroSeconds);
1282:Drivers/VL53L0X/API/vl53l0x_api.c **** 
1283:Drivers/VL53L0X/API/vl53l0x_api.c **** 		if (Status != VL53L0X_ERROR_NONE) {
1284:Drivers/VL53L0X/API/vl53l0x_api.c **** 			Status1 = set_sequence_step_timeout(Dev, SequenceStepId,
1285:Drivers/VL53L0X/API/vl53l0x_api.c **** 				OldTimeOutMicroSeconds);
1286:Drivers/VL53L0X/API/vl53l0x_api.c **** 
1287:Drivers/VL53L0X/API/vl53l0x_api.c **** 			if (Status1 == VL53L0X_ERROR_NONE) {
1288:Drivers/VL53L0X/API/vl53l0x_api.c **** 				Status1 =
1289:Drivers/VL53L0X/API/vl53l0x_api.c **** 				VL53L0X_SetMeasurementTimingBudgetMicroSeconds(
1290:Drivers/VL53L0X/API/vl53l0x_api.c **** 					Dev,
1291:Drivers/VL53L0X/API/vl53l0x_api.c **** 					MeasurementTimingBudgetMicroSeconds);
1292:Drivers/VL53L0X/API/vl53l0x_api.c **** 			}
1293:Drivers/VL53L0X/API/vl53l0x_api.c **** 
1294:Drivers/VL53L0X/API/vl53l0x_api.c **** 			Status = Status1;
1295:Drivers/VL53L0X/API/vl53l0x_api.c **** 		}
1296:Drivers/VL53L0X/API/vl53l0x_api.c **** 	}
1297:Drivers/VL53L0X/API/vl53l0x_api.c **** 
1298:Drivers/VL53L0X/API/vl53l0x_api.c **** 	LOG_FUNCTION_END(Status);
1299:Drivers/VL53L0X/API/vl53l0x_api.c **** 
1300:Drivers/VL53L0X/API/vl53l0x_api.c **** 	return Status;
1301:Drivers/VL53L0X/API/vl53l0x_api.c **** }
 1815              		.loc 1 1301 0
 1816 0022 1846     		mov	r0, r3
 1817 0024 02B0     		add	sp, sp, #8
 1818              	.LCFI46:
 1819              		.cfi_remember_state
 1820              		.cfi_def_cfa_offset 16
ARM GAS  /tmp/ccq7BpOX.s 			page 55


 1821              		@ sp needed
 1822 0026 70BD     		pop	{r4, r5, r6, pc}
 1823              	.LVL209:
 1824              	.L132:
 1825              	.LCFI47:
 1826              		.cfi_restore_state
1267:Drivers/VL53L0X/API/vl53l0x_api.c **** 		Status = set_sequence_step_timeout(Dev, SequenceStepId,
 1827              		.loc 1 1267 0
 1828 0028 2246     		mov	r2, r4
 1829 002a 3146     		mov	r1, r6
 1830 002c 2846     		mov	r0, r5
 1831              	.LVL210:
 1832 002e FFF7FEFF 		bl	set_sequence_step_timeout
 1833              	.LVL211:
 1834 0032 0346     		mov	r3, r0
 1835              	.LVL212:
 1836 0034 F4E7     		b	.L129
 1837              	.L133:
1272:Drivers/VL53L0X/API/vl53l0x_api.c **** 		VL53L0X_GETPARAMETERFIELD(Dev,
 1838              		.loc 1 1272 0
 1839 0036 6C69     		ldr	r4, [r5, #20]
 1840              	.LVL213:
1280:Drivers/VL53L0X/API/vl53l0x_api.c **** 			MeasurementTimingBudgetMicroSeconds);
 1841              		.loc 1 1280 0
 1842 0038 2146     		mov	r1, r4
 1843 003a 2846     		mov	r0, r5
 1844 003c FFF7FEFF 		bl	VL53L0X_SetMeasurementTimingBudgetMicroSeconds
 1845              	.LVL214:
1283:Drivers/VL53L0X/API/vl53l0x_api.c **** 			Status1 = set_sequence_step_timeout(Dev, SequenceStepId,
 1846              		.loc 1 1283 0
 1847 0040 0346     		mov	r3, r0
 1848 0042 0028     		cmp	r0, #0
 1849 0044 EDD0     		beq	.L130
1284:Drivers/VL53L0X/API/vl53l0x_api.c **** 				OldTimeOutMicroSeconds);
 1850              		.loc 1 1284 0
 1851 0046 019A     		ldr	r2, [sp, #4]
 1852 0048 3146     		mov	r1, r6
 1853 004a 2846     		mov	r0, r5
 1854              	.LVL215:
 1855 004c FFF7FEFF 		bl	set_sequence_step_timeout
 1856              	.LVL216:
1287:Drivers/VL53L0X/API/vl53l0x_api.c **** 				Status1 =
 1857              		.loc 1 1287 0
 1858 0050 0346     		mov	r3, r0
 1859 0052 0028     		cmp	r0, #0
 1860 0054 E5D1     		bne	.L130
1288:Drivers/VL53L0X/API/vl53l0x_api.c **** 				VL53L0X_SetMeasurementTimingBudgetMicroSeconds(
 1861              		.loc 1 1288 0
 1862 0056 2146     		mov	r1, r4
 1863 0058 2846     		mov	r0, r5
 1864              	.LVL217:
 1865 005a FFF7FEFF 		bl	VL53L0X_SetMeasurementTimingBudgetMicroSeconds
 1866              	.LVL218:
 1867 005e 0346     		mov	r3, r0
 1868              	.LVL219:
 1869 0060 DFE7     		b	.L130
 1870              		.cfi_endproc
ARM GAS  /tmp/ccq7BpOX.s 			page 56


 1871              	.LFE170:
 1873              		.section	.text.VL53L0X_GetSequenceStepTimeout,"ax",%progbits
 1874              		.align	1
 1875              		.global	VL53L0X_GetSequenceStepTimeout
 1876              		.syntax unified
 1877              		.thumb
 1878              		.thumb_func
 1879              		.fpu fpv4-sp-d16
 1881              	VL53L0X_GetSequenceStepTimeout:
 1882              	.LFB171:
1302:Drivers/VL53L0X/API/vl53l0x_api.c **** 
1303:Drivers/VL53L0X/API/vl53l0x_api.c **** VL53L0X_Error VL53L0X_GetSequenceStepTimeout(VL53L0X_DEV Dev,
1304:Drivers/VL53L0X/API/vl53l0x_api.c **** 	VL53L0X_SequenceStepId SequenceStepId, FixPoint1616_t *pTimeOutMilliSecs)
1305:Drivers/VL53L0X/API/vl53l0x_api.c **** {
 1883              		.loc 1 1305 0
 1884              		.cfi_startproc
 1885              		@ args = 0, pretend = 0, frame = 8
 1886              		@ frame_needed = 0, uses_anonymous_args = 0
 1887              	.LVL220:
 1888 0000 10B5     		push	{r4, lr}
 1889              	.LCFI48:
 1890              		.cfi_def_cfa_offset 8
 1891              		.cfi_offset 4, -8
 1892              		.cfi_offset 14, -4
 1893 0002 82B0     		sub	sp, sp, #8
 1894              	.LCFI49:
 1895              		.cfi_def_cfa_offset 16
 1896 0004 1446     		mov	r4, r2
 1897              	.LVL221:
1306:Drivers/VL53L0X/API/vl53l0x_api.c **** 	VL53L0X_Error Status = VL53L0X_ERROR_NONE;
1307:Drivers/VL53L0X/API/vl53l0x_api.c **** 	uint32_t TimeoutMicroSeconds;
1308:Drivers/VL53L0X/API/vl53l0x_api.c **** 	LOG_FUNCTION_START("");
1309:Drivers/VL53L0X/API/vl53l0x_api.c **** 
1310:Drivers/VL53L0X/API/vl53l0x_api.c **** 	Status = get_sequence_step_timeout(Dev, SequenceStepId,
 1898              		.loc 1 1310 0
 1899 0006 01AA     		add	r2, sp, #4
 1900              	.LVL222:
 1901 0008 FFF7FEFF 		bl	get_sequence_step_timeout
 1902              	.LVL223:
1311:Drivers/VL53L0X/API/vl53l0x_api.c **** 		&TimeoutMicroSeconds);
1312:Drivers/VL53L0X/API/vl53l0x_api.c **** 	if (Status == VL53L0X_ERROR_NONE) {
 1903              		.loc 1 1312 0
 1904 000c 0246     		mov	r2, r0
 1905 000e 48B9     		cbnz	r0, .L135
1313:Drivers/VL53L0X/API/vl53l0x_api.c **** 		TimeoutMicroSeconds <<= 8;
 1906              		.loc 1 1313 0
 1907 0010 019B     		ldr	r3, [sp, #4]
 1908 0012 1B02     		lsls	r3, r3, #8
1314:Drivers/VL53L0X/API/vl53l0x_api.c **** 		*pTimeOutMilliSecs = (TimeoutMicroSeconds + 500)/1000;
 1909              		.loc 1 1314 0
 1910 0014 03F5FA73 		add	r3, r3, #500
 1911 0018 0449     		ldr	r1, .L137
 1912 001a A1FB0313 		umull	r1, r3, r1, r3
 1913 001e 9B09     		lsrs	r3, r3, #6
1315:Drivers/VL53L0X/API/vl53l0x_api.c **** 		*pTimeOutMilliSecs <<= 8;
 1914              		.loc 1 1315 0
 1915 0020 1B02     		lsls	r3, r3, #8
ARM GAS  /tmp/ccq7BpOX.s 			page 57


 1916 0022 2360     		str	r3, [r4]
 1917              	.L135:
1316:Drivers/VL53L0X/API/vl53l0x_api.c **** 	}
1317:Drivers/VL53L0X/API/vl53l0x_api.c **** 
1318:Drivers/VL53L0X/API/vl53l0x_api.c **** 	LOG_FUNCTION_END(Status);
1319:Drivers/VL53L0X/API/vl53l0x_api.c **** 	return Status;
1320:Drivers/VL53L0X/API/vl53l0x_api.c **** }
 1918              		.loc 1 1320 0
 1919 0024 1046     		mov	r0, r2
 1920              	.LVL224:
 1921 0026 02B0     		add	sp, sp, #8
 1922              	.LCFI50:
 1923              		.cfi_def_cfa_offset 8
 1924              		@ sp needed
 1925 0028 10BD     		pop	{r4, pc}
 1926              	.LVL225:
 1927              	.L138:
 1928 002a 00BF     		.align	2
 1929              	.L137:
 1930 002c D34D6210 		.word	274877907
 1931              		.cfi_endproc
 1932              	.LFE171:
 1934              		.section	.text.VL53L0X_SetInterMeasurementPeriodMilliSeconds,"ax",%progbits
 1935              		.align	1
 1936              		.global	VL53L0X_SetInterMeasurementPeriodMilliSeconds
 1937              		.syntax unified
 1938              		.thumb
 1939              		.thumb_func
 1940              		.fpu fpv4-sp-d16
 1942              	VL53L0X_SetInterMeasurementPeriodMilliSeconds:
 1943              	.LFB172:
1321:Drivers/VL53L0X/API/vl53l0x_api.c **** 
1322:Drivers/VL53L0X/API/vl53l0x_api.c **** VL53L0X_Error VL53L0X_SetInterMeasurementPeriodMilliSeconds(VL53L0X_DEV Dev,
1323:Drivers/VL53L0X/API/vl53l0x_api.c **** 	uint32_t InterMeasurementPeriodMilliSeconds)
1324:Drivers/VL53L0X/API/vl53l0x_api.c **** {
 1944              		.loc 1 1324 0
 1945              		.cfi_startproc
 1946              		@ args = 0, pretend = 0, frame = 8
 1947              		@ frame_needed = 0, uses_anonymous_args = 0
 1948              	.LVL226:
 1949 0000 30B5     		push	{r4, r5, lr}
 1950              	.LCFI51:
 1951              		.cfi_def_cfa_offset 12
 1952              		.cfi_offset 4, -12
 1953              		.cfi_offset 5, -8
 1954              		.cfi_offset 14, -4
 1955 0002 83B0     		sub	sp, sp, #12
 1956              	.LCFI52:
 1957              		.cfi_def_cfa_offset 24
 1958 0004 0446     		mov	r4, r0
 1959 0006 0D46     		mov	r5, r1
 1960              	.LVL227:
1325:Drivers/VL53L0X/API/vl53l0x_api.c **** 	VL53L0X_Error Status = VL53L0X_ERROR_NONE;
1326:Drivers/VL53L0X/API/vl53l0x_api.c **** 	uint16_t osc_calibrate_val;
1327:Drivers/VL53L0X/API/vl53l0x_api.c **** 	uint32_t IMPeriodMilliSeconds;
1328:Drivers/VL53L0X/API/vl53l0x_api.c **** 
1329:Drivers/VL53L0X/API/vl53l0x_api.c **** 	LOG_FUNCTION_START("");
ARM GAS  /tmp/ccq7BpOX.s 			page 58


1330:Drivers/VL53L0X/API/vl53l0x_api.c **** 
1331:Drivers/VL53L0X/API/vl53l0x_api.c **** 	Status = VL53L0X_RdWord(Dev, VL53L0X_REG_OSC_CALIBRATE_VAL,
 1961              		.loc 1 1331 0
 1962 0008 0DF10602 		add	r2, sp, #6
 1963 000c F821     		movs	r1, #248
 1964              	.LVL228:
 1965 000e FFF7FEFF 		bl	VL53L0X_RdWord
 1966              	.LVL229:
1332:Drivers/VL53L0X/API/vl53l0x_api.c **** 		&osc_calibrate_val);
1333:Drivers/VL53L0X/API/vl53l0x_api.c **** 
1334:Drivers/VL53L0X/API/vl53l0x_api.c **** 	if (Status == VL53L0X_ERROR_NONE) {
 1967              		.loc 1 1334 0
 1968 0012 0346     		mov	r3, r0
 1969 0014 48B9     		cbnz	r0, .L140
1335:Drivers/VL53L0X/API/vl53l0x_api.c **** 		if (osc_calibrate_val != 0) {
 1970              		.loc 1 1335 0
 1971 0016 BDF80620 		ldrh	r2, [sp, #6]
 1972 001a 5AB1     		cbz	r2, .L143
1336:Drivers/VL53L0X/API/vl53l0x_api.c **** 			IMPeriodMilliSeconds =
 1973              		.loc 1 1336 0
 1974 001c 05FB02F2 		mul	r2, r5, r2
 1975              	.LVL230:
 1976              	.L141:
1337:Drivers/VL53L0X/API/vl53l0x_api.c **** 				InterMeasurementPeriodMilliSeconds
1338:Drivers/VL53L0X/API/vl53l0x_api.c **** 					* osc_calibrate_val;
1339:Drivers/VL53L0X/API/vl53l0x_api.c **** 		} else {
1340:Drivers/VL53L0X/API/vl53l0x_api.c **** 			IMPeriodMilliSeconds =
1341:Drivers/VL53L0X/API/vl53l0x_api.c **** 				InterMeasurementPeriodMilliSeconds;
1342:Drivers/VL53L0X/API/vl53l0x_api.c **** 		}
1343:Drivers/VL53L0X/API/vl53l0x_api.c **** 		Status = VL53L0X_WrDWord(Dev,
 1977              		.loc 1 1343 0
 1978 0020 0421     		movs	r1, #4
 1979 0022 2046     		mov	r0, r4
 1980              	.LVL231:
 1981 0024 FFF7FEFF 		bl	VL53L0X_WrDWord
 1982              	.LVL232:
 1983 0028 0346     		mov	r3, r0
 1984              	.LVL233:
 1985              	.L140:
1344:Drivers/VL53L0X/API/vl53l0x_api.c **** 		VL53L0X_REG_SYSTEM_INTERMEASUREMENT_PERIOD,
1345:Drivers/VL53L0X/API/vl53l0x_api.c **** 			IMPeriodMilliSeconds);
1346:Drivers/VL53L0X/API/vl53l0x_api.c **** 	}
1347:Drivers/VL53L0X/API/vl53l0x_api.c **** 
1348:Drivers/VL53L0X/API/vl53l0x_api.c **** 	if (Status == VL53L0X_ERROR_NONE) {
 1986              		.loc 1 1348 0
 1987 002a 03B9     		cbnz	r3, .L142
1349:Drivers/VL53L0X/API/vl53l0x_api.c **** 		VL53L0X_SETPARAMETERFIELD(Dev,
 1988              		.loc 1 1349 0
 1989 002c A561     		str	r5, [r4, #24]
 1990              	.L142:
1350:Drivers/VL53L0X/API/vl53l0x_api.c **** 			InterMeasurementPeriodMilliSeconds,
1351:Drivers/VL53L0X/API/vl53l0x_api.c **** 			InterMeasurementPeriodMilliSeconds);
1352:Drivers/VL53L0X/API/vl53l0x_api.c **** 	}
1353:Drivers/VL53L0X/API/vl53l0x_api.c **** 
1354:Drivers/VL53L0X/API/vl53l0x_api.c **** 	LOG_FUNCTION_END(Status);
1355:Drivers/VL53L0X/API/vl53l0x_api.c **** 	return Status;
1356:Drivers/VL53L0X/API/vl53l0x_api.c **** }
ARM GAS  /tmp/ccq7BpOX.s 			page 59


 1991              		.loc 1 1356 0
 1992 002e 1846     		mov	r0, r3
 1993 0030 03B0     		add	sp, sp, #12
 1994              	.LCFI53:
 1995              		.cfi_remember_state
 1996              		.cfi_def_cfa_offset 12
 1997              		@ sp needed
 1998 0032 30BD     		pop	{r4, r5, pc}
 1999              	.LVL234:
 2000              	.L143:
 2001              	.LCFI54:
 2002              		.cfi_restore_state
1340:Drivers/VL53L0X/API/vl53l0x_api.c **** 				InterMeasurementPeriodMilliSeconds;
 2003              		.loc 1 1340 0
 2004 0034 2A46     		mov	r2, r5
 2005 0036 F3E7     		b	.L141
 2006              		.cfi_endproc
 2007              	.LFE172:
 2009              		.section	.text.VL53L0X_GetInterMeasurementPeriodMilliSeconds,"ax",%progbits
 2010              		.align	1
 2011              		.global	VL53L0X_GetInterMeasurementPeriodMilliSeconds
 2012              		.syntax unified
 2013              		.thumb
 2014              		.thumb_func
 2015              		.fpu fpv4-sp-d16
 2017              	VL53L0X_GetInterMeasurementPeriodMilliSeconds:
 2018              	.LFB173:
1357:Drivers/VL53L0X/API/vl53l0x_api.c **** 
1358:Drivers/VL53L0X/API/vl53l0x_api.c **** VL53L0X_Error VL53L0X_GetInterMeasurementPeriodMilliSeconds(VL53L0X_DEV Dev,
1359:Drivers/VL53L0X/API/vl53l0x_api.c **** 	uint32_t *pInterMeasurementPeriodMilliSeconds)
1360:Drivers/VL53L0X/API/vl53l0x_api.c **** {
 2019              		.loc 1 1360 0
 2020              		.cfi_startproc
 2021              		@ args = 0, pretend = 0, frame = 8
 2022              		@ frame_needed = 0, uses_anonymous_args = 0
 2023              	.LVL235:
 2024 0000 30B5     		push	{r4, r5, lr}
 2025              	.LCFI55:
 2026              		.cfi_def_cfa_offset 12
 2027              		.cfi_offset 4, -12
 2028              		.cfi_offset 5, -8
 2029              		.cfi_offset 14, -4
 2030 0002 83B0     		sub	sp, sp, #12
 2031              	.LCFI56:
 2032              		.cfi_def_cfa_offset 24
 2033 0004 0446     		mov	r4, r0
 2034 0006 0D46     		mov	r5, r1
 2035              	.LVL236:
1361:Drivers/VL53L0X/API/vl53l0x_api.c **** 	VL53L0X_Error Status = VL53L0X_ERROR_NONE;
1362:Drivers/VL53L0X/API/vl53l0x_api.c **** 	uint16_t osc_calibrate_val;
1363:Drivers/VL53L0X/API/vl53l0x_api.c **** 	uint32_t IMPeriodMilliSeconds;
1364:Drivers/VL53L0X/API/vl53l0x_api.c **** 
1365:Drivers/VL53L0X/API/vl53l0x_api.c **** 	LOG_FUNCTION_START("");
1366:Drivers/VL53L0X/API/vl53l0x_api.c **** 
1367:Drivers/VL53L0X/API/vl53l0x_api.c **** 	Status = VL53L0X_RdWord(Dev, VL53L0X_REG_OSC_CALIBRATE_VAL,
 2036              		.loc 1 1367 0
 2037 0008 0DF10602 		add	r2, sp, #6
ARM GAS  /tmp/ccq7BpOX.s 			page 60


 2038 000c F821     		movs	r1, #248
 2039              	.LVL237:
 2040 000e FFF7FEFF 		bl	VL53L0X_RdWord
 2041              	.LVL238:
1368:Drivers/VL53L0X/API/vl53l0x_api.c **** 		&osc_calibrate_val);
1369:Drivers/VL53L0X/API/vl53l0x_api.c **** 
1370:Drivers/VL53L0X/API/vl53l0x_api.c **** 	if (Status == VL53L0X_ERROR_NONE) {
 2042              		.loc 1 1370 0
 2043 0012 0346     		mov	r3, r0
 2044 0014 60B1     		cbz	r0, .L150
 2045              	.LVL239:
 2046              	.L146:
1371:Drivers/VL53L0X/API/vl53l0x_api.c **** 		Status = VL53L0X_RdDWord(Dev,
1372:Drivers/VL53L0X/API/vl53l0x_api.c **** 		VL53L0X_REG_SYSTEM_INTERMEASUREMENT_PERIOD,
1373:Drivers/VL53L0X/API/vl53l0x_api.c **** 			&IMPeriodMilliSeconds);
1374:Drivers/VL53L0X/API/vl53l0x_api.c **** 	}
1375:Drivers/VL53L0X/API/vl53l0x_api.c **** 
1376:Drivers/VL53L0X/API/vl53l0x_api.c **** 	if (Status == VL53L0X_ERROR_NONE) {
 2047              		.loc 1 1376 0
 2048 0016 43B9     		cbnz	r3, .L147
1377:Drivers/VL53L0X/API/vl53l0x_api.c **** 		if (osc_calibrate_val != 0) {
 2049              		.loc 1 1377 0
 2050 0018 BDF80620 		ldrh	r2, [sp, #6]
 2051 001c 1AB1     		cbz	r2, .L148
1378:Drivers/VL53L0X/API/vl53l0x_api.c **** 			*pInterMeasurementPeriodMilliSeconds =
1379:Drivers/VL53L0X/API/vl53l0x_api.c **** 				IMPeriodMilliSeconds / osc_calibrate_val;
 2052              		.loc 1 1379 0
 2053 001e 0099     		ldr	r1, [sp]
 2054 0020 B1FBF2F2 		udiv	r2, r1, r2
1378:Drivers/VL53L0X/API/vl53l0x_api.c **** 			*pInterMeasurementPeriodMilliSeconds =
 2055              		.loc 1 1378 0
 2056 0024 2A60     		str	r2, [r5]
 2057              	.L148:
1380:Drivers/VL53L0X/API/vl53l0x_api.c **** 		}
1381:Drivers/VL53L0X/API/vl53l0x_api.c **** 		VL53L0X_SETPARAMETERFIELD(Dev,
 2058              		.loc 1 1381 0
 2059 0026 2A68     		ldr	r2, [r5]
 2060 0028 A261     		str	r2, [r4, #24]
 2061              	.L147:
1382:Drivers/VL53L0X/API/vl53l0x_api.c **** 			InterMeasurementPeriodMilliSeconds,
1383:Drivers/VL53L0X/API/vl53l0x_api.c **** 			*pInterMeasurementPeriodMilliSeconds);
1384:Drivers/VL53L0X/API/vl53l0x_api.c **** 	}
1385:Drivers/VL53L0X/API/vl53l0x_api.c **** 
1386:Drivers/VL53L0X/API/vl53l0x_api.c **** 	LOG_FUNCTION_END(Status);
1387:Drivers/VL53L0X/API/vl53l0x_api.c **** 	return Status;
1388:Drivers/VL53L0X/API/vl53l0x_api.c **** }
 2062              		.loc 1 1388 0
 2063 002a 1846     		mov	r0, r3
 2064 002c 03B0     		add	sp, sp, #12
 2065              	.LCFI57:
 2066              		.cfi_remember_state
 2067              		.cfi_def_cfa_offset 12
 2068              		@ sp needed
 2069 002e 30BD     		pop	{r4, r5, pc}
 2070              	.LVL240:
 2071              	.L150:
 2072              	.LCFI58:
ARM GAS  /tmp/ccq7BpOX.s 			page 61


 2073              		.cfi_restore_state
1371:Drivers/VL53L0X/API/vl53l0x_api.c **** 		VL53L0X_REG_SYSTEM_INTERMEASUREMENT_PERIOD,
 2074              		.loc 1 1371 0
 2075 0030 6A46     		mov	r2, sp
 2076 0032 0421     		movs	r1, #4
 2077 0034 2046     		mov	r0, r4
 2078              	.LVL241:
 2079 0036 FFF7FEFF 		bl	VL53L0X_RdDWord
 2080              	.LVL242:
 2081 003a 0346     		mov	r3, r0
 2082              	.LVL243:
 2083 003c EBE7     		b	.L146
 2084              		.cfi_endproc
 2085              	.LFE173:
 2087              		.section	.text.VL53L0X_SetXTalkCompensationEnable,"ax",%progbits
 2088              		.align	1
 2089              		.global	VL53L0X_SetXTalkCompensationEnable
 2090              		.syntax unified
 2091              		.thumb
 2092              		.thumb_func
 2093              		.fpu fpv4-sp-d16
 2095              	VL53L0X_SetXTalkCompensationEnable:
 2096              	.LFB174:
1389:Drivers/VL53L0X/API/vl53l0x_api.c **** 
1390:Drivers/VL53L0X/API/vl53l0x_api.c **** VL53L0X_Error VL53L0X_SetXTalkCompensationEnable(VL53L0X_DEV Dev,
1391:Drivers/VL53L0X/API/vl53l0x_api.c **** 	uint8_t XTalkCompensationEnable)
1392:Drivers/VL53L0X/API/vl53l0x_api.c **** {
 2097              		.loc 1 1392 0
 2098              		.cfi_startproc
 2099              		@ args = 0, pretend = 0, frame = 0
 2100              		@ frame_needed = 0, uses_anonymous_args = 0
 2101              	.LVL244:
 2102 0000 38B5     		push	{r3, r4, r5, lr}
 2103              	.LCFI59:
 2104              		.cfi_def_cfa_offset 16
 2105              		.cfi_offset 3, -16
 2106              		.cfi_offset 4, -12
 2107              		.cfi_offset 5, -8
 2108              		.cfi_offset 14, -4
 2109 0002 0446     		mov	r4, r0
 2110              	.LVL245:
1393:Drivers/VL53L0X/API/vl53l0x_api.c **** 	VL53L0X_Error Status = VL53L0X_ERROR_NONE;
1394:Drivers/VL53L0X/API/vl53l0x_api.c **** 	FixPoint1616_t TempFix1616;
1395:Drivers/VL53L0X/API/vl53l0x_api.c **** 	uint16_t LinearityCorrectiveGain;
1396:Drivers/VL53L0X/API/vl53l0x_api.c **** 
1397:Drivers/VL53L0X/API/vl53l0x_api.c **** 	LOG_FUNCTION_START("");
1398:Drivers/VL53L0X/API/vl53l0x_api.c **** 
1399:Drivers/VL53L0X/API/vl53l0x_api.c **** 	LinearityCorrectiveGain = PALDevDataGet(Dev, LinearityCorrectiveGain);
 2111              		.loc 1 1399 0
 2112 0004 B0F85231 		ldrh	r3, [r0, #338]
 2113              	.LVL246:
1400:Drivers/VL53L0X/API/vl53l0x_api.c **** 
1401:Drivers/VL53L0X/API/vl53l0x_api.c **** 	if ((XTalkCompensationEnable == 0)
 2114              		.loc 1 1401 0
 2115 0008 0D46     		mov	r5, r1
 2116 000a 31B1     		cbz	r1, .L155
1402:Drivers/VL53L0X/API/vl53l0x_api.c **** 		|| (LinearityCorrectiveGain != 1000)) {
ARM GAS  /tmp/ccq7BpOX.s 			page 62


 2117              		.loc 1 1402 0
 2118 000c B3F57A7F 		cmp	r3, #1000
 2119 0010 01D0     		beq	.L158
1403:Drivers/VL53L0X/API/vl53l0x_api.c **** 		TempFix1616 = 0;
 2120              		.loc 1 1403 0
 2121 0012 0022     		movs	r2, #0
 2122 0014 02E0     		b	.L152
 2123              	.L158:
1404:Drivers/VL53L0X/API/vl53l0x_api.c **** 	} else {
1405:Drivers/VL53L0X/API/vl53l0x_api.c **** 		VL53L0X_GETPARAMETERFIELD(Dev, XTalkCompensationRateMegaCps,
 2124              		.loc 1 1405 0
 2125 0016 026A     		ldr	r2, [r0, #32]
 2126              	.LVL247:
 2127 0018 00E0     		b	.L152
 2128              	.LVL248:
 2129              	.L155:
1403:Drivers/VL53L0X/API/vl53l0x_api.c **** 		TempFix1616 = 0;
 2130              		.loc 1 1403 0
 2131 001a 0022     		movs	r2, #0
 2132              	.L152:
 2133              	.LVL249:
1406:Drivers/VL53L0X/API/vl53l0x_api.c **** 			TempFix1616);
1407:Drivers/VL53L0X/API/vl53l0x_api.c **** 	}
1408:Drivers/VL53L0X/API/vl53l0x_api.c **** 
1409:Drivers/VL53L0X/API/vl53l0x_api.c **** 	/* the following register has a format 3.13 */
1410:Drivers/VL53L0X/API/vl53l0x_api.c **** 	Status = VL53L0X_WrWord(Dev,
 2134              		.loc 1 1410 0
 2135 001c C2F3CF02 		ubfx	r2, r2, #3, #16
 2136              	.LVL250:
 2137 0020 2021     		movs	r1, #32
 2138              	.LVL251:
 2139 0022 2046     		mov	r0, r4
 2140              	.LVL252:
 2141 0024 FFF7FEFF 		bl	VL53L0X_WrWord
 2142              	.LVL253:
1411:Drivers/VL53L0X/API/vl53l0x_api.c **** 	VL53L0X_REG_CROSSTALK_COMPENSATION_PEAK_RATE_MCPS,
1412:Drivers/VL53L0X/API/vl53l0x_api.c **** 		VL53L0X_FIXPOINT1616TOFIXPOINT313(TempFix1616));
1413:Drivers/VL53L0X/API/vl53l0x_api.c **** 
1414:Drivers/VL53L0X/API/vl53l0x_api.c **** 	if (Status == VL53L0X_ERROR_NONE) {
 2143              		.loc 1 1414 0
 2144 0028 0346     		mov	r3, r0
 2145 002a 10B9     		cbnz	r0, .L153
1415:Drivers/VL53L0X/API/vl53l0x_api.c **** 		if (XTalkCompensationEnable == 0) {
 2146              		.loc 1 1415 0
 2147 002c 1DB1     		cbz	r5, .L159
1416:Drivers/VL53L0X/API/vl53l0x_api.c **** 			VL53L0X_SETPARAMETERFIELD(Dev, XTalkCompensationEnable,
1417:Drivers/VL53L0X/API/vl53l0x_api.c **** 				0);
1418:Drivers/VL53L0X/API/vl53l0x_api.c **** 		} else {
1419:Drivers/VL53L0X/API/vl53l0x_api.c **** 			VL53L0X_SETPARAMETERFIELD(Dev, XTalkCompensationEnable,
 2148              		.loc 1 1419 0
 2149 002e 0122     		movs	r2, #1
 2150 0030 2277     		strb	r2, [r4, #28]
 2151              	.L153:
1420:Drivers/VL53L0X/API/vl53l0x_api.c **** 				1);
1421:Drivers/VL53L0X/API/vl53l0x_api.c **** 		}
1422:Drivers/VL53L0X/API/vl53l0x_api.c **** 	}
1423:Drivers/VL53L0X/API/vl53l0x_api.c **** 
ARM GAS  /tmp/ccq7BpOX.s 			page 63


1424:Drivers/VL53L0X/API/vl53l0x_api.c **** 	LOG_FUNCTION_END(Status);
1425:Drivers/VL53L0X/API/vl53l0x_api.c **** 	return Status;
1426:Drivers/VL53L0X/API/vl53l0x_api.c **** }
 2152              		.loc 1 1426 0
 2153 0032 1846     		mov	r0, r3
 2154              	.LVL254:
 2155 0034 38BD     		pop	{r3, r4, r5, pc}
 2156              	.LVL255:
 2157              	.L159:
1416:Drivers/VL53L0X/API/vl53l0x_api.c **** 			VL53L0X_SETPARAMETERFIELD(Dev, XTalkCompensationEnable,
 2158              		.loc 1 1416 0
 2159 0036 0022     		movs	r2, #0
 2160 0038 2277     		strb	r2, [r4, #28]
 2161 003a FAE7     		b	.L153
 2162              		.cfi_endproc
 2163              	.LFE174:
 2165              		.section	.text.VL53L0X_GetXTalkCompensationEnable,"ax",%progbits
 2166              		.align	1
 2167              		.global	VL53L0X_GetXTalkCompensationEnable
 2168              		.syntax unified
 2169              		.thumb
 2170              		.thumb_func
 2171              		.fpu fpv4-sp-d16
 2173              	VL53L0X_GetXTalkCompensationEnable:
 2174              	.LFB175:
1427:Drivers/VL53L0X/API/vl53l0x_api.c **** 
1428:Drivers/VL53L0X/API/vl53l0x_api.c **** VL53L0X_Error VL53L0X_GetXTalkCompensationEnable(VL53L0X_DEV Dev,
1429:Drivers/VL53L0X/API/vl53l0x_api.c **** 	uint8_t *pXTalkCompensationEnable)
1430:Drivers/VL53L0X/API/vl53l0x_api.c **** {
 2175              		.loc 1 1430 0
 2176              		.cfi_startproc
 2177              		@ args = 0, pretend = 0, frame = 0
 2178              		@ frame_needed = 0, uses_anonymous_args = 0
 2179              		@ link register save eliminated.
 2180              	.LVL256:
1431:Drivers/VL53L0X/API/vl53l0x_api.c **** 	VL53L0X_Error Status = VL53L0X_ERROR_NONE;
1432:Drivers/VL53L0X/API/vl53l0x_api.c **** 	uint8_t Temp8;
1433:Drivers/VL53L0X/API/vl53l0x_api.c **** 	LOG_FUNCTION_START("");
1434:Drivers/VL53L0X/API/vl53l0x_api.c **** 
1435:Drivers/VL53L0X/API/vl53l0x_api.c **** 	VL53L0X_GETPARAMETERFIELD(Dev, XTalkCompensationEnable, Temp8);
 2181              		.loc 1 1435 0
 2182 0000 037F     		ldrb	r3, [r0, #28]	@ zero_extendqisi2
 2183              	.LVL257:
1436:Drivers/VL53L0X/API/vl53l0x_api.c **** 	*pXTalkCompensationEnable = Temp8;
 2184              		.loc 1 1436 0
 2185 0002 0B70     		strb	r3, [r1]
1437:Drivers/VL53L0X/API/vl53l0x_api.c **** 
1438:Drivers/VL53L0X/API/vl53l0x_api.c **** 	LOG_FUNCTION_END(Status);
1439:Drivers/VL53L0X/API/vl53l0x_api.c **** 	return Status;
1440:Drivers/VL53L0X/API/vl53l0x_api.c **** }
 2186              		.loc 1 1440 0
 2187 0004 0020     		movs	r0, #0
 2188              	.LVL258:
 2189 0006 7047     		bx	lr
 2190              		.cfi_endproc
 2191              	.LFE175:
 2193              		.section	.text.VL53L0X_SetXTalkCompensationRateMegaCps,"ax",%progbits
ARM GAS  /tmp/ccq7BpOX.s 			page 64


 2194              		.align	1
 2195              		.global	VL53L0X_SetXTalkCompensationRateMegaCps
 2196              		.syntax unified
 2197              		.thumb
 2198              		.thumb_func
 2199              		.fpu fpv4-sp-d16
 2201              	VL53L0X_SetXTalkCompensationRateMegaCps:
 2202              	.LFB176:
1441:Drivers/VL53L0X/API/vl53l0x_api.c **** 
1442:Drivers/VL53L0X/API/vl53l0x_api.c **** VL53L0X_Error VL53L0X_SetXTalkCompensationRateMegaCps(VL53L0X_DEV Dev,
1443:Drivers/VL53L0X/API/vl53l0x_api.c **** 	FixPoint1616_t XTalkCompensationRateMegaCps)
1444:Drivers/VL53L0X/API/vl53l0x_api.c **** {
 2203              		.loc 1 1444 0
 2204              		.cfi_startproc
 2205              		@ args = 0, pretend = 0, frame = 0
 2206              		@ frame_needed = 0, uses_anonymous_args = 0
 2207              	.LVL259:
 2208 0000 38B5     		push	{r3, r4, r5, lr}
 2209              	.LCFI60:
 2210              		.cfi_def_cfa_offset 16
 2211              		.cfi_offset 3, -16
 2212              		.cfi_offset 4, -12
 2213              		.cfi_offset 5, -8
 2214              		.cfi_offset 14, -4
 2215              	.LVL260:
1445:Drivers/VL53L0X/API/vl53l0x_api.c **** 	VL53L0X_Error Status = VL53L0X_ERROR_NONE;
1446:Drivers/VL53L0X/API/vl53l0x_api.c **** 	uint8_t Temp8;
1447:Drivers/VL53L0X/API/vl53l0x_api.c **** 	uint16_t LinearityCorrectiveGain;
1448:Drivers/VL53L0X/API/vl53l0x_api.c **** 	uint16_t data;
1449:Drivers/VL53L0X/API/vl53l0x_api.c **** 	LOG_FUNCTION_START("");
1450:Drivers/VL53L0X/API/vl53l0x_api.c **** 
1451:Drivers/VL53L0X/API/vl53l0x_api.c **** 	VL53L0X_GETPARAMETERFIELD(Dev, XTalkCompensationEnable, Temp8);
 2216              		.loc 1 1451 0
 2217 0002 037F     		ldrb	r3, [r0, #28]	@ zero_extendqisi2
 2218              	.LVL261:
1452:Drivers/VL53L0X/API/vl53l0x_api.c **** 	LinearityCorrectiveGain = PALDevDataGet(Dev, LinearityCorrectiveGain);
 2219              		.loc 1 1452 0
 2220 0004 B0F85221 		ldrh	r2, [r0, #338]
 2221              	.LVL262:
1453:Drivers/VL53L0X/API/vl53l0x_api.c **** 
1454:Drivers/VL53L0X/API/vl53l0x_api.c **** 	if (Temp8 == 0) { /* disabled write only internal value */
 2222              		.loc 1 1454 0
 2223 0008 63B1     		cbz	r3, .L167
1455:Drivers/VL53L0X/API/vl53l0x_api.c **** 		VL53L0X_SETPARAMETERFIELD(Dev, XTalkCompensationRateMegaCps,
1456:Drivers/VL53L0X/API/vl53l0x_api.c **** 			XTalkCompensationRateMegaCps);
1457:Drivers/VL53L0X/API/vl53l0x_api.c **** 	} else {
1458:Drivers/VL53L0X/API/vl53l0x_api.c **** 		/* the following register has a format 3.13 */
1459:Drivers/VL53L0X/API/vl53l0x_api.c **** 		if (LinearityCorrectiveGain == 1000) {
 2224              		.loc 1 1459 0
 2225 000a B2F57A7F 		cmp	r2, #1000
 2226 000e 0CD0     		beq	.L168
1460:Drivers/VL53L0X/API/vl53l0x_api.c **** 			data = VL53L0X_FIXPOINT1616TOFIXPOINT313(
1461:Drivers/VL53L0X/API/vl53l0x_api.c **** 				XTalkCompensationRateMegaCps);
1462:Drivers/VL53L0X/API/vl53l0x_api.c **** 		} else {
1463:Drivers/VL53L0X/API/vl53l0x_api.c **** 			data = 0;
 2227              		.loc 1 1463 0
 2228 0010 0022     		movs	r2, #0
ARM GAS  /tmp/ccq7BpOX.s 			page 65


 2229              	.LVL263:
 2230              	.L164:
 2231 0012 0D46     		mov	r5, r1
 2232 0014 0446     		mov	r4, r0
 2233              	.LVL264:
1464:Drivers/VL53L0X/API/vl53l0x_api.c **** 		}
1465:Drivers/VL53L0X/API/vl53l0x_api.c **** 
1466:Drivers/VL53L0X/API/vl53l0x_api.c **** 		Status = VL53L0X_WrWord(Dev,
 2234              		.loc 1 1466 0
 2235 0016 2021     		movs	r1, #32
 2236              	.LVL265:
 2237 0018 FFF7FEFF 		bl	VL53L0X_WrWord
 2238              	.LVL266:
1467:Drivers/VL53L0X/API/vl53l0x_api.c **** 		VL53L0X_REG_CROSSTALK_COMPENSATION_PEAK_RATE_MCPS, data);
1468:Drivers/VL53L0X/API/vl53l0x_api.c **** 
1469:Drivers/VL53L0X/API/vl53l0x_api.c **** 		if (Status == VL53L0X_ERROR_NONE) {
 2239              		.loc 1 1469 0
 2240 001c 0346     		mov	r3, r0
 2241 001e 10B9     		cbnz	r0, .L163
1470:Drivers/VL53L0X/API/vl53l0x_api.c **** 			VL53L0X_SETPARAMETERFIELD(Dev,
 2242              		.loc 1 1470 0
 2243 0020 2562     		str	r5, [r4, #32]
 2244 0022 00E0     		b	.L163
 2245              	.LVL267:
 2246              	.L167:
1455:Drivers/VL53L0X/API/vl53l0x_api.c **** 			XTalkCompensationRateMegaCps);
 2247              		.loc 1 1455 0
 2248 0024 0162     		str	r1, [r0, #32]
 2249              	.LVL268:
 2250              	.L163:
1471:Drivers/VL53L0X/API/vl53l0x_api.c **** 				XTalkCompensationRateMegaCps,
1472:Drivers/VL53L0X/API/vl53l0x_api.c **** 				XTalkCompensationRateMegaCps);
1473:Drivers/VL53L0X/API/vl53l0x_api.c **** 		}
1474:Drivers/VL53L0X/API/vl53l0x_api.c **** 	}
1475:Drivers/VL53L0X/API/vl53l0x_api.c **** 
1476:Drivers/VL53L0X/API/vl53l0x_api.c **** 	LOG_FUNCTION_END(Status);
1477:Drivers/VL53L0X/API/vl53l0x_api.c **** 	return Status;
1478:Drivers/VL53L0X/API/vl53l0x_api.c **** }
 2251              		.loc 1 1478 0
 2252 0026 1846     		mov	r0, r3
 2253 0028 38BD     		pop	{r3, r4, r5, pc}
 2254              	.LVL269:
 2255              	.L168:
1460:Drivers/VL53L0X/API/vl53l0x_api.c **** 				XTalkCompensationRateMegaCps);
 2256              		.loc 1 1460 0
 2257 002a C1F3CF02 		ubfx	r2, r1, #3, #16
 2258              	.LVL270:
 2259 002e F0E7     		b	.L164
 2260              		.cfi_endproc
 2261              	.LFE176:
 2263              		.section	.text.VL53L0X_GetXTalkCompensationRateMegaCps,"ax",%progbits
 2264              		.align	1
 2265              		.global	VL53L0X_GetXTalkCompensationRateMegaCps
 2266              		.syntax unified
 2267              		.thumb
 2268              		.thumb_func
 2269              		.fpu fpv4-sp-d16
ARM GAS  /tmp/ccq7BpOX.s 			page 66


 2271              	VL53L0X_GetXTalkCompensationRateMegaCps:
 2272              	.LFB177:
1479:Drivers/VL53L0X/API/vl53l0x_api.c **** 
1480:Drivers/VL53L0X/API/vl53l0x_api.c **** VL53L0X_Error VL53L0X_GetXTalkCompensationRateMegaCps(VL53L0X_DEV Dev,
1481:Drivers/VL53L0X/API/vl53l0x_api.c **** 	FixPoint1616_t *pXTalkCompensationRateMegaCps)
1482:Drivers/VL53L0X/API/vl53l0x_api.c **** {
 2273              		.loc 1 1482 0
 2274              		.cfi_startproc
 2275              		@ args = 0, pretend = 0, frame = 8
 2276              		@ frame_needed = 0, uses_anonymous_args = 0
 2277              	.LVL271:
 2278 0000 30B5     		push	{r4, r5, lr}
 2279              	.LCFI61:
 2280              		.cfi_def_cfa_offset 12
 2281              		.cfi_offset 4, -12
 2282              		.cfi_offset 5, -8
 2283              		.cfi_offset 14, -4
 2284 0002 83B0     		sub	sp, sp, #12
 2285              	.LCFI62:
 2286              		.cfi_def_cfa_offset 24
 2287 0004 0446     		mov	r4, r0
 2288 0006 0D46     		mov	r5, r1
 2289              	.LVL272:
1483:Drivers/VL53L0X/API/vl53l0x_api.c **** 	VL53L0X_Error Status = VL53L0X_ERROR_NONE;
1484:Drivers/VL53L0X/API/vl53l0x_api.c **** 	uint16_t Value;
1485:Drivers/VL53L0X/API/vl53l0x_api.c **** 	FixPoint1616_t TempFix1616;
1486:Drivers/VL53L0X/API/vl53l0x_api.c **** 
1487:Drivers/VL53L0X/API/vl53l0x_api.c **** 	LOG_FUNCTION_START("");
1488:Drivers/VL53L0X/API/vl53l0x_api.c **** 
1489:Drivers/VL53L0X/API/vl53l0x_api.c **** 	Status = VL53L0X_RdWord(Dev,
 2290              		.loc 1 1489 0
 2291 0008 0DF10602 		add	r2, sp, #6
 2292 000c 2021     		movs	r1, #32
 2293              	.LVL273:
 2294 000e FFF7FEFF 		bl	VL53L0X_RdWord
 2295              	.LVL274:
1490:Drivers/VL53L0X/API/vl53l0x_api.c **** 	VL53L0X_REG_CROSSTALK_COMPENSATION_PEAK_RATE_MCPS, (uint16_t *)&Value);
1491:Drivers/VL53L0X/API/vl53l0x_api.c **** 	if (Status == VL53L0X_ERROR_NONE) {
 2296              		.loc 1 1491 0
 2297 0012 0246     		mov	r2, r0
 2298 0014 38B9     		cbnz	r0, .L170
1492:Drivers/VL53L0X/API/vl53l0x_api.c **** 		if (Value == 0) {
 2299              		.loc 1 1492 0
 2300 0016 BDF80630 		ldrh	r3, [sp, #6]
 2301 001a 3BB1     		cbz	r3, .L173
1493:Drivers/VL53L0X/API/vl53l0x_api.c **** 			/* the Xtalk is disabled return value from memory */
1494:Drivers/VL53L0X/API/vl53l0x_api.c **** 			VL53L0X_GETPARAMETERFIELD(Dev,
1495:Drivers/VL53L0X/API/vl53l0x_api.c **** 				XTalkCompensationRateMegaCps, TempFix1616);
1496:Drivers/VL53L0X/API/vl53l0x_api.c **** 			*pXTalkCompensationRateMegaCps = TempFix1616;
1497:Drivers/VL53L0X/API/vl53l0x_api.c **** 			VL53L0X_SETPARAMETERFIELD(Dev, XTalkCompensationEnable,
1498:Drivers/VL53L0X/API/vl53l0x_api.c **** 				0);
1499:Drivers/VL53L0X/API/vl53l0x_api.c **** 		} else {
1500:Drivers/VL53L0X/API/vl53l0x_api.c **** 			TempFix1616 = VL53L0X_FIXPOINT313TOFIXPOINT1616(Value);
 2302              		.loc 1 1500 0
 2303 001c DB00     		lsls	r3, r3, #3
 2304              	.LVL275:
1501:Drivers/VL53L0X/API/vl53l0x_api.c **** 			*pXTalkCompensationRateMegaCps = TempFix1616;
ARM GAS  /tmp/ccq7BpOX.s 			page 67


 2305              		.loc 1 1501 0
 2306 001e 2B60     		str	r3, [r5]
1502:Drivers/VL53L0X/API/vl53l0x_api.c **** 			VL53L0X_SETPARAMETERFIELD(Dev,
 2307              		.loc 1 1502 0
 2308 0020 2362     		str	r3, [r4, #32]
1503:Drivers/VL53L0X/API/vl53l0x_api.c **** 				XTalkCompensationRateMegaCps, TempFix1616);
1504:Drivers/VL53L0X/API/vl53l0x_api.c **** 			VL53L0X_SETPARAMETERFIELD(Dev, XTalkCompensationEnable,
 2309              		.loc 1 1504 0
 2310 0022 0123     		movs	r3, #1
 2311              	.LVL276:
 2312 0024 2377     		strb	r3, [r4, #28]
 2313              	.LVL277:
 2314              	.L170:
1505:Drivers/VL53L0X/API/vl53l0x_api.c **** 				1);
1506:Drivers/VL53L0X/API/vl53l0x_api.c **** 		}
1507:Drivers/VL53L0X/API/vl53l0x_api.c **** 	}
1508:Drivers/VL53L0X/API/vl53l0x_api.c **** 
1509:Drivers/VL53L0X/API/vl53l0x_api.c **** 	LOG_FUNCTION_END(Status);
1510:Drivers/VL53L0X/API/vl53l0x_api.c **** 	return Status;
1511:Drivers/VL53L0X/API/vl53l0x_api.c **** }
 2315              		.loc 1 1511 0
 2316 0026 1046     		mov	r0, r2
 2317              	.LVL278:
 2318 0028 03B0     		add	sp, sp, #12
 2319              	.LCFI63:
 2320              		.cfi_remember_state
 2321              		.cfi_def_cfa_offset 12
 2322              		@ sp needed
 2323 002a 30BD     		pop	{r4, r5, pc}
 2324              	.LVL279:
 2325              	.L173:
 2326              	.LCFI64:
 2327              		.cfi_restore_state
1494:Drivers/VL53L0X/API/vl53l0x_api.c **** 				XTalkCompensationRateMegaCps, TempFix1616);
 2328              		.loc 1 1494 0
 2329 002c 236A     		ldr	r3, [r4, #32]
 2330              	.LVL280:
1496:Drivers/VL53L0X/API/vl53l0x_api.c **** 			VL53L0X_SETPARAMETERFIELD(Dev, XTalkCompensationEnable,
 2331              		.loc 1 1496 0
 2332 002e 2B60     		str	r3, [r5]
1497:Drivers/VL53L0X/API/vl53l0x_api.c **** 				0);
 2333              		.loc 1 1497 0
 2334 0030 0023     		movs	r3, #0
 2335              	.LVL281:
 2336 0032 2377     		strb	r3, [r4, #28]
 2337              	.LVL282:
 2338 0034 F7E7     		b	.L170
 2339              		.cfi_endproc
 2340              	.LFE177:
 2342              		.section	.text.VL53L0X_SetRefCalibration,"ax",%progbits
 2343              		.align	1
 2344              		.global	VL53L0X_SetRefCalibration
 2345              		.syntax unified
 2346              		.thumb
 2347              		.thumb_func
 2348              		.fpu fpv4-sp-d16
 2350              	VL53L0X_SetRefCalibration:
ARM GAS  /tmp/ccq7BpOX.s 			page 68


 2351              	.LFB178:
1512:Drivers/VL53L0X/API/vl53l0x_api.c **** 
1513:Drivers/VL53L0X/API/vl53l0x_api.c **** VL53L0X_Error VL53L0X_SetRefCalibration(VL53L0X_DEV Dev, uint8_t VhvSettings,
1514:Drivers/VL53L0X/API/vl53l0x_api.c **** 	uint8_t PhaseCal)
1515:Drivers/VL53L0X/API/vl53l0x_api.c **** {
 2352              		.loc 1 1515 0
 2353              		.cfi_startproc
 2354              		@ args = 0, pretend = 0, frame = 0
 2355              		@ frame_needed = 0, uses_anonymous_args = 0
 2356              	.LVL283:
 2357 0000 08B5     		push	{r3, lr}
 2358              	.LCFI65:
 2359              		.cfi_def_cfa_offset 8
 2360              		.cfi_offset 3, -8
 2361              		.cfi_offset 14, -4
 2362              	.LVL284:
1516:Drivers/VL53L0X/API/vl53l0x_api.c **** 	VL53L0X_Error Status = VL53L0X_ERROR_NONE;
1517:Drivers/VL53L0X/API/vl53l0x_api.c **** 	LOG_FUNCTION_START("");
1518:Drivers/VL53L0X/API/vl53l0x_api.c **** 
1519:Drivers/VL53L0X/API/vl53l0x_api.c **** 	Status = VL53L0X_set_ref_calibration(Dev, VhvSettings, PhaseCal);
 2363              		.loc 1 1519 0
 2364 0002 FFF7FEFF 		bl	VL53L0X_set_ref_calibration
 2365              	.LVL285:
1520:Drivers/VL53L0X/API/vl53l0x_api.c **** 
1521:Drivers/VL53L0X/API/vl53l0x_api.c **** 	LOG_FUNCTION_END(Status);
1522:Drivers/VL53L0X/API/vl53l0x_api.c **** 	return Status;
1523:Drivers/VL53L0X/API/vl53l0x_api.c **** }
 2366              		.loc 1 1523 0
 2367 0006 08BD     		pop	{r3, pc}
 2368              		.cfi_endproc
 2369              	.LFE178:
 2371              		.section	.text.VL53L0X_GetRefCalibration,"ax",%progbits
 2372              		.align	1
 2373              		.global	VL53L0X_GetRefCalibration
 2374              		.syntax unified
 2375              		.thumb
 2376              		.thumb_func
 2377              		.fpu fpv4-sp-d16
 2379              	VL53L0X_GetRefCalibration:
 2380              	.LFB179:
1524:Drivers/VL53L0X/API/vl53l0x_api.c **** 
1525:Drivers/VL53L0X/API/vl53l0x_api.c **** VL53L0X_Error VL53L0X_GetRefCalibration(VL53L0X_DEV Dev, uint8_t *pVhvSettings,
1526:Drivers/VL53L0X/API/vl53l0x_api.c **** 	uint8_t *pPhaseCal)
1527:Drivers/VL53L0X/API/vl53l0x_api.c **** {
 2381              		.loc 1 1527 0
 2382              		.cfi_startproc
 2383              		@ args = 0, pretend = 0, frame = 0
 2384              		@ frame_needed = 0, uses_anonymous_args = 0
 2385              	.LVL286:
 2386 0000 08B5     		push	{r3, lr}
 2387              	.LCFI66:
 2388              		.cfi_def_cfa_offset 8
 2389              		.cfi_offset 3, -8
 2390              		.cfi_offset 14, -4
 2391              	.LVL287:
1528:Drivers/VL53L0X/API/vl53l0x_api.c **** 	VL53L0X_Error Status = VL53L0X_ERROR_NONE;
1529:Drivers/VL53L0X/API/vl53l0x_api.c **** 	LOG_FUNCTION_START("");
ARM GAS  /tmp/ccq7BpOX.s 			page 69


1530:Drivers/VL53L0X/API/vl53l0x_api.c **** 
1531:Drivers/VL53L0X/API/vl53l0x_api.c **** 	Status = VL53L0X_get_ref_calibration(Dev, pVhvSettings, pPhaseCal);
 2392              		.loc 1 1531 0
 2393 0002 FFF7FEFF 		bl	VL53L0X_get_ref_calibration
 2394              	.LVL288:
1532:Drivers/VL53L0X/API/vl53l0x_api.c **** 
1533:Drivers/VL53L0X/API/vl53l0x_api.c **** 	LOG_FUNCTION_END(Status);
1534:Drivers/VL53L0X/API/vl53l0x_api.c **** 	return Status;
1535:Drivers/VL53L0X/API/vl53l0x_api.c **** }
 2395              		.loc 1 1535 0
 2396 0006 08BD     		pop	{r3, pc}
 2397              		.cfi_endproc
 2398              	.LFE179:
 2400              		.section	.text.VL53L0X_GetNumberOfLimitCheck,"ax",%progbits
 2401              		.align	1
 2402              		.global	VL53L0X_GetNumberOfLimitCheck
 2403              		.syntax unified
 2404              		.thumb
 2405              		.thumb_func
 2406              		.fpu fpv4-sp-d16
 2408              	VL53L0X_GetNumberOfLimitCheck:
 2409              	.LFB180:
1536:Drivers/VL53L0X/API/vl53l0x_api.c **** 
1537:Drivers/VL53L0X/API/vl53l0x_api.c **** /*
1538:Drivers/VL53L0X/API/vl53l0x_api.c ****  * CHECK LIMIT FUNCTIONS
1539:Drivers/VL53L0X/API/vl53l0x_api.c ****  */
1540:Drivers/VL53L0X/API/vl53l0x_api.c **** 
1541:Drivers/VL53L0X/API/vl53l0x_api.c **** VL53L0X_Error VL53L0X_GetNumberOfLimitCheck(uint16_t *pNumberOfLimitCheck)
1542:Drivers/VL53L0X/API/vl53l0x_api.c **** {
 2410              		.loc 1 1542 0
 2411              		.cfi_startproc
 2412              		@ args = 0, pretend = 0, frame = 0
 2413              		@ frame_needed = 0, uses_anonymous_args = 0
 2414              		@ link register save eliminated.
 2415              	.LVL289:
1543:Drivers/VL53L0X/API/vl53l0x_api.c **** 	VL53L0X_Error Status = VL53L0X_ERROR_NONE;
1544:Drivers/VL53L0X/API/vl53l0x_api.c **** 	LOG_FUNCTION_START("");
1545:Drivers/VL53L0X/API/vl53l0x_api.c **** 
1546:Drivers/VL53L0X/API/vl53l0x_api.c **** 	*pNumberOfLimitCheck = VL53L0X_CHECKENABLE_NUMBER_OF_CHECKS;
 2416              		.loc 1 1546 0
 2417 0000 0623     		movs	r3, #6
 2418 0002 0380     		strh	r3, [r0]	@ movhi
1547:Drivers/VL53L0X/API/vl53l0x_api.c **** 
1548:Drivers/VL53L0X/API/vl53l0x_api.c **** 	LOG_FUNCTION_END(Status);
1549:Drivers/VL53L0X/API/vl53l0x_api.c **** 	return Status;
1550:Drivers/VL53L0X/API/vl53l0x_api.c **** }
 2419              		.loc 1 1550 0
 2420 0004 0020     		movs	r0, #0
 2421              	.LVL290:
 2422 0006 7047     		bx	lr
 2423              		.cfi_endproc
 2424              	.LFE180:
 2426              		.section	.text.VL53L0X_GetLimitCheckInfo,"ax",%progbits
 2427              		.align	1
 2428              		.global	VL53L0X_GetLimitCheckInfo
 2429              		.syntax unified
 2430              		.thumb
ARM GAS  /tmp/ccq7BpOX.s 			page 70


 2431              		.thumb_func
 2432              		.fpu fpv4-sp-d16
 2434              	VL53L0X_GetLimitCheckInfo:
 2435              	.LFB181:
1551:Drivers/VL53L0X/API/vl53l0x_api.c **** 
1552:Drivers/VL53L0X/API/vl53l0x_api.c **** VL53L0X_Error VL53L0X_GetLimitCheckInfo(VL53L0X_DEV Dev, uint16_t LimitCheckId,
1553:Drivers/VL53L0X/API/vl53l0x_api.c **** 	char *pLimitCheckString)
1554:Drivers/VL53L0X/API/vl53l0x_api.c **** {
 2436              		.loc 1 1554 0
 2437              		.cfi_startproc
 2438              		@ args = 0, pretend = 0, frame = 0
 2439              		@ frame_needed = 0, uses_anonymous_args = 0
 2440              	.LVL291:
 2441 0000 08B5     		push	{r3, lr}
 2442              	.LCFI67:
 2443              		.cfi_def_cfa_offset 8
 2444              		.cfi_offset 3, -8
 2445              		.cfi_offset 14, -4
 2446              	.LVL292:
1555:Drivers/VL53L0X/API/vl53l0x_api.c **** 	VL53L0X_Error Status = VL53L0X_ERROR_NONE;
1556:Drivers/VL53L0X/API/vl53l0x_api.c **** 
1557:Drivers/VL53L0X/API/vl53l0x_api.c **** 	LOG_FUNCTION_START("");
1558:Drivers/VL53L0X/API/vl53l0x_api.c **** 
1559:Drivers/VL53L0X/API/vl53l0x_api.c **** 	Status = VL53L0X_get_limit_check_info(Dev, LimitCheckId,
 2447              		.loc 1 1559 0
 2448 0002 FFF7FEFF 		bl	VL53L0X_get_limit_check_info
 2449              	.LVL293:
1560:Drivers/VL53L0X/API/vl53l0x_api.c **** 		pLimitCheckString);
1561:Drivers/VL53L0X/API/vl53l0x_api.c **** 
1562:Drivers/VL53L0X/API/vl53l0x_api.c **** 	LOG_FUNCTION_END(Status);
1563:Drivers/VL53L0X/API/vl53l0x_api.c **** 	return Status;
1564:Drivers/VL53L0X/API/vl53l0x_api.c **** }
 2450              		.loc 1 1564 0
 2451 0006 08BD     		pop	{r3, pc}
 2452              		.cfi_endproc
 2453              	.LFE181:
 2455              		.section	.text.VL53L0X_GetLimitCheckStatus,"ax",%progbits
 2456              		.align	1
 2457              		.global	VL53L0X_GetLimitCheckStatus
 2458              		.syntax unified
 2459              		.thumb
 2460              		.thumb_func
 2461              		.fpu fpv4-sp-d16
 2463              	VL53L0X_GetLimitCheckStatus:
 2464              	.LFB182:
1565:Drivers/VL53L0X/API/vl53l0x_api.c **** 
1566:Drivers/VL53L0X/API/vl53l0x_api.c **** VL53L0X_Error VL53L0X_GetLimitCheckStatus(VL53L0X_DEV Dev, uint16_t LimitCheckId,
1567:Drivers/VL53L0X/API/vl53l0x_api.c **** 	uint8_t *pLimitCheckStatus)
1568:Drivers/VL53L0X/API/vl53l0x_api.c **** {
 2465              		.loc 1 1568 0
 2466              		.cfi_startproc
 2467              		@ args = 0, pretend = 0, frame = 0
 2468              		@ frame_needed = 0, uses_anonymous_args = 0
 2469              		@ link register save eliminated.
 2470              	.LVL294:
1569:Drivers/VL53L0X/API/vl53l0x_api.c **** 	VL53L0X_Error Status = VL53L0X_ERROR_NONE;
1570:Drivers/VL53L0X/API/vl53l0x_api.c **** 	uint8_t Temp8;
ARM GAS  /tmp/ccq7BpOX.s 			page 71


1571:Drivers/VL53L0X/API/vl53l0x_api.c **** 
1572:Drivers/VL53L0X/API/vl53l0x_api.c **** 	LOG_FUNCTION_START("");
1573:Drivers/VL53L0X/API/vl53l0x_api.c **** 
1574:Drivers/VL53L0X/API/vl53l0x_api.c **** 	if (LimitCheckId >= VL53L0X_CHECKENABLE_NUMBER_OF_CHECKS) {
 2471              		.loc 1 1574 0
 2472 0000 0529     		cmp	r1, #5
 2473 0002 05D8     		bhi	.L183
1575:Drivers/VL53L0X/API/vl53l0x_api.c **** 		Status = VL53L0X_ERROR_INVALID_PARAMS;
1576:Drivers/VL53L0X/API/vl53l0x_api.c **** 	} else {
1577:Drivers/VL53L0X/API/vl53l0x_api.c **** 
1578:Drivers/VL53L0X/API/vl53l0x_api.c **** 		VL53L0X_GETARRAYPARAMETERFIELD(Dev, LimitChecksStatus,
 2474              		.loc 1 1578 0
 2475 0004 0844     		add	r0, r0, r1
 2476              	.LVL295:
 2477 0006 90F82E30 		ldrb	r3, [r0, #46]	@ zero_extendqisi2
 2478              	.LVL296:
1579:Drivers/VL53L0X/API/vl53l0x_api.c **** 			LimitCheckId, Temp8);
1580:Drivers/VL53L0X/API/vl53l0x_api.c **** 
1581:Drivers/VL53L0X/API/vl53l0x_api.c **** 		*pLimitCheckStatus = Temp8;
 2479              		.loc 1 1581 0
 2480 000a 1370     		strb	r3, [r2]
1569:Drivers/VL53L0X/API/vl53l0x_api.c **** 	uint8_t Temp8;
 2481              		.loc 1 1569 0
 2482 000c 0020     		movs	r0, #0
 2483 000e 7047     		bx	lr
 2484              	.LVL297:
 2485              	.L183:
1575:Drivers/VL53L0X/API/vl53l0x_api.c **** 		Status = VL53L0X_ERROR_INVALID_PARAMS;
 2486              		.loc 1 1575 0
 2487 0010 6FF00300 		mvn	r0, #3
 2488              	.LVL298:
1582:Drivers/VL53L0X/API/vl53l0x_api.c **** 
1583:Drivers/VL53L0X/API/vl53l0x_api.c **** 	}
1584:Drivers/VL53L0X/API/vl53l0x_api.c **** 
1585:Drivers/VL53L0X/API/vl53l0x_api.c **** 	LOG_FUNCTION_END(Status);
1586:Drivers/VL53L0X/API/vl53l0x_api.c **** 	return Status;
1587:Drivers/VL53L0X/API/vl53l0x_api.c **** }
 2489              		.loc 1 1587 0
 2490 0014 7047     		bx	lr
 2491              		.cfi_endproc
 2492              	.LFE182:
 2494              		.section	.text.VL53L0X_SetLimitCheckEnable,"ax",%progbits
 2495              		.align	1
 2496              		.global	VL53L0X_SetLimitCheckEnable
 2497              		.syntax unified
 2498              		.thumb
 2499              		.thumb_func
 2500              		.fpu fpv4-sp-d16
 2502              	VL53L0X_SetLimitCheckEnable:
 2503              	.LFB183:
1588:Drivers/VL53L0X/API/vl53l0x_api.c **** 
1589:Drivers/VL53L0X/API/vl53l0x_api.c **** VL53L0X_Error VL53L0X_SetLimitCheckEnable(VL53L0X_DEV Dev, uint16_t LimitCheckId,
1590:Drivers/VL53L0X/API/vl53l0x_api.c **** 	uint8_t LimitCheckEnable)
1591:Drivers/VL53L0X/API/vl53l0x_api.c **** {
 2504              		.loc 1 1591 0
 2505              		.cfi_startproc
 2506              		@ args = 0, pretend = 0, frame = 0
ARM GAS  /tmp/ccq7BpOX.s 			page 72


 2507              		@ frame_needed = 0, uses_anonymous_args = 0
 2508              	.LVL299:
1592:Drivers/VL53L0X/API/vl53l0x_api.c **** 	VL53L0X_Error Status = VL53L0X_ERROR_NONE;
1593:Drivers/VL53L0X/API/vl53l0x_api.c **** 	FixPoint1616_t TempFix1616 = 0;
1594:Drivers/VL53L0X/API/vl53l0x_api.c **** 	uint8_t LimitCheckEnableInt = 0;
1595:Drivers/VL53L0X/API/vl53l0x_api.c **** 	uint8_t LimitCheckDisable = 0;
1596:Drivers/VL53L0X/API/vl53l0x_api.c **** 	uint8_t Temp8;
1597:Drivers/VL53L0X/API/vl53l0x_api.c **** 
1598:Drivers/VL53L0X/API/vl53l0x_api.c **** 	LOG_FUNCTION_START("");
1599:Drivers/VL53L0X/API/vl53l0x_api.c **** 
1600:Drivers/VL53L0X/API/vl53l0x_api.c **** 	if (LimitCheckId >= VL53L0X_CHECKENABLE_NUMBER_OF_CHECKS) {
 2509              		.loc 1 1600 0
 2510 0000 0529     		cmp	r1, #5
 2511 0002 41D8     		bhi	.L197
1591:Drivers/VL53L0X/API/vl53l0x_api.c **** 	VL53L0X_Error Status = VL53L0X_ERROR_NONE;
 2512              		.loc 1 1591 0
 2513 0004 F8B5     		push	{r3, r4, r5, r6, r7, lr}
 2514              	.LCFI68:
 2515              		.cfi_def_cfa_offset 24
 2516              		.cfi_offset 3, -24
 2517              		.cfi_offset 4, -20
 2518              		.cfi_offset 5, -16
 2519              		.cfi_offset 6, -12
 2520              		.cfi_offset 7, -8
 2521              		.cfi_offset 14, -4
1601:Drivers/VL53L0X/API/vl53l0x_api.c **** 		Status = VL53L0X_ERROR_INVALID_PARAMS;
1602:Drivers/VL53L0X/API/vl53l0x_api.c **** 	} else {
1603:Drivers/VL53L0X/API/vl53l0x_api.c **** 		if (LimitCheckEnable == 0) {
 2522              		.loc 1 1603 0
 2523 0006 8AB1     		cbz	r2, .L198
1604:Drivers/VL53L0X/API/vl53l0x_api.c **** 			TempFix1616 = 0;
1605:Drivers/VL53L0X/API/vl53l0x_api.c **** 			LimitCheckEnableInt = 0;
1606:Drivers/VL53L0X/API/vl53l0x_api.c **** 			LimitCheckDisable = 1;
1607:Drivers/VL53L0X/API/vl53l0x_api.c **** 
1608:Drivers/VL53L0X/API/vl53l0x_api.c **** 		} else {
1609:Drivers/VL53L0X/API/vl53l0x_api.c **** 			VL53L0X_GETARRAYPARAMETERFIELD(Dev, LimitChecksValue,
 2524              		.loc 1 1609 0
 2525 0008 01F10C03 		add	r3, r1, #12
 2526 000c 00EB8303 		add	r3, r0, r3, lsl #2
 2527 0010 D3F804C0 		ldr	ip, [r3, #4]
 2528              	.LVL300:
1610:Drivers/VL53L0X/API/vl53l0x_api.c **** 				LimitCheckId, TempFix1616);
1611:Drivers/VL53L0X/API/vl53l0x_api.c **** 			LimitCheckDisable = 0;
 2529              		.loc 1 1611 0
 2530 0014 0023     		movs	r3, #0
1612:Drivers/VL53L0X/API/vl53l0x_api.c **** 			/* this to be sure to have either 0 or 1 */
1613:Drivers/VL53L0X/API/vl53l0x_api.c **** 			LimitCheckEnableInt = 1;
 2531              		.loc 1 1613 0
 2532 0016 0127     		movs	r7, #1
 2533              	.LVL301:
 2534              	.L186:
 2535 0018 1646     		mov	r6, r2
 2536 001a 0C46     		mov	r4, r1
 2537 001c 0546     		mov	r5, r0
 2538              	.LVL302:
1614:Drivers/VL53L0X/API/vl53l0x_api.c **** 		}
1615:Drivers/VL53L0X/API/vl53l0x_api.c **** 
ARM GAS  /tmp/ccq7BpOX.s 			page 73


1616:Drivers/VL53L0X/API/vl53l0x_api.c **** 		switch (LimitCheckId) {
 2539              		.loc 1 1616 0
 2540 001e 0529     		cmp	r1, #5
 2541 0020 35D8     		bhi	.L199
 2542 0022 DFE801F0 		tbb	[pc, r1]
 2543              	.LVL303:
 2544              	.L188:
 2545 0026 08       		.byte	(.L187-.L188)/2
 2546 0027 0C       		.byte	(.L189-.L188)/2
 2547 0028 18       		.byte	(.L190-.L188)/2
 2548 0029 1C       		.byte	(.L191-.L188)/2
 2549 002a 20       		.byte	(.L192-.L188)/2
 2550 002b 26       		.byte	(.L193-.L188)/2
 2551              		.p2align 1
 2552              	.L198:
1605:Drivers/VL53L0X/API/vl53l0x_api.c **** 			LimitCheckDisable = 1;
 2553              		.loc 1 1605 0
 2554 002c 1746     		mov	r7, r2
1606:Drivers/VL53L0X/API/vl53l0x_api.c **** 
 2555              		.loc 1 1606 0
 2556 002e 0123     		movs	r3, #1
1604:Drivers/VL53L0X/API/vl53l0x_api.c **** 			LimitCheckEnableInt = 0;
 2557              		.loc 1 1604 0
 2558 0030 4FF0000C 		mov	ip, #0
 2559 0034 F0E7     		b	.L186
 2560              	.LVL304:
 2561              	.L187:
1617:Drivers/VL53L0X/API/vl53l0x_api.c **** 
1618:Drivers/VL53L0X/API/vl53l0x_api.c **** 		case VL53L0X_CHECKENABLE_SIGMA_FINAL_RANGE:
1619:Drivers/VL53L0X/API/vl53l0x_api.c **** 			/* internal computation: */
1620:Drivers/VL53L0X/API/vl53l0x_api.c **** 			VL53L0X_SETARRAYPARAMETERFIELD(Dev, LimitChecksEnable,
 2562              		.loc 1 1620 0
 2563 0036 80F82870 		strb	r7, [r0, #40]
1592:Drivers/VL53L0X/API/vl53l0x_api.c **** 	FixPoint1616_t TempFix1616 = 0;
 2564              		.loc 1 1592 0
 2565 003a 0020     		movs	r0, #0
 2566              	.LVL305:
 2567 003c 05E0     		b	.L194
 2568              	.LVL306:
 2569              	.L189:
1621:Drivers/VL53L0X/API/vl53l0x_api.c **** 				VL53L0X_CHECKENABLE_SIGMA_FINAL_RANGE,
1622:Drivers/VL53L0X/API/vl53l0x_api.c **** 				LimitCheckEnableInt);
1623:Drivers/VL53L0X/API/vl53l0x_api.c **** 
1624:Drivers/VL53L0X/API/vl53l0x_api.c **** 			break;
1625:Drivers/VL53L0X/API/vl53l0x_api.c **** 
1626:Drivers/VL53L0X/API/vl53l0x_api.c **** 		case VL53L0X_CHECKENABLE_SIGNAL_RATE_FINAL_RANGE:
1627:Drivers/VL53L0X/API/vl53l0x_api.c **** 
1628:Drivers/VL53L0X/API/vl53l0x_api.c **** 			Status = VL53L0X_WrWord(Dev,
 2570              		.loc 1 1628 0
 2571 003e CCF34F22 		ubfx	r2, ip, #9, #16
 2572 0042 4421     		movs	r1, #68
 2573              	.LVL307:
 2574 0044 FFF7FEFF 		bl	VL53L0X_WrWord
 2575              	.LVL308:
 2576              	.L195:
1629:Drivers/VL53L0X/API/vl53l0x_api.c **** 			VL53L0X_REG_FINAL_RANGE_CONFIG_MIN_COUNT_RATE_RTN_LIMIT,
1630:Drivers/VL53L0X/API/vl53l0x_api.c **** 				VL53L0X_FIXPOINT1616TOFIXPOINT97(TempFix1616));
ARM GAS  /tmp/ccq7BpOX.s 			page 74


1631:Drivers/VL53L0X/API/vl53l0x_api.c **** 
1632:Drivers/VL53L0X/API/vl53l0x_api.c **** 			break;
1633:Drivers/VL53L0X/API/vl53l0x_api.c **** 
1634:Drivers/VL53L0X/API/vl53l0x_api.c **** 		case VL53L0X_CHECKENABLE_SIGNAL_REF_CLIP:
1635:Drivers/VL53L0X/API/vl53l0x_api.c **** 
1636:Drivers/VL53L0X/API/vl53l0x_api.c **** 			/* internal computation: */
1637:Drivers/VL53L0X/API/vl53l0x_api.c **** 			VL53L0X_SETARRAYPARAMETERFIELD(Dev, LimitChecksEnable,
1638:Drivers/VL53L0X/API/vl53l0x_api.c **** 				VL53L0X_CHECKENABLE_SIGNAL_REF_CLIP,
1639:Drivers/VL53L0X/API/vl53l0x_api.c **** 				LimitCheckEnableInt);
1640:Drivers/VL53L0X/API/vl53l0x_api.c **** 
1641:Drivers/VL53L0X/API/vl53l0x_api.c **** 			break;
1642:Drivers/VL53L0X/API/vl53l0x_api.c **** 
1643:Drivers/VL53L0X/API/vl53l0x_api.c **** 		case VL53L0X_CHECKENABLE_RANGE_IGNORE_THRESHOLD:
1644:Drivers/VL53L0X/API/vl53l0x_api.c **** 
1645:Drivers/VL53L0X/API/vl53l0x_api.c **** 			/* internal computation: */
1646:Drivers/VL53L0X/API/vl53l0x_api.c **** 			VL53L0X_SETARRAYPARAMETERFIELD(Dev, LimitChecksEnable,
1647:Drivers/VL53L0X/API/vl53l0x_api.c **** 				VL53L0X_CHECKENABLE_RANGE_IGNORE_THRESHOLD,
1648:Drivers/VL53L0X/API/vl53l0x_api.c **** 				LimitCheckEnableInt);
1649:Drivers/VL53L0X/API/vl53l0x_api.c **** 
1650:Drivers/VL53L0X/API/vl53l0x_api.c **** 			break;
1651:Drivers/VL53L0X/API/vl53l0x_api.c **** 
1652:Drivers/VL53L0X/API/vl53l0x_api.c **** 		case VL53L0X_CHECKENABLE_SIGNAL_RATE_MSRC:
1653:Drivers/VL53L0X/API/vl53l0x_api.c **** 
1654:Drivers/VL53L0X/API/vl53l0x_api.c **** 			Temp8 = (uint8_t)(LimitCheckDisable << 1);
1655:Drivers/VL53L0X/API/vl53l0x_api.c **** 			Status = VL53L0X_UpdateByte(Dev,
1656:Drivers/VL53L0X/API/vl53l0x_api.c **** 				VL53L0X_REG_MSRC_CONFIG_CONTROL,
1657:Drivers/VL53L0X/API/vl53l0x_api.c **** 				0xFE, Temp8);
1658:Drivers/VL53L0X/API/vl53l0x_api.c **** 
1659:Drivers/VL53L0X/API/vl53l0x_api.c **** 			break;
1660:Drivers/VL53L0X/API/vl53l0x_api.c **** 
1661:Drivers/VL53L0X/API/vl53l0x_api.c **** 		case VL53L0X_CHECKENABLE_SIGNAL_RATE_PRE_RANGE:
1662:Drivers/VL53L0X/API/vl53l0x_api.c **** 
1663:Drivers/VL53L0X/API/vl53l0x_api.c **** 			Temp8 = (uint8_t)(LimitCheckDisable << 4);
1664:Drivers/VL53L0X/API/vl53l0x_api.c **** 			Status = VL53L0X_UpdateByte(Dev,
1665:Drivers/VL53L0X/API/vl53l0x_api.c **** 				VL53L0X_REG_MSRC_CONFIG_CONTROL,
1666:Drivers/VL53L0X/API/vl53l0x_api.c **** 				0xEF, Temp8);
1667:Drivers/VL53L0X/API/vl53l0x_api.c **** 
1668:Drivers/VL53L0X/API/vl53l0x_api.c **** 			break;
1669:Drivers/VL53L0X/API/vl53l0x_api.c **** 
1670:Drivers/VL53L0X/API/vl53l0x_api.c **** 
1671:Drivers/VL53L0X/API/vl53l0x_api.c **** 		default:
1672:Drivers/VL53L0X/API/vl53l0x_api.c **** 			Status = VL53L0X_ERROR_INVALID_PARAMS;
1673:Drivers/VL53L0X/API/vl53l0x_api.c **** 
1674:Drivers/VL53L0X/API/vl53l0x_api.c **** 		}
1675:Drivers/VL53L0X/API/vl53l0x_api.c **** 
1676:Drivers/VL53L0X/API/vl53l0x_api.c **** 	}
1677:Drivers/VL53L0X/API/vl53l0x_api.c **** 
1678:Drivers/VL53L0X/API/vl53l0x_api.c **** 	if (Status == VL53L0X_ERROR_NONE) {
 2577              		.loc 1 1678 0
 2578 0048 20B9     		cbnz	r0, .L185
 2579              	.LVL309:
 2580              	.L194:
1679:Drivers/VL53L0X/API/vl53l0x_api.c **** 		if (LimitCheckEnable == 0) {
 2581              		.loc 1 1679 0
 2582 004a C6B1     		cbz	r6, .L204
1680:Drivers/VL53L0X/API/vl53l0x_api.c **** 			VL53L0X_SETARRAYPARAMETERFIELD(Dev, LimitChecksEnable,
1681:Drivers/VL53L0X/API/vl53l0x_api.c **** 				LimitCheckId, 0);
ARM GAS  /tmp/ccq7BpOX.s 			page 75


1682:Drivers/VL53L0X/API/vl53l0x_api.c **** 		} else {
1683:Drivers/VL53L0X/API/vl53l0x_api.c **** 			VL53L0X_SETARRAYPARAMETERFIELD(Dev, LimitChecksEnable,
 2583              		.loc 1 1683 0
 2584 004c 2C44     		add	r4, r4, r5
 2585 004e 0123     		movs	r3, #1
 2586 0050 84F82830 		strb	r3, [r4, #40]
 2587              	.L185:
1684:Drivers/VL53L0X/API/vl53l0x_api.c **** 				LimitCheckId, 1);
1685:Drivers/VL53L0X/API/vl53l0x_api.c **** 		}
1686:Drivers/VL53L0X/API/vl53l0x_api.c **** 	}
1687:Drivers/VL53L0X/API/vl53l0x_api.c **** 
1688:Drivers/VL53L0X/API/vl53l0x_api.c **** 	LOG_FUNCTION_END(Status);
1689:Drivers/VL53L0X/API/vl53l0x_api.c **** 	return Status;
1690:Drivers/VL53L0X/API/vl53l0x_api.c **** }
 2588              		.loc 1 1690 0
 2589 0054 F8BD     		pop	{r3, r4, r5, r6, r7, pc}
 2590              	.LVL310:
 2591              	.L190:
1637:Drivers/VL53L0X/API/vl53l0x_api.c **** 				VL53L0X_CHECKENABLE_SIGNAL_REF_CLIP,
 2592              		.loc 1 1637 0
 2593 0056 80F82A70 		strb	r7, [r0, #42]
1592:Drivers/VL53L0X/API/vl53l0x_api.c **** 	FixPoint1616_t TempFix1616 = 0;
 2594              		.loc 1 1592 0
 2595 005a 0020     		movs	r0, #0
 2596              	.LVL311:
 2597 005c F5E7     		b	.L194
 2598              	.LVL312:
 2599              	.L191:
1646:Drivers/VL53L0X/API/vl53l0x_api.c **** 				VL53L0X_CHECKENABLE_RANGE_IGNORE_THRESHOLD,
 2600              		.loc 1 1646 0
 2601 005e 80F82B70 		strb	r7, [r0, #43]
1592:Drivers/VL53L0X/API/vl53l0x_api.c **** 	FixPoint1616_t TempFix1616 = 0;
 2602              		.loc 1 1592 0
 2603 0062 0020     		movs	r0, #0
 2604              	.LVL313:
 2605 0064 F1E7     		b	.L194
 2606              	.LVL314:
 2607              	.L192:
1655:Drivers/VL53L0X/API/vl53l0x_api.c **** 				VL53L0X_REG_MSRC_CONFIG_CONTROL,
 2608              		.loc 1 1655 0
 2609 0066 5B00     		lsls	r3, r3, #1
 2610              	.LVL315:
 2611 0068 FE22     		movs	r2, #254
 2612 006a 6021     		movs	r1, #96
 2613              	.LVL316:
 2614 006c FFF7FEFF 		bl	VL53L0X_UpdateByte
 2615              	.LVL317:
1659:Drivers/VL53L0X/API/vl53l0x_api.c **** 
 2616              		.loc 1 1659 0
 2617 0070 EAE7     		b	.L195
 2618              	.LVL318:
 2619              	.L193:
1664:Drivers/VL53L0X/API/vl53l0x_api.c **** 				VL53L0X_REG_MSRC_CONFIG_CONTROL,
 2620              		.loc 1 1664 0
 2621 0072 1B01     		lsls	r3, r3, #4
 2622              	.LVL319:
 2623 0074 EF22     		movs	r2, #239
ARM GAS  /tmp/ccq7BpOX.s 			page 76


 2624 0076 6021     		movs	r1, #96
 2625              	.LVL320:
 2626 0078 FFF7FEFF 		bl	VL53L0X_UpdateByte
 2627              	.LVL321:
1668:Drivers/VL53L0X/API/vl53l0x_api.c **** 
 2628              		.loc 1 1668 0
 2629 007c E4E7     		b	.L195
 2630              	.LVL322:
 2631              	.L204:
1680:Drivers/VL53L0X/API/vl53l0x_api.c **** 				LimitCheckId, 0);
 2632              		.loc 1 1680 0
 2633 007e 2C44     		add	r4, r4, r5
 2634 0080 0023     		movs	r3, #0
 2635 0082 84F82830 		strb	r3, [r4, #40]
 2636 0086 E5E7     		b	.L185
 2637              	.LVL323:
 2638              	.L197:
 2639              	.LCFI69:
 2640              		.cfi_def_cfa_offset 0
 2641              		.cfi_restore 3
 2642              		.cfi_restore 4
 2643              		.cfi_restore 5
 2644              		.cfi_restore 6
 2645              		.cfi_restore 7
 2646              		.cfi_restore 14
1601:Drivers/VL53L0X/API/vl53l0x_api.c **** 	} else {
 2647              		.loc 1 1601 0
 2648 0088 6FF00300 		mvn	r0, #3
 2649              	.LVL324:
 2650              		.loc 1 1690 0
 2651 008c 7047     		bx	lr
 2652              	.LVL325:
 2653              	.L199:
1672:Drivers/VL53L0X/API/vl53l0x_api.c **** 
 2654              		.loc 1 1672 0
 2655 008e 6FF00300 		mvn	r0, #3
 2656              	.LVL326:
 2657 0092 DFE7     		b	.L185
 2658              		.cfi_endproc
 2659              	.LFE183:
 2661              		.section	.text.VL53L0X_GetLimitCheckEnable,"ax",%progbits
 2662              		.align	1
 2663              		.global	VL53L0X_GetLimitCheckEnable
 2664              		.syntax unified
 2665              		.thumb
 2666              		.thumb_func
 2667              		.fpu fpv4-sp-d16
 2669              	VL53L0X_GetLimitCheckEnable:
 2670              	.LFB184:
1691:Drivers/VL53L0X/API/vl53l0x_api.c **** 
1692:Drivers/VL53L0X/API/vl53l0x_api.c **** VL53L0X_Error VL53L0X_GetLimitCheckEnable(VL53L0X_DEV Dev, uint16_t LimitCheckId,
1693:Drivers/VL53L0X/API/vl53l0x_api.c **** 	uint8_t *pLimitCheckEnable)
1694:Drivers/VL53L0X/API/vl53l0x_api.c **** {
 2671              		.loc 1 1694 0
 2672              		.cfi_startproc
 2673              		@ args = 0, pretend = 0, frame = 0
 2674              		@ frame_needed = 0, uses_anonymous_args = 0
ARM GAS  /tmp/ccq7BpOX.s 			page 77


 2675              		@ link register save eliminated.
 2676              	.LVL327:
1695:Drivers/VL53L0X/API/vl53l0x_api.c **** 	VL53L0X_Error Status = VL53L0X_ERROR_NONE;
1696:Drivers/VL53L0X/API/vl53l0x_api.c **** 	uint8_t Temp8;
1697:Drivers/VL53L0X/API/vl53l0x_api.c **** 
1698:Drivers/VL53L0X/API/vl53l0x_api.c **** 	LOG_FUNCTION_START("");
1699:Drivers/VL53L0X/API/vl53l0x_api.c **** 
1700:Drivers/VL53L0X/API/vl53l0x_api.c **** 	if (LimitCheckId >= VL53L0X_CHECKENABLE_NUMBER_OF_CHECKS) {
 2677              		.loc 1 1700 0
 2678 0000 0529     		cmp	r1, #5
 2679 0002 05D8     		bhi	.L208
1701:Drivers/VL53L0X/API/vl53l0x_api.c **** 		Status = VL53L0X_ERROR_INVALID_PARAMS;
1702:Drivers/VL53L0X/API/vl53l0x_api.c **** 		*pLimitCheckEnable = 0;
1703:Drivers/VL53L0X/API/vl53l0x_api.c **** 	} else {
1704:Drivers/VL53L0X/API/vl53l0x_api.c **** 		VL53L0X_GETARRAYPARAMETERFIELD(Dev, LimitChecksEnable,
 2680              		.loc 1 1704 0
 2681 0004 0844     		add	r0, r0, r1
 2682              	.LVL328:
 2683 0006 90F82830 		ldrb	r3, [r0, #40]	@ zero_extendqisi2
 2684              	.LVL329:
1705:Drivers/VL53L0X/API/vl53l0x_api.c **** 			LimitCheckId, Temp8);
1706:Drivers/VL53L0X/API/vl53l0x_api.c **** 		*pLimitCheckEnable = Temp8;
 2685              		.loc 1 1706 0
 2686 000a 1370     		strb	r3, [r2]
1695:Drivers/VL53L0X/API/vl53l0x_api.c **** 	uint8_t Temp8;
 2687              		.loc 1 1695 0
 2688 000c 0020     		movs	r0, #0
 2689              	.LVL330:
1707:Drivers/VL53L0X/API/vl53l0x_api.c **** 	}
1708:Drivers/VL53L0X/API/vl53l0x_api.c **** 
1709:Drivers/VL53L0X/API/vl53l0x_api.c **** 	LOG_FUNCTION_END(Status);
1710:Drivers/VL53L0X/API/vl53l0x_api.c **** 	return Status;
1711:Drivers/VL53L0X/API/vl53l0x_api.c **** }
 2690              		.loc 1 1711 0
 2691 000e 7047     		bx	lr
 2692              	.LVL331:
 2693              	.L208:
1702:Drivers/VL53L0X/API/vl53l0x_api.c **** 	} else {
 2694              		.loc 1 1702 0
 2695 0010 0023     		movs	r3, #0
 2696 0012 1370     		strb	r3, [r2]
1701:Drivers/VL53L0X/API/vl53l0x_api.c **** 		*pLimitCheckEnable = 0;
 2697              		.loc 1 1701 0
 2698 0014 6FF00300 		mvn	r0, #3
 2699              	.LVL332:
 2700 0018 7047     		bx	lr
 2701              		.cfi_endproc
 2702              	.LFE184:
 2704              		.section	.text.VL53L0X_SetLimitCheckValue,"ax",%progbits
 2705              		.align	1
 2706              		.global	VL53L0X_SetLimitCheckValue
 2707              		.syntax unified
 2708              		.thumb
 2709              		.thumb_func
 2710              		.fpu fpv4-sp-d16
 2712              	VL53L0X_SetLimitCheckValue:
 2713              	.LFB185:
ARM GAS  /tmp/ccq7BpOX.s 			page 78


1712:Drivers/VL53L0X/API/vl53l0x_api.c **** 
1713:Drivers/VL53L0X/API/vl53l0x_api.c **** VL53L0X_Error VL53L0X_SetLimitCheckValue(VL53L0X_DEV Dev, uint16_t LimitCheckId,
1714:Drivers/VL53L0X/API/vl53l0x_api.c **** 	FixPoint1616_t LimitCheckValue)
1715:Drivers/VL53L0X/API/vl53l0x_api.c **** {
 2714              		.loc 1 1715 0
 2715              		.cfi_startproc
 2716              		@ args = 0, pretend = 0, frame = 0
 2717              		@ frame_needed = 0, uses_anonymous_args = 0
 2718              	.LVL333:
1716:Drivers/VL53L0X/API/vl53l0x_api.c **** 	VL53L0X_Error Status = VL53L0X_ERROR_NONE;
1717:Drivers/VL53L0X/API/vl53l0x_api.c **** 	uint8_t Temp8;
1718:Drivers/VL53L0X/API/vl53l0x_api.c **** 
1719:Drivers/VL53L0X/API/vl53l0x_api.c **** 	LOG_FUNCTION_START("");
1720:Drivers/VL53L0X/API/vl53l0x_api.c **** 
1721:Drivers/VL53L0X/API/vl53l0x_api.c **** 	VL53L0X_GETARRAYPARAMETERFIELD(Dev, LimitChecksEnable, LimitCheckId,
 2719              		.loc 1 1721 0
 2720 0000 4318     		adds	r3, r0, r1
 2721 0002 93F82830 		ldrb	r3, [r3, #40]	@ zero_extendqisi2
 2722              	.LVL334:
1722:Drivers/VL53L0X/API/vl53l0x_api.c **** 		Temp8);
1723:Drivers/VL53L0X/API/vl53l0x_api.c **** 
1724:Drivers/VL53L0X/API/vl53l0x_api.c **** 	if (Temp8 == 0) { /* disabled write only internal value */
 2723              		.loc 1 1724 0
 2724 0006 53B1     		cbz	r3, .L224
1715:Drivers/VL53L0X/API/vl53l0x_api.c **** 	VL53L0X_Error Status = VL53L0X_ERROR_NONE;
 2725              		.loc 1 1715 0
 2726 0008 70B5     		push	{r4, r5, r6, lr}
 2727              	.LCFI70:
 2728              		.cfi_def_cfa_offset 16
 2729              		.cfi_offset 4, -16
 2730              		.cfi_offset 5, -12
 2731              		.cfi_offset 6, -8
 2732              		.cfi_offset 14, -4
 2733 000a 1646     		mov	r6, r2
 2734 000c 0C46     		mov	r4, r1
 2735 000e 0546     		mov	r5, r0
1725:Drivers/VL53L0X/API/vl53l0x_api.c **** 		VL53L0X_SETARRAYPARAMETERFIELD(Dev, LimitChecksValue,
1726:Drivers/VL53L0X/API/vl53l0x_api.c **** 			LimitCheckId, LimitCheckValue);
1727:Drivers/VL53L0X/API/vl53l0x_api.c **** 	} else {
1728:Drivers/VL53L0X/API/vl53l0x_api.c **** 
1729:Drivers/VL53L0X/API/vl53l0x_api.c **** 		switch (LimitCheckId) {
 2736              		.loc 1 1729 0
 2737 0010 0529     		cmp	r1, #5
 2738 0012 25D8     		bhi	.L220
 2739 0014 DFE801F0 		tbb	[pc, r1]
 2740              	.LVL335:
 2741              	.L213:
 2742 0018 09       		.byte	(.L212-.L213)/2
 2743 0019 0C       		.byte	(.L214-.L213)/2
 2744 001a 18       		.byte	(.L215-.L213)/2
 2745 001b 1B       		.byte	(.L216-.L213)/2
 2746 001c 1E       		.byte	(.L217-.L213)/2
 2747 001d 1E       		.byte	(.L217-.L213)/2
 2748              		.p2align 1
 2749              	.L224:
 2750              	.LCFI71:
 2751              		.cfi_def_cfa_offset 0
ARM GAS  /tmp/ccq7BpOX.s 			page 79


 2752              		.cfi_restore 4
 2753              		.cfi_restore 5
 2754              		.cfi_restore 6
 2755              		.cfi_restore 14
1725:Drivers/VL53L0X/API/vl53l0x_api.c **** 		VL53L0X_SETARRAYPARAMETERFIELD(Dev, LimitChecksValue,
 2756              		.loc 1 1725 0
 2757 001e 0C31     		adds	r1, r1, #12
 2758              	.LVL336:
 2759 0020 00EB8101 		add	r1, r0, r1, lsl #2
 2760 0024 4A60     		str	r2, [r1, #4]
1716:Drivers/VL53L0X/API/vl53l0x_api.c **** 	uint8_t Temp8;
 2761              		.loc 1 1716 0
 2762 0026 0020     		movs	r0, #0
 2763              	.LVL337:
1730:Drivers/VL53L0X/API/vl53l0x_api.c **** 
1731:Drivers/VL53L0X/API/vl53l0x_api.c **** 		case VL53L0X_CHECKENABLE_SIGMA_FINAL_RANGE:
1732:Drivers/VL53L0X/API/vl53l0x_api.c **** 			/* internal computation: */
1733:Drivers/VL53L0X/API/vl53l0x_api.c **** 			VL53L0X_SETARRAYPARAMETERFIELD(Dev, LimitChecksValue,
1734:Drivers/VL53L0X/API/vl53l0x_api.c **** 				VL53L0X_CHECKENABLE_SIGMA_FINAL_RANGE,
1735:Drivers/VL53L0X/API/vl53l0x_api.c **** 				LimitCheckValue);
1736:Drivers/VL53L0X/API/vl53l0x_api.c **** 			break;
1737:Drivers/VL53L0X/API/vl53l0x_api.c **** 
1738:Drivers/VL53L0X/API/vl53l0x_api.c **** 		case VL53L0X_CHECKENABLE_SIGNAL_RATE_FINAL_RANGE:
1739:Drivers/VL53L0X/API/vl53l0x_api.c **** 
1740:Drivers/VL53L0X/API/vl53l0x_api.c **** 			Status = VL53L0X_WrWord(Dev,
1741:Drivers/VL53L0X/API/vl53l0x_api.c **** 			VL53L0X_REG_FINAL_RANGE_CONFIG_MIN_COUNT_RATE_RTN_LIMIT,
1742:Drivers/VL53L0X/API/vl53l0x_api.c **** 				VL53L0X_FIXPOINT1616TOFIXPOINT97(
1743:Drivers/VL53L0X/API/vl53l0x_api.c **** 					LimitCheckValue));
1744:Drivers/VL53L0X/API/vl53l0x_api.c **** 
1745:Drivers/VL53L0X/API/vl53l0x_api.c **** 			break;
1746:Drivers/VL53L0X/API/vl53l0x_api.c **** 
1747:Drivers/VL53L0X/API/vl53l0x_api.c **** 		case VL53L0X_CHECKENABLE_SIGNAL_REF_CLIP:
1748:Drivers/VL53L0X/API/vl53l0x_api.c **** 
1749:Drivers/VL53L0X/API/vl53l0x_api.c **** 			/* internal computation: */
1750:Drivers/VL53L0X/API/vl53l0x_api.c **** 			VL53L0X_SETARRAYPARAMETERFIELD(Dev, LimitChecksValue,
1751:Drivers/VL53L0X/API/vl53l0x_api.c **** 				VL53L0X_CHECKENABLE_SIGNAL_REF_CLIP,
1752:Drivers/VL53L0X/API/vl53l0x_api.c **** 				LimitCheckValue);
1753:Drivers/VL53L0X/API/vl53l0x_api.c **** 
1754:Drivers/VL53L0X/API/vl53l0x_api.c **** 			break;
1755:Drivers/VL53L0X/API/vl53l0x_api.c **** 
1756:Drivers/VL53L0X/API/vl53l0x_api.c **** 		case VL53L0X_CHECKENABLE_RANGE_IGNORE_THRESHOLD:
1757:Drivers/VL53L0X/API/vl53l0x_api.c **** 
1758:Drivers/VL53L0X/API/vl53l0x_api.c **** 			/* internal computation: */
1759:Drivers/VL53L0X/API/vl53l0x_api.c **** 			VL53L0X_SETARRAYPARAMETERFIELD(Dev, LimitChecksValue,
1760:Drivers/VL53L0X/API/vl53l0x_api.c **** 				VL53L0X_CHECKENABLE_RANGE_IGNORE_THRESHOLD,
1761:Drivers/VL53L0X/API/vl53l0x_api.c **** 				LimitCheckValue);
1762:Drivers/VL53L0X/API/vl53l0x_api.c **** 
1763:Drivers/VL53L0X/API/vl53l0x_api.c **** 			break;
1764:Drivers/VL53L0X/API/vl53l0x_api.c **** 
1765:Drivers/VL53L0X/API/vl53l0x_api.c **** 		case VL53L0X_CHECKENABLE_SIGNAL_RATE_MSRC:
1766:Drivers/VL53L0X/API/vl53l0x_api.c **** 		case VL53L0X_CHECKENABLE_SIGNAL_RATE_PRE_RANGE:
1767:Drivers/VL53L0X/API/vl53l0x_api.c **** 
1768:Drivers/VL53L0X/API/vl53l0x_api.c **** 			Status = VL53L0X_WrWord(Dev,
1769:Drivers/VL53L0X/API/vl53l0x_api.c **** 				VL53L0X_REG_PRE_RANGE_MIN_COUNT_RATE_RTN_LIMIT,
1770:Drivers/VL53L0X/API/vl53l0x_api.c **** 				VL53L0X_FIXPOINT1616TOFIXPOINT97(
1771:Drivers/VL53L0X/API/vl53l0x_api.c **** 					LimitCheckValue));
1772:Drivers/VL53L0X/API/vl53l0x_api.c **** 
ARM GAS  /tmp/ccq7BpOX.s 			page 80


1773:Drivers/VL53L0X/API/vl53l0x_api.c **** 			break;
1774:Drivers/VL53L0X/API/vl53l0x_api.c **** 
1775:Drivers/VL53L0X/API/vl53l0x_api.c **** 		default:
1776:Drivers/VL53L0X/API/vl53l0x_api.c **** 			Status = VL53L0X_ERROR_INVALID_PARAMS;
1777:Drivers/VL53L0X/API/vl53l0x_api.c **** 
1778:Drivers/VL53L0X/API/vl53l0x_api.c **** 		}
1779:Drivers/VL53L0X/API/vl53l0x_api.c **** 
1780:Drivers/VL53L0X/API/vl53l0x_api.c **** 		if (Status == VL53L0X_ERROR_NONE) {
1781:Drivers/VL53L0X/API/vl53l0x_api.c **** 			VL53L0X_SETARRAYPARAMETERFIELD(Dev, LimitChecksValue,
1782:Drivers/VL53L0X/API/vl53l0x_api.c **** 				LimitCheckId, LimitCheckValue);
1783:Drivers/VL53L0X/API/vl53l0x_api.c **** 		}
1784:Drivers/VL53L0X/API/vl53l0x_api.c **** 	}
1785:Drivers/VL53L0X/API/vl53l0x_api.c **** 
1786:Drivers/VL53L0X/API/vl53l0x_api.c **** 	LOG_FUNCTION_END(Status);
1787:Drivers/VL53L0X/API/vl53l0x_api.c **** 	return Status;
1788:Drivers/VL53L0X/API/vl53l0x_api.c **** }
 2764              		.loc 1 1788 0
 2765 0028 7047     		bx	lr
 2766              	.LVL338:
 2767              	.L212:
 2768              	.LCFI72:
 2769              		.cfi_def_cfa_offset 16
 2770              		.cfi_offset 4, -16
 2771              		.cfi_offset 5, -12
 2772              		.cfi_offset 6, -8
 2773              		.cfi_offset 14, -4
1733:Drivers/VL53L0X/API/vl53l0x_api.c **** 				VL53L0X_CHECKENABLE_SIGMA_FINAL_RANGE,
 2774              		.loc 1 1733 0
 2775 002a 6A63     		str	r2, [r5, #52]
 2776              	.LVL339:
1716:Drivers/VL53L0X/API/vl53l0x_api.c **** 	uint8_t Temp8;
 2777              		.loc 1 1716 0
 2778 002c 0020     		movs	r0, #0
 2779              	.LVL340:
 2780 002e 05E0     		b	.L218
 2781              	.LVL341:
 2782              	.L214:
1740:Drivers/VL53L0X/API/vl53l0x_api.c **** 			VL53L0X_REG_FINAL_RANGE_CONFIG_MIN_COUNT_RATE_RTN_LIMIT,
 2783              		.loc 1 1740 0
 2784 0030 C2F34F22 		ubfx	r2, r2, #9, #16
 2785              	.LVL342:
 2786 0034 4421     		movs	r1, #68
 2787              	.LVL343:
 2788 0036 FFF7FEFF 		bl	VL53L0X_WrWord
 2789              	.LVL344:
 2790              	.L219:
1780:Drivers/VL53L0X/API/vl53l0x_api.c **** 			VL53L0X_SETARRAYPARAMETERFIELD(Dev, LimitChecksValue,
 2791              		.loc 1 1780 0
 2792 003a 20B9     		cbnz	r0, .L211
 2793              	.LVL345:
 2794              	.L218:
1781:Drivers/VL53L0X/API/vl53l0x_api.c **** 				LimitCheckId, LimitCheckValue);
 2795              		.loc 1 1781 0
 2796 003c 04F10C01 		add	r1, r4, #12
 2797 0040 05EB8101 		add	r1, r5, r1, lsl #2
 2798 0044 4E60     		str	r6, [r1, #4]
 2799              	.L211:
ARM GAS  /tmp/ccq7BpOX.s 			page 81


 2800              	.LVL346:
 2801              		.loc 1 1788 0
 2802 0046 70BD     		pop	{r4, r5, r6, pc}
 2803              	.LVL347:
 2804              	.L215:
1750:Drivers/VL53L0X/API/vl53l0x_api.c **** 				VL53L0X_CHECKENABLE_SIGNAL_REF_CLIP,
 2805              		.loc 1 1750 0
 2806 0048 EA63     		str	r2, [r5, #60]
 2807              	.LVL348:
1716:Drivers/VL53L0X/API/vl53l0x_api.c **** 	uint8_t Temp8;
 2808              		.loc 1 1716 0
 2809 004a 0020     		movs	r0, #0
 2810              	.LVL349:
 2811 004c F6E7     		b	.L218
 2812              	.LVL350:
 2813              	.L216:
1759:Drivers/VL53L0X/API/vl53l0x_api.c **** 				VL53L0X_CHECKENABLE_RANGE_IGNORE_THRESHOLD,
 2814              		.loc 1 1759 0
 2815 004e 2A64     		str	r2, [r5, #64]
 2816              	.LVL351:
1716:Drivers/VL53L0X/API/vl53l0x_api.c **** 	uint8_t Temp8;
 2817              		.loc 1 1716 0
 2818 0050 0020     		movs	r0, #0
 2819              	.LVL352:
 2820 0052 F3E7     		b	.L218
 2821              	.LVL353:
 2822              	.L217:
1768:Drivers/VL53L0X/API/vl53l0x_api.c **** 				VL53L0X_REG_PRE_RANGE_MIN_COUNT_RATE_RTN_LIMIT,
 2823              		.loc 1 1768 0
 2824 0054 C2F34F22 		ubfx	r2, r2, #9, #16
 2825              	.LVL354:
 2826 0058 6421     		movs	r1, #100
 2827              	.LVL355:
 2828 005a FFF7FEFF 		bl	VL53L0X_WrWord
 2829              	.LVL356:
1773:Drivers/VL53L0X/API/vl53l0x_api.c **** 
 2830              		.loc 1 1773 0
 2831 005e ECE7     		b	.L219
 2832              	.LVL357:
 2833              	.L220:
1776:Drivers/VL53L0X/API/vl53l0x_api.c **** 
 2834              		.loc 1 1776 0
 2835 0060 6FF00300 		mvn	r0, #3
 2836              	.LVL358:
 2837 0064 EFE7     		b	.L211
 2838              		.cfi_endproc
 2839              	.LFE185:
 2841              		.section	.text.VL53L0X_GetLimitCheckValue,"ax",%progbits
 2842              		.align	1
 2843              		.global	VL53L0X_GetLimitCheckValue
 2844              		.syntax unified
 2845              		.thumb
 2846              		.thumb_func
 2847              		.fpu fpv4-sp-d16
 2849              	VL53L0X_GetLimitCheckValue:
 2850              	.LFB186:
1789:Drivers/VL53L0X/API/vl53l0x_api.c **** 
ARM GAS  /tmp/ccq7BpOX.s 			page 82


1790:Drivers/VL53L0X/API/vl53l0x_api.c **** VL53L0X_Error VL53L0X_GetLimitCheckValue(VL53L0X_DEV Dev, uint16_t LimitCheckId,
1791:Drivers/VL53L0X/API/vl53l0x_api.c **** 	FixPoint1616_t *pLimitCheckValue)
1792:Drivers/VL53L0X/API/vl53l0x_api.c **** {
 2851              		.loc 1 1792 0
 2852              		.cfi_startproc
 2853              		@ args = 0, pretend = 0, frame = 8
 2854              		@ frame_needed = 0, uses_anonymous_args = 0
 2855              	.LVL359:
 2856 0000 F0B5     		push	{r4, r5, r6, r7, lr}
 2857              	.LCFI73:
 2858              		.cfi_def_cfa_offset 20
 2859              		.cfi_offset 4, -20
 2860              		.cfi_offset 5, -16
 2861              		.cfi_offset 6, -12
 2862              		.cfi_offset 7, -8
 2863              		.cfi_offset 14, -4
 2864 0002 83B0     		sub	sp, sp, #12
 2865              	.LCFI74:
 2866              		.cfi_def_cfa_offset 32
 2867 0004 0546     		mov	r5, r0
 2868 0006 0C46     		mov	r4, r1
 2869 0008 1746     		mov	r7, r2
 2870              	.LVL360:
1793:Drivers/VL53L0X/API/vl53l0x_api.c **** 	VL53L0X_Error Status = VL53L0X_ERROR_NONE;
1794:Drivers/VL53L0X/API/vl53l0x_api.c **** 	uint8_t EnableZeroValue = 0;
1795:Drivers/VL53L0X/API/vl53l0x_api.c **** 	uint16_t Temp16;
1796:Drivers/VL53L0X/API/vl53l0x_api.c **** 	FixPoint1616_t TempFix1616;
1797:Drivers/VL53L0X/API/vl53l0x_api.c **** 
1798:Drivers/VL53L0X/API/vl53l0x_api.c **** 	LOG_FUNCTION_START("");
1799:Drivers/VL53L0X/API/vl53l0x_api.c **** 
1800:Drivers/VL53L0X/API/vl53l0x_api.c **** 	switch (LimitCheckId) {
 2871              		.loc 1 1800 0
 2872 000a 0529     		cmp	r1, #5
 2873 000c 2DD8     		bhi	.L236
 2874 000e DFE801F0 		tbb	[pc, r1]
 2875              	.L228:
 2876 0012 03       		.byte	(.L227-.L228)/2
 2877 0013 0C       		.byte	(.L229-.L228)/2
 2878 0014 18       		.byte	(.L230-.L228)/2
 2879 0015 1C       		.byte	(.L231-.L228)/2
 2880 0016 20       		.byte	(.L232-.L228)/2
 2881 0017 20       		.byte	(.L232-.L228)/2
 2882              		.p2align 1
 2883              	.L227:
1801:Drivers/VL53L0X/API/vl53l0x_api.c **** 
1802:Drivers/VL53L0X/API/vl53l0x_api.c **** 	case VL53L0X_CHECKENABLE_SIGMA_FINAL_RANGE:
1803:Drivers/VL53L0X/API/vl53l0x_api.c **** 		/* internal computation: */
1804:Drivers/VL53L0X/API/vl53l0x_api.c **** 		VL53L0X_GETARRAYPARAMETERFIELD(Dev, LimitChecksValue,
 2884              		.loc 1 1804 0
 2885 0018 466B     		ldr	r6, [r0, #52]
 2886              	.LVL361:
1805:Drivers/VL53L0X/API/vl53l0x_api.c **** 			VL53L0X_CHECKENABLE_SIGMA_FINAL_RANGE, TempFix1616);
1806:Drivers/VL53L0X/API/vl53l0x_api.c **** 		EnableZeroValue = 0;
 2887              		.loc 1 1806 0
 2888 001a 0022     		movs	r2, #0
 2889              	.LVL362:
1793:Drivers/VL53L0X/API/vl53l0x_api.c **** 	uint8_t EnableZeroValue = 0;
ARM GAS  /tmp/ccq7BpOX.s 			page 83


 2890              		.loc 1 1793 0
 2891 001c 1346     		mov	r3, r2
 2892              	.LVL363:
 2893              	.L226:
1807:Drivers/VL53L0X/API/vl53l0x_api.c **** 		break;
1808:Drivers/VL53L0X/API/vl53l0x_api.c **** 
1809:Drivers/VL53L0X/API/vl53l0x_api.c **** 	case VL53L0X_CHECKENABLE_SIGNAL_RATE_FINAL_RANGE:
1810:Drivers/VL53L0X/API/vl53l0x_api.c **** 		Status = VL53L0X_RdWord(Dev,
1811:Drivers/VL53L0X/API/vl53l0x_api.c **** 		VL53L0X_REG_FINAL_RANGE_CONFIG_MIN_COUNT_RATE_RTN_LIMIT,
1812:Drivers/VL53L0X/API/vl53l0x_api.c **** 			&Temp16);
1813:Drivers/VL53L0X/API/vl53l0x_api.c **** 		if (Status == VL53L0X_ERROR_NONE)
1814:Drivers/VL53L0X/API/vl53l0x_api.c **** 			TempFix1616 = VL53L0X_FIXPOINT97TOFIXPOINT1616(Temp16);
1815:Drivers/VL53L0X/API/vl53l0x_api.c **** 
1816:Drivers/VL53L0X/API/vl53l0x_api.c **** 
1817:Drivers/VL53L0X/API/vl53l0x_api.c **** 		EnableZeroValue = 1;
1818:Drivers/VL53L0X/API/vl53l0x_api.c **** 		break;
1819:Drivers/VL53L0X/API/vl53l0x_api.c **** 
1820:Drivers/VL53L0X/API/vl53l0x_api.c **** 	case VL53L0X_CHECKENABLE_SIGNAL_REF_CLIP:
1821:Drivers/VL53L0X/API/vl53l0x_api.c **** 		/* internal computation: */
1822:Drivers/VL53L0X/API/vl53l0x_api.c **** 		VL53L0X_GETARRAYPARAMETERFIELD(Dev, LimitChecksValue,
1823:Drivers/VL53L0X/API/vl53l0x_api.c **** 			VL53L0X_CHECKENABLE_SIGNAL_REF_CLIP, TempFix1616);
1824:Drivers/VL53L0X/API/vl53l0x_api.c **** 		EnableZeroValue = 0;
1825:Drivers/VL53L0X/API/vl53l0x_api.c **** 		break;
1826:Drivers/VL53L0X/API/vl53l0x_api.c **** 
1827:Drivers/VL53L0X/API/vl53l0x_api.c **** 	case VL53L0X_CHECKENABLE_RANGE_IGNORE_THRESHOLD:
1828:Drivers/VL53L0X/API/vl53l0x_api.c **** 		/* internal computation: */
1829:Drivers/VL53L0X/API/vl53l0x_api.c **** 		VL53L0X_GETARRAYPARAMETERFIELD(Dev, LimitChecksValue,
1830:Drivers/VL53L0X/API/vl53l0x_api.c **** 			VL53L0X_CHECKENABLE_RANGE_IGNORE_THRESHOLD, TempFix1616);
1831:Drivers/VL53L0X/API/vl53l0x_api.c **** 		EnableZeroValue = 0;
1832:Drivers/VL53L0X/API/vl53l0x_api.c **** 		break;
1833:Drivers/VL53L0X/API/vl53l0x_api.c **** 
1834:Drivers/VL53L0X/API/vl53l0x_api.c **** 	case VL53L0X_CHECKENABLE_SIGNAL_RATE_MSRC:
1835:Drivers/VL53L0X/API/vl53l0x_api.c **** 	case VL53L0X_CHECKENABLE_SIGNAL_RATE_PRE_RANGE:
1836:Drivers/VL53L0X/API/vl53l0x_api.c **** 		Status = VL53L0X_RdWord(Dev,
1837:Drivers/VL53L0X/API/vl53l0x_api.c **** 			VL53L0X_REG_PRE_RANGE_MIN_COUNT_RATE_RTN_LIMIT,
1838:Drivers/VL53L0X/API/vl53l0x_api.c **** 			&Temp16);
1839:Drivers/VL53L0X/API/vl53l0x_api.c **** 		if (Status == VL53L0X_ERROR_NONE)
1840:Drivers/VL53L0X/API/vl53l0x_api.c **** 			TempFix1616 = VL53L0X_FIXPOINT97TOFIXPOINT1616(Temp16);
1841:Drivers/VL53L0X/API/vl53l0x_api.c **** 
1842:Drivers/VL53L0X/API/vl53l0x_api.c **** 
1843:Drivers/VL53L0X/API/vl53l0x_api.c **** 		EnableZeroValue = 0;
1844:Drivers/VL53L0X/API/vl53l0x_api.c **** 		break;
1845:Drivers/VL53L0X/API/vl53l0x_api.c **** 
1846:Drivers/VL53L0X/API/vl53l0x_api.c **** 	default:
1847:Drivers/VL53L0X/API/vl53l0x_api.c **** 		Status = VL53L0X_ERROR_INVALID_PARAMS;
1848:Drivers/VL53L0X/API/vl53l0x_api.c **** 
1849:Drivers/VL53L0X/API/vl53l0x_api.c **** 	}
1850:Drivers/VL53L0X/API/vl53l0x_api.c **** 
1851:Drivers/VL53L0X/API/vl53l0x_api.c **** 	if (Status == VL53L0X_ERROR_NONE) {
 2894              		.loc 1 1851 0
 2895 001e 0BB9     		cbnz	r3, .L233
1852:Drivers/VL53L0X/API/vl53l0x_api.c **** 
1853:Drivers/VL53L0X/API/vl53l0x_api.c **** 		if (EnableZeroValue == 1) {
 2896              		.loc 1 1853 0
 2897 0020 5ABB     		cbnz	r2, .L240
1854:Drivers/VL53L0X/API/vl53l0x_api.c **** 
1855:Drivers/VL53L0X/API/vl53l0x_api.c **** 			if (TempFix1616 == 0) {
ARM GAS  /tmp/ccq7BpOX.s 			page 84


1856:Drivers/VL53L0X/API/vl53l0x_api.c **** 				/* disabled: return value from memory */
1857:Drivers/VL53L0X/API/vl53l0x_api.c **** 				VL53L0X_GETARRAYPARAMETERFIELD(Dev,
1858:Drivers/VL53L0X/API/vl53l0x_api.c **** 					LimitChecksValue, LimitCheckId,
1859:Drivers/VL53L0X/API/vl53l0x_api.c **** 					TempFix1616);
1860:Drivers/VL53L0X/API/vl53l0x_api.c **** 				*pLimitCheckValue = TempFix1616;
1861:Drivers/VL53L0X/API/vl53l0x_api.c **** 				VL53L0X_SETARRAYPARAMETERFIELD(Dev,
1862:Drivers/VL53L0X/API/vl53l0x_api.c **** 					LimitChecksEnable, LimitCheckId, 0);
1863:Drivers/VL53L0X/API/vl53l0x_api.c **** 			} else {
1864:Drivers/VL53L0X/API/vl53l0x_api.c **** 				*pLimitCheckValue = TempFix1616;
1865:Drivers/VL53L0X/API/vl53l0x_api.c **** 				VL53L0X_SETARRAYPARAMETERFIELD(Dev,
1866:Drivers/VL53L0X/API/vl53l0x_api.c **** 					LimitChecksValue, LimitCheckId,
1867:Drivers/VL53L0X/API/vl53l0x_api.c **** 					TempFix1616);
1868:Drivers/VL53L0X/API/vl53l0x_api.c **** 				VL53L0X_SETARRAYPARAMETERFIELD(Dev,
1869:Drivers/VL53L0X/API/vl53l0x_api.c **** 					LimitChecksEnable, LimitCheckId, 1);
1870:Drivers/VL53L0X/API/vl53l0x_api.c **** 			}
1871:Drivers/VL53L0X/API/vl53l0x_api.c **** 		} else {
1872:Drivers/VL53L0X/API/vl53l0x_api.c **** 			*pLimitCheckValue = TempFix1616;
 2898              		.loc 1 1872 0
 2899 0022 3E60     		str	r6, [r7]
 2900              	.LVL364:
 2901              	.L233:
1873:Drivers/VL53L0X/API/vl53l0x_api.c **** 		}
1874:Drivers/VL53L0X/API/vl53l0x_api.c **** 	}
1875:Drivers/VL53L0X/API/vl53l0x_api.c **** 
1876:Drivers/VL53L0X/API/vl53l0x_api.c **** 	LOG_FUNCTION_END(Status);
1877:Drivers/VL53L0X/API/vl53l0x_api.c **** 	return Status;
1878:Drivers/VL53L0X/API/vl53l0x_api.c **** 
1879:Drivers/VL53L0X/API/vl53l0x_api.c **** }
 2902              		.loc 1 1879 0
 2903 0024 1846     		mov	r0, r3
 2904 0026 03B0     		add	sp, sp, #12
 2905              	.LCFI75:
 2906              		.cfi_remember_state
 2907              		.cfi_def_cfa_offset 20
 2908              		@ sp needed
 2909 0028 F0BD     		pop	{r4, r5, r6, r7, pc}
 2910              	.LVL365:
 2911              	.L229:
 2912              	.LCFI76:
 2913              		.cfi_restore_state
1810:Drivers/VL53L0X/API/vl53l0x_api.c **** 		VL53L0X_REG_FINAL_RANGE_CONFIG_MIN_COUNT_RATE_RTN_LIMIT,
 2914              		.loc 1 1810 0
 2915 002a 0DF10602 		add	r2, sp, #6
 2916              	.LVL366:
 2917 002e 4421     		movs	r1, #68
 2918              	.LVL367:
 2919 0030 FFF7FEFF 		bl	VL53L0X_RdWord
 2920              	.LVL368:
1813:Drivers/VL53L0X/API/vl53l0x_api.c **** 			TempFix1616 = VL53L0X_FIXPOINT97TOFIXPOINT1616(Temp16);
 2921              		.loc 1 1813 0
 2922 0034 0346     		mov	r3, r0
 2923 0036 E0B9     		cbnz	r0, .L237
1814:Drivers/VL53L0X/API/vl53l0x_api.c **** 
 2924              		.loc 1 1814 0
 2925 0038 BDF80660 		ldrh	r6, [sp, #6]
 2926 003c 7602     		lsls	r6, r6, #9
 2927              	.LVL369:
ARM GAS  /tmp/ccq7BpOX.s 			page 85


1817:Drivers/VL53L0X/API/vl53l0x_api.c **** 		break;
 2928              		.loc 1 1817 0
 2929 003e 0122     		movs	r2, #1
 2930 0040 EDE7     		b	.L226
 2931              	.LVL370:
 2932              	.L230:
1822:Drivers/VL53L0X/API/vl53l0x_api.c **** 			VL53L0X_CHECKENABLE_SIGNAL_REF_CLIP, TempFix1616);
 2933              		.loc 1 1822 0
 2934 0042 C66B     		ldr	r6, [r0, #60]
 2935              	.LVL371:
1824:Drivers/VL53L0X/API/vl53l0x_api.c **** 		break;
 2936              		.loc 1 1824 0
 2937 0044 0022     		movs	r2, #0
 2938              	.LVL372:
1793:Drivers/VL53L0X/API/vl53l0x_api.c **** 	uint8_t EnableZeroValue = 0;
 2939              		.loc 1 1793 0
 2940 0046 1346     		mov	r3, r2
1825:Drivers/VL53L0X/API/vl53l0x_api.c **** 
 2941              		.loc 1 1825 0
 2942 0048 E9E7     		b	.L226
 2943              	.LVL373:
 2944              	.L231:
1829:Drivers/VL53L0X/API/vl53l0x_api.c **** 			VL53L0X_CHECKENABLE_RANGE_IGNORE_THRESHOLD, TempFix1616);
 2945              		.loc 1 1829 0
 2946 004a 066C     		ldr	r6, [r0, #64]
 2947              	.LVL374:
1831:Drivers/VL53L0X/API/vl53l0x_api.c **** 		break;
 2948              		.loc 1 1831 0
 2949 004c 0022     		movs	r2, #0
 2950              	.LVL375:
1793:Drivers/VL53L0X/API/vl53l0x_api.c **** 	uint8_t EnableZeroValue = 0;
 2951              		.loc 1 1793 0
 2952 004e 1346     		mov	r3, r2
1832:Drivers/VL53L0X/API/vl53l0x_api.c **** 
 2953              		.loc 1 1832 0
 2954 0050 E5E7     		b	.L226
 2955              	.LVL376:
 2956              	.L232:
1836:Drivers/VL53L0X/API/vl53l0x_api.c **** 			VL53L0X_REG_PRE_RANGE_MIN_COUNT_RATE_RTN_LIMIT,
 2957              		.loc 1 1836 0
 2958 0052 0DF10602 		add	r2, sp, #6
 2959              	.LVL377:
 2960 0056 6421     		movs	r1, #100
 2961              	.LVL378:
 2962 0058 FFF7FEFF 		bl	VL53L0X_RdWord
 2963              	.LVL379:
1839:Drivers/VL53L0X/API/vl53l0x_api.c **** 			TempFix1616 = VL53L0X_FIXPOINT97TOFIXPOINT1616(Temp16);
 2964              		.loc 1 1839 0
 2965 005c 0346     		mov	r3, r0
 2966 005e 50B9     		cbnz	r0, .L238
1840:Drivers/VL53L0X/API/vl53l0x_api.c **** 
 2967              		.loc 1 1840 0
 2968 0060 BDF80660 		ldrh	r6, [sp, #6]
 2969 0064 7602     		lsls	r6, r6, #9
 2970              	.LVL380:
1843:Drivers/VL53L0X/API/vl53l0x_api.c **** 		break;
 2971              		.loc 1 1843 0
ARM GAS  /tmp/ccq7BpOX.s 			page 86


 2972 0066 0022     		movs	r2, #0
 2973 0068 D9E7     		b	.L226
 2974              	.LVL381:
 2975              	.L236:
1794:Drivers/VL53L0X/API/vl53l0x_api.c **** 	uint16_t Temp16;
 2976              		.loc 1 1794 0
 2977 006a 0022     		movs	r2, #0
 2978              	.LVL382:
1847:Drivers/VL53L0X/API/vl53l0x_api.c **** 
 2979              		.loc 1 1847 0
 2980 006c 6FF00303 		mvn	r3, #3
 2981 0070 D5E7     		b	.L226
 2982              	.LVL383:
 2983              	.L237:
1817:Drivers/VL53L0X/API/vl53l0x_api.c **** 		break;
 2984              		.loc 1 1817 0
 2985 0072 0122     		movs	r2, #1
 2986 0074 D3E7     		b	.L226
 2987              	.L238:
1843:Drivers/VL53L0X/API/vl53l0x_api.c **** 		break;
 2988              		.loc 1 1843 0
 2989 0076 0022     		movs	r2, #0
 2990 0078 D1E7     		b	.L226
 2991              	.LVL384:
 2992              	.L240:
1855:Drivers/VL53L0X/API/vl53l0x_api.c **** 				/* disabled: return value from memory */
 2993              		.loc 1 1855 0
 2994 007a 56B9     		cbnz	r6, .L235
1857:Drivers/VL53L0X/API/vl53l0x_api.c **** 					LimitChecksValue, LimitCheckId,
 2995              		.loc 1 1857 0
 2996 007c 04F10C02 		add	r2, r4, #12
 2997              	.LVL385:
 2998 0080 05EB8202 		add	r2, r5, r2, lsl #2
 2999 0084 5268     		ldr	r2, [r2, #4]
 3000              	.LVL386:
1860:Drivers/VL53L0X/API/vl53l0x_api.c **** 				VL53L0X_SETARRAYPARAMETERFIELD(Dev,
 3001              		.loc 1 1860 0
 3002 0086 3A60     		str	r2, [r7]
1861:Drivers/VL53L0X/API/vl53l0x_api.c **** 					LimitChecksEnable, LimitCheckId, 0);
 3003              		.loc 1 1861 0
 3004 0088 2C44     		add	r4, r4, r5
 3005 008a 0022     		movs	r2, #0
 3006              	.LVL387:
 3007 008c 84F82820 		strb	r2, [r4, #40]
 3008              	.LVL388:
 3009 0090 C8E7     		b	.L233
 3010              	.LVL389:
 3011              	.L235:
1864:Drivers/VL53L0X/API/vl53l0x_api.c **** 				VL53L0X_SETARRAYPARAMETERFIELD(Dev,
 3012              		.loc 1 1864 0
 3013 0092 3E60     		str	r6, [r7]
1865:Drivers/VL53L0X/API/vl53l0x_api.c **** 					LimitChecksValue, LimitCheckId,
 3014              		.loc 1 1865 0
 3015 0094 04F10C02 		add	r2, r4, #12
 3016              	.LVL390:
 3017 0098 05EB8202 		add	r2, r5, r2, lsl #2
 3018 009c 5660     		str	r6, [r2, #4]
ARM GAS  /tmp/ccq7BpOX.s 			page 87


1868:Drivers/VL53L0X/API/vl53l0x_api.c **** 					LimitChecksEnable, LimitCheckId, 1);
 3019              		.loc 1 1868 0
 3020 009e 2C44     		add	r4, r4, r5
 3021 00a0 0122     		movs	r2, #1
 3022 00a2 84F82820 		strb	r2, [r4, #40]
 3023 00a6 BDE7     		b	.L233
 3024              		.cfi_endproc
 3025              	.LFE186:
 3027              		.section	.text.VL53L0X_GetLimitCheckCurrent,"ax",%progbits
 3028              		.align	1
 3029              		.global	VL53L0X_GetLimitCheckCurrent
 3030              		.syntax unified
 3031              		.thumb
 3032              		.thumb_func
 3033              		.fpu fpv4-sp-d16
 3035              	VL53L0X_GetLimitCheckCurrent:
 3036              	.LFB187:
1880:Drivers/VL53L0X/API/vl53l0x_api.c **** 
1881:Drivers/VL53L0X/API/vl53l0x_api.c **** VL53L0X_Error VL53L0X_GetLimitCheckCurrent(VL53L0X_DEV Dev, uint16_t LimitCheckId,
1882:Drivers/VL53L0X/API/vl53l0x_api.c **** 	FixPoint1616_t *pLimitCheckCurrent)
1883:Drivers/VL53L0X/API/vl53l0x_api.c **** {
 3037              		.loc 1 1883 0
 3038              		.cfi_startproc
 3039              		@ args = 0, pretend = 0, frame = 32
 3040              		@ frame_needed = 0, uses_anonymous_args = 0
 3041              		@ link register save eliminated.
 3042              	.LVL391:
1884:Drivers/VL53L0X/API/vl53l0x_api.c **** 	VL53L0X_Error Status = VL53L0X_ERROR_NONE;
1885:Drivers/VL53L0X/API/vl53l0x_api.c **** 	VL53L0X_RangingMeasurementData_t LastRangeDataBuffer;
1886:Drivers/VL53L0X/API/vl53l0x_api.c **** 
1887:Drivers/VL53L0X/API/vl53l0x_api.c **** 	LOG_FUNCTION_START("");
1888:Drivers/VL53L0X/API/vl53l0x_api.c **** 
1889:Drivers/VL53L0X/API/vl53l0x_api.c **** 	if (LimitCheckId >= VL53L0X_CHECKENABLE_NUMBER_OF_CHECKS) {
 3043              		.loc 1 1889 0
 3044 0000 0529     		cmp	r1, #5
 3045 0002 49D8     		bhi	.L250
1883:Drivers/VL53L0X/API/vl53l0x_api.c **** 	VL53L0X_Error Status = VL53L0X_ERROR_NONE;
 3046              		.loc 1 1883 0
 3047 0004 70B4     		push	{r4, r5, r6}
 3048              	.LCFI77:
 3049              		.cfi_def_cfa_offset 12
 3050              		.cfi_offset 4, -12
 3051              		.cfi_offset 5, -8
 3052              		.cfi_offset 6, -4
 3053 0006 89B0     		sub	sp, sp, #36
 3054              	.LCFI78:
 3055              		.cfi_def_cfa_offset 48
 3056 0008 1546     		mov	r5, r2
1890:Drivers/VL53L0X/API/vl53l0x_api.c **** 		Status = VL53L0X_ERROR_INVALID_PARAMS;
1891:Drivers/VL53L0X/API/vl53l0x_api.c **** 	} else {
1892:Drivers/VL53L0X/API/vl53l0x_api.c **** 		switch (LimitCheckId) {
 3057              		.loc 1 1892 0
 3058 000a 0529     		cmp	r1, #5
 3059 000c 47D8     		bhi	.L251
 3060 000e DFE801F0 		tbb	[pc, r1]
 3061              	.L244:
 3062 0012 03       		.byte	(.L243-.L244)/2
ARM GAS  /tmp/ccq7BpOX.s 			page 88


 3063 0013 0A       		.byte	(.L245-.L244)/2
 3064 0014 17       		.byte	(.L246-.L244)/2
 3065 0015 1C       		.byte	(.L247-.L244)/2
 3066 0016 29       		.byte	(.L248-.L244)/2
 3067 0017 36       		.byte	(.L249-.L244)/2
 3068              		.p2align 1
 3069              	.L243:
1893:Drivers/VL53L0X/API/vl53l0x_api.c **** 		case VL53L0X_CHECKENABLE_SIGMA_FINAL_RANGE:
1894:Drivers/VL53L0X/API/vl53l0x_api.c **** 			/* Need to run a ranging to have the latest values */
1895:Drivers/VL53L0X/API/vl53l0x_api.c **** 			*pLimitCheckCurrent = PALDevDataGet(Dev, SigmaEstimate);
 3070              		.loc 1 1895 0
 3071 0018 D0F84031 		ldr	r3, [r0, #320]
 3072 001c 1360     		str	r3, [r2]
1884:Drivers/VL53L0X/API/vl53l0x_api.c **** 	VL53L0X_RangingMeasurementData_t LastRangeDataBuffer;
 3073              		.loc 1 1884 0
 3074 001e 0020     		movs	r0, #0
 3075              	.LVL392:
 3076              	.L242:
1896:Drivers/VL53L0X/API/vl53l0x_api.c **** 
1897:Drivers/VL53L0X/API/vl53l0x_api.c **** 			break;
1898:Drivers/VL53L0X/API/vl53l0x_api.c **** 
1899:Drivers/VL53L0X/API/vl53l0x_api.c **** 		case VL53L0X_CHECKENABLE_SIGNAL_RATE_FINAL_RANGE:
1900:Drivers/VL53L0X/API/vl53l0x_api.c **** 			/* Need to run a ranging to have the latest values */
1901:Drivers/VL53L0X/API/vl53l0x_api.c **** 			LastRangeDataBuffer = PALDevDataGet(Dev,
1902:Drivers/VL53L0X/API/vl53l0x_api.c **** 				LastRangeMeasure);
1903:Drivers/VL53L0X/API/vl53l0x_api.c **** 			*pLimitCheckCurrent =
1904:Drivers/VL53L0X/API/vl53l0x_api.c **** 				LastRangeDataBuffer.SignalRateRtnMegaCps;
1905:Drivers/VL53L0X/API/vl53l0x_api.c **** 
1906:Drivers/VL53L0X/API/vl53l0x_api.c **** 			break;
1907:Drivers/VL53L0X/API/vl53l0x_api.c **** 
1908:Drivers/VL53L0X/API/vl53l0x_api.c **** 		case VL53L0X_CHECKENABLE_SIGNAL_REF_CLIP:
1909:Drivers/VL53L0X/API/vl53l0x_api.c **** 			/* Need to run a ranging to have the latest values */
1910:Drivers/VL53L0X/API/vl53l0x_api.c **** 			*pLimitCheckCurrent = PALDevDataGet(Dev,
1911:Drivers/VL53L0X/API/vl53l0x_api.c **** 				LastSignalRefMcps);
1912:Drivers/VL53L0X/API/vl53l0x_api.c **** 
1913:Drivers/VL53L0X/API/vl53l0x_api.c **** 			break;
1914:Drivers/VL53L0X/API/vl53l0x_api.c **** 
1915:Drivers/VL53L0X/API/vl53l0x_api.c **** 		case VL53L0X_CHECKENABLE_RANGE_IGNORE_THRESHOLD:
1916:Drivers/VL53L0X/API/vl53l0x_api.c **** 			/* Need to run a ranging to have the latest values */
1917:Drivers/VL53L0X/API/vl53l0x_api.c **** 			LastRangeDataBuffer = PALDevDataGet(Dev,
1918:Drivers/VL53L0X/API/vl53l0x_api.c **** 				LastRangeMeasure);
1919:Drivers/VL53L0X/API/vl53l0x_api.c **** 			*pLimitCheckCurrent =
1920:Drivers/VL53L0X/API/vl53l0x_api.c **** 				LastRangeDataBuffer.SignalRateRtnMegaCps;
1921:Drivers/VL53L0X/API/vl53l0x_api.c **** 
1922:Drivers/VL53L0X/API/vl53l0x_api.c **** 			break;
1923:Drivers/VL53L0X/API/vl53l0x_api.c **** 
1924:Drivers/VL53L0X/API/vl53l0x_api.c **** 		case VL53L0X_CHECKENABLE_SIGNAL_RATE_MSRC:
1925:Drivers/VL53L0X/API/vl53l0x_api.c **** 			/* Need to run a ranging to have the latest values */
1926:Drivers/VL53L0X/API/vl53l0x_api.c **** 			LastRangeDataBuffer = PALDevDataGet(Dev,
1927:Drivers/VL53L0X/API/vl53l0x_api.c **** 				LastRangeMeasure);
1928:Drivers/VL53L0X/API/vl53l0x_api.c **** 			*pLimitCheckCurrent =
1929:Drivers/VL53L0X/API/vl53l0x_api.c **** 				LastRangeDataBuffer.SignalRateRtnMegaCps;
1930:Drivers/VL53L0X/API/vl53l0x_api.c **** 
1931:Drivers/VL53L0X/API/vl53l0x_api.c **** 			break;
1932:Drivers/VL53L0X/API/vl53l0x_api.c **** 
1933:Drivers/VL53L0X/API/vl53l0x_api.c **** 		case VL53L0X_CHECKENABLE_SIGNAL_RATE_PRE_RANGE:
1934:Drivers/VL53L0X/API/vl53l0x_api.c **** 			/* Need to run a ranging to have the latest values */
ARM GAS  /tmp/ccq7BpOX.s 			page 89


1935:Drivers/VL53L0X/API/vl53l0x_api.c **** 			LastRangeDataBuffer = PALDevDataGet(Dev,
1936:Drivers/VL53L0X/API/vl53l0x_api.c **** 				LastRangeMeasure);
1937:Drivers/VL53L0X/API/vl53l0x_api.c **** 			*pLimitCheckCurrent =
1938:Drivers/VL53L0X/API/vl53l0x_api.c **** 				LastRangeDataBuffer.SignalRateRtnMegaCps;
1939:Drivers/VL53L0X/API/vl53l0x_api.c **** 
1940:Drivers/VL53L0X/API/vl53l0x_api.c **** 			break;
1941:Drivers/VL53L0X/API/vl53l0x_api.c **** 
1942:Drivers/VL53L0X/API/vl53l0x_api.c **** 		default:
1943:Drivers/VL53L0X/API/vl53l0x_api.c **** 			Status = VL53L0X_ERROR_INVALID_PARAMS;
1944:Drivers/VL53L0X/API/vl53l0x_api.c **** 		}
1945:Drivers/VL53L0X/API/vl53l0x_api.c **** 	}
1946:Drivers/VL53L0X/API/vl53l0x_api.c **** 
1947:Drivers/VL53L0X/API/vl53l0x_api.c **** 	LOG_FUNCTION_END(Status);
1948:Drivers/VL53L0X/API/vl53l0x_api.c **** 	return Status;
1949:Drivers/VL53L0X/API/vl53l0x_api.c **** 
1950:Drivers/VL53L0X/API/vl53l0x_api.c **** }
 3077              		.loc 1 1950 0
 3078 0020 09B0     		add	sp, sp, #36
 3079              	.LCFI79:
 3080              		.cfi_remember_state
 3081              		.cfi_def_cfa_offset 12
 3082              		@ sp needed
 3083 0022 70BC     		pop	{r4, r5, r6}
 3084              	.LCFI80:
 3085              		.cfi_restore 6
 3086              		.cfi_restore 5
 3087              		.cfi_restore 4
 3088              		.cfi_def_cfa_offset 0
 3089              	.LVL393:
 3090 0024 7047     		bx	lr
 3091              	.LVL394:
 3092              	.L245:
 3093              	.LCFI81:
 3094              		.cfi_restore_state
1901:Drivers/VL53L0X/API/vl53l0x_api.c **** 				LastRangeMeasure);
 3095              		.loc 1 1901 0
 3096 0026 01AE     		add	r6, sp, #4
 3097 0028 00F15004 		add	r4, r0, #80
 3098 002c 0FCC     		ldmia	r4!, {r0, r1, r2, r3}
 3099              	.LVL395:
 3100 002e 0FC6     		stmia	r6!, {r0, r1, r2, r3}
 3101 0030 94E80700 		ldm	r4, {r0, r1, r2}
 3102 0034 86E80700 		stm	r6, {r0, r1, r2}
1904:Drivers/VL53L0X/API/vl53l0x_api.c **** 
 3103              		.loc 1 1904 0
 3104 0038 049B     		ldr	r3, [sp, #16]
1903:Drivers/VL53L0X/API/vl53l0x_api.c **** 				LastRangeDataBuffer.SignalRateRtnMegaCps;
 3105              		.loc 1 1903 0
 3106 003a 2B60     		str	r3, [r5]
1884:Drivers/VL53L0X/API/vl53l0x_api.c **** 	VL53L0X_RangingMeasurementData_t LastRangeDataBuffer;
 3107              		.loc 1 1884 0
 3108 003c 0020     		movs	r0, #0
1906:Drivers/VL53L0X/API/vl53l0x_api.c **** 
 3109              		.loc 1 1906 0
 3110 003e EFE7     		b	.L242
 3111              	.LVL396:
 3112              	.L246:
ARM GAS  /tmp/ccq7BpOX.s 			page 90


1910:Drivers/VL53L0X/API/vl53l0x_api.c **** 				LastSignalRefMcps);
 3113              		.loc 1 1910 0
 3114 0040 D0F84831 		ldr	r3, [r0, #328]
 3115 0044 1360     		str	r3, [r2]
1884:Drivers/VL53L0X/API/vl53l0x_api.c **** 	VL53L0X_RangingMeasurementData_t LastRangeDataBuffer;
 3116              		.loc 1 1884 0
 3117 0046 0020     		movs	r0, #0
 3118              	.LVL397:
1913:Drivers/VL53L0X/API/vl53l0x_api.c **** 
 3119              		.loc 1 1913 0
 3120 0048 EAE7     		b	.L242
 3121              	.LVL398:
 3122              	.L247:
1917:Drivers/VL53L0X/API/vl53l0x_api.c **** 				LastRangeMeasure);
 3123              		.loc 1 1917 0
 3124 004a 01AE     		add	r6, sp, #4
 3125 004c 00F15004 		add	r4, r0, #80
 3126 0050 0FCC     		ldmia	r4!, {r0, r1, r2, r3}
 3127              	.LVL399:
 3128 0052 0FC6     		stmia	r6!, {r0, r1, r2, r3}
 3129 0054 94E80700 		ldm	r4, {r0, r1, r2}
 3130 0058 86E80700 		stm	r6, {r0, r1, r2}
1920:Drivers/VL53L0X/API/vl53l0x_api.c **** 
 3131              		.loc 1 1920 0
 3132 005c 049B     		ldr	r3, [sp, #16]
1919:Drivers/VL53L0X/API/vl53l0x_api.c **** 				LastRangeDataBuffer.SignalRateRtnMegaCps;
 3133              		.loc 1 1919 0
 3134 005e 2B60     		str	r3, [r5]
1884:Drivers/VL53L0X/API/vl53l0x_api.c **** 	VL53L0X_RangingMeasurementData_t LastRangeDataBuffer;
 3135              		.loc 1 1884 0
 3136 0060 0020     		movs	r0, #0
1922:Drivers/VL53L0X/API/vl53l0x_api.c **** 
 3137              		.loc 1 1922 0
 3138 0062 DDE7     		b	.L242
 3139              	.LVL400:
 3140              	.L248:
1926:Drivers/VL53L0X/API/vl53l0x_api.c **** 				LastRangeMeasure);
 3141              		.loc 1 1926 0
 3142 0064 01AE     		add	r6, sp, #4
 3143 0066 00F15004 		add	r4, r0, #80
 3144 006a 0FCC     		ldmia	r4!, {r0, r1, r2, r3}
 3145              	.LVL401:
 3146 006c 0FC6     		stmia	r6!, {r0, r1, r2, r3}
 3147 006e 94E80700 		ldm	r4, {r0, r1, r2}
 3148 0072 86E80700 		stm	r6, {r0, r1, r2}
1929:Drivers/VL53L0X/API/vl53l0x_api.c **** 
 3149              		.loc 1 1929 0
 3150 0076 049B     		ldr	r3, [sp, #16]
1928:Drivers/VL53L0X/API/vl53l0x_api.c **** 				LastRangeDataBuffer.SignalRateRtnMegaCps;
 3151              		.loc 1 1928 0
 3152 0078 2B60     		str	r3, [r5]
1884:Drivers/VL53L0X/API/vl53l0x_api.c **** 	VL53L0X_RangingMeasurementData_t LastRangeDataBuffer;
 3153              		.loc 1 1884 0
 3154 007a 0020     		movs	r0, #0
1931:Drivers/VL53L0X/API/vl53l0x_api.c **** 
 3155              		.loc 1 1931 0
 3156 007c D0E7     		b	.L242
ARM GAS  /tmp/ccq7BpOX.s 			page 91


 3157              	.LVL402:
 3158              	.L249:
1935:Drivers/VL53L0X/API/vl53l0x_api.c **** 				LastRangeMeasure);
 3159              		.loc 1 1935 0
 3160 007e 01AE     		add	r6, sp, #4
 3161 0080 00F15004 		add	r4, r0, #80
 3162 0084 0FCC     		ldmia	r4!, {r0, r1, r2, r3}
 3163              	.LVL403:
 3164 0086 0FC6     		stmia	r6!, {r0, r1, r2, r3}
 3165 0088 94E80700 		ldm	r4, {r0, r1, r2}
 3166 008c 86E80700 		stm	r6, {r0, r1, r2}
1938:Drivers/VL53L0X/API/vl53l0x_api.c **** 
 3167              		.loc 1 1938 0
 3168 0090 049B     		ldr	r3, [sp, #16]
1937:Drivers/VL53L0X/API/vl53l0x_api.c **** 				LastRangeDataBuffer.SignalRateRtnMegaCps;
 3169              		.loc 1 1937 0
 3170 0092 2B60     		str	r3, [r5]
1884:Drivers/VL53L0X/API/vl53l0x_api.c **** 	VL53L0X_RangingMeasurementData_t LastRangeDataBuffer;
 3171              		.loc 1 1884 0
 3172 0094 0020     		movs	r0, #0
1940:Drivers/VL53L0X/API/vl53l0x_api.c **** 
 3173              		.loc 1 1940 0
 3174 0096 C3E7     		b	.L242
 3175              	.LVL404:
 3176              	.L250:
 3177              	.LCFI82:
 3178              		.cfi_def_cfa_offset 0
 3179              		.cfi_restore 4
 3180              		.cfi_restore 5
 3181              		.cfi_restore 6
1890:Drivers/VL53L0X/API/vl53l0x_api.c **** 	} else {
 3182              		.loc 1 1890 0
 3183 0098 6FF00300 		mvn	r0, #3
 3184              	.LVL405:
 3185              		.loc 1 1950 0
 3186 009c 7047     		bx	lr
 3187              	.LVL406:
 3188              	.L251:
1943:Drivers/VL53L0X/API/vl53l0x_api.c **** 		}
 3189              		.loc 1 1943 0
 3190 009e 6FF00300 		mvn	r0, #3
 3191              	.LVL407:
 3192 00a2 BDE7     		b	.L242
 3193              		.cfi_endproc
 3194              	.LFE187:
 3196              		.section	.text.VL53L0X_SetWrapAroundCheckEnable,"ax",%progbits
 3197              		.align	1
 3198              		.global	VL53L0X_SetWrapAroundCheckEnable
 3199              		.syntax unified
 3200              		.thumb
 3201              		.thumb_func
 3202              		.fpu fpv4-sp-d16
 3204              	VL53L0X_SetWrapAroundCheckEnable:
 3205              	.LFB188:
1951:Drivers/VL53L0X/API/vl53l0x_api.c **** 
1952:Drivers/VL53L0X/API/vl53l0x_api.c **** /*
1953:Drivers/VL53L0X/API/vl53l0x_api.c ****  * WRAPAROUND Check
ARM GAS  /tmp/ccq7BpOX.s 			page 92


1954:Drivers/VL53L0X/API/vl53l0x_api.c ****  */
1955:Drivers/VL53L0X/API/vl53l0x_api.c **** VL53L0X_Error VL53L0X_SetWrapAroundCheckEnable(VL53L0X_DEV Dev,
1956:Drivers/VL53L0X/API/vl53l0x_api.c **** 	uint8_t WrapAroundCheckEnable)
1957:Drivers/VL53L0X/API/vl53l0x_api.c **** {
 3206              		.loc 1 1957 0
 3207              		.cfi_startproc
 3208              		@ args = 0, pretend = 0, frame = 8
 3209              		@ frame_needed = 0, uses_anonymous_args = 0
 3210              	.LVL408:
 3211 0000 30B5     		push	{r4, r5, lr}
 3212              	.LCFI83:
 3213              		.cfi_def_cfa_offset 12
 3214              		.cfi_offset 4, -12
 3215              		.cfi_offset 5, -8
 3216              		.cfi_offset 14, -4
 3217 0002 83B0     		sub	sp, sp, #12
 3218              	.LCFI84:
 3219              		.cfi_def_cfa_offset 24
 3220 0004 0446     		mov	r4, r0
 3221 0006 0D46     		mov	r5, r1
 3222              	.LVL409:
1958:Drivers/VL53L0X/API/vl53l0x_api.c **** 	VL53L0X_Error Status = VL53L0X_ERROR_NONE;
1959:Drivers/VL53L0X/API/vl53l0x_api.c **** 	uint8_t Byte;
1960:Drivers/VL53L0X/API/vl53l0x_api.c **** 	uint8_t WrapAroundCheckEnableInt;
1961:Drivers/VL53L0X/API/vl53l0x_api.c **** 
1962:Drivers/VL53L0X/API/vl53l0x_api.c **** 	LOG_FUNCTION_START("");
1963:Drivers/VL53L0X/API/vl53l0x_api.c **** 
1964:Drivers/VL53L0X/API/vl53l0x_api.c **** 	Status = VL53L0X_RdByte(Dev, VL53L0X_REG_SYSTEM_SEQUENCE_CONFIG, &Byte);
 3223              		.loc 1 1964 0
 3224 0008 0DF10702 		add	r2, sp, #7
 3225 000c 0121     		movs	r1, #1
 3226              	.LVL410:
 3227 000e FFF7FEFF 		bl	VL53L0X_RdByte
 3228              	.LVL411:
1965:Drivers/VL53L0X/API/vl53l0x_api.c **** 	if (WrapAroundCheckEnable == 0) {
 3229              		.loc 1 1965 0
 3230 0012 B5B9     		cbnz	r5, .L257
1966:Drivers/VL53L0X/API/vl53l0x_api.c **** 		/* Disable wraparound */
1967:Drivers/VL53L0X/API/vl53l0x_api.c **** 		Byte = Byte & 0x7F;
 3231              		.loc 1 1967 0
 3232 0014 9DF80730 		ldrb	r3, [sp, #7]	@ zero_extendqisi2
 3233 0018 03F07F03 		and	r3, r3, #127
 3234 001c 8DF80730 		strb	r3, [sp, #7]
 3235              	.LVL412:
 3236              	.L258:
1968:Drivers/VL53L0X/API/vl53l0x_api.c **** 		WrapAroundCheckEnableInt = 0;
1969:Drivers/VL53L0X/API/vl53l0x_api.c **** 	} else {
1970:Drivers/VL53L0X/API/vl53l0x_api.c **** 		/*Enable wraparound */
1971:Drivers/VL53L0X/API/vl53l0x_api.c **** 		Byte = Byte | 0x80;
1972:Drivers/VL53L0X/API/vl53l0x_api.c **** 		WrapAroundCheckEnableInt = 1;
1973:Drivers/VL53L0X/API/vl53l0x_api.c **** 	}
1974:Drivers/VL53L0X/API/vl53l0x_api.c **** 
1975:Drivers/VL53L0X/API/vl53l0x_api.c **** 	Status = VL53L0X_WrByte(Dev, VL53L0X_REG_SYSTEM_SEQUENCE_CONFIG, Byte);
 3237              		.loc 1 1975 0
 3238 0020 9DF80720 		ldrb	r2, [sp, #7]	@ zero_extendqisi2
 3239 0024 0121     		movs	r1, #1
 3240 0026 2046     		mov	r0, r4
ARM GAS  /tmp/ccq7BpOX.s 			page 93


 3241 0028 FFF7FEFF 		bl	VL53L0X_WrByte
 3242              	.LVL413:
1976:Drivers/VL53L0X/API/vl53l0x_api.c **** 
1977:Drivers/VL53L0X/API/vl53l0x_api.c **** 	if (Status == VL53L0X_ERROR_NONE) {
 3243              		.loc 1 1977 0
 3244 002c 0346     		mov	r3, r0
 3245 002e 28B9     		cbnz	r0, .L259
1978:Drivers/VL53L0X/API/vl53l0x_api.c **** 		PALDevDataSet(Dev, SequenceConfig, Byte);
 3246              		.loc 1 1978 0
 3247 0030 9DF80720 		ldrb	r2, [sp, #7]	@ zero_extendqisi2
 3248 0034 84F83021 		strb	r2, [r4, #304]
1979:Drivers/VL53L0X/API/vl53l0x_api.c **** 		VL53L0X_SETPARAMETERFIELD(Dev, WrapAroundCheckEnable,
 3249              		.loc 1 1979 0
 3250 0038 84F84C50 		strb	r5, [r4, #76]
 3251              	.L259:
1980:Drivers/VL53L0X/API/vl53l0x_api.c **** 			WrapAroundCheckEnableInt);
1981:Drivers/VL53L0X/API/vl53l0x_api.c **** 	}
1982:Drivers/VL53L0X/API/vl53l0x_api.c **** 
1983:Drivers/VL53L0X/API/vl53l0x_api.c **** 	LOG_FUNCTION_END(Status);
1984:Drivers/VL53L0X/API/vl53l0x_api.c **** 	return Status;
1985:Drivers/VL53L0X/API/vl53l0x_api.c **** }
 3252              		.loc 1 1985 0
 3253 003c 1846     		mov	r0, r3
 3254              	.LVL414:
 3255 003e 03B0     		add	sp, sp, #12
 3256              	.LCFI85:
 3257              		.cfi_remember_state
 3258              		.cfi_def_cfa_offset 12
 3259              		@ sp needed
 3260 0040 30BD     		pop	{r4, r5, pc}
 3261              	.LVL415:
 3262              	.L257:
 3263              	.LCFI86:
 3264              		.cfi_restore_state
1971:Drivers/VL53L0X/API/vl53l0x_api.c **** 		WrapAroundCheckEnableInt = 1;
 3265              		.loc 1 1971 0
 3266 0042 9DF80730 		ldrb	r3, [sp, #7]	@ zero_extendqisi2
 3267 0046 63F07F03 		orn	r3, r3, #127
 3268 004a 8DF80730 		strb	r3, [sp, #7]
 3269              	.LVL416:
1972:Drivers/VL53L0X/API/vl53l0x_api.c **** 	}
 3270              		.loc 1 1972 0
 3271 004e 0125     		movs	r5, #1
 3272 0050 E6E7     		b	.L258
 3273              		.cfi_endproc
 3274              	.LFE188:
 3276              		.section	.text.VL53L0X_SetDeviceParameters,"ax",%progbits
 3277              		.align	1
 3278              		.global	VL53L0X_SetDeviceParameters
 3279              		.syntax unified
 3280              		.thumb
 3281              		.thumb_func
 3282              		.fpu fpv4-sp-d16
 3284              	VL53L0X_SetDeviceParameters:
 3285              	.LFB152:
 787:Drivers/VL53L0X/API/vl53l0x_api.c **** 	VL53L0X_Error Status = VL53L0X_ERROR_NONE;
 3286              		.loc 1 787 0
ARM GAS  /tmp/ccq7BpOX.s 			page 94


 3287              		.cfi_startproc
 3288              		@ args = 0, pretend = 0, frame = 0
 3289              		@ frame_needed = 0, uses_anonymous_args = 0
 3290              	.LVL417:
 3291 0000 2DE9F041 		push	{r4, r5, r6, r7, r8, lr}
 3292              	.LCFI87:
 3293              		.cfi_def_cfa_offset 24
 3294              		.cfi_offset 4, -24
 3295              		.cfi_offset 5, -20
 3296              		.cfi_offset 6, -16
 3297              		.cfi_offset 7, -12
 3298              		.cfi_offset 8, -8
 3299              		.cfi_offset 14, -4
 3300 0004 0746     		mov	r7, r0
 3301 0006 0E46     		mov	r6, r1
 3302              	.LVL418:
 791:Drivers/VL53L0X/API/vl53l0x_api.c **** 
 3303              		.loc 1 791 0
 3304 0008 0978     		ldrb	r1, [r1]	@ zero_extendqisi2
 3305              	.LVL419:
 3306 000a FFF7FEFF 		bl	VL53L0X_SetDeviceMode
 3307              	.LVL420:
 793:Drivers/VL53L0X/API/vl53l0x_api.c **** 		Status = VL53L0X_SetInterMeasurementPeriodMilliSeconds(Dev,
 3308              		.loc 1 793 0
 3309 000e 0446     		mov	r4, r0
 3310 0010 E8B1     		cbz	r0, .L271
 3311              	.LVL421:
 3312              	.L262:
 798:Drivers/VL53L0X/API/vl53l0x_api.c **** 		Status = VL53L0X_SetXTalkCompensationRateMegaCps(Dev,
 3313              		.loc 1 798 0
 3314 0012 14B3     		cbz	r4, .L272
 3315              	.L263:
 803:Drivers/VL53L0X/API/vl53l0x_api.c **** 		Status = VL53L0X_SetOffsetCalibrationDataMicroMeter(Dev,
 3316              		.loc 1 803 0
 3317 0014 3CB3     		cbz	r4, .L273
 3318              	.L264:
 787:Drivers/VL53L0X/API/vl53l0x_api.c **** 	VL53L0X_Error Status = VL53L0X_ERROR_NONE;
 3319              		.loc 1 787 0 discriminator 1
 3320 0016 0025     		movs	r5, #0
 3321              	.L265:
 3322              	.LVL422:
 808:Drivers/VL53L0X/API/vl53l0x_api.c **** 		if (Status == VL53L0X_ERROR_NONE)
 3323              		.loc 1 808 0 discriminator 1
 3324 0018 052D     		cmp	r5, #5
 3325 001a 2ADC     		bgt	.L266
 809:Drivers/VL53L0X/API/vl53l0x_api.c **** 			Status |= VL53L0X_SetLimitCheckEnable(Dev, i,
 3326              		.loc 1 809 0
 3327 001c 4CBB     		cbnz	r4, .L266
 810:Drivers/VL53L0X/API/vl53l0x_api.c **** 				pDeviceParameters->LimitChecksEnable[i]);
 3328              		.loc 1 810 0
 3329 001e 1FFA85F8 		uxth	r8, r5
 3330 0022 7319     		adds	r3, r6, r5
 3331 0024 1A7E     		ldrb	r2, [r3, #24]	@ zero_extendqisi2
 3332 0026 4146     		mov	r1, r8
 3333 0028 3846     		mov	r0, r7
 3334 002a FFF7FEFF 		bl	VL53L0X_SetLimitCheckEnable
 3335              	.LVL423:
ARM GAS  /tmp/ccq7BpOX.s 			page 95


 3336 002e 0443     		orrs	r4, r4, r0
 3337              	.LVL424:
 3338 0030 64B2     		sxtb	r4, r4
 3339              	.LVL425:
 815:Drivers/VL53L0X/API/vl53l0x_api.c **** 			Status |= VL53L0X_SetLimitCheckValue(Dev, i,
 3340              		.loc 1 815 0
 3341 0032 F4B9     		cbnz	r4, .L266
 816:Drivers/VL53L0X/API/vl53l0x_api.c **** 				pDeviceParameters->LimitChecksValue[i]);
 3342              		.loc 1 816 0 discriminator 2
 3343 0034 05F10803 		add	r3, r5, #8
 3344 0038 06EB8303 		add	r3, r6, r3, lsl #2
 3345 003c 5A68     		ldr	r2, [r3, #4]
 3346 003e 4146     		mov	r1, r8
 3347 0040 3846     		mov	r0, r7
 3348 0042 FFF7FEFF 		bl	VL53L0X_SetLimitCheckValue
 3349              	.LVL426:
 3350 0046 0443     		orrs	r4, r4, r0
 3351              	.LVL427:
 3352 0048 64B2     		sxtb	r4, r4
 3353              	.LVL428:
 808:Drivers/VL53L0X/API/vl53l0x_api.c **** 		if (Status == VL53L0X_ERROR_NONE)
 3354              		.loc 1 808 0 discriminator 2
 3355 004a 0135     		adds	r5, r5, #1
 3356              	.LVL429:
 3357 004c E4E7     		b	.L265
 3358              	.LVL430:
 3359              	.L271:
 794:Drivers/VL53L0X/API/vl53l0x_api.c **** 			pDeviceParameters->InterMeasurementPeriodMilliSeconds);
 3360              		.loc 1 794 0
 3361 004e B168     		ldr	r1, [r6, #8]
 3362 0050 3846     		mov	r0, r7
 3363              	.LVL431:
 3364 0052 FFF7FEFF 		bl	VL53L0X_SetInterMeasurementPeriodMilliSeconds
 3365              	.LVL432:
 3366 0056 0446     		mov	r4, r0
 3367              	.LVL433:
 3368 0058 DBE7     		b	.L262
 3369              	.L272:
 799:Drivers/VL53L0X/API/vl53l0x_api.c **** 			pDeviceParameters->XTalkCompensationRateMegaCps);
 3370              		.loc 1 799 0
 3371 005a 3169     		ldr	r1, [r6, #16]
 3372 005c 3846     		mov	r0, r7
 3373 005e FFF7FEFF 		bl	VL53L0X_SetXTalkCompensationRateMegaCps
 3374              	.LVL434:
 3375 0062 0446     		mov	r4, r0
 3376              	.LVL435:
 3377 0064 D6E7     		b	.L263
 3378              	.L273:
 804:Drivers/VL53L0X/API/vl53l0x_api.c **** 			pDeviceParameters->RangeOffsetMicroMeters);
 3379              		.loc 1 804 0
 3380 0066 7169     		ldr	r1, [r6, #20]
 3381 0068 3846     		mov	r0, r7
 3382 006a FFF7FEFF 		bl	VL53L0X_SetOffsetCalibrationDataMicroMeter
 3383              	.LVL436:
 3384 006e 0446     		mov	r4, r0
 3385              	.LVL437:
 3386 0070 D1E7     		b	.L264
ARM GAS  /tmp/ccq7BpOX.s 			page 96


 3387              	.LVL438:
 3388              	.L266:
 823:Drivers/VL53L0X/API/vl53l0x_api.c **** 		Status = VL53L0X_SetWrapAroundCheckEnable(Dev,
 3389              		.loc 1 823 0
 3390 0072 1CB1     		cbz	r4, .L274
 3391              	.L268:
 827:Drivers/VL53L0X/API/vl53l0x_api.c **** 		Status = VL53L0X_SetMeasurementTimingBudgetMicroSeconds(Dev,
 3392              		.loc 1 827 0
 3393 0074 4CB1     		cbz	r4, .L275
 3394              	.L269:
 834:Drivers/VL53L0X/API/vl53l0x_api.c **** 
 3395              		.loc 1 834 0
 3396 0076 2046     		mov	r0, r4
 3397 0078 BDE8F081 		pop	{r4, r5, r6, r7, r8, pc}
 3398              	.LVL439:
 3399              	.L274:
 824:Drivers/VL53L0X/API/vl53l0x_api.c **** 			pDeviceParameters->WrapAroundCheckEnable);
 3400              		.loc 1 824 0
 3401 007c 96F83C10 		ldrb	r1, [r6, #60]	@ zero_extendqisi2
 3402 0080 3846     		mov	r0, r7
 3403 0082 FFF7FEFF 		bl	VL53L0X_SetWrapAroundCheckEnable
 3404              	.LVL440:
 3405 0086 0446     		mov	r4, r0
 3406              	.LVL441:
 3407 0088 F4E7     		b	.L268
 3408              	.L275:
 828:Drivers/VL53L0X/API/vl53l0x_api.c **** 			pDeviceParameters->MeasurementTimingBudgetMicroSeconds);
 3409              		.loc 1 828 0
 3410 008a 7168     		ldr	r1, [r6, #4]
 3411 008c 3846     		mov	r0, r7
 3412 008e FFF7FEFF 		bl	VL53L0X_SetMeasurementTimingBudgetMicroSeconds
 3413              	.LVL442:
 3414 0092 0446     		mov	r4, r0
 3415              	.LVL443:
 3416 0094 EFE7     		b	.L269
 3417              		.cfi_endproc
 3418              	.LFE152:
 3420              		.section	.text.VL53L0X_GetWrapAroundCheckEnable,"ax",%progbits
 3421              		.align	1
 3422              		.global	VL53L0X_GetWrapAroundCheckEnable
 3423              		.syntax unified
 3424              		.thumb
 3425              		.thumb_func
 3426              		.fpu fpv4-sp-d16
 3428              	VL53L0X_GetWrapAroundCheckEnable:
 3429              	.LFB189:
1986:Drivers/VL53L0X/API/vl53l0x_api.c **** 
1987:Drivers/VL53L0X/API/vl53l0x_api.c **** VL53L0X_Error VL53L0X_GetWrapAroundCheckEnable(VL53L0X_DEV Dev,
1988:Drivers/VL53L0X/API/vl53l0x_api.c **** 	uint8_t *pWrapAroundCheckEnable)
1989:Drivers/VL53L0X/API/vl53l0x_api.c **** {
 3430              		.loc 1 1989 0
 3431              		.cfi_startproc
 3432              		@ args = 0, pretend = 0, frame = 8
 3433              		@ frame_needed = 0, uses_anonymous_args = 0
 3434              	.LVL444:
 3435 0000 30B5     		push	{r4, r5, lr}
 3436              	.LCFI88:
ARM GAS  /tmp/ccq7BpOX.s 			page 97


 3437              		.cfi_def_cfa_offset 12
 3438              		.cfi_offset 4, -12
 3439              		.cfi_offset 5, -8
 3440              		.cfi_offset 14, -4
 3441 0002 83B0     		sub	sp, sp, #12
 3442              	.LCFI89:
 3443              		.cfi_def_cfa_offset 24
 3444 0004 0446     		mov	r4, r0
 3445 0006 0D46     		mov	r5, r1
 3446              	.LVL445:
1990:Drivers/VL53L0X/API/vl53l0x_api.c **** 	VL53L0X_Error Status = VL53L0X_ERROR_NONE;
1991:Drivers/VL53L0X/API/vl53l0x_api.c **** 	uint8_t data;
1992:Drivers/VL53L0X/API/vl53l0x_api.c **** 
1993:Drivers/VL53L0X/API/vl53l0x_api.c **** 	LOG_FUNCTION_START("");
1994:Drivers/VL53L0X/API/vl53l0x_api.c **** 
1995:Drivers/VL53L0X/API/vl53l0x_api.c **** 	Status = VL53L0X_RdByte(Dev, VL53L0X_REG_SYSTEM_SEQUENCE_CONFIG, &data);
 3447              		.loc 1 1995 0
 3448 0008 0DF10702 		add	r2, sp, #7
 3449 000c 0121     		movs	r1, #1
 3450              	.LVL446:
 3451 000e FFF7FEFF 		bl	VL53L0X_RdByte
 3452              	.LVL447:
1996:Drivers/VL53L0X/API/vl53l0x_api.c **** 	if (Status == VL53L0X_ERROR_NONE) {
 3453              		.loc 1 1996 0
 3454 0012 0346     		mov	r3, r0
 3455 0014 40B9     		cbnz	r0, .L277
1997:Drivers/VL53L0X/API/vl53l0x_api.c **** 		PALDevDataSet(Dev, SequenceConfig, data);
 3456              		.loc 1 1997 0
 3457 0016 9DF80720 		ldrb	r2, [sp, #7]	@ zero_extendqisi2
 3458 001a 84F83021 		strb	r2, [r4, #304]
1998:Drivers/VL53L0X/API/vl53l0x_api.c **** 		if (data & (0x01 << 7))
 3459              		.loc 1 1998 0
 3460 001e 12F0800F 		tst	r2, #128
 3461 0022 08D1     		bne	.L281
1999:Drivers/VL53L0X/API/vl53l0x_api.c **** 			*pWrapAroundCheckEnable = 0x01;
2000:Drivers/VL53L0X/API/vl53l0x_api.c **** 		else
2001:Drivers/VL53L0X/API/vl53l0x_api.c **** 			*pWrapAroundCheckEnable = 0x00;
 3462              		.loc 1 2001 0
 3463 0024 0022     		movs	r2, #0
 3464 0026 2A70     		strb	r2, [r5]
 3465              	.L277:
2002:Drivers/VL53L0X/API/vl53l0x_api.c **** 	}
2003:Drivers/VL53L0X/API/vl53l0x_api.c **** 	if (Status == VL53L0X_ERROR_NONE) {
 3466              		.loc 1 2003 0
 3467 0028 13B9     		cbnz	r3, .L279
2004:Drivers/VL53L0X/API/vl53l0x_api.c **** 		VL53L0X_SETPARAMETERFIELD(Dev, WrapAroundCheckEnable,
 3468              		.loc 1 2004 0
 3469 002a 2A78     		ldrb	r2, [r5]	@ zero_extendqisi2
 3470 002c 84F84C20 		strb	r2, [r4, #76]
 3471              	.L279:
2005:Drivers/VL53L0X/API/vl53l0x_api.c **** 			*pWrapAroundCheckEnable);
2006:Drivers/VL53L0X/API/vl53l0x_api.c **** 	}
2007:Drivers/VL53L0X/API/vl53l0x_api.c **** 
2008:Drivers/VL53L0X/API/vl53l0x_api.c **** 	LOG_FUNCTION_END(Status);
2009:Drivers/VL53L0X/API/vl53l0x_api.c **** 	return Status;
2010:Drivers/VL53L0X/API/vl53l0x_api.c **** }
 3472              		.loc 1 2010 0
ARM GAS  /tmp/ccq7BpOX.s 			page 98


 3473 0030 1846     		mov	r0, r3
 3474              	.LVL448:
 3475 0032 03B0     		add	sp, sp, #12
 3476              	.LCFI90:
 3477              		.cfi_remember_state
 3478              		.cfi_def_cfa_offset 12
 3479              		@ sp needed
 3480 0034 30BD     		pop	{r4, r5, pc}
 3481              	.LVL449:
 3482              	.L281:
 3483              	.LCFI91:
 3484              		.cfi_restore_state
1999:Drivers/VL53L0X/API/vl53l0x_api.c **** 		else
 3485              		.loc 1 1999 0
 3486 0036 0122     		movs	r2, #1
 3487 0038 2A70     		strb	r2, [r5]
 3488 003a F5E7     		b	.L277
 3489              		.cfi_endproc
 3490              	.LFE189:
 3492              		.section	.text.VL53L0X_GetDeviceParameters,"ax",%progbits
 3493              		.align	1
 3494              		.global	VL53L0X_GetDeviceParameters
 3495              		.syntax unified
 3496              		.thumb
 3497              		.thumb_func
 3498              		.fpu fpv4-sp-d16
 3500              	VL53L0X_GetDeviceParameters:
 3501              	.LFB153:
 838:Drivers/VL53L0X/API/vl53l0x_api.c **** 	VL53L0X_Error Status = VL53L0X_ERROR_NONE;
 3502              		.loc 1 838 0
 3503              		.cfi_startproc
 3504              		@ args = 0, pretend = 0, frame = 0
 3505              		@ frame_needed = 0, uses_anonymous_args = 0
 3506              	.LVL450:
 3507 0000 2DE9F041 		push	{r4, r5, r6, r7, r8, lr}
 3508              	.LCFI92:
 3509              		.cfi_def_cfa_offset 24
 3510              		.cfi_offset 4, -24
 3511              		.cfi_offset 5, -20
 3512              		.cfi_offset 6, -16
 3513              		.cfi_offset 7, -12
 3514              		.cfi_offset 8, -8
 3515              		.cfi_offset 14, -4
 3516 0004 0746     		mov	r7, r0
 3517 0006 0E46     		mov	r6, r1
 3518              	.LVL451:
 844:Drivers/VL53L0X/API/vl53l0x_api.c **** 
 3519              		.loc 1 844 0
 3520 0008 FFF7FEFF 		bl	VL53L0X_GetDeviceMode
 3521              	.LVL452:
 846:Drivers/VL53L0X/API/vl53l0x_api.c **** 		Status = VL53L0X_GetInterMeasurementPeriodMilliSeconds(Dev,
 3522              		.loc 1 846 0
 3523 000c 0446     		mov	r4, r0
 3524 000e 60B1     		cbz	r0, .L294
 3525              	.LVL453:
 3526              	.L283:
 851:Drivers/VL53L0X/API/vl53l0x_api.c **** 		pDeviceParameters->XTalkCompensationEnable = 0;
ARM GAS  /tmp/ccq7BpOX.s 			page 99


 3527              		.loc 1 851 0
 3528 0010 0CB9     		cbnz	r4, .L284
 852:Drivers/VL53L0X/API/vl53l0x_api.c **** 
 3529              		.loc 1 852 0
 3530 0012 0023     		movs	r3, #0
 3531 0014 3373     		strb	r3, [r6, #12]
 3532              	.L284:
 854:Drivers/VL53L0X/API/vl53l0x_api.c **** 		Status = VL53L0X_GetXTalkCompensationRateMegaCps(Dev,
 3533              		.loc 1 854 0
 3534 0016 7CB1     		cbz	r4, .L295
 3535              	.L285:
 859:Drivers/VL53L0X/API/vl53l0x_api.c **** 		Status = VL53L0X_GetOffsetCalibrationDataMicroMeter(Dev,
 3536              		.loc 1 859 0
 3537 0018 ACB1     		cbz	r4, .L296
 3538              	.L286:
 864:Drivers/VL53L0X/API/vl53l0x_api.c **** 		for (i = 0; i < VL53L0X_CHECKENABLE_NUMBER_OF_CHECKS; i++) {
 3539              		.loc 1 864 0
 3540 001a DCB1     		cbz	r4, .L292
 3541              	.L288:
 885:Drivers/VL53L0X/API/vl53l0x_api.c **** 		Status = VL53L0X_GetWrapAroundCheckEnable(Dev,
 3542              		.loc 1 885 0
 3543 001c 002C     		cmp	r4, #0
 3544 001e 38D0     		beq	.L297
 3545              	.L290:
 891:Drivers/VL53L0X/API/vl53l0x_api.c **** 		Status = VL53L0X_GetMeasurementTimingBudgetMicroSeconds(Dev,
 3546              		.loc 1 891 0
 3547 0020 002C     		cmp	r4, #0
 3548 0022 3DD0     		beq	.L298
 3549              	.L291:
 898:Drivers/VL53L0X/API/vl53l0x_api.c **** 
 3550              		.loc 1 898 0
 3551 0024 2046     		mov	r0, r4
 3552 0026 BDE8F081 		pop	{r4, r5, r6, r7, r8, pc}
 3553              	.LVL454:
 3554              	.L294:
 847:Drivers/VL53L0X/API/vl53l0x_api.c **** 		&(pDeviceParameters->InterMeasurementPeriodMilliSeconds));
 3555              		.loc 1 847 0
 3556 002a 06F10801 		add	r1, r6, #8
 3557 002e 3846     		mov	r0, r7
 3558              	.LVL455:
 3559 0030 FFF7FEFF 		bl	VL53L0X_GetInterMeasurementPeriodMilliSeconds
 3560              	.LVL456:
 3561 0034 0446     		mov	r4, r0
 3562              	.LVL457:
 3563 0036 EBE7     		b	.L283
 3564              	.L295:
 855:Drivers/VL53L0X/API/vl53l0x_api.c **** 			&(pDeviceParameters->XTalkCompensationRateMegaCps));
 3565              		.loc 1 855 0
 3566 0038 06F11001 		add	r1, r6, #16
 3567 003c 3846     		mov	r0, r7
 3568 003e FFF7FEFF 		bl	VL53L0X_GetXTalkCompensationRateMegaCps
 3569              	.LVL458:
 3570 0042 0446     		mov	r4, r0
 3571              	.LVL459:
 3572 0044 E8E7     		b	.L285
 3573              	.L296:
 860:Drivers/VL53L0X/API/vl53l0x_api.c **** 			&(pDeviceParameters->RangeOffsetMicroMeters));
ARM GAS  /tmp/ccq7BpOX.s 			page 100


 3574              		.loc 1 860 0
 3575 0046 06F11401 		add	r1, r6, #20
 3576 004a 3846     		mov	r0, r7
 3577 004c FFF7FEFF 		bl	VL53L0X_GetOffsetCalibrationDataMicroMeter
 3578              	.LVL460:
 3579 0050 0446     		mov	r4, r0
 3580              	.LVL461:
 3581 0052 E2E7     		b	.L286
 3582              	.L292:
 865:Drivers/VL53L0X/API/vl53l0x_api.c **** 			/* get first the values, then the enables.
 3583              		.loc 1 865 0
 3584 0054 0025     		movs	r5, #0
 3585              	.L287:
 3586              	.LVL462:
 865:Drivers/VL53L0X/API/vl53l0x_api.c **** 			/* get first the values, then the enables.
 3587              		.loc 1 865 0 is_stmt 0 discriminator 1
 3588 0056 052D     		cmp	r5, #5
 3589 0058 E0DC     		bgt	.L288
 870:Drivers/VL53L0X/API/vl53l0x_api.c **** 				Status |= VL53L0X_GetLimitCheckValue(Dev, i,
 3590              		.loc 1 870 0 is_stmt 1
 3591 005a 002C     		cmp	r4, #0
 3592 005c DED1     		bne	.L288
 871:Drivers/VL53L0X/API/vl53l0x_api.c **** 				&(pDeviceParameters->LimitChecksValue[i]));
 3593              		.loc 1 871 0
 3594 005e 1FFA85F8 		uxth	r8, r5
 3595 0062 05F10802 		add	r2, r5, #8
 3596 0066 06EB8202 		add	r2, r6, r2, lsl #2
 3597 006a 0432     		adds	r2, r2, #4
 3598 006c 4146     		mov	r1, r8
 3599 006e 3846     		mov	r0, r7
 3600 0070 FFF7FEFF 		bl	VL53L0X_GetLimitCheckValue
 3601              	.LVL463:
 3602 0074 0443     		orrs	r4, r4, r0
 3603              	.LVL464:
 3604 0076 64B2     		sxtb	r4, r4
 3605              	.LVL465:
 876:Drivers/VL53L0X/API/vl53l0x_api.c **** 				Status |= VL53L0X_GetLimitCheckEnable(Dev, i,
 3606              		.loc 1 876 0
 3607 0078 002C     		cmp	r4, #0
 3608 007a CFD1     		bne	.L288
 877:Drivers/VL53L0X/API/vl53l0x_api.c **** 				&(pDeviceParameters->LimitChecksEnable[i]));
 3609              		.loc 1 877 0 discriminator 2
 3610 007c 05F11802 		add	r2, r5, #24
 3611 0080 3244     		add	r2, r2, r6
 3612 0082 4146     		mov	r1, r8
 3613 0084 3846     		mov	r0, r7
 3614 0086 FFF7FEFF 		bl	VL53L0X_GetLimitCheckEnable
 3615              	.LVL466:
 3616 008a 0443     		orrs	r4, r4, r0
 3617              	.LVL467:
 3618 008c 64B2     		sxtb	r4, r4
 3619              	.LVL468:
 865:Drivers/VL53L0X/API/vl53l0x_api.c **** 			/* get first the values, then the enables.
 3620              		.loc 1 865 0 discriminator 2
 3621 008e 0135     		adds	r5, r5, #1
 3622              	.LVL469:
 3623 0090 E1E7     		b	.L287
ARM GAS  /tmp/ccq7BpOX.s 			page 101


 3624              	.LVL470:
 3625              	.L297:
 886:Drivers/VL53L0X/API/vl53l0x_api.c **** 			&(pDeviceParameters->WrapAroundCheckEnable));
 3626              		.loc 1 886 0
 3627 0092 06F13C01 		add	r1, r6, #60
 3628 0096 3846     		mov	r0, r7
 3629 0098 FFF7FEFF 		bl	VL53L0X_GetWrapAroundCheckEnable
 3630              	.LVL471:
 3631 009c 0446     		mov	r4, r0
 3632              	.LVL472:
 3633 009e BFE7     		b	.L290
 3634              	.L298:
 892:Drivers/VL53L0X/API/vl53l0x_api.c **** 		&(pDeviceParameters->MeasurementTimingBudgetMicroSeconds));
 3635              		.loc 1 892 0
 3636 00a0 311D     		adds	r1, r6, #4
 3637 00a2 3846     		mov	r0, r7
 3638 00a4 FFF7FEFF 		bl	VL53L0X_GetMeasurementTimingBudgetMicroSeconds
 3639              	.LVL473:
 3640 00a8 0446     		mov	r4, r0
 3641              	.LVL474:
 3642 00aa BBE7     		b	.L291
 3643              		.cfi_endproc
 3644              	.LFE153:
 3646              		.section	.text.VL53L0X_DataInit,"ax",%progbits
 3647              		.align	1
 3648              		.global	VL53L0X_DataInit
 3649              		.syntax unified
 3650              		.thumb
 3651              		.thumb_func
 3652              		.fpu fpv4-sp-d16
 3654              	VL53L0X_DataInit:
 3655              	.LFB146:
 368:Drivers/VL53L0X/API/vl53l0x_api.c **** 	VL53L0X_Error Status = VL53L0X_ERROR_NONE;
 3656              		.loc 1 368 0
 3657              		.cfi_startproc
 3658              		@ args = 0, pretend = 0, frame = 72
 3659              		@ frame_needed = 0, uses_anonymous_args = 0
 3660              	.LVL475:
 3661 0000 F0B5     		push	{r4, r5, r6, r7, lr}
 3662              	.LCFI93:
 3663              		.cfi_def_cfa_offset 20
 3664              		.cfi_offset 4, -20
 3665              		.cfi_offset 5, -16
 3666              		.cfi_offset 6, -12
 3667              		.cfi_offset 7, -8
 3668              		.cfi_offset 14, -4
 3669 0002 93B0     		sub	sp, sp, #76
 3670              	.LCFI94:
 3671              		.cfi_def_cfa_offset 96
 3672 0004 0546     		mov	r5, r0
 3673              	.LVL476:
 387:Drivers/VL53L0X/API/vl53l0x_api.c **** 
 3674              		.loc 1 387 0
 3675 0006 0022     		movs	r2, #0
 3676 0008 8821     		movs	r1, #136
 3677 000a FFF7FEFF 		bl	VL53L0X_WrByte
 3678              	.LVL477:
ARM GAS  /tmp/ccq7BpOX.s 			page 102


 389:Drivers/VL53L0X/API/vl53l0x_api.c **** 
 3679              		.loc 1 389 0
 3680 000e 0023     		movs	r3, #0
 3681 0010 85F8F030 		strb	r3, [r5, #240]
 397:Drivers/VL53L0X/API/vl53l0x_api.c **** 
 3682              		.loc 1 397 0
 3683 0014 4FF47A72 		mov	r2, #1000
 3684 0018 A5F85221 		strh	r2, [r5, #338]	@ movhi
 400:Drivers/VL53L0X/API/vl53l0x_api.c **** 	PALDevDataSet(Dev, DmaxCalSignalRateRtnMegaCps,
 3685              		.loc 1 400 0
 3686 001c 4FF4C872 		mov	r2, #400
 3687 0020 A5F85421 		strh	r2, [r5, #340]	@ movhi
 401:Drivers/VL53L0X/API/vl53l0x_api.c **** 		(FixPoint1616_t)((0x00016B85))); /* 1.42 No Cover Glass*/
 3688              		.loc 1 401 0
 3689 0024 654A     		ldr	r2, .L324
 3690 0026 C5F85821 		str	r2, [r5, #344]
 406:Drivers/VL53L0X/API/vl53l0x_api.c **** 
 3691              		.loc 1 406 0
 3692 002a 654A     		ldr	r2, .L324+4
 3693 002c C5F8D420 		str	r2, [r5, #212]
 409:Drivers/VL53L0X/API/vl53l0x_api.c **** 
 3694              		.loc 1 409 0
 3695 0030 2B62     		str	r3, [r5, #32]
 412:Drivers/VL53L0X/API/vl53l0x_api.c **** 	if (Status == VL53L0X_ERROR_NONE) {
 3696              		.loc 1 412 0
 3697 0032 02A9     		add	r1, sp, #8
 3698 0034 2846     		mov	r0, r5
 3699 0036 FFF7FEFF 		bl	VL53L0X_GetDeviceParameters
 3700              	.LVL478:
 413:Drivers/VL53L0X/API/vl53l0x_api.c **** 		/* initialize PAL values */
 3701              		.loc 1 413 0
 3702 003a 0446     		mov	r4, r0
 3703 003c 88B9     		cbnz	r0, .L300
 415:Drivers/VL53L0X/API/vl53l0x_api.c **** 		CurrentParameters.HistogramMode = VL53L0X_HISTOGRAMMODE_DISABLED;
 3704              		.loc 1 415 0
 3705 003e 0023     		movs	r3, #0
 3706 0040 8DF80830 		strb	r3, [sp, #8]
 416:Drivers/VL53L0X/API/vl53l0x_api.c **** 		PALDevDataSet(Dev, CurrentParameters, CurrentParameters);
 3707              		.loc 1 416 0
 3708 0044 8DF80930 		strb	r3, [sp, #9]
 417:Drivers/VL53L0X/API/vl53l0x_api.c **** 	}
 3709              		.loc 1 417 0
 3710 0048 05F11006 		add	r6, r5, #16
 3711 004c 02AF     		add	r7, sp, #8
 3712 004e 0FCF     		ldmia	r7!, {r0, r1, r2, r3}
 3713              	.LVL479:
 3714 0050 0FC6     		stmia	r6!, {r0, r1, r2, r3}
 3715 0052 0FCF     		ldmia	r7!, {r0, r1, r2, r3}
 3716 0054 0FC6     		stmia	r6!, {r0, r1, r2, r3}
 3717 0056 0FCF     		ldmia	r7!, {r0, r1, r2, r3}
 3718 0058 0FC6     		stmia	r6!, {r0, r1, r2, r3}
 3719 005a 97E80F00 		ldm	r7, {r0, r1, r2, r3}
 3720 005e 86E80F00 		stm	r6, {r0, r1, r2, r3}
 3721              	.L300:
 421:Drivers/VL53L0X/API/vl53l0x_api.c **** 	PALDevDataSet(Dev, SigmaEstEffPulseWidth, 900);
 3722              		.loc 1 421 0
 3723 0062 6423     		movs	r3, #100
ARM GAS  /tmp/ccq7BpOX.s 			page 103


 3724 0064 A5F83431 		strh	r3, [r5, #308]	@ movhi
 422:Drivers/VL53L0X/API/vl53l0x_api.c **** 	PALDevDataSet(Dev, SigmaEstEffAmbWidth, 500);
 3725              		.loc 1 422 0
 3726 0068 4FF46173 		mov	r3, #900
 3727 006c A5F83631 		strh	r3, [r5, #310]	@ movhi
 423:Drivers/VL53L0X/API/vl53l0x_api.c **** 	PALDevDataSet(Dev, targetRefRate, 0x0A00); /* 20 MCPS in 9:7 format */
 3728              		.loc 1 423 0
 3729 0070 4FF4FA73 		mov	r3, #500
 3730 0074 A5F83831 		strh	r3, [r5, #312]	@ movhi
 424:Drivers/VL53L0X/API/vl53l0x_api.c **** 
 3731              		.loc 1 424 0
 3732 0078 4FF42063 		mov	r3, #2560
 3733 007c A5F83C31 		strh	r3, [r5, #316]	@ movhi
 427:Drivers/VL53L0X/API/vl53l0x_api.c **** 
 3734              		.loc 1 427 0
 3735 0080 0126     		movs	r6, #1
 3736 0082 85F85061 		strb	r6, [r5, #336]
 429:Drivers/VL53L0X/API/vl53l0x_api.c **** 	Status |= VL53L0X_WrByte(Dev, 0xFF, 0x01);
 3737              		.loc 1 429 0
 3738 0086 3246     		mov	r2, r6
 3739 0088 8021     		movs	r1, #128
 3740 008a 2846     		mov	r0, r5
 3741 008c FFF7FEFF 		bl	VL53L0X_WrByte
 3742              	.LVL480:
 3743 0090 0443     		orrs	r4, r4, r0
 3744 0092 64B2     		sxtb	r4, r4
 3745              	.LVL481:
 430:Drivers/VL53L0X/API/vl53l0x_api.c **** 	Status |= VL53L0X_WrByte(Dev, 0x00, 0x00);
 3746              		.loc 1 430 0
 3747 0094 3246     		mov	r2, r6
 3748 0096 FF21     		movs	r1, #255
 3749 0098 2846     		mov	r0, r5
 3750 009a FFF7FEFF 		bl	VL53L0X_WrByte
 3751              	.LVL482:
 3752 009e 0443     		orrs	r4, r4, r0
 3753              	.LVL483:
 3754 00a0 64B2     		sxtb	r4, r4
 3755              	.LVL484:
 431:Drivers/VL53L0X/API/vl53l0x_api.c **** 	Status |= VL53L0X_RdByte(Dev, 0x91, &StopVariable);
 3756              		.loc 1 431 0
 3757 00a2 0022     		movs	r2, #0
 3758 00a4 1146     		mov	r1, r2
 3759 00a6 2846     		mov	r0, r5
 3760 00a8 FFF7FEFF 		bl	VL53L0X_WrByte
 3761              	.LVL485:
 3762 00ac 0443     		orrs	r4, r4, r0
 3763              	.LVL486:
 3764 00ae 64B2     		sxtb	r4, r4
 3765              	.LVL487:
 432:Drivers/VL53L0X/API/vl53l0x_api.c **** 	PALDevDataSet(Dev, StopVariable, StopVariable);
 3766              		.loc 1 432 0
 3767 00b0 0DF10702 		add	r2, sp, #7
 3768 00b4 9121     		movs	r1, #145
 3769 00b6 2846     		mov	r0, r5
 3770 00b8 FFF7FEFF 		bl	VL53L0X_RdByte
 3771              	.LVL488:
 3772 00bc 0443     		orrs	r4, r4, r0
ARM GAS  /tmp/ccq7BpOX.s 			page 104


 3773              	.LVL489:
 3774 00be 64B2     		sxtb	r4, r4
 3775              	.LVL490:
 433:Drivers/VL53L0X/API/vl53l0x_api.c **** 	Status |= VL53L0X_WrByte(Dev, 0x00, 0x01);
 3776              		.loc 1 433 0
 3777 00c0 9DF80730 		ldrb	r3, [sp, #7]	@ zero_extendqisi2
 3778 00c4 85F83A31 		strb	r3, [r5, #314]
 434:Drivers/VL53L0X/API/vl53l0x_api.c **** 	Status |= VL53L0X_WrByte(Dev, 0xFF, 0x00);
 3779              		.loc 1 434 0
 3780 00c8 3246     		mov	r2, r6
 3781 00ca 0021     		movs	r1, #0
 3782 00cc 2846     		mov	r0, r5
 3783 00ce FFF7FEFF 		bl	VL53L0X_WrByte
 3784              	.LVL491:
 3785 00d2 0443     		orrs	r4, r4, r0
 3786              	.LVL492:
 3787 00d4 64B2     		sxtb	r4, r4
 3788              	.LVL493:
 435:Drivers/VL53L0X/API/vl53l0x_api.c **** 	Status |= VL53L0X_WrByte(Dev, 0x80, 0x00);
 3789              		.loc 1 435 0
 3790 00d6 0022     		movs	r2, #0
 3791 00d8 FF21     		movs	r1, #255
 3792 00da 2846     		mov	r0, r5
 3793 00dc FFF7FEFF 		bl	VL53L0X_WrByte
 3794              	.LVL494:
 3795 00e0 0443     		orrs	r4, r4, r0
 3796              	.LVL495:
 3797 00e2 64B2     		sxtb	r4, r4
 3798              	.LVL496:
 436:Drivers/VL53L0X/API/vl53l0x_api.c **** 
 3799              		.loc 1 436 0
 3800 00e4 0022     		movs	r2, #0
 3801 00e6 8021     		movs	r1, #128
 3802 00e8 2846     		mov	r0, r5
 3803 00ea FFF7FEFF 		bl	VL53L0X_WrByte
 3804              	.LVL497:
 3805 00ee 0443     		orrs	r4, r4, r0
 3806              	.LVL498:
 3807 00f0 64B2     		sxtb	r4, r4
 3808              	.LVL499:
 439:Drivers/VL53L0X/API/vl53l0x_api.c **** 		if (Status == VL53L0X_ERROR_NONE)
 3809              		.loc 1 439 0
 3810 00f2 0026     		movs	r6, #0
 3811              	.LVL500:
 3812              	.L301:
 439:Drivers/VL53L0X/API/vl53l0x_api.c **** 		if (Status == VL53L0X_ERROR_NONE)
 3813              		.loc 1 439 0 is_stmt 0 discriminator 1
 3814 00f4 052E     		cmp	r6, #5
 3815 00f6 09DC     		bgt	.L302
 440:Drivers/VL53L0X/API/vl53l0x_api.c **** 			Status |= VL53L0X_SetLimitCheckEnable(Dev, i, 1);
 3816              		.loc 1 440 0 is_stmt 1
 3817 00f8 44B9     		cbnz	r4, .L302
 441:Drivers/VL53L0X/API/vl53l0x_api.c **** 		else
 3818              		.loc 1 441 0 discriminator 2
 3819 00fa 0122     		movs	r2, #1
 3820 00fc B1B2     		uxth	r1, r6
 3821 00fe 2846     		mov	r0, r5
ARM GAS  /tmp/ccq7BpOX.s 			page 105


 3822 0100 FFF7FEFF 		bl	VL53L0X_SetLimitCheckEnable
 3823              	.LVL501:
 3824 0104 0443     		orrs	r4, r4, r0
 3825              	.LVL502:
 3826 0106 64B2     		sxtb	r4, r4
 3827              	.LVL503:
 439:Drivers/VL53L0X/API/vl53l0x_api.c **** 		if (Status == VL53L0X_ERROR_NONE)
 3828              		.loc 1 439 0 discriminator 2
 3829 0108 0136     		adds	r6, r6, #1
 3830              	.LVL504:
 3831 010a F3E7     		b	.L301
 3832              	.L302:
 448:Drivers/VL53L0X/API/vl53l0x_api.c **** 		Status = VL53L0X_SetLimitCheckEnable(Dev,
 3833              		.loc 1 448 0
 3834 010c 7CB1     		cbz	r4, .L315
 3835              	.L304:
 452:Drivers/VL53L0X/API/vl53l0x_api.c **** 		Status = VL53L0X_SetLimitCheckEnable(Dev,
 3836              		.loc 1 452 0
 3837 010e ACB1     		cbz	r4, .L316
 3838              	.L305:
 456:Drivers/VL53L0X/API/vl53l0x_api.c **** 		Status = VL53L0X_SetLimitCheckEnable(Dev,
 3839              		.loc 1 456 0
 3840 0110 DCB1     		cbz	r4, .L317
 3841              	.L306:
 460:Drivers/VL53L0X/API/vl53l0x_api.c **** 		Status = VL53L0X_SetLimitCheckEnable(Dev,
 3842              		.loc 1 460 0
 3843 0112 0CB3     		cbz	r4, .L318
 3844              	.L307:
 465:Drivers/VL53L0X/API/vl53l0x_api.c **** 		Status = VL53L0X_SetLimitCheckValue(Dev,
 3845              		.loc 1 465 0
 3846 0114 3CB3     		cbz	r4, .L319
 3847              	.L308:
 470:Drivers/VL53L0X/API/vl53l0x_api.c **** 		Status = VL53L0X_SetLimitCheckValue(Dev,
 3848              		.loc 1 470 0
 3849 0116 74B3     		cbz	r4, .L320
 3850              	.L309:
 477:Drivers/VL53L0X/API/vl53l0x_api.c **** 		Status = VL53L0X_SetLimitCheckValue(Dev,
 3851              		.loc 1 477 0
 3852 0118 ACB3     		cbz	r4, .L321
 3853              	.L310:
 483:Drivers/VL53L0X/API/vl53l0x_api.c **** 		Status = VL53L0X_SetLimitCheckValue(Dev,
 3854              		.loc 1 483 0
 3855 011a E4B3     		cbz	r4, .L322
 3856              	.L311:
 489:Drivers/VL53L0X/API/vl53l0x_api.c **** 
 3857              		.loc 1 489 0
 3858 011c 002C     		cmp	r4, #0
 3859 011e 41D0     		beq	.L323
 3860              	.L312:
 500:Drivers/VL53L0X/API/vl53l0x_api.c **** 		VL53L0X_SETDEVICESPECIFICPARAMETER(Dev, RefSpadsInitialised, 0);
 3861              		.loc 1 500 0
 3862 0120 14B9     		cbnz	r4, .L313
 501:Drivers/VL53L0X/API/vl53l0x_api.c **** 
 3863              		.loc 1 501 0
 3864 0122 0023     		movs	r3, #0
 3865 0124 85F81531 		strb	r3, [r5, #277]
 3866              	.L313:
ARM GAS  /tmp/ccq7BpOX.s 			page 106


 506:Drivers/VL53L0X/API/vl53l0x_api.c **** 
 3867              		.loc 1 506 0
 3868 0128 2046     		mov	r0, r4
 3869 012a 13B0     		add	sp, sp, #76
 3870              	.LCFI95:
 3871              		.cfi_remember_state
 3872              		.cfi_def_cfa_offset 20
 3873              		@ sp needed
 3874 012c F0BD     		pop	{r4, r5, r6, r7, pc}
 3875              	.LVL505:
 3876              	.L315:
 3877              	.LCFI96:
 3878              		.cfi_restore_state
 449:Drivers/VL53L0X/API/vl53l0x_api.c **** 			VL53L0X_CHECKENABLE_SIGNAL_REF_CLIP, 0);
 3879              		.loc 1 449 0
 3880 012e 0022     		movs	r2, #0
 3881 0130 0221     		movs	r1, #2
 3882 0132 2846     		mov	r0, r5
 3883 0134 FFF7FEFF 		bl	VL53L0X_SetLimitCheckEnable
 3884              	.LVL506:
 3885 0138 0446     		mov	r4, r0
 3886              	.LVL507:
 3887 013a E8E7     		b	.L304
 3888              	.L316:
 453:Drivers/VL53L0X/API/vl53l0x_api.c **** 			VL53L0X_CHECKENABLE_RANGE_IGNORE_THRESHOLD, 0);
 3889              		.loc 1 453 0
 3890 013c 0022     		movs	r2, #0
 3891 013e 0321     		movs	r1, #3
 3892 0140 2846     		mov	r0, r5
 3893 0142 FFF7FEFF 		bl	VL53L0X_SetLimitCheckEnable
 3894              	.LVL508:
 3895 0146 0446     		mov	r4, r0
 3896              	.LVL509:
 3897 0148 E2E7     		b	.L305
 3898              	.L317:
 457:Drivers/VL53L0X/API/vl53l0x_api.c **** 			VL53L0X_CHECKENABLE_SIGNAL_RATE_MSRC, 0);
 3899              		.loc 1 457 0
 3900 014a 0022     		movs	r2, #0
 3901 014c 0421     		movs	r1, #4
 3902 014e 2846     		mov	r0, r5
 3903 0150 FFF7FEFF 		bl	VL53L0X_SetLimitCheckEnable
 3904              	.LVL510:
 3905 0154 0446     		mov	r4, r0
 3906              	.LVL511:
 3907 0156 DCE7     		b	.L306
 3908              	.L318:
 461:Drivers/VL53L0X/API/vl53l0x_api.c **** 			VL53L0X_CHECKENABLE_SIGNAL_RATE_PRE_RANGE, 0);
 3909              		.loc 1 461 0
 3910 0158 0022     		movs	r2, #0
 3911 015a 0521     		movs	r1, #5
 3912 015c 2846     		mov	r0, r5
 3913 015e FFF7FEFF 		bl	VL53L0X_SetLimitCheckEnable
 3914              	.LVL512:
 3915 0162 0446     		mov	r4, r0
 3916              	.LVL513:
 3917 0164 D6E7     		b	.L307
 3918              	.L319:
ARM GAS  /tmp/ccq7BpOX.s 			page 107


 466:Drivers/VL53L0X/API/vl53l0x_api.c **** 			VL53L0X_CHECKENABLE_SIGMA_FINAL_RANGE,
 3919              		.loc 1 466 0
 3920 0166 4FF49012 		mov	r2, #1179648
 3921 016a 0021     		movs	r1, #0
 3922 016c 2846     		mov	r0, r5
 3923 016e FFF7FEFF 		bl	VL53L0X_SetLimitCheckValue
 3924              	.LVL514:
 3925 0172 0446     		mov	r4, r0
 3926              	.LVL515:
 3927 0174 CFE7     		b	.L308
 3928              	.L320:
 471:Drivers/VL53L0X/API/vl53l0x_api.c **** 			VL53L0X_CHECKENABLE_SIGNAL_RATE_FINAL_RANGE,
 3929              		.loc 1 471 0
 3930 0176 4FF48042 		mov	r2, #16384
 3931 017a 0121     		movs	r1, #1
 3932 017c 2846     		mov	r0, r5
 3933 017e FFF7FEFF 		bl	VL53L0X_SetLimitCheckValue
 3934              	.LVL516:
 3935 0182 0446     		mov	r4, r0
 3936              	.LVL517:
 3937 0184 C8E7     		b	.L309
 3938              	.L321:
 478:Drivers/VL53L0X/API/vl53l0x_api.c **** 			VL53L0X_CHECKENABLE_SIGNAL_REF_CLIP,
 3939              		.loc 1 478 0
 3940 0186 4FF40C12 		mov	r2, #2293760
 3941 018a 0221     		movs	r1, #2
 3942 018c 2846     		mov	r0, r5
 3943 018e FFF7FEFF 		bl	VL53L0X_SetLimitCheckValue
 3944              	.LVL518:
 3945 0192 0446     		mov	r4, r0
 3946              	.LVL519:
 3947 0194 C1E7     		b	.L310
 3948              	.L322:
 484:Drivers/VL53L0X/API/vl53l0x_api.c **** 			VL53L0X_CHECKENABLE_RANGE_IGNORE_THRESHOLD,
 3949              		.loc 1 484 0
 3950 0196 0022     		movs	r2, #0
 3951 0198 0321     		movs	r1, #3
 3952 019a 2846     		mov	r0, r5
 3953 019c FFF7FEFF 		bl	VL53L0X_SetLimitCheckValue
 3954              	.LVL520:
 3955 01a0 0446     		mov	r4, r0
 3956              	.LVL521:
 3957 01a2 BBE7     		b	.L311
 3958              	.L323:
 491:Drivers/VL53L0X/API/vl53l0x_api.c **** 		Status = VL53L0X_WrByte(Dev, VL53L0X_REG_SYSTEM_SEQUENCE_CONFIG,
 3959              		.loc 1 491 0
 3960 01a4 FF22     		movs	r2, #255
 3961 01a6 85F83021 		strb	r2, [r5, #304]
 492:Drivers/VL53L0X/API/vl53l0x_api.c **** 			0xFF);
 3962              		.loc 1 492 0
 3963 01aa 0121     		movs	r1, #1
 3964 01ac 2846     		mov	r0, r5
 3965 01ae FFF7FEFF 		bl	VL53L0X_WrByte
 3966              	.LVL522:
 3967 01b2 0446     		mov	r4, r0
 3968              	.LVL523:
 497:Drivers/VL53L0X/API/vl53l0x_api.c **** 	}
ARM GAS  /tmp/ccq7BpOX.s 			page 108


 3969              		.loc 1 497 0
 3970 01b4 0123     		movs	r3, #1
 3971 01b6 85F83231 		strb	r3, [r5, #306]
 3972 01ba B1E7     		b	.L312
 3973              	.L325:
 3974              		.align	2
 3975              	.L324:
 3976 01bc 856B0100 		.word	93061
 3977 01c0 A4700900 		.word	618660
 3978              		.cfi_endproc
 3979              	.LFE146:
 3981              		.section	.text.VL53L0X_SetDmaxCalParameters,"ax",%progbits
 3982              		.align	1
 3983              		.global	VL53L0X_SetDmaxCalParameters
 3984              		.syntax unified
 3985              		.thumb
 3986              		.thumb_func
 3987              		.fpu fpv4-sp-d16
 3989              	VL53L0X_SetDmaxCalParameters:
 3990              	.LFB190:
2011:Drivers/VL53L0X/API/vl53l0x_api.c **** 
2012:Drivers/VL53L0X/API/vl53l0x_api.c **** VL53L0X_Error VL53L0X_SetDmaxCalParameters(VL53L0X_DEV Dev,
2013:Drivers/VL53L0X/API/vl53l0x_api.c **** 	uint16_t RangeMilliMeter, FixPoint1616_t SignalRateRtnMegaCps)
2014:Drivers/VL53L0X/API/vl53l0x_api.c **** {
 3991              		.loc 1 2014 0
 3992              		.cfi_startproc
 3993              		@ args = 0, pretend = 0, frame = 0
 3994              		@ frame_needed = 0, uses_anonymous_args = 0
 3995              	.LVL524:
2015:Drivers/VL53L0X/API/vl53l0x_api.c **** 	VL53L0X_Error Status = VL53L0X_ERROR_NONE;
2016:Drivers/VL53L0X/API/vl53l0x_api.c **** 	FixPoint1616_t SignalRateRtnMegaCpsTemp = 0;
2017:Drivers/VL53L0X/API/vl53l0x_api.c **** 
2018:Drivers/VL53L0X/API/vl53l0x_api.c **** 	LOG_FUNCTION_START("");
2019:Drivers/VL53L0X/API/vl53l0x_api.c **** 
2020:Drivers/VL53L0X/API/vl53l0x_api.c **** 	/* Check if one of input parameter is zero, in that case the
2021:Drivers/VL53L0X/API/vl53l0x_api.c **** 	 * value are get from NVM */
2022:Drivers/VL53L0X/API/vl53l0x_api.c **** 	if ((RangeMilliMeter == 0) || (SignalRateRtnMegaCps == 0)) {
 3996              		.loc 1 2022 0
 3997 0000 31B1     		cbz	r1, .L327
 3998              		.loc 1 2022 0 is_stmt 0 discriminator 1
 3999 0002 2AB1     		cbz	r2, .L327
2023:Drivers/VL53L0X/API/vl53l0x_api.c **** 		/* NVM parameters */
2024:Drivers/VL53L0X/API/vl53l0x_api.c **** 		/* Run VL53L0X_get_info_from_device wit option 4 to get
2025:Drivers/VL53L0X/API/vl53l0x_api.c **** 		 * signal rate at 400 mm if the value have been already
2026:Drivers/VL53L0X/API/vl53l0x_api.c **** 		 * get this function will return with no access to device */
2027:Drivers/VL53L0X/API/vl53l0x_api.c **** 		VL53L0X_get_info_from_device(Dev, 4);
2028:Drivers/VL53L0X/API/vl53l0x_api.c **** 
2029:Drivers/VL53L0X/API/vl53l0x_api.c **** 		SignalRateRtnMegaCpsTemp = VL53L0X_GETDEVICESPECIFICPARAMETER(
2030:Drivers/VL53L0X/API/vl53l0x_api.c **** 			Dev, SignalRateMeasFixed400mm);
2031:Drivers/VL53L0X/API/vl53l0x_api.c **** 
2032:Drivers/VL53L0X/API/vl53l0x_api.c **** 		PALDevDataSet(Dev, DmaxCalRangeMilliMeter, 400);
2033:Drivers/VL53L0X/API/vl53l0x_api.c **** 		PALDevDataSet(Dev, DmaxCalSignalRateRtnMegaCps,
2034:Drivers/VL53L0X/API/vl53l0x_api.c **** 			SignalRateRtnMegaCpsTemp);
2035:Drivers/VL53L0X/API/vl53l0x_api.c **** 	} else {
2036:Drivers/VL53L0X/API/vl53l0x_api.c **** 		/* User parameters */
2037:Drivers/VL53L0X/API/vl53l0x_api.c **** 		PALDevDataSet(Dev, DmaxCalRangeMilliMeter, RangeMilliMeter);
 4000              		.loc 1 2037 0 is_stmt 1
ARM GAS  /tmp/ccq7BpOX.s 			page 109


 4001 0004 A0F85411 		strh	r1, [r0, #340]	@ movhi
2038:Drivers/VL53L0X/API/vl53l0x_api.c **** 		PALDevDataSet(Dev, DmaxCalSignalRateRtnMegaCps,
 4002              		.loc 1 2038 0
 4003 0008 C0F85821 		str	r2, [r0, #344]
2039:Drivers/VL53L0X/API/vl53l0x_api.c **** 			SignalRateRtnMegaCps);
2040:Drivers/VL53L0X/API/vl53l0x_api.c **** 	}
2041:Drivers/VL53L0X/API/vl53l0x_api.c **** 
2042:Drivers/VL53L0X/API/vl53l0x_api.c **** 	LOG_FUNCTION_END(Status);
2043:Drivers/VL53L0X/API/vl53l0x_api.c **** 	return Status;
2044:Drivers/VL53L0X/API/vl53l0x_api.c **** }
 4004              		.loc 1 2044 0
 4005 000c 0020     		movs	r0, #0
 4006              	.LVL525:
 4007 000e 7047     		bx	lr
 4008              	.LVL526:
 4009              	.L327:
2014:Drivers/VL53L0X/API/vl53l0x_api.c **** 	VL53L0X_Error Status = VL53L0X_ERROR_NONE;
 4010              		.loc 1 2014 0
 4011 0010 10B5     		push	{r4, lr}
 4012              	.LCFI97:
 4013              		.cfi_def_cfa_offset 8
 4014              		.cfi_offset 4, -8
 4015              		.cfi_offset 14, -4
 4016 0012 0446     		mov	r4, r0
2027:Drivers/VL53L0X/API/vl53l0x_api.c **** 
 4017              		.loc 1 2027 0
 4018 0014 0421     		movs	r1, #4
 4019              	.LVL527:
 4020 0016 FFF7FEFF 		bl	VL53L0X_get_info_from_device
 4021              	.LVL528:
2029:Drivers/VL53L0X/API/vl53l0x_api.c **** 			Dev, SignalRateMeasFixed400mm);
 4022              		.loc 1 2029 0
 4023 001a D4F82031 		ldr	r3, [r4, #288]
 4024              	.LVL529:
2032:Drivers/VL53L0X/API/vl53l0x_api.c **** 		PALDevDataSet(Dev, DmaxCalSignalRateRtnMegaCps,
 4025              		.loc 1 2032 0
 4026 001e 4FF4C872 		mov	r2, #400
 4027 0022 A4F85421 		strh	r2, [r4, #340]	@ movhi
2033:Drivers/VL53L0X/API/vl53l0x_api.c **** 			SignalRateRtnMegaCpsTemp);
 4028              		.loc 1 2033 0
 4029 0026 C4F85831 		str	r3, [r4, #344]
 4030              		.loc 1 2044 0
 4031 002a 0020     		movs	r0, #0
 4032 002c 10BD     		pop	{r4, pc}
 4033              		.cfi_endproc
 4034              	.LFE190:
 4036              		.section	.text.VL53L0X_GetDmaxCalParameters,"ax",%progbits
 4037              		.align	1
 4038              		.global	VL53L0X_GetDmaxCalParameters
 4039              		.syntax unified
 4040              		.thumb
 4041              		.thumb_func
 4042              		.fpu fpv4-sp-d16
 4044              	VL53L0X_GetDmaxCalParameters:
 4045              	.LFB191:
2045:Drivers/VL53L0X/API/vl53l0x_api.c **** 
2046:Drivers/VL53L0X/API/vl53l0x_api.c **** VL53L0X_Error VL53L0X_GetDmaxCalParameters(VL53L0X_DEV Dev,
ARM GAS  /tmp/ccq7BpOX.s 			page 110


2047:Drivers/VL53L0X/API/vl53l0x_api.c **** 	uint16_t *pRangeMilliMeter, FixPoint1616_t *pSignalRateRtnMegaCps)
2048:Drivers/VL53L0X/API/vl53l0x_api.c **** {
 4046              		.loc 1 2048 0
 4047              		.cfi_startproc
 4048              		@ args = 0, pretend = 0, frame = 0
 4049              		@ frame_needed = 0, uses_anonymous_args = 0
 4050              		@ link register save eliminated.
 4051              	.LVL530:
2049:Drivers/VL53L0X/API/vl53l0x_api.c **** 	VL53L0X_Error Status = VL53L0X_ERROR_NONE;
2050:Drivers/VL53L0X/API/vl53l0x_api.c **** 
2051:Drivers/VL53L0X/API/vl53l0x_api.c **** 	LOG_FUNCTION_START("");
2052:Drivers/VL53L0X/API/vl53l0x_api.c **** 
2053:Drivers/VL53L0X/API/vl53l0x_api.c **** 	*pRangeMilliMeter = PALDevDataGet(Dev, DmaxCalRangeMilliMeter);
 4052              		.loc 1 2053 0
 4053 0000 B0F85431 		ldrh	r3, [r0, #340]
 4054 0004 0B80     		strh	r3, [r1]	@ movhi
2054:Drivers/VL53L0X/API/vl53l0x_api.c **** 	*pSignalRateRtnMegaCps = PALDevDataGet(Dev,
 4055              		.loc 1 2054 0
 4056 0006 D0F85831 		ldr	r3, [r0, #344]
 4057 000a 1360     		str	r3, [r2]
2055:Drivers/VL53L0X/API/vl53l0x_api.c **** 		DmaxCalSignalRateRtnMegaCps);
2056:Drivers/VL53L0X/API/vl53l0x_api.c **** 
2057:Drivers/VL53L0X/API/vl53l0x_api.c **** 	LOG_FUNCTION_END(Status);
2058:Drivers/VL53L0X/API/vl53l0x_api.c **** 	return Status;
2059:Drivers/VL53L0X/API/vl53l0x_api.c **** }
 4058              		.loc 1 2059 0
 4059 000c 0020     		movs	r0, #0
 4060              	.LVL531:
 4061 000e 7047     		bx	lr
 4062              		.cfi_endproc
 4063              	.LFE191:
 4065              		.section	.text.VL53L0X_PerformSingleHistogramMeasurement,"ax",%progbits
 4066              		.align	1
 4067              		.global	VL53L0X_PerformSingleHistogramMeasurement
 4068              		.syntax unified
 4069              		.thumb
 4070              		.thumb_func
 4071              		.fpu fpv4-sp-d16
 4073              	VL53L0X_PerformSingleHistogramMeasurement:
 4074              	.LFB193:
2060:Drivers/VL53L0X/API/vl53l0x_api.c **** 
2061:Drivers/VL53L0X/API/vl53l0x_api.c **** /* End Group PAL Parameters Functions */
2062:Drivers/VL53L0X/API/vl53l0x_api.c **** 
2063:Drivers/VL53L0X/API/vl53l0x_api.c **** /* Group PAL Measurement Functions */
2064:Drivers/VL53L0X/API/vl53l0x_api.c **** VL53L0X_Error VL53L0X_PerformSingleMeasurement(VL53L0X_DEV Dev)
2065:Drivers/VL53L0X/API/vl53l0x_api.c **** {
2066:Drivers/VL53L0X/API/vl53l0x_api.c **** 	VL53L0X_Error Status = VL53L0X_ERROR_NONE;
2067:Drivers/VL53L0X/API/vl53l0x_api.c **** 	VL53L0X_DeviceModes DeviceMode;
2068:Drivers/VL53L0X/API/vl53l0x_api.c **** 
2069:Drivers/VL53L0X/API/vl53l0x_api.c **** 	LOG_FUNCTION_START("");
2070:Drivers/VL53L0X/API/vl53l0x_api.c **** 
2071:Drivers/VL53L0X/API/vl53l0x_api.c **** 	/* Get Current DeviceMode */
2072:Drivers/VL53L0X/API/vl53l0x_api.c **** 	Status = VL53L0X_GetDeviceMode(Dev, &DeviceMode);
2073:Drivers/VL53L0X/API/vl53l0x_api.c **** 
2074:Drivers/VL53L0X/API/vl53l0x_api.c **** 	/* Start immediately to run a single ranging measurement in case of
2075:Drivers/VL53L0X/API/vl53l0x_api.c **** 	 * single ranging or single histogram */
2076:Drivers/VL53L0X/API/vl53l0x_api.c **** 	if (Status == VL53L0X_ERROR_NONE
ARM GAS  /tmp/ccq7BpOX.s 			page 111


2077:Drivers/VL53L0X/API/vl53l0x_api.c **** 		&& DeviceMode == VL53L0X_DEVICEMODE_SINGLE_RANGING)
2078:Drivers/VL53L0X/API/vl53l0x_api.c **** 		Status = VL53L0X_StartMeasurement(Dev);
2079:Drivers/VL53L0X/API/vl53l0x_api.c **** 
2080:Drivers/VL53L0X/API/vl53l0x_api.c **** 
2081:Drivers/VL53L0X/API/vl53l0x_api.c **** 	if (Status == VL53L0X_ERROR_NONE)
2082:Drivers/VL53L0X/API/vl53l0x_api.c **** 		Status = VL53L0X_measurement_poll_for_completion(Dev);
2083:Drivers/VL53L0X/API/vl53l0x_api.c **** 
2084:Drivers/VL53L0X/API/vl53l0x_api.c **** 
2085:Drivers/VL53L0X/API/vl53l0x_api.c **** 	/* Change PAL State in case of single ranging or single histogram */
2086:Drivers/VL53L0X/API/vl53l0x_api.c **** 	if (Status == VL53L0X_ERROR_NONE
2087:Drivers/VL53L0X/API/vl53l0x_api.c **** 		&& DeviceMode == VL53L0X_DEVICEMODE_SINGLE_RANGING)
2088:Drivers/VL53L0X/API/vl53l0x_api.c **** 		PALDevDataSet(Dev, PalState, VL53L0X_STATE_IDLE);
2089:Drivers/VL53L0X/API/vl53l0x_api.c **** 
2090:Drivers/VL53L0X/API/vl53l0x_api.c **** 
2091:Drivers/VL53L0X/API/vl53l0x_api.c **** 	LOG_FUNCTION_END(Status);
2092:Drivers/VL53L0X/API/vl53l0x_api.c **** 	return Status;
2093:Drivers/VL53L0X/API/vl53l0x_api.c **** }
2094:Drivers/VL53L0X/API/vl53l0x_api.c **** 
2095:Drivers/VL53L0X/API/vl53l0x_api.c **** VL53L0X_Error VL53L0X_PerformSingleHistogramMeasurement(VL53L0X_DEV Dev,
2096:Drivers/VL53L0X/API/vl53l0x_api.c **** 	VL53L0X_HistogramMeasurementData_t *pHistogramMeasurementData)
2097:Drivers/VL53L0X/API/vl53l0x_api.c **** {
 4075              		.loc 1 2097 0
 4076              		.cfi_startproc
 4077              		@ args = 0, pretend = 0, frame = 0
 4078              		@ frame_needed = 0, uses_anonymous_args = 0
 4079              		@ link register save eliminated.
 4080              	.LVL532:
2098:Drivers/VL53L0X/API/vl53l0x_api.c **** 	VL53L0X_Error Status = VL53L0X_ERROR_NOT_IMPLEMENTED;
2099:Drivers/VL53L0X/API/vl53l0x_api.c **** 	LOG_FUNCTION_START("");
2100:Drivers/VL53L0X/API/vl53l0x_api.c **** 
2101:Drivers/VL53L0X/API/vl53l0x_api.c **** 	/* not implemented on VL53L0X */
2102:Drivers/VL53L0X/API/vl53l0x_api.c **** 
2103:Drivers/VL53L0X/API/vl53l0x_api.c **** 	LOG_FUNCTION_END(Status);
2104:Drivers/VL53L0X/API/vl53l0x_api.c **** 	return Status;
2105:Drivers/VL53L0X/API/vl53l0x_api.c **** }
 4081              		.loc 1 2105 0
 4082 0000 6FF06200 		mvn	r0, #98
 4083              	.LVL533:
 4084 0004 7047     		bx	lr
 4085              		.cfi_endproc
 4086              	.LFE193:
 4088              		.section	.text.VL53L0X_PerformRefCalibration,"ax",%progbits
 4089              		.align	1
 4090              		.global	VL53L0X_PerformRefCalibration
 4091              		.syntax unified
 4092              		.thumb
 4093              		.thumb_func
 4094              		.fpu fpv4-sp-d16
 4096              	VL53L0X_PerformRefCalibration:
 4097              	.LFB194:
2106:Drivers/VL53L0X/API/vl53l0x_api.c **** 
2107:Drivers/VL53L0X/API/vl53l0x_api.c **** VL53L0X_Error VL53L0X_PerformRefCalibration(VL53L0X_DEV Dev, uint8_t *pVhvSettings,
2108:Drivers/VL53L0X/API/vl53l0x_api.c **** 	uint8_t *pPhaseCal)
2109:Drivers/VL53L0X/API/vl53l0x_api.c **** {
 4098              		.loc 1 2109 0
 4099              		.cfi_startproc
 4100              		@ args = 0, pretend = 0, frame = 0
ARM GAS  /tmp/ccq7BpOX.s 			page 112


 4101              		@ frame_needed = 0, uses_anonymous_args = 0
 4102              	.LVL534:
 4103 0000 08B5     		push	{r3, lr}
 4104              	.LCFI98:
 4105              		.cfi_def_cfa_offset 8
 4106              		.cfi_offset 3, -8
 4107              		.cfi_offset 14, -4
 4108              	.LVL535:
2110:Drivers/VL53L0X/API/vl53l0x_api.c **** 	VL53L0X_Error Status = VL53L0X_ERROR_NONE;
2111:Drivers/VL53L0X/API/vl53l0x_api.c **** 	LOG_FUNCTION_START("");
2112:Drivers/VL53L0X/API/vl53l0x_api.c **** 
2113:Drivers/VL53L0X/API/vl53l0x_api.c **** 	Status = VL53L0X_perform_ref_calibration(Dev, pVhvSettings,
 4109              		.loc 1 2113 0
 4110 0002 0123     		movs	r3, #1
 4111 0004 FFF7FEFF 		bl	VL53L0X_perform_ref_calibration
 4112              	.LVL536:
2114:Drivers/VL53L0X/API/vl53l0x_api.c **** 		pPhaseCal, 1);
2115:Drivers/VL53L0X/API/vl53l0x_api.c **** 
2116:Drivers/VL53L0X/API/vl53l0x_api.c **** 	LOG_FUNCTION_END(Status);
2117:Drivers/VL53L0X/API/vl53l0x_api.c **** 	return Status;
2118:Drivers/VL53L0X/API/vl53l0x_api.c **** }
 4113              		.loc 1 2118 0
 4114 0008 08BD     		pop	{r3, pc}
 4115              		.cfi_endproc
 4116              	.LFE194:
 4118              		.section	.text.VL53L0X_PerformXTalkMeasurement,"ax",%progbits
 4119              		.align	1
 4120              		.global	VL53L0X_PerformXTalkMeasurement
 4121              		.syntax unified
 4122              		.thumb
 4123              		.thumb_func
 4124              		.fpu fpv4-sp-d16
 4126              	VL53L0X_PerformXTalkMeasurement:
 4127              	.LFB195:
2119:Drivers/VL53L0X/API/vl53l0x_api.c **** 
2120:Drivers/VL53L0X/API/vl53l0x_api.c **** VL53L0X_Error VL53L0X_PerformXTalkMeasurement(VL53L0X_DEV Dev,
2121:Drivers/VL53L0X/API/vl53l0x_api.c **** 	uint32_t TimeoutMs, FixPoint1616_t *pXtalkPerSpad,
2122:Drivers/VL53L0X/API/vl53l0x_api.c **** 	uint8_t *pAmbientTooHigh)
2123:Drivers/VL53L0X/API/vl53l0x_api.c **** {
 4128              		.loc 1 2123 0
 4129              		.cfi_startproc
 4130              		@ args = 0, pretend = 0, frame = 0
 4131              		@ frame_needed = 0, uses_anonymous_args = 0
 4132              		@ link register save eliminated.
 4133              	.LVL537:
2124:Drivers/VL53L0X/API/vl53l0x_api.c **** 	VL53L0X_Error Status = VL53L0X_ERROR_NOT_IMPLEMENTED;
2125:Drivers/VL53L0X/API/vl53l0x_api.c **** 	LOG_FUNCTION_START("");
2126:Drivers/VL53L0X/API/vl53l0x_api.c **** 
2127:Drivers/VL53L0X/API/vl53l0x_api.c **** 	/* not implemented on VL53L0X */
2128:Drivers/VL53L0X/API/vl53l0x_api.c **** 
2129:Drivers/VL53L0X/API/vl53l0x_api.c **** 	LOG_FUNCTION_END(Status);
2130:Drivers/VL53L0X/API/vl53l0x_api.c **** 	return Status;
2131:Drivers/VL53L0X/API/vl53l0x_api.c **** }
 4134              		.loc 1 2131 0
 4135 0000 6FF06200 		mvn	r0, #98
 4136              	.LVL538:
 4137 0004 7047     		bx	lr
ARM GAS  /tmp/ccq7BpOX.s 			page 113


 4138              		.cfi_endproc
 4139              	.LFE195:
 4141              		.section	.text.VL53L0X_PerformXTalkCalibration,"ax",%progbits
 4142              		.align	1
 4143              		.global	VL53L0X_PerformXTalkCalibration
 4144              		.syntax unified
 4145              		.thumb
 4146              		.thumb_func
 4147              		.fpu fpv4-sp-d16
 4149              	VL53L0X_PerformXTalkCalibration:
 4150              	.LFB196:
2132:Drivers/VL53L0X/API/vl53l0x_api.c **** 
2133:Drivers/VL53L0X/API/vl53l0x_api.c **** VL53L0X_Error VL53L0X_PerformXTalkCalibration(VL53L0X_DEV Dev,
2134:Drivers/VL53L0X/API/vl53l0x_api.c **** 	FixPoint1616_t XTalkCalDistance,
2135:Drivers/VL53L0X/API/vl53l0x_api.c **** 	FixPoint1616_t *pXTalkCompensationRateMegaCps)
2136:Drivers/VL53L0X/API/vl53l0x_api.c **** {
 4151              		.loc 1 2136 0
 4152              		.cfi_startproc
 4153              		@ args = 0, pretend = 0, frame = 0
 4154              		@ frame_needed = 0, uses_anonymous_args = 0
 4155              	.LVL539:
 4156 0000 08B5     		push	{r3, lr}
 4157              	.LCFI99:
 4158              		.cfi_def_cfa_offset 8
 4159              		.cfi_offset 3, -8
 4160              		.cfi_offset 14, -4
 4161              	.LVL540:
2137:Drivers/VL53L0X/API/vl53l0x_api.c **** 	VL53L0X_Error Status = VL53L0X_ERROR_NONE;
2138:Drivers/VL53L0X/API/vl53l0x_api.c **** 	LOG_FUNCTION_START("");
2139:Drivers/VL53L0X/API/vl53l0x_api.c **** 
2140:Drivers/VL53L0X/API/vl53l0x_api.c **** 	Status = VL53L0X_perform_xtalk_calibration(Dev, XTalkCalDistance,
 4162              		.loc 1 2140 0
 4163 0002 FFF7FEFF 		bl	VL53L0X_perform_xtalk_calibration
 4164              	.LVL541:
2141:Drivers/VL53L0X/API/vl53l0x_api.c **** 		pXTalkCompensationRateMegaCps);
2142:Drivers/VL53L0X/API/vl53l0x_api.c **** 
2143:Drivers/VL53L0X/API/vl53l0x_api.c **** 	LOG_FUNCTION_END(Status);
2144:Drivers/VL53L0X/API/vl53l0x_api.c **** 	return Status;
2145:Drivers/VL53L0X/API/vl53l0x_api.c **** }
 4165              		.loc 1 2145 0
 4166 0006 08BD     		pop	{r3, pc}
 4167              		.cfi_endproc
 4168              	.LFE196:
 4170              		.section	.text.VL53L0X_PerformOffsetCalibration,"ax",%progbits
 4171              		.align	1
 4172              		.global	VL53L0X_PerformOffsetCalibration
 4173              		.syntax unified
 4174              		.thumb
 4175              		.thumb_func
 4176              		.fpu fpv4-sp-d16
 4178              	VL53L0X_PerformOffsetCalibration:
 4179              	.LFB197:
2146:Drivers/VL53L0X/API/vl53l0x_api.c **** 
2147:Drivers/VL53L0X/API/vl53l0x_api.c **** VL53L0X_Error VL53L0X_PerformOffsetCalibration(VL53L0X_DEV Dev,
2148:Drivers/VL53L0X/API/vl53l0x_api.c **** 	FixPoint1616_t CalDistanceMilliMeter, int32_t *pOffsetMicroMeter)
2149:Drivers/VL53L0X/API/vl53l0x_api.c **** {
 4180              		.loc 1 2149 0
ARM GAS  /tmp/ccq7BpOX.s 			page 114


 4181              		.cfi_startproc
 4182              		@ args = 0, pretend = 0, frame = 0
 4183              		@ frame_needed = 0, uses_anonymous_args = 0
 4184              	.LVL542:
 4185 0000 08B5     		push	{r3, lr}
 4186              	.LCFI100:
 4187              		.cfi_def_cfa_offset 8
 4188              		.cfi_offset 3, -8
 4189              		.cfi_offset 14, -4
 4190              	.LVL543:
2150:Drivers/VL53L0X/API/vl53l0x_api.c **** 	VL53L0X_Error Status = VL53L0X_ERROR_NONE;
2151:Drivers/VL53L0X/API/vl53l0x_api.c **** 	LOG_FUNCTION_START("");
2152:Drivers/VL53L0X/API/vl53l0x_api.c **** 
2153:Drivers/VL53L0X/API/vl53l0x_api.c **** 	Status = VL53L0X_perform_offset_calibration(Dev, CalDistanceMilliMeter,
 4191              		.loc 1 2153 0
 4192 0002 FFF7FEFF 		bl	VL53L0X_perform_offset_calibration
 4193              	.LVL544:
2154:Drivers/VL53L0X/API/vl53l0x_api.c **** 		pOffsetMicroMeter);
2155:Drivers/VL53L0X/API/vl53l0x_api.c **** 
2156:Drivers/VL53L0X/API/vl53l0x_api.c **** 	LOG_FUNCTION_END(Status);
2157:Drivers/VL53L0X/API/vl53l0x_api.c **** 	return Status;
2158:Drivers/VL53L0X/API/vl53l0x_api.c **** }
 4194              		.loc 1 2158 0
 4195 0006 08BD     		pop	{r3, pc}
 4196              		.cfi_endproc
 4197              	.LFE197:
 4199              		.section	.text.VL53L0X_WaitDeviceReadyForNewMeasurement,"ax",%progbits
 4200              		.align	1
 4201              		.global	VL53L0X_WaitDeviceReadyForNewMeasurement
 4202              		.syntax unified
 4203              		.thumb
 4204              		.thumb_func
 4205              		.fpu fpv4-sp-d16
 4207              	VL53L0X_WaitDeviceReadyForNewMeasurement:
 4208              	.LFB202:
2159:Drivers/VL53L0X/API/vl53l0x_api.c **** 
2160:Drivers/VL53L0X/API/vl53l0x_api.c **** VL53L0X_Error VL53L0X_CheckAndLoadInterruptSettings(VL53L0X_DEV Dev,
2161:Drivers/VL53L0X/API/vl53l0x_api.c **** 	uint8_t StartNotStopFlag)
2162:Drivers/VL53L0X/API/vl53l0x_api.c **** {
2163:Drivers/VL53L0X/API/vl53l0x_api.c **** 	uint8_t InterruptConfig;
2164:Drivers/VL53L0X/API/vl53l0x_api.c **** 	FixPoint1616_t ThresholdLow;
2165:Drivers/VL53L0X/API/vl53l0x_api.c **** 	FixPoint1616_t ThresholdHigh;
2166:Drivers/VL53L0X/API/vl53l0x_api.c **** 	VL53L0X_Error Status = VL53L0X_ERROR_NONE;
2167:Drivers/VL53L0X/API/vl53l0x_api.c **** 
2168:Drivers/VL53L0X/API/vl53l0x_api.c **** 	InterruptConfig = VL53L0X_GETDEVICESPECIFICPARAMETER(Dev,
2169:Drivers/VL53L0X/API/vl53l0x_api.c **** 		Pin0GpioFunctionality);
2170:Drivers/VL53L0X/API/vl53l0x_api.c **** 
2171:Drivers/VL53L0X/API/vl53l0x_api.c **** 	if ((InterruptConfig ==
2172:Drivers/VL53L0X/API/vl53l0x_api.c **** 		VL53L0X_GPIOFUNCTIONALITY_THRESHOLD_CROSSED_LOW) ||
2173:Drivers/VL53L0X/API/vl53l0x_api.c **** 		(InterruptConfig ==
2174:Drivers/VL53L0X/API/vl53l0x_api.c **** 		VL53L0X_GPIOFUNCTIONALITY_THRESHOLD_CROSSED_HIGH) ||
2175:Drivers/VL53L0X/API/vl53l0x_api.c **** 		(InterruptConfig ==
2176:Drivers/VL53L0X/API/vl53l0x_api.c **** 		VL53L0X_GPIOFUNCTIONALITY_THRESHOLD_CROSSED_OUT)) {
2177:Drivers/VL53L0X/API/vl53l0x_api.c **** 
2178:Drivers/VL53L0X/API/vl53l0x_api.c **** 		Status = VL53L0X_GetInterruptThresholds(Dev,
2179:Drivers/VL53L0X/API/vl53l0x_api.c **** 			VL53L0X_DEVICEMODE_CONTINUOUS_RANGING,
2180:Drivers/VL53L0X/API/vl53l0x_api.c **** 			&ThresholdLow, &ThresholdHigh);
ARM GAS  /tmp/ccq7BpOX.s 			page 115


2181:Drivers/VL53L0X/API/vl53l0x_api.c **** 
2182:Drivers/VL53L0X/API/vl53l0x_api.c **** 		if (((ThresholdLow > 255*65536) ||
2183:Drivers/VL53L0X/API/vl53l0x_api.c **** 			(ThresholdHigh > 255*65536)) &&
2184:Drivers/VL53L0X/API/vl53l0x_api.c **** 			(Status == VL53L0X_ERROR_NONE)) {
2185:Drivers/VL53L0X/API/vl53l0x_api.c **** 
2186:Drivers/VL53L0X/API/vl53l0x_api.c **** 			if (StartNotStopFlag != 0) {
2187:Drivers/VL53L0X/API/vl53l0x_api.c **** 				Status = VL53L0X_load_tuning_settings(Dev,
2188:Drivers/VL53L0X/API/vl53l0x_api.c **** 					InterruptThresholdSettings);
2189:Drivers/VL53L0X/API/vl53l0x_api.c **** 			} else {
2190:Drivers/VL53L0X/API/vl53l0x_api.c **** 				Status |= VL53L0X_WrByte(Dev, 0xFF, 0x04);
2191:Drivers/VL53L0X/API/vl53l0x_api.c **** 				Status |= VL53L0X_WrByte(Dev, 0x70, 0x00);
2192:Drivers/VL53L0X/API/vl53l0x_api.c **** 				Status |= VL53L0X_WrByte(Dev, 0xFF, 0x00);
2193:Drivers/VL53L0X/API/vl53l0x_api.c **** 				Status |= VL53L0X_WrByte(Dev, 0x80, 0x00);
2194:Drivers/VL53L0X/API/vl53l0x_api.c **** 			}
2195:Drivers/VL53L0X/API/vl53l0x_api.c **** 
2196:Drivers/VL53L0X/API/vl53l0x_api.c **** 		}
2197:Drivers/VL53L0X/API/vl53l0x_api.c **** 
2198:Drivers/VL53L0X/API/vl53l0x_api.c **** 
2199:Drivers/VL53L0X/API/vl53l0x_api.c **** 	}
2200:Drivers/VL53L0X/API/vl53l0x_api.c **** 
2201:Drivers/VL53L0X/API/vl53l0x_api.c **** 	return Status;
2202:Drivers/VL53L0X/API/vl53l0x_api.c **** 
2203:Drivers/VL53L0X/API/vl53l0x_api.c **** }
2204:Drivers/VL53L0X/API/vl53l0x_api.c **** 
2205:Drivers/VL53L0X/API/vl53l0x_api.c **** 
2206:Drivers/VL53L0X/API/vl53l0x_api.c **** VL53L0X_Error VL53L0X_StartMeasurement(VL53L0X_DEV Dev)
2207:Drivers/VL53L0X/API/vl53l0x_api.c **** {
2208:Drivers/VL53L0X/API/vl53l0x_api.c **** 	VL53L0X_Error Status = VL53L0X_ERROR_NONE;
2209:Drivers/VL53L0X/API/vl53l0x_api.c **** 	VL53L0X_DeviceModes DeviceMode;
2210:Drivers/VL53L0X/API/vl53l0x_api.c **** 	uint8_t Byte;
2211:Drivers/VL53L0X/API/vl53l0x_api.c **** 	uint8_t StartStopByte = VL53L0X_REG_SYSRANGE_MODE_START_STOP;
2212:Drivers/VL53L0X/API/vl53l0x_api.c **** 	uint32_t LoopNb;
2213:Drivers/VL53L0X/API/vl53l0x_api.c **** 	LOG_FUNCTION_START("");
2214:Drivers/VL53L0X/API/vl53l0x_api.c **** 
2215:Drivers/VL53L0X/API/vl53l0x_api.c **** 	/* Get Current DeviceMode */
2216:Drivers/VL53L0X/API/vl53l0x_api.c **** 	VL53L0X_GetDeviceMode(Dev, &DeviceMode);
2217:Drivers/VL53L0X/API/vl53l0x_api.c **** 
2218:Drivers/VL53L0X/API/vl53l0x_api.c **** 	Status = VL53L0X_WrByte(Dev, 0x80, 0x01);
2219:Drivers/VL53L0X/API/vl53l0x_api.c **** 	Status = VL53L0X_WrByte(Dev, 0xFF, 0x01);
2220:Drivers/VL53L0X/API/vl53l0x_api.c **** 	Status = VL53L0X_WrByte(Dev, 0x00, 0x00);
2221:Drivers/VL53L0X/API/vl53l0x_api.c **** 	Status = VL53L0X_WrByte(Dev, 0x91, PALDevDataGet(Dev, StopVariable));
2222:Drivers/VL53L0X/API/vl53l0x_api.c **** 	Status = VL53L0X_WrByte(Dev, 0x00, 0x01);
2223:Drivers/VL53L0X/API/vl53l0x_api.c **** 	Status = VL53L0X_WrByte(Dev, 0xFF, 0x00);
2224:Drivers/VL53L0X/API/vl53l0x_api.c **** 	Status = VL53L0X_WrByte(Dev, 0x80, 0x00);
2225:Drivers/VL53L0X/API/vl53l0x_api.c **** 
2226:Drivers/VL53L0X/API/vl53l0x_api.c **** 	switch (DeviceMode) {
2227:Drivers/VL53L0X/API/vl53l0x_api.c **** 	case VL53L0X_DEVICEMODE_SINGLE_RANGING:
2228:Drivers/VL53L0X/API/vl53l0x_api.c **** 		Status = VL53L0X_WrByte(Dev, VL53L0X_REG_SYSRANGE_START, 0x01);
2229:Drivers/VL53L0X/API/vl53l0x_api.c **** 
2230:Drivers/VL53L0X/API/vl53l0x_api.c **** 		Byte = StartStopByte;
2231:Drivers/VL53L0X/API/vl53l0x_api.c **** 		if (Status == VL53L0X_ERROR_NONE) {
2232:Drivers/VL53L0X/API/vl53l0x_api.c **** 			/* Wait until start bit has been cleared */
2233:Drivers/VL53L0X/API/vl53l0x_api.c **** 			LoopNb = 0;
2234:Drivers/VL53L0X/API/vl53l0x_api.c **** 			do {
2235:Drivers/VL53L0X/API/vl53l0x_api.c **** 				if (LoopNb > 0)
2236:Drivers/VL53L0X/API/vl53l0x_api.c **** 					Status = VL53L0X_RdByte(Dev,
2237:Drivers/VL53L0X/API/vl53l0x_api.c **** 					VL53L0X_REG_SYSRANGE_START, &Byte);
ARM GAS  /tmp/ccq7BpOX.s 			page 116


2238:Drivers/VL53L0X/API/vl53l0x_api.c **** 				LoopNb = LoopNb + 1;
2239:Drivers/VL53L0X/API/vl53l0x_api.c **** 			} while (((Byte & StartStopByte) == StartStopByte)
2240:Drivers/VL53L0X/API/vl53l0x_api.c **** 				&& (Status == VL53L0X_ERROR_NONE)
2241:Drivers/VL53L0X/API/vl53l0x_api.c **** 				&& (LoopNb < VL53L0X_DEFAULT_MAX_LOOP));
2242:Drivers/VL53L0X/API/vl53l0x_api.c **** 
2243:Drivers/VL53L0X/API/vl53l0x_api.c **** 			if (LoopNb >= VL53L0X_DEFAULT_MAX_LOOP)
2244:Drivers/VL53L0X/API/vl53l0x_api.c **** 				Status = VL53L0X_ERROR_TIME_OUT;
2245:Drivers/VL53L0X/API/vl53l0x_api.c **** 
2246:Drivers/VL53L0X/API/vl53l0x_api.c **** 		}
2247:Drivers/VL53L0X/API/vl53l0x_api.c **** 
2248:Drivers/VL53L0X/API/vl53l0x_api.c **** 		break;
2249:Drivers/VL53L0X/API/vl53l0x_api.c **** 	case VL53L0X_DEVICEMODE_CONTINUOUS_RANGING:
2250:Drivers/VL53L0X/API/vl53l0x_api.c **** 		/* Back-to-back mode */
2251:Drivers/VL53L0X/API/vl53l0x_api.c **** 
2252:Drivers/VL53L0X/API/vl53l0x_api.c **** 		/* Check if need to apply interrupt settings */
2253:Drivers/VL53L0X/API/vl53l0x_api.c **** 		if (Status == VL53L0X_ERROR_NONE)
2254:Drivers/VL53L0X/API/vl53l0x_api.c **** 			Status = VL53L0X_CheckAndLoadInterruptSettings(Dev, 1);
2255:Drivers/VL53L0X/API/vl53l0x_api.c **** 
2256:Drivers/VL53L0X/API/vl53l0x_api.c **** 		Status = VL53L0X_WrByte(Dev,
2257:Drivers/VL53L0X/API/vl53l0x_api.c **** 		VL53L0X_REG_SYSRANGE_START,
2258:Drivers/VL53L0X/API/vl53l0x_api.c **** 		VL53L0X_REG_SYSRANGE_MODE_BACKTOBACK);
2259:Drivers/VL53L0X/API/vl53l0x_api.c **** 		if (Status == VL53L0X_ERROR_NONE) {
2260:Drivers/VL53L0X/API/vl53l0x_api.c **** 			/* Set PAL State to Running */
2261:Drivers/VL53L0X/API/vl53l0x_api.c **** 			PALDevDataSet(Dev, PalState, VL53L0X_STATE_RUNNING);
2262:Drivers/VL53L0X/API/vl53l0x_api.c **** 		}
2263:Drivers/VL53L0X/API/vl53l0x_api.c **** 		break;
2264:Drivers/VL53L0X/API/vl53l0x_api.c **** 	case VL53L0X_DEVICEMODE_CONTINUOUS_TIMED_RANGING:
2265:Drivers/VL53L0X/API/vl53l0x_api.c **** 		/* Continuous mode */
2266:Drivers/VL53L0X/API/vl53l0x_api.c **** 		/* Check if need to apply interrupt settings */
2267:Drivers/VL53L0X/API/vl53l0x_api.c **** 		if (Status == VL53L0X_ERROR_NONE)
2268:Drivers/VL53L0X/API/vl53l0x_api.c **** 			Status = VL53L0X_CheckAndLoadInterruptSettings(Dev, 1);
2269:Drivers/VL53L0X/API/vl53l0x_api.c **** 
2270:Drivers/VL53L0X/API/vl53l0x_api.c **** 		Status = VL53L0X_WrByte(Dev,
2271:Drivers/VL53L0X/API/vl53l0x_api.c **** 		VL53L0X_REG_SYSRANGE_START,
2272:Drivers/VL53L0X/API/vl53l0x_api.c **** 		VL53L0X_REG_SYSRANGE_MODE_TIMED);
2273:Drivers/VL53L0X/API/vl53l0x_api.c **** 
2274:Drivers/VL53L0X/API/vl53l0x_api.c **** 		if (Status == VL53L0X_ERROR_NONE) {
2275:Drivers/VL53L0X/API/vl53l0x_api.c **** 			/* Set PAL State to Running */
2276:Drivers/VL53L0X/API/vl53l0x_api.c **** 			PALDevDataSet(Dev, PalState, VL53L0X_STATE_RUNNING);
2277:Drivers/VL53L0X/API/vl53l0x_api.c **** 		}
2278:Drivers/VL53L0X/API/vl53l0x_api.c **** 		break;
2279:Drivers/VL53L0X/API/vl53l0x_api.c **** 	default:
2280:Drivers/VL53L0X/API/vl53l0x_api.c **** 		/* Selected mode not supported */
2281:Drivers/VL53L0X/API/vl53l0x_api.c **** 		Status = VL53L0X_ERROR_MODE_NOT_SUPPORTED;
2282:Drivers/VL53L0X/API/vl53l0x_api.c **** 	}
2283:Drivers/VL53L0X/API/vl53l0x_api.c **** 
2284:Drivers/VL53L0X/API/vl53l0x_api.c **** 
2285:Drivers/VL53L0X/API/vl53l0x_api.c **** 	LOG_FUNCTION_END(Status);
2286:Drivers/VL53L0X/API/vl53l0x_api.c **** 	return Status;
2287:Drivers/VL53L0X/API/vl53l0x_api.c **** }
2288:Drivers/VL53L0X/API/vl53l0x_api.c **** 
2289:Drivers/VL53L0X/API/vl53l0x_api.c **** VL53L0X_Error VL53L0X_StopMeasurement(VL53L0X_DEV Dev)
2290:Drivers/VL53L0X/API/vl53l0x_api.c **** {
2291:Drivers/VL53L0X/API/vl53l0x_api.c **** 	VL53L0X_Error Status = VL53L0X_ERROR_NONE;
2292:Drivers/VL53L0X/API/vl53l0x_api.c **** 	LOG_FUNCTION_START("");
2293:Drivers/VL53L0X/API/vl53l0x_api.c **** 
2294:Drivers/VL53L0X/API/vl53l0x_api.c **** 	Status = VL53L0X_WrByte(Dev, VL53L0X_REG_SYSRANGE_START,
ARM GAS  /tmp/ccq7BpOX.s 			page 117


2295:Drivers/VL53L0X/API/vl53l0x_api.c **** 	VL53L0X_REG_SYSRANGE_MODE_SINGLESHOT);
2296:Drivers/VL53L0X/API/vl53l0x_api.c **** 
2297:Drivers/VL53L0X/API/vl53l0x_api.c **** 	Status = VL53L0X_WrByte(Dev, 0xFF, 0x01);
2298:Drivers/VL53L0X/API/vl53l0x_api.c **** 	Status = VL53L0X_WrByte(Dev, 0x00, 0x00);
2299:Drivers/VL53L0X/API/vl53l0x_api.c **** 	Status = VL53L0X_WrByte(Dev, 0x91, 0x00);
2300:Drivers/VL53L0X/API/vl53l0x_api.c **** 	Status = VL53L0X_WrByte(Dev, 0x00, 0x01);
2301:Drivers/VL53L0X/API/vl53l0x_api.c **** 	Status = VL53L0X_WrByte(Dev, 0xFF, 0x00);
2302:Drivers/VL53L0X/API/vl53l0x_api.c **** 
2303:Drivers/VL53L0X/API/vl53l0x_api.c **** 	if (Status == VL53L0X_ERROR_NONE) {
2304:Drivers/VL53L0X/API/vl53l0x_api.c **** 		/* Set PAL State to Idle */
2305:Drivers/VL53L0X/API/vl53l0x_api.c **** 		PALDevDataSet(Dev, PalState, VL53L0X_STATE_IDLE);
2306:Drivers/VL53L0X/API/vl53l0x_api.c **** 	}
2307:Drivers/VL53L0X/API/vl53l0x_api.c **** 
2308:Drivers/VL53L0X/API/vl53l0x_api.c **** 	/* Check if need to apply interrupt settings */
2309:Drivers/VL53L0X/API/vl53l0x_api.c **** 	if (Status == VL53L0X_ERROR_NONE)
2310:Drivers/VL53L0X/API/vl53l0x_api.c **** 		Status = VL53L0X_CheckAndLoadInterruptSettings(Dev, 0);
2311:Drivers/VL53L0X/API/vl53l0x_api.c **** 
2312:Drivers/VL53L0X/API/vl53l0x_api.c **** 	LOG_FUNCTION_END(Status);
2313:Drivers/VL53L0X/API/vl53l0x_api.c **** 	return Status;
2314:Drivers/VL53L0X/API/vl53l0x_api.c **** }
2315:Drivers/VL53L0X/API/vl53l0x_api.c **** 
2316:Drivers/VL53L0X/API/vl53l0x_api.c **** VL53L0X_Error VL53L0X_GetMeasurementDataReady(VL53L0X_DEV Dev,
2317:Drivers/VL53L0X/API/vl53l0x_api.c **** 	uint8_t *pMeasurementDataReady)
2318:Drivers/VL53L0X/API/vl53l0x_api.c **** {
2319:Drivers/VL53L0X/API/vl53l0x_api.c **** 	VL53L0X_Error Status = VL53L0X_ERROR_NONE;
2320:Drivers/VL53L0X/API/vl53l0x_api.c **** 	uint8_t SysRangeStatusRegister;
2321:Drivers/VL53L0X/API/vl53l0x_api.c **** 	uint8_t InterruptConfig;
2322:Drivers/VL53L0X/API/vl53l0x_api.c **** 	uint32_t InterruptMask;
2323:Drivers/VL53L0X/API/vl53l0x_api.c **** 	LOG_FUNCTION_START("");
2324:Drivers/VL53L0X/API/vl53l0x_api.c **** 
2325:Drivers/VL53L0X/API/vl53l0x_api.c **** 	InterruptConfig = VL53L0X_GETDEVICESPECIFICPARAMETER(Dev,
2326:Drivers/VL53L0X/API/vl53l0x_api.c **** 		Pin0GpioFunctionality);
2327:Drivers/VL53L0X/API/vl53l0x_api.c **** 
2328:Drivers/VL53L0X/API/vl53l0x_api.c **** 	if (InterruptConfig ==
2329:Drivers/VL53L0X/API/vl53l0x_api.c **** 		VL53L0X_REG_SYSTEM_INTERRUPT_GPIO_NEW_SAMPLE_READY) {
2330:Drivers/VL53L0X/API/vl53l0x_api.c **** 		Status = VL53L0X_GetInterruptMaskStatus(Dev, &InterruptMask);
2331:Drivers/VL53L0X/API/vl53l0x_api.c **** 		if (InterruptMask ==
2332:Drivers/VL53L0X/API/vl53l0x_api.c **** 		VL53L0X_REG_SYSTEM_INTERRUPT_GPIO_NEW_SAMPLE_READY)
2333:Drivers/VL53L0X/API/vl53l0x_api.c **** 			*pMeasurementDataReady = 1;
2334:Drivers/VL53L0X/API/vl53l0x_api.c **** 		else
2335:Drivers/VL53L0X/API/vl53l0x_api.c **** 			*pMeasurementDataReady = 0;
2336:Drivers/VL53L0X/API/vl53l0x_api.c **** 	} else {
2337:Drivers/VL53L0X/API/vl53l0x_api.c **** 		Status = VL53L0X_RdByte(Dev, VL53L0X_REG_RESULT_RANGE_STATUS,
2338:Drivers/VL53L0X/API/vl53l0x_api.c **** 			&SysRangeStatusRegister);
2339:Drivers/VL53L0X/API/vl53l0x_api.c **** 		if (Status == VL53L0X_ERROR_NONE) {
2340:Drivers/VL53L0X/API/vl53l0x_api.c **** 			if (SysRangeStatusRegister & 0x01)
2341:Drivers/VL53L0X/API/vl53l0x_api.c **** 				*pMeasurementDataReady = 1;
2342:Drivers/VL53L0X/API/vl53l0x_api.c **** 			else
2343:Drivers/VL53L0X/API/vl53l0x_api.c **** 				*pMeasurementDataReady = 0;
2344:Drivers/VL53L0X/API/vl53l0x_api.c **** 		}
2345:Drivers/VL53L0X/API/vl53l0x_api.c **** 	}
2346:Drivers/VL53L0X/API/vl53l0x_api.c **** 
2347:Drivers/VL53L0X/API/vl53l0x_api.c **** 	LOG_FUNCTION_END(Status);
2348:Drivers/VL53L0X/API/vl53l0x_api.c **** 	return Status;
2349:Drivers/VL53L0X/API/vl53l0x_api.c **** }
2350:Drivers/VL53L0X/API/vl53l0x_api.c **** 
2351:Drivers/VL53L0X/API/vl53l0x_api.c **** VL53L0X_Error VL53L0X_WaitDeviceReadyForNewMeasurement(VL53L0X_DEV Dev,
ARM GAS  /tmp/ccq7BpOX.s 			page 118


2352:Drivers/VL53L0X/API/vl53l0x_api.c **** 	uint32_t MaxLoop)
2353:Drivers/VL53L0X/API/vl53l0x_api.c **** {
 4209              		.loc 1 2353 0
 4210              		.cfi_startproc
 4211              		@ args = 0, pretend = 0, frame = 0
 4212              		@ frame_needed = 0, uses_anonymous_args = 0
 4213              		@ link register save eliminated.
 4214              	.LVL545:
2354:Drivers/VL53L0X/API/vl53l0x_api.c **** 	VL53L0X_Error Status = VL53L0X_ERROR_NOT_IMPLEMENTED;
2355:Drivers/VL53L0X/API/vl53l0x_api.c **** 	LOG_FUNCTION_START("");
2356:Drivers/VL53L0X/API/vl53l0x_api.c **** 
2357:Drivers/VL53L0X/API/vl53l0x_api.c **** 	/* not implemented for VL53L0X */
2358:Drivers/VL53L0X/API/vl53l0x_api.c **** 
2359:Drivers/VL53L0X/API/vl53l0x_api.c **** 	LOG_FUNCTION_END(Status);
2360:Drivers/VL53L0X/API/vl53l0x_api.c **** 	return Status;
2361:Drivers/VL53L0X/API/vl53l0x_api.c **** }
 4215              		.loc 1 2361 0
 4216 0000 6FF06200 		mvn	r0, #98
 4217              	.LVL546:
 4218 0004 7047     		bx	lr
 4219              		.cfi_endproc
 4220              	.LFE202:
 4222              		.section	.text.VL53L0X_GetRangingMeasurementData,"ax",%progbits
 4223              		.align	1
 4224              		.global	VL53L0X_GetRangingMeasurementData
 4225              		.syntax unified
 4226              		.thumb
 4227              		.thumb_func
 4228              		.fpu fpv4-sp-d16
 4230              	VL53L0X_GetRangingMeasurementData:
 4231              	.LFB203:
2362:Drivers/VL53L0X/API/vl53l0x_api.c **** 
2363:Drivers/VL53L0X/API/vl53l0x_api.c **** 
2364:Drivers/VL53L0X/API/vl53l0x_api.c **** VL53L0X_Error VL53L0X_GetRangingMeasurementData(VL53L0X_DEV Dev,
2365:Drivers/VL53L0X/API/vl53l0x_api.c **** 	VL53L0X_RangingMeasurementData_t *pRangingMeasurementData)
2366:Drivers/VL53L0X/API/vl53l0x_api.c **** {
 4232              		.loc 1 2366 0
 4233              		.cfi_startproc
 4234              		@ args = 0, pretend = 0, frame = 48
 4235              		@ frame_needed = 0, uses_anonymous_args = 0
 4236              	.LVL547:
 4237 0000 2DE9F041 		push	{r4, r5, r6, r7, r8, lr}
 4238              	.LCFI101:
 4239              		.cfi_def_cfa_offset 24
 4240              		.cfi_offset 4, -24
 4241              		.cfi_offset 5, -20
 4242              		.cfi_offset 6, -16
 4243              		.cfi_offset 7, -12
 4244              		.cfi_offset 8, -8
 4245              		.cfi_offset 14, -4
 4246 0004 8EB0     		sub	sp, sp, #56
 4247              	.LCFI102:
 4248              		.cfi_def_cfa_offset 80
 4249 0006 0546     		mov	r5, r0
 4250 0008 0C46     		mov	r4, r1
 4251              	.LVL548:
2367:Drivers/VL53L0X/API/vl53l0x_api.c **** 	VL53L0X_Error Status = VL53L0X_ERROR_NONE;
ARM GAS  /tmp/ccq7BpOX.s 			page 119


2368:Drivers/VL53L0X/API/vl53l0x_api.c **** 	uint8_t DeviceRangeStatus;
2369:Drivers/VL53L0X/API/vl53l0x_api.c **** 	uint8_t RangeFractionalEnable;
2370:Drivers/VL53L0X/API/vl53l0x_api.c **** 	uint8_t PalRangeStatus;
2371:Drivers/VL53L0X/API/vl53l0x_api.c **** 	uint8_t XTalkCompensationEnable;
2372:Drivers/VL53L0X/API/vl53l0x_api.c **** 	uint16_t AmbientRate;
2373:Drivers/VL53L0X/API/vl53l0x_api.c **** 	FixPoint1616_t SignalRate;
2374:Drivers/VL53L0X/API/vl53l0x_api.c **** 	uint16_t XTalkCompensationRateMegaCps;
2375:Drivers/VL53L0X/API/vl53l0x_api.c **** 	uint16_t EffectiveSpadRtnCount;
2376:Drivers/VL53L0X/API/vl53l0x_api.c **** 	uint16_t tmpuint16;
2377:Drivers/VL53L0X/API/vl53l0x_api.c **** 	uint16_t XtalkRangeMilliMeter;
2378:Drivers/VL53L0X/API/vl53l0x_api.c **** 	uint16_t LinearityCorrectiveGain;
2379:Drivers/VL53L0X/API/vl53l0x_api.c **** 	uint8_t localBuffer[12];
2380:Drivers/VL53L0X/API/vl53l0x_api.c **** 	VL53L0X_RangingMeasurementData_t LastRangeDataBuffer;
2381:Drivers/VL53L0X/API/vl53l0x_api.c **** 
2382:Drivers/VL53L0X/API/vl53l0x_api.c **** 	LOG_FUNCTION_START("");
2383:Drivers/VL53L0X/API/vl53l0x_api.c **** 
2384:Drivers/VL53L0X/API/vl53l0x_api.c **** 	/*
2385:Drivers/VL53L0X/API/vl53l0x_api.c **** 	 * use multi read even if some registers are not useful, result will
2386:Drivers/VL53L0X/API/vl53l0x_api.c **** 	 * be more efficient
2387:Drivers/VL53L0X/API/vl53l0x_api.c **** 	 * start reading at 0x14 dec20
2388:Drivers/VL53L0X/API/vl53l0x_api.c **** 	 * end reading at 0x21 dec33 total 14 bytes to read
2389:Drivers/VL53L0X/API/vl53l0x_api.c **** 	 */
2390:Drivers/VL53L0X/API/vl53l0x_api.c **** 	Status = VL53L0X_ReadMulti(Dev, 0x14, localBuffer, 12);
 4252              		.loc 1 2390 0
 4253 000a 0C23     		movs	r3, #12
 4254 000c 0AAA     		add	r2, sp, #40
 4255 000e 1421     		movs	r1, #20
 4256              	.LVL549:
 4257 0010 FFF7FEFF 		bl	VL53L0X_ReadMulti
 4258              	.LVL550:
2391:Drivers/VL53L0X/API/vl53l0x_api.c **** 
2392:Drivers/VL53L0X/API/vl53l0x_api.c **** 	if (Status == VL53L0X_ERROR_NONE) {
 4259              		.loc 1 2392 0
 4260 0014 0646     		mov	r6, r0
 4261 0016 0028     		cmp	r0, #0
 4262 0018 64D1     		bne	.L344
2393:Drivers/VL53L0X/API/vl53l0x_api.c **** 
2394:Drivers/VL53L0X/API/vl53l0x_api.c **** 		pRangingMeasurementData->ZoneId = 0; /* Only one zone */
 4263              		.loc 1 2394 0
 4264 001a 0023     		movs	r3, #0
 4265 001c A375     		strb	r3, [r4, #22]
2395:Drivers/VL53L0X/API/vl53l0x_api.c **** 		pRangingMeasurementData->TimeStamp = 0; /* Not Implemented */
 4266              		.loc 1 2395 0
 4267 001e 2360     		str	r3, [r4]
2396:Drivers/VL53L0X/API/vl53l0x_api.c **** 
2397:Drivers/VL53L0X/API/vl53l0x_api.c **** 		tmpuint16 = VL53L0X_MAKEUINT16(localBuffer[11], localBuffer[10]);
 4268              		.loc 1 2397 0
 4269 0020 9DF83220 		ldrb	r2, [sp, #50]	@ zero_extendqisi2
 4270 0024 9DF83300 		ldrb	r0, [sp, #51]	@ zero_extendqisi2
 4271              	.LVL551:
 4272 0028 00EB0220 		add	r0, r0, r2, lsl #8
 4273 002c 80B2     		uxth	r0, r0
 4274              	.LVL552:
2398:Drivers/VL53L0X/API/vl53l0x_api.c **** 		/* cut1.1 if SYSTEM__RANGE_CONFIG if 1 range is 2bits fractional
2399:Drivers/VL53L0X/API/vl53l0x_api.c **** 		 *(format 11.2) else no fractional
2400:Drivers/VL53L0X/API/vl53l0x_api.c **** 		 */
2401:Drivers/VL53L0X/API/vl53l0x_api.c **** 
ARM GAS  /tmp/ccq7BpOX.s 			page 120


2402:Drivers/VL53L0X/API/vl53l0x_api.c **** 		pRangingMeasurementData->MeasurementTimeUsec = 0;
 4275              		.loc 1 2402 0
 4276 002e 6360     		str	r3, [r4, #4]
2403:Drivers/VL53L0X/API/vl53l0x_api.c **** 
2404:Drivers/VL53L0X/API/vl53l0x_api.c **** 		SignalRate = VL53L0X_FIXPOINT97TOFIXPOINT1616(
 4277              		.loc 1 2404 0
 4278 0030 9DF82E30 		ldrb	r3, [sp, #46]	@ zero_extendqisi2
 4279 0034 9DF82F20 		ldrb	r2, [sp, #47]	@ zero_extendqisi2
 4280 0038 02EB0322 		add	r2, r2, r3, lsl #8
 4281 003c 92B2     		uxth	r2, r2
 4282 003e 5202     		lsls	r2, r2, #9
 4283              	.LVL553:
2405:Drivers/VL53L0X/API/vl53l0x_api.c **** 			VL53L0X_MAKEUINT16(localBuffer[7], localBuffer[6]));
2406:Drivers/VL53L0X/API/vl53l0x_api.c **** 		/* peak_signal_count_rate_rtn_mcps */
2407:Drivers/VL53L0X/API/vl53l0x_api.c **** 		pRangingMeasurementData->SignalRateRtnMegaCps = SignalRate;
 4284              		.loc 1 2407 0
 4285 0040 E260     		str	r2, [r4, #12]
2408:Drivers/VL53L0X/API/vl53l0x_api.c **** 
2409:Drivers/VL53L0X/API/vl53l0x_api.c **** 		AmbientRate = VL53L0X_MAKEUINT16(localBuffer[9], localBuffer[8]);
 4286              		.loc 1 2409 0
 4287 0042 9DF83010 		ldrb	r1, [sp, #48]	@ zero_extendqisi2
 4288 0046 9DF83130 		ldrb	r3, [sp, #49]	@ zero_extendqisi2
 4289 004a 03EB0123 		add	r3, r3, r1, lsl #8
 4290 004e 9BB2     		uxth	r3, r3
 4291              	.LVL554:
2410:Drivers/VL53L0X/API/vl53l0x_api.c **** 		pRangingMeasurementData->AmbientRateRtnMegaCps =
2411:Drivers/VL53L0X/API/vl53l0x_api.c **** 			VL53L0X_FIXPOINT97TOFIXPOINT1616(AmbientRate);
 4292              		.loc 1 2411 0
 4293 0050 5B02     		lsls	r3, r3, #9
 4294              	.LVL555:
2410:Drivers/VL53L0X/API/vl53l0x_api.c **** 		pRangingMeasurementData->AmbientRateRtnMegaCps =
 4295              		.loc 1 2410 0
 4296 0052 2361     		str	r3, [r4, #16]
 4297              	.LVL556:
2412:Drivers/VL53L0X/API/vl53l0x_api.c **** 
2413:Drivers/VL53L0X/API/vl53l0x_api.c **** 		EffectiveSpadRtnCount = VL53L0X_MAKEUINT16(localBuffer[3],
 4298              		.loc 1 2413 0
 4299 0054 9DF82A10 		ldrb	r1, [sp, #42]	@ zero_extendqisi2
 4300 0058 9DF82B30 		ldrb	r3, [sp, #43]	@ zero_extendqisi2
 4301 005c 03EB0123 		add	r3, r3, r1, lsl #8
 4302 0060 9BB2     		uxth	r3, r3
 4303              	.LVL557:
2414:Drivers/VL53L0X/API/vl53l0x_api.c **** 			localBuffer[2]);
2415:Drivers/VL53L0X/API/vl53l0x_api.c **** 		/* EffectiveSpadRtnCount is 8.8 format */
2416:Drivers/VL53L0X/API/vl53l0x_api.c **** 		pRangingMeasurementData->EffectiveSpadRtnCount =
 4304              		.loc 1 2416 0
 4305 0062 A382     		strh	r3, [r4, #20]	@ movhi
2417:Drivers/VL53L0X/API/vl53l0x_api.c **** 			EffectiveSpadRtnCount;
2418:Drivers/VL53L0X/API/vl53l0x_api.c **** 
2419:Drivers/VL53L0X/API/vl53l0x_api.c **** 		DeviceRangeStatus = localBuffer[0];
 4306              		.loc 1 2419 0
 4307 0064 9DF82810 		ldrb	r1, [sp, #40]	@ zero_extendqisi2
 4308              	.LVL558:
2420:Drivers/VL53L0X/API/vl53l0x_api.c **** 
2421:Drivers/VL53L0X/API/vl53l0x_api.c **** 		/* Get Linearity Corrective Gain */
2422:Drivers/VL53L0X/API/vl53l0x_api.c **** 		LinearityCorrectiveGain = PALDevDataGet(Dev,
 4309              		.loc 1 2422 0
ARM GAS  /tmp/ccq7BpOX.s 			page 121


 4310 0068 B5F85271 		ldrh	r7, [r5, #338]
 4311              	.LVL559:
2423:Drivers/VL53L0X/API/vl53l0x_api.c **** 			LinearityCorrectiveGain);
2424:Drivers/VL53L0X/API/vl53l0x_api.c **** 
2425:Drivers/VL53L0X/API/vl53l0x_api.c **** 		/* Get ranging configuration */
2426:Drivers/VL53L0X/API/vl53l0x_api.c **** 		RangeFractionalEnable = PALDevDataGet(Dev,
 4312              		.loc 1 2426 0
 4313 006c 95F831C1 		ldrb	ip, [r5, #305]	@ zero_extendqisi2
 4314              	.LVL560:
2427:Drivers/VL53L0X/API/vl53l0x_api.c **** 			RangeFractionalEnable);
2428:Drivers/VL53L0X/API/vl53l0x_api.c **** 
2429:Drivers/VL53L0X/API/vl53l0x_api.c **** 		if (LinearityCorrectiveGain != 1000) {
 4315              		.loc 1 2429 0
 4316 0070 B7F57A7F 		cmp	r7, #1000
 4317 0074 21D0     		beq	.L345
2430:Drivers/VL53L0X/API/vl53l0x_api.c **** 
2431:Drivers/VL53L0X/API/vl53l0x_api.c **** 			tmpuint16 = (uint16_t)((LinearityCorrectiveGain
2432:Drivers/VL53L0X/API/vl53l0x_api.c **** 				* tmpuint16 + 500) / 1000);
 4318              		.loc 1 2432 0
 4319 0076 00FB07F0 		mul	r0, r0, r7
 4320              	.LVL561:
 4321 007a 00F5FA70 		add	r0, r0, #500
 4322 007e 364F     		ldr	r7, .L353
 4323              	.LVL562:
 4324 0080 87FB00E7 		smull	lr, r7, r7, r0
 4325 0084 C017     		asrs	r0, r0, #31
 4326 0086 C0EBA717 		rsb	r7, r0, r7, asr #6
2431:Drivers/VL53L0X/API/vl53l0x_api.c **** 				* tmpuint16 + 500) / 1000);
 4327              		.loc 1 2431 0
 4328 008a B8B2     		uxth	r0, r7
 4329              	.LVL563:
2433:Drivers/VL53L0X/API/vl53l0x_api.c **** 
2434:Drivers/VL53L0X/API/vl53l0x_api.c **** 			/* Implement Xtalk */
2435:Drivers/VL53L0X/API/vl53l0x_api.c **** 			VL53L0X_GETPARAMETERFIELD(Dev,
 4330              		.loc 1 2435 0
 4331 008c D5F820E0 		ldr	lr, [r5, #32]
 4332              	.LVL564:
2436:Drivers/VL53L0X/API/vl53l0x_api.c **** 				XTalkCompensationRateMegaCps,
2437:Drivers/VL53L0X/API/vl53l0x_api.c **** 				XTalkCompensationRateMegaCps);
2438:Drivers/VL53L0X/API/vl53l0x_api.c **** 			VL53L0X_GETPARAMETERFIELD(Dev, XTalkCompensationEnable,
 4333              		.loc 1 2438 0
 4334 0090 95F81C80 		ldrb	r8, [r5, #28]	@ zero_extendqisi2
 4335              	.LVL565:
2439:Drivers/VL53L0X/API/vl53l0x_api.c **** 				XTalkCompensationEnable);
2440:Drivers/VL53L0X/API/vl53l0x_api.c **** 
2441:Drivers/VL53L0X/API/vl53l0x_api.c **** 			if (XTalkCompensationEnable) {
 4336              		.loc 1 2441 0
 4337 0094 B8F1000F 		cmp	r8, #0
 4338 0098 0FD0     		beq	.L345
2442:Drivers/VL53L0X/API/vl53l0x_api.c **** 
2443:Drivers/VL53L0X/API/vl53l0x_api.c **** 				if ((SignalRate
2444:Drivers/VL53L0X/API/vl53l0x_api.c **** 					- ((XTalkCompensationRateMegaCps
2445:Drivers/VL53L0X/API/vl53l0x_api.c **** 					* EffectiveSpadRtnCount) >> 8))
 4339              		.loc 1 2445 0
 4340 009a 1FFA8EFE 		uxth	lr, lr
 4341 009e 03FB0EFE 		mul	lr, r3, lr
 4342              	.LVL566:
ARM GAS  /tmp/ccq7BpOX.s 			page 122


 4343 00a2 4FEA2E2E 		asr	lr, lr, #8
2443:Drivers/VL53L0X/API/vl53l0x_api.c **** 					- ((XTalkCompensationRateMegaCps
 4344              		.loc 1 2443 0
 4345 00a6 7245     		cmp	r2, lr
 4346 00a8 49D0     		beq	.L352
2446:Drivers/VL53L0X/API/vl53l0x_api.c **** 					<= 0) {
2447:Drivers/VL53L0X/API/vl53l0x_api.c **** 					if (RangeFractionalEnable)
2448:Drivers/VL53L0X/API/vl53l0x_api.c **** 						XtalkRangeMilliMeter = 8888;
2449:Drivers/VL53L0X/API/vl53l0x_api.c **** 					else
2450:Drivers/VL53L0X/API/vl53l0x_api.c **** 						XtalkRangeMilliMeter = 8888
2451:Drivers/VL53L0X/API/vl53l0x_api.c **** 							<< 2;
2452:Drivers/VL53L0X/API/vl53l0x_api.c **** 				} else {
2453:Drivers/VL53L0X/API/vl53l0x_api.c **** 					XtalkRangeMilliMeter =
2454:Drivers/VL53L0X/API/vl53l0x_api.c **** 					(tmpuint16 * SignalRate)
 4347              		.loc 1 2454 0
 4348 00aa B8B2     		uxth	r0, r7
 4349 00ac 02FB00F0 		mul	r0, r2, r0
 4350              	.LVL567:
2455:Drivers/VL53L0X/API/vl53l0x_api.c **** 						/ (SignalRate
2456:Drivers/VL53L0X/API/vl53l0x_api.c **** 						- ((XTalkCompensationRateMegaCps
 4351              		.loc 1 2456 0
 4352 00b0 A2EB0E0E 		sub	lr, r2, lr
2455:Drivers/VL53L0X/API/vl53l0x_api.c **** 						/ (SignalRate
 4353              		.loc 1 2455 0
 4354 00b4 B0FBFEF0 		udiv	r0, r0, lr
2453:Drivers/VL53L0X/API/vl53l0x_api.c **** 					(tmpuint16 * SignalRate)
 4355              		.loc 1 2453 0
 4356 00b8 80B2     		uxth	r0, r0
 4357              	.LVL568:
 4358              	.L345:
2457:Drivers/VL53L0X/API/vl53l0x_api.c **** 						* EffectiveSpadRtnCount)
2458:Drivers/VL53L0X/API/vl53l0x_api.c **** 						>> 8));
2459:Drivers/VL53L0X/API/vl53l0x_api.c **** 				}
2460:Drivers/VL53L0X/API/vl53l0x_api.c **** 
2461:Drivers/VL53L0X/API/vl53l0x_api.c **** 				tmpuint16 = XtalkRangeMilliMeter;
2462:Drivers/VL53L0X/API/vl53l0x_api.c **** 			}
2463:Drivers/VL53L0X/API/vl53l0x_api.c **** 
2464:Drivers/VL53L0X/API/vl53l0x_api.c **** 		}
2465:Drivers/VL53L0X/API/vl53l0x_api.c **** 
2466:Drivers/VL53L0X/API/vl53l0x_api.c **** 		if (RangeFractionalEnable) {
 4359              		.loc 1 2466 0
 4360 00ba BCF1000F 		cmp	ip, #0
 4361 00be 47D0     		beq	.L347
2467:Drivers/VL53L0X/API/vl53l0x_api.c **** 			pRangingMeasurementData->RangeMilliMeter =
2468:Drivers/VL53L0X/API/vl53l0x_api.c **** 				(uint16_t)((tmpuint16) >> 2);
 4362              		.loc 1 2468 0
 4363 00c0 8708     		lsrs	r7, r0, #2
2467:Drivers/VL53L0X/API/vl53l0x_api.c **** 			pRangingMeasurementData->RangeMilliMeter =
 4364              		.loc 1 2467 0
 4365 00c2 2781     		strh	r7, [r4, #8]	@ movhi
 4366              	.LVL569:
2469:Drivers/VL53L0X/API/vl53l0x_api.c **** 			pRangingMeasurementData->RangeFractionalPart =
2470:Drivers/VL53L0X/API/vl53l0x_api.c **** 				(uint8_t)((tmpuint16 & 0x03) << 6);
 4367              		.loc 1 2470 0
 4368 00c4 C0B2     		uxtb	r0, r0
 4369              	.LVL570:
 4370 00c6 8001     		lsls	r0, r0, #6
ARM GAS  /tmp/ccq7BpOX.s 			page 123


2469:Drivers/VL53L0X/API/vl53l0x_api.c **** 			pRangingMeasurementData->RangeFractionalPart =
 4371              		.loc 1 2469 0
 4372 00c8 E075     		strb	r0, [r4, #23]
 4373              	.L348:
2471:Drivers/VL53L0X/API/vl53l0x_api.c **** 		} else {
2472:Drivers/VL53L0X/API/vl53l0x_api.c **** 			pRangingMeasurementData->RangeMilliMeter = tmpuint16;
2473:Drivers/VL53L0X/API/vl53l0x_api.c **** 			pRangingMeasurementData->RangeFractionalPart = 0;
2474:Drivers/VL53L0X/API/vl53l0x_api.c **** 		}
2475:Drivers/VL53L0X/API/vl53l0x_api.c **** 
2476:Drivers/VL53L0X/API/vl53l0x_api.c **** 		/*
2477:Drivers/VL53L0X/API/vl53l0x_api.c **** 		 * For a standard definition of RangeStatus, this should
2478:Drivers/VL53L0X/API/vl53l0x_api.c **** 		 * return 0 in case of good result after a ranging
2479:Drivers/VL53L0X/API/vl53l0x_api.c **** 		 * The range status depends on the device so call a device
2480:Drivers/VL53L0X/API/vl53l0x_api.c **** 		 * specific function to obtain the right Status.
2481:Drivers/VL53L0X/API/vl53l0x_api.c **** 		 */
2482:Drivers/VL53L0X/API/vl53l0x_api.c **** 		Status |= VL53L0X_get_pal_range_status(Dev, DeviceRangeStatus,
 4374              		.loc 1 2482 0
 4375 00ca 0DF13700 		add	r0, sp, #55
 4376 00ce 0190     		str	r0, [sp, #4]
 4377 00d0 0094     		str	r4, [sp]
 4378 00d2 2846     		mov	r0, r5
 4379 00d4 FFF7FEFF 		bl	VL53L0X_get_pal_range_status
 4380              	.LVL571:
 4381 00d8 0643     		orrs	r6, r6, r0
 4382 00da 76B2     		sxtb	r6, r6
 4383              	.LVL572:
2483:Drivers/VL53L0X/API/vl53l0x_api.c **** 			SignalRate, EffectiveSpadRtnCount,
2484:Drivers/VL53L0X/API/vl53l0x_api.c **** 			pRangingMeasurementData, &PalRangeStatus);
2485:Drivers/VL53L0X/API/vl53l0x_api.c **** 
2486:Drivers/VL53L0X/API/vl53l0x_api.c **** 		if (Status == VL53L0X_ERROR_NONE)
 4384              		.loc 1 2486 0
 4385 00dc 16B9     		cbnz	r6, .L344
2487:Drivers/VL53L0X/API/vl53l0x_api.c **** 			pRangingMeasurementData->RangeStatus = PalRangeStatus;
 4386              		.loc 1 2487 0
 4387 00de 9DF83730 		ldrb	r3, [sp, #55]	@ zero_extendqisi2
 4388 00e2 2376     		strb	r3, [r4, #24]
 4389              	.LVL573:
 4390              	.L344:
2488:Drivers/VL53L0X/API/vl53l0x_api.c **** 
2489:Drivers/VL53L0X/API/vl53l0x_api.c **** 	}
2490:Drivers/VL53L0X/API/vl53l0x_api.c **** 
2491:Drivers/VL53L0X/API/vl53l0x_api.c **** 	if (Status == VL53L0X_ERROR_NONE) {
 4391              		.loc 1 2491 0
 4392 00e4 3EBB     		cbnz	r6, .L349
2492:Drivers/VL53L0X/API/vl53l0x_api.c **** 		/* Copy last read data into Dev buffer */
2493:Drivers/VL53L0X/API/vl53l0x_api.c **** 		LastRangeDataBuffer = PALDevDataGet(Dev, LastRangeMeasure);
 4393              		.loc 1 2493 0
 4394 00e6 03AF     		add	r7, sp, #12
 4395 00e8 05F1500C 		add	ip, r5, #80
 4396 00ec BCE80F00 		ldmia	ip!, {r0, r1, r2, r3}
 4397 00f0 0FC7     		stmia	r7!, {r0, r1, r2, r3}
 4398 00f2 9CE80700 		ldm	ip, {r0, r1, r2}
 4399 00f6 87E80700 		stm	r7, {r0, r1, r2}
2494:Drivers/VL53L0X/API/vl53l0x_api.c **** 
2495:Drivers/VL53L0X/API/vl53l0x_api.c **** 		LastRangeDataBuffer.RangeMilliMeter =
2496:Drivers/VL53L0X/API/vl53l0x_api.c **** 			pRangingMeasurementData->RangeMilliMeter;
 4400              		.loc 1 2496 0
ARM GAS  /tmp/ccq7BpOX.s 			page 124


 4401 00fa 2389     		ldrh	r3, [r4, #8]
2495:Drivers/VL53L0X/API/vl53l0x_api.c **** 			pRangingMeasurementData->RangeMilliMeter;
 4402              		.loc 1 2495 0
 4403 00fc ADF81430 		strh	r3, [sp, #20]	@ movhi
2497:Drivers/VL53L0X/API/vl53l0x_api.c **** 		LastRangeDataBuffer.RangeFractionalPart =
2498:Drivers/VL53L0X/API/vl53l0x_api.c **** 			pRangingMeasurementData->RangeFractionalPart;
 4404              		.loc 1 2498 0
 4405 0100 E37D     		ldrb	r3, [r4, #23]	@ zero_extendqisi2
2497:Drivers/VL53L0X/API/vl53l0x_api.c **** 		LastRangeDataBuffer.RangeFractionalPart =
 4406              		.loc 1 2497 0
 4407 0102 8DF82330 		strb	r3, [sp, #35]
2499:Drivers/VL53L0X/API/vl53l0x_api.c **** 		LastRangeDataBuffer.RangeDMaxMilliMeter =
2500:Drivers/VL53L0X/API/vl53l0x_api.c **** 			pRangingMeasurementData->RangeDMaxMilliMeter;
 4408              		.loc 1 2500 0
 4409 0106 6389     		ldrh	r3, [r4, #10]
2499:Drivers/VL53L0X/API/vl53l0x_api.c **** 		LastRangeDataBuffer.RangeDMaxMilliMeter =
 4410              		.loc 1 2499 0
 4411 0108 ADF81630 		strh	r3, [sp, #22]	@ movhi
2501:Drivers/VL53L0X/API/vl53l0x_api.c **** 		LastRangeDataBuffer.MeasurementTimeUsec =
2502:Drivers/VL53L0X/API/vl53l0x_api.c **** 			pRangingMeasurementData->MeasurementTimeUsec;
 4412              		.loc 1 2502 0
 4413 010c 6368     		ldr	r3, [r4, #4]
2501:Drivers/VL53L0X/API/vl53l0x_api.c **** 		LastRangeDataBuffer.MeasurementTimeUsec =
 4414              		.loc 1 2501 0
 4415 010e 0493     		str	r3, [sp, #16]
2503:Drivers/VL53L0X/API/vl53l0x_api.c **** 		LastRangeDataBuffer.SignalRateRtnMegaCps =
2504:Drivers/VL53L0X/API/vl53l0x_api.c **** 			pRangingMeasurementData->SignalRateRtnMegaCps;
 4416              		.loc 1 2504 0
 4417 0110 E368     		ldr	r3, [r4, #12]
2503:Drivers/VL53L0X/API/vl53l0x_api.c **** 		LastRangeDataBuffer.SignalRateRtnMegaCps =
 4418              		.loc 1 2503 0
 4419 0112 0693     		str	r3, [sp, #24]
2505:Drivers/VL53L0X/API/vl53l0x_api.c **** 		LastRangeDataBuffer.AmbientRateRtnMegaCps =
2506:Drivers/VL53L0X/API/vl53l0x_api.c **** 			pRangingMeasurementData->AmbientRateRtnMegaCps;
 4420              		.loc 1 2506 0
 4421 0114 2369     		ldr	r3, [r4, #16]
2505:Drivers/VL53L0X/API/vl53l0x_api.c **** 		LastRangeDataBuffer.AmbientRateRtnMegaCps =
 4422              		.loc 1 2505 0
 4423 0116 0793     		str	r3, [sp, #28]
2507:Drivers/VL53L0X/API/vl53l0x_api.c **** 		LastRangeDataBuffer.EffectiveSpadRtnCount =
2508:Drivers/VL53L0X/API/vl53l0x_api.c **** 			pRangingMeasurementData->EffectiveSpadRtnCount;
 4424              		.loc 1 2508 0
 4425 0118 A38A     		ldrh	r3, [r4, #20]
2507:Drivers/VL53L0X/API/vl53l0x_api.c **** 		LastRangeDataBuffer.EffectiveSpadRtnCount =
 4426              		.loc 1 2507 0
 4427 011a ADF82030 		strh	r3, [sp, #32]	@ movhi
2509:Drivers/VL53L0X/API/vl53l0x_api.c **** 		LastRangeDataBuffer.RangeStatus =
2510:Drivers/VL53L0X/API/vl53l0x_api.c **** 			pRangingMeasurementData->RangeStatus;
 4428              		.loc 1 2510 0
 4429 011e 237E     		ldrb	r3, [r4, #24]	@ zero_extendqisi2
2509:Drivers/VL53L0X/API/vl53l0x_api.c **** 		LastRangeDataBuffer.RangeStatus =
 4430              		.loc 1 2509 0
 4431 0120 8DF82430 		strb	r3, [sp, #36]
2511:Drivers/VL53L0X/API/vl53l0x_api.c **** 
2512:Drivers/VL53L0X/API/vl53l0x_api.c **** 		PALDevDataSet(Dev, LastRangeMeasure, LastRangeDataBuffer);
 4432              		.loc 1 2512 0
 4433 0124 05F15004 		add	r4, r5, #80
ARM GAS  /tmp/ccq7BpOX.s 			page 125


 4434              	.LVL574:
 4435 0128 03AD     		add	r5, sp, #12
 4436              	.LVL575:
 4437 012a 0FCD     		ldmia	r5!, {r0, r1, r2, r3}
 4438 012c 0FC4     		stmia	r4!, {r0, r1, r2, r3}
 4439              	.LVL576:
 4440 012e 95E80700 		ldm	r5, {r0, r1, r2}
 4441 0132 84E80700 		stm	r4, {r0, r1, r2}
 4442              	.LVL577:
 4443              	.L349:
2513:Drivers/VL53L0X/API/vl53l0x_api.c **** 	}
2514:Drivers/VL53L0X/API/vl53l0x_api.c **** 
2515:Drivers/VL53L0X/API/vl53l0x_api.c **** 	LOG_FUNCTION_END(Status);
2516:Drivers/VL53L0X/API/vl53l0x_api.c **** 	return Status;
2517:Drivers/VL53L0X/API/vl53l0x_api.c **** }
 4444              		.loc 1 2517 0
 4445 0136 3046     		mov	r0, r6
 4446 0138 0EB0     		add	sp, sp, #56
 4447              	.LCFI103:
 4448              		.cfi_remember_state
 4449              		.cfi_def_cfa_offset 24
 4450              		@ sp needed
 4451 013a BDE8F081 		pop	{r4, r5, r6, r7, r8, pc}
 4452              	.LVL578:
 4453              	.L352:
 4454              	.LCFI104:
 4455              		.cfi_restore_state
2447:Drivers/VL53L0X/API/vl53l0x_api.c **** 						XtalkRangeMilliMeter = 8888;
 4456              		.loc 1 2447 0
 4457 013e BCF1000F 		cmp	ip, #0
 4458 0142 02D0     		beq	.L350
2448:Drivers/VL53L0X/API/vl53l0x_api.c **** 					else
 4459              		.loc 1 2448 0
 4460 0144 42F2B820 		movw	r0, #8888
 4461              	.LVL579:
 4462 0148 B7E7     		b	.L345
 4463              	.LVL580:
 4464              	.L350:
2450:Drivers/VL53L0X/API/vl53l0x_api.c **** 							<< 2;
 4465              		.loc 1 2450 0
 4466 014a 48F6E020 		movw	r0, #35552
 4467              	.LVL581:
 4468 014e B4E7     		b	.L345
 4469              	.LVL582:
 4470              	.L347:
2472:Drivers/VL53L0X/API/vl53l0x_api.c **** 			pRangingMeasurementData->RangeFractionalPart = 0;
 4471              		.loc 1 2472 0
 4472 0150 2081     		strh	r0, [r4, #8]	@ movhi
 4473              	.LVL583:
2473:Drivers/VL53L0X/API/vl53l0x_api.c **** 		}
 4474              		.loc 1 2473 0
 4475 0152 0020     		movs	r0, #0
 4476              	.LVL584:
 4477 0154 E075     		strb	r0, [r4, #23]
 4478 0156 B8E7     		b	.L348
 4479              	.L354:
 4480              		.align	2
ARM GAS  /tmp/ccq7BpOX.s 			page 126


 4481              	.L353:
 4482 0158 D34D6210 		.word	274877907
 4483              		.cfi_endproc
 4484              	.LFE203:
 4486              		.section	.text.VL53L0X_GetMeasurementRefSignal,"ax",%progbits
 4487              		.align	1
 4488              		.global	VL53L0X_GetMeasurementRefSignal
 4489              		.syntax unified
 4490              		.thumb
 4491              		.thumb_func
 4492              		.fpu fpv4-sp-d16
 4494              	VL53L0X_GetMeasurementRefSignal:
 4495              	.LFB204:
2518:Drivers/VL53L0X/API/vl53l0x_api.c **** 
2519:Drivers/VL53L0X/API/vl53l0x_api.c **** VL53L0X_Error VL53L0X_GetMeasurementRefSignal(VL53L0X_DEV Dev,
2520:Drivers/VL53L0X/API/vl53l0x_api.c **** 	FixPoint1616_t *pMeasurementRefSignal)
2521:Drivers/VL53L0X/API/vl53l0x_api.c **** {
 4496              		.loc 1 2521 0
 4497              		.cfi_startproc
 4498              		@ args = 0, pretend = 0, frame = 8
 4499              		@ frame_needed = 0, uses_anonymous_args = 0
 4500              	.LVL585:
 4501 0000 30B5     		push	{r4, r5, lr}
 4502              	.LCFI105:
 4503              		.cfi_def_cfa_offset 12
 4504              		.cfi_offset 4, -12
 4505              		.cfi_offset 5, -8
 4506              		.cfi_offset 14, -4
 4507 0002 83B0     		sub	sp, sp, #12
 4508              	.LCFI106:
 4509              		.cfi_def_cfa_offset 24
 4510 0004 0546     		mov	r5, r0
 4511 0006 0C46     		mov	r4, r1
 4512              	.LVL586:
2522:Drivers/VL53L0X/API/vl53l0x_api.c **** 	VL53L0X_Error Status = VL53L0X_ERROR_NONE;
2523:Drivers/VL53L0X/API/vl53l0x_api.c **** 	uint8_t SignalRefClipLimitCheckEnable = 0;
 4513              		.loc 1 2523 0
 4514 0008 02AA     		add	r2, sp, #8
 4515 000a 0023     		movs	r3, #0
 4516 000c 02F8013D 		strb	r3, [r2, #-1]!
2524:Drivers/VL53L0X/API/vl53l0x_api.c **** 	LOG_FUNCTION_START("");
2525:Drivers/VL53L0X/API/vl53l0x_api.c **** 
2526:Drivers/VL53L0X/API/vl53l0x_api.c **** 	Status = VL53L0X_GetLimitCheckEnable(Dev,
 4517              		.loc 1 2526 0
 4518 0010 0221     		movs	r1, #2
 4519              	.LVL587:
 4520 0012 FFF7FEFF 		bl	VL53L0X_GetLimitCheckEnable
 4521              	.LVL588:
2527:Drivers/VL53L0X/API/vl53l0x_api.c **** 			VL53L0X_CHECKENABLE_SIGNAL_REF_CLIP,
2528:Drivers/VL53L0X/API/vl53l0x_api.c **** 			&SignalRefClipLimitCheckEnable);
2529:Drivers/VL53L0X/API/vl53l0x_api.c **** 	if (SignalRefClipLimitCheckEnable != 0) {
 4522              		.loc 1 2529 0
 4523 0016 9DF80730 		ldrb	r3, [sp, #7]	@ zero_extendqisi2
 4524 001a 23B1     		cbz	r3, .L357
2530:Drivers/VL53L0X/API/vl53l0x_api.c **** 		*pMeasurementRefSignal = PALDevDataGet(Dev, LastSignalRefMcps);
 4525              		.loc 1 2530 0
 4526 001c D5F84831 		ldr	r3, [r5, #328]
ARM GAS  /tmp/ccq7BpOX.s 			page 127


 4527 0020 2360     		str	r3, [r4]
 4528              	.LVL589:
 4529              	.L356:
2531:Drivers/VL53L0X/API/vl53l0x_api.c **** 	} else {
2532:Drivers/VL53L0X/API/vl53l0x_api.c **** 		Status = VL53L0X_ERROR_INVALID_COMMAND;
2533:Drivers/VL53L0X/API/vl53l0x_api.c **** 	}
2534:Drivers/VL53L0X/API/vl53l0x_api.c **** 	LOG_FUNCTION_END(Status);
2535:Drivers/VL53L0X/API/vl53l0x_api.c **** 
2536:Drivers/VL53L0X/API/vl53l0x_api.c **** 	return Status;
2537:Drivers/VL53L0X/API/vl53l0x_api.c **** }
 4530              		.loc 1 2537 0
 4531 0022 03B0     		add	sp, sp, #12
 4532              	.LCFI107:
 4533              		.cfi_remember_state
 4534              		.cfi_def_cfa_offset 12
 4535              		@ sp needed
 4536 0024 30BD     		pop	{r4, r5, pc}
 4537              	.LVL590:
 4538              	.L357:
 4539              	.LCFI108:
 4540              		.cfi_restore_state
2532:Drivers/VL53L0X/API/vl53l0x_api.c **** 	}
 4541              		.loc 1 2532 0
 4542 0026 6FF01D00 		mvn	r0, #29
 4543              	.LVL591:
 4544 002a FAE7     		b	.L356
 4545              		.cfi_endproc
 4546              	.LFE204:
 4548              		.section	.text.VL53L0X_GetHistogramMeasurementData,"ax",%progbits
 4549              		.align	1
 4550              		.global	VL53L0X_GetHistogramMeasurementData
 4551              		.syntax unified
 4552              		.thumb
 4553              		.thumb_func
 4554              		.fpu fpv4-sp-d16
 4556              	VL53L0X_GetHistogramMeasurementData:
 4557              	.LFB205:
2538:Drivers/VL53L0X/API/vl53l0x_api.c **** 
2539:Drivers/VL53L0X/API/vl53l0x_api.c **** VL53L0X_Error VL53L0X_GetHistogramMeasurementData(VL53L0X_DEV Dev,
2540:Drivers/VL53L0X/API/vl53l0x_api.c **** 	VL53L0X_HistogramMeasurementData_t *pHistogramMeasurementData)
2541:Drivers/VL53L0X/API/vl53l0x_api.c **** {
 4558              		.loc 1 2541 0
 4559              		.cfi_startproc
 4560              		@ args = 0, pretend = 0, frame = 0
 4561              		@ frame_needed = 0, uses_anonymous_args = 0
 4562              		@ link register save eliminated.
 4563              	.LVL592:
2542:Drivers/VL53L0X/API/vl53l0x_api.c **** 	VL53L0X_Error Status = VL53L0X_ERROR_NOT_IMPLEMENTED;
2543:Drivers/VL53L0X/API/vl53l0x_api.c **** 	LOG_FUNCTION_START("");
2544:Drivers/VL53L0X/API/vl53l0x_api.c **** 
2545:Drivers/VL53L0X/API/vl53l0x_api.c **** 	LOG_FUNCTION_END(Status);
2546:Drivers/VL53L0X/API/vl53l0x_api.c **** 	return Status;
2547:Drivers/VL53L0X/API/vl53l0x_api.c **** }
 4564              		.loc 1 2547 0
 4565 0000 6FF06200 		mvn	r0, #98
 4566              	.LVL593:
 4567 0004 7047     		bx	lr
ARM GAS  /tmp/ccq7BpOX.s 			page 128


 4568              		.cfi_endproc
 4569              	.LFE205:
 4571              		.section	.text.VL53L0X_SetNumberOfROIZones,"ax",%progbits
 4572              		.align	1
 4573              		.global	VL53L0X_SetNumberOfROIZones
 4574              		.syntax unified
 4575              		.thumb
 4576              		.thumb_func
 4577              		.fpu fpv4-sp-d16
 4579              	VL53L0X_SetNumberOfROIZones:
 4580              	.LFB207:
2548:Drivers/VL53L0X/API/vl53l0x_api.c **** 
2549:Drivers/VL53L0X/API/vl53l0x_api.c **** VL53L0X_Error VL53L0X_PerformSingleRangingMeasurement(VL53L0X_DEV Dev,
2550:Drivers/VL53L0X/API/vl53l0x_api.c **** 	VL53L0X_RangingMeasurementData_t *pRangingMeasurementData)
2551:Drivers/VL53L0X/API/vl53l0x_api.c **** {
2552:Drivers/VL53L0X/API/vl53l0x_api.c **** 	VL53L0X_Error Status = VL53L0X_ERROR_NONE;
2553:Drivers/VL53L0X/API/vl53l0x_api.c **** 
2554:Drivers/VL53L0X/API/vl53l0x_api.c **** 	LOG_FUNCTION_START("");
2555:Drivers/VL53L0X/API/vl53l0x_api.c **** 
2556:Drivers/VL53L0X/API/vl53l0x_api.c **** 	/* This function will do a complete single ranging
2557:Drivers/VL53L0X/API/vl53l0x_api.c **** 	 * Here we fix the mode! */
2558:Drivers/VL53L0X/API/vl53l0x_api.c **** 	Status = VL53L0X_SetDeviceMode(Dev, VL53L0X_DEVICEMODE_SINGLE_RANGING);
2559:Drivers/VL53L0X/API/vl53l0x_api.c **** 
2560:Drivers/VL53L0X/API/vl53l0x_api.c **** 	if (Status == VL53L0X_ERROR_NONE)
2561:Drivers/VL53L0X/API/vl53l0x_api.c **** 		Status = VL53L0X_PerformSingleMeasurement(Dev);
2562:Drivers/VL53L0X/API/vl53l0x_api.c **** 
2563:Drivers/VL53L0X/API/vl53l0x_api.c **** 
2564:Drivers/VL53L0X/API/vl53l0x_api.c **** 	if (Status == VL53L0X_ERROR_NONE)
2565:Drivers/VL53L0X/API/vl53l0x_api.c **** 		Status = VL53L0X_GetRangingMeasurementData(Dev,
2566:Drivers/VL53L0X/API/vl53l0x_api.c **** 			pRangingMeasurementData);
2567:Drivers/VL53L0X/API/vl53l0x_api.c **** 
2568:Drivers/VL53L0X/API/vl53l0x_api.c **** 
2569:Drivers/VL53L0X/API/vl53l0x_api.c **** 	if (Status == VL53L0X_ERROR_NONE)
2570:Drivers/VL53L0X/API/vl53l0x_api.c **** 		Status = VL53L0X_ClearInterruptMask(Dev, 0);
2571:Drivers/VL53L0X/API/vl53l0x_api.c **** 
2572:Drivers/VL53L0X/API/vl53l0x_api.c **** 
2573:Drivers/VL53L0X/API/vl53l0x_api.c **** 	LOG_FUNCTION_END(Status);
2574:Drivers/VL53L0X/API/vl53l0x_api.c **** 	return Status;
2575:Drivers/VL53L0X/API/vl53l0x_api.c **** }
2576:Drivers/VL53L0X/API/vl53l0x_api.c **** 
2577:Drivers/VL53L0X/API/vl53l0x_api.c **** VL53L0X_Error VL53L0X_SetNumberOfROIZones(VL53L0X_DEV Dev,
2578:Drivers/VL53L0X/API/vl53l0x_api.c **** 	uint8_t NumberOfROIZones)
2579:Drivers/VL53L0X/API/vl53l0x_api.c **** {
 4581              		.loc 1 2579 0
 4582              		.cfi_startproc
 4583              		@ args = 0, pretend = 0, frame = 0
 4584              		@ frame_needed = 0, uses_anonymous_args = 0
 4585              		@ link register save eliminated.
 4586              	.LVL594:
2580:Drivers/VL53L0X/API/vl53l0x_api.c **** 	VL53L0X_Error Status = VL53L0X_ERROR_NONE;
2581:Drivers/VL53L0X/API/vl53l0x_api.c **** 
2582:Drivers/VL53L0X/API/vl53l0x_api.c **** 	LOG_FUNCTION_START("");
2583:Drivers/VL53L0X/API/vl53l0x_api.c **** 
2584:Drivers/VL53L0X/API/vl53l0x_api.c **** 	if (NumberOfROIZones != 1)
 4587              		.loc 1 2584 0
 4588 0000 0129     		cmp	r1, #1
 4589 0002 01D1     		bne	.L362
ARM GAS  /tmp/ccq7BpOX.s 			page 129


2580:Drivers/VL53L0X/API/vl53l0x_api.c **** 	VL53L0X_Error Status = VL53L0X_ERROR_NONE;
 4590              		.loc 1 2580 0
 4591 0004 0020     		movs	r0, #0
 4592              	.LVL595:
 4593 0006 7047     		bx	lr
 4594              	.LVL596:
 4595              	.L362:
2585:Drivers/VL53L0X/API/vl53l0x_api.c **** 		Status = VL53L0X_ERROR_INVALID_PARAMS;
 4596              		.loc 1 2585 0
 4597 0008 6FF00300 		mvn	r0, #3
 4598              	.LVL597:
2586:Drivers/VL53L0X/API/vl53l0x_api.c **** 
2587:Drivers/VL53L0X/API/vl53l0x_api.c **** 
2588:Drivers/VL53L0X/API/vl53l0x_api.c **** 	LOG_FUNCTION_END(Status);
2589:Drivers/VL53L0X/API/vl53l0x_api.c **** 	return Status;
2590:Drivers/VL53L0X/API/vl53l0x_api.c **** }
 4599              		.loc 1 2590 0
 4600 000c 7047     		bx	lr
 4601              		.cfi_endproc
 4602              	.LFE207:
 4604              		.section	.text.VL53L0X_GetNumberOfROIZones,"ax",%progbits
 4605              		.align	1
 4606              		.global	VL53L0X_GetNumberOfROIZones
 4607              		.syntax unified
 4608              		.thumb
 4609              		.thumb_func
 4610              		.fpu fpv4-sp-d16
 4612              	VL53L0X_GetNumberOfROIZones:
 4613              	.LFB208:
2591:Drivers/VL53L0X/API/vl53l0x_api.c **** 
2592:Drivers/VL53L0X/API/vl53l0x_api.c **** VL53L0X_Error VL53L0X_GetNumberOfROIZones(VL53L0X_DEV Dev,
2593:Drivers/VL53L0X/API/vl53l0x_api.c **** 	uint8_t *pNumberOfROIZones)
2594:Drivers/VL53L0X/API/vl53l0x_api.c **** {
 4614              		.loc 1 2594 0
 4615              		.cfi_startproc
 4616              		@ args = 0, pretend = 0, frame = 0
 4617              		@ frame_needed = 0, uses_anonymous_args = 0
 4618              		@ link register save eliminated.
 4619              	.LVL598:
2595:Drivers/VL53L0X/API/vl53l0x_api.c **** 	VL53L0X_Error Status = VL53L0X_ERROR_NONE;
2596:Drivers/VL53L0X/API/vl53l0x_api.c **** 
2597:Drivers/VL53L0X/API/vl53l0x_api.c **** 	LOG_FUNCTION_START("");
2598:Drivers/VL53L0X/API/vl53l0x_api.c **** 
2599:Drivers/VL53L0X/API/vl53l0x_api.c **** 	*pNumberOfROIZones = 1;
 4620              		.loc 1 2599 0
 4621 0000 0123     		movs	r3, #1
 4622 0002 0B70     		strb	r3, [r1]
2600:Drivers/VL53L0X/API/vl53l0x_api.c **** 
2601:Drivers/VL53L0X/API/vl53l0x_api.c **** 	LOG_FUNCTION_END(Status);
2602:Drivers/VL53L0X/API/vl53l0x_api.c **** 	return Status;
2603:Drivers/VL53L0X/API/vl53l0x_api.c **** }
 4623              		.loc 1 2603 0
 4624 0004 0020     		movs	r0, #0
 4625              	.LVL599:
 4626 0006 7047     		bx	lr
 4627              		.cfi_endproc
 4628              	.LFE208:
ARM GAS  /tmp/ccq7BpOX.s 			page 130


 4630              		.section	.text.VL53L0X_GetMaxNumberOfROIZones,"ax",%progbits
 4631              		.align	1
 4632              		.global	VL53L0X_GetMaxNumberOfROIZones
 4633              		.syntax unified
 4634              		.thumb
 4635              		.thumb_func
 4636              		.fpu fpv4-sp-d16
 4638              	VL53L0X_GetMaxNumberOfROIZones:
 4639              	.LFB209:
2604:Drivers/VL53L0X/API/vl53l0x_api.c **** 
2605:Drivers/VL53L0X/API/vl53l0x_api.c **** VL53L0X_Error VL53L0X_GetMaxNumberOfROIZones(VL53L0X_DEV Dev,
2606:Drivers/VL53L0X/API/vl53l0x_api.c **** 	uint8_t *pMaxNumberOfROIZones)
2607:Drivers/VL53L0X/API/vl53l0x_api.c **** {
 4640              		.loc 1 2607 0
 4641              		.cfi_startproc
 4642              		@ args = 0, pretend = 0, frame = 0
 4643              		@ frame_needed = 0, uses_anonymous_args = 0
 4644              		@ link register save eliminated.
 4645              	.LVL600:
2608:Drivers/VL53L0X/API/vl53l0x_api.c **** 	VL53L0X_Error Status = VL53L0X_ERROR_NONE;
2609:Drivers/VL53L0X/API/vl53l0x_api.c **** 
2610:Drivers/VL53L0X/API/vl53l0x_api.c **** 	LOG_FUNCTION_START("");
2611:Drivers/VL53L0X/API/vl53l0x_api.c **** 
2612:Drivers/VL53L0X/API/vl53l0x_api.c **** 	*pMaxNumberOfROIZones = 1;
 4646              		.loc 1 2612 0
 4647 0000 0123     		movs	r3, #1
 4648 0002 0B70     		strb	r3, [r1]
2613:Drivers/VL53L0X/API/vl53l0x_api.c **** 
2614:Drivers/VL53L0X/API/vl53l0x_api.c **** 	LOG_FUNCTION_END(Status);
2615:Drivers/VL53L0X/API/vl53l0x_api.c **** 	return Status;
2616:Drivers/VL53L0X/API/vl53l0x_api.c **** }
 4649              		.loc 1 2616 0
 4650 0004 0020     		movs	r0, #0
 4651              	.LVL601:
 4652 0006 7047     		bx	lr
 4653              		.cfi_endproc
 4654              	.LFE209:
 4656              		.section	.text.VL53L0X_GetGpioConfig,"ax",%progbits
 4657              		.align	1
 4658              		.global	VL53L0X_GetGpioConfig
 4659              		.syntax unified
 4660              		.thumb
 4661              		.thumb_func
 4662              		.fpu fpv4-sp-d16
 4664              	VL53L0X_GetGpioConfig:
 4665              	.LFB211:
2617:Drivers/VL53L0X/API/vl53l0x_api.c **** 
2618:Drivers/VL53L0X/API/vl53l0x_api.c **** /* End Group PAL Measurement Functions */
2619:Drivers/VL53L0X/API/vl53l0x_api.c **** 
2620:Drivers/VL53L0X/API/vl53l0x_api.c **** VL53L0X_Error VL53L0X_SetGpioConfig(VL53L0X_DEV Dev, uint8_t Pin,
2621:Drivers/VL53L0X/API/vl53l0x_api.c **** 	VL53L0X_DeviceModes DeviceMode, VL53L0X_GpioFunctionality Functionality,
2622:Drivers/VL53L0X/API/vl53l0x_api.c **** 	VL53L0X_InterruptPolarity Polarity)
2623:Drivers/VL53L0X/API/vl53l0x_api.c **** {
2624:Drivers/VL53L0X/API/vl53l0x_api.c **** 	VL53L0X_Error Status = VL53L0X_ERROR_NONE;
2625:Drivers/VL53L0X/API/vl53l0x_api.c **** 	uint8_t data;
2626:Drivers/VL53L0X/API/vl53l0x_api.c **** 
2627:Drivers/VL53L0X/API/vl53l0x_api.c **** 	LOG_FUNCTION_START("");
ARM GAS  /tmp/ccq7BpOX.s 			page 131


2628:Drivers/VL53L0X/API/vl53l0x_api.c **** 
2629:Drivers/VL53L0X/API/vl53l0x_api.c **** 	if (Pin != 0) {
2630:Drivers/VL53L0X/API/vl53l0x_api.c **** 		Status = VL53L0X_ERROR_GPIO_NOT_EXISTING;
2631:Drivers/VL53L0X/API/vl53l0x_api.c **** 	} else if (DeviceMode == VL53L0X_DEVICEMODE_GPIO_DRIVE) {
2632:Drivers/VL53L0X/API/vl53l0x_api.c **** 		if (Polarity == VL53L0X_INTERRUPTPOLARITY_LOW)
2633:Drivers/VL53L0X/API/vl53l0x_api.c **** 			data = 0x10;
2634:Drivers/VL53L0X/API/vl53l0x_api.c **** 		else
2635:Drivers/VL53L0X/API/vl53l0x_api.c **** 			data = 1;
2636:Drivers/VL53L0X/API/vl53l0x_api.c **** 
2637:Drivers/VL53L0X/API/vl53l0x_api.c **** 		Status = VL53L0X_WrByte(Dev,
2638:Drivers/VL53L0X/API/vl53l0x_api.c **** 		VL53L0X_REG_GPIO_HV_MUX_ACTIVE_HIGH, data);
2639:Drivers/VL53L0X/API/vl53l0x_api.c **** 
2640:Drivers/VL53L0X/API/vl53l0x_api.c **** 	} else if (DeviceMode == VL53L0X_DEVICEMODE_GPIO_OSC) {
2641:Drivers/VL53L0X/API/vl53l0x_api.c **** 
2642:Drivers/VL53L0X/API/vl53l0x_api.c **** 		Status |= VL53L0X_WrByte(Dev, 0xff, 0x01);
2643:Drivers/VL53L0X/API/vl53l0x_api.c **** 		Status |= VL53L0X_WrByte(Dev, 0x00, 0x00);
2644:Drivers/VL53L0X/API/vl53l0x_api.c **** 
2645:Drivers/VL53L0X/API/vl53l0x_api.c **** 		Status |= VL53L0X_WrByte(Dev, 0xff, 0x00);
2646:Drivers/VL53L0X/API/vl53l0x_api.c **** 		Status |= VL53L0X_WrByte(Dev, 0x80, 0x01);
2647:Drivers/VL53L0X/API/vl53l0x_api.c **** 		Status |= VL53L0X_WrByte(Dev, 0x85, 0x02);
2648:Drivers/VL53L0X/API/vl53l0x_api.c **** 
2649:Drivers/VL53L0X/API/vl53l0x_api.c **** 		Status |= VL53L0X_WrByte(Dev, 0xff, 0x04);
2650:Drivers/VL53L0X/API/vl53l0x_api.c **** 		Status |= VL53L0X_WrByte(Dev, 0xcd, 0x00);
2651:Drivers/VL53L0X/API/vl53l0x_api.c **** 		Status |= VL53L0X_WrByte(Dev, 0xcc, 0x11);
2652:Drivers/VL53L0X/API/vl53l0x_api.c **** 
2653:Drivers/VL53L0X/API/vl53l0x_api.c **** 		Status |= VL53L0X_WrByte(Dev, 0xff, 0x07);
2654:Drivers/VL53L0X/API/vl53l0x_api.c **** 		Status |= VL53L0X_WrByte(Dev, 0xbe, 0x00);
2655:Drivers/VL53L0X/API/vl53l0x_api.c **** 
2656:Drivers/VL53L0X/API/vl53l0x_api.c **** 		Status |= VL53L0X_WrByte(Dev, 0xff, 0x06);
2657:Drivers/VL53L0X/API/vl53l0x_api.c **** 		Status |= VL53L0X_WrByte(Dev, 0xcc, 0x09);
2658:Drivers/VL53L0X/API/vl53l0x_api.c **** 
2659:Drivers/VL53L0X/API/vl53l0x_api.c **** 		Status |= VL53L0X_WrByte(Dev, 0xff, 0x00);
2660:Drivers/VL53L0X/API/vl53l0x_api.c **** 		Status |= VL53L0X_WrByte(Dev, 0xff, 0x01);
2661:Drivers/VL53L0X/API/vl53l0x_api.c **** 		Status |= VL53L0X_WrByte(Dev, 0x00, 0x00);
2662:Drivers/VL53L0X/API/vl53l0x_api.c **** 
2663:Drivers/VL53L0X/API/vl53l0x_api.c **** 	} else {
2664:Drivers/VL53L0X/API/vl53l0x_api.c **** 
2665:Drivers/VL53L0X/API/vl53l0x_api.c **** 		if (Status == VL53L0X_ERROR_NONE) {
2666:Drivers/VL53L0X/API/vl53l0x_api.c **** 			switch (Functionality) {
2667:Drivers/VL53L0X/API/vl53l0x_api.c **** 			case VL53L0X_GPIOFUNCTIONALITY_OFF:
2668:Drivers/VL53L0X/API/vl53l0x_api.c **** 				data = 0x00;
2669:Drivers/VL53L0X/API/vl53l0x_api.c **** 				break;
2670:Drivers/VL53L0X/API/vl53l0x_api.c **** 			case VL53L0X_GPIOFUNCTIONALITY_THRESHOLD_CROSSED_LOW:
2671:Drivers/VL53L0X/API/vl53l0x_api.c **** 				data = 0x01;
2672:Drivers/VL53L0X/API/vl53l0x_api.c **** 				break;
2673:Drivers/VL53L0X/API/vl53l0x_api.c **** 			case VL53L0X_GPIOFUNCTIONALITY_THRESHOLD_CROSSED_HIGH:
2674:Drivers/VL53L0X/API/vl53l0x_api.c **** 				data = 0x02;
2675:Drivers/VL53L0X/API/vl53l0x_api.c **** 				break;
2676:Drivers/VL53L0X/API/vl53l0x_api.c **** 			case VL53L0X_GPIOFUNCTIONALITY_THRESHOLD_CROSSED_OUT:
2677:Drivers/VL53L0X/API/vl53l0x_api.c **** 				data = 0x03;
2678:Drivers/VL53L0X/API/vl53l0x_api.c **** 				break;
2679:Drivers/VL53L0X/API/vl53l0x_api.c **** 			case VL53L0X_GPIOFUNCTIONALITY_NEW_MEASURE_READY:
2680:Drivers/VL53L0X/API/vl53l0x_api.c **** 				data = 0x04;
2681:Drivers/VL53L0X/API/vl53l0x_api.c **** 				break;
2682:Drivers/VL53L0X/API/vl53l0x_api.c **** 			default:
2683:Drivers/VL53L0X/API/vl53l0x_api.c **** 				Status =
2684:Drivers/VL53L0X/API/vl53l0x_api.c **** 				VL53L0X_ERROR_GPIO_FUNCTIONALITY_NOT_SUPPORTED;
ARM GAS  /tmp/ccq7BpOX.s 			page 132


2685:Drivers/VL53L0X/API/vl53l0x_api.c **** 			}
2686:Drivers/VL53L0X/API/vl53l0x_api.c **** 		}
2687:Drivers/VL53L0X/API/vl53l0x_api.c **** 
2688:Drivers/VL53L0X/API/vl53l0x_api.c **** 		if (Status == VL53L0X_ERROR_NONE)
2689:Drivers/VL53L0X/API/vl53l0x_api.c **** 			Status = VL53L0X_WrByte(Dev,
2690:Drivers/VL53L0X/API/vl53l0x_api.c **** 			VL53L0X_REG_SYSTEM_INTERRUPT_CONFIG_GPIO, data);
2691:Drivers/VL53L0X/API/vl53l0x_api.c **** 
2692:Drivers/VL53L0X/API/vl53l0x_api.c **** 		if (Status == VL53L0X_ERROR_NONE) {
2693:Drivers/VL53L0X/API/vl53l0x_api.c **** 			if (Polarity == VL53L0X_INTERRUPTPOLARITY_LOW)
2694:Drivers/VL53L0X/API/vl53l0x_api.c **** 				data = 0;
2695:Drivers/VL53L0X/API/vl53l0x_api.c **** 			else
2696:Drivers/VL53L0X/API/vl53l0x_api.c **** 				data = (uint8_t)(1 << 4);
2697:Drivers/VL53L0X/API/vl53l0x_api.c **** 
2698:Drivers/VL53L0X/API/vl53l0x_api.c **** 			Status = VL53L0X_UpdateByte(Dev,
2699:Drivers/VL53L0X/API/vl53l0x_api.c **** 			VL53L0X_REG_GPIO_HV_MUX_ACTIVE_HIGH, 0xEF, data);
2700:Drivers/VL53L0X/API/vl53l0x_api.c **** 		}
2701:Drivers/VL53L0X/API/vl53l0x_api.c **** 
2702:Drivers/VL53L0X/API/vl53l0x_api.c **** 		if (Status == VL53L0X_ERROR_NONE)
2703:Drivers/VL53L0X/API/vl53l0x_api.c **** 			VL53L0X_SETDEVICESPECIFICPARAMETER(Dev,
2704:Drivers/VL53L0X/API/vl53l0x_api.c **** 				Pin0GpioFunctionality, Functionality);
2705:Drivers/VL53L0X/API/vl53l0x_api.c **** 
2706:Drivers/VL53L0X/API/vl53l0x_api.c **** 		if (Status == VL53L0X_ERROR_NONE)
2707:Drivers/VL53L0X/API/vl53l0x_api.c **** 			Status = VL53L0X_ClearInterruptMask(Dev, 0);
2708:Drivers/VL53L0X/API/vl53l0x_api.c **** 
2709:Drivers/VL53L0X/API/vl53l0x_api.c **** 	}
2710:Drivers/VL53L0X/API/vl53l0x_api.c **** 
2711:Drivers/VL53L0X/API/vl53l0x_api.c **** 	LOG_FUNCTION_END(Status);
2712:Drivers/VL53L0X/API/vl53l0x_api.c **** 	return Status;
2713:Drivers/VL53L0X/API/vl53l0x_api.c **** }
2714:Drivers/VL53L0X/API/vl53l0x_api.c **** 
2715:Drivers/VL53L0X/API/vl53l0x_api.c **** VL53L0X_Error VL53L0X_GetGpioConfig(VL53L0X_DEV Dev, uint8_t Pin,
2716:Drivers/VL53L0X/API/vl53l0x_api.c **** 	VL53L0X_DeviceModes *pDeviceMode,
2717:Drivers/VL53L0X/API/vl53l0x_api.c **** 	VL53L0X_GpioFunctionality *pFunctionality,
2718:Drivers/VL53L0X/API/vl53l0x_api.c **** 	VL53L0X_InterruptPolarity *pPolarity)
2719:Drivers/VL53L0X/API/vl53l0x_api.c **** {
 4666              		.loc 1 2719 0
 4667              		.cfi_startproc
 4668              		@ args = 4, pretend = 0, frame = 8
 4669              		@ frame_needed = 0, uses_anonymous_args = 0
 4670              	.LVL602:
 4671 0000 F0B5     		push	{r4, r5, r6, r7, lr}
 4672              	.LCFI109:
 4673              		.cfi_def_cfa_offset 20
 4674              		.cfi_offset 4, -20
 4675              		.cfi_offset 5, -16
 4676              		.cfi_offset 6, -12
 4677              		.cfi_offset 7, -8
 4678              		.cfi_offset 14, -4
 4679 0002 83B0     		sub	sp, sp, #12
 4680              	.LCFI110:
 4681              		.cfi_def_cfa_offset 32
 4682 0004 0446     		mov	r4, r0
 4683 0006 0E46     		mov	r6, r1
 4684 0008 1D46     		mov	r5, r3
 4685              	.LVL603:
2720:Drivers/VL53L0X/API/vl53l0x_api.c **** 	VL53L0X_Error Status = VL53L0X_ERROR_NONE;
2721:Drivers/VL53L0X/API/vl53l0x_api.c **** 	VL53L0X_GpioFunctionality GpioFunctionality;
ARM GAS  /tmp/ccq7BpOX.s 			page 133


2722:Drivers/VL53L0X/API/vl53l0x_api.c **** 	uint8_t data;
2723:Drivers/VL53L0X/API/vl53l0x_api.c **** 
2724:Drivers/VL53L0X/API/vl53l0x_api.c **** 	LOG_FUNCTION_START("");
2725:Drivers/VL53L0X/API/vl53l0x_api.c **** 
2726:Drivers/VL53L0X/API/vl53l0x_api.c **** 	/* pDeviceMode not managed by Ewok it return the current mode */
2727:Drivers/VL53L0X/API/vl53l0x_api.c **** 
2728:Drivers/VL53L0X/API/vl53l0x_api.c **** 	Status = VL53L0X_GetDeviceMode(Dev, pDeviceMode);
 4686              		.loc 1 2728 0
 4687 000a 1146     		mov	r1, r2
 4688              	.LVL604:
 4689 000c FFF7FEFF 		bl	VL53L0X_GetDeviceMode
 4690              	.LVL605:
2729:Drivers/VL53L0X/API/vl53l0x_api.c **** 
2730:Drivers/VL53L0X/API/vl53l0x_api.c **** 	if (Status == VL53L0X_ERROR_NONE) {
 4691              		.loc 1 2730 0
 4692 0010 0346     		mov	r3, r0
 4693 0012 D0B9     		cbnz	r0, .L366
2731:Drivers/VL53L0X/API/vl53l0x_api.c **** 		if (Pin != 0) {
 4694              		.loc 1 2731 0
 4695 0014 96B1     		cbz	r6, .L377
2732:Drivers/VL53L0X/API/vl53l0x_api.c **** 			Status = VL53L0X_ERROR_GPIO_NOT_EXISTING;
 4696              		.loc 1 2732 0
 4697 0016 6FF00903 		mvn	r3, #9
 4698              	.LVL606:
 4699              	.L367:
2733:Drivers/VL53L0X/API/vl53l0x_api.c **** 		} else {
2734:Drivers/VL53L0X/API/vl53l0x_api.c **** 			Status = VL53L0X_RdByte(Dev,
2735:Drivers/VL53L0X/API/vl53l0x_api.c **** 			VL53L0X_REG_SYSTEM_INTERRUPT_CONFIG_GPIO, &data);
2736:Drivers/VL53L0X/API/vl53l0x_api.c **** 		}
2737:Drivers/VL53L0X/API/vl53l0x_api.c **** 	}
2738:Drivers/VL53L0X/API/vl53l0x_api.c **** 
2739:Drivers/VL53L0X/API/vl53l0x_api.c **** 	if (Status == VL53L0X_ERROR_NONE) {
2740:Drivers/VL53L0X/API/vl53l0x_api.c **** 		switch (data & 0x07) {
2741:Drivers/VL53L0X/API/vl53l0x_api.c **** 		case 0x00:
2742:Drivers/VL53L0X/API/vl53l0x_api.c **** 			GpioFunctionality = VL53L0X_GPIOFUNCTIONALITY_OFF;
2743:Drivers/VL53L0X/API/vl53l0x_api.c **** 			break;
2744:Drivers/VL53L0X/API/vl53l0x_api.c **** 		case 0x01:
2745:Drivers/VL53L0X/API/vl53l0x_api.c **** 			GpioFunctionality =
2746:Drivers/VL53L0X/API/vl53l0x_api.c **** 			VL53L0X_GPIOFUNCTIONALITY_THRESHOLD_CROSSED_LOW;
2747:Drivers/VL53L0X/API/vl53l0x_api.c **** 			break;
2748:Drivers/VL53L0X/API/vl53l0x_api.c **** 		case 0x02:
2749:Drivers/VL53L0X/API/vl53l0x_api.c **** 			GpioFunctionality =
2750:Drivers/VL53L0X/API/vl53l0x_api.c **** 			VL53L0X_GPIOFUNCTIONALITY_THRESHOLD_CROSSED_HIGH;
2751:Drivers/VL53L0X/API/vl53l0x_api.c **** 			break;
2752:Drivers/VL53L0X/API/vl53l0x_api.c **** 		case 0x03:
2753:Drivers/VL53L0X/API/vl53l0x_api.c **** 			GpioFunctionality =
2754:Drivers/VL53L0X/API/vl53l0x_api.c **** 			VL53L0X_GPIOFUNCTIONALITY_THRESHOLD_CROSSED_OUT;
2755:Drivers/VL53L0X/API/vl53l0x_api.c **** 			break;
2756:Drivers/VL53L0X/API/vl53l0x_api.c **** 		case 0x04:
2757:Drivers/VL53L0X/API/vl53l0x_api.c **** 			GpioFunctionality =
2758:Drivers/VL53L0X/API/vl53l0x_api.c **** 			VL53L0X_GPIOFUNCTIONALITY_NEW_MEASURE_READY;
2759:Drivers/VL53L0X/API/vl53l0x_api.c **** 			break;
2760:Drivers/VL53L0X/API/vl53l0x_api.c **** 		default:
2761:Drivers/VL53L0X/API/vl53l0x_api.c **** 			Status = VL53L0X_ERROR_GPIO_FUNCTIONALITY_NOT_SUPPORTED;
2762:Drivers/VL53L0X/API/vl53l0x_api.c **** 		}
2763:Drivers/VL53L0X/API/vl53l0x_api.c **** 	}
2764:Drivers/VL53L0X/API/vl53l0x_api.c **** 
ARM GAS  /tmp/ccq7BpOX.s 			page 134


2765:Drivers/VL53L0X/API/vl53l0x_api.c **** 	if (Status == VL53L0X_ERROR_NONE)
 4700              		.loc 1 2765 0
 4701 001a 03B3     		cbz	r3, .L378
 4702              	.LVL607:
 4703              	.L368:
2766:Drivers/VL53L0X/API/vl53l0x_api.c **** 		Status = VL53L0X_RdByte(Dev, VL53L0X_REG_GPIO_HV_MUX_ACTIVE_HIGH,
2767:Drivers/VL53L0X/API/vl53l0x_api.c **** 			&data);
2768:Drivers/VL53L0X/API/vl53l0x_api.c **** 
2769:Drivers/VL53L0X/API/vl53l0x_api.c **** 	if (Status == VL53L0X_ERROR_NONE) {
 4704              		.loc 1 2769 0
 4705 001c 3BB9     		cbnz	r3, .L369
2770:Drivers/VL53L0X/API/vl53l0x_api.c **** 		if ((data & (uint8_t)(1 << 4)) == 0)
 4706              		.loc 1 2770 0
 4707 001e 9DF80720 		ldrb	r2, [sp, #7]	@ zero_extendqisi2
 4708 0022 12F0100F 		tst	r2, #16
 4709 0026 25D1     		bne	.L370
2771:Drivers/VL53L0X/API/vl53l0x_api.c **** 			*pPolarity = VL53L0X_INTERRUPTPOLARITY_LOW;
 4710              		.loc 1 2771 0
 4711 0028 0022     		movs	r2, #0
 4712 002a 0899     		ldr	r1, [sp, #32]
 4713 002c 0A70     		strb	r2, [r1]
 4714              	.L369:
2772:Drivers/VL53L0X/API/vl53l0x_api.c **** 		else
2773:Drivers/VL53L0X/API/vl53l0x_api.c **** 			*pPolarity = VL53L0X_INTERRUPTPOLARITY_HIGH;
2774:Drivers/VL53L0X/API/vl53l0x_api.c **** 	}
2775:Drivers/VL53L0X/API/vl53l0x_api.c **** 
2776:Drivers/VL53L0X/API/vl53l0x_api.c **** 	if (Status == VL53L0X_ERROR_NONE) {
 4715              		.loc 1 2776 0
 4716 002e 13B9     		cbnz	r3, .L371
2777:Drivers/VL53L0X/API/vl53l0x_api.c **** 		*pFunctionality = GpioFunctionality;
 4717              		.loc 1 2777 0
 4718 0030 2F70     		strb	r7, [r5]
2778:Drivers/VL53L0X/API/vl53l0x_api.c **** 		VL53L0X_SETDEVICESPECIFICPARAMETER(Dev, Pin0GpioFunctionality,
 4719              		.loc 1 2778 0
 4720 0032 84F8DA70 		strb	r7, [r4, #218]
 4721              	.L371:
2779:Drivers/VL53L0X/API/vl53l0x_api.c **** 			GpioFunctionality);
2780:Drivers/VL53L0X/API/vl53l0x_api.c **** 	}
2781:Drivers/VL53L0X/API/vl53l0x_api.c **** 
2782:Drivers/VL53L0X/API/vl53l0x_api.c **** 	LOG_FUNCTION_END(Status);
2783:Drivers/VL53L0X/API/vl53l0x_api.c **** 	return Status;
2784:Drivers/VL53L0X/API/vl53l0x_api.c **** }
 4722              		.loc 1 2784 0
 4723 0036 1846     		mov	r0, r3
 4724 0038 03B0     		add	sp, sp, #12
 4725              	.LCFI111:
 4726              		.cfi_remember_state
 4727              		.cfi_def_cfa_offset 20
 4728              		@ sp needed
 4729 003a F0BD     		pop	{r4, r5, r6, r7, pc}
 4730              	.LVL608:
 4731              	.L377:
 4732              	.LCFI112:
 4733              		.cfi_restore_state
2734:Drivers/VL53L0X/API/vl53l0x_api.c **** 			VL53L0X_REG_SYSTEM_INTERRUPT_CONFIG_GPIO, &data);
 4734              		.loc 1 2734 0
 4735 003c 0DF10702 		add	r2, sp, #7
ARM GAS  /tmp/ccq7BpOX.s 			page 135


 4736 0040 0A21     		movs	r1, #10
 4737 0042 2046     		mov	r0, r4
 4738              	.LVL609:
 4739 0044 FFF7FEFF 		bl	VL53L0X_RdByte
 4740              	.LVL610:
 4741 0048 0346     		mov	r3, r0
 4742              	.LVL611:
 4743              	.L366:
2739:Drivers/VL53L0X/API/vl53l0x_api.c **** 		switch (data & 0x07) {
 4744              		.loc 1 2739 0
 4745 004a 002B     		cmp	r3, #0
 4746 004c E5D1     		bne	.L367
2740:Drivers/VL53L0X/API/vl53l0x_api.c **** 		case 0x00:
 4747              		.loc 1 2740 0
 4748 004e 9DF80720 		ldrb	r2, [sp, #7]	@ zero_extendqisi2
 4749 0052 02F00702 		and	r2, r2, #7
 4750 0056 042A     		cmp	r2, #4
 4751 0058 09D8     		bhi	.L379
2745:Drivers/VL53L0X/API/vl53l0x_api.c **** 			VL53L0X_GPIOFUNCTIONALITY_THRESHOLD_CROSSED_LOW;
 4752              		.loc 1 2745 0
 4753 005a 1746     		mov	r7, r2
 4754 005c DDE7     		b	.L367
 4755              	.LVL612:
 4756              	.L378:
2766:Drivers/VL53L0X/API/vl53l0x_api.c **** 			&data);
 4757              		.loc 1 2766 0
 4758 005e 0DF10702 		add	r2, sp, #7
 4759 0062 8421     		movs	r1, #132
 4760 0064 2046     		mov	r0, r4
 4761 0066 FFF7FEFF 		bl	VL53L0X_RdByte
 4762              	.LVL613:
 4763 006a 0346     		mov	r3, r0
 4764              	.LVL614:
 4765 006c D6E7     		b	.L368
 4766              	.LVL615:
 4767              	.L379:
2761:Drivers/VL53L0X/API/vl53l0x_api.c **** 		}
 4768              		.loc 1 2761 0
 4769 006e 6FF00A03 		mvn	r3, #10
 4770              	.LVL616:
 4771 0072 D3E7     		b	.L368
 4772              	.LVL617:
 4773              	.L370:
2773:Drivers/VL53L0X/API/vl53l0x_api.c **** 	}
 4774              		.loc 1 2773 0
 4775 0074 0122     		movs	r2, #1
 4776 0076 0899     		ldr	r1, [sp, #32]
 4777 0078 0A70     		strb	r2, [r1]
 4778 007a D8E7     		b	.L369
 4779              		.cfi_endproc
 4780              	.LFE211:
 4782              		.section	.text.VL53L0X_SetInterruptThresholds,"ax",%progbits
 4783              		.align	1
 4784              		.global	VL53L0X_SetInterruptThresholds
 4785              		.syntax unified
 4786              		.thumb
 4787              		.thumb_func
ARM GAS  /tmp/ccq7BpOX.s 			page 136


 4788              		.fpu fpv4-sp-d16
 4790              	VL53L0X_SetInterruptThresholds:
 4791              	.LFB212:
2785:Drivers/VL53L0X/API/vl53l0x_api.c **** 
2786:Drivers/VL53L0X/API/vl53l0x_api.c **** VL53L0X_Error VL53L0X_SetInterruptThresholds(VL53L0X_DEV Dev,
2787:Drivers/VL53L0X/API/vl53l0x_api.c **** 	VL53L0X_DeviceModes DeviceMode, FixPoint1616_t ThresholdLow,
2788:Drivers/VL53L0X/API/vl53l0x_api.c **** 	FixPoint1616_t ThresholdHigh)
2789:Drivers/VL53L0X/API/vl53l0x_api.c **** {
 4792              		.loc 1 2789 0
 4793              		.cfi_startproc
 4794              		@ args = 0, pretend = 0, frame = 0
 4795              		@ frame_needed = 0, uses_anonymous_args = 0
 4796              	.LVL618:
 4797 0000 38B5     		push	{r3, r4, r5, lr}
 4798              	.LCFI113:
 4799              		.cfi_def_cfa_offset 16
 4800              		.cfi_offset 3, -16
 4801              		.cfi_offset 4, -12
 4802              		.cfi_offset 5, -8
 4803              		.cfi_offset 14, -4
 4804 0002 0446     		mov	r4, r0
 4805 0004 1D46     		mov	r5, r3
 4806              	.LVL619:
2790:Drivers/VL53L0X/API/vl53l0x_api.c **** 	VL53L0X_Error Status = VL53L0X_ERROR_NONE;
2791:Drivers/VL53L0X/API/vl53l0x_api.c **** 	uint16_t Threshold16;
2792:Drivers/VL53L0X/API/vl53l0x_api.c **** 	LOG_FUNCTION_START("");
2793:Drivers/VL53L0X/API/vl53l0x_api.c **** 
2794:Drivers/VL53L0X/API/vl53l0x_api.c **** 	/* no dependency on DeviceMode for Ewok */
2795:Drivers/VL53L0X/API/vl53l0x_api.c **** 	/* Need to divide by 2 because the FW will apply a x2 */
2796:Drivers/VL53L0X/API/vl53l0x_api.c **** 	Threshold16 = (uint16_t)((ThresholdLow >> 17) & 0x00fff);
2797:Drivers/VL53L0X/API/vl53l0x_api.c **** 	Status = VL53L0X_WrWord(Dev, VL53L0X_REG_SYSTEM_THRESH_LOW, Threshold16);
 4807              		.loc 1 2797 0
 4808 0006 C2F34B42 		ubfx	r2, r2, #17, #12
 4809              	.LVL620:
 4810 000a 0E21     		movs	r1, #14
 4811              	.LVL621:
 4812 000c FFF7FEFF 		bl	VL53L0X_WrWord
 4813              	.LVL622:
2798:Drivers/VL53L0X/API/vl53l0x_api.c **** 
2799:Drivers/VL53L0X/API/vl53l0x_api.c **** 	if (Status == VL53L0X_ERROR_NONE) {
 4814              		.loc 1 2799 0
 4815 0010 0346     		mov	r3, r0
 4816 0012 08B1     		cbz	r0, .L383
 4817              	.LVL623:
 4818              	.L381:
2800:Drivers/VL53L0X/API/vl53l0x_api.c **** 		/* Need to divide by 2 because the FW will apply a x2 */
2801:Drivers/VL53L0X/API/vl53l0x_api.c **** 		Threshold16 = (uint16_t)((ThresholdHigh >> 17) & 0x00fff);
2802:Drivers/VL53L0X/API/vl53l0x_api.c **** 		Status = VL53L0X_WrWord(Dev, VL53L0X_REG_SYSTEM_THRESH_HIGH,
2803:Drivers/VL53L0X/API/vl53l0x_api.c **** 			Threshold16);
2804:Drivers/VL53L0X/API/vl53l0x_api.c **** 	}
2805:Drivers/VL53L0X/API/vl53l0x_api.c **** 
2806:Drivers/VL53L0X/API/vl53l0x_api.c **** 	LOG_FUNCTION_END(Status);
2807:Drivers/VL53L0X/API/vl53l0x_api.c **** 	return Status;
2808:Drivers/VL53L0X/API/vl53l0x_api.c **** }
 4819              		.loc 1 2808 0
 4820 0014 1846     		mov	r0, r3
 4821 0016 38BD     		pop	{r3, r4, r5, pc}
ARM GAS  /tmp/ccq7BpOX.s 			page 137


 4822              	.LVL624:
 4823              	.L383:
2802:Drivers/VL53L0X/API/vl53l0x_api.c **** 			Threshold16);
 4824              		.loc 1 2802 0
 4825 0018 C5F34B42 		ubfx	r2, r5, #17, #12
 4826 001c 0C21     		movs	r1, #12
 4827 001e 2046     		mov	r0, r4
 4828              	.LVL625:
 4829 0020 FFF7FEFF 		bl	VL53L0X_WrWord
 4830              	.LVL626:
 4831 0024 0346     		mov	r3, r0
 4832              	.LVL627:
 4833 0026 F5E7     		b	.L381
 4834              		.cfi_endproc
 4835              	.LFE212:
 4837              		.section	.text.VL53L0X_GetInterruptThresholds,"ax",%progbits
 4838              		.align	1
 4839              		.global	VL53L0X_GetInterruptThresholds
 4840              		.syntax unified
 4841              		.thumb
 4842              		.thumb_func
 4843              		.fpu fpv4-sp-d16
 4845              	VL53L0X_GetInterruptThresholds:
 4846              	.LFB213:
2809:Drivers/VL53L0X/API/vl53l0x_api.c **** 
2810:Drivers/VL53L0X/API/vl53l0x_api.c **** VL53L0X_Error VL53L0X_GetInterruptThresholds(VL53L0X_DEV Dev,
2811:Drivers/VL53L0X/API/vl53l0x_api.c **** 	VL53L0X_DeviceModes DeviceMode, FixPoint1616_t *pThresholdLow,
2812:Drivers/VL53L0X/API/vl53l0x_api.c **** 	FixPoint1616_t *pThresholdHigh)
2813:Drivers/VL53L0X/API/vl53l0x_api.c **** {
 4847              		.loc 1 2813 0
 4848              		.cfi_startproc
 4849              		@ args = 0, pretend = 0, frame = 8
 4850              		@ frame_needed = 0, uses_anonymous_args = 0
 4851              	.LVL628:
 4852 0000 70B5     		push	{r4, r5, r6, lr}
 4853              	.LCFI114:
 4854              		.cfi_def_cfa_offset 16
 4855              		.cfi_offset 4, -16
 4856              		.cfi_offset 5, -12
 4857              		.cfi_offset 6, -8
 4858              		.cfi_offset 14, -4
 4859 0002 82B0     		sub	sp, sp, #8
 4860              	.LCFI115:
 4861              		.cfi_def_cfa_offset 24
 4862 0004 0646     		mov	r6, r0
 4863 0006 1446     		mov	r4, r2
 4864 0008 1D46     		mov	r5, r3
 4865              	.LVL629:
2814:Drivers/VL53L0X/API/vl53l0x_api.c **** 	VL53L0X_Error Status = VL53L0X_ERROR_NONE;
2815:Drivers/VL53L0X/API/vl53l0x_api.c **** 	uint16_t Threshold16;
2816:Drivers/VL53L0X/API/vl53l0x_api.c **** 	LOG_FUNCTION_START("");
2817:Drivers/VL53L0X/API/vl53l0x_api.c **** 
2818:Drivers/VL53L0X/API/vl53l0x_api.c **** 	/* no dependency on DeviceMode for Ewok */
2819:Drivers/VL53L0X/API/vl53l0x_api.c **** 
2820:Drivers/VL53L0X/API/vl53l0x_api.c **** 	Status = VL53L0X_RdWord(Dev, VL53L0X_REG_SYSTEM_THRESH_LOW, &Threshold16);
 4866              		.loc 1 2820 0
 4867 000a 0DF10602 		add	r2, sp, #6
ARM GAS  /tmp/ccq7BpOX.s 			page 138


 4868              	.LVL630:
 4869 000e 0E21     		movs	r1, #14
 4870              	.LVL631:
 4871 0010 FFF7FEFF 		bl	VL53L0X_RdWord
 4872              	.LVL632:
2821:Drivers/VL53L0X/API/vl53l0x_api.c **** 	/* Need to multiply by 2 because the FW will apply a x2 */
2822:Drivers/VL53L0X/API/vl53l0x_api.c **** 	*pThresholdLow = (FixPoint1616_t)((0x00fff & Threshold16) << 17);
 4873              		.loc 1 2822 0
 4874 0014 BDF80620 		ldrh	r2, [sp, #6]
 4875 0018 0B4B     		ldr	r3, .L388
 4876 001a 03EA4243 		and	r3, r3, r2, lsl #17
 4877 001e 2360     		str	r3, [r4]
2823:Drivers/VL53L0X/API/vl53l0x_api.c **** 
2824:Drivers/VL53L0X/API/vl53l0x_api.c **** 	if (Status == VL53L0X_ERROR_NONE) {
 4878              		.loc 1 2824 0
 4879 0020 0346     		mov	r3, r0
 4880 0022 10B1     		cbz	r0, .L387
 4881              	.LVL633:
 4882              	.L385:
2825:Drivers/VL53L0X/API/vl53l0x_api.c **** 		Status = VL53L0X_RdWord(Dev, VL53L0X_REG_SYSTEM_THRESH_HIGH,
2826:Drivers/VL53L0X/API/vl53l0x_api.c **** 			&Threshold16);
2827:Drivers/VL53L0X/API/vl53l0x_api.c **** 		/* Need to multiply by 2 because the FW will apply a x2 */
2828:Drivers/VL53L0X/API/vl53l0x_api.c **** 		*pThresholdHigh =
2829:Drivers/VL53L0X/API/vl53l0x_api.c **** 			(FixPoint1616_t)((0x00fff & Threshold16) << 17);
2830:Drivers/VL53L0X/API/vl53l0x_api.c **** 	}
2831:Drivers/VL53L0X/API/vl53l0x_api.c **** 
2832:Drivers/VL53L0X/API/vl53l0x_api.c **** 	LOG_FUNCTION_END(Status);
2833:Drivers/VL53L0X/API/vl53l0x_api.c **** 	return Status;
2834:Drivers/VL53L0X/API/vl53l0x_api.c **** }
 4883              		.loc 1 2834 0
 4884 0024 1846     		mov	r0, r3
 4885 0026 02B0     		add	sp, sp, #8
 4886              	.LCFI116:
 4887              		.cfi_remember_state
 4888              		.cfi_def_cfa_offset 16
 4889              		@ sp needed
 4890 0028 70BD     		pop	{r4, r5, r6, pc}
 4891              	.LVL634:
 4892              	.L387:
 4893              	.LCFI117:
 4894              		.cfi_restore_state
2825:Drivers/VL53L0X/API/vl53l0x_api.c **** 		Status = VL53L0X_RdWord(Dev, VL53L0X_REG_SYSTEM_THRESH_HIGH,
 4895              		.loc 1 2825 0
 4896 002a 0DF10602 		add	r2, sp, #6
 4897 002e 0C21     		movs	r1, #12
 4898 0030 3046     		mov	r0, r6
 4899              	.LVL635:
 4900 0032 FFF7FEFF 		bl	VL53L0X_RdWord
 4901              	.LVL636:
 4902 0036 0346     		mov	r3, r0
 4903              	.LVL637:
2829:Drivers/VL53L0X/API/vl53l0x_api.c **** 	}
 4904              		.loc 1 2829 0
 4905 0038 BDF80610 		ldrh	r1, [sp, #6]
 4906 003c 024A     		ldr	r2, .L388
 4907 003e 02EA4142 		and	r2, r2, r1, lsl #17
2828:Drivers/VL53L0X/API/vl53l0x_api.c **** 			(FixPoint1616_t)((0x00fff & Threshold16) << 17);
ARM GAS  /tmp/ccq7BpOX.s 			page 139


 4908              		.loc 1 2828 0
 4909 0042 2A60     		str	r2, [r5]
 4910 0044 EEE7     		b	.L385
 4911              	.L389:
 4912 0046 00BF     		.align	2
 4913              	.L388:
 4914 0048 0000FE1F 		.word	536739840
 4915              		.cfi_endproc
 4916              	.LFE213:
 4918              		.section	.text.VL53L0X_CheckAndLoadInterruptSettings,"ax",%progbits
 4919              		.align	1
 4920              		.global	VL53L0X_CheckAndLoadInterruptSettings
 4921              		.syntax unified
 4922              		.thumb
 4923              		.thumb_func
 4924              		.fpu fpv4-sp-d16
 4926              	VL53L0X_CheckAndLoadInterruptSettings:
 4927              	.LFB198:
2162:Drivers/VL53L0X/API/vl53l0x_api.c **** 	uint8_t InterruptConfig;
 4928              		.loc 1 2162 0
 4929              		.cfi_startproc
 4930              		@ args = 0, pretend = 0, frame = 8
 4931              		@ frame_needed = 0, uses_anonymous_args = 0
 4932              	.LVL638:
 4933 0000 70B5     		push	{r4, r5, r6, lr}
 4934              	.LCFI118:
 4935              		.cfi_def_cfa_offset 16
 4936              		.cfi_offset 4, -16
 4937              		.cfi_offset 5, -12
 4938              		.cfi_offset 6, -8
 4939              		.cfi_offset 14, -4
 4940 0002 82B0     		sub	sp, sp, #8
 4941              	.LCFI119:
 4942              		.cfi_def_cfa_offset 24
 4943              	.LVL639:
2168:Drivers/VL53L0X/API/vl53l0x_api.c **** 		Pin0GpioFunctionality);
 4944              		.loc 1 2168 0
 4945 0004 90F8DA30 		ldrb	r3, [r0, #218]	@ zero_extendqisi2
 4946              	.LVL640:
2174:Drivers/VL53L0X/API/vl53l0x_api.c **** 		(InterruptConfig ==
 4947              		.loc 1 2174 0
 4948 0008 013B     		subs	r3, r3, #1
 4949              	.LVL641:
 4950 000a DBB2     		uxtb	r3, r3
 4951              	.LVL642:
2171:Drivers/VL53L0X/API/vl53l0x_api.c **** 		VL53L0X_GPIOFUNCTIONALITY_THRESHOLD_CROSSED_LOW) ||
 4952              		.loc 1 2171 0
 4953 000c 022B     		cmp	r3, #2
 4954 000e 03D9     		bls	.L396
2166:Drivers/VL53L0X/API/vl53l0x_api.c **** 
 4955              		.loc 1 2166 0
 4956 0010 0024     		movs	r4, #0
 4957              	.LVL643:
 4958              	.L391:
2203:Drivers/VL53L0X/API/vl53l0x_api.c **** 
 4959              		.loc 1 2203 0
 4960 0012 2046     		mov	r0, r4
ARM GAS  /tmp/ccq7BpOX.s 			page 140


 4961 0014 02B0     		add	sp, sp, #8
 4962              	.LCFI120:
 4963              		.cfi_remember_state
 4964              		.cfi_def_cfa_offset 16
 4965              		@ sp needed
 4966 0016 70BD     		pop	{r4, r5, r6, pc}
 4967              	.LVL644:
 4968              	.L396:
 4969              	.LCFI121:
 4970              		.cfi_restore_state
 4971 0018 0E46     		mov	r6, r1
 4972 001a 0546     		mov	r5, r0
2178:Drivers/VL53L0X/API/vl53l0x_api.c **** 			VL53L0X_DEVICEMODE_CONTINUOUS_RANGING,
 4973              		.loc 1 2178 0
 4974 001c 6B46     		mov	r3, sp
 4975 001e 01AA     		add	r2, sp, #4
 4976 0020 0121     		movs	r1, #1
 4977              	.LVL645:
 4978 0022 FFF7FEFF 		bl	VL53L0X_GetInterruptThresholds
 4979              	.LVL646:
 4980 0026 0446     		mov	r4, r0
 4981              	.LVL647:
2182:Drivers/VL53L0X/API/vl53l0x_api.c **** 			(ThresholdHigh > 255*65536)) &&
 4982              		.loc 1 2182 0
 4983 0028 019B     		ldr	r3, [sp, #4]
 4984 002a B3F57F0F 		cmp	r3, #16711680
 4985 002e 03D8     		bhi	.L392
2183:Drivers/VL53L0X/API/vl53l0x_api.c **** 			(Status == VL53L0X_ERROR_NONE)) {
 4986              		.loc 1 2183 0 discriminator 1
 4987 0030 009B     		ldr	r3, [sp]
2182:Drivers/VL53L0X/API/vl53l0x_api.c **** 			(ThresholdHigh > 255*65536)) &&
 4988              		.loc 1 2182 0 discriminator 1
 4989 0032 B3F57F0F 		cmp	r3, #16711680
 4990 0036 ECD9     		bls	.L391
 4991              	.L392:
2183:Drivers/VL53L0X/API/vl53l0x_api.c **** 			(Status == VL53L0X_ERROR_NONE)) {
 4992              		.loc 1 2183 0
 4993 0038 002C     		cmp	r4, #0
 4994 003a EAD1     		bne	.L391
2186:Drivers/VL53L0X/API/vl53l0x_api.c **** 				Status = VL53L0X_load_tuning_settings(Dev,
 4995              		.loc 1 2186 0
 4996 003c E6B9     		cbnz	r6, .L397
2190:Drivers/VL53L0X/API/vl53l0x_api.c **** 				Status |= VL53L0X_WrByte(Dev, 0x70, 0x00);
 4997              		.loc 1 2190 0
 4998 003e 0422     		movs	r2, #4
 4999 0040 FF21     		movs	r1, #255
 5000 0042 2846     		mov	r0, r5
 5001 0044 FFF7FEFF 		bl	VL53L0X_WrByte
 5002              	.LVL648:
 5003 0048 0443     		orrs	r4, r4, r0
 5004              	.LVL649:
 5005 004a 64B2     		sxtb	r4, r4
 5006              	.LVL650:
2191:Drivers/VL53L0X/API/vl53l0x_api.c **** 				Status |= VL53L0X_WrByte(Dev, 0xFF, 0x00);
 5007              		.loc 1 2191 0
 5008 004c 0022     		movs	r2, #0
 5009 004e 7021     		movs	r1, #112
ARM GAS  /tmp/ccq7BpOX.s 			page 141


 5010 0050 2846     		mov	r0, r5
 5011 0052 FFF7FEFF 		bl	VL53L0X_WrByte
 5012              	.LVL651:
 5013 0056 0443     		orrs	r4, r4, r0
 5014              	.LVL652:
 5015 0058 64B2     		sxtb	r4, r4
 5016              	.LVL653:
2192:Drivers/VL53L0X/API/vl53l0x_api.c **** 				Status |= VL53L0X_WrByte(Dev, 0x80, 0x00);
 5017              		.loc 1 2192 0
 5018 005a 0022     		movs	r2, #0
 5019 005c FF21     		movs	r1, #255
 5020 005e 2846     		mov	r0, r5
 5021 0060 FFF7FEFF 		bl	VL53L0X_WrByte
 5022              	.LVL654:
 5023 0064 0443     		orrs	r4, r4, r0
 5024              	.LVL655:
 5025 0066 64B2     		sxtb	r4, r4
 5026              	.LVL656:
2193:Drivers/VL53L0X/API/vl53l0x_api.c **** 			}
 5027              		.loc 1 2193 0
 5028 0068 0022     		movs	r2, #0
 5029 006a 8021     		movs	r1, #128
 5030 006c 2846     		mov	r0, r5
 5031 006e FFF7FEFF 		bl	VL53L0X_WrByte
 5032              	.LVL657:
 5033 0072 0443     		orrs	r4, r4, r0
 5034              	.LVL658:
 5035 0074 64B2     		sxtb	r4, r4
 5036              	.LVL659:
 5037 0076 CCE7     		b	.L391
 5038              	.L397:
2187:Drivers/VL53L0X/API/vl53l0x_api.c **** 					InterruptThresholdSettings);
 5039              		.loc 1 2187 0
 5040 0078 0249     		ldr	r1, .L398
 5041 007a 2846     		mov	r0, r5
 5042 007c FFF7FEFF 		bl	VL53L0X_load_tuning_settings
 5043              	.LVL660:
 5044 0080 0446     		mov	r4, r0
 5045              	.LVL661:
 5046 0082 C6E7     		b	.L391
 5047              	.L399:
 5048              		.align	2
 5049              	.L398:
 5050 0084 00000000 		.word	.LANCHOR0
 5051              		.cfi_endproc
 5052              	.LFE198:
 5054              		.section	.text.VL53L0X_StartMeasurement,"ax",%progbits
 5055              		.align	1
 5056              		.global	VL53L0X_StartMeasurement
 5057              		.syntax unified
 5058              		.thumb
 5059              		.thumb_func
 5060              		.fpu fpv4-sp-d16
 5062              	VL53L0X_StartMeasurement:
 5063              	.LFB199:
2207:Drivers/VL53L0X/API/vl53l0x_api.c **** 	VL53L0X_Error Status = VL53L0X_ERROR_NONE;
 5064              		.loc 1 2207 0
ARM GAS  /tmp/ccq7BpOX.s 			page 142


 5065              		.cfi_startproc
 5066              		@ args = 0, pretend = 0, frame = 8
 5067              		@ frame_needed = 0, uses_anonymous_args = 0
 5068              	.LVL662:
 5069 0000 30B5     		push	{r4, r5, lr}
 5070              	.LCFI122:
 5071              		.cfi_def_cfa_offset 12
 5072              		.cfi_offset 4, -12
 5073              		.cfi_offset 5, -8
 5074              		.cfi_offset 14, -4
 5075 0002 83B0     		sub	sp, sp, #12
 5076              	.LCFI123:
 5077              		.cfi_def_cfa_offset 24
 5078 0004 0446     		mov	r4, r0
 5079              	.LVL663:
2216:Drivers/VL53L0X/API/vl53l0x_api.c **** 
 5080              		.loc 1 2216 0
 5081 0006 0DF10701 		add	r1, sp, #7
 5082 000a FFF7FEFF 		bl	VL53L0X_GetDeviceMode
 5083              	.LVL664:
2218:Drivers/VL53L0X/API/vl53l0x_api.c **** 	Status = VL53L0X_WrByte(Dev, 0xFF, 0x01);
 5084              		.loc 1 2218 0
 5085 000e 0122     		movs	r2, #1
 5086 0010 8021     		movs	r1, #128
 5087 0012 2046     		mov	r0, r4
 5088 0014 FFF7FEFF 		bl	VL53L0X_WrByte
 5089              	.LVL665:
2219:Drivers/VL53L0X/API/vl53l0x_api.c **** 	Status = VL53L0X_WrByte(Dev, 0x00, 0x00);
 5090              		.loc 1 2219 0
 5091 0018 0122     		movs	r2, #1
 5092 001a FF21     		movs	r1, #255
 5093 001c 2046     		mov	r0, r4
 5094 001e FFF7FEFF 		bl	VL53L0X_WrByte
 5095              	.LVL666:
2220:Drivers/VL53L0X/API/vl53l0x_api.c **** 	Status = VL53L0X_WrByte(Dev, 0x91, PALDevDataGet(Dev, StopVariable));
 5096              		.loc 1 2220 0
 5097 0022 0022     		movs	r2, #0
 5098 0024 1146     		mov	r1, r2
 5099 0026 2046     		mov	r0, r4
 5100 0028 FFF7FEFF 		bl	VL53L0X_WrByte
 5101              	.LVL667:
2221:Drivers/VL53L0X/API/vl53l0x_api.c **** 	Status = VL53L0X_WrByte(Dev, 0x00, 0x01);
 5102              		.loc 1 2221 0
 5103 002c 94F83A21 		ldrb	r2, [r4, #314]	@ zero_extendqisi2
 5104 0030 9121     		movs	r1, #145
 5105 0032 2046     		mov	r0, r4
 5106 0034 FFF7FEFF 		bl	VL53L0X_WrByte
 5107              	.LVL668:
2222:Drivers/VL53L0X/API/vl53l0x_api.c **** 	Status = VL53L0X_WrByte(Dev, 0xFF, 0x00);
 5108              		.loc 1 2222 0
 5109 0038 0122     		movs	r2, #1
 5110 003a 0021     		movs	r1, #0
 5111 003c 2046     		mov	r0, r4
 5112 003e FFF7FEFF 		bl	VL53L0X_WrByte
 5113              	.LVL669:
2223:Drivers/VL53L0X/API/vl53l0x_api.c **** 	Status = VL53L0X_WrByte(Dev, 0x80, 0x00);
 5114              		.loc 1 2223 0
ARM GAS  /tmp/ccq7BpOX.s 			page 143


 5115 0042 0022     		movs	r2, #0
 5116 0044 FF21     		movs	r1, #255
 5117 0046 2046     		mov	r0, r4
 5118 0048 FFF7FEFF 		bl	VL53L0X_WrByte
 5119              	.LVL670:
2224:Drivers/VL53L0X/API/vl53l0x_api.c **** 
 5120              		.loc 1 2224 0
 5121 004c 0022     		movs	r2, #0
 5122 004e 8021     		movs	r1, #128
 5123 0050 2046     		mov	r0, r4
 5124 0052 FFF7FEFF 		bl	VL53L0X_WrByte
 5125              	.LVL671:
2226:Drivers/VL53L0X/API/vl53l0x_api.c **** 	case VL53L0X_DEVICEMODE_SINGLE_RANGING:
 5126              		.loc 1 2226 0
 5127 0056 9DF80730 		ldrb	r3, [sp, #7]	@ zero_extendqisi2
 5128 005a 012B     		cmp	r3, #1
 5129 005c 2BD0     		beq	.L402
 5130 005e 33B1     		cbz	r3, .L403
 5131 0060 032B     		cmp	r3, #3
 5132 0062 3AD0     		beq	.L404
2281:Drivers/VL53L0X/API/vl53l0x_api.c **** 	}
 5133              		.loc 1 2281 0
 5134 0064 6FF00703 		mvn	r3, #7
 5135              	.LVL672:
 5136              	.L401:
2287:Drivers/VL53L0X/API/vl53l0x_api.c **** 
 5137              		.loc 1 2287 0
 5138 0068 1846     		mov	r0, r3
 5139 006a 03B0     		add	sp, sp, #12
 5140              	.LCFI124:
 5141              		.cfi_remember_state
 5142              		.cfi_def_cfa_offset 12
 5143              		@ sp needed
 5144 006c 30BD     		pop	{r4, r5, pc}
 5145              	.LVL673:
 5146              	.L403:
 5147              	.LCFI125:
 5148              		.cfi_restore_state
2228:Drivers/VL53L0X/API/vl53l0x_api.c **** 
 5149              		.loc 1 2228 0
 5150 006e 0122     		movs	r2, #1
 5151 0070 0021     		movs	r1, #0
 5152 0072 2046     		mov	r0, r4
 5153              	.LVL674:
 5154 0074 FFF7FEFF 		bl	VL53L0X_WrByte
 5155              	.LVL675:
2230:Drivers/VL53L0X/API/vl53l0x_api.c **** 		if (Status == VL53L0X_ERROR_NONE) {
 5156              		.loc 1 2230 0
 5157 0078 0123     		movs	r3, #1
 5158 007a 8DF80630 		strb	r3, [sp, #6]
2231:Drivers/VL53L0X/API/vl53l0x_api.c **** 			/* Wait until start bit has been cleared */
 5159              		.loc 1 2231 0
 5160 007e 0346     		mov	r3, r0
 5161 0080 0028     		cmp	r0, #0
 5162 0082 F1D1     		bne	.L401
2233:Drivers/VL53L0X/API/vl53l0x_api.c **** 			do {
 5163              		.loc 1 2233 0
ARM GAS  /tmp/ccq7BpOX.s 			page 144


 5164 0084 0025     		movs	r5, #0
 5165              	.LVL676:
 5166              	.L407:
2235:Drivers/VL53L0X/API/vl53l0x_api.c **** 					Status = VL53L0X_RdByte(Dev,
 5167              		.loc 1 2235 0
 5168 0086 35B1     		cbz	r5, .L405
2236:Drivers/VL53L0X/API/vl53l0x_api.c **** 					VL53L0X_REG_SYSRANGE_START, &Byte);
 5169              		.loc 1 2236 0
 5170 0088 0DF10602 		add	r2, sp, #6
 5171 008c 0021     		movs	r1, #0
 5172 008e 2046     		mov	r0, r4
 5173 0090 FFF7FEFF 		bl	VL53L0X_RdByte
 5174              	.LVL677:
 5175 0094 0346     		mov	r3, r0
 5176              	.LVL678:
 5177              	.L405:
2238:Drivers/VL53L0X/API/vl53l0x_api.c **** 			} while (((Byte & StartStopByte) == StartStopByte)
 5178              		.loc 1 2238 0
 5179 0096 0135     		adds	r5, r5, #1
 5180              	.LVL679:
2239:Drivers/VL53L0X/API/vl53l0x_api.c **** 				&& (Status == VL53L0X_ERROR_NONE)
 5181              		.loc 1 2239 0
 5182 0098 9DF80620 		ldrb	r2, [sp, #6]	@ zero_extendqisi2
2241:Drivers/VL53L0X/API/vl53l0x_api.c **** 
 5183              		.loc 1 2241 0
 5184 009c 12F0010F 		tst	r2, #1
 5185 00a0 03D0     		beq	.L406
2240:Drivers/VL53L0X/API/vl53l0x_api.c **** 				&& (LoopNb < VL53L0X_DEFAULT_MAX_LOOP));
 5186              		.loc 1 2240 0
 5187 00a2 13B9     		cbnz	r3, .L406
2241:Drivers/VL53L0X/API/vl53l0x_api.c **** 
 5188              		.loc 1 2241 0
 5189 00a4 B5F5FA6F 		cmp	r5, #2000
 5190 00a8 EDD3     		bcc	.L407
 5191              	.L406:
2243:Drivers/VL53L0X/API/vl53l0x_api.c **** 				Status = VL53L0X_ERROR_TIME_OUT;
 5192              		.loc 1 2243 0
 5193 00aa B5F5FA6F 		cmp	r5, #2000
 5194 00ae DBD3     		bcc	.L401
2244:Drivers/VL53L0X/API/vl53l0x_api.c **** 
 5195              		.loc 1 2244 0
 5196 00b0 6FF00603 		mvn	r3, #6
 5197              	.LVL680:
 5198 00b4 D8E7     		b	.L401
 5199              	.LVL681:
 5200              	.L402:
2253:Drivers/VL53L0X/API/vl53l0x_api.c **** 			Status = VL53L0X_CheckAndLoadInterruptSettings(Dev, 1);
 5201              		.loc 1 2253 0
 5202 00b6 58B1     		cbz	r0, .L414
 5203              	.LVL682:
 5204              	.L408:
2256:Drivers/VL53L0X/API/vl53l0x_api.c **** 		VL53L0X_REG_SYSRANGE_START,
 5205              		.loc 1 2256 0
 5206 00b8 0222     		movs	r2, #2
 5207 00ba 0021     		movs	r1, #0
 5208 00bc 2046     		mov	r0, r4
 5209 00be FFF7FEFF 		bl	VL53L0X_WrByte
ARM GAS  /tmp/ccq7BpOX.s 			page 145


 5210              	.LVL683:
2259:Drivers/VL53L0X/API/vl53l0x_api.c **** 			/* Set PAL State to Running */
 5211              		.loc 1 2259 0
 5212 00c2 0346     		mov	r3, r0
 5213 00c4 0028     		cmp	r0, #0
 5214 00c6 CFD1     		bne	.L401
2261:Drivers/VL53L0X/API/vl53l0x_api.c **** 		}
 5215              		.loc 1 2261 0
 5216 00c8 0422     		movs	r2, #4
 5217 00ca 84F83221 		strb	r2, [r4, #306]
 5218 00ce CBE7     		b	.L401
 5219              	.L414:
2254:Drivers/VL53L0X/API/vl53l0x_api.c **** 
 5220              		.loc 1 2254 0
 5221 00d0 0121     		movs	r1, #1
 5222 00d2 2046     		mov	r0, r4
 5223              	.LVL684:
 5224 00d4 FFF7FEFF 		bl	VL53L0X_CheckAndLoadInterruptSettings
 5225              	.LVL685:
 5226 00d8 EEE7     		b	.L408
 5227              	.LVL686:
 5228              	.L404:
2267:Drivers/VL53L0X/API/vl53l0x_api.c **** 			Status = VL53L0X_CheckAndLoadInterruptSettings(Dev, 1);
 5229              		.loc 1 2267 0
 5230 00da 58B1     		cbz	r0, .L415
 5231              	.LVL687:
 5232              	.L409:
2270:Drivers/VL53L0X/API/vl53l0x_api.c **** 		VL53L0X_REG_SYSRANGE_START,
 5233              		.loc 1 2270 0
 5234 00dc 0422     		movs	r2, #4
 5235 00de 0021     		movs	r1, #0
 5236 00e0 2046     		mov	r0, r4
 5237 00e2 FFF7FEFF 		bl	VL53L0X_WrByte
 5238              	.LVL688:
2274:Drivers/VL53L0X/API/vl53l0x_api.c **** 			/* Set PAL State to Running */
 5239              		.loc 1 2274 0
 5240 00e6 0346     		mov	r3, r0
 5241 00e8 0028     		cmp	r0, #0
 5242 00ea BDD1     		bne	.L401
2276:Drivers/VL53L0X/API/vl53l0x_api.c **** 		}
 5243              		.loc 1 2276 0
 5244 00ec 0422     		movs	r2, #4
 5245 00ee 84F83221 		strb	r2, [r4, #306]
 5246 00f2 B9E7     		b	.L401
 5247              	.L415:
2268:Drivers/VL53L0X/API/vl53l0x_api.c **** 
 5248              		.loc 1 2268 0
 5249 00f4 0121     		movs	r1, #1
 5250 00f6 2046     		mov	r0, r4
 5251              	.LVL689:
 5252 00f8 FFF7FEFF 		bl	VL53L0X_CheckAndLoadInterruptSettings
 5253              	.LVL690:
 5254 00fc EEE7     		b	.L409
 5255              		.cfi_endproc
 5256              	.LFE199:
 5258              		.section	.text.VL53L0X_PerformSingleMeasurement,"ax",%progbits
 5259              		.align	1
ARM GAS  /tmp/ccq7BpOX.s 			page 146


 5260              		.global	VL53L0X_PerformSingleMeasurement
 5261              		.syntax unified
 5262              		.thumb
 5263              		.thumb_func
 5264              		.fpu fpv4-sp-d16
 5266              	VL53L0X_PerformSingleMeasurement:
 5267              	.LFB192:
2065:Drivers/VL53L0X/API/vl53l0x_api.c **** 	VL53L0X_Error Status = VL53L0X_ERROR_NONE;
 5268              		.loc 1 2065 0
 5269              		.cfi_startproc
 5270              		@ args = 0, pretend = 0, frame = 8
 5271              		@ frame_needed = 0, uses_anonymous_args = 0
 5272              	.LVL691:
 5273 0000 10B5     		push	{r4, lr}
 5274              	.LCFI126:
 5275              		.cfi_def_cfa_offset 8
 5276              		.cfi_offset 4, -8
 5277              		.cfi_offset 14, -4
 5278 0002 82B0     		sub	sp, sp, #8
 5279              	.LCFI127:
 5280              		.cfi_def_cfa_offset 16
 5281 0004 0446     		mov	r4, r0
 5282              	.LVL692:
2072:Drivers/VL53L0X/API/vl53l0x_api.c **** 
 5283              		.loc 1 2072 0
 5284 0006 0DF10701 		add	r1, sp, #7
 5285 000a FFF7FEFF 		bl	VL53L0X_GetDeviceMode
 5286              	.LVL693:
2076:Drivers/VL53L0X/API/vl53l0x_api.c **** 		&& DeviceMode == VL53L0X_DEVICEMODE_SINGLE_RANGING)
 5287              		.loc 1 2076 0
 5288 000e 0346     		mov	r3, r0
 5289 0010 10B9     		cbnz	r0, .L417
2077:Drivers/VL53L0X/API/vl53l0x_api.c **** 		Status = VL53L0X_StartMeasurement(Dev);
 5290              		.loc 1 2077 0
 5291 0012 9DF80720 		ldrb	r2, [sp, #7]	@ zero_extendqisi2
 5292 0016 52B1     		cbz	r2, .L421
 5293              	.LVL694:
 5294              	.L417:
2081:Drivers/VL53L0X/API/vl53l0x_api.c **** 		Status = VL53L0X_measurement_poll_for_completion(Dev);
 5295              		.loc 1 2081 0
 5296 0018 73B1     		cbz	r3, .L422
 5297              	.L418:
2086:Drivers/VL53L0X/API/vl53l0x_api.c **** 		&& DeviceMode == VL53L0X_DEVICEMODE_SINGLE_RANGING)
 5298              		.loc 1 2086 0
 5299 001a 2BB9     		cbnz	r3, .L419
2087:Drivers/VL53L0X/API/vl53l0x_api.c **** 		PALDevDataSet(Dev, PalState, VL53L0X_STATE_IDLE);
 5300              		.loc 1 2087 0
 5301 001c 9DF80720 		ldrb	r2, [sp, #7]	@ zero_extendqisi2
 5302 0020 12B9     		cbnz	r2, .L419
2088:Drivers/VL53L0X/API/vl53l0x_api.c **** 
 5303              		.loc 1 2088 0
 5304 0022 0322     		movs	r2, #3
 5305 0024 84F83221 		strb	r2, [r4, #306]
 5306              	.L419:
2093:Drivers/VL53L0X/API/vl53l0x_api.c **** 
 5307              		.loc 1 2093 0
 5308 0028 1846     		mov	r0, r3
ARM GAS  /tmp/ccq7BpOX.s 			page 147


 5309 002a 02B0     		add	sp, sp, #8
 5310              	.LCFI128:
 5311              		.cfi_remember_state
 5312              		.cfi_def_cfa_offset 8
 5313              		@ sp needed
 5314 002c 10BD     		pop	{r4, pc}
 5315              	.LVL695:
 5316              	.L421:
 5317              	.LCFI129:
 5318              		.cfi_restore_state
2078:Drivers/VL53L0X/API/vl53l0x_api.c **** 
 5319              		.loc 1 2078 0
 5320 002e 2046     		mov	r0, r4
 5321              	.LVL696:
 5322 0030 FFF7FEFF 		bl	VL53L0X_StartMeasurement
 5323              	.LVL697:
 5324 0034 0346     		mov	r3, r0
 5325              	.LVL698:
 5326 0036 EFE7     		b	.L417
 5327              	.L422:
2082:Drivers/VL53L0X/API/vl53l0x_api.c **** 
 5328              		.loc 1 2082 0
 5329 0038 2046     		mov	r0, r4
 5330 003a FFF7FEFF 		bl	VL53L0X_measurement_poll_for_completion
 5331              	.LVL699:
 5332 003e 0346     		mov	r3, r0
 5333              	.LVL700:
 5334 0040 EBE7     		b	.L418
 5335              		.cfi_endproc
 5336              	.LFE192:
 5338              		.section	.text.VL53L0X_StopMeasurement,"ax",%progbits
 5339              		.align	1
 5340              		.global	VL53L0X_StopMeasurement
 5341              		.syntax unified
 5342              		.thumb
 5343              		.thumb_func
 5344              		.fpu fpv4-sp-d16
 5346              	VL53L0X_StopMeasurement:
 5347              	.LFB200:
2290:Drivers/VL53L0X/API/vl53l0x_api.c **** 	VL53L0X_Error Status = VL53L0X_ERROR_NONE;
 5348              		.loc 1 2290 0
 5349              		.cfi_startproc
 5350              		@ args = 0, pretend = 0, frame = 0
 5351              		@ frame_needed = 0, uses_anonymous_args = 0
 5352              	.LVL701:
 5353 0000 10B5     		push	{r4, lr}
 5354              	.LCFI130:
 5355              		.cfi_def_cfa_offset 8
 5356              		.cfi_offset 4, -8
 5357              		.cfi_offset 14, -4
 5358 0002 0446     		mov	r4, r0
 5359              	.LVL702:
2294:Drivers/VL53L0X/API/vl53l0x_api.c **** 	VL53L0X_REG_SYSRANGE_MODE_SINGLESHOT);
 5360              		.loc 1 2294 0
 5361 0004 0022     		movs	r2, #0
 5362 0006 1146     		mov	r1, r2
 5363 0008 FFF7FEFF 		bl	VL53L0X_WrByte
ARM GAS  /tmp/ccq7BpOX.s 			page 148


 5364              	.LVL703:
2297:Drivers/VL53L0X/API/vl53l0x_api.c **** 	Status = VL53L0X_WrByte(Dev, 0x00, 0x00);
 5365              		.loc 1 2297 0
 5366 000c 0122     		movs	r2, #1
 5367 000e FF21     		movs	r1, #255
 5368 0010 2046     		mov	r0, r4
 5369 0012 FFF7FEFF 		bl	VL53L0X_WrByte
 5370              	.LVL704:
2298:Drivers/VL53L0X/API/vl53l0x_api.c **** 	Status = VL53L0X_WrByte(Dev, 0x91, 0x00);
 5371              		.loc 1 2298 0
 5372 0016 0022     		movs	r2, #0
 5373 0018 1146     		mov	r1, r2
 5374 001a 2046     		mov	r0, r4
 5375 001c FFF7FEFF 		bl	VL53L0X_WrByte
 5376              	.LVL705:
2299:Drivers/VL53L0X/API/vl53l0x_api.c **** 	Status = VL53L0X_WrByte(Dev, 0x00, 0x01);
 5377              		.loc 1 2299 0
 5378 0020 0022     		movs	r2, #0
 5379 0022 9121     		movs	r1, #145
 5380 0024 2046     		mov	r0, r4
 5381 0026 FFF7FEFF 		bl	VL53L0X_WrByte
 5382              	.LVL706:
2300:Drivers/VL53L0X/API/vl53l0x_api.c **** 	Status = VL53L0X_WrByte(Dev, 0xFF, 0x00);
 5383              		.loc 1 2300 0
 5384 002a 0122     		movs	r2, #1
 5385 002c 0021     		movs	r1, #0
 5386 002e 2046     		mov	r0, r4
 5387 0030 FFF7FEFF 		bl	VL53L0X_WrByte
 5388              	.LVL707:
2301:Drivers/VL53L0X/API/vl53l0x_api.c **** 
 5389              		.loc 1 2301 0
 5390 0034 0022     		movs	r2, #0
 5391 0036 FF21     		movs	r1, #255
 5392 0038 2046     		mov	r0, r4
 5393 003a FFF7FEFF 		bl	VL53L0X_WrByte
 5394              	.LVL708:
2303:Drivers/VL53L0X/API/vl53l0x_api.c **** 		/* Set PAL State to Idle */
 5395              		.loc 1 2303 0
 5396 003e 0346     		mov	r3, r0
 5397 0040 10B9     		cbnz	r0, .L424
2305:Drivers/VL53L0X/API/vl53l0x_api.c **** 	}
 5398              		.loc 1 2305 0
 5399 0042 0322     		movs	r2, #3
 5400 0044 84F83221 		strb	r2, [r4, #306]
 5401              	.L424:
2309:Drivers/VL53L0X/API/vl53l0x_api.c **** 		Status = VL53L0X_CheckAndLoadInterruptSettings(Dev, 0);
 5402              		.loc 1 2309 0
 5403 0048 0BB1     		cbz	r3, .L427
 5404              	.LVL709:
 5405              	.L425:
2314:Drivers/VL53L0X/API/vl53l0x_api.c **** 
 5406              		.loc 1 2314 0
 5407 004a 1846     		mov	r0, r3
 5408 004c 10BD     		pop	{r4, pc}
 5409              	.LVL710:
 5410              	.L427:
2310:Drivers/VL53L0X/API/vl53l0x_api.c **** 
ARM GAS  /tmp/ccq7BpOX.s 			page 149


 5411              		.loc 1 2310 0
 5412 004e 0021     		movs	r1, #0
 5413 0050 2046     		mov	r0, r4
 5414              	.LVL711:
 5415 0052 FFF7FEFF 		bl	VL53L0X_CheckAndLoadInterruptSettings
 5416              	.LVL712:
 5417 0056 0346     		mov	r3, r0
 5418              	.LVL713:
 5419 0058 F7E7     		b	.L425
 5420              		.cfi_endproc
 5421              	.LFE200:
 5423              		.section	.text.VL53L0X_GetStopCompletedStatus,"ax",%progbits
 5424              		.align	1
 5425              		.global	VL53L0X_GetStopCompletedStatus
 5426              		.syntax unified
 5427              		.thumb
 5428              		.thumb_func
 5429              		.fpu fpv4-sp-d16
 5431              	VL53L0X_GetStopCompletedStatus:
 5432              	.LFB214:
2835:Drivers/VL53L0X/API/vl53l0x_api.c **** 
2836:Drivers/VL53L0X/API/vl53l0x_api.c **** VL53L0X_Error VL53L0X_GetStopCompletedStatus(VL53L0X_DEV Dev,
2837:Drivers/VL53L0X/API/vl53l0x_api.c **** 	uint32_t *pStopStatus)
2838:Drivers/VL53L0X/API/vl53l0x_api.c **** {
 5433              		.loc 1 2838 0
 5434              		.cfi_startproc
 5435              		@ args = 0, pretend = 0, frame = 8
 5436              		@ frame_needed = 0, uses_anonymous_args = 0
 5437              	.LVL714:
 5438 0000 30B5     		push	{r4, r5, lr}
 5439              	.LCFI131:
 5440              		.cfi_def_cfa_offset 12
 5441              		.cfi_offset 4, -12
 5442              		.cfi_offset 5, -8
 5443              		.cfi_offset 14, -4
 5444 0002 83B0     		sub	sp, sp, #12
 5445              	.LCFI132:
 5446              		.cfi_def_cfa_offset 24
 5447 0004 0446     		mov	r4, r0
 5448 0006 0D46     		mov	r5, r1
 5449              	.LVL715:
2839:Drivers/VL53L0X/API/vl53l0x_api.c **** 	VL53L0X_Error Status = VL53L0X_ERROR_NONE;
2840:Drivers/VL53L0X/API/vl53l0x_api.c **** 	uint8_t Byte = 0;
 5450              		.loc 1 2840 0
 5451 0008 0023     		movs	r3, #0
 5452 000a 8DF80730 		strb	r3, [sp, #7]
2841:Drivers/VL53L0X/API/vl53l0x_api.c **** 	LOG_FUNCTION_START("");
2842:Drivers/VL53L0X/API/vl53l0x_api.c **** 
2843:Drivers/VL53L0X/API/vl53l0x_api.c **** 	Status = VL53L0X_WrByte(Dev, 0xFF, 0x01);
 5453              		.loc 1 2843 0
 5454 000e 0122     		movs	r2, #1
 5455 0010 FF21     		movs	r1, #255
 5456              	.LVL716:
 5457 0012 FFF7FEFF 		bl	VL53L0X_WrByte
 5458              	.LVL717:
2844:Drivers/VL53L0X/API/vl53l0x_api.c **** 
2845:Drivers/VL53L0X/API/vl53l0x_api.c **** 	if (Status == VL53L0X_ERROR_NONE)
ARM GAS  /tmp/ccq7BpOX.s 			page 150


 5459              		.loc 1 2845 0
 5460 0016 0346     		mov	r3, r0
 5461 0018 38B1     		cbz	r0, .L433
 5462              	.LVL718:
 5463              	.L429:
2846:Drivers/VL53L0X/API/vl53l0x_api.c **** 		Status = VL53L0X_RdByte(Dev, 0x04, &Byte);
2847:Drivers/VL53L0X/API/vl53l0x_api.c **** 
2848:Drivers/VL53L0X/API/vl53l0x_api.c **** 	if (Status == VL53L0X_ERROR_NONE)
 5464              		.loc 1 2848 0
 5465 001a 73B1     		cbz	r3, .L434
 5466              	.L430:
2849:Drivers/VL53L0X/API/vl53l0x_api.c **** 		Status = VL53L0X_WrByte(Dev, 0xFF, 0x0);
2850:Drivers/VL53L0X/API/vl53l0x_api.c **** 
2851:Drivers/VL53L0X/API/vl53l0x_api.c **** 	*pStopStatus = Byte;
 5467              		.loc 1 2851 0
 5468 001c 9DF80720 		ldrb	r2, [sp, #7]	@ zero_extendqisi2
 5469 0020 2A60     		str	r2, [r5]
2852:Drivers/VL53L0X/API/vl53l0x_api.c **** 
2853:Drivers/VL53L0X/API/vl53l0x_api.c **** 	if (Byte == 0) {
 5470              		.loc 1 2853 0
 5471 0022 8AB1     		cbz	r2, .L435
 5472              	.L431:
2854:Drivers/VL53L0X/API/vl53l0x_api.c **** 		Status = VL53L0X_WrByte(Dev, 0x80, 0x01);
2855:Drivers/VL53L0X/API/vl53l0x_api.c **** 		Status = VL53L0X_WrByte(Dev, 0xFF, 0x01);
2856:Drivers/VL53L0X/API/vl53l0x_api.c **** 		Status = VL53L0X_WrByte(Dev, 0x00, 0x00);
2857:Drivers/VL53L0X/API/vl53l0x_api.c **** 		Status = VL53L0X_WrByte(Dev, 0x91,
2858:Drivers/VL53L0X/API/vl53l0x_api.c **** 			PALDevDataGet(Dev, StopVariable));
2859:Drivers/VL53L0X/API/vl53l0x_api.c **** 		Status = VL53L0X_WrByte(Dev, 0x00, 0x01);
2860:Drivers/VL53L0X/API/vl53l0x_api.c **** 		Status = VL53L0X_WrByte(Dev, 0xFF, 0x00);
2861:Drivers/VL53L0X/API/vl53l0x_api.c **** 		Status = VL53L0X_WrByte(Dev, 0x80, 0x00);
2862:Drivers/VL53L0X/API/vl53l0x_api.c **** 	}
2863:Drivers/VL53L0X/API/vl53l0x_api.c **** 
2864:Drivers/VL53L0X/API/vl53l0x_api.c **** 	LOG_FUNCTION_END(Status);
2865:Drivers/VL53L0X/API/vl53l0x_api.c **** 	return Status;
2866:Drivers/VL53L0X/API/vl53l0x_api.c **** }
 5473              		.loc 1 2866 0
 5474 0024 1846     		mov	r0, r3
 5475 0026 03B0     		add	sp, sp, #12
 5476              	.LCFI133:
 5477              		.cfi_remember_state
 5478              		.cfi_def_cfa_offset 12
 5479              		@ sp needed
 5480 0028 30BD     		pop	{r4, r5, pc}
 5481              	.LVL719:
 5482              	.L433:
 5483              	.LCFI134:
 5484              		.cfi_restore_state
2846:Drivers/VL53L0X/API/vl53l0x_api.c **** 
 5485              		.loc 1 2846 0
 5486 002a 0DF10702 		add	r2, sp, #7
 5487 002e 0421     		movs	r1, #4
 5488 0030 2046     		mov	r0, r4
 5489              	.LVL720:
 5490 0032 FFF7FEFF 		bl	VL53L0X_RdByte
 5491              	.LVL721:
 5492 0036 0346     		mov	r3, r0
 5493              	.LVL722:
ARM GAS  /tmp/ccq7BpOX.s 			page 151


 5494 0038 EFE7     		b	.L429
 5495              	.L434:
2849:Drivers/VL53L0X/API/vl53l0x_api.c **** 
 5496              		.loc 1 2849 0
 5497 003a 0022     		movs	r2, #0
 5498 003c FF21     		movs	r1, #255
 5499 003e 2046     		mov	r0, r4
 5500 0040 FFF7FEFF 		bl	VL53L0X_WrByte
 5501              	.LVL723:
 5502 0044 0346     		mov	r3, r0
 5503              	.LVL724:
 5504 0046 E9E7     		b	.L430
 5505              	.L435:
2854:Drivers/VL53L0X/API/vl53l0x_api.c **** 		Status = VL53L0X_WrByte(Dev, 0x80, 0x01);
 5506              		.loc 1 2854 0
 5507 0048 0122     		movs	r2, #1
 5508 004a 8021     		movs	r1, #128
 5509 004c 2046     		mov	r0, r4
 5510 004e FFF7FEFF 		bl	VL53L0X_WrByte
 5511              	.LVL725:
2855:Drivers/VL53L0X/API/vl53l0x_api.c **** 		Status = VL53L0X_WrByte(Dev, 0x00, 0x00);
 5512              		.loc 1 2855 0
 5513 0052 0122     		movs	r2, #1
 5514 0054 FF21     		movs	r1, #255
 5515 0056 2046     		mov	r0, r4
 5516 0058 FFF7FEFF 		bl	VL53L0X_WrByte
 5517              	.LVL726:
2856:Drivers/VL53L0X/API/vl53l0x_api.c **** 		Status = VL53L0X_WrByte(Dev, 0x91,
 5518              		.loc 1 2856 0
 5519 005c 0022     		movs	r2, #0
 5520 005e 1146     		mov	r1, r2
 5521 0060 2046     		mov	r0, r4
 5522 0062 FFF7FEFF 		bl	VL53L0X_WrByte
 5523              	.LVL727:
2857:Drivers/VL53L0X/API/vl53l0x_api.c **** 			PALDevDataGet(Dev, StopVariable));
 5524              		.loc 1 2857 0
 5525 0066 94F83A21 		ldrb	r2, [r4, #314]	@ zero_extendqisi2
 5526 006a 9121     		movs	r1, #145
 5527 006c 2046     		mov	r0, r4
 5528 006e FFF7FEFF 		bl	VL53L0X_WrByte
 5529              	.LVL728:
2859:Drivers/VL53L0X/API/vl53l0x_api.c **** 		Status = VL53L0X_WrByte(Dev, 0xFF, 0x00);
 5530              		.loc 1 2859 0
 5531 0072 0122     		movs	r2, #1
 5532 0074 0021     		movs	r1, #0
 5533 0076 2046     		mov	r0, r4
 5534 0078 FFF7FEFF 		bl	VL53L0X_WrByte
 5535              	.LVL729:
2860:Drivers/VL53L0X/API/vl53l0x_api.c **** 		Status = VL53L0X_WrByte(Dev, 0x80, 0x00);
 5536              		.loc 1 2860 0
 5537 007c 0022     		movs	r2, #0
 5538 007e FF21     		movs	r1, #255
 5539 0080 2046     		mov	r0, r4
 5540 0082 FFF7FEFF 		bl	VL53L0X_WrByte
 5541              	.LVL730:
2861:Drivers/VL53L0X/API/vl53l0x_api.c **** 	}
 5542              		.loc 1 2861 0
ARM GAS  /tmp/ccq7BpOX.s 			page 152


 5543 0086 0022     		movs	r2, #0
 5544 0088 8021     		movs	r1, #128
 5545 008a 2046     		mov	r0, r4
 5546 008c FFF7FEFF 		bl	VL53L0X_WrByte
 5547              	.LVL731:
 5548 0090 0346     		mov	r3, r0
 5549              	.LVL732:
 5550 0092 C7E7     		b	.L431
 5551              		.cfi_endproc
 5552              	.LFE214:
 5554              		.section	.text.VL53L0X_ClearInterruptMask,"ax",%progbits
 5555              		.align	1
 5556              		.global	VL53L0X_ClearInterruptMask
 5557              		.syntax unified
 5558              		.thumb
 5559              		.thumb_func
 5560              		.fpu fpv4-sp-d16
 5562              	VL53L0X_ClearInterruptMask:
 5563              	.LFB215:
2867:Drivers/VL53L0X/API/vl53l0x_api.c **** 
2868:Drivers/VL53L0X/API/vl53l0x_api.c **** /* Group PAL Interrupt Functions */
2869:Drivers/VL53L0X/API/vl53l0x_api.c **** VL53L0X_Error VL53L0X_ClearInterruptMask(VL53L0X_DEV Dev, uint32_t InterruptMask)
2870:Drivers/VL53L0X/API/vl53l0x_api.c **** {
 5564              		.loc 1 2870 0
 5565              		.cfi_startproc
 5566              		@ args = 0, pretend = 0, frame = 8
 5567              		@ frame_needed = 0, uses_anonymous_args = 0
 5568              	.LVL733:
 5569 0000 70B5     		push	{r4, r5, r6, lr}
 5570              	.LCFI135:
 5571              		.cfi_def_cfa_offset 16
 5572              		.cfi_offset 4, -16
 5573              		.cfi_offset 5, -12
 5574              		.cfi_offset 6, -8
 5575              		.cfi_offset 14, -4
 5576 0002 82B0     		sub	sp, sp, #8
 5577              	.LCFI136:
 5578              		.cfi_def_cfa_offset 24
 5579 0004 0646     		mov	r6, r0
 5580              	.LVL734:
2871:Drivers/VL53L0X/API/vl53l0x_api.c **** 	VL53L0X_Error Status = VL53L0X_ERROR_NONE;
2872:Drivers/VL53L0X/API/vl53l0x_api.c **** 	uint8_t LoopCount;
2873:Drivers/VL53L0X/API/vl53l0x_api.c **** 	uint8_t Byte;
2874:Drivers/VL53L0X/API/vl53l0x_api.c **** 	LOG_FUNCTION_START("");
2875:Drivers/VL53L0X/API/vl53l0x_api.c **** 
2876:Drivers/VL53L0X/API/vl53l0x_api.c **** 	/* clear bit 0 range interrupt, bit 1 error interrupt */
2877:Drivers/VL53L0X/API/vl53l0x_api.c **** 	LoopCount = 0;
 5581              		.loc 1 2877 0
 5582 0006 0025     		movs	r5, #0
 5583              	.LVL735:
 5584              	.L438:
2878:Drivers/VL53L0X/API/vl53l0x_api.c **** 	do {
2879:Drivers/VL53L0X/API/vl53l0x_api.c **** 		Status = VL53L0X_WrByte(Dev,
 5585              		.loc 1 2879 0 discriminator 1
 5586 0008 0122     		movs	r2, #1
 5587 000a 0B21     		movs	r1, #11
 5588 000c 3046     		mov	r0, r6
ARM GAS  /tmp/ccq7BpOX.s 			page 153


 5589 000e FFF7FEFF 		bl	VL53L0X_WrByte
 5590              	.LVL736:
 5591 0012 0446     		mov	r4, r0
 5592              	.LVL737:
2880:Drivers/VL53L0X/API/vl53l0x_api.c **** 			VL53L0X_REG_SYSTEM_INTERRUPT_CLEAR, 0x01);
2881:Drivers/VL53L0X/API/vl53l0x_api.c **** 		Status |= VL53L0X_WrByte(Dev,
 5593              		.loc 1 2881 0 discriminator 1
 5594 0014 0022     		movs	r2, #0
 5595 0016 0B21     		movs	r1, #11
 5596 0018 3046     		mov	r0, r6
 5597 001a FFF7FEFF 		bl	VL53L0X_WrByte
 5598              	.LVL738:
 5599 001e 0443     		orrs	r4, r4, r0
 5600              	.LVL739:
 5601 0020 64B2     		sxtb	r4, r4
 5602              	.LVL740:
2882:Drivers/VL53L0X/API/vl53l0x_api.c **** 			VL53L0X_REG_SYSTEM_INTERRUPT_CLEAR, 0x00);
2883:Drivers/VL53L0X/API/vl53l0x_api.c **** 		Status |= VL53L0X_RdByte(Dev,
 5603              		.loc 1 2883 0 discriminator 1
 5604 0022 0DF10702 		add	r2, sp, #7
 5605 0026 1321     		movs	r1, #19
 5606 0028 3046     		mov	r0, r6
 5607 002a FFF7FEFF 		bl	VL53L0X_RdByte
 5608              	.LVL741:
 5609 002e 2043     		orrs	r0, r0, r4
 5610 0030 40B2     		sxtb	r0, r0
 5611              	.LVL742:
2884:Drivers/VL53L0X/API/vl53l0x_api.c **** 			VL53L0X_REG_RESULT_INTERRUPT_STATUS, &Byte);
2885:Drivers/VL53L0X/API/vl53l0x_api.c **** 		LoopCount++;
 5612              		.loc 1 2885 0 discriminator 1
 5613 0032 0135     		adds	r5, r5, #1
 5614              	.LVL743:
 5615 0034 EDB2     		uxtb	r5, r5
 5616              	.LVL744:
2886:Drivers/VL53L0X/API/vl53l0x_api.c **** 	} while (((Byte & 0x07) != 0x00)
 5617              		.loc 1 2886 0 discriminator 1
 5618 0036 9DF80730 		ldrb	r3, [sp, #7]	@ zero_extendqisi2
2887:Drivers/VL53L0X/API/vl53l0x_api.c **** 			&& (LoopCount < 3)
2888:Drivers/VL53L0X/API/vl53l0x_api.c **** 			&& (Status == VL53L0X_ERROR_NONE));
 5619              		.loc 1 2888 0 discriminator 1
 5620 003a 13F0070F 		tst	r3, #7
 5621 003e 03D0     		beq	.L437
2887:Drivers/VL53L0X/API/vl53l0x_api.c **** 			&& (LoopCount < 3)
 5622              		.loc 1 2887 0
 5623 0040 022D     		cmp	r5, #2
 5624 0042 01D8     		bhi	.L437
 5625              		.loc 1 2888 0
 5626 0044 0028     		cmp	r0, #0
 5627 0046 DFD0     		beq	.L438
 5628              	.L437:
2889:Drivers/VL53L0X/API/vl53l0x_api.c **** 
2890:Drivers/VL53L0X/API/vl53l0x_api.c **** 
2891:Drivers/VL53L0X/API/vl53l0x_api.c **** 	if (LoopCount >= 3)
 5629              		.loc 1 2891 0
 5630 0048 022D     		cmp	r5, #2
 5631 004a 01D8     		bhi	.L442
 5632              	.LVL745:
ARM GAS  /tmp/ccq7BpOX.s 			page 154


 5633              	.L439:
2892:Drivers/VL53L0X/API/vl53l0x_api.c **** 		Status = VL53L0X_ERROR_INTERRUPT_NOT_CLEARED;
2893:Drivers/VL53L0X/API/vl53l0x_api.c **** 
2894:Drivers/VL53L0X/API/vl53l0x_api.c **** 	LOG_FUNCTION_END(Status);
2895:Drivers/VL53L0X/API/vl53l0x_api.c **** 	return Status;
2896:Drivers/VL53L0X/API/vl53l0x_api.c **** }
 5634              		.loc 1 2896 0
 5635 004c 02B0     		add	sp, sp, #8
 5636              	.LCFI137:
 5637              		.cfi_remember_state
 5638              		.cfi_def_cfa_offset 16
 5639              		@ sp needed
 5640 004e 70BD     		pop	{r4, r5, r6, pc}
 5641              	.LVL746:
 5642              	.L442:
 5643              	.LCFI138:
 5644              		.cfi_restore_state
2892:Drivers/VL53L0X/API/vl53l0x_api.c **** 		Status = VL53L0X_ERROR_INTERRUPT_NOT_CLEARED;
 5645              		.loc 1 2892 0
 5646 0050 6FF00B00 		mvn	r0, #11
 5647              	.LVL747:
 5648 0054 FAE7     		b	.L439
 5649              		.cfi_endproc
 5650              	.LFE215:
 5652              		.section	.text.VL53L0X_PerformSingleRangingMeasurement,"ax",%progbits
 5653              		.align	1
 5654              		.global	VL53L0X_PerformSingleRangingMeasurement
 5655              		.syntax unified
 5656              		.thumb
 5657              		.thumb_func
 5658              		.fpu fpv4-sp-d16
 5660              	VL53L0X_PerformSingleRangingMeasurement:
 5661              	.LFB206:
2551:Drivers/VL53L0X/API/vl53l0x_api.c **** 	VL53L0X_Error Status = VL53L0X_ERROR_NONE;
 5662              		.loc 1 2551 0
 5663              		.cfi_startproc
 5664              		@ args = 0, pretend = 0, frame = 0
 5665              		@ frame_needed = 0, uses_anonymous_args = 0
 5666              	.LVL748:
 5667 0000 38B5     		push	{r3, r4, r5, lr}
 5668              	.LCFI139:
 5669              		.cfi_def_cfa_offset 16
 5670              		.cfi_offset 3, -16
 5671              		.cfi_offset 4, -12
 5672              		.cfi_offset 5, -8
 5673              		.cfi_offset 14, -4
 5674 0002 0446     		mov	r4, r0
 5675 0004 0D46     		mov	r5, r1
 5676              	.LVL749:
2558:Drivers/VL53L0X/API/vl53l0x_api.c **** 
 5677              		.loc 1 2558 0
 5678 0006 0021     		movs	r1, #0
 5679              	.LVL750:
 5680 0008 FFF7FEFF 		bl	VL53L0X_SetDeviceMode
 5681              	.LVL751:
2560:Drivers/VL53L0X/API/vl53l0x_api.c **** 		Status = VL53L0X_PerformSingleMeasurement(Dev);
 5682              		.loc 1 2560 0
ARM GAS  /tmp/ccq7BpOX.s 			page 155


 5683 000c 0346     		mov	r3, r0
 5684 000e 18B1     		cbz	r0, .L448
 5685              	.LVL752:
 5686              	.L444:
2564:Drivers/VL53L0X/API/vl53l0x_api.c **** 		Status = VL53L0X_GetRangingMeasurementData(Dev,
 5687              		.loc 1 2564 0
 5688 0010 3BB1     		cbz	r3, .L449
 5689              	.L445:
2569:Drivers/VL53L0X/API/vl53l0x_api.c **** 		Status = VL53L0X_ClearInterruptMask(Dev, 0);
 5690              		.loc 1 2569 0
 5691 0012 63B1     		cbz	r3, .L450
 5692              	.L446:
2575:Drivers/VL53L0X/API/vl53l0x_api.c **** 
 5693              		.loc 1 2575 0
 5694 0014 1846     		mov	r0, r3
 5695 0016 38BD     		pop	{r3, r4, r5, pc}
 5696              	.LVL753:
 5697              	.L448:
2561:Drivers/VL53L0X/API/vl53l0x_api.c **** 
 5698              		.loc 1 2561 0
 5699 0018 2046     		mov	r0, r4
 5700              	.LVL754:
 5701 001a FFF7FEFF 		bl	VL53L0X_PerformSingleMeasurement
 5702              	.LVL755:
 5703 001e 0346     		mov	r3, r0
 5704              	.LVL756:
 5705 0020 F6E7     		b	.L444
 5706              	.L449:
2565:Drivers/VL53L0X/API/vl53l0x_api.c **** 			pRangingMeasurementData);
 5707              		.loc 1 2565 0
 5708 0022 2946     		mov	r1, r5
 5709 0024 2046     		mov	r0, r4
 5710 0026 FFF7FEFF 		bl	VL53L0X_GetRangingMeasurementData
 5711              	.LVL757:
 5712 002a 0346     		mov	r3, r0
 5713              	.LVL758:
 5714 002c F1E7     		b	.L445
 5715              	.L450:
2570:Drivers/VL53L0X/API/vl53l0x_api.c **** 
 5716              		.loc 1 2570 0
 5717 002e 0021     		movs	r1, #0
 5718 0030 2046     		mov	r0, r4
 5719 0032 FFF7FEFF 		bl	VL53L0X_ClearInterruptMask
 5720              	.LVL759:
 5721 0036 0346     		mov	r3, r0
 5722              	.LVL760:
 5723 0038 ECE7     		b	.L446
 5724              		.cfi_endproc
 5725              	.LFE206:
 5727              		.section	.text.VL53L0X_SetGpioConfig,"ax",%progbits
 5728              		.align	1
 5729              		.global	VL53L0X_SetGpioConfig
 5730              		.syntax unified
 5731              		.thumb
 5732              		.thumb_func
 5733              		.fpu fpv4-sp-d16
 5735              	VL53L0X_SetGpioConfig:
ARM GAS  /tmp/ccq7BpOX.s 			page 156


 5736              	.LFB210:
2623:Drivers/VL53L0X/API/vl53l0x_api.c **** 	VL53L0X_Error Status = VL53L0X_ERROR_NONE;
 5737              		.loc 1 2623 0
 5738              		.cfi_startproc
 5739              		@ args = 4, pretend = 0, frame = 0
 5740              		@ frame_needed = 0, uses_anonymous_args = 0
 5741              	.LVL761:
 5742 0000 F8B5     		push	{r3, r4, r5, r6, r7, lr}
 5743              	.LCFI140:
 5744              		.cfi_def_cfa_offset 24
 5745              		.cfi_offset 3, -24
 5746              		.cfi_offset 4, -20
 5747              		.cfi_offset 5, -16
 5748              		.cfi_offset 6, -12
 5749              		.cfi_offset 7, -8
 5750              		.cfi_offset 14, -4
 5751 0002 9DF81860 		ldrb	r6, [sp, #24]	@ zero_extendqisi2
 5752              	.LVL762:
2629:Drivers/VL53L0X/API/vl53l0x_api.c **** 		Status = VL53L0X_ERROR_GPIO_NOT_EXISTING;
 5753              		.loc 1 2629 0
 5754 0006 0029     		cmp	r1, #0
 5755 0008 40F0A380 		bne	.L466
 5756 000c 0546     		mov	r5, r0
 5757 000e 1C46     		mov	r4, r3
 5758 0010 0F46     		mov	r7, r1
2631:Drivers/VL53L0X/API/vl53l0x_api.c **** 		if (Polarity == VL53L0X_INTERRUPTPOLARITY_LOW)
 5759              		.loc 1 2631 0
 5760 0012 142A     		cmp	r2, #20
 5761 0014 09D0     		beq	.L472
2640:Drivers/VL53L0X/API/vl53l0x_api.c **** 
 5762              		.loc 1 2640 0
 5763 0016 152A     		cmp	r2, #21
 5764 0018 10D0     		beq	.L473
2666:Drivers/VL53L0X/API/vl53l0x_api.c **** 			case VL53L0X_GPIOFUNCTIONALITY_OFF:
 5765              		.loc 1 2666 0
 5766 001a 042C     		cmp	r4, #4
 5767 001c 00F29180 		bhi	.L468
 5768 0020 DFE804F0 		tbb	[pc, r4]
 5769              	.LVL763:
 5770              	.L458:
 5771 0024 7A       		.byte	(.L457-.L458)/2
 5772 0025 78       		.byte	(.L459-.L458)/2
 5773 0026 76       		.byte	(.L460-.L458)/2
 5774 0027 7C       		.byte	(.L469-.L458)/2
 5775 0028 74       		.byte	(.L462-.L458)/2
 5776 0029 00       		.p2align 1
 5777              	.L472:
2632:Drivers/VL53L0X/API/vl53l0x_api.c **** 			data = 0x10;
 5778              		.loc 1 2632 0
 5779 002a 2EB1     		cbz	r6, .L474
2635:Drivers/VL53L0X/API/vl53l0x_api.c **** 
 5780              		.loc 1 2635 0
 5781 002c 0122     		movs	r2, #1
 5782              	.LVL764:
 5783              	.L454:
2637:Drivers/VL53L0X/API/vl53l0x_api.c **** 		VL53L0X_REG_GPIO_HV_MUX_ACTIVE_HIGH, data);
 5784              		.loc 1 2637 0
ARM GAS  /tmp/ccq7BpOX.s 			page 157


 5785 002e 8421     		movs	r1, #132
 5786              	.LVL765:
 5787 0030 2846     		mov	r0, r5
 5788              	.LVL766:
 5789 0032 FFF7FEFF 		bl	VL53L0X_WrByte
 5790              	.LVL767:
 5791 0036 83E0     		b	.L452
 5792              	.LVL768:
 5793              	.L474:
2633:Drivers/VL53L0X/API/vl53l0x_api.c **** 		else
 5794              		.loc 1 2633 0
 5795 0038 1022     		movs	r2, #16
 5796              	.LVL769:
 5797 003a F8E7     		b	.L454
 5798              	.LVL770:
 5799              	.L473:
2642:Drivers/VL53L0X/API/vl53l0x_api.c **** 		Status |= VL53L0X_WrByte(Dev, 0x00, 0x00);
 5800              		.loc 1 2642 0
 5801 003c 0122     		movs	r2, #1
 5802              	.LVL771:
 5803 003e FF21     		movs	r1, #255
 5804              	.LVL772:
 5805 0040 FFF7FEFF 		bl	VL53L0X_WrByte
 5806              	.LVL773:
 5807 0044 0446     		mov	r4, r0
 5808              	.LVL774:
2643:Drivers/VL53L0X/API/vl53l0x_api.c **** 
 5809              		.loc 1 2643 0
 5810 0046 0022     		movs	r2, #0
 5811 0048 1146     		mov	r1, r2
 5812 004a 2846     		mov	r0, r5
 5813 004c FFF7FEFF 		bl	VL53L0X_WrByte
 5814              	.LVL775:
 5815 0050 0443     		orrs	r4, r4, r0
 5816              	.LVL776:
 5817 0052 64B2     		sxtb	r4, r4
 5818              	.LVL777:
2645:Drivers/VL53L0X/API/vl53l0x_api.c **** 		Status |= VL53L0X_WrByte(Dev, 0x80, 0x01);
 5819              		.loc 1 2645 0
 5820 0054 0022     		movs	r2, #0
 5821 0056 FF21     		movs	r1, #255
 5822 0058 2846     		mov	r0, r5
 5823 005a FFF7FEFF 		bl	VL53L0X_WrByte
 5824              	.LVL778:
 5825 005e 0443     		orrs	r4, r4, r0
 5826              	.LVL779:
 5827 0060 64B2     		sxtb	r4, r4
 5828              	.LVL780:
2646:Drivers/VL53L0X/API/vl53l0x_api.c **** 		Status |= VL53L0X_WrByte(Dev, 0x85, 0x02);
 5829              		.loc 1 2646 0
 5830 0062 0122     		movs	r2, #1
 5831 0064 8021     		movs	r1, #128
 5832 0066 2846     		mov	r0, r5
 5833 0068 FFF7FEFF 		bl	VL53L0X_WrByte
 5834              	.LVL781:
 5835 006c 0443     		orrs	r4, r4, r0
 5836              	.LVL782:
ARM GAS  /tmp/ccq7BpOX.s 			page 158


 5837 006e 64B2     		sxtb	r4, r4
 5838              	.LVL783:
2647:Drivers/VL53L0X/API/vl53l0x_api.c **** 
 5839              		.loc 1 2647 0
 5840 0070 0222     		movs	r2, #2
 5841 0072 8521     		movs	r1, #133
 5842 0074 2846     		mov	r0, r5
 5843 0076 FFF7FEFF 		bl	VL53L0X_WrByte
 5844              	.LVL784:
 5845 007a 0443     		orrs	r4, r4, r0
 5846              	.LVL785:
 5847 007c 64B2     		sxtb	r4, r4
 5848              	.LVL786:
2649:Drivers/VL53L0X/API/vl53l0x_api.c **** 		Status |= VL53L0X_WrByte(Dev, 0xcd, 0x00);
 5849              		.loc 1 2649 0
 5850 007e 0422     		movs	r2, #4
 5851 0080 FF21     		movs	r1, #255
 5852 0082 2846     		mov	r0, r5
 5853 0084 FFF7FEFF 		bl	VL53L0X_WrByte
 5854              	.LVL787:
 5855 0088 0443     		orrs	r4, r4, r0
 5856              	.LVL788:
 5857 008a 64B2     		sxtb	r4, r4
 5858              	.LVL789:
2650:Drivers/VL53L0X/API/vl53l0x_api.c **** 		Status |= VL53L0X_WrByte(Dev, 0xcc, 0x11);
 5859              		.loc 1 2650 0
 5860 008c 0022     		movs	r2, #0
 5861 008e CD21     		movs	r1, #205
 5862 0090 2846     		mov	r0, r5
 5863 0092 FFF7FEFF 		bl	VL53L0X_WrByte
 5864              	.LVL790:
 5865 0096 0443     		orrs	r4, r4, r0
 5866              	.LVL791:
 5867 0098 64B2     		sxtb	r4, r4
 5868              	.LVL792:
2651:Drivers/VL53L0X/API/vl53l0x_api.c **** 
 5869              		.loc 1 2651 0
 5870 009a 1122     		movs	r2, #17
 5871 009c CC21     		movs	r1, #204
 5872 009e 2846     		mov	r0, r5
 5873 00a0 FFF7FEFF 		bl	VL53L0X_WrByte
 5874              	.LVL793:
 5875 00a4 0443     		orrs	r4, r4, r0
 5876              	.LVL794:
 5877 00a6 64B2     		sxtb	r4, r4
 5878              	.LVL795:
2653:Drivers/VL53L0X/API/vl53l0x_api.c **** 		Status |= VL53L0X_WrByte(Dev, 0xbe, 0x00);
 5879              		.loc 1 2653 0
 5880 00a8 0722     		movs	r2, #7
 5881 00aa FF21     		movs	r1, #255
 5882 00ac 2846     		mov	r0, r5
 5883 00ae FFF7FEFF 		bl	VL53L0X_WrByte
 5884              	.LVL796:
 5885 00b2 0443     		orrs	r4, r4, r0
 5886              	.LVL797:
 5887 00b4 64B2     		sxtb	r4, r4
 5888              	.LVL798:
ARM GAS  /tmp/ccq7BpOX.s 			page 159


2654:Drivers/VL53L0X/API/vl53l0x_api.c **** 
 5889              		.loc 1 2654 0
 5890 00b6 0022     		movs	r2, #0
 5891 00b8 BE21     		movs	r1, #190
 5892 00ba 2846     		mov	r0, r5
 5893 00bc FFF7FEFF 		bl	VL53L0X_WrByte
 5894              	.LVL799:
 5895 00c0 0443     		orrs	r4, r4, r0
 5896              	.LVL800:
 5897 00c2 64B2     		sxtb	r4, r4
 5898              	.LVL801:
2656:Drivers/VL53L0X/API/vl53l0x_api.c **** 		Status |= VL53L0X_WrByte(Dev, 0xcc, 0x09);
 5899              		.loc 1 2656 0
 5900 00c4 0622     		movs	r2, #6
 5901 00c6 FF21     		movs	r1, #255
 5902 00c8 2846     		mov	r0, r5
 5903 00ca FFF7FEFF 		bl	VL53L0X_WrByte
 5904              	.LVL802:
 5905 00ce 0443     		orrs	r4, r4, r0
 5906              	.LVL803:
 5907 00d0 64B2     		sxtb	r4, r4
 5908              	.LVL804:
2657:Drivers/VL53L0X/API/vl53l0x_api.c **** 
 5909              		.loc 1 2657 0
 5910 00d2 0922     		movs	r2, #9
 5911 00d4 CC21     		movs	r1, #204
 5912 00d6 2846     		mov	r0, r5
 5913 00d8 FFF7FEFF 		bl	VL53L0X_WrByte
 5914              	.LVL805:
 5915 00dc 0443     		orrs	r4, r4, r0
 5916              	.LVL806:
 5917 00de 64B2     		sxtb	r4, r4
 5918              	.LVL807:
2659:Drivers/VL53L0X/API/vl53l0x_api.c **** 		Status |= VL53L0X_WrByte(Dev, 0xff, 0x01);
 5919              		.loc 1 2659 0
 5920 00e0 0022     		movs	r2, #0
 5921 00e2 FF21     		movs	r1, #255
 5922 00e4 2846     		mov	r0, r5
 5923 00e6 FFF7FEFF 		bl	VL53L0X_WrByte
 5924              	.LVL808:
 5925 00ea 0443     		orrs	r4, r4, r0
 5926              	.LVL809:
 5927 00ec 64B2     		sxtb	r4, r4
 5928              	.LVL810:
2660:Drivers/VL53L0X/API/vl53l0x_api.c **** 		Status |= VL53L0X_WrByte(Dev, 0x00, 0x00);
 5929              		.loc 1 2660 0
 5930 00ee 0122     		movs	r2, #1
 5931 00f0 FF21     		movs	r1, #255
 5932 00f2 2846     		mov	r0, r5
 5933 00f4 FFF7FEFF 		bl	VL53L0X_WrByte
 5934              	.LVL811:
 5935 00f8 0443     		orrs	r4, r4, r0
 5936              	.LVL812:
 5937 00fa 64B2     		sxtb	r4, r4
 5938              	.LVL813:
2661:Drivers/VL53L0X/API/vl53l0x_api.c **** 
 5939              		.loc 1 2661 0
ARM GAS  /tmp/ccq7BpOX.s 			page 160


 5940 00fc 0022     		movs	r2, #0
 5941 00fe 1146     		mov	r1, r2
 5942 0100 2846     		mov	r0, r5
 5943 0102 FFF7FEFF 		bl	VL53L0X_WrByte
 5944              	.LVL814:
 5945 0106 2043     		orrs	r0, r0, r4
 5946 0108 40B2     		sxtb	r0, r0
 5947              	.LVL815:
 5948 010a 19E0     		b	.L452
 5949              	.LVL816:
 5950              	.L462:
2680:Drivers/VL53L0X/API/vl53l0x_api.c **** 				break;
 5951              		.loc 1 2680 0
 5952 010c 0422     		movs	r2, #4
 5953              	.LVL817:
 5954 010e 06E0     		b	.L461
 5955              	.LVL818:
 5956              	.L460:
2674:Drivers/VL53L0X/API/vl53l0x_api.c **** 				break;
 5957              		.loc 1 2674 0
 5958 0110 0222     		movs	r2, #2
 5959              	.LVL819:
 5960 0112 04E0     		b	.L461
 5961              	.LVL820:
 5962              	.L459:
2671:Drivers/VL53L0X/API/vl53l0x_api.c **** 				break;
 5963              		.loc 1 2671 0
 5964 0114 0122     		movs	r2, #1
 5965              	.LVL821:
 5966 0116 02E0     		b	.L461
 5967              	.LVL822:
 5968              	.L457:
2668:Drivers/VL53L0X/API/vl53l0x_api.c **** 				break;
 5969              		.loc 1 2668 0
 5970 0118 0A46     		mov	r2, r1
 5971              	.LVL823:
 5972 011a 00E0     		b	.L461
 5973              	.LVL824:
 5974              	.L469:
2677:Drivers/VL53L0X/API/vl53l0x_api.c **** 				break;
 5975              		.loc 1 2677 0
 5976 011c 0322     		movs	r2, #3
 5977              	.LVL825:
 5978              	.L461:
2689:Drivers/VL53L0X/API/vl53l0x_api.c **** 			VL53L0X_REG_SYSTEM_INTERRUPT_CONFIG_GPIO, data);
 5979              		.loc 1 2689 0
 5980 011e 0A21     		movs	r1, #10
 5981              	.LVL826:
 5982 0120 2846     		mov	r0, r5
 5983              	.LVL827:
 5984 0122 FFF7FEFF 		bl	VL53L0X_WrByte
 5985              	.LVL828:
 5986              	.L456:
2692:Drivers/VL53L0X/API/vl53l0x_api.c **** 			if (Polarity == VL53L0X_INTERRUPTPOLARITY_LOW)
 5987              		.loc 1 2692 0
 5988 0126 38B9     		cbnz	r0, .L463
2693:Drivers/VL53L0X/API/vl53l0x_api.c **** 				data = 0;
ARM GAS  /tmp/ccq7BpOX.s 			page 161


 5989              		.loc 1 2693 0
 5990 0128 06B1     		cbz	r6, .L464
2696:Drivers/VL53L0X/API/vl53l0x_api.c **** 
 5991              		.loc 1 2696 0
 5992 012a 1027     		movs	r7, #16
 5993              	.L464:
 5994              	.LVL829:
2698:Drivers/VL53L0X/API/vl53l0x_api.c **** 			VL53L0X_REG_GPIO_HV_MUX_ACTIVE_HIGH, 0xEF, data);
 5995              		.loc 1 2698 0
 5996 012c 3B46     		mov	r3, r7
 5997 012e EF22     		movs	r2, #239
 5998 0130 8421     		movs	r1, #132
 5999 0132 2846     		mov	r0, r5
 6000              	.LVL830:
 6001 0134 FFF7FEFF 		bl	VL53L0X_UpdateByte
 6002              	.LVL831:
 6003              	.L463:
2702:Drivers/VL53L0X/API/vl53l0x_api.c **** 			VL53L0X_SETDEVICESPECIFICPARAMETER(Dev,
 6004              		.loc 1 2702 0
 6005 0138 08B9     		cbnz	r0, .L465
2703:Drivers/VL53L0X/API/vl53l0x_api.c **** 				Pin0GpioFunctionality, Functionality);
 6006              		.loc 1 2703 0
 6007 013a 85F8DA40 		strb	r4, [r5, #218]
 6008              	.L465:
2706:Drivers/VL53L0X/API/vl53l0x_api.c **** 			Status = VL53L0X_ClearInterruptMask(Dev, 0);
 6009              		.loc 1 2706 0
 6010 013e 18B1     		cbz	r0, .L475
 6011              	.LVL832:
 6012              	.L452:
2713:Drivers/VL53L0X/API/vl53l0x_api.c **** 
 6013              		.loc 1 2713 0
 6014 0140 F8BD     		pop	{r3, r4, r5, r6, r7, pc}
 6015              	.LVL833:
 6016              	.L468:
2683:Drivers/VL53L0X/API/vl53l0x_api.c **** 				VL53L0X_ERROR_GPIO_FUNCTIONALITY_NOT_SUPPORTED;
 6017              		.loc 1 2683 0
 6018 0142 6FF00A00 		mvn	r0, #10
 6019              	.LVL834:
 6020 0146 EEE7     		b	.L456
 6021              	.LVL835:
 6022              	.L475:
2707:Drivers/VL53L0X/API/vl53l0x_api.c **** 
 6023              		.loc 1 2707 0
 6024 0148 0021     		movs	r1, #0
 6025 014a 2846     		mov	r0, r5
 6026              	.LVL836:
 6027 014c FFF7FEFF 		bl	VL53L0X_ClearInterruptMask
 6028              	.LVL837:
 6029 0150 F6E7     		b	.L452
 6030              	.LVL838:
 6031              	.L466:
2630:Drivers/VL53L0X/API/vl53l0x_api.c **** 	} else if (DeviceMode == VL53L0X_DEVICEMODE_GPIO_DRIVE) {
 6032              		.loc 1 2630 0
 6033 0152 6FF00900 		mvn	r0, #9
 6034              	.LVL839:
 6035 0156 F3E7     		b	.L452
 6036              		.cfi_endproc
ARM GAS  /tmp/ccq7BpOX.s 			page 162


 6037              	.LFE210:
 6039              		.section	.text.VL53L0X_StaticInit,"ax",%progbits
 6040              		.align	1
 6041              		.global	VL53L0X_StaticInit
 6042              		.syntax unified
 6043              		.thumb
 6044              		.thumb_func
 6045              		.fpu fpv4-sp-d16
 6047              	VL53L0X_StaticInit:
 6048              	.LFB149:
 551:Drivers/VL53L0X/API/vl53l0x_api.c **** 	VL53L0X_Error Status = VL53L0X_ERROR_NONE;
 6049              		.loc 1 551 0
 6050              		.cfi_startproc
 6051              		@ args = 0, pretend = 0, frame = 80
 6052              		@ frame_needed = 0, uses_anonymous_args = 0
 6053              	.LVL840:
 6054 0000 F0B5     		push	{r4, r5, r6, r7, lr}
 6055              	.LCFI141:
 6056              		.cfi_def_cfa_offset 20
 6057              		.cfi_offset 4, -20
 6058              		.cfi_offset 5, -16
 6059              		.cfi_offset 6, -12
 6060              		.cfi_offset 7, -8
 6061              		.cfi_offset 14, -4
 6062 0002 97B0     		sub	sp, sp, #92
 6063              	.LCFI142:
 6064              		.cfi_def_cfa_offset 112
 6065 0004 0746     		mov	r7, r0
 6066              	.LVL841:
 553:Drivers/VL53L0X/API/vl53l0x_api.c **** 	uint8_t *pTuningSettingBuffer;
 6067              		.loc 1 553 0
 6068 0006 4022     		movs	r2, #64
 6069 0008 0021     		movs	r1, #0
 6070 000a 06A8     		add	r0, sp, #24
 6071              	.LVL842:
 6072 000c FFF7FEFF 		bl	memset
 6073              	.LVL843:
 555:Drivers/VL53L0X/API/vl53l0x_api.c **** 	uint8_t tempbyte = 0;
 6074              		.loc 1 555 0
 6075 0010 0023     		movs	r3, #0
 6076 0012 ADF81630 		strh	r3, [sp, #22]	@ movhi
 556:Drivers/VL53L0X/API/vl53l0x_api.c **** 	uint8_t UseInternalTuningSettings = 0;
 6077              		.loc 1 556 0
 6078 0016 8DF81530 		strb	r3, [sp, #21]
 6079              	.LVL844:
 559:Drivers/VL53L0X/API/vl53l0x_api.c **** 	uint32_t refSpadCount = 0;
 6080              		.loc 1 559 0
 6081 001a 8DF81430 		strb	r3, [sp, #20]
 560:Drivers/VL53L0X/API/vl53l0x_api.c **** 	uint8_t ApertureSpads = 0;
 6082              		.loc 1 560 0
 6083 001e 0493     		str	r3, [sp, #16]
 6084              	.LVL845:
 567:Drivers/VL53L0X/API/vl53l0x_api.c **** 
 6085              		.loc 1 567 0
 6086 0020 0121     		movs	r1, #1
 6087 0022 3846     		mov	r0, r7
 6088 0024 FFF7FEFF 		bl	VL53L0X_get_info_from_device
ARM GAS  /tmp/ccq7BpOX.s 			page 163


 6089              	.LVL846:
 570:Drivers/VL53L0X/API/vl53l0x_api.c **** 		ReferenceSpadCount);
 6090              		.loc 1 570 0
 6091 0028 97F81311 		ldrb	r1, [r7, #275]	@ zero_extendqisi2
 6092              	.LVL847:
 572:Drivers/VL53L0X/API/vl53l0x_api.c **** 		ReferenceSpadType);
 6093              		.loc 1 572 0
 6094 002c 97F81421 		ldrb	r2, [r7, #276]	@ zero_extendqisi2
 6095              	.LVL848:
 576:Drivers/VL53L0X/API/vl53l0x_api.c **** 		((ApertureSpads == 1) && (count > 32)) ||
 6096              		.loc 1 576 0
 6097 0030 012A     		cmp	r2, #1
 6098 0032 03D8     		bhi	.L477
 576:Drivers/VL53L0X/API/vl53l0x_api.c **** 		((ApertureSpads == 1) && (count > 32)) ||
 6099              		.loc 1 576 0 is_stmt 0 discriminator 1
 6100 0034 10D0     		beq	.L504
 6101              	.L478:
 577:Drivers/VL53L0X/API/vl53l0x_api.c **** 		((ApertureSpads == 0) && (count > 12)))
 6102              		.loc 1 577 0 is_stmt 1 discriminator 1
 6103 0036 92B9     		cbnz	r2, .L479
 578:Drivers/VL53L0X/API/vl53l0x_api.c **** 		Status = VL53L0X_perform_ref_spad_management(Dev, &refSpadCount,
 6104              		.loc 1 578 0
 6105 0038 0C29     		cmp	r1, #12
 6106 003a 10D9     		bls	.L479
 6107              	.L477:
 579:Drivers/VL53L0X/API/vl53l0x_api.c **** 			&isApertureSpads);
 6108              		.loc 1 579 0
 6109 003c 05AA     		add	r2, sp, #20
 6110              	.LVL849:
 6111 003e 04A9     		add	r1, sp, #16
 6112              	.LVL850:
 6113 0040 3846     		mov	r0, r7
 6114 0042 FFF7FEFF 		bl	VL53L0X_perform_ref_spad_management
 6115              	.LVL851:
 6116 0046 0446     		mov	r4, r0
 6117              	.LVL852:
 6118              	.L480:
 588:Drivers/VL53L0X/API/vl53l0x_api.c **** 		UseInternalTuningSettings = PALDevDataGet(Dev,
 6119              		.loc 1 588 0
 6120 0048 74B9     		cbnz	r4, .L501
 589:Drivers/VL53L0X/API/vl53l0x_api.c **** 			UseInternalTuningSettings);
 6121              		.loc 1 589 0
 6122 004a 97F85031 		ldrb	r3, [r7, #336]	@ zero_extendqisi2
 6123              	.LVL853:
 592:Drivers/VL53L0X/API/vl53l0x_api.c **** 			pTuningSettingBuffer = PALDevDataGet(Dev,
 6124              		.loc 1 592 0
 6125 004e 002B     		cmp	r3, #0
 6126 0050 50D1     		bne	.L502
 593:Drivers/VL53L0X/API/vl53l0x_api.c **** 				pTuningSettingsPointer);
 6127              		.loc 1 593 0
 6128 0052 D7F84C11 		ldr	r1, [r7, #332]
 6129              	.LVL854:
 6130 0056 08E0     		b	.L481
 6131              	.LVL855:
 6132              	.L504:
 577:Drivers/VL53L0X/API/vl53l0x_api.c **** 		((ApertureSpads == 0) && (count > 12)))
 6133              		.loc 1 577 0
ARM GAS  /tmp/ccq7BpOX.s 			page 164


 6134 0058 2029     		cmp	r1, #32
 6135 005a EFD8     		bhi	.L477
 6136 005c EBE7     		b	.L478
 6137              	.L479:
 582:Drivers/VL53L0X/API/vl53l0x_api.c **** 
 6138              		.loc 1 582 0
 6139 005e 3846     		mov	r0, r7
 6140 0060 FFF7FEFF 		bl	VL53L0X_set_reference_spads
 6141              	.LVL856:
 6142 0064 0446     		mov	r4, r0
 6143              	.LVL857:
 6144 0066 EFE7     		b	.L480
 6145              	.LVL858:
 6146              	.L501:
 586:Drivers/VL53L0X/API/vl53l0x_api.c **** 
 6147              		.loc 1 586 0
 6148 0068 5C49     		ldr	r1, .L517
 6149              	.LVL859:
 6150              	.L481:
 600:Drivers/VL53L0X/API/vl53l0x_api.c **** 		Status = VL53L0X_load_tuning_settings(Dev, pTuningSettingBuffer);
 6151              		.loc 1 600 0
 6152 006a 002C     		cmp	r4, #0
 6153 006c 44D0     		beq	.L505
 6154              	.LVL860:
 6155              	.L482:
 605:Drivers/VL53L0X/API/vl53l0x_api.c **** 		Status = VL53L0X_SetGpioConfig(Dev, 0, 0,
 6156              		.loc 1 605 0
 6157 006e 002C     		cmp	r4, #0
 6158 0070 47D0     		beq	.L506
 6159              	.L483:
 611:Drivers/VL53L0X/API/vl53l0x_api.c **** 		Status = VL53L0X_WrByte(Dev, 0xFF, 0x01);
 6160              		.loc 1 611 0
 6161 0072 002C     		cmp	r4, #0
 6162 0074 4ED0     		beq	.L507
 6163              	.L484:
 617:Drivers/VL53L0X/API/vl53l0x_api.c **** 		VL53L0X_SETDEVICESPECIFICPARAMETER(Dev, OscFrequencyMHz,
 6164              		.loc 1 617 0
 6165 0076 24B9     		cbnz	r4, .L485
 618:Drivers/VL53L0X/API/vl53l0x_api.c **** 			VL53L0X_FIXPOINT412TOFIXPOINT1616(tempword));
 6166              		.loc 1 618 0
 6167 0078 BDF81630 		ldrh	r3, [sp, #22]
 6168 007c 1B01     		lsls	r3, r3, #4
 6169 007e C7F8D430 		str	r3, [r7, #212]
 6170              	.L485:
 624:Drivers/VL53L0X/API/vl53l0x_api.c **** 		Status = VL53L0X_GetDeviceParameters(Dev, &CurrentParameters);
 6171              		.loc 1 624 0
 6172 0082 002C     		cmp	r4, #0
 6173 0084 5CD0     		beq	.L508
 6174              	.L486:
 628:Drivers/VL53L0X/API/vl53l0x_api.c **** 		Status = VL53L0X_GetFractionEnable(Dev, &tempbyte);
 6175              		.loc 1 628 0
 6176 0086 002C     		cmp	r4, #0
 6177 0088 60D0     		beq	.L509
 6178              	.LVL861:
 6179              	.L487:
 635:Drivers/VL53L0X/API/vl53l0x_api.c **** 		PALDevDataSet(Dev, CurrentParameters, CurrentParameters);
 6180              		.loc 1 635 0
ARM GAS  /tmp/ccq7BpOX.s 			page 165


 6181 008a 64B9     		cbnz	r4, .L488
 636:Drivers/VL53L0X/API/vl53l0x_api.c **** 
 6182              		.loc 1 636 0
 6183 008c 07F11005 		add	r5, r7, #16
 6184 0090 06AE     		add	r6, sp, #24
 6185 0092 0FCE     		ldmia	r6!, {r0, r1, r2, r3}
 6186 0094 0FC5     		stmia	r5!, {r0, r1, r2, r3}
 6187 0096 0FCE     		ldmia	r6!, {r0, r1, r2, r3}
 6188 0098 0FC5     		stmia	r5!, {r0, r1, r2, r3}
 6189 009a 0FCE     		ldmia	r6!, {r0, r1, r2, r3}
 6190 009c 0FC5     		stmia	r5!, {r0, r1, r2, r3}
 6191 009e 96E80F00 		ldm	r6, {r0, r1, r2, r3}
 6192 00a2 85E80F00 		stm	r5, {r0, r1, r2, r3}
 6193              	.L488:
 640:Drivers/VL53L0X/API/vl53l0x_api.c **** 		Status = VL53L0X_RdByte(Dev,
 6194              		.loc 1 640 0
 6195 00a6 002C     		cmp	r4, #0
 6196 00a8 5DD0     		beq	.L510
 6197              	.LVL862:
 6198              	.L489:
 649:Drivers/VL53L0X/API/vl53l0x_api.c **** 		Status = VL53L0X_SetSequenceStepEnable(Dev,
 6199              		.loc 1 649 0
 6200 00aa 002C     		cmp	r4, #0
 6201 00ac 69D0     		beq	.L511
 6202              	.L490:
 654:Drivers/VL53L0X/API/vl53l0x_api.c **** 		Status = VL53L0X_SetSequenceStepEnable(Dev,
 6203              		.loc 1 654 0
 6204 00ae 002C     		cmp	r4, #0
 6205 00b0 6ED0     		beq	.L512
 6206              	.L491:
 660:Drivers/VL53L0X/API/vl53l0x_api.c **** 		PALDevDataSet(Dev, PalState, VL53L0X_STATE_IDLE);
 6207              		.loc 1 660 0
 6208 00b2 14B9     		cbnz	r4, .L492
 661:Drivers/VL53L0X/API/vl53l0x_api.c **** 
 6209              		.loc 1 661 0
 6210 00b4 0323     		movs	r3, #3
 6211 00b6 87F83231 		strb	r3, [r7, #306]
 6212              	.L492:
 666:Drivers/VL53L0X/API/vl53l0x_api.c **** 		Status = VL53L0X_GetVcselPulsePeriod(
 6213              		.loc 1 666 0
 6214 00ba 002C     		cmp	r4, #0
 6215 00bc 6FD0     		beq	.L513
 6216              	.L493:
 673:Drivers/VL53L0X/API/vl53l0x_api.c **** 			VL53L0X_SETDEVICESPECIFICPARAMETER(
 6217              		.loc 1 673 0
 6218 00be 1CB9     		cbnz	r4, .L494
 674:Drivers/VL53L0X/API/vl53l0x_api.c **** 				Dev,
 6219              		.loc 1 674 0
 6220 00c0 9DF80F30 		ldrb	r3, [sp, #15]	@ zero_extendqisi2
 6221 00c4 87F8E830 		strb	r3, [r7, #232]
 6222              	.L494:
 681:Drivers/VL53L0X/API/vl53l0x_api.c **** 		Status = VL53L0X_GetVcselPulsePeriod(
 6223              		.loc 1 681 0
 6224 00c8 002C     		cmp	r4, #0
 6225 00ca 70D0     		beq	.L514
 6226              	.L495:
 688:Drivers/VL53L0X/API/vl53l0x_api.c **** 			VL53L0X_SETDEVICESPECIFICPARAMETER(
ARM GAS  /tmp/ccq7BpOX.s 			page 166


 6227              		.loc 1 688 0
 6228 00cc 1CB9     		cbnz	r4, .L496
 689:Drivers/VL53L0X/API/vl53l0x_api.c **** 				Dev,
 6229              		.loc 1 689 0
 6230 00ce 9DF80F30 		ldrb	r3, [sp, #15]	@ zero_extendqisi2
 6231 00d2 87F8E030 		strb	r3, [r7, #224]
 6232              	.L496:
 696:Drivers/VL53L0X/API/vl53l0x_api.c **** 		Status = get_sequence_step_timeout(
 6233              		.loc 1 696 0
 6234 00d6 002C     		cmp	r4, #0
 6235 00d8 71D0     		beq	.L515
 6236              	.L497:
 703:Drivers/VL53L0X/API/vl53l0x_api.c **** 		VL53L0X_SETDEVICESPECIFICPARAMETER(
 6237              		.loc 1 703 0
 6238 00da 14B9     		cbnz	r4, .L498
 704:Drivers/VL53L0X/API/vl53l0x_api.c **** 			Dev,
 6239              		.loc 1 704 0
 6240 00dc 029B     		ldr	r3, [sp, #8]
 6241 00de C7F8E430 		str	r3, [r7, #228]
 6242              	.L498:
 711:Drivers/VL53L0X/API/vl53l0x_api.c **** 		Status = get_sequence_step_timeout(
 6243              		.loc 1 711 0
 6244 00e2 002C     		cmp	r4, #0
 6245 00e4 72D0     		beq	.L516
 6246              	.L499:
 718:Drivers/VL53L0X/API/vl53l0x_api.c **** 		VL53L0X_SETDEVICESPECIFICPARAMETER(
 6247              		.loc 1 718 0
 6248 00e6 14B9     		cbnz	r4, .L500
 719:Drivers/VL53L0X/API/vl53l0x_api.c **** 			Dev,
 6249              		.loc 1 719 0
 6250 00e8 029B     		ldr	r3, [sp, #8]
 6251 00ea C7F8DC30 		str	r3, [r7, #220]
 6252              	.L500:
 727:Drivers/VL53L0X/API/vl53l0x_api.c **** 
 6253              		.loc 1 727 0
 6254 00ee 2046     		mov	r0, r4
 6255 00f0 17B0     		add	sp, sp, #92
 6256              	.LCFI143:
 6257              		.cfi_remember_state
 6258              		.cfi_def_cfa_offset 20
 6259              		@ sp needed
 6260 00f2 F0BD     		pop	{r4, r5, r6, r7, pc}
 6261              	.LVL863:
 6262              	.L502:
 6263              	.LCFI144:
 6264              		.cfi_restore_state
 596:Drivers/VL53L0X/API/vl53l0x_api.c **** 
 6265              		.loc 1 596 0
 6266 00f4 3949     		ldr	r1, .L517
 6267 00f6 B8E7     		b	.L481
 6268              	.LVL864:
 6269              	.L505:
 601:Drivers/VL53L0X/API/vl53l0x_api.c **** 
 6270              		.loc 1 601 0
 6271 00f8 3846     		mov	r0, r7
 6272 00fa FFF7FEFF 		bl	VL53L0X_load_tuning_settings
 6273              	.LVL865:
ARM GAS  /tmp/ccq7BpOX.s 			page 167


 6274 00fe 0446     		mov	r4, r0
 6275              	.LVL866:
 6276 0100 B5E7     		b	.L482
 6277              	.L506:
 606:Drivers/VL53L0X/API/vl53l0x_api.c **** 		VL53L0X_REG_SYSTEM_INTERRUPT_GPIO_NEW_SAMPLE_READY,
 6278              		.loc 1 606 0
 6279 0102 0021     		movs	r1, #0
 6280 0104 0091     		str	r1, [sp]
 6281 0106 0423     		movs	r3, #4
 6282 0108 0A46     		mov	r2, r1
 6283 010a 3846     		mov	r0, r7
 6284 010c FFF7FEFF 		bl	VL53L0X_SetGpioConfig
 6285              	.LVL867:
 6286 0110 0446     		mov	r4, r0
 6287              	.LVL868:
 6288 0112 AEE7     		b	.L483
 6289              	.L507:
 612:Drivers/VL53L0X/API/vl53l0x_api.c **** 		Status |= VL53L0X_RdWord(Dev, 0x84, &tempword);
 6290              		.loc 1 612 0
 6291 0114 0122     		movs	r2, #1
 6292 0116 FF21     		movs	r1, #255
 6293 0118 3846     		mov	r0, r7
 6294 011a FFF7FEFF 		bl	VL53L0X_WrByte
 6295              	.LVL869:
 6296 011e 0446     		mov	r4, r0
 6297              	.LVL870:
 613:Drivers/VL53L0X/API/vl53l0x_api.c **** 		Status |= VL53L0X_WrByte(Dev, 0xFF, 0x00);
 6298              		.loc 1 613 0
 6299 0120 0DF11602 		add	r2, sp, #22
 6300 0124 8421     		movs	r1, #132
 6301 0126 3846     		mov	r0, r7
 6302 0128 FFF7FEFF 		bl	VL53L0X_RdWord
 6303              	.LVL871:
 6304 012c 0443     		orrs	r4, r4, r0
 6305              	.LVL872:
 6306 012e 64B2     		sxtb	r4, r4
 6307              	.LVL873:
 614:Drivers/VL53L0X/API/vl53l0x_api.c **** 	}
 6308              		.loc 1 614 0
 6309 0130 0022     		movs	r2, #0
 6310 0132 FF21     		movs	r1, #255
 6311 0134 3846     		mov	r0, r7
 6312 0136 FFF7FEFF 		bl	VL53L0X_WrByte
 6313              	.LVL874:
 6314 013a 0443     		orrs	r4, r4, r0
 6315              	.LVL875:
 6316 013c 64B2     		sxtb	r4, r4
 6317              	.LVL876:
 6318 013e 9AE7     		b	.L484
 6319              	.L508:
 625:Drivers/VL53L0X/API/vl53l0x_api.c **** 
 6320              		.loc 1 625 0
 6321 0140 06A9     		add	r1, sp, #24
 6322 0142 3846     		mov	r0, r7
 6323 0144 FFF7FEFF 		bl	VL53L0X_GetDeviceParameters
 6324              	.LVL877:
 6325 0148 0446     		mov	r4, r0
ARM GAS  /tmp/ccq7BpOX.s 			page 168


 6326              	.LVL878:
 6327 014a 9CE7     		b	.L486
 6328              	.L509:
 629:Drivers/VL53L0X/API/vl53l0x_api.c **** 		if (Status == VL53L0X_ERROR_NONE)
 6329              		.loc 1 629 0
 6330 014c 0DF11501 		add	r1, sp, #21
 6331 0150 3846     		mov	r0, r7
 6332 0152 FFF7FEFF 		bl	VL53L0X_GetFractionEnable
 6333              	.LVL879:
 630:Drivers/VL53L0X/API/vl53l0x_api.c **** 			PALDevDataSet(Dev, RangeFractionalEnable, tempbyte);
 6334              		.loc 1 630 0
 6335 0156 0446     		mov	r4, r0
 6336 0158 0028     		cmp	r0, #0
 6337 015a 96D1     		bne	.L487
 631:Drivers/VL53L0X/API/vl53l0x_api.c **** 
 6338              		.loc 1 631 0
 6339 015c 9DF81530 		ldrb	r3, [sp, #21]	@ zero_extendqisi2
 6340 0160 87F83131 		strb	r3, [r7, #305]
 6341 0164 91E7     		b	.L487
 6342              	.LVL880:
 6343              	.L510:
 641:Drivers/VL53L0X/API/vl53l0x_api.c **** 		VL53L0X_REG_SYSTEM_SEQUENCE_CONFIG, &tempbyte);
 6344              		.loc 1 641 0
 6345 0166 0DF11502 		add	r2, sp, #21
 6346 016a 0121     		movs	r1, #1
 6347 016c 3846     		mov	r0, r7
 6348 016e FFF7FEFF 		bl	VL53L0X_RdByte
 6349              	.LVL881:
 643:Drivers/VL53L0X/API/vl53l0x_api.c **** 			PALDevDataSet(Dev, SequenceConfig, tempbyte);
 6350              		.loc 1 643 0
 6351 0172 0446     		mov	r4, r0
 6352 0174 0028     		cmp	r0, #0
 6353 0176 98D1     		bne	.L489
 644:Drivers/VL53L0X/API/vl53l0x_api.c **** 
 6354              		.loc 1 644 0
 6355 0178 9DF81530 		ldrb	r3, [sp, #21]	@ zero_extendqisi2
 6356 017c 87F83031 		strb	r3, [r7, #304]
 6357 0180 93E7     		b	.L489
 6358              	.LVL882:
 6359              	.L511:
 650:Drivers/VL53L0X/API/vl53l0x_api.c **** 					VL53L0X_SEQUENCESTEP_TCC, 0);
 6360              		.loc 1 650 0
 6361 0182 0022     		movs	r2, #0
 6362 0184 1146     		mov	r1, r2
 6363 0186 3846     		mov	r0, r7
 6364 0188 FFF7FEFF 		bl	VL53L0X_SetSequenceStepEnable
 6365              	.LVL883:
 6366 018c 0446     		mov	r4, r0
 6367              	.LVL884:
 6368 018e 8EE7     		b	.L490
 6369              	.L512:
 655:Drivers/VL53L0X/API/vl53l0x_api.c **** 		VL53L0X_SEQUENCESTEP_MSRC, 0);
 6370              		.loc 1 655 0
 6371 0190 0022     		movs	r2, #0
 6372 0192 0221     		movs	r1, #2
 6373 0194 3846     		mov	r0, r7
 6374 0196 FFF7FEFF 		bl	VL53L0X_SetSequenceStepEnable
ARM GAS  /tmp/ccq7BpOX.s 			page 169


 6375              	.LVL885:
 6376 019a 0446     		mov	r4, r0
 6377              	.LVL886:
 6378 019c 89E7     		b	.L491
 6379              	.L513:
 667:Drivers/VL53L0X/API/vl53l0x_api.c **** 			Dev,
 6380              		.loc 1 667 0
 6381 019e 0DF10F02 		add	r2, sp, #15
 6382 01a2 0021     		movs	r1, #0
 6383 01a4 3846     		mov	r0, r7
 6384 01a6 FFF7FEFF 		bl	VL53L0X_GetVcselPulsePeriod
 6385              	.LVL887:
 6386 01aa 0446     		mov	r4, r0
 6387              	.LVL888:
 6388 01ac 87E7     		b	.L493
 6389              	.L514:
 682:Drivers/VL53L0X/API/vl53l0x_api.c **** 			Dev,
 6390              		.loc 1 682 0
 6391 01ae 0DF10F02 		add	r2, sp, #15
 6392 01b2 0121     		movs	r1, #1
 6393 01b4 3846     		mov	r0, r7
 6394 01b6 FFF7FEFF 		bl	VL53L0X_GetVcselPulsePeriod
 6395              	.LVL889:
 6396 01ba 0446     		mov	r4, r0
 6397              	.LVL890:
 6398 01bc 86E7     		b	.L495
 6399              	.L515:
 697:Drivers/VL53L0X/API/vl53l0x_api.c **** 			Dev,
 6400              		.loc 1 697 0
 6401 01be 02AA     		add	r2, sp, #8
 6402 01c0 0321     		movs	r1, #3
 6403 01c2 3846     		mov	r0, r7
 6404 01c4 FFF7FEFF 		bl	get_sequence_step_timeout
 6405              	.LVL891:
 6406 01c8 0446     		mov	r4, r0
 6407              	.LVL892:
 6408 01ca 86E7     		b	.L497
 6409              	.L516:
 712:Drivers/VL53L0X/API/vl53l0x_api.c **** 			Dev,
 6410              		.loc 1 712 0
 6411 01cc 02AA     		add	r2, sp, #8
 6412 01ce 0421     		movs	r1, #4
 6413 01d0 3846     		mov	r0, r7
 6414 01d2 FFF7FEFF 		bl	get_sequence_step_timeout
 6415              	.LVL893:
 6416 01d6 0446     		mov	r4, r0
 6417              	.LVL894:
 6418 01d8 85E7     		b	.L499
 6419              	.L518:
 6420 01da 00BF     		.align	2
 6421              	.L517:
 6422 01dc 00000000 		.word	.LANCHOR1
 6423              		.cfi_endproc
 6424              	.LFE149:
 6426              		.section	.text.VL53L0X_SetPowerMode,"ax",%progbits
 6427              		.align	1
 6428              		.global	VL53L0X_SetPowerMode
ARM GAS  /tmp/ccq7BpOX.s 			page 170


 6429              		.syntax unified
 6430              		.thumb
 6431              		.thumb_func
 6432              		.fpu fpv4-sp-d16
 6434              	VL53L0X_SetPowerMode:
 6435              	.LFB136:
 194:Drivers/VL53L0X/API/vl53l0x_api.c **** 	VL53L0X_Error Status = VL53L0X_ERROR_NONE;
 6436              		.loc 1 194 0
 6437              		.cfi_startproc
 6438              		@ args = 0, pretend = 0, frame = 0
 6439              		@ frame_needed = 0, uses_anonymous_args = 0
 6440              	.LVL895:
 199:Drivers/VL53L0X/API/vl53l0x_api.c **** 		&& (PowerMode != VL53L0X_POWERMODE_IDLE_LEVEL1)) {
 6441              		.loc 1 199 0
 6442 0000 0B46     		mov	r3, r1
 6443 0002 09B1     		cbz	r1, .L520
 200:Drivers/VL53L0X/API/vl53l0x_api.c **** 		Status = VL53L0X_ERROR_MODE_NOT_SUPPORTED;
 6444              		.loc 1 200 0
 6445 0004 0229     		cmp	r1, #2
 6446 0006 20D1     		bne	.L524
 6447              	.L520:
 194:Drivers/VL53L0X/API/vl53l0x_api.c **** 	VL53L0X_Error Status = VL53L0X_ERROR_NONE;
 6448              		.loc 1 194 0
 6449 0008 10B5     		push	{r4, lr}
 6450              	.LCFI145:
 6451              		.cfi_def_cfa_offset 8
 6452              		.cfi_offset 4, -8
 6453              		.cfi_offset 14, -4
 6454 000a 0446     		mov	r4, r0
 202:Drivers/VL53L0X/API/vl53l0x_api.c **** 		/* set the standby level1 of power mode */
 6455              		.loc 1 202 0
 6456 000c 63B9     		cbnz	r3, .L522
 204:Drivers/VL53L0X/API/vl53l0x_api.c **** 		if (Status == VL53L0X_ERROR_NONE) {
 6457              		.loc 1 204 0
 6458 000e 0022     		movs	r2, #0
 6459 0010 8021     		movs	r1, #128
 6460              	.LVL896:
 6461 0012 FFF7FEFF 		bl	VL53L0X_WrByte
 6462              	.LVL897:
 205:Drivers/VL53L0X/API/vl53l0x_api.c **** 			/* Set PAL State to standby */
 6463              		.loc 1 205 0
 6464 0016 0346     		mov	r3, r0
 6465 0018 80B9     		cbnz	r0, .L521
 207:Drivers/VL53L0X/API/vl53l0x_api.c **** 			PALDevDataSet(Dev, PowerMode,
 6466              		.loc 1 207 0
 6467 001a 0222     		movs	r2, #2
 6468 001c 84F83221 		strb	r2, [r4, #306]
 208:Drivers/VL53L0X/API/vl53l0x_api.c **** 				VL53L0X_POWERMODE_STANDBY_LEVEL1);
 6469              		.loc 1 208 0
 6470 0020 0022     		movs	r2, #0
 6471 0022 84F83321 		strb	r2, [r4, #307]
 6472 0026 09E0     		b	.L521
 6473              	.LVL898:
 6474              	.L522:
 214:Drivers/VL53L0X/API/vl53l0x_api.c **** 		if (Status == VL53L0X_ERROR_NONE)
 6475              		.loc 1 214 0
 6476 0028 0022     		movs	r2, #0
ARM GAS  /tmp/ccq7BpOX.s 			page 171


 6477 002a 8021     		movs	r1, #128
 6478              	.LVL899:
 6479 002c FFF7FEFF 		bl	VL53L0X_WrByte
 6480              	.LVL900:
 215:Drivers/VL53L0X/API/vl53l0x_api.c **** 			Status = VL53L0X_StaticInit(Dev);
 6481              		.loc 1 215 0
 6482 0030 0346     		mov	r3, r0
 6483 0032 28B1     		cbz	r0, .L528
 6484              	.LVL901:
 6485              	.L523:
 218:Drivers/VL53L0X/API/vl53l0x_api.c **** 			PALDevDataSet(Dev, PowerMode,
 6486              		.loc 1 218 0
 6487 0034 13B9     		cbnz	r3, .L521
 219:Drivers/VL53L0X/API/vl53l0x_api.c **** 				VL53L0X_POWERMODE_IDLE_LEVEL1);
 6488              		.loc 1 219 0
 6489 0036 0222     		movs	r2, #2
 6490 0038 84F83321 		strb	r2, [r4, #307]
 6491              	.LVL902:
 6492              	.L521:
 226:Drivers/VL53L0X/API/vl53l0x_api.c **** 
 6493              		.loc 1 226 0
 6494 003c 1846     		mov	r0, r3
 6495 003e 10BD     		pop	{r4, pc}
 6496              	.LVL903:
 6497              	.L528:
 216:Drivers/VL53L0X/API/vl53l0x_api.c **** 
 6498              		.loc 1 216 0
 6499 0040 2046     		mov	r0, r4
 6500              	.LVL904:
 6501 0042 FFF7FEFF 		bl	VL53L0X_StaticInit
 6502              	.LVL905:
 6503 0046 0346     		mov	r3, r0
 6504              	.LVL906:
 6505 0048 F4E7     		b	.L523
 6506              	.LVL907:
 6507              	.L524:
 6508              	.LCFI146:
 6509              		.cfi_def_cfa_offset 0
 6510              		.cfi_restore 4
 6511              		.cfi_restore 14
 201:Drivers/VL53L0X/API/vl53l0x_api.c **** 	} else if (PowerMode == VL53L0X_POWERMODE_STANDBY_LEVEL1) {
 6512              		.loc 1 201 0
 6513 004a 6FF00703 		mvn	r3, #7
 6514              	.LVL908:
 226:Drivers/VL53L0X/API/vl53l0x_api.c **** 
 6515              		.loc 1 226 0
 6516 004e 1846     		mov	r0, r3
 6517              	.LVL909:
 6518 0050 7047     		bx	lr
 6519              		.cfi_endproc
 6520              	.LFE136:
 6522              		.section	.text.VL53L0X_GetInterruptMaskStatus,"ax",%progbits
 6523              		.align	1
 6524              		.global	VL53L0X_GetInterruptMaskStatus
 6525              		.syntax unified
 6526              		.thumb
 6527              		.thumb_func
ARM GAS  /tmp/ccq7BpOX.s 			page 172


 6528              		.fpu fpv4-sp-d16
 6530              	VL53L0X_GetInterruptMaskStatus:
 6531              	.LFB216:
2897:Drivers/VL53L0X/API/vl53l0x_api.c **** 
2898:Drivers/VL53L0X/API/vl53l0x_api.c **** VL53L0X_Error VL53L0X_GetInterruptMaskStatus(VL53L0X_DEV Dev,
2899:Drivers/VL53L0X/API/vl53l0x_api.c **** 	uint32_t *pInterruptMaskStatus)
2900:Drivers/VL53L0X/API/vl53l0x_api.c **** {
 6532              		.loc 1 2900 0
 6533              		.cfi_startproc
 6534              		@ args = 0, pretend = 0, frame = 8
 6535              		@ frame_needed = 0, uses_anonymous_args = 0
 6536              	.LVL910:
 6537 0000 10B5     		push	{r4, lr}
 6538              	.LCFI147:
 6539              		.cfi_def_cfa_offset 8
 6540              		.cfi_offset 4, -8
 6541              		.cfi_offset 14, -4
 6542 0002 82B0     		sub	sp, sp, #8
 6543              	.LCFI148:
 6544              		.cfi_def_cfa_offset 16
 6545 0004 0C46     		mov	r4, r1
 6546              	.LVL911:
2901:Drivers/VL53L0X/API/vl53l0x_api.c **** 	VL53L0X_Error Status = VL53L0X_ERROR_NONE;
2902:Drivers/VL53L0X/API/vl53l0x_api.c **** 	uint8_t Byte;
2903:Drivers/VL53L0X/API/vl53l0x_api.c **** 	LOG_FUNCTION_START("");
2904:Drivers/VL53L0X/API/vl53l0x_api.c **** 
2905:Drivers/VL53L0X/API/vl53l0x_api.c **** 	Status = VL53L0X_RdByte(Dev, VL53L0X_REG_RESULT_INTERRUPT_STATUS, &Byte);
 6547              		.loc 1 2905 0
 6548 0006 0DF10702 		add	r2, sp, #7
 6549 000a 1321     		movs	r1, #19
 6550              	.LVL912:
 6551 000c FFF7FEFF 		bl	VL53L0X_RdByte
 6552              	.LVL913:
2906:Drivers/VL53L0X/API/vl53l0x_api.c **** 	*pInterruptMaskStatus = Byte & 0x07;
 6553              		.loc 1 2906 0
 6554 0010 9DF80730 		ldrb	r3, [sp, #7]	@ zero_extendqisi2
 6555 0014 03F00702 		and	r2, r3, #7
 6556 0018 2260     		str	r2, [r4]
2907:Drivers/VL53L0X/API/vl53l0x_api.c **** 
2908:Drivers/VL53L0X/API/vl53l0x_api.c **** 	if (Byte & 0x18)
 6557              		.loc 1 2908 0
 6558 001a 13F0180F 		tst	r3, #24
 6559 001e 01D1     		bne	.L533
 6560              	.LVL914:
 6561              	.L530:
2909:Drivers/VL53L0X/API/vl53l0x_api.c **** 		Status = VL53L0X_ERROR_RANGE_ERROR;
2910:Drivers/VL53L0X/API/vl53l0x_api.c **** 
2911:Drivers/VL53L0X/API/vl53l0x_api.c **** 	LOG_FUNCTION_END(Status);
2912:Drivers/VL53L0X/API/vl53l0x_api.c **** 	return Status;
2913:Drivers/VL53L0X/API/vl53l0x_api.c **** }
 6562              		.loc 1 2913 0
 6563 0020 02B0     		add	sp, sp, #8
 6564              	.LCFI149:
 6565              		.cfi_remember_state
 6566              		.cfi_def_cfa_offset 8
 6567              		@ sp needed
 6568 0022 10BD     		pop	{r4, pc}
ARM GAS  /tmp/ccq7BpOX.s 			page 173


 6569              	.LVL915:
 6570              	.L533:
 6571              	.LCFI150:
 6572              		.cfi_restore_state
2909:Drivers/VL53L0X/API/vl53l0x_api.c **** 		Status = VL53L0X_ERROR_RANGE_ERROR;
 6573              		.loc 1 2909 0
 6574 0024 6FF00500 		mvn	r0, #5
 6575              	.LVL916:
 6576 0028 FAE7     		b	.L530
 6577              		.cfi_endproc
 6578              	.LFE216:
 6580              		.section	.text.VL53L0X_GetMeasurementDataReady,"ax",%progbits
 6581              		.align	1
 6582              		.global	VL53L0X_GetMeasurementDataReady
 6583              		.syntax unified
 6584              		.thumb
 6585              		.thumb_func
 6586              		.fpu fpv4-sp-d16
 6588              	VL53L0X_GetMeasurementDataReady:
 6589              	.LFB201:
2318:Drivers/VL53L0X/API/vl53l0x_api.c **** 	VL53L0X_Error Status = VL53L0X_ERROR_NONE;
 6590              		.loc 1 2318 0
 6591              		.cfi_startproc
 6592              		@ args = 0, pretend = 0, frame = 8
 6593              		@ frame_needed = 0, uses_anonymous_args = 0
 6594              	.LVL917:
 6595 0000 10B5     		push	{r4, lr}
 6596              	.LCFI151:
 6597              		.cfi_def_cfa_offset 8
 6598              		.cfi_offset 4, -8
 6599              		.cfi_offset 14, -4
 6600 0002 82B0     		sub	sp, sp, #8
 6601              	.LCFI152:
 6602              		.cfi_def_cfa_offset 16
 6603 0004 0C46     		mov	r4, r1
 6604              	.LVL918:
2325:Drivers/VL53L0X/API/vl53l0x_api.c **** 		Pin0GpioFunctionality);
 6605              		.loc 1 2325 0
 6606 0006 90F8DA30 		ldrb	r3, [r0, #218]	@ zero_extendqisi2
 6607              	.LVL919:
2328:Drivers/VL53L0X/API/vl53l0x_api.c **** 		VL53L0X_REG_SYSTEM_INTERRUPT_GPIO_NEW_SAMPLE_READY) {
 6608              		.loc 1 2328 0
 6609 000a 042B     		cmp	r3, #4
 6610 000c 0ED0     		beq	.L540
2337:Drivers/VL53L0X/API/vl53l0x_api.c **** 			&SysRangeStatusRegister);
 6611              		.loc 1 2337 0
 6612 000e 0DF10702 		add	r2, sp, #7
 6613 0012 1421     		movs	r1, #20
 6614              	.LVL920:
 6615 0014 FFF7FEFF 		bl	VL53L0X_RdByte
 6616              	.LVL921:
2339:Drivers/VL53L0X/API/vl53l0x_api.c **** 			if (SysRangeStatusRegister & 0x01)
 6617              		.loc 1 2339 0
 6618 0018 0346     		mov	r3, r0
 6619 001a 80B9     		cbnz	r0, .L537
2340:Drivers/VL53L0X/API/vl53l0x_api.c **** 				*pMeasurementDataReady = 1;
 6620              		.loc 1 2340 0
ARM GAS  /tmp/ccq7BpOX.s 			page 174


 6621 001c 9DF80720 		ldrb	r2, [sp, #7]	@ zero_extendqisi2
 6622 0020 12F0010F 		tst	r2, #1
 6623 0024 11D1     		bne	.L541
2343:Drivers/VL53L0X/API/vl53l0x_api.c **** 		}
 6624              		.loc 1 2343 0
 6625 0026 0022     		movs	r2, #0
 6626 0028 2270     		strb	r2, [r4]
 6627 002a 08E0     		b	.L537
 6628              	.LVL922:
 6629              	.L540:
2330:Drivers/VL53L0X/API/vl53l0x_api.c **** 		if (InterruptMask ==
 6630              		.loc 1 2330 0
 6631 002c 6946     		mov	r1, sp
 6632              	.LVL923:
 6633 002e FFF7FEFF 		bl	VL53L0X_GetInterruptMaskStatus
 6634              	.LVL924:
 6635 0032 0346     		mov	r3, r0
 6636              	.LVL925:
2331:Drivers/VL53L0X/API/vl53l0x_api.c **** 		VL53L0X_REG_SYSTEM_INTERRUPT_GPIO_NEW_SAMPLE_READY)
 6637              		.loc 1 2331 0
 6638 0034 009A     		ldr	r2, [sp]
 6639 0036 042A     		cmp	r2, #4
 6640 0038 04D0     		beq	.L542
2335:Drivers/VL53L0X/API/vl53l0x_api.c **** 	} else {
 6641              		.loc 1 2335 0
 6642 003a 0022     		movs	r2, #0
 6643 003c 2270     		strb	r2, [r4]
 6644              	.LVL926:
 6645              	.L537:
2349:Drivers/VL53L0X/API/vl53l0x_api.c **** 
 6646              		.loc 1 2349 0
 6647 003e 1846     		mov	r0, r3
 6648 0040 02B0     		add	sp, sp, #8
 6649              	.LCFI153:
 6650              		.cfi_remember_state
 6651              		.cfi_def_cfa_offset 8
 6652              		@ sp needed
 6653 0042 10BD     		pop	{r4, pc}
 6654              	.LVL927:
 6655              	.L542:
 6656              	.LCFI154:
 6657              		.cfi_restore_state
2333:Drivers/VL53L0X/API/vl53l0x_api.c **** 		else
 6658              		.loc 1 2333 0
 6659 0044 0122     		movs	r2, #1
 6660 0046 2270     		strb	r2, [r4]
 6661 0048 F9E7     		b	.L537
 6662              	.LVL928:
 6663              	.L541:
2341:Drivers/VL53L0X/API/vl53l0x_api.c **** 			else
 6664              		.loc 1 2341 0
 6665 004a 0122     		movs	r2, #1
 6666 004c 2270     		strb	r2, [r4]
 6667 004e F6E7     		b	.L537
 6668              		.cfi_endproc
 6669              	.LFE201:
 6671              		.section	.text.VL53L0X_EnableInterruptMask,"ax",%progbits
ARM GAS  /tmp/ccq7BpOX.s 			page 175


 6672              		.align	1
 6673              		.global	VL53L0X_EnableInterruptMask
 6674              		.syntax unified
 6675              		.thumb
 6676              		.thumb_func
 6677              		.fpu fpv4-sp-d16
 6679              	VL53L0X_EnableInterruptMask:
 6680              	.LFB217:
2914:Drivers/VL53L0X/API/vl53l0x_api.c **** 
2915:Drivers/VL53L0X/API/vl53l0x_api.c **** VL53L0X_Error VL53L0X_EnableInterruptMask(VL53L0X_DEV Dev, uint32_t InterruptMask)
2916:Drivers/VL53L0X/API/vl53l0x_api.c **** {
 6681              		.loc 1 2916 0
 6682              		.cfi_startproc
 6683              		@ args = 0, pretend = 0, frame = 0
 6684              		@ frame_needed = 0, uses_anonymous_args = 0
 6685              		@ link register save eliminated.
 6686              	.LVL929:
2917:Drivers/VL53L0X/API/vl53l0x_api.c **** 	VL53L0X_Error Status = VL53L0X_ERROR_NOT_IMPLEMENTED;
2918:Drivers/VL53L0X/API/vl53l0x_api.c **** 	LOG_FUNCTION_START("");
2919:Drivers/VL53L0X/API/vl53l0x_api.c **** 
2920:Drivers/VL53L0X/API/vl53l0x_api.c **** 	/* not implemented for VL53L0X */
2921:Drivers/VL53L0X/API/vl53l0x_api.c **** 
2922:Drivers/VL53L0X/API/vl53l0x_api.c **** 	LOG_FUNCTION_END(Status);
2923:Drivers/VL53L0X/API/vl53l0x_api.c **** 	return Status;
2924:Drivers/VL53L0X/API/vl53l0x_api.c **** }
 6687              		.loc 1 2924 0
 6688 0000 6FF06200 		mvn	r0, #98
 6689              	.LVL930:
 6690 0004 7047     		bx	lr
 6691              		.cfi_endproc
 6692              	.LFE217:
 6694              		.section	.text.VL53L0X_SetSpadAmbientDamperThreshold,"ax",%progbits
 6695              		.align	1
 6696              		.global	VL53L0X_SetSpadAmbientDamperThreshold
 6697              		.syntax unified
 6698              		.thumb
 6699              		.thumb_func
 6700              		.fpu fpv4-sp-d16
 6702              	VL53L0X_SetSpadAmbientDamperThreshold:
 6703              	.LFB218:
2925:Drivers/VL53L0X/API/vl53l0x_api.c **** 
2926:Drivers/VL53L0X/API/vl53l0x_api.c **** /* End Group PAL Interrupt Functions */
2927:Drivers/VL53L0X/API/vl53l0x_api.c **** 
2928:Drivers/VL53L0X/API/vl53l0x_api.c **** /* Group SPAD functions */
2929:Drivers/VL53L0X/API/vl53l0x_api.c **** 
2930:Drivers/VL53L0X/API/vl53l0x_api.c **** VL53L0X_Error VL53L0X_SetSpadAmbientDamperThreshold(VL53L0X_DEV Dev,
2931:Drivers/VL53L0X/API/vl53l0x_api.c **** 	uint16_t SpadAmbientDamperThreshold)
2932:Drivers/VL53L0X/API/vl53l0x_api.c **** {
 6704              		.loc 1 2932 0
 6705              		.cfi_startproc
 6706              		@ args = 0, pretend = 0, frame = 0
 6707              		@ frame_needed = 0, uses_anonymous_args = 0
 6708              	.LVL931:
 6709 0000 70B5     		push	{r4, r5, r6, lr}
 6710              	.LCFI155:
 6711              		.cfi_def_cfa_offset 16
 6712              		.cfi_offset 4, -16
ARM GAS  /tmp/ccq7BpOX.s 			page 176


 6713              		.cfi_offset 5, -12
 6714              		.cfi_offset 6, -8
 6715              		.cfi_offset 14, -4
 6716 0002 0546     		mov	r5, r0
 6717 0004 0E46     		mov	r6, r1
 6718              	.LVL932:
2933:Drivers/VL53L0X/API/vl53l0x_api.c **** 	VL53L0X_Error Status = VL53L0X_ERROR_NONE;
2934:Drivers/VL53L0X/API/vl53l0x_api.c **** 	LOG_FUNCTION_START("");
2935:Drivers/VL53L0X/API/vl53l0x_api.c **** 
2936:Drivers/VL53L0X/API/vl53l0x_api.c **** 	Status = VL53L0X_WrByte(Dev, 0xFF, 0x01);
 6719              		.loc 1 2936 0
 6720 0006 0122     		movs	r2, #1
 6721 0008 FF21     		movs	r1, #255
 6722              	.LVL933:
 6723 000a FFF7FEFF 		bl	VL53L0X_WrByte
 6724              	.LVL934:
 6725 000e 0446     		mov	r4, r0
 6726              	.LVL935:
2937:Drivers/VL53L0X/API/vl53l0x_api.c **** 	Status |= VL53L0X_WrWord(Dev, 0x40, SpadAmbientDamperThreshold);
 6727              		.loc 1 2937 0
 6728 0010 3246     		mov	r2, r6
 6729 0012 4021     		movs	r1, #64
 6730 0014 2846     		mov	r0, r5
 6731 0016 FFF7FEFF 		bl	VL53L0X_WrWord
 6732              	.LVL936:
 6733 001a 0443     		orrs	r4, r4, r0
 6734              	.LVL937:
 6735 001c 64B2     		sxtb	r4, r4
 6736              	.LVL938:
2938:Drivers/VL53L0X/API/vl53l0x_api.c **** 	Status |= VL53L0X_WrByte(Dev, 0xFF, 0x00);
 6737              		.loc 1 2938 0
 6738 001e 0022     		movs	r2, #0
 6739 0020 FF21     		movs	r1, #255
 6740 0022 2846     		mov	r0, r5
 6741 0024 FFF7FEFF 		bl	VL53L0X_WrByte
 6742              	.LVL939:
 6743 0028 2043     		orrs	r0, r0, r4
 6744              	.LVL940:
2939:Drivers/VL53L0X/API/vl53l0x_api.c **** 
2940:Drivers/VL53L0X/API/vl53l0x_api.c **** 	LOG_FUNCTION_END(Status);
2941:Drivers/VL53L0X/API/vl53l0x_api.c **** 	return Status;
2942:Drivers/VL53L0X/API/vl53l0x_api.c **** }
 6745              		.loc 1 2942 0
 6746 002a 40B2     		sxtb	r0, r0
 6747 002c 70BD     		pop	{r4, r5, r6, pc}
 6748              		.cfi_endproc
 6749              	.LFE218:
 6751              		.section	.text.VL53L0X_GetSpadAmbientDamperThreshold,"ax",%progbits
 6752              		.align	1
 6753              		.global	VL53L0X_GetSpadAmbientDamperThreshold
 6754              		.syntax unified
 6755              		.thumb
 6756              		.thumb_func
 6757              		.fpu fpv4-sp-d16
 6759              	VL53L0X_GetSpadAmbientDamperThreshold:
 6760              	.LFB219:
2943:Drivers/VL53L0X/API/vl53l0x_api.c **** 
ARM GAS  /tmp/ccq7BpOX.s 			page 177


2944:Drivers/VL53L0X/API/vl53l0x_api.c **** VL53L0X_Error VL53L0X_GetSpadAmbientDamperThreshold(VL53L0X_DEV Dev,
2945:Drivers/VL53L0X/API/vl53l0x_api.c **** 	uint16_t *pSpadAmbientDamperThreshold)
2946:Drivers/VL53L0X/API/vl53l0x_api.c **** {
 6761              		.loc 1 2946 0
 6762              		.cfi_startproc
 6763              		@ args = 0, pretend = 0, frame = 0
 6764              		@ frame_needed = 0, uses_anonymous_args = 0
 6765              	.LVL941:
 6766 0000 70B5     		push	{r4, r5, r6, lr}
 6767              	.LCFI156:
 6768              		.cfi_def_cfa_offset 16
 6769              		.cfi_offset 4, -16
 6770              		.cfi_offset 5, -12
 6771              		.cfi_offset 6, -8
 6772              		.cfi_offset 14, -4
 6773 0002 0546     		mov	r5, r0
 6774 0004 0E46     		mov	r6, r1
 6775              	.LVL942:
2947:Drivers/VL53L0X/API/vl53l0x_api.c **** 	VL53L0X_Error Status = VL53L0X_ERROR_NONE;
2948:Drivers/VL53L0X/API/vl53l0x_api.c **** 	LOG_FUNCTION_START("");
2949:Drivers/VL53L0X/API/vl53l0x_api.c **** 
2950:Drivers/VL53L0X/API/vl53l0x_api.c **** 	Status = VL53L0X_WrByte(Dev, 0xFF, 0x01);
 6776              		.loc 1 2950 0
 6777 0006 0122     		movs	r2, #1
 6778 0008 FF21     		movs	r1, #255
 6779              	.LVL943:
 6780 000a FFF7FEFF 		bl	VL53L0X_WrByte
 6781              	.LVL944:
 6782 000e 0446     		mov	r4, r0
 6783              	.LVL945:
2951:Drivers/VL53L0X/API/vl53l0x_api.c **** 	Status |= VL53L0X_RdWord(Dev, 0x40, pSpadAmbientDamperThreshold);
 6784              		.loc 1 2951 0
 6785 0010 3246     		mov	r2, r6
 6786 0012 4021     		movs	r1, #64
 6787 0014 2846     		mov	r0, r5
 6788 0016 FFF7FEFF 		bl	VL53L0X_RdWord
 6789              	.LVL946:
 6790 001a 0443     		orrs	r4, r4, r0
 6791              	.LVL947:
 6792 001c 64B2     		sxtb	r4, r4
 6793              	.LVL948:
2952:Drivers/VL53L0X/API/vl53l0x_api.c **** 	Status |= VL53L0X_WrByte(Dev, 0xFF, 0x00);
 6794              		.loc 1 2952 0
 6795 001e 0022     		movs	r2, #0
 6796 0020 FF21     		movs	r1, #255
 6797 0022 2846     		mov	r0, r5
 6798 0024 FFF7FEFF 		bl	VL53L0X_WrByte
 6799              	.LVL949:
 6800 0028 2043     		orrs	r0, r0, r4
 6801              	.LVL950:
2953:Drivers/VL53L0X/API/vl53l0x_api.c **** 
2954:Drivers/VL53L0X/API/vl53l0x_api.c **** 	LOG_FUNCTION_END(Status);
2955:Drivers/VL53L0X/API/vl53l0x_api.c **** 	return Status;
2956:Drivers/VL53L0X/API/vl53l0x_api.c **** }
 6802              		.loc 1 2956 0
 6803 002a 40B2     		sxtb	r0, r0
 6804 002c 70BD     		pop	{r4, r5, r6, pc}
ARM GAS  /tmp/ccq7BpOX.s 			page 178


 6805              		.cfi_endproc
 6806              	.LFE219:
 6808              		.section	.text.VL53L0X_SetSpadAmbientDamperFactor,"ax",%progbits
 6809              		.align	1
 6810              		.global	VL53L0X_SetSpadAmbientDamperFactor
 6811              		.syntax unified
 6812              		.thumb
 6813              		.thumb_func
 6814              		.fpu fpv4-sp-d16
 6816              	VL53L0X_SetSpadAmbientDamperFactor:
 6817              	.LFB220:
2957:Drivers/VL53L0X/API/vl53l0x_api.c **** 
2958:Drivers/VL53L0X/API/vl53l0x_api.c **** VL53L0X_Error VL53L0X_SetSpadAmbientDamperFactor(VL53L0X_DEV Dev,
2959:Drivers/VL53L0X/API/vl53l0x_api.c **** 	uint16_t SpadAmbientDamperFactor)
2960:Drivers/VL53L0X/API/vl53l0x_api.c **** {
 6818              		.loc 1 2960 0
 6819              		.cfi_startproc
 6820              		@ args = 0, pretend = 0, frame = 0
 6821              		@ frame_needed = 0, uses_anonymous_args = 0
 6822              	.LVL951:
 6823 0000 70B5     		push	{r4, r5, r6, lr}
 6824              	.LCFI157:
 6825              		.cfi_def_cfa_offset 16
 6826              		.cfi_offset 4, -16
 6827              		.cfi_offset 5, -12
 6828              		.cfi_offset 6, -8
 6829              		.cfi_offset 14, -4
 6830 0002 0546     		mov	r5, r0
 6831              	.LVL952:
2961:Drivers/VL53L0X/API/vl53l0x_api.c **** 	VL53L0X_Error Status = VL53L0X_ERROR_NONE;
2962:Drivers/VL53L0X/API/vl53l0x_api.c **** 	uint8_t Byte;
2963:Drivers/VL53L0X/API/vl53l0x_api.c **** 	LOG_FUNCTION_START("");
2964:Drivers/VL53L0X/API/vl53l0x_api.c **** 
2965:Drivers/VL53L0X/API/vl53l0x_api.c **** 	Byte = (uint8_t)(SpadAmbientDamperFactor & 0x00FF);
 6832              		.loc 1 2965 0
 6833 0004 CEB2     		uxtb	r6, r1
 6834              	.LVL953:
2966:Drivers/VL53L0X/API/vl53l0x_api.c **** 
2967:Drivers/VL53L0X/API/vl53l0x_api.c **** 	Status = VL53L0X_WrByte(Dev, 0xFF, 0x01);
 6835              		.loc 1 2967 0
 6836 0006 0122     		movs	r2, #1
 6837 0008 FF21     		movs	r1, #255
 6838              	.LVL954:
 6839 000a FFF7FEFF 		bl	VL53L0X_WrByte
 6840              	.LVL955:
 6841 000e 0446     		mov	r4, r0
 6842              	.LVL956:
2968:Drivers/VL53L0X/API/vl53l0x_api.c **** 	Status |= VL53L0X_WrByte(Dev, 0x42, Byte);
 6843              		.loc 1 2968 0
 6844 0010 3246     		mov	r2, r6
 6845 0012 4221     		movs	r1, #66
 6846 0014 2846     		mov	r0, r5
 6847 0016 FFF7FEFF 		bl	VL53L0X_WrByte
 6848              	.LVL957:
 6849 001a 0443     		orrs	r4, r4, r0
 6850              	.LVL958:
 6851 001c 64B2     		sxtb	r4, r4
ARM GAS  /tmp/ccq7BpOX.s 			page 179


 6852              	.LVL959:
2969:Drivers/VL53L0X/API/vl53l0x_api.c **** 	Status |= VL53L0X_WrByte(Dev, 0xFF, 0x00);
 6853              		.loc 1 2969 0
 6854 001e 0022     		movs	r2, #0
 6855 0020 FF21     		movs	r1, #255
 6856 0022 2846     		mov	r0, r5
 6857 0024 FFF7FEFF 		bl	VL53L0X_WrByte
 6858              	.LVL960:
 6859 0028 2043     		orrs	r0, r0, r4
 6860              	.LVL961:
2970:Drivers/VL53L0X/API/vl53l0x_api.c **** 
2971:Drivers/VL53L0X/API/vl53l0x_api.c **** 	LOG_FUNCTION_END(Status);
2972:Drivers/VL53L0X/API/vl53l0x_api.c **** 	return Status;
2973:Drivers/VL53L0X/API/vl53l0x_api.c **** }
 6861              		.loc 1 2973 0
 6862 002a 40B2     		sxtb	r0, r0
 6863 002c 70BD     		pop	{r4, r5, r6, pc}
 6864              		.cfi_endproc
 6865              	.LFE220:
 6867              		.section	.text.VL53L0X_GetSpadAmbientDamperFactor,"ax",%progbits
 6868              		.align	1
 6869              		.global	VL53L0X_GetSpadAmbientDamperFactor
 6870              		.syntax unified
 6871              		.thumb
 6872              		.thumb_func
 6873              		.fpu fpv4-sp-d16
 6875              	VL53L0X_GetSpadAmbientDamperFactor:
 6876              	.LFB221:
2974:Drivers/VL53L0X/API/vl53l0x_api.c **** 
2975:Drivers/VL53L0X/API/vl53l0x_api.c **** VL53L0X_Error VL53L0X_GetSpadAmbientDamperFactor(VL53L0X_DEV Dev,
2976:Drivers/VL53L0X/API/vl53l0x_api.c **** 	uint16_t *pSpadAmbientDamperFactor)
2977:Drivers/VL53L0X/API/vl53l0x_api.c **** {
 6877              		.loc 1 2977 0
 6878              		.cfi_startproc
 6879              		@ args = 0, pretend = 0, frame = 8
 6880              		@ frame_needed = 0, uses_anonymous_args = 0
 6881              	.LVL962:
 6882 0000 70B5     		push	{r4, r5, r6, lr}
 6883              	.LCFI158:
 6884              		.cfi_def_cfa_offset 16
 6885              		.cfi_offset 4, -16
 6886              		.cfi_offset 5, -12
 6887              		.cfi_offset 6, -8
 6888              		.cfi_offset 14, -4
 6889 0002 82B0     		sub	sp, sp, #8
 6890              	.LCFI159:
 6891              		.cfi_def_cfa_offset 24
 6892 0004 0546     		mov	r5, r0
 6893 0006 0E46     		mov	r6, r1
 6894              	.LVL963:
2978:Drivers/VL53L0X/API/vl53l0x_api.c **** 	VL53L0X_Error Status = VL53L0X_ERROR_NONE;
2979:Drivers/VL53L0X/API/vl53l0x_api.c **** 	uint8_t Byte;
2980:Drivers/VL53L0X/API/vl53l0x_api.c **** 	LOG_FUNCTION_START("");
2981:Drivers/VL53L0X/API/vl53l0x_api.c **** 
2982:Drivers/VL53L0X/API/vl53l0x_api.c **** 	Status = VL53L0X_WrByte(Dev, 0xFF, 0x01);
 6895              		.loc 1 2982 0
 6896 0008 0122     		movs	r2, #1
ARM GAS  /tmp/ccq7BpOX.s 			page 180


 6897 000a FF21     		movs	r1, #255
 6898              	.LVL964:
 6899 000c FFF7FEFF 		bl	VL53L0X_WrByte
 6900              	.LVL965:
 6901 0010 0446     		mov	r4, r0
 6902              	.LVL966:
2983:Drivers/VL53L0X/API/vl53l0x_api.c **** 	Status |= VL53L0X_RdByte(Dev, 0x42, &Byte);
 6903              		.loc 1 2983 0
 6904 0012 0DF10702 		add	r2, sp, #7
 6905 0016 4221     		movs	r1, #66
 6906 0018 2846     		mov	r0, r5
 6907 001a FFF7FEFF 		bl	VL53L0X_RdByte
 6908              	.LVL967:
 6909 001e 0443     		orrs	r4, r4, r0
 6910              	.LVL968:
 6911 0020 64B2     		sxtb	r4, r4
 6912              	.LVL969:
2984:Drivers/VL53L0X/API/vl53l0x_api.c **** 	Status |= VL53L0X_WrByte(Dev, 0xFF, 0x00);
 6913              		.loc 1 2984 0
 6914 0022 0022     		movs	r2, #0
 6915 0024 FF21     		movs	r1, #255
 6916 0026 2846     		mov	r0, r5
 6917 0028 FFF7FEFF 		bl	VL53L0X_WrByte
 6918              	.LVL970:
 6919 002c 2043     		orrs	r0, r0, r4
 6920              	.LVL971:
2985:Drivers/VL53L0X/API/vl53l0x_api.c **** 	*pSpadAmbientDamperFactor = (uint16_t)Byte;
 6921              		.loc 1 2985 0
 6922 002e 9DF80730 		ldrb	r3, [sp, #7]	@ zero_extendqisi2
 6923 0032 3380     		strh	r3, [r6]	@ movhi
2986:Drivers/VL53L0X/API/vl53l0x_api.c **** 
2987:Drivers/VL53L0X/API/vl53l0x_api.c **** 	LOG_FUNCTION_END(Status);
2988:Drivers/VL53L0X/API/vl53l0x_api.c **** 	return Status;
2989:Drivers/VL53L0X/API/vl53l0x_api.c **** }
 6924              		.loc 1 2989 0
 6925 0034 40B2     		sxtb	r0, r0
 6926 0036 02B0     		add	sp, sp, #8
 6927              	.LCFI160:
 6928              		.cfi_def_cfa_offset 16
 6929              		@ sp needed
 6930 0038 70BD     		pop	{r4, r5, r6, pc}
 6931              		.cfi_endproc
 6932              	.LFE221:
 6934              		.section	.text.VL53L0X_SetReferenceSpads,"ax",%progbits
 6935              		.align	1
 6936              		.global	VL53L0X_SetReferenceSpads
 6937              		.syntax unified
 6938              		.thumb
 6939              		.thumb_func
 6940              		.fpu fpv4-sp-d16
 6942              	VL53L0X_SetReferenceSpads:
 6943              	.LFB222:
2990:Drivers/VL53L0X/API/vl53l0x_api.c **** 
2991:Drivers/VL53L0X/API/vl53l0x_api.c **** /* END Group SPAD functions */
2992:Drivers/VL53L0X/API/vl53l0x_api.c **** 
2993:Drivers/VL53L0X/API/vl53l0x_api.c **** /*****************************************************************************
2994:Drivers/VL53L0X/API/vl53l0x_api.c ****  * Internal functions
ARM GAS  /tmp/ccq7BpOX.s 			page 181


2995:Drivers/VL53L0X/API/vl53l0x_api.c ****  *****************************************************************************/
2996:Drivers/VL53L0X/API/vl53l0x_api.c **** 
2997:Drivers/VL53L0X/API/vl53l0x_api.c **** VL53L0X_Error VL53L0X_SetReferenceSpads(VL53L0X_DEV Dev, uint32_t count,
2998:Drivers/VL53L0X/API/vl53l0x_api.c **** 	uint8_t isApertureSpads)
2999:Drivers/VL53L0X/API/vl53l0x_api.c **** {
 6944              		.loc 1 2999 0
 6945              		.cfi_startproc
 6946              		@ args = 0, pretend = 0, frame = 0
 6947              		@ frame_needed = 0, uses_anonymous_args = 0
 6948              	.LVL972:
 6949 0000 08B5     		push	{r3, lr}
 6950              	.LCFI161:
 6951              		.cfi_def_cfa_offset 8
 6952              		.cfi_offset 3, -8
 6953              		.cfi_offset 14, -4
 6954              	.LVL973:
3000:Drivers/VL53L0X/API/vl53l0x_api.c **** 	VL53L0X_Error Status = VL53L0X_ERROR_NONE;
3001:Drivers/VL53L0X/API/vl53l0x_api.c **** 	LOG_FUNCTION_START("");
3002:Drivers/VL53L0X/API/vl53l0x_api.c **** 
3003:Drivers/VL53L0X/API/vl53l0x_api.c **** 	Status = VL53L0X_set_reference_spads(Dev, count, isApertureSpads);
 6955              		.loc 1 3003 0
 6956 0002 FFF7FEFF 		bl	VL53L0X_set_reference_spads
 6957              	.LVL974:
3004:Drivers/VL53L0X/API/vl53l0x_api.c **** 
3005:Drivers/VL53L0X/API/vl53l0x_api.c **** 	LOG_FUNCTION_END(Status);
3006:Drivers/VL53L0X/API/vl53l0x_api.c **** 
3007:Drivers/VL53L0X/API/vl53l0x_api.c **** 	return Status;
3008:Drivers/VL53L0X/API/vl53l0x_api.c **** }
 6958              		.loc 1 3008 0
 6959 0006 08BD     		pop	{r3, pc}
 6960              		.cfi_endproc
 6961              	.LFE222:
 6963              		.section	.text.VL53L0X_GetReferenceSpads,"ax",%progbits
 6964              		.align	1
 6965              		.global	VL53L0X_GetReferenceSpads
 6966              		.syntax unified
 6967              		.thumb
 6968              		.thumb_func
 6969              		.fpu fpv4-sp-d16
 6971              	VL53L0X_GetReferenceSpads:
 6972              	.LFB223:
3009:Drivers/VL53L0X/API/vl53l0x_api.c **** 
3010:Drivers/VL53L0X/API/vl53l0x_api.c **** VL53L0X_Error VL53L0X_GetReferenceSpads(VL53L0X_DEV Dev, uint32_t *pSpadCount,
3011:Drivers/VL53L0X/API/vl53l0x_api.c **** 	uint8_t *pIsApertureSpads)
3012:Drivers/VL53L0X/API/vl53l0x_api.c **** {
 6973              		.loc 1 3012 0
 6974              		.cfi_startproc
 6975              		@ args = 0, pretend = 0, frame = 0
 6976              		@ frame_needed = 0, uses_anonymous_args = 0
 6977              	.LVL975:
 6978 0000 08B5     		push	{r3, lr}
 6979              	.LCFI162:
 6980              		.cfi_def_cfa_offset 8
 6981              		.cfi_offset 3, -8
 6982              		.cfi_offset 14, -4
 6983              	.LVL976:
3013:Drivers/VL53L0X/API/vl53l0x_api.c **** 	VL53L0X_Error Status = VL53L0X_ERROR_NONE;
ARM GAS  /tmp/ccq7BpOX.s 			page 182


3014:Drivers/VL53L0X/API/vl53l0x_api.c **** 	LOG_FUNCTION_START("");
3015:Drivers/VL53L0X/API/vl53l0x_api.c **** 
3016:Drivers/VL53L0X/API/vl53l0x_api.c **** 	Status = VL53L0X_get_reference_spads(Dev, pSpadCount, pIsApertureSpads);
 6984              		.loc 1 3016 0
 6985 0002 FFF7FEFF 		bl	VL53L0X_get_reference_spads
 6986              	.LVL977:
3017:Drivers/VL53L0X/API/vl53l0x_api.c **** 
3018:Drivers/VL53L0X/API/vl53l0x_api.c **** 	LOG_FUNCTION_END(Status);
3019:Drivers/VL53L0X/API/vl53l0x_api.c **** 
3020:Drivers/VL53L0X/API/vl53l0x_api.c **** 	return Status;
3021:Drivers/VL53L0X/API/vl53l0x_api.c **** }
 6987              		.loc 1 3021 0
 6988 0006 08BD     		pop	{r3, pc}
 6989              		.cfi_endproc
 6990              	.LFE223:
 6992              		.section	.text.VL53L0X_PerformRefSpadManagement,"ax",%progbits
 6993              		.align	1
 6994              		.global	VL53L0X_PerformRefSpadManagement
 6995              		.syntax unified
 6996              		.thumb
 6997              		.thumb_func
 6998              		.fpu fpv4-sp-d16
 7000              	VL53L0X_PerformRefSpadManagement:
 7001              	.LFB224:
3022:Drivers/VL53L0X/API/vl53l0x_api.c **** 
3023:Drivers/VL53L0X/API/vl53l0x_api.c **** VL53L0X_Error VL53L0X_PerformRefSpadManagement(VL53L0X_DEV Dev,
3024:Drivers/VL53L0X/API/vl53l0x_api.c **** 	uint32_t *refSpadCount, uint8_t *isApertureSpads)
3025:Drivers/VL53L0X/API/vl53l0x_api.c **** {
 7002              		.loc 1 3025 0
 7003              		.cfi_startproc
 7004              		@ args = 0, pretend = 0, frame = 0
 7005              		@ frame_needed = 0, uses_anonymous_args = 0
 7006              	.LVL978:
 7007 0000 08B5     		push	{r3, lr}
 7008              	.LCFI163:
 7009              		.cfi_def_cfa_offset 8
 7010              		.cfi_offset 3, -8
 7011              		.cfi_offset 14, -4
 7012              	.LVL979:
3026:Drivers/VL53L0X/API/vl53l0x_api.c **** 	VL53L0X_Error Status = VL53L0X_ERROR_NONE;
3027:Drivers/VL53L0X/API/vl53l0x_api.c **** 	LOG_FUNCTION_START("");
3028:Drivers/VL53L0X/API/vl53l0x_api.c **** 
3029:Drivers/VL53L0X/API/vl53l0x_api.c **** 	Status = VL53L0X_perform_ref_spad_management(Dev, refSpadCount,
 7013              		.loc 1 3029 0
 7014 0002 FFF7FEFF 		bl	VL53L0X_perform_ref_spad_management
 7015              	.LVL980:
3030:Drivers/VL53L0X/API/vl53l0x_api.c **** 		isApertureSpads);
3031:Drivers/VL53L0X/API/vl53l0x_api.c **** 
3032:Drivers/VL53L0X/API/vl53l0x_api.c **** 	LOG_FUNCTION_END(Status);
3033:Drivers/VL53L0X/API/vl53l0x_api.c **** 
3034:Drivers/VL53L0X/API/vl53l0x_api.c **** 	return Status;
3035:Drivers/VL53L0X/API/vl53l0x_api.c **** }
 7016              		.loc 1 3035 0
 7017 0006 08BD     		pop	{r3, pc}
 7018              		.cfi_endproc
 7019              	.LFE224:
 7021              		.global	InterruptThresholdSettings
ARM GAS  /tmp/ccq7BpOX.s 			page 183


 7022              		.global	DefaultTuningSettings
 7023              		.section	.data.DefaultTuningSettings,"aw",%progbits
 7024              		.align	2
 7025              		.set	.LANCHOR1,. + 0
 7028              	DefaultTuningSettings:
 7029 0000 01       		.byte	1
 7030 0001 FF       		.byte	-1
 7031 0002 01       		.byte	1
 7032 0003 01       		.byte	1
 7033 0004 00       		.byte	0
 7034 0005 00       		.byte	0
 7035 0006 01       		.byte	1
 7036 0007 FF       		.byte	-1
 7037 0008 00       		.byte	0
 7038 0009 01       		.byte	1
 7039 000a 09       		.byte	9
 7040 000b 00       		.byte	0
 7041 000c 01       		.byte	1
 7042 000d 10       		.byte	16
 7043 000e 00       		.byte	0
 7044 000f 01       		.byte	1
 7045 0010 11       		.byte	17
 7046 0011 00       		.byte	0
 7047 0012 01       		.byte	1
 7048 0013 24       		.byte	36
 7049 0014 01       		.byte	1
 7050 0015 01       		.byte	1
 7051 0016 25       		.byte	37
 7052 0017 FF       		.byte	-1
 7053 0018 01       		.byte	1
 7054 0019 75       		.byte	117
 7055 001a 00       		.byte	0
 7056 001b 01       		.byte	1
 7057 001c FF       		.byte	-1
 7058 001d 01       		.byte	1
 7059 001e 01       		.byte	1
 7060 001f 4E       		.byte	78
 7061 0020 2C       		.byte	44
 7062 0021 01       		.byte	1
 7063 0022 48       		.byte	72
 7064 0023 00       		.byte	0
 7065 0024 01       		.byte	1
 7066 0025 30       		.byte	48
 7067 0026 20       		.byte	32
 7068 0027 01       		.byte	1
 7069 0028 FF       		.byte	-1
 7070 0029 00       		.byte	0
 7071 002a 01       		.byte	1
 7072 002b 30       		.byte	48
 7073 002c 09       		.byte	9
 7074 002d 01       		.byte	1
 7075 002e 54       		.byte	84
 7076 002f 00       		.byte	0
 7077 0030 01       		.byte	1
 7078 0031 31       		.byte	49
 7079 0032 04       		.byte	4
 7080 0033 01       		.byte	1
ARM GAS  /tmp/ccq7BpOX.s 			page 184


 7081 0034 32       		.byte	50
 7082 0035 03       		.byte	3
 7083 0036 01       		.byte	1
 7084 0037 40       		.byte	64
 7085 0038 83       		.byte	-125
 7086 0039 01       		.byte	1
 7087 003a 46       		.byte	70
 7088 003b 25       		.byte	37
 7089 003c 01       		.byte	1
 7090 003d 60       		.byte	96
 7091 003e 00       		.byte	0
 7092 003f 01       		.byte	1
 7093 0040 27       		.byte	39
 7094 0041 00       		.byte	0
 7095 0042 01       		.byte	1
 7096 0043 50       		.byte	80
 7097 0044 06       		.byte	6
 7098 0045 01       		.byte	1
 7099 0046 51       		.byte	81
 7100 0047 00       		.byte	0
 7101 0048 01       		.byte	1
 7102 0049 52       		.byte	82
 7103 004a 96       		.byte	-106
 7104 004b 01       		.byte	1
 7105 004c 56       		.byte	86
 7106 004d 08       		.byte	8
 7107 004e 01       		.byte	1
 7108 004f 57       		.byte	87
 7109 0050 30       		.byte	48
 7110 0051 01       		.byte	1
 7111 0052 61       		.byte	97
 7112 0053 00       		.byte	0
 7113 0054 01       		.byte	1
 7114 0055 62       		.byte	98
 7115 0056 00       		.byte	0
 7116 0057 01       		.byte	1
 7117 0058 64       		.byte	100
 7118 0059 00       		.byte	0
 7119 005a 01       		.byte	1
 7120 005b 65       		.byte	101
 7121 005c 00       		.byte	0
 7122 005d 01       		.byte	1
 7123 005e 66       		.byte	102
 7124 005f A0       		.byte	-96
 7125 0060 01       		.byte	1
 7126 0061 FF       		.byte	-1
 7127 0062 01       		.byte	1
 7128 0063 01       		.byte	1
 7129 0064 22       		.byte	34
 7130 0065 32       		.byte	50
 7131 0066 01       		.byte	1
 7132 0067 47       		.byte	71
 7133 0068 14       		.byte	20
 7134 0069 01       		.byte	1
 7135 006a 49       		.byte	73
 7136 006b FF       		.byte	-1
 7137 006c 01       		.byte	1
ARM GAS  /tmp/ccq7BpOX.s 			page 185


 7138 006d 4A       		.byte	74
 7139 006e 00       		.byte	0
 7140 006f 01       		.byte	1
 7141 0070 FF       		.byte	-1
 7142 0071 00       		.byte	0
 7143 0072 01       		.byte	1
 7144 0073 7A       		.byte	122
 7145 0074 0A       		.byte	10
 7146 0075 01       		.byte	1
 7147 0076 7B       		.byte	123
 7148 0077 00       		.byte	0
 7149 0078 01       		.byte	1
 7150 0079 78       		.byte	120
 7151 007a 21       		.byte	33
 7152 007b 01       		.byte	1
 7153 007c FF       		.byte	-1
 7154 007d 01       		.byte	1
 7155 007e 01       		.byte	1
 7156 007f 23       		.byte	35
 7157 0080 34       		.byte	52
 7158 0081 01       		.byte	1
 7159 0082 42       		.byte	66
 7160 0083 00       		.byte	0
 7161 0084 01       		.byte	1
 7162 0085 44       		.byte	68
 7163 0086 FF       		.byte	-1
 7164 0087 01       		.byte	1
 7165 0088 45       		.byte	69
 7166 0089 26       		.byte	38
 7167 008a 01       		.byte	1
 7168 008b 46       		.byte	70
 7169 008c 05       		.byte	5
 7170 008d 01       		.byte	1
 7171 008e 40       		.byte	64
 7172 008f 40       		.byte	64
 7173 0090 01       		.byte	1
 7174 0091 0E       		.byte	14
 7175 0092 06       		.byte	6
 7176 0093 01       		.byte	1
 7177 0094 20       		.byte	32
 7178 0095 1A       		.byte	26
 7179 0096 01       		.byte	1
 7180 0097 43       		.byte	67
 7181 0098 40       		.byte	64
 7182 0099 01       		.byte	1
 7183 009a FF       		.byte	-1
 7184 009b 00       		.byte	0
 7185 009c 01       		.byte	1
 7186 009d 34       		.byte	52
 7187 009e 03       		.byte	3
 7188 009f 01       		.byte	1
 7189 00a0 35       		.byte	53
 7190 00a1 44       		.byte	68
 7191 00a2 01       		.byte	1
 7192 00a3 FF       		.byte	-1
 7193 00a4 01       		.byte	1
 7194 00a5 01       		.byte	1
ARM GAS  /tmp/ccq7BpOX.s 			page 186


 7195 00a6 31       		.byte	49
 7196 00a7 04       		.byte	4
 7197 00a8 01       		.byte	1
 7198 00a9 4B       		.byte	75
 7199 00aa 09       		.byte	9
 7200 00ab 01       		.byte	1
 7201 00ac 4C       		.byte	76
 7202 00ad 05       		.byte	5
 7203 00ae 01       		.byte	1
 7204 00af 4D       		.byte	77
 7205 00b0 04       		.byte	4
 7206 00b1 01       		.byte	1
 7207 00b2 FF       		.byte	-1
 7208 00b3 00       		.byte	0
 7209 00b4 01       		.byte	1
 7210 00b5 44       		.byte	68
 7211 00b6 00       		.byte	0
 7212 00b7 01       		.byte	1
 7213 00b8 45       		.byte	69
 7214 00b9 20       		.byte	32
 7215 00ba 01       		.byte	1
 7216 00bb 47       		.byte	71
 7217 00bc 08       		.byte	8
 7218 00bd 01       		.byte	1
 7219 00be 48       		.byte	72
 7220 00bf 28       		.byte	40
 7221 00c0 01       		.byte	1
 7222 00c1 67       		.byte	103
 7223 00c2 00       		.byte	0
 7224 00c3 01       		.byte	1
 7225 00c4 70       		.byte	112
 7226 00c5 04       		.byte	4
 7227 00c6 01       		.byte	1
 7228 00c7 71       		.byte	113
 7229 00c8 01       		.byte	1
 7230 00c9 01       		.byte	1
 7231 00ca 72       		.byte	114
 7232 00cb FE       		.byte	-2
 7233 00cc 01       		.byte	1
 7234 00cd 76       		.byte	118
 7235 00ce 00       		.byte	0
 7236 00cf 01       		.byte	1
 7237 00d0 77       		.byte	119
 7238 00d1 00       		.byte	0
 7239 00d2 01       		.byte	1
 7240 00d3 FF       		.byte	-1
 7241 00d4 01       		.byte	1
 7242 00d5 01       		.byte	1
 7243 00d6 0D       		.byte	13
 7244 00d7 01       		.byte	1
 7245 00d8 01       		.byte	1
 7246 00d9 FF       		.byte	-1
 7247 00da 00       		.byte	0
 7248 00db 01       		.byte	1
 7249 00dc 80       		.byte	-128
 7250 00dd 01       		.byte	1
 7251 00de 01       		.byte	1
ARM GAS  /tmp/ccq7BpOX.s 			page 187


 7252 00df 01       		.byte	1
 7253 00e0 F8       		.byte	-8
 7254 00e1 01       		.byte	1
 7255 00e2 FF       		.byte	-1
 7256 00e3 01       		.byte	1
 7257 00e4 01       		.byte	1
 7258 00e5 8E       		.byte	-114
 7259 00e6 01       		.byte	1
 7260 00e7 01       		.byte	1
 7261 00e8 00       		.byte	0
 7262 00e9 01       		.byte	1
 7263 00ea 01       		.byte	1
 7264 00eb FF       		.byte	-1
 7265 00ec 00       		.byte	0
 7266 00ed 01       		.byte	1
 7267 00ee 80       		.byte	-128
 7268 00ef 00       		.byte	0
 7269 00f0 00       		.byte	0
 7270 00f1 00       		.byte	0
 7271 00f2 00       		.byte	0
 7272              		.section	.data.InterruptThresholdSettings,"aw",%progbits
 7273              		.align	2
 7274              		.set	.LANCHOR0,. + 0
 7277              	InterruptThresholdSettings:
 7278 0000 01       		.byte	1
 7279 0001 FF       		.byte	-1
 7280 0002 00       		.byte	0
 7281 0003 01       		.byte	1
 7282 0004 80       		.byte	-128
 7283 0005 01       		.byte	1
 7284 0006 01       		.byte	1
 7285 0007 FF       		.byte	-1
 7286 0008 01       		.byte	1
 7287 0009 01       		.byte	1
 7288 000a 00       		.byte	0
 7289 000b 00       		.byte	0
 7290 000c 01       		.byte	1
 7291 000d FF       		.byte	-1
 7292 000e 01       		.byte	1
 7293 000f 01       		.byte	1
 7294 0010 4F       		.byte	79
 7295 0011 02       		.byte	2
 7296 0012 01       		.byte	1
 7297 0013 FF       		.byte	-1
 7298 0014 0E       		.byte	14
 7299 0015 01       		.byte	1
 7300 0016 00       		.byte	0
 7301 0017 03       		.byte	3
 7302 0018 01       		.byte	1
 7303 0019 01       		.byte	1
 7304 001a 84       		.byte	-124
 7305 001b 01       		.byte	1
 7306 001c 02       		.byte	2
 7307 001d 0A       		.byte	10
 7308 001e 01       		.byte	1
 7309 001f 03       		.byte	3
 7310 0020 03       		.byte	3
ARM GAS  /tmp/ccq7BpOX.s 			page 188


 7311 0021 01       		.byte	1
 7312 0022 04       		.byte	4
 7313 0023 08       		.byte	8
 7314 0024 01       		.byte	1
 7315 0025 05       		.byte	5
 7316 0026 C8       		.byte	-56
 7317 0027 01       		.byte	1
 7318 0028 06       		.byte	6
 7319 0029 03       		.byte	3
 7320 002a 01       		.byte	1
 7321 002b 07       		.byte	7
 7322 002c 8D       		.byte	-115
 7323 002d 01       		.byte	1
 7324 002e 08       		.byte	8
 7325 002f 08       		.byte	8
 7326 0030 01       		.byte	1
 7327 0031 09       		.byte	9
 7328 0032 C6       		.byte	-58
 7329 0033 01       		.byte	1
 7330 0034 0A       		.byte	10
 7331 0035 01       		.byte	1
 7332 0036 01       		.byte	1
 7333 0037 0B       		.byte	11
 7334 0038 02       		.byte	2
 7335 0039 01       		.byte	1
 7336 003a 0C       		.byte	12
 7337 003b 00       		.byte	0
 7338 003c 01       		.byte	1
 7339 003d 0D       		.byte	13
 7340 003e D5       		.byte	-43
 7341 003f 01       		.byte	1
 7342 0040 0E       		.byte	14
 7343 0041 18       		.byte	24
 7344 0042 01       		.byte	1
 7345 0043 0F       		.byte	15
 7346 0044 12       		.byte	18
 7347 0045 01       		.byte	1
 7348 0046 10       		.byte	16
 7349 0047 01       		.byte	1
 7350 0048 01       		.byte	1
 7351 0049 11       		.byte	17
 7352 004a 82       		.byte	-126
 7353 004b 01       		.byte	1
 7354 004c 12       		.byte	18
 7355 004d 00       		.byte	0
 7356 004e 01       		.byte	1
 7357 004f 13       		.byte	19
 7358 0050 D5       		.byte	-43
 7359 0051 01       		.byte	1
 7360 0052 14       		.byte	20
 7361 0053 18       		.byte	24
 7362 0054 01       		.byte	1
 7363 0055 15       		.byte	21
 7364 0056 13       		.byte	19
 7365 0057 01       		.byte	1
 7366 0058 16       		.byte	22
 7367 0059 03       		.byte	3
ARM GAS  /tmp/ccq7BpOX.s 			page 189


 7368 005a 01       		.byte	1
 7369 005b 17       		.byte	23
 7370 005c 86       		.byte	-122
 7371 005d 01       		.byte	1
 7372 005e 18       		.byte	24
 7373 005f 0A       		.byte	10
 7374 0060 01       		.byte	1
 7375 0061 19       		.byte	25
 7376 0062 09       		.byte	9
 7377 0063 01       		.byte	1
 7378 0064 1A       		.byte	26
 7379 0065 08       		.byte	8
 7380 0066 01       		.byte	1
 7381 0067 1B       		.byte	27
 7382 0068 C2       		.byte	-62
 7383 0069 01       		.byte	1
 7384 006a 1C       		.byte	28
 7385 006b 03       		.byte	3
 7386 006c 01       		.byte	1
 7387 006d 1D       		.byte	29
 7388 006e 8F       		.byte	-113
 7389 006f 01       		.byte	1
 7390 0070 1E       		.byte	30
 7391 0071 0A       		.byte	10
 7392 0072 01       		.byte	1
 7393 0073 1F       		.byte	31
 7394 0074 06       		.byte	6
 7395 0075 01       		.byte	1
 7396 0076 20       		.byte	32
 7397 0077 01       		.byte	1
 7398 0078 01       		.byte	1
 7399 0079 21       		.byte	33
 7400 007a 02       		.byte	2
 7401 007b 01       		.byte	1
 7402 007c 22       		.byte	34
 7403 007d 00       		.byte	0
 7404 007e 01       		.byte	1
 7405 007f 23       		.byte	35
 7406 0080 D5       		.byte	-43
 7407 0081 01       		.byte	1
 7408 0082 24       		.byte	36
 7409 0083 18       		.byte	24
 7410 0084 01       		.byte	1
 7411 0085 25       		.byte	37
 7412 0086 22       		.byte	34
 7413 0087 01       		.byte	1
 7414 0088 26       		.byte	38
 7415 0089 01       		.byte	1
 7416 008a 01       		.byte	1
 7417 008b 27       		.byte	39
 7418 008c 82       		.byte	-126
 7419 008d 01       		.byte	1
 7420 008e 28       		.byte	40
 7421 008f 00       		.byte	0
 7422 0090 01       		.byte	1
 7423 0091 29       		.byte	41
 7424 0092 D5       		.byte	-43
ARM GAS  /tmp/ccq7BpOX.s 			page 190


 7425 0093 01       		.byte	1
 7426 0094 2A       		.byte	42
 7427 0095 18       		.byte	24
 7428 0096 01       		.byte	1
 7429 0097 2B       		.byte	43
 7430 0098 0B       		.byte	11
 7431 0099 01       		.byte	1
 7432 009a 2C       		.byte	44
 7433 009b 28       		.byte	40
 7434 009c 01       		.byte	1
 7435 009d 2D       		.byte	45
 7436 009e 78       		.byte	120
 7437 009f 01       		.byte	1
 7438 00a0 2E       		.byte	46
 7439 00a1 28       		.byte	40
 7440 00a2 01       		.byte	1
 7441 00a3 2F       		.byte	47
 7442 00a4 91       		.byte	-111
 7443 00a5 01       		.byte	1
 7444 00a6 30       		.byte	48
 7445 00a7 00       		.byte	0
 7446 00a8 01       		.byte	1
 7447 00a9 31       		.byte	49
 7448 00aa 0B       		.byte	11
 7449 00ab 01       		.byte	1
 7450 00ac 32       		.byte	50
 7451 00ad 00       		.byte	0
 7452 00ae 01       		.byte	1
 7453 00af 33       		.byte	51
 7454 00b0 0B       		.byte	11
 7455 00b1 01       		.byte	1
 7456 00b2 34       		.byte	52
 7457 00b3 00       		.byte	0
 7458 00b4 01       		.byte	1
 7459 00b5 35       		.byte	53
 7460 00b6 A1       		.byte	-95
 7461 00b7 01       		.byte	1
 7462 00b8 36       		.byte	54
 7463 00b9 00       		.byte	0
 7464 00ba 01       		.byte	1
 7465 00bb 37       		.byte	55
 7466 00bc A0       		.byte	-96
 7467 00bd 01       		.byte	1
 7468 00be 38       		.byte	56
 7469 00bf 00       		.byte	0
 7470 00c0 01       		.byte	1
 7471 00c1 39       		.byte	57
 7472 00c2 04       		.byte	4
 7473 00c3 01       		.byte	1
 7474 00c4 3A       		.byte	58
 7475 00c5 28       		.byte	40
 7476 00c6 01       		.byte	1
 7477 00c7 3B       		.byte	59
 7478 00c8 30       		.byte	48
 7479 00c9 01       		.byte	1
 7480 00ca 3C       		.byte	60
 7481 00cb 0C       		.byte	12
ARM GAS  /tmp/ccq7BpOX.s 			page 191


 7482 00cc 01       		.byte	1
 7483 00cd 3D       		.byte	61
 7484 00ce 04       		.byte	4
 7485 00cf 01       		.byte	1
 7486 00d0 3E       		.byte	62
 7487 00d1 0F       		.byte	15
 7488 00d2 01       		.byte	1
 7489 00d3 3F       		.byte	63
 7490 00d4 79       		.byte	121
 7491 00d5 01       		.byte	1
 7492 00d6 40       		.byte	64
 7493 00d7 28       		.byte	40
 7494 00d8 01       		.byte	1
 7495 00d9 41       		.byte	65
 7496 00da 1E       		.byte	30
 7497 00db 01       		.byte	1
 7498 00dc 42       		.byte	66
 7499 00dd 2F       		.byte	47
 7500 00de 01       		.byte	1
 7501 00df 43       		.byte	67
 7502 00e0 87       		.byte	-121
 7503 00e1 01       		.byte	1
 7504 00e2 44       		.byte	68
 7505 00e3 00       		.byte	0
 7506 00e4 01       		.byte	1
 7507 00e5 45       		.byte	69
 7508 00e6 0B       		.byte	11
 7509 00e7 01       		.byte	1
 7510 00e8 46       		.byte	70
 7511 00e9 00       		.byte	0
 7512 00ea 01       		.byte	1
 7513 00eb 47       		.byte	71
 7514 00ec 0B       		.byte	11
 7515 00ed 01       		.byte	1
 7516 00ee 48       		.byte	72
 7517 00ef 00       		.byte	0
 7518 00f0 01       		.byte	1
 7519 00f1 49       		.byte	73
 7520 00f2 A7       		.byte	-89
 7521 00f3 01       		.byte	1
 7522 00f4 4A       		.byte	74
 7523 00f5 00       		.byte	0
 7524 00f6 01       		.byte	1
 7525 00f7 4B       		.byte	75
 7526 00f8 A6       		.byte	-90
 7527 00f9 01       		.byte	1
 7528 00fa 4C       		.byte	76
 7529 00fb 00       		.byte	0
 7530 00fc 01       		.byte	1
 7531 00fd 4D       		.byte	77
 7532 00fe 04       		.byte	4
 7533 00ff 01       		.byte	1
 7534 0100 4E       		.byte	78
 7535 0101 01       		.byte	1
 7536 0102 01       		.byte	1
 7537 0103 4F       		.byte	79
 7538 0104 00       		.byte	0
ARM GAS  /tmp/ccq7BpOX.s 			page 192


 7539 0105 01       		.byte	1
 7540 0106 50       		.byte	80
 7541 0107 00       		.byte	0
 7542 0108 01       		.byte	1
 7543 0109 51       		.byte	81
 7544 010a 80       		.byte	-128
 7545 010b 01       		.byte	1
 7546 010c 52       		.byte	82
 7547 010d 09       		.byte	9
 7548 010e 01       		.byte	1
 7549 010f 53       		.byte	83
 7550 0110 08       		.byte	8
 7551 0111 01       		.byte	1
 7552 0112 54       		.byte	84
 7553 0113 01       		.byte	1
 7554 0114 01       		.byte	1
 7555 0115 55       		.byte	85
 7556 0116 00       		.byte	0
 7557 0117 01       		.byte	1
 7558 0118 56       		.byte	86
 7559 0119 0F       		.byte	15
 7560 011a 01       		.byte	1
 7561 011b 57       		.byte	87
 7562 011c 79       		.byte	121
 7563 011d 01       		.byte	1
 7564 011e 58       		.byte	88
 7565 011f 09       		.byte	9
 7566 0120 01       		.byte	1
 7567 0121 59       		.byte	89
 7568 0122 05       		.byte	5
 7569 0123 01       		.byte	1
 7570 0124 5A       		.byte	90
 7571 0125 00       		.byte	0
 7572 0126 01       		.byte	1
 7573 0127 5B       		.byte	91
 7574 0128 60       		.byte	96
 7575 0129 01       		.byte	1
 7576 012a 5C       		.byte	92
 7577 012b 05       		.byte	5
 7578 012c 01       		.byte	1
 7579 012d 5D       		.byte	93
 7580 012e D1       		.byte	-47
 7581 012f 01       		.byte	1
 7582 0130 5E       		.byte	94
 7583 0131 0C       		.byte	12
 7584 0132 01       		.byte	1
 7585 0133 5F       		.byte	95
 7586 0134 3C       		.byte	60
 7587 0135 01       		.byte	1
 7588 0136 60       		.byte	96
 7589 0137 00       		.byte	0
 7590 0138 01       		.byte	1
 7591 0139 61       		.byte	97
 7592 013a D0       		.byte	-48
 7593 013b 01       		.byte	1
 7594 013c 62       		.byte	98
 7595 013d 0B       		.byte	11
ARM GAS  /tmp/ccq7BpOX.s 			page 193


 7596 013e 01       		.byte	1
 7597 013f 63       		.byte	99
 7598 0140 03       		.byte	3
 7599 0141 01       		.byte	1
 7600 0142 64       		.byte	100
 7601 0143 28       		.byte	40
 7602 0144 01       		.byte	1
 7603 0145 65       		.byte	101
 7604 0146 10       		.byte	16
 7605 0147 01       		.byte	1
 7606 0148 66       		.byte	102
 7607 0149 2A       		.byte	42
 7608 014a 01       		.byte	1
 7609 014b 67       		.byte	103
 7610 014c 39       		.byte	57
 7611 014d 01       		.byte	1
 7612 014e 68       		.byte	104
 7613 014f 0B       		.byte	11
 7614 0150 01       		.byte	1
 7615 0151 69       		.byte	105
 7616 0152 02       		.byte	2
 7617 0153 01       		.byte	1
 7618 0154 6A       		.byte	106
 7619 0155 28       		.byte	40
 7620 0156 01       		.byte	1
 7621 0157 6B       		.byte	107
 7622 0158 10       		.byte	16
 7623 0159 01       		.byte	1
 7624 015a 6C       		.byte	108
 7625 015b 2A       		.byte	42
 7626 015c 01       		.byte	1
 7627 015d 6D       		.byte	109
 7628 015e 61       		.byte	97
 7629 015f 01       		.byte	1
 7630 0160 6E       		.byte	110
 7631 0161 0C       		.byte	12
 7632 0162 01       		.byte	1
 7633 0163 6F       		.byte	111
 7634 0164 00       		.byte	0
 7635 0165 01       		.byte	1
 7636 0166 70       		.byte	112
 7637 0167 0F       		.byte	15
 7638 0168 01       		.byte	1
 7639 0169 71       		.byte	113
 7640 016a 79       		.byte	121
 7641 016b 01       		.byte	1
 7642 016c 72       		.byte	114
 7643 016d 00       		.byte	0
 7644 016e 01       		.byte	1
 7645 016f 73       		.byte	115
 7646 0170 0B       		.byte	11
 7647 0171 01       		.byte	1
 7648 0172 74       		.byte	116
 7649 0173 00       		.byte	0
 7650 0174 01       		.byte	1
 7651 0175 75       		.byte	117
 7652 0176 0B       		.byte	11
ARM GAS  /tmp/ccq7BpOX.s 			page 194


 7653 0177 01       		.byte	1
 7654 0178 76       		.byte	118
 7655 0179 00       		.byte	0
 7656 017a 01       		.byte	1
 7657 017b 77       		.byte	119
 7658 017c A1       		.byte	-95
 7659 017d 01       		.byte	1
 7660 017e 78       		.byte	120
 7661 017f 00       		.byte	0
 7662 0180 01       		.byte	1
 7663 0181 79       		.byte	121
 7664 0182 A0       		.byte	-96
 7665 0183 01       		.byte	1
 7666 0184 7A       		.byte	122
 7667 0185 00       		.byte	0
 7668 0186 01       		.byte	1
 7669 0187 7B       		.byte	123
 7670 0188 04       		.byte	4
 7671 0189 01       		.byte	1
 7672 018a FF       		.byte	-1
 7673 018b 04       		.byte	4
 7674 018c 01       		.byte	1
 7675 018d 79       		.byte	121
 7676 018e 1D       		.byte	29
 7677 018f 01       		.byte	1
 7678 0190 7B       		.byte	123
 7679 0191 27       		.byte	39
 7680 0192 01       		.byte	1
 7681 0193 96       		.byte	-106
 7682 0194 0E       		.byte	14
 7683 0195 01       		.byte	1
 7684 0196 97       		.byte	-105
 7685 0197 FE       		.byte	-2
 7686 0198 01       		.byte	1
 7687 0199 98       		.byte	-104
 7688 019a 03       		.byte	3
 7689 019b 01       		.byte	1
 7690 019c 99       		.byte	-103
 7691 019d EF       		.byte	-17
 7692 019e 01       		.byte	1
 7693 019f 9A       		.byte	-102
 7694 01a0 02       		.byte	2
 7695 01a1 01       		.byte	1
 7696 01a2 9B       		.byte	-101
 7697 01a3 44       		.byte	68
 7698 01a4 01       		.byte	1
 7699 01a5 73       		.byte	115
 7700 01a6 07       		.byte	7
 7701 01a7 01       		.byte	1
 7702 01a8 70       		.byte	112
 7703 01a9 01       		.byte	1
 7704 01aa 01       		.byte	1
 7705 01ab FF       		.byte	-1
 7706 01ac 01       		.byte	1
 7707 01ad 01       		.byte	1
 7708 01ae 00       		.byte	0
 7709 01af 01       		.byte	1
ARM GAS  /tmp/ccq7BpOX.s 			page 195


 7710 01b0 01       		.byte	1
 7711 01b1 FF       		.byte	-1
 7712 01b2 00       		.byte	0
 7713 01b3 00       		.byte	0
 7714 01b4 00       		.byte	0
 7715 01b5 00       		.byte	0
 7716              		.text
 7717              	.Letext0:
 7718              		.file 2 "/usr/arm-none-eabi/include/machine/_default_types.h"
 7719              		.file 3 "/usr/arm-none-eabi/include/sys/_stdint.h"
 7720              		.file 4 "Drivers/VL53L0X/API/vl53l0x_types.h"
 7721              		.file 5 "Drivers/VL53L0X/API/vl53l0x_device.h"
 7722              		.file 6 "Drivers/VL53L0X/API/vl53l0x_def.h"
 7723              		.file 7 "/usr/arm-none-eabi/include/sys/lock.h"
 7724              		.file 8 "/usr/arm-none-eabi/include/sys/_types.h"
 7725              		.file 9 "/usr/lib/gcc/arm-none-eabi/7.3.0/include/stddef.h"
 7726              		.file 10 "/usr/arm-none-eabi/include/sys/reent.h"
 7727              		.file 11 "Drivers/CMSIS/Include/core_cm4.h"
 7728              		.file 12 "Drivers/CMSIS/Device/ST/STM32F4xx/Include/system_stm32f4xx.h"
 7729              		.file 13 "Drivers/CMSIS/Device/ST/STM32F4xx/Include/stm32f401xe.h"
 7730              		.file 14 "Drivers/STM32F4xx_HAL_Driver/Inc/stm32f4xx_hal_def.h"
 7731              		.file 15 "Drivers/STM32F4xx_HAL_Driver/Inc/stm32f4xx_hal_dma.h"
 7732              		.file 16 "Drivers/STM32F4xx_HAL_Driver/Inc/stm32f4xx_hal_i2c.h"
 7733              		.file 17 "Drivers/VL53L0X/Platform/vl53l0x_platform.h"
 7734              		.file 18 "Drivers/VL53L0X/API/vl53l0x_tuning.h"
 7735              		.file 19 "Drivers/VL53L0X/API/vl53l0x_interrupt_threshold_settings.h"
 7736              		.file 20 "/usr/arm-none-eabi/include/stdlib.h"
 7737              		.file 21 "Drivers/VL53L0X/API/vl53l0x_api_calibration.h"
 7738              		.file 22 "Drivers/VL53L0X/API/vl53l0x_api_core.h"
 7739              		.file 23 "Drivers/VL53L0X/API/vl53l0x_api_strings.h"
 7740              		.file 24 "<built-in>"
ARM GAS  /tmp/ccq7BpOX.s 			page 196


DEFINED SYMBOLS
                            *ABS*:0000000000000000 vl53l0x_api.c
     /tmp/ccq7BpOX.s:18     .text.VL53L0X_GetVersion:0000000000000000 $t
     /tmp/ccq7BpOX.s:25     .text.VL53L0X_GetVersion:0000000000000000 VL53L0X_GetVersion
     /tmp/ccq7BpOX.s:55     .text.VL53L0X_GetPalSpecVersion:0000000000000000 $t
     /tmp/ccq7BpOX.s:62     .text.VL53L0X_GetPalSpecVersion:0000000000000000 VL53L0X_GetPalSpecVersion
     /tmp/ccq7BpOX.s:90     .text.VL53L0X_GetProductRevision:0000000000000000 $t
     /tmp/ccq7BpOX.s:97     .text.VL53L0X_GetProductRevision:0000000000000000 VL53L0X_GetProductRevision
     /tmp/ccq7BpOX.s:140    .text.VL53L0X_GetDeviceInfo:0000000000000000 $t
     /tmp/ccq7BpOX.s:147    .text.VL53L0X_GetDeviceInfo:0000000000000000 VL53L0X_GetDeviceInfo
     /tmp/ccq7BpOX.s:169    .text.VL53L0X_GetDeviceErrorStatus:0000000000000000 $t
     /tmp/ccq7BpOX.s:176    .text.VL53L0X_GetDeviceErrorStatus:0000000000000000 VL53L0X_GetDeviceErrorStatus
     /tmp/ccq7BpOX.s:213    .text.VL53L0X_GetDeviceErrorString:0000000000000000 $t
     /tmp/ccq7BpOX.s:220    .text.VL53L0X_GetDeviceErrorString:0000000000000000 VL53L0X_GetDeviceErrorString
     /tmp/ccq7BpOX.s:242    .text.VL53L0X_GetRangeStatusString:0000000000000000 $t
     /tmp/ccq7BpOX.s:249    .text.VL53L0X_GetRangeStatusString:0000000000000000 VL53L0X_GetRangeStatusString
     /tmp/ccq7BpOX.s:271    .text.VL53L0X_GetPalErrorString:0000000000000000 $t
     /tmp/ccq7BpOX.s:278    .text.VL53L0X_GetPalErrorString:0000000000000000 VL53L0X_GetPalErrorString
     /tmp/ccq7BpOX.s:300    .text.VL53L0X_GetPalStateString:0000000000000000 $t
     /tmp/ccq7BpOX.s:307    .text.VL53L0X_GetPalStateString:0000000000000000 VL53L0X_GetPalStateString
     /tmp/ccq7BpOX.s:329    .text.VL53L0X_GetPalState:0000000000000000 $t
     /tmp/ccq7BpOX.s:336    .text.VL53L0X_GetPalState:0000000000000000 VL53L0X_GetPalState
     /tmp/ccq7BpOX.s:355    .text.VL53L0X_GetPowerMode:0000000000000000 $t
     /tmp/ccq7BpOX.s:362    .text.VL53L0X_GetPowerMode:0000000000000000 VL53L0X_GetPowerMode
     /tmp/ccq7BpOX.s:417    .text.VL53L0X_SetOffsetCalibrationDataMicroMeter:0000000000000000 $t
     /tmp/ccq7BpOX.s:424    .text.VL53L0X_SetOffsetCalibrationDataMicroMeter:0000000000000000 VL53L0X_SetOffsetCalibrationDataMicroMeter
     /tmp/ccq7BpOX.s:446    .text.VL53L0X_GetOffsetCalibrationDataMicroMeter:0000000000000000 $t
     /tmp/ccq7BpOX.s:453    .text.VL53L0X_GetOffsetCalibrationDataMicroMeter:0000000000000000 VL53L0X_GetOffsetCalibrationDataMicroMeter
     /tmp/ccq7BpOX.s:475    .text.VL53L0X_SetLinearityCorrectiveGain:0000000000000000 $t
     /tmp/ccq7BpOX.s:482    .text.VL53L0X_SetLinearityCorrectiveGain:0000000000000000 VL53L0X_SetLinearityCorrectiveGain
     /tmp/ccq7BpOX.s:529    .text.VL53L0X_GetLinearityCorrectiveGain:0000000000000000 $t
     /tmp/ccq7BpOX.s:536    .text.VL53L0X_GetLinearityCorrectiveGain:0000000000000000 VL53L0X_GetLinearityCorrectiveGain
     /tmp/ccq7BpOX.s:555    .text.VL53L0X_SetGroupParamHold:0000000000000000 $t
     /tmp/ccq7BpOX.s:562    .text.VL53L0X_SetGroupParamHold:0000000000000000 VL53L0X_SetGroupParamHold
     /tmp/ccq7BpOX.s:578    .text.VL53L0X_GetUpperLimitMilliMeter:0000000000000000 $t
     /tmp/ccq7BpOX.s:585    .text.VL53L0X_GetUpperLimitMilliMeter:0000000000000000 VL53L0X_GetUpperLimitMilliMeter
     /tmp/ccq7BpOX.s:601    .text.VL53L0X_GetTotalSignalRate:0000000000000000 $t
     /tmp/ccq7BpOX.s:608    .text.VL53L0X_GetTotalSignalRate:0000000000000000 VL53L0X_GetTotalSignalRate
     /tmp/ccq7BpOX.s:653    .text.VL53L0X_SetDeviceAddress:0000000000000000 $t
     /tmp/ccq7BpOX.s:660    .text.VL53L0X_SetDeviceAddress:0000000000000000 VL53L0X_SetDeviceAddress
     /tmp/ccq7BpOX.s:685    .text.VL53L0X_SetTuningSettingBuffer:0000000000000000 $t
     /tmp/ccq7BpOX.s:692    .text.VL53L0X_SetTuningSettingBuffer:0000000000000000 VL53L0X_SetTuningSettingBuffer
     /tmp/ccq7BpOX.s:735    .text.VL53L0X_GetTuningSettingBuffer:0000000000000000 $t
     /tmp/ccq7BpOX.s:742    .text.VL53L0X_GetTuningSettingBuffer:0000000000000000 VL53L0X_GetTuningSettingBuffer
     /tmp/ccq7BpOX.s:764    .text.VL53L0X_WaitDeviceBooted:0000000000000000 $t
     /tmp/ccq7BpOX.s:771    .text.VL53L0X_WaitDeviceBooted:0000000000000000 VL53L0X_WaitDeviceBooted
     /tmp/ccq7BpOX.s:787    .text.VL53L0X_ResetDevice:0000000000000000 $t
     /tmp/ccq7BpOX.s:794    .text.VL53L0X_ResetDevice:0000000000000000 VL53L0X_ResetDevice
     /tmp/ccq7BpOX.s:882    .text.VL53L0X_SetDeviceMode:0000000000000000 $t
     /tmp/ccq7BpOX.s:889    .text.VL53L0X_SetDeviceMode:0000000000000000 VL53L0X_SetDeviceMode
     /tmp/ccq7BpOX.s:902    .text.VL53L0X_SetDeviceMode:0000000000000008 $d
     /tmp/ccq7BpOX.s:924    .text.VL53L0X_SetDeviceMode:000000000000001e $t
     /tmp/ccq7BpOX.s:944    .text.VL53L0X_GetDeviceMode:0000000000000000 $t
     /tmp/ccq7BpOX.s:951    .text.VL53L0X_GetDeviceMode:0000000000000000 VL53L0X_GetDeviceMode
     /tmp/ccq7BpOX.s:970    .text.VL53L0X_SetRangeFractionEnable:0000000000000000 $t
     /tmp/ccq7BpOX.s:977    .text.VL53L0X_SetRangeFractionEnable:0000000000000000 VL53L0X_SetRangeFractionEnable
     /tmp/ccq7BpOX.s:1014   .text.VL53L0X_GetFractionEnable:0000000000000000 $t
ARM GAS  /tmp/ccq7BpOX.s 			page 197


     /tmp/ccq7BpOX.s:1021   .text.VL53L0X_GetFractionEnable:0000000000000000 VL53L0X_GetFractionEnable
     /tmp/ccq7BpOX.s:1057   .text.VL53L0X_SetHistogramMode:0000000000000000 $t
     /tmp/ccq7BpOX.s:1064   .text.VL53L0X_SetHistogramMode:0000000000000000 VL53L0X_SetHistogramMode
     /tmp/ccq7BpOX.s:1080   .text.VL53L0X_GetHistogramMode:0000000000000000 $t
     /tmp/ccq7BpOX.s:1087   .text.VL53L0X_GetHistogramMode:0000000000000000 VL53L0X_GetHistogramMode
     /tmp/ccq7BpOX.s:1103   .text.VL53L0X_SetMeasurementTimingBudgetMicroSeconds:0000000000000000 $t
     /tmp/ccq7BpOX.s:1110   .text.VL53L0X_SetMeasurementTimingBudgetMicroSeconds:0000000000000000 VL53L0X_SetMeasurementTimingBudgetMicroSeconds
     /tmp/ccq7BpOX.s:1132   .text.VL53L0X_GetMeasurementTimingBudgetMicroSeconds:0000000000000000 $t
     /tmp/ccq7BpOX.s:1139   .text.VL53L0X_GetMeasurementTimingBudgetMicroSeconds:0000000000000000 VL53L0X_GetMeasurementTimingBudgetMicroSeconds
     /tmp/ccq7BpOX.s:1161   .text.VL53L0X_SetVcselPulsePeriod:0000000000000000 $t
     /tmp/ccq7BpOX.s:1168   .text.VL53L0X_SetVcselPulsePeriod:0000000000000000 VL53L0X_SetVcselPulsePeriod
     /tmp/ccq7BpOX.s:1190   .text.VL53L0X_GetVcselPulsePeriod:0000000000000000 $t
     /tmp/ccq7BpOX.s:1197   .text.VL53L0X_GetVcselPulsePeriod:0000000000000000 VL53L0X_GetVcselPulsePeriod
     /tmp/ccq7BpOX.s:1219   .text.VL53L0X_SetSequenceStepEnable:0000000000000000 $t
     /tmp/ccq7BpOX.s:1226   .text.VL53L0X_SetSequenceStepEnable:0000000000000000 VL53L0X_SetSequenceStepEnable
     /tmp/ccq7BpOX.s:1273   .text.VL53L0X_SetSequenceStepEnable:000000000000002c $d
     /tmp/ccq7BpOX.s:1285   .text.VL53L0X_SetSequenceStepEnable:000000000000003a $d
     /tmp/ccq7BpOX.s:1426   .text.sequence_step_enabled:0000000000000000 $t
     /tmp/ccq7BpOX.s:1433   .text.sequence_step_enabled:0000000000000000 sequence_step_enabled
     /tmp/ccq7BpOX.s:1450   .text.sequence_step_enabled:000000000000000c $d
     /tmp/ccq7BpOX.s:1516   .text.VL53L0X_GetSequenceStepEnable:0000000000000000 $t
     /tmp/ccq7BpOX.s:1523   .text.VL53L0X_GetSequenceStepEnable:0000000000000000 VL53L0X_GetSequenceStepEnable
     /tmp/ccq7BpOX.s:1586   .text.VL53L0X_GetSequenceStepEnables:0000000000000000 $t
     /tmp/ccq7BpOX.s:1593   .text.VL53L0X_GetSequenceStepEnables:0000000000000000 VL53L0X_GetSequenceStepEnables
     /tmp/ccq7BpOX.s:1713   .text.VL53L0X_GetNumberOfSequenceSteps:0000000000000000 $t
     /tmp/ccq7BpOX.s:1720   .text.VL53L0X_GetNumberOfSequenceSteps:0000000000000000 VL53L0X_GetNumberOfSequenceSteps
     /tmp/ccq7BpOX.s:1739   .text.VL53L0X_GetSequenceStepsInfo:0000000000000000 $t
     /tmp/ccq7BpOX.s:1746   .text.VL53L0X_GetSequenceStepsInfo:0000000000000000 VL53L0X_GetSequenceStepsInfo
     /tmp/ccq7BpOX.s:1768   .text.VL53L0X_SetSequenceStepTimeout:0000000000000000 $t
     /tmp/ccq7BpOX.s:1775   .text.VL53L0X_SetSequenceStepTimeout:0000000000000000 VL53L0X_SetSequenceStepTimeout
     /tmp/ccq7BpOX.s:1874   .text.VL53L0X_GetSequenceStepTimeout:0000000000000000 $t
     /tmp/ccq7BpOX.s:1881   .text.VL53L0X_GetSequenceStepTimeout:0000000000000000 VL53L0X_GetSequenceStepTimeout
     /tmp/ccq7BpOX.s:1930   .text.VL53L0X_GetSequenceStepTimeout:000000000000002c $d
     /tmp/ccq7BpOX.s:1935   .text.VL53L0X_SetInterMeasurementPeriodMilliSeconds:0000000000000000 $t
     /tmp/ccq7BpOX.s:1942   .text.VL53L0X_SetInterMeasurementPeriodMilliSeconds:0000000000000000 VL53L0X_SetInterMeasurementPeriodMilliSeconds
     /tmp/ccq7BpOX.s:2010   .text.VL53L0X_GetInterMeasurementPeriodMilliSeconds:0000000000000000 $t
     /tmp/ccq7BpOX.s:2017   .text.VL53L0X_GetInterMeasurementPeriodMilliSeconds:0000000000000000 VL53L0X_GetInterMeasurementPeriodMilliSeconds
     /tmp/ccq7BpOX.s:2088   .text.VL53L0X_SetXTalkCompensationEnable:0000000000000000 $t
     /tmp/ccq7BpOX.s:2095   .text.VL53L0X_SetXTalkCompensationEnable:0000000000000000 VL53L0X_SetXTalkCompensationEnable
     /tmp/ccq7BpOX.s:2166   .text.VL53L0X_GetXTalkCompensationEnable:0000000000000000 $t
     /tmp/ccq7BpOX.s:2173   .text.VL53L0X_GetXTalkCompensationEnable:0000000000000000 VL53L0X_GetXTalkCompensationEnable
     /tmp/ccq7BpOX.s:2194   .text.VL53L0X_SetXTalkCompensationRateMegaCps:0000000000000000 $t
     /tmp/ccq7BpOX.s:2201   .text.VL53L0X_SetXTalkCompensationRateMegaCps:0000000000000000 VL53L0X_SetXTalkCompensationRateMegaCps
     /tmp/ccq7BpOX.s:2264   .text.VL53L0X_GetXTalkCompensationRateMegaCps:0000000000000000 $t
     /tmp/ccq7BpOX.s:2271   .text.VL53L0X_GetXTalkCompensationRateMegaCps:0000000000000000 VL53L0X_GetXTalkCompensationRateMegaCps
     /tmp/ccq7BpOX.s:2343   .text.VL53L0X_SetRefCalibration:0000000000000000 $t
     /tmp/ccq7BpOX.s:2350   .text.VL53L0X_SetRefCalibration:0000000000000000 VL53L0X_SetRefCalibration
     /tmp/ccq7BpOX.s:2372   .text.VL53L0X_GetRefCalibration:0000000000000000 $t
     /tmp/ccq7BpOX.s:2379   .text.VL53L0X_GetRefCalibration:0000000000000000 VL53L0X_GetRefCalibration
     /tmp/ccq7BpOX.s:2401   .text.VL53L0X_GetNumberOfLimitCheck:0000000000000000 $t
     /tmp/ccq7BpOX.s:2408   .text.VL53L0X_GetNumberOfLimitCheck:0000000000000000 VL53L0X_GetNumberOfLimitCheck
     /tmp/ccq7BpOX.s:2427   .text.VL53L0X_GetLimitCheckInfo:0000000000000000 $t
     /tmp/ccq7BpOX.s:2434   .text.VL53L0X_GetLimitCheckInfo:0000000000000000 VL53L0X_GetLimitCheckInfo
     /tmp/ccq7BpOX.s:2456   .text.VL53L0X_GetLimitCheckStatus:0000000000000000 $t
     /tmp/ccq7BpOX.s:2463   .text.VL53L0X_GetLimitCheckStatus:0000000000000000 VL53L0X_GetLimitCheckStatus
     /tmp/ccq7BpOX.s:2495   .text.VL53L0X_SetLimitCheckEnable:0000000000000000 $t
     /tmp/ccq7BpOX.s:2502   .text.VL53L0X_SetLimitCheckEnable:0000000000000000 VL53L0X_SetLimitCheckEnable
ARM GAS  /tmp/ccq7BpOX.s 			page 198


     /tmp/ccq7BpOX.s:2545   .text.VL53L0X_SetLimitCheckEnable:0000000000000026 $d
     /tmp/ccq7BpOX.s:2551   .text.VL53L0X_SetLimitCheckEnable:000000000000002c $t
     /tmp/ccq7BpOX.s:2662   .text.VL53L0X_GetLimitCheckEnable:0000000000000000 $t
     /tmp/ccq7BpOX.s:2669   .text.VL53L0X_GetLimitCheckEnable:0000000000000000 VL53L0X_GetLimitCheckEnable
     /tmp/ccq7BpOX.s:2705   .text.VL53L0X_SetLimitCheckValue:0000000000000000 $t
     /tmp/ccq7BpOX.s:2712   .text.VL53L0X_SetLimitCheckValue:0000000000000000 VL53L0X_SetLimitCheckValue
     /tmp/ccq7BpOX.s:2742   .text.VL53L0X_SetLimitCheckValue:0000000000000018 $d
     /tmp/ccq7BpOX.s:2748   .text.VL53L0X_SetLimitCheckValue:000000000000001e $t
     /tmp/ccq7BpOX.s:2842   .text.VL53L0X_GetLimitCheckValue:0000000000000000 $t
     /tmp/ccq7BpOX.s:2849   .text.VL53L0X_GetLimitCheckValue:0000000000000000 VL53L0X_GetLimitCheckValue
     /tmp/ccq7BpOX.s:2876   .text.VL53L0X_GetLimitCheckValue:0000000000000012 $d
     /tmp/ccq7BpOX.s:2882   .text.VL53L0X_GetLimitCheckValue:0000000000000018 $t
     /tmp/ccq7BpOX.s:3028   .text.VL53L0X_GetLimitCheckCurrent:0000000000000000 $t
     /tmp/ccq7BpOX.s:3035   .text.VL53L0X_GetLimitCheckCurrent:0000000000000000 VL53L0X_GetLimitCheckCurrent
     /tmp/ccq7BpOX.s:3062   .text.VL53L0X_GetLimitCheckCurrent:0000000000000012 $d
     /tmp/ccq7BpOX.s:3068   .text.VL53L0X_GetLimitCheckCurrent:0000000000000018 $t
     /tmp/ccq7BpOX.s:3197   .text.VL53L0X_SetWrapAroundCheckEnable:0000000000000000 $t
     /tmp/ccq7BpOX.s:3204   .text.VL53L0X_SetWrapAroundCheckEnable:0000000000000000 VL53L0X_SetWrapAroundCheckEnable
     /tmp/ccq7BpOX.s:3277   .text.VL53L0X_SetDeviceParameters:0000000000000000 $t
     /tmp/ccq7BpOX.s:3284   .text.VL53L0X_SetDeviceParameters:0000000000000000 VL53L0X_SetDeviceParameters
     /tmp/ccq7BpOX.s:3421   .text.VL53L0X_GetWrapAroundCheckEnable:0000000000000000 $t
     /tmp/ccq7BpOX.s:3428   .text.VL53L0X_GetWrapAroundCheckEnable:0000000000000000 VL53L0X_GetWrapAroundCheckEnable
     /tmp/ccq7BpOX.s:3493   .text.VL53L0X_GetDeviceParameters:0000000000000000 $t
     /tmp/ccq7BpOX.s:3500   .text.VL53L0X_GetDeviceParameters:0000000000000000 VL53L0X_GetDeviceParameters
     /tmp/ccq7BpOX.s:3647   .text.VL53L0X_DataInit:0000000000000000 $t
     /tmp/ccq7BpOX.s:3654   .text.VL53L0X_DataInit:0000000000000000 VL53L0X_DataInit
     /tmp/ccq7BpOX.s:3976   .text.VL53L0X_DataInit:00000000000001bc $d
     /tmp/ccq7BpOX.s:3982   .text.VL53L0X_SetDmaxCalParameters:0000000000000000 $t
     /tmp/ccq7BpOX.s:3989   .text.VL53L0X_SetDmaxCalParameters:0000000000000000 VL53L0X_SetDmaxCalParameters
     /tmp/ccq7BpOX.s:4037   .text.VL53L0X_GetDmaxCalParameters:0000000000000000 $t
     /tmp/ccq7BpOX.s:4044   .text.VL53L0X_GetDmaxCalParameters:0000000000000000 VL53L0X_GetDmaxCalParameters
     /tmp/ccq7BpOX.s:4066   .text.VL53L0X_PerformSingleHistogramMeasurement:0000000000000000 $t
     /tmp/ccq7BpOX.s:4073   .text.VL53L0X_PerformSingleHistogramMeasurement:0000000000000000 VL53L0X_PerformSingleHistogramMeasurement
     /tmp/ccq7BpOX.s:4089   .text.VL53L0X_PerformRefCalibration:0000000000000000 $t
     /tmp/ccq7BpOX.s:4096   .text.VL53L0X_PerformRefCalibration:0000000000000000 VL53L0X_PerformRefCalibration
     /tmp/ccq7BpOX.s:4119   .text.VL53L0X_PerformXTalkMeasurement:0000000000000000 $t
     /tmp/ccq7BpOX.s:4126   .text.VL53L0X_PerformXTalkMeasurement:0000000000000000 VL53L0X_PerformXTalkMeasurement
     /tmp/ccq7BpOX.s:4142   .text.VL53L0X_PerformXTalkCalibration:0000000000000000 $t
     /tmp/ccq7BpOX.s:4149   .text.VL53L0X_PerformXTalkCalibration:0000000000000000 VL53L0X_PerformXTalkCalibration
     /tmp/ccq7BpOX.s:4171   .text.VL53L0X_PerformOffsetCalibration:0000000000000000 $t
     /tmp/ccq7BpOX.s:4178   .text.VL53L0X_PerformOffsetCalibration:0000000000000000 VL53L0X_PerformOffsetCalibration
     /tmp/ccq7BpOX.s:4200   .text.VL53L0X_WaitDeviceReadyForNewMeasurement:0000000000000000 $t
     /tmp/ccq7BpOX.s:4207   .text.VL53L0X_WaitDeviceReadyForNewMeasurement:0000000000000000 VL53L0X_WaitDeviceReadyForNewMeasurement
     /tmp/ccq7BpOX.s:4223   .text.VL53L0X_GetRangingMeasurementData:0000000000000000 $t
     /tmp/ccq7BpOX.s:4230   .text.VL53L0X_GetRangingMeasurementData:0000000000000000 VL53L0X_GetRangingMeasurementData
     /tmp/ccq7BpOX.s:4482   .text.VL53L0X_GetRangingMeasurementData:0000000000000158 $d
     /tmp/ccq7BpOX.s:4487   .text.VL53L0X_GetMeasurementRefSignal:0000000000000000 $t
     /tmp/ccq7BpOX.s:4494   .text.VL53L0X_GetMeasurementRefSignal:0000000000000000 VL53L0X_GetMeasurementRefSignal
     /tmp/ccq7BpOX.s:4549   .text.VL53L0X_GetHistogramMeasurementData:0000000000000000 $t
     /tmp/ccq7BpOX.s:4556   .text.VL53L0X_GetHistogramMeasurementData:0000000000000000 VL53L0X_GetHistogramMeasurementData
     /tmp/ccq7BpOX.s:4572   .text.VL53L0X_SetNumberOfROIZones:0000000000000000 $t
     /tmp/ccq7BpOX.s:4579   .text.VL53L0X_SetNumberOfROIZones:0000000000000000 VL53L0X_SetNumberOfROIZones
     /tmp/ccq7BpOX.s:4605   .text.VL53L0X_GetNumberOfROIZones:0000000000000000 $t
     /tmp/ccq7BpOX.s:4612   .text.VL53L0X_GetNumberOfROIZones:0000000000000000 VL53L0X_GetNumberOfROIZones
     /tmp/ccq7BpOX.s:4631   .text.VL53L0X_GetMaxNumberOfROIZones:0000000000000000 $t
     /tmp/ccq7BpOX.s:4638   .text.VL53L0X_GetMaxNumberOfROIZones:0000000000000000 VL53L0X_GetMaxNumberOfROIZones
     /tmp/ccq7BpOX.s:4657   .text.VL53L0X_GetGpioConfig:0000000000000000 $t
ARM GAS  /tmp/ccq7BpOX.s 			page 199


     /tmp/ccq7BpOX.s:4664   .text.VL53L0X_GetGpioConfig:0000000000000000 VL53L0X_GetGpioConfig
     /tmp/ccq7BpOX.s:4783   .text.VL53L0X_SetInterruptThresholds:0000000000000000 $t
     /tmp/ccq7BpOX.s:4790   .text.VL53L0X_SetInterruptThresholds:0000000000000000 VL53L0X_SetInterruptThresholds
     /tmp/ccq7BpOX.s:4838   .text.VL53L0X_GetInterruptThresholds:0000000000000000 $t
     /tmp/ccq7BpOX.s:4845   .text.VL53L0X_GetInterruptThresholds:0000000000000000 VL53L0X_GetInterruptThresholds
     /tmp/ccq7BpOX.s:4914   .text.VL53L0X_GetInterruptThresholds:0000000000000048 $d
     /tmp/ccq7BpOX.s:4919   .text.VL53L0X_CheckAndLoadInterruptSettings:0000000000000000 $t
     /tmp/ccq7BpOX.s:4926   .text.VL53L0X_CheckAndLoadInterruptSettings:0000000000000000 VL53L0X_CheckAndLoadInterruptSettings
     /tmp/ccq7BpOX.s:5050   .text.VL53L0X_CheckAndLoadInterruptSettings:0000000000000084 $d
     /tmp/ccq7BpOX.s:5055   .text.VL53L0X_StartMeasurement:0000000000000000 $t
     /tmp/ccq7BpOX.s:5062   .text.VL53L0X_StartMeasurement:0000000000000000 VL53L0X_StartMeasurement
     /tmp/ccq7BpOX.s:5259   .text.VL53L0X_PerformSingleMeasurement:0000000000000000 $t
     /tmp/ccq7BpOX.s:5266   .text.VL53L0X_PerformSingleMeasurement:0000000000000000 VL53L0X_PerformSingleMeasurement
     /tmp/ccq7BpOX.s:5339   .text.VL53L0X_StopMeasurement:0000000000000000 $t
     /tmp/ccq7BpOX.s:5346   .text.VL53L0X_StopMeasurement:0000000000000000 VL53L0X_StopMeasurement
     /tmp/ccq7BpOX.s:5424   .text.VL53L0X_GetStopCompletedStatus:0000000000000000 $t
     /tmp/ccq7BpOX.s:5431   .text.VL53L0X_GetStopCompletedStatus:0000000000000000 VL53L0X_GetStopCompletedStatus
     /tmp/ccq7BpOX.s:5555   .text.VL53L0X_ClearInterruptMask:0000000000000000 $t
     /tmp/ccq7BpOX.s:5562   .text.VL53L0X_ClearInterruptMask:0000000000000000 VL53L0X_ClearInterruptMask
     /tmp/ccq7BpOX.s:5653   .text.VL53L0X_PerformSingleRangingMeasurement:0000000000000000 $t
     /tmp/ccq7BpOX.s:5660   .text.VL53L0X_PerformSingleRangingMeasurement:0000000000000000 VL53L0X_PerformSingleRangingMeasurement
     /tmp/ccq7BpOX.s:5728   .text.VL53L0X_SetGpioConfig:0000000000000000 $t
     /tmp/ccq7BpOX.s:5735   .text.VL53L0X_SetGpioConfig:0000000000000000 VL53L0X_SetGpioConfig
     /tmp/ccq7BpOX.s:5771   .text.VL53L0X_SetGpioConfig:0000000000000024 $d
     /tmp/ccq7BpOX.s:6040   .text.VL53L0X_StaticInit:0000000000000000 $t
     /tmp/ccq7BpOX.s:6047   .text.VL53L0X_StaticInit:0000000000000000 VL53L0X_StaticInit
     /tmp/ccq7BpOX.s:6422   .text.VL53L0X_StaticInit:00000000000001dc $d
     /tmp/ccq7BpOX.s:6427   .text.VL53L0X_SetPowerMode:0000000000000000 $t
     /tmp/ccq7BpOX.s:6434   .text.VL53L0X_SetPowerMode:0000000000000000 VL53L0X_SetPowerMode
     /tmp/ccq7BpOX.s:6523   .text.VL53L0X_GetInterruptMaskStatus:0000000000000000 $t
     /tmp/ccq7BpOX.s:6530   .text.VL53L0X_GetInterruptMaskStatus:0000000000000000 VL53L0X_GetInterruptMaskStatus
     /tmp/ccq7BpOX.s:6581   .text.VL53L0X_GetMeasurementDataReady:0000000000000000 $t
     /tmp/ccq7BpOX.s:6588   .text.VL53L0X_GetMeasurementDataReady:0000000000000000 VL53L0X_GetMeasurementDataReady
     /tmp/ccq7BpOX.s:6672   .text.VL53L0X_EnableInterruptMask:0000000000000000 $t
     /tmp/ccq7BpOX.s:6679   .text.VL53L0X_EnableInterruptMask:0000000000000000 VL53L0X_EnableInterruptMask
     /tmp/ccq7BpOX.s:6695   .text.VL53L0X_SetSpadAmbientDamperThreshold:0000000000000000 $t
     /tmp/ccq7BpOX.s:6702   .text.VL53L0X_SetSpadAmbientDamperThreshold:0000000000000000 VL53L0X_SetSpadAmbientDamperThreshold
     /tmp/ccq7BpOX.s:6752   .text.VL53L0X_GetSpadAmbientDamperThreshold:0000000000000000 $t
     /tmp/ccq7BpOX.s:6759   .text.VL53L0X_GetSpadAmbientDamperThreshold:0000000000000000 VL53L0X_GetSpadAmbientDamperThreshold
     /tmp/ccq7BpOX.s:6809   .text.VL53L0X_SetSpadAmbientDamperFactor:0000000000000000 $t
     /tmp/ccq7BpOX.s:6816   .text.VL53L0X_SetSpadAmbientDamperFactor:0000000000000000 VL53L0X_SetSpadAmbientDamperFactor
     /tmp/ccq7BpOX.s:6868   .text.VL53L0X_GetSpadAmbientDamperFactor:0000000000000000 $t
     /tmp/ccq7BpOX.s:6875   .text.VL53L0X_GetSpadAmbientDamperFactor:0000000000000000 VL53L0X_GetSpadAmbientDamperFactor
     /tmp/ccq7BpOX.s:6935   .text.VL53L0X_SetReferenceSpads:0000000000000000 $t
     /tmp/ccq7BpOX.s:6942   .text.VL53L0X_SetReferenceSpads:0000000000000000 VL53L0X_SetReferenceSpads
     /tmp/ccq7BpOX.s:6964   .text.VL53L0X_GetReferenceSpads:0000000000000000 $t
     /tmp/ccq7BpOX.s:6971   .text.VL53L0X_GetReferenceSpads:0000000000000000 VL53L0X_GetReferenceSpads
     /tmp/ccq7BpOX.s:6993   .text.VL53L0X_PerformRefSpadManagement:0000000000000000 $t
     /tmp/ccq7BpOX.s:7000   .text.VL53L0X_PerformRefSpadManagement:0000000000000000 VL53L0X_PerformRefSpadManagement
     /tmp/ccq7BpOX.s:7277   .data.InterruptThresholdSettings:0000000000000000 InterruptThresholdSettings
     /tmp/ccq7BpOX.s:7028   .data.DefaultTuningSettings:0000000000000000 DefaultTuningSettings
     /tmp/ccq7BpOX.s:7024   .data.DefaultTuningSettings:0000000000000000 $d
     /tmp/ccq7BpOX.s:7273   .data.InterruptThresholdSettings:0000000000000000 $d
     /tmp/ccq7BpOX.s:1278   .text.VL53L0X_SetSequenceStepEnable:0000000000000031 $d
     /tmp/ccq7BpOX.s:1278   .text.VL53L0X_SetSequenceStepEnable:0000000000000032 $t
     /tmp/ccq7BpOX.s:1290   .text.VL53L0X_SetSequenceStepEnable:000000000000003f $d
     /tmp/ccq7BpOX.s:1290   .text.VL53L0X_SetSequenceStepEnable:0000000000000040 $t
ARM GAS  /tmp/ccq7BpOX.s 			page 200


     /tmp/ccq7BpOX.s:1455   .text.sequence_step_enabled:0000000000000011 $d
     /tmp/ccq7BpOX.s:1455   .text.sequence_step_enabled:0000000000000012 $t
     /tmp/ccq7BpOX.s:5776   .text.VL53L0X_SetGpioConfig:0000000000000029 $d
     /tmp/ccq7BpOX.s:5776   .text.VL53L0X_SetGpioConfig:000000000000002a $t

UNDEFINED SYMBOLS
VL53L0X_RdByte
VL53L0X_get_device_info
VL53L0X_get_device_error_string
VL53L0X_get_range_status_string
VL53L0X_get_pal_error_string
VL53L0X_get_pal_state_string
VL53L0X_set_offset_calibration_data_micro_meter
VL53L0X_get_offset_calibration_data_micro_meter
VL53L0X_WrWord
VL53L0X_get_total_signal_rate
VL53L0X_WrByte
VL53L0X_PollingDelay
VL53L0X_set_measurement_timing_budget_micro_seconds
VL53L0X_get_measurement_timing_budget_micro_seconds
VL53L0X_set_vcsel_pulse_period
VL53L0X_get_vcsel_pulse_period
VL53L0X_get_sequence_steps_info
get_sequence_step_timeout
set_sequence_step_timeout
VL53L0X_RdWord
VL53L0X_WrDWord
VL53L0X_RdDWord
VL53L0X_set_ref_calibration
VL53L0X_get_ref_calibration
VL53L0X_get_limit_check_info
VL53L0X_UpdateByte
VL53L0X_get_info_from_device
VL53L0X_perform_ref_calibration
VL53L0X_perform_xtalk_calibration
VL53L0X_perform_offset_calibration
VL53L0X_ReadMulti
VL53L0X_get_pal_range_status
VL53L0X_load_tuning_settings
VL53L0X_measurement_poll_for_completion
memset
VL53L0X_perform_ref_spad_management
VL53L0X_set_reference_spads
VL53L0X_get_reference_spads
