ARM GAS  /tmp/cceWFLIh.s 			page 1


   1              		.cpu cortex-m4
   2              		.eabi_attribute 27, 1
   3              		.eabi_attribute 28, 1
   4              		.eabi_attribute 20, 1
   5              		.eabi_attribute 21, 1
   6              		.eabi_attribute 23, 3
   7              		.eabi_attribute 24, 1
   8              		.eabi_attribute 25, 1
   9              		.eabi_attribute 26, 1
  10              		.eabi_attribute 30, 1
  11              		.eabi_attribute 34, 1
  12              		.eabi_attribute 18, 4
  13              		.file	"vl53l0x_platform.c"
  14              		.text
  15              	.Ltext0:
  16              		.cfi_sections	.debug_frame
  17              		.section	.text._I2CWrite,"ax",%progbits
  18              		.align	1
  19              		.global	_I2CWrite
  20              		.syntax unified
  21              		.thumb
  22              		.thumb_func
  23              		.fpu fpv4-sp-d16
  25              	_I2CWrite:
  26              	.LFB679:
  27              		.file 1 "Drivers/VL53L0X/Platform/vl53l0x_platform.c"
   1:Drivers/VL53L0X/Platform/vl53l0x_platform.c **** //?????#include "hal.h"
   2:Drivers/VL53L0X/Platform/vl53l0x_platform.c **** #include "vl53l0x_platform.h"
   3:Drivers/VL53L0X/Platform/vl53l0x_platform.c **** #include "vl53l0x_api.h"
   4:Drivers/VL53L0X/Platform/vl53l0x_platform.c **** 
   5:Drivers/VL53L0X/Platform/vl53l0x_platform.c **** #include "stm32f4xx_hal.h"
   6:Drivers/VL53L0X/Platform/vl53l0x_platform.c **** #include <string.h>
   7:Drivers/VL53L0X/Platform/vl53l0x_platform.c **** 
   8:Drivers/VL53L0X/Platform/vl53l0x_platform.c **** #define I2C_TIME_OUT_BASE   10
   9:Drivers/VL53L0X/Platform/vl53l0x_platform.c **** #define I2C_TIME_OUT_BYTE   1
  10:Drivers/VL53L0X/Platform/vl53l0x_platform.c **** #define VL53L0X_OsDelay(...) HAL_Delay(2)
  11:Drivers/VL53L0X/Platform/vl53l0x_platform.c **** 
  12:Drivers/VL53L0X/Platform/vl53l0x_platform.c **** 
  13:Drivers/VL53L0X/Platform/vl53l0x_platform.c **** #ifndef HAL_I2C_MODULE_ENABLED
  14:Drivers/VL53L0X/Platform/vl53l0x_platform.c **** #warning "HAL I2C module must be enable "
  15:Drivers/VL53L0X/Platform/vl53l0x_platform.c **** #endif
  16:Drivers/VL53L0X/Platform/vl53l0x_platform.c **** //extern I2C_HandleTypeDef hi2c1;
  17:Drivers/VL53L0X/Platform/vl53l0x_platform.c **** //#define VL53L0X_pI2cHandle    (&hi2c1)
  18:Drivers/VL53L0X/Platform/vl53l0x_platform.c **** 
  19:Drivers/VL53L0X/Platform/vl53l0x_platform.c **** /* when not customized by application define dummy one */
  20:Drivers/VL53L0X/Platform/vl53l0x_platform.c **** #ifndef VL53L0X_GetI2cBus
  21:Drivers/VL53L0X/Platform/vl53l0x_platform.c **** /** This macro can be overloaded by user to enforce i2c sharing in RTOS context
  22:Drivers/VL53L0X/Platform/vl53l0x_platform.c ****  */
  23:Drivers/VL53L0X/Platform/vl53l0x_platform.c **** #   define VL53L0X_GetI2cBus(...) (void)0
  24:Drivers/VL53L0X/Platform/vl53l0x_platform.c **** #endif
  25:Drivers/VL53L0X/Platform/vl53l0x_platform.c **** 
  26:Drivers/VL53L0X/Platform/vl53l0x_platform.c **** #ifndef VL53L0X_PutI2cBus
  27:Drivers/VL53L0X/Platform/vl53l0x_platform.c **** /** This macro can be overloaded by user to enforce i2c sharing in RTOS context
  28:Drivers/VL53L0X/Platform/vl53l0x_platform.c ****  */
  29:Drivers/VL53L0X/Platform/vl53l0x_platform.c **** #   define VL53L0X_PutI2cBus(...) (void)0
  30:Drivers/VL53L0X/Platform/vl53l0x_platform.c **** #endif
  31:Drivers/VL53L0X/Platform/vl53l0x_platform.c **** 
ARM GAS  /tmp/cceWFLIh.s 			page 2


  32:Drivers/VL53L0X/Platform/vl53l0x_platform.c **** #ifndef VL53L0X_OsDelay
  33:Drivers/VL53L0X/Platform/vl53l0x_platform.c **** #   define  VL53L0X_OsDelay(...) (void)0
  34:Drivers/VL53L0X/Platform/vl53l0x_platform.c **** #endif
  35:Drivers/VL53L0X/Platform/vl53l0x_platform.c **** 
  36:Drivers/VL53L0X/Platform/vl53l0x_platform.c **** 
  37:Drivers/VL53L0X/Platform/vl53l0x_platform.c **** uint8_t _I2CBuffer[64];
  38:Drivers/VL53L0X/Platform/vl53l0x_platform.c **** 
  39:Drivers/VL53L0X/Platform/vl53l0x_platform.c **** int _I2CWrite(VL53L0X_DEV Dev, uint8_t *pdata, uint32_t count) {
  28              		.loc 1 39 0
  29              		.cfi_startproc
  30              		@ args = 0, pretend = 0, frame = 0
  31              		@ frame_needed = 0, uses_anonymous_args = 0
  32              	.LVL0:
  33 0000 10B5     		push	{r4, lr}
  34              	.LCFI0:
  35              		.cfi_def_cfa_offset 8
  36              		.cfi_offset 4, -8
  37              		.cfi_offset 14, -4
  38 0002 82B0     		sub	sp, sp, #8
  39              	.LCFI1:
  40              		.cfi_def_cfa_offset 16
  40:Drivers/VL53L0X/Platform/vl53l0x_platform.c ****     int status;
  41:Drivers/VL53L0X/Platform/vl53l0x_platform.c ****     int i2c_time_out = I2C_TIME_OUT_BASE+ count* I2C_TIME_OUT_BYTE;
  41              		.loc 1 41 0
  42 0004 02F10A03 		add	r3, r2, #10
  43              	.LVL1:
  42:Drivers/VL53L0X/Platform/vl53l0x_platform.c **** 
  43:Drivers/VL53L0X/Platform/vl53l0x_platform.c ****     status = HAL_I2C_Master_Transmit(Dev->I2cHandle, Dev->I2cDevAddr, pdata, count, i2c_time_out);
  44              		.loc 1 43 0
  45 0008 90F86041 		ldrb	r4, [r0, #352]	@ zero_extendqisi2
  46 000c D0F85C01 		ldr	r0, [r0, #348]
  47              	.LVL2:
  48 0010 0093     		str	r3, [sp]
  49 0012 93B2     		uxth	r3, r2
  50              	.LVL3:
  51 0014 0A46     		mov	r2, r1
  52              	.LVL4:
  53 0016 2146     		mov	r1, r4
  54              	.LVL5:
  55 0018 FFF7FEFF 		bl	HAL_I2C_Master_Transmit
  56              	.LVL6:
  44:Drivers/VL53L0X/Platform/vl53l0x_platform.c ****     if (status) {
  45:Drivers/VL53L0X/Platform/vl53l0x_platform.c ****         //VL6180x_ErrLog("I2C error 0x%x %d len", dev->I2cAddr, len);
  46:Drivers/VL53L0X/Platform/vl53l0x_platform.c ****         //XNUCLEO6180XA1_I2C1_Init(&hi2c1);
  47:Drivers/VL53L0X/Platform/vl53l0x_platform.c ****     }
  48:Drivers/VL53L0X/Platform/vl53l0x_platform.c ****     return status;
  49:Drivers/VL53L0X/Platform/vl53l0x_platform.c **** }
  57              		.loc 1 49 0
  58 001c 02B0     		add	sp, sp, #8
  59              	.LCFI2:
  60              		.cfi_def_cfa_offset 8
  61              		@ sp needed
  62 001e 10BD     		pop	{r4, pc}
  63              		.cfi_endproc
  64              	.LFE679:
  66              		.section	.text._I2CRead,"ax",%progbits
  67              		.align	1
ARM GAS  /tmp/cceWFLIh.s 			page 3


  68              		.global	_I2CRead
  69              		.syntax unified
  70              		.thumb
  71              		.thumb_func
  72              		.fpu fpv4-sp-d16
  74              	_I2CRead:
  75              	.LFB680:
  50:Drivers/VL53L0X/Platform/vl53l0x_platform.c **** 
  51:Drivers/VL53L0X/Platform/vl53l0x_platform.c **** int _I2CRead(VL53L0X_DEV Dev, uint8_t *pdata, uint32_t count) {
  76              		.loc 1 51 0
  77              		.cfi_startproc
  78              		@ args = 0, pretend = 0, frame = 0
  79              		@ frame_needed = 0, uses_anonymous_args = 0
  80              	.LVL7:
  81 0000 10B5     		push	{r4, lr}
  82              	.LCFI3:
  83              		.cfi_def_cfa_offset 8
  84              		.cfi_offset 4, -8
  85              		.cfi_offset 14, -4
  86 0002 82B0     		sub	sp, sp, #8
  87              	.LCFI4:
  88              		.cfi_def_cfa_offset 16
  52:Drivers/VL53L0X/Platform/vl53l0x_platform.c ****     int status;
  53:Drivers/VL53L0X/Platform/vl53l0x_platform.c ****     int i2c_time_out = I2C_TIME_OUT_BASE+ count* I2C_TIME_OUT_BYTE;
  89              		.loc 1 53 0
  90 0004 02F10A03 		add	r3, r2, #10
  91              	.LVL8:
  54:Drivers/VL53L0X/Platform/vl53l0x_platform.c **** 
  55:Drivers/VL53L0X/Platform/vl53l0x_platform.c ****     status = HAL_I2C_Master_Receive(Dev->I2cHandle, Dev->I2cDevAddr|1, pdata, count, i2c_time_out);
  92              		.loc 1 55 0
  93 0008 90F86041 		ldrb	r4, [r0, #352]	@ zero_extendqisi2
  94 000c D0F85C01 		ldr	r0, [r0, #348]
  95              	.LVL9:
  96 0010 0093     		str	r3, [sp]
  97 0012 93B2     		uxth	r3, r2
  98              	.LVL10:
  99 0014 0A46     		mov	r2, r1
 100              	.LVL11:
 101 0016 44F00101 		orr	r1, r4, #1
 102              	.LVL12:
 103 001a FFF7FEFF 		bl	HAL_I2C_Master_Receive
 104              	.LVL13:
  56:Drivers/VL53L0X/Platform/vl53l0x_platform.c ****     if (status) {
  57:Drivers/VL53L0X/Platform/vl53l0x_platform.c ****         //VL6180x_ErrLog("I2C error 0x%x %d len", dev->I2cAddr, len);
  58:Drivers/VL53L0X/Platform/vl53l0x_platform.c ****         //XNUCLEO6180XA1_I2C1_Init(&hi2c1);
  59:Drivers/VL53L0X/Platform/vl53l0x_platform.c ****     }
  60:Drivers/VL53L0X/Platform/vl53l0x_platform.c ****     return status;
  61:Drivers/VL53L0X/Platform/vl53l0x_platform.c **** }
 105              		.loc 1 61 0
 106 001e 02B0     		add	sp, sp, #8
 107              	.LCFI5:
 108              		.cfi_def_cfa_offset 8
 109              		@ sp needed
 110 0020 10BD     		pop	{r4, pc}
 111              		.cfi_endproc
 112              	.LFE680:
 114              		.section	.text.VL53L0X_WriteMulti,"ax",%progbits
ARM GAS  /tmp/cceWFLIh.s 			page 4


 115              		.align	1
 116              		.global	VL53L0X_WriteMulti
 117              		.syntax unified
 118              		.thumb
 119              		.thumb_func
 120              		.fpu fpv4-sp-d16
 122              	VL53L0X_WriteMulti:
 123              	.LFB681:
  62:Drivers/VL53L0X/Platform/vl53l0x_platform.c **** 
  63:Drivers/VL53L0X/Platform/vl53l0x_platform.c **** // the ranging_sensor_comms.dll will take care of the page selection
  64:Drivers/VL53L0X/Platform/vl53l0x_platform.c **** VL53L0X_Error VL53L0X_WriteMulti(VL53L0X_DEV Dev, uint8_t index, uint8_t *pdata, uint32_t count) {
 124              		.loc 1 64 0
 125              		.cfi_startproc
 126              		@ args = 0, pretend = 0, frame = 0
 127              		@ frame_needed = 0, uses_anonymous_args = 0
 128              	.LVL14:
  65:Drivers/VL53L0X/Platform/vl53l0x_platform.c ****     int status_int;
  66:Drivers/VL53L0X/Platform/vl53l0x_platform.c ****     VL53L0X_Error Status = VL53L0X_ERROR_NONE;
  67:Drivers/VL53L0X/Platform/vl53l0x_platform.c ****     if (count > sizeof(_I2CBuffer) - 1) {
 129              		.loc 1 67 0
 130 0000 3F2B     		cmp	r3, #63
 131 0002 12D8     		bhi	.L7
  64:Drivers/VL53L0X/Platform/vl53l0x_platform.c ****     int status_int;
 132              		.loc 1 64 0
 133 0004 F8B5     		push	{r3, r4, r5, r6, r7, lr}
 134              	.LCFI6:
 135              		.cfi_def_cfa_offset 24
 136              		.cfi_offset 3, -24
 137              		.cfi_offset 4, -20
 138              		.cfi_offset 5, -16
 139              		.cfi_offset 6, -12
 140              		.cfi_offset 7, -8
 141              		.cfi_offset 14, -4
 142 0006 1E46     		mov	r6, r3
 143 0008 1546     		mov	r5, r2
 144 000a 0446     		mov	r4, r0
  68:Drivers/VL53L0X/Platform/vl53l0x_platform.c ****         return VL53L0X_ERROR_INVALID_PARAMS;
  69:Drivers/VL53L0X/Platform/vl53l0x_platform.c ****     }
  70:Drivers/VL53L0X/Platform/vl53l0x_platform.c ****     _I2CBuffer[0] = index;
 145              		.loc 1 70 0
 146 000c 0A4F     		ldr	r7, .L13
 147 000e 3846     		mov	r0, r7
 148              	.LVL15:
 149 0010 00F8011B 		strb	r1, [r0], #1
  71:Drivers/VL53L0X/Platform/vl53l0x_platform.c ****     memcpy(&_I2CBuffer[1], pdata, count);
 150              		.loc 1 71 0
 151 0014 1A46     		mov	r2, r3
 152              	.LVL16:
 153 0016 2946     		mov	r1, r5
 154              	.LVL17:
 155 0018 FFF7FEFF 		bl	memcpy
 156              	.LVL18:
  72:Drivers/VL53L0X/Platform/vl53l0x_platform.c ****     VL53L0X_GetI2cBus();
  73:Drivers/VL53L0X/Platform/vl53l0x_platform.c ****     status_int = _I2CWrite(Dev, _I2CBuffer, count + 1);
 157              		.loc 1 73 0
 158 001c 721C     		adds	r2, r6, #1
 159 001e 3946     		mov	r1, r7
ARM GAS  /tmp/cceWFLIh.s 			page 5


 160 0020 2046     		mov	r0, r4
 161 0022 FFF7FEFF 		bl	_I2CWrite
 162              	.LVL19:
  74:Drivers/VL53L0X/Platform/vl53l0x_platform.c ****     if (status_int != 0) {
 163              		.loc 1 74 0
 164 0026 18B9     		cbnz	r0, .L8
 165              	.LVL20:
 166              	.L6:
  75:Drivers/VL53L0X/Platform/vl53l0x_platform.c ****         Status = VL53L0X_ERROR_CONTROL_INTERFACE;
  76:Drivers/VL53L0X/Platform/vl53l0x_platform.c ****     }
  77:Drivers/VL53L0X/Platform/vl53l0x_platform.c ****     VL53L0X_PutI2cBus();
  78:Drivers/VL53L0X/Platform/vl53l0x_platform.c ****     return Status;
  79:Drivers/VL53L0X/Platform/vl53l0x_platform.c **** }
 167              		.loc 1 79 0
 168 0028 F8BD     		pop	{r3, r4, r5, r6, r7, pc}
 169              	.LVL21:
 170              	.L7:
 171              	.LCFI7:
 172              		.cfi_def_cfa_offset 0
 173              		.cfi_restore 3
 174              		.cfi_restore 4
 175              		.cfi_restore 5
 176              		.cfi_restore 6
 177              		.cfi_restore 7
 178              		.cfi_restore 14
  68:Drivers/VL53L0X/Platform/vl53l0x_platform.c ****     }
 179              		.loc 1 68 0
 180 002a 6FF00300 		mvn	r0, #3
 181              	.LVL22:
 182              		.loc 1 79 0
 183 002e 7047     		bx	lr
 184              	.LVL23:
 185              	.L8:
 186              	.LCFI8:
 187              		.cfi_def_cfa_offset 24
 188              		.cfi_offset 3, -24
 189              		.cfi_offset 4, -20
 190              		.cfi_offset 5, -16
 191              		.cfi_offset 6, -12
 192              		.cfi_offset 7, -8
 193              		.cfi_offset 14, -4
  75:Drivers/VL53L0X/Platform/vl53l0x_platform.c ****         Status = VL53L0X_ERROR_CONTROL_INTERFACE;
 194              		.loc 1 75 0
 195 0030 6FF01300 		mvn	r0, #19
 196              	.LVL24:
 197 0034 F8E7     		b	.L6
 198              	.L14:
 199 0036 00BF     		.align	2
 200              	.L13:
 201 0038 00000000 		.word	_I2CBuffer
 202              		.cfi_endproc
 203              	.LFE681:
 205              		.section	.text.VL53L0X_ReadMulti,"ax",%progbits
 206              		.align	1
 207              		.global	VL53L0X_ReadMulti
 208              		.syntax unified
 209              		.thumb
ARM GAS  /tmp/cceWFLIh.s 			page 6


 210              		.thumb_func
 211              		.fpu fpv4-sp-d16
 213              	VL53L0X_ReadMulti:
 214              	.LFB682:
  80:Drivers/VL53L0X/Platform/vl53l0x_platform.c **** 
  81:Drivers/VL53L0X/Platform/vl53l0x_platform.c **** // the ranging_sensor_comms.dll will take care of the page selection
  82:Drivers/VL53L0X/Platform/vl53l0x_platform.c **** VL53L0X_Error VL53L0X_ReadMulti(VL53L0X_DEV Dev, uint8_t index, uint8_t *pdata, uint32_t count) {
 215              		.loc 1 82 0
 216              		.cfi_startproc
 217              		@ args = 0, pretend = 0, frame = 8
 218              		@ frame_needed = 0, uses_anonymous_args = 0
 219              	.LVL25:
 220 0000 70B5     		push	{r4, r5, r6, lr}
 221              	.LCFI9:
 222              		.cfi_def_cfa_offset 16
 223              		.cfi_offset 4, -16
 224              		.cfi_offset 5, -12
 225              		.cfi_offset 6, -8
 226              		.cfi_offset 14, -4
 227 0002 82B0     		sub	sp, sp, #8
 228              	.LCFI10:
 229              		.cfi_def_cfa_offset 24
 230 0004 0446     		mov	r4, r0
 231 0006 1546     		mov	r5, r2
 232 0008 1E46     		mov	r6, r3
 233 000a 02AB     		add	r3, sp, #8
 234              	.LVL26:
 235 000c 03F8011D 		strb	r1, [r3, #-1]!
 236              	.LVL27:
  83:Drivers/VL53L0X/Platform/vl53l0x_platform.c ****     VL53L0X_Error Status = VL53L0X_ERROR_NONE;
  84:Drivers/VL53L0X/Platform/vl53l0x_platform.c ****     int32_t status_int;
  85:Drivers/VL53L0X/Platform/vl53l0x_platform.c ****     VL53L0X_GetI2cBus();
  86:Drivers/VL53L0X/Platform/vl53l0x_platform.c ****     status_int = _I2CWrite(Dev, &index, 1);
 237              		.loc 1 86 0
 238 0010 0122     		movs	r2, #1
 239              	.LVL28:
 240 0012 1946     		mov	r1, r3
 241              	.LVL29:
 242 0014 FFF7FEFF 		bl	_I2CWrite
 243              	.LVL30:
  87:Drivers/VL53L0X/Platform/vl53l0x_platform.c ****     if (status_int != 0) {
 244              		.loc 1 87 0
 245 0018 38B9     		cbnz	r0, .L17
  88:Drivers/VL53L0X/Platform/vl53l0x_platform.c ****         Status = VL53L0X_ERROR_CONTROL_INTERFACE;
  89:Drivers/VL53L0X/Platform/vl53l0x_platform.c ****         goto done;
  90:Drivers/VL53L0X/Platform/vl53l0x_platform.c ****     }
  91:Drivers/VL53L0X/Platform/vl53l0x_platform.c ****     status_int = _I2CRead(Dev, pdata, count);
 246              		.loc 1 91 0
 247 001a 3246     		mov	r2, r6
 248 001c 2946     		mov	r1, r5
 249 001e 2046     		mov	r0, r4
 250              	.LVL31:
 251 0020 FFF7FEFF 		bl	_I2CRead
 252              	.LVL32:
  92:Drivers/VL53L0X/Platform/vl53l0x_platform.c ****     if (status_int != 0) {
 253              		.loc 1 92 0
 254 0024 20B9     		cbnz	r0, .L18
ARM GAS  /tmp/cceWFLIh.s 			page 7


 255              	.LVL33:
 256              	.L16:
  93:Drivers/VL53L0X/Platform/vl53l0x_platform.c ****         Status = VL53L0X_ERROR_CONTROL_INTERFACE;
  94:Drivers/VL53L0X/Platform/vl53l0x_platform.c ****     }
  95:Drivers/VL53L0X/Platform/vl53l0x_platform.c **** done:
  96:Drivers/VL53L0X/Platform/vl53l0x_platform.c ****     VL53L0X_PutI2cBus();
  97:Drivers/VL53L0X/Platform/vl53l0x_platform.c ****     return Status;
  98:Drivers/VL53L0X/Platform/vl53l0x_platform.c **** }
 257              		.loc 1 98 0
 258 0026 02B0     		add	sp, sp, #8
 259              	.LCFI11:
 260              		.cfi_remember_state
 261              		.cfi_def_cfa_offset 16
 262              		@ sp needed
 263 0028 70BD     		pop	{r4, r5, r6, pc}
 264              	.LVL34:
 265              	.L17:
 266              	.LCFI12:
 267              		.cfi_restore_state
  88:Drivers/VL53L0X/Platform/vl53l0x_platform.c ****         goto done;
 268              		.loc 1 88 0
 269 002a 6FF01300 		mvn	r0, #19
 270              	.LVL35:
 271 002e FAE7     		b	.L16
 272              	.LVL36:
 273              	.L18:
  93:Drivers/VL53L0X/Platform/vl53l0x_platform.c ****         Status = VL53L0X_ERROR_CONTROL_INTERFACE;
 274              		.loc 1 93 0
 275 0030 6FF01300 		mvn	r0, #19
 276              	.LVL37:
 277 0034 F7E7     		b	.L16
 278              		.cfi_endproc
 279              	.LFE682:
 281              		.section	.text.VL53L0X_WrByte,"ax",%progbits
 282              		.align	1
 283              		.global	VL53L0X_WrByte
 284              		.syntax unified
 285              		.thumb
 286              		.thumb_func
 287              		.fpu fpv4-sp-d16
 289              	VL53L0X_WrByte:
 290              	.LFB683:
  99:Drivers/VL53L0X/Platform/vl53l0x_platform.c **** 
 100:Drivers/VL53L0X/Platform/vl53l0x_platform.c **** VL53L0X_Error VL53L0X_WrByte(VL53L0X_DEV Dev, uint8_t index, uint8_t data) {
 291              		.loc 1 100 0
 292              		.cfi_startproc
 293              		@ args = 0, pretend = 0, frame = 0
 294              		@ frame_needed = 0, uses_anonymous_args = 0
 295              	.LVL38:
 296 0000 08B5     		push	{r3, lr}
 297              	.LCFI13:
 298              		.cfi_def_cfa_offset 8
 299              		.cfi_offset 3, -8
 300              		.cfi_offset 14, -4
 301              	.LVL39:
 101:Drivers/VL53L0X/Platform/vl53l0x_platform.c ****     VL53L0X_Error Status = VL53L0X_ERROR_NONE;
 102:Drivers/VL53L0X/Platform/vl53l0x_platform.c ****     int32_t status_int;
ARM GAS  /tmp/cceWFLIh.s 			page 8


 103:Drivers/VL53L0X/Platform/vl53l0x_platform.c **** 
 104:Drivers/VL53L0X/Platform/vl53l0x_platform.c ****     _I2CBuffer[0] = index;
 302              		.loc 1 104 0
 303 0002 064B     		ldr	r3, .L25
 304 0004 1970     		strb	r1, [r3]
 105:Drivers/VL53L0X/Platform/vl53l0x_platform.c ****     _I2CBuffer[1] = data;
 305              		.loc 1 105 0
 306 0006 5A70     		strb	r2, [r3, #1]
 106:Drivers/VL53L0X/Platform/vl53l0x_platform.c **** 
 107:Drivers/VL53L0X/Platform/vl53l0x_platform.c ****     VL53L0X_GetI2cBus();
 108:Drivers/VL53L0X/Platform/vl53l0x_platform.c ****     status_int = _I2CWrite(Dev, _I2CBuffer, 2);
 307              		.loc 1 108 0
 308 0008 0222     		movs	r2, #2
 309              	.LVL40:
 310 000a 1946     		mov	r1, r3
 311              	.LVL41:
 312 000c FFF7FEFF 		bl	_I2CWrite
 313              	.LVL42:
 109:Drivers/VL53L0X/Platform/vl53l0x_platform.c ****     if (status_int != 0) {
 314              		.loc 1 109 0
 315 0010 00B9     		cbnz	r0, .L24
 316              	.LVL43:
 317              	.L21:
 110:Drivers/VL53L0X/Platform/vl53l0x_platform.c ****         Status = VL53L0X_ERROR_CONTROL_INTERFACE;
 111:Drivers/VL53L0X/Platform/vl53l0x_platform.c ****     }
 112:Drivers/VL53L0X/Platform/vl53l0x_platform.c ****     VL53L0X_PutI2cBus();
 113:Drivers/VL53L0X/Platform/vl53l0x_platform.c ****     return Status;
 114:Drivers/VL53L0X/Platform/vl53l0x_platform.c **** }
 318              		.loc 1 114 0
 319 0012 08BD     		pop	{r3, pc}
 320              	.LVL44:
 321              	.L24:
 110:Drivers/VL53L0X/Platform/vl53l0x_platform.c ****         Status = VL53L0X_ERROR_CONTROL_INTERFACE;
 322              		.loc 1 110 0
 323 0014 6FF01300 		mvn	r0, #19
 324              	.LVL45:
 325 0018 FBE7     		b	.L21
 326              	.L26:
 327 001a 00BF     		.align	2
 328              	.L25:
 329 001c 00000000 		.word	_I2CBuffer
 330              		.cfi_endproc
 331              	.LFE683:
 333              		.section	.text.VL53L0X_WrWord,"ax",%progbits
 334              		.align	1
 335              		.global	VL53L0X_WrWord
 336              		.syntax unified
 337              		.thumb
 338              		.thumb_func
 339              		.fpu fpv4-sp-d16
 341              	VL53L0X_WrWord:
 342              	.LFB684:
 115:Drivers/VL53L0X/Platform/vl53l0x_platform.c **** 
 116:Drivers/VL53L0X/Platform/vl53l0x_platform.c **** VL53L0X_Error VL53L0X_WrWord(VL53L0X_DEV Dev, uint8_t index, uint16_t data) {
 343              		.loc 1 116 0
 344              		.cfi_startproc
 345              		@ args = 0, pretend = 0, frame = 0
ARM GAS  /tmp/cceWFLIh.s 			page 9


 346              		@ frame_needed = 0, uses_anonymous_args = 0
 347              	.LVL46:
 348 0000 08B5     		push	{r3, lr}
 349              	.LCFI14:
 350              		.cfi_def_cfa_offset 8
 351              		.cfi_offset 3, -8
 352              		.cfi_offset 14, -4
 353              	.LVL47:
 117:Drivers/VL53L0X/Platform/vl53l0x_platform.c ****     VL53L0X_Error Status = VL53L0X_ERROR_NONE;
 118:Drivers/VL53L0X/Platform/vl53l0x_platform.c ****     int32_t status_int;
 119:Drivers/VL53L0X/Platform/vl53l0x_platform.c **** 
 120:Drivers/VL53L0X/Platform/vl53l0x_platform.c ****     _I2CBuffer[0] = index;
 354              		.loc 1 120 0
 355 0002 074B     		ldr	r3, .L32
 356 0004 1970     		strb	r1, [r3]
 121:Drivers/VL53L0X/Platform/vl53l0x_platform.c ****     _I2CBuffer[1] = data >> 8;
 357              		.loc 1 121 0
 358 0006 110A     		lsrs	r1, r2, #8
 359              	.LVL48:
 360 0008 5970     		strb	r1, [r3, #1]
 122:Drivers/VL53L0X/Platform/vl53l0x_platform.c ****     _I2CBuffer[2] = data & 0x00FF;
 361              		.loc 1 122 0
 362 000a 9A70     		strb	r2, [r3, #2]
 123:Drivers/VL53L0X/Platform/vl53l0x_platform.c **** 
 124:Drivers/VL53L0X/Platform/vl53l0x_platform.c ****     VL53L0X_GetI2cBus();
 125:Drivers/VL53L0X/Platform/vl53l0x_platform.c ****     status_int = _I2CWrite(Dev, _I2CBuffer, 3);
 363              		.loc 1 125 0
 364 000c 0322     		movs	r2, #3
 365              	.LVL49:
 366 000e 1946     		mov	r1, r3
 367 0010 FFF7FEFF 		bl	_I2CWrite
 368              	.LVL50:
 126:Drivers/VL53L0X/Platform/vl53l0x_platform.c ****     if (status_int != 0) {
 369              		.loc 1 126 0
 370 0014 00B9     		cbnz	r0, .L31
 371              	.LVL51:
 372              	.L28:
 127:Drivers/VL53L0X/Platform/vl53l0x_platform.c ****         Status = VL53L0X_ERROR_CONTROL_INTERFACE;
 128:Drivers/VL53L0X/Platform/vl53l0x_platform.c ****     }
 129:Drivers/VL53L0X/Platform/vl53l0x_platform.c ****     VL53L0X_PutI2cBus();
 130:Drivers/VL53L0X/Platform/vl53l0x_platform.c ****     return Status;
 131:Drivers/VL53L0X/Platform/vl53l0x_platform.c **** }
 373              		.loc 1 131 0
 374 0016 08BD     		pop	{r3, pc}
 375              	.LVL52:
 376              	.L31:
 127:Drivers/VL53L0X/Platform/vl53l0x_platform.c ****         Status = VL53L0X_ERROR_CONTROL_INTERFACE;
 377              		.loc 1 127 0
 378 0018 6FF01300 		mvn	r0, #19
 379              	.LVL53:
 380 001c FBE7     		b	.L28
 381              	.L33:
 382 001e 00BF     		.align	2
 383              	.L32:
 384 0020 00000000 		.word	_I2CBuffer
 385              		.cfi_endproc
 386              	.LFE684:
ARM GAS  /tmp/cceWFLIh.s 			page 10


 388              		.section	.text.VL53L0X_WrDWord,"ax",%progbits
 389              		.align	1
 390              		.global	VL53L0X_WrDWord
 391              		.syntax unified
 392              		.thumb
 393              		.thumb_func
 394              		.fpu fpv4-sp-d16
 396              	VL53L0X_WrDWord:
 397              	.LFB685:
 132:Drivers/VL53L0X/Platform/vl53l0x_platform.c **** 
 133:Drivers/VL53L0X/Platform/vl53l0x_platform.c **** VL53L0X_Error VL53L0X_WrDWord(VL53L0X_DEV Dev, uint8_t index, uint32_t data) {
 398              		.loc 1 133 0
 399              		.cfi_startproc
 400              		@ args = 0, pretend = 0, frame = 0
 401              		@ frame_needed = 0, uses_anonymous_args = 0
 402              	.LVL54:
 403 0000 08B5     		push	{r3, lr}
 404              	.LCFI15:
 405              		.cfi_def_cfa_offset 8
 406              		.cfi_offset 3, -8
 407              		.cfi_offset 14, -4
 408              	.LVL55:
 134:Drivers/VL53L0X/Platform/vl53l0x_platform.c ****     VL53L0X_Error Status = VL53L0X_ERROR_NONE;
 135:Drivers/VL53L0X/Platform/vl53l0x_platform.c ****     int32_t status_int;
 136:Drivers/VL53L0X/Platform/vl53l0x_platform.c ****     _I2CBuffer[0] = index;
 409              		.loc 1 136 0
 410 0002 094B     		ldr	r3, .L39
 411 0004 1970     		strb	r1, [r3]
 137:Drivers/VL53L0X/Platform/vl53l0x_platform.c ****     _I2CBuffer[1] = (data >> 24) & 0xFF;
 412              		.loc 1 137 0
 413 0006 110E     		lsrs	r1, r2, #24
 414              	.LVL56:
 415 0008 5970     		strb	r1, [r3, #1]
 138:Drivers/VL53L0X/Platform/vl53l0x_platform.c ****     _I2CBuffer[2] = (data >> 16) & 0xFF;
 416              		.loc 1 138 0
 417 000a 110C     		lsrs	r1, r2, #16
 418 000c 9970     		strb	r1, [r3, #2]
 139:Drivers/VL53L0X/Platform/vl53l0x_platform.c ****     _I2CBuffer[3] = (data >> 8)  & 0xFF;
 419              		.loc 1 139 0
 420 000e 110A     		lsrs	r1, r2, #8
 421 0010 D970     		strb	r1, [r3, #3]
 140:Drivers/VL53L0X/Platform/vl53l0x_platform.c ****     _I2CBuffer[4] = (data >> 0 ) & 0xFF;
 422              		.loc 1 140 0
 423 0012 1A71     		strb	r2, [r3, #4]
 141:Drivers/VL53L0X/Platform/vl53l0x_platform.c ****     VL53L0X_GetI2cBus();
 142:Drivers/VL53L0X/Platform/vl53l0x_platform.c ****     status_int = _I2CWrite(Dev, _I2CBuffer, 5);
 424              		.loc 1 142 0
 425 0014 0522     		movs	r2, #5
 426              	.LVL57:
 427 0016 1946     		mov	r1, r3
 428 0018 FFF7FEFF 		bl	_I2CWrite
 429              	.LVL58:
 143:Drivers/VL53L0X/Platform/vl53l0x_platform.c ****     if (status_int != 0) {
 430              		.loc 1 143 0
 431 001c 00B9     		cbnz	r0, .L38
 432              	.LVL59:
 433              	.L35:
ARM GAS  /tmp/cceWFLIh.s 			page 11


 144:Drivers/VL53L0X/Platform/vl53l0x_platform.c ****         Status = VL53L0X_ERROR_CONTROL_INTERFACE;
 145:Drivers/VL53L0X/Platform/vl53l0x_platform.c ****     }
 146:Drivers/VL53L0X/Platform/vl53l0x_platform.c ****     VL53L0X_PutI2cBus();
 147:Drivers/VL53L0X/Platform/vl53l0x_platform.c ****     return Status;
 148:Drivers/VL53L0X/Platform/vl53l0x_platform.c **** }
 434              		.loc 1 148 0
 435 001e 08BD     		pop	{r3, pc}
 436              	.LVL60:
 437              	.L38:
 144:Drivers/VL53L0X/Platform/vl53l0x_platform.c ****         Status = VL53L0X_ERROR_CONTROL_INTERFACE;
 438              		.loc 1 144 0
 439 0020 6FF01300 		mvn	r0, #19
 440              	.LVL61:
 441 0024 FBE7     		b	.L35
 442              	.L40:
 443 0026 00BF     		.align	2
 444              	.L39:
 445 0028 00000000 		.word	_I2CBuffer
 446              		.cfi_endproc
 447              	.LFE685:
 449              		.section	.text.VL53L0X_RdByte,"ax",%progbits
 450              		.align	1
 451              		.global	VL53L0X_RdByte
 452              		.syntax unified
 453              		.thumb
 454              		.thumb_func
 455              		.fpu fpv4-sp-d16
 457              	VL53L0X_RdByte:
 458              	.LFB687:
 149:Drivers/VL53L0X/Platform/vl53l0x_platform.c **** 
 150:Drivers/VL53L0X/Platform/vl53l0x_platform.c **** VL53L0X_Error VL53L0X_UpdateByte(VL53L0X_DEV Dev, uint8_t index, uint8_t AndData, uint8_t OrData) {
 151:Drivers/VL53L0X/Platform/vl53l0x_platform.c ****     VL53L0X_Error Status = VL53L0X_ERROR_NONE;
 152:Drivers/VL53L0X/Platform/vl53l0x_platform.c ****     uint8_t data;
 153:Drivers/VL53L0X/Platform/vl53l0x_platform.c **** 
 154:Drivers/VL53L0X/Platform/vl53l0x_platform.c ****     Status = VL53L0X_RdByte(Dev, index, &data);
 155:Drivers/VL53L0X/Platform/vl53l0x_platform.c ****     if (Status) {
 156:Drivers/VL53L0X/Platform/vl53l0x_platform.c ****         goto done;
 157:Drivers/VL53L0X/Platform/vl53l0x_platform.c ****     }
 158:Drivers/VL53L0X/Platform/vl53l0x_platform.c ****     data = (data & AndData) | OrData;
 159:Drivers/VL53L0X/Platform/vl53l0x_platform.c ****     Status = VL53L0X_WrByte(Dev, index, data);
 160:Drivers/VL53L0X/Platform/vl53l0x_platform.c **** done:
 161:Drivers/VL53L0X/Platform/vl53l0x_platform.c ****     return Status;
 162:Drivers/VL53L0X/Platform/vl53l0x_platform.c **** }
 163:Drivers/VL53L0X/Platform/vl53l0x_platform.c **** 
 164:Drivers/VL53L0X/Platform/vl53l0x_platform.c **** VL53L0X_Error VL53L0X_RdByte(VL53L0X_DEV Dev, uint8_t index, uint8_t *data) {
 459              		.loc 1 164 0
 460              		.cfi_startproc
 461              		@ args = 0, pretend = 0, frame = 8
 462              		@ frame_needed = 0, uses_anonymous_args = 0
 463              	.LVL62:
 464 0000 30B5     		push	{r4, r5, lr}
 465              	.LCFI16:
 466              		.cfi_def_cfa_offset 12
 467              		.cfi_offset 4, -12
 468              		.cfi_offset 5, -8
 469              		.cfi_offset 14, -4
 470 0002 83B0     		sub	sp, sp, #12
ARM GAS  /tmp/cceWFLIh.s 			page 12


 471              	.LCFI17:
 472              		.cfi_def_cfa_offset 24
 473 0004 0446     		mov	r4, r0
 474 0006 1546     		mov	r5, r2
 475 0008 02AB     		add	r3, sp, #8
 476 000a 03F8011D 		strb	r1, [r3, #-1]!
 477              	.LVL63:
 165:Drivers/VL53L0X/Platform/vl53l0x_platform.c ****     VL53L0X_Error Status = VL53L0X_ERROR_NONE;
 166:Drivers/VL53L0X/Platform/vl53l0x_platform.c ****     int32_t status_int;
 167:Drivers/VL53L0X/Platform/vl53l0x_platform.c **** 
 168:Drivers/VL53L0X/Platform/vl53l0x_platform.c ****     VL53L0X_GetI2cBus();
 169:Drivers/VL53L0X/Platform/vl53l0x_platform.c ****     status_int = _I2CWrite(Dev, &index, 1);
 478              		.loc 1 169 0
 479 000e 0122     		movs	r2, #1
 480              	.LVL64:
 481 0010 1946     		mov	r1, r3
 482              	.LVL65:
 483 0012 FFF7FEFF 		bl	_I2CWrite
 484              	.LVL66:
 170:Drivers/VL53L0X/Platform/vl53l0x_platform.c ****     if( status_int ){
 485              		.loc 1 170 0
 486 0016 38B9     		cbnz	r0, .L43
 171:Drivers/VL53L0X/Platform/vl53l0x_platform.c ****         Status = VL53L0X_ERROR_CONTROL_INTERFACE;
 172:Drivers/VL53L0X/Platform/vl53l0x_platform.c ****         goto done;
 173:Drivers/VL53L0X/Platform/vl53l0x_platform.c ****     }
 174:Drivers/VL53L0X/Platform/vl53l0x_platform.c ****     status_int = _I2CRead(Dev, data, 1);
 487              		.loc 1 174 0
 488 0018 0122     		movs	r2, #1
 489 001a 2946     		mov	r1, r5
 490 001c 2046     		mov	r0, r4
 491              	.LVL67:
 492 001e FFF7FEFF 		bl	_I2CRead
 493              	.LVL68:
 175:Drivers/VL53L0X/Platform/vl53l0x_platform.c ****     if (status_int != 0) {
 494              		.loc 1 175 0
 495 0022 20B9     		cbnz	r0, .L44
 496              	.LVL69:
 497              	.L42:
 176:Drivers/VL53L0X/Platform/vl53l0x_platform.c ****         Status = VL53L0X_ERROR_CONTROL_INTERFACE;
 177:Drivers/VL53L0X/Platform/vl53l0x_platform.c ****     }
 178:Drivers/VL53L0X/Platform/vl53l0x_platform.c **** done:
 179:Drivers/VL53L0X/Platform/vl53l0x_platform.c ****     VL53L0X_PutI2cBus();
 180:Drivers/VL53L0X/Platform/vl53l0x_platform.c ****     return Status;
 181:Drivers/VL53L0X/Platform/vl53l0x_platform.c **** }
 498              		.loc 1 181 0
 499 0024 03B0     		add	sp, sp, #12
 500              	.LCFI18:
 501              		.cfi_remember_state
 502              		.cfi_def_cfa_offset 12
 503              		@ sp needed
 504 0026 30BD     		pop	{r4, r5, pc}
 505              	.LVL70:
 506              	.L43:
 507              	.LCFI19:
 508              		.cfi_restore_state
 171:Drivers/VL53L0X/Platform/vl53l0x_platform.c ****         goto done;
 509              		.loc 1 171 0
ARM GAS  /tmp/cceWFLIh.s 			page 13


 510 0028 6FF01300 		mvn	r0, #19
 511              	.LVL71:
 512 002c FAE7     		b	.L42
 513              	.LVL72:
 514              	.L44:
 176:Drivers/VL53L0X/Platform/vl53l0x_platform.c ****         Status = VL53L0X_ERROR_CONTROL_INTERFACE;
 515              		.loc 1 176 0
 516 002e 6FF01300 		mvn	r0, #19
 517              	.LVL73:
 518 0032 F7E7     		b	.L42
 519              		.cfi_endproc
 520              	.LFE687:
 522              		.section	.text.VL53L0X_UpdateByte,"ax",%progbits
 523              		.align	1
 524              		.global	VL53L0X_UpdateByte
 525              		.syntax unified
 526              		.thumb
 527              		.thumb_func
 528              		.fpu fpv4-sp-d16
 530              	VL53L0X_UpdateByte:
 531              	.LFB686:
 150:Drivers/VL53L0X/Platform/vl53l0x_platform.c ****     VL53L0X_Error Status = VL53L0X_ERROR_NONE;
 532              		.loc 1 150 0
 533              		.cfi_startproc
 534              		@ args = 0, pretend = 0, frame = 8
 535              		@ frame_needed = 0, uses_anonymous_args = 0
 536              	.LVL74:
 537 0000 F0B5     		push	{r4, r5, r6, r7, lr}
 538              	.LCFI20:
 539              		.cfi_def_cfa_offset 20
 540              		.cfi_offset 4, -20
 541              		.cfi_offset 5, -16
 542              		.cfi_offset 6, -12
 543              		.cfi_offset 7, -8
 544              		.cfi_offset 14, -4
 545 0002 83B0     		sub	sp, sp, #12
 546              	.LCFI21:
 547              		.cfi_def_cfa_offset 32
 548 0004 0646     		mov	r6, r0
 549 0006 0F46     		mov	r7, r1
 550 0008 1546     		mov	r5, r2
 551 000a 1C46     		mov	r4, r3
 552              	.LVL75:
 154:Drivers/VL53L0X/Platform/vl53l0x_platform.c ****     if (Status) {
 553              		.loc 1 154 0
 554 000c 0DF10702 		add	r2, sp, #7
 555              	.LVL76:
 556 0010 FFF7FEFF 		bl	VL53L0X_RdByte
 557              	.LVL77:
 155:Drivers/VL53L0X/Platform/vl53l0x_platform.c ****         goto done;
 558              		.loc 1 155 0
 559 0014 0346     		mov	r3, r0
 560 0016 10B1     		cbz	r0, .L49
 561              	.LVL78:
 562              	.L47:
 162:Drivers/VL53L0X/Platform/vl53l0x_platform.c **** 
 563              		.loc 1 162 0
ARM GAS  /tmp/cceWFLIh.s 			page 14


 564 0018 1846     		mov	r0, r3
 565 001a 03B0     		add	sp, sp, #12
 566              	.LCFI22:
 567              		.cfi_remember_state
 568              		.cfi_def_cfa_offset 20
 569              		@ sp needed
 570 001c F0BD     		pop	{r4, r5, r6, r7, pc}
 571              	.LVL79:
 572              	.L49:
 573              	.LCFI23:
 574              		.cfi_restore_state
 158:Drivers/VL53L0X/Platform/vl53l0x_platform.c ****     Status = VL53L0X_WrByte(Dev, index, data);
 575              		.loc 1 158 0
 576 001e 9DF80720 		ldrb	r2, [sp, #7]	@ zero_extendqisi2
 577 0022 2A40     		ands	r2, r2, r5
 578 0024 2243     		orrs	r2, r2, r4
 579 0026 8DF80720 		strb	r2, [sp, #7]
 159:Drivers/VL53L0X/Platform/vl53l0x_platform.c **** done:
 580              		.loc 1 159 0
 581 002a 3946     		mov	r1, r7
 582 002c 3046     		mov	r0, r6
 583              	.LVL80:
 584 002e FFF7FEFF 		bl	VL53L0X_WrByte
 585              	.LVL81:
 586 0032 0346     		mov	r3, r0
 587              	.LVL82:
 588 0034 F0E7     		b	.L47
 589              		.cfi_endproc
 590              	.LFE686:
 592              		.section	.text.VL53L0X_RdWord,"ax",%progbits
 593              		.align	1
 594              		.global	VL53L0X_RdWord
 595              		.syntax unified
 596              		.thumb
 597              		.thumb_func
 598              		.fpu fpv4-sp-d16
 600              	VL53L0X_RdWord:
 601              	.LFB688:
 182:Drivers/VL53L0X/Platform/vl53l0x_platform.c **** 
 183:Drivers/VL53L0X/Platform/vl53l0x_platform.c **** VL53L0X_Error VL53L0X_RdWord(VL53L0X_DEV Dev, uint8_t index, uint16_t *data) {
 602              		.loc 1 183 0
 603              		.cfi_startproc
 604              		@ args = 0, pretend = 0, frame = 8
 605              		@ frame_needed = 0, uses_anonymous_args = 0
 606              	.LVL83:
 607 0000 30B5     		push	{r4, r5, lr}
 608              	.LCFI24:
 609              		.cfi_def_cfa_offset 12
 610              		.cfi_offset 4, -12
 611              		.cfi_offset 5, -8
 612              		.cfi_offset 14, -4
 613 0002 83B0     		sub	sp, sp, #12
 614              	.LCFI25:
 615              		.cfi_def_cfa_offset 24
 616 0004 0446     		mov	r4, r0
 617 0006 1546     		mov	r5, r2
 618 0008 02AB     		add	r3, sp, #8
ARM GAS  /tmp/cceWFLIh.s 			page 15


 619 000a 03F8011D 		strb	r1, [r3, #-1]!
 620              	.LVL84:
 184:Drivers/VL53L0X/Platform/vl53l0x_platform.c ****     VL53L0X_Error Status = VL53L0X_ERROR_NONE;
 185:Drivers/VL53L0X/Platform/vl53l0x_platform.c ****     int32_t status_int;
 186:Drivers/VL53L0X/Platform/vl53l0x_platform.c **** 
 187:Drivers/VL53L0X/Platform/vl53l0x_platform.c ****     VL53L0X_GetI2cBus();
 188:Drivers/VL53L0X/Platform/vl53l0x_platform.c ****     status_int = _I2CWrite(Dev, &index, 1);
 621              		.loc 1 188 0
 622 000e 0122     		movs	r2, #1
 623              	.LVL85:
 624 0010 1946     		mov	r1, r3
 625              	.LVL86:
 626 0012 FFF7FEFF 		bl	_I2CWrite
 627              	.LVL87:
 189:Drivers/VL53L0X/Platform/vl53l0x_platform.c **** 
 190:Drivers/VL53L0X/Platform/vl53l0x_platform.c ****     if( status_int ){
 628              		.loc 1 190 0
 629 0016 68B9     		cbnz	r0, .L52
 191:Drivers/VL53L0X/Platform/vl53l0x_platform.c ****         Status = VL53L0X_ERROR_CONTROL_INTERFACE;
 192:Drivers/VL53L0X/Platform/vl53l0x_platform.c ****         goto done;
 193:Drivers/VL53L0X/Platform/vl53l0x_platform.c ****     }
 194:Drivers/VL53L0X/Platform/vl53l0x_platform.c ****     status_int = _I2CRead(Dev, _I2CBuffer, 2);
 630              		.loc 1 194 0
 631 0018 0222     		movs	r2, #2
 632 001a 0949     		ldr	r1, .L55
 633 001c 2046     		mov	r0, r4
 634              	.LVL88:
 635 001e FFF7FEFF 		bl	_I2CRead
 636              	.LVL89:
 195:Drivers/VL53L0X/Platform/vl53l0x_platform.c ****     if (status_int != 0) {
 637              		.loc 1 195 0
 638 0022 50B9     		cbnz	r0, .L53
 196:Drivers/VL53L0X/Platform/vl53l0x_platform.c ****         Status = VL53L0X_ERROR_CONTROL_INTERFACE;
 197:Drivers/VL53L0X/Platform/vl53l0x_platform.c ****         goto done;
 198:Drivers/VL53L0X/Platform/vl53l0x_platform.c ****     }
 199:Drivers/VL53L0X/Platform/vl53l0x_platform.c **** 
 200:Drivers/VL53L0X/Platform/vl53l0x_platform.c ****     *data = ((uint16_t)_I2CBuffer[0]<<8) + (uint16_t)_I2CBuffer[1];
 639              		.loc 1 200 0
 640 0024 064A     		ldr	r2, .L55
 641 0026 1178     		ldrb	r1, [r2]	@ zero_extendqisi2
 642 0028 5378     		ldrb	r3, [r2, #1]	@ zero_extendqisi2
 643 002a 03EB0123 		add	r3, r3, r1, lsl #8
 644 002e 2B80     		strh	r3, [r5]	@ movhi
 645              	.LVL90:
 646              	.L51:
 201:Drivers/VL53L0X/Platform/vl53l0x_platform.c **** done:
 202:Drivers/VL53L0X/Platform/vl53l0x_platform.c ****     VL53L0X_PutI2cBus();
 203:Drivers/VL53L0X/Platform/vl53l0x_platform.c ****     return Status;
 204:Drivers/VL53L0X/Platform/vl53l0x_platform.c **** }
 647              		.loc 1 204 0
 648 0030 03B0     		add	sp, sp, #12
 649              	.LCFI26:
 650              		.cfi_remember_state
 651              		.cfi_def_cfa_offset 12
 652              		@ sp needed
 653 0032 30BD     		pop	{r4, r5, pc}
 654              	.LVL91:
ARM GAS  /tmp/cceWFLIh.s 			page 16


 655              	.L52:
 656              	.LCFI27:
 657              		.cfi_restore_state
 191:Drivers/VL53L0X/Platform/vl53l0x_platform.c ****         goto done;
 658              		.loc 1 191 0
 659 0034 6FF01300 		mvn	r0, #19
 660              	.LVL92:
 661 0038 FAE7     		b	.L51
 662              	.LVL93:
 663              	.L53:
 196:Drivers/VL53L0X/Platform/vl53l0x_platform.c ****         Status = VL53L0X_ERROR_CONTROL_INTERFACE;
 664              		.loc 1 196 0
 665 003a 6FF01300 		mvn	r0, #19
 666              	.LVL94:
 667 003e F7E7     		b	.L51
 668              	.L56:
 669              		.align	2
 670              	.L55:
 671 0040 00000000 		.word	_I2CBuffer
 672              		.cfi_endproc
 673              	.LFE688:
 675              		.section	.text.VL53L0X_RdDWord,"ax",%progbits
 676              		.align	1
 677              		.global	VL53L0X_RdDWord
 678              		.syntax unified
 679              		.thumb
 680              		.thumb_func
 681              		.fpu fpv4-sp-d16
 683              	VL53L0X_RdDWord:
 684              	.LFB689:
 205:Drivers/VL53L0X/Platform/vl53l0x_platform.c **** 
 206:Drivers/VL53L0X/Platform/vl53l0x_platform.c **** VL53L0X_Error VL53L0X_RdDWord(VL53L0X_DEV Dev, uint8_t index, uint32_t *data) {
 685              		.loc 1 206 0
 686              		.cfi_startproc
 687              		@ args = 0, pretend = 0, frame = 8
 688              		@ frame_needed = 0, uses_anonymous_args = 0
 689              	.LVL95:
 690 0000 30B5     		push	{r4, r5, lr}
 691              	.LCFI28:
 692              		.cfi_def_cfa_offset 12
 693              		.cfi_offset 4, -12
 694              		.cfi_offset 5, -8
 695              		.cfi_offset 14, -4
 696 0002 83B0     		sub	sp, sp, #12
 697              	.LCFI29:
 698              		.cfi_def_cfa_offset 24
 699 0004 0546     		mov	r5, r0
 700 0006 1446     		mov	r4, r2
 701 0008 02AB     		add	r3, sp, #8
 702 000a 03F8011D 		strb	r1, [r3, #-1]!
 703              	.LVL96:
 207:Drivers/VL53L0X/Platform/vl53l0x_platform.c ****     VL53L0X_Error Status = VL53L0X_ERROR_NONE;
 208:Drivers/VL53L0X/Platform/vl53l0x_platform.c ****     int32_t status_int;
 209:Drivers/VL53L0X/Platform/vl53l0x_platform.c **** 
 210:Drivers/VL53L0X/Platform/vl53l0x_platform.c ****     VL53L0X_GetI2cBus();
 211:Drivers/VL53L0X/Platform/vl53l0x_platform.c ****     status_int = _I2CWrite(Dev, &index, 1);
 704              		.loc 1 211 0
ARM GAS  /tmp/cceWFLIh.s 			page 17


 705 000e 0122     		movs	r2, #1
 706              	.LVL97:
 707 0010 1946     		mov	r1, r3
 708              	.LVL98:
 709 0012 FFF7FEFF 		bl	_I2CWrite
 710              	.LVL99:
 212:Drivers/VL53L0X/Platform/vl53l0x_platform.c ****     if (status_int != 0) {
 711              		.loc 1 212 0
 712 0016 98B9     		cbnz	r0, .L59
 213:Drivers/VL53L0X/Platform/vl53l0x_platform.c ****         Status = VL53L0X_ERROR_CONTROL_INTERFACE;
 214:Drivers/VL53L0X/Platform/vl53l0x_platform.c ****         goto done;
 215:Drivers/VL53L0X/Platform/vl53l0x_platform.c ****     }
 216:Drivers/VL53L0X/Platform/vl53l0x_platform.c ****     status_int = _I2CRead(Dev, _I2CBuffer, 4);
 713              		.loc 1 216 0
 714 0018 0422     		movs	r2, #4
 715 001a 0C49     		ldr	r1, .L62
 716 001c 2846     		mov	r0, r5
 717              	.LVL100:
 718 001e FFF7FEFF 		bl	_I2CRead
 719              	.LVL101:
 217:Drivers/VL53L0X/Platform/vl53l0x_platform.c ****     if (status_int != 0) {
 720              		.loc 1 217 0
 721 0022 80B9     		cbnz	r0, .L60
 218:Drivers/VL53L0X/Platform/vl53l0x_platform.c ****         Status = VL53L0X_ERROR_CONTROL_INTERFACE;
 219:Drivers/VL53L0X/Platform/vl53l0x_platform.c ****         goto done;
 220:Drivers/VL53L0X/Platform/vl53l0x_platform.c ****     }
 221:Drivers/VL53L0X/Platform/vl53l0x_platform.c **** 
 222:Drivers/VL53L0X/Platform/vl53l0x_platform.c ****     *data = ((uint32_t)_I2CBuffer[0]<<24) + ((uint32_t)_I2CBuffer[1]<<16) + ((uint32_t)_I2CBuffer[2
 722              		.loc 1 222 0
 723 0024 094A     		ldr	r2, .L62
 724 0026 1178     		ldrb	r1, [r2]	@ zero_extendqisi2
 725 0028 5378     		ldrb	r3, [r2, #1]	@ zero_extendqisi2
 726 002a 1B04     		lsls	r3, r3, #16
 727 002c 03EB0163 		add	r3, r3, r1, lsl #24
 728 0030 9178     		ldrb	r1, [r2, #2]	@ zero_extendqisi2
 729 0032 03EB0123 		add	r3, r3, r1, lsl #8
 730 0036 D278     		ldrb	r2, [r2, #3]	@ zero_extendqisi2
 731 0038 1344     		add	r3, r3, r2
 732 003a 2360     		str	r3, [r4]
 733              	.LVL102:
 734              	.L58:
 223:Drivers/VL53L0X/Platform/vl53l0x_platform.c **** 
 224:Drivers/VL53L0X/Platform/vl53l0x_platform.c **** done:
 225:Drivers/VL53L0X/Platform/vl53l0x_platform.c ****     VL53L0X_PutI2cBus();
 226:Drivers/VL53L0X/Platform/vl53l0x_platform.c ****     return Status;
 227:Drivers/VL53L0X/Platform/vl53l0x_platform.c **** }
 735              		.loc 1 227 0
 736 003c 03B0     		add	sp, sp, #12
 737              	.LCFI30:
 738              		.cfi_remember_state
 739              		.cfi_def_cfa_offset 12
 740              		@ sp needed
 741 003e 30BD     		pop	{r4, r5, pc}
 742              	.LVL103:
 743              	.L59:
 744              	.LCFI31:
 745              		.cfi_restore_state
ARM GAS  /tmp/cceWFLIh.s 			page 18


 213:Drivers/VL53L0X/Platform/vl53l0x_platform.c ****         goto done;
 746              		.loc 1 213 0
 747 0040 6FF01300 		mvn	r0, #19
 748              	.LVL104:
 749 0044 FAE7     		b	.L58
 750              	.LVL105:
 751              	.L60:
 218:Drivers/VL53L0X/Platform/vl53l0x_platform.c ****         Status = VL53L0X_ERROR_CONTROL_INTERFACE;
 752              		.loc 1 218 0
 753 0046 6FF01300 		mvn	r0, #19
 754              	.LVL106:
 755 004a F7E7     		b	.L58
 756              	.L63:
 757              		.align	2
 758              	.L62:
 759 004c 00000000 		.word	_I2CBuffer
 760              		.cfi_endproc
 761              	.LFE689:
 763              		.section	.text.VL53L0X_PollingDelay,"ax",%progbits
 764              		.align	1
 765              		.global	VL53L0X_PollingDelay
 766              		.syntax unified
 767              		.thumb
 768              		.thumb_func
 769              		.fpu fpv4-sp-d16
 771              	VL53L0X_PollingDelay:
 772              	.LFB690:
 228:Drivers/VL53L0X/Platform/vl53l0x_platform.c **** 
 229:Drivers/VL53L0X/Platform/vl53l0x_platform.c **** VL53L0X_Error VL53L0X_PollingDelay(VL53L0X_DEV Dev) {
 773              		.loc 1 229 0
 774              		.cfi_startproc
 775              		@ args = 0, pretend = 0, frame = 0
 776              		@ frame_needed = 0, uses_anonymous_args = 0
 777              	.LVL107:
 778 0000 08B5     		push	{r3, lr}
 779              	.LCFI32:
 780              		.cfi_def_cfa_offset 8
 781              		.cfi_offset 3, -8
 782              		.cfi_offset 14, -4
 783              	.LVL108:
 230:Drivers/VL53L0X/Platform/vl53l0x_platform.c ****     VL53L0X_Error status = VL53L0X_ERROR_NONE;
 231:Drivers/VL53L0X/Platform/vl53l0x_platform.c **** 
 232:Drivers/VL53L0X/Platform/vl53l0x_platform.c ****     // do nothing
 233:Drivers/VL53L0X/Platform/vl53l0x_platform.c ****     VL53L0X_OsDelay();
 784              		.loc 1 233 0
 785 0002 0220     		movs	r0, #2
 786              	.LVL109:
 787 0004 FFF7FEFF 		bl	HAL_Delay
 788              	.LVL110:
 234:Drivers/VL53L0X/Platform/vl53l0x_platform.c ****     return status;
 235:Drivers/VL53L0X/Platform/vl53l0x_platform.c **** }
 789              		.loc 1 235 0
 790 0008 0020     		movs	r0, #0
 791 000a 08BD     		pop	{r3, pc}
 792              		.cfi_endproc
 793              	.LFE690:
 795              		.comm	_I2CBuffer,64,4
ARM GAS  /tmp/cceWFLIh.s 			page 19


 796              		.text
 797              	.Letext0:
 798              		.file 2 "/usr/arm-none-eabi/include/machine/_default_types.h"
 799              		.file 3 "/usr/arm-none-eabi/include/sys/_stdint.h"
 800              		.file 4 "Drivers/VL53L0X/API/vl53l0x_types.h"
 801              		.file 5 "Drivers/VL53L0X/API/vl53l0x_device.h"
 802              		.file 6 "Drivers/VL53L0X/API/vl53l0x_def.h"
 803              		.file 7 "/usr/arm-none-eabi/include/sys/lock.h"
 804              		.file 8 "/usr/arm-none-eabi/include/sys/_types.h"
 805              		.file 9 "/usr/lib/gcc/arm-none-eabi/7.3.0/include/stddef.h"
 806              		.file 10 "/usr/arm-none-eabi/include/sys/reent.h"
 807              		.file 11 "Drivers/CMSIS/Include/core_cm4.h"
 808              		.file 12 "Drivers/CMSIS/Device/ST/STM32F4xx/Include/system_stm32f4xx.h"
 809              		.file 13 "Drivers/CMSIS/Device/ST/STM32F4xx/Include/stm32f401xe.h"
 810              		.file 14 "Drivers/STM32F4xx_HAL_Driver/Inc/stm32f4xx_hal_def.h"
 811              		.file 15 "Drivers/STM32F4xx_HAL_Driver/Inc/stm32f4xx_hal_dma.h"
 812              		.file 16 "Drivers/STM32F4xx_HAL_Driver/Inc/stm32f4xx_hal_i2c.h"
 813              		.file 17 "Drivers/VL53L0X/Platform/vl53l0x_platform.h"
 814              		.file 18 "Drivers/STM32F4xx_HAL_Driver/Inc/stm32f4xx_ll_dma.h"
 815              		.file 19 "Drivers/STM32F4xx_HAL_Driver/Inc/stm32f4xx_hal.h"
 816              		.file 20 "<built-in>"
ARM GAS  /tmp/cceWFLIh.s 			page 20

