ARM GAS  /tmp/ccq7BpOX.s 			page 1


   1              		.cpu cortex-m4
   2              		.eabi_attribute 27, 1
   3              		.eabi_attribute 28, 1
   4              		.eabi_attribute 20, 1
   5              		.eabi_attribute 21, 1
   6              		.eabi_attribute 23, 3
   7              		.eabi_attribute 24, 1
   8              		.eabi_attribute 25, 1
   9              		.eabi_attribute 26, 1
  10              		.eabi_attribute 30, 1
  11              		.eabi_attribute 34, 1
  12              		.eabi_attribute 18, 4
  13              		.file	"vl53l0x_api.c"
  14              		.text
  15              	.Ltext0:
  16              		.cfi_sections	.debug_frame
  17              		.section	.text.VL53L0X_GetVersion,"ax",%progbits
  18              		.align	1
  19              		.global	VL53L0X_GetVersion
  20              		.syntax unified
  21              		.thumb
  22              		.thumb_func
  23              		.fpu fpv4-sp-d16
  25              	VL53L0X_GetVersion:
  26              	.LFB126:
  27              		.file 1 "Drivers/VL53L0X/API/vl53l0x_api.c"
   1:Drivers/VL53L0X/API/vl53l0x_api.c **** /*******************************************************************************
   2:Drivers/VL53L0X/API/vl53l0x_api.c ****  Copyright © 2016, STMicroelectronics International N.V.
   3:Drivers/VL53L0X/API/vl53l0x_api.c ****  All rights reserved.
   4:Drivers/VL53L0X/API/vl53l0x_api.c **** 
   5:Drivers/VL53L0X/API/vl53l0x_api.c ****  Redistribution and use in source and binary forms, with or without
   6:Drivers/VL53L0X/API/vl53l0x_api.c ****  modification, are permitted provided that the following conditions are met:
   7:Drivers/VL53L0X/API/vl53l0x_api.c ****  * Redistributions of source code must retain the above copyright
   8:Drivers/VL53L0X/API/vl53l0x_api.c ****  notice, this list of conditions and the following disclaimer.
   9:Drivers/VL53L0X/API/vl53l0x_api.c ****  * Redistributions in binary form must reproduce the above copyright
  10:Drivers/VL53L0X/API/vl53l0x_api.c ****  notice, this list of conditions and the following disclaimer in the
  11:Drivers/VL53L0X/API/vl53l0x_api.c ****  documentation and/or other materials provided with the distribution.
  12:Drivers/VL53L0X/API/vl53l0x_api.c ****  * Neither the name of STMicroelectronics nor the
  13:Drivers/VL53L0X/API/vl53l0x_api.c ****  names of its contributors may be used to endorse or promote products
  14:Drivers/VL53L0X/API/vl53l0x_api.c ****  derived from this software without specific prior written permission.
  15:Drivers/VL53L0X/API/vl53l0x_api.c **** 
  16:Drivers/VL53L0X/API/vl53l0x_api.c ****  THIS SOFTWARE IS PROVIDED BY THE COPYRIGHT HOLDERS AND CONTRIBUTORS "AS IS" AND
  17:Drivers/VL53L0X/API/vl53l0x_api.c ****  ANY EXPRESS OR IMPLIED WARRANTIES, INCLUDING, BUT NOT LIMITED TO, THE IMPLIED
  18:Drivers/VL53L0X/API/vl53l0x_api.c ****  WARRANTIES OF MERCHANTABILITY, FITNESS FOR A PARTICULAR PURPOSE, AND
  19:Drivers/VL53L0X/API/vl53l0x_api.c ****  NON-INFRINGEMENT OF INTELLECTUAL PROPERTY RIGHTS ARE DISCLAIMED.
  20:Drivers/VL53L0X/API/vl53l0x_api.c ****  IN NO EVENT SHALL STMICROELECTRONICS INTERNATIONAL N.V. BE LIABLE FOR ANY
  21:Drivers/VL53L0X/API/vl53l0x_api.c ****  DIRECT, INDIRECT, INCIDENTAL, SPECIAL, EXEMPLARY, OR CONSEQUENTIAL DAMAGES
  22:Drivers/VL53L0X/API/vl53l0x_api.c ****  (INCLUDING, BUT NOT LIMITED TO, PROCUREMENT OF SUBSTITUTE GOODS OR SERVICES;
  23:Drivers/VL53L0X/API/vl53l0x_api.c ****  LOSS OF USE, DATA, OR PROFITS; OR BUSINESS INTERRUPTION) HOWEVER CAUSED AND
  24:Drivers/VL53L0X/API/vl53l0x_api.c ****  ON ANY THEORY OF LIABILITY, WHETHER IN CONTRACT, STRICT LIABILITY, OR TORT
  25:Drivers/VL53L0X/API/vl53l0x_api.c ****  (INCLUDING NEGLIGENCE OR OTHERWISE) ARISING IN ANY WAY OUT OF THE USE OF THIS
  26:Drivers/VL53L0X/API/vl53l0x_api.c ****  SOFTWARE, EVEN IF ADVISED OF THE POSSIBILITY OF SUCH DAMAGE.
  27:Drivers/VL53L0X/API/vl53l0x_api.c ****  ******************************************************************************/
  28:Drivers/VL53L0X/API/vl53l0x_api.c **** 
  29:Drivers/VL53L0X/API/vl53l0x_api.c **** #include "vl53l0x_api.h"
  30:Drivers/VL53L0X/API/vl53l0x_api.c **** #include "vl53l0x_tuning.h"
  31:Drivers/VL53L0X/API/vl53l0x_api.c **** #include "vl53l0x_interrupt_threshold_settings.h"
ARM GAS  /tmp/ccq7BpOX.s 			page 2


  32:Drivers/VL53L0X/API/vl53l0x_api.c **** #include "vl53l0x_api_core.h"
  33:Drivers/VL53L0X/API/vl53l0x_api.c **** #include "vl53l0x_api_calibration.h"
  34:Drivers/VL53L0X/API/vl53l0x_api.c **** #include "vl53l0x_api_strings.h"
  35:Drivers/VL53L0X/API/vl53l0x_api.c **** 
  36:Drivers/VL53L0X/API/vl53l0x_api.c **** #ifndef __KERNEL__
  37:Drivers/VL53L0X/API/vl53l0x_api.c **** #include <stdlib.h>
  38:Drivers/VL53L0X/API/vl53l0x_api.c **** #endif
  39:Drivers/VL53L0X/API/vl53l0x_api.c **** #define LOG_FUNCTION_START(fmt, ...) \
  40:Drivers/VL53L0X/API/vl53l0x_api.c **** 	_LOG_FUNCTION_START(TRACE_MODULE_API, fmt, ##__VA_ARGS__)
  41:Drivers/VL53L0X/API/vl53l0x_api.c **** #define LOG_FUNCTION_END(status, ...) \
  42:Drivers/VL53L0X/API/vl53l0x_api.c **** 	_LOG_FUNCTION_END(TRACE_MODULE_API, status, ##__VA_ARGS__)
  43:Drivers/VL53L0X/API/vl53l0x_api.c **** #define LOG_FUNCTION_END_FMT(status, fmt, ...) \
  44:Drivers/VL53L0X/API/vl53l0x_api.c **** 	_LOG_FUNCTION_END_FMT(TRACE_MODULE_API, status, fmt, ##__VA_ARGS__)
  45:Drivers/VL53L0X/API/vl53l0x_api.c **** 
  46:Drivers/VL53L0X/API/vl53l0x_api.c **** #ifdef VL53L0X_LOG_ENABLE
  47:Drivers/VL53L0X/API/vl53l0x_api.c **** #define trace_print(level, ...) trace_print_module_function(TRACE_MODULE_API, \
  48:Drivers/VL53L0X/API/vl53l0x_api.c **** 	level, TRACE_FUNCTION_NONE, ##__VA_ARGS__)
  49:Drivers/VL53L0X/API/vl53l0x_api.c **** #endif
  50:Drivers/VL53L0X/API/vl53l0x_api.c **** 
  51:Drivers/VL53L0X/API/vl53l0x_api.c **** /* Group PAL General Functions */
  52:Drivers/VL53L0X/API/vl53l0x_api.c **** 
  53:Drivers/VL53L0X/API/vl53l0x_api.c **** VL53L0X_Error VL53L0X_GetVersion(VL53L0X_Version_t *pVersion)
  54:Drivers/VL53L0X/API/vl53l0x_api.c **** {
  28              		.loc 1 54 0
  29              		.cfi_startproc
  30              		@ args = 0, pretend = 0, frame = 0
  31              		@ frame_needed = 0, uses_anonymous_args = 0
  32              		@ link register save eliminated.
  33              	.LVL0:
  34 0000 0346     		mov	r3, r0
  35              	.LVL1:
  55:Drivers/VL53L0X/API/vl53l0x_api.c **** 	VL53L0X_Error Status = VL53L0X_ERROR_NONE;
  56:Drivers/VL53L0X/API/vl53l0x_api.c **** 	LOG_FUNCTION_START("");
  57:Drivers/VL53L0X/API/vl53l0x_api.c **** 
  58:Drivers/VL53L0X/API/vl53l0x_api.c **** 	pVersion->major = VL53L0X_IMPLEMENTATION_VER_MAJOR;
  36              		.loc 1 58 0
  37 0002 0122     		movs	r2, #1
  38 0004 0271     		strb	r2, [r0, #4]
  59:Drivers/VL53L0X/API/vl53l0x_api.c **** 	pVersion->minor = VL53L0X_IMPLEMENTATION_VER_MINOR;
  39              		.loc 1 59 0
  40 0006 0020     		movs	r0, #0
  41              	.LVL2:
  42 0008 5871     		strb	r0, [r3, #5]
  60:Drivers/VL53L0X/API/vl53l0x_api.c **** 	pVersion->build = VL53L0X_IMPLEMENTATION_VER_SUB;
  43              		.loc 1 60 0
  44 000a 0222     		movs	r2, #2
  45 000c 9A71     		strb	r2, [r3, #6]
  61:Drivers/VL53L0X/API/vl53l0x_api.c **** 
  62:Drivers/VL53L0X/API/vl53l0x_api.c **** 	pVersion->revision = VL53L0X_IMPLEMENTATION_VER_REVISION;
  46              		.loc 1 62 0
  47 000e 41F2D722 		movw	r2, #4823
  48 0012 1A60     		str	r2, [r3]
  63:Drivers/VL53L0X/API/vl53l0x_api.c **** 
  64:Drivers/VL53L0X/API/vl53l0x_api.c **** 	LOG_FUNCTION_END(Status);
  65:Drivers/VL53L0X/API/vl53l0x_api.c **** 	return Status;
  66:Drivers/VL53L0X/API/vl53l0x_api.c **** }
  49              		.loc 1 66 0
ARM GAS  /tmp/ccq7BpOX.s 			page 3


  50 0014 7047     		bx	lr
  51              		.cfi_endproc
  52              	.LFE126:
  54              		.section	.text.VL53L0X_GetPalSpecVersion,"ax",%progbits
  55              		.align	1
  56              		.global	VL53L0X_GetPalSpecVersion
  57              		.syntax unified
  58              		.thumb
  59              		.thumb_func
  60              		.fpu fpv4-sp-d16
  62              	VL53L0X_GetPalSpecVersion:
  63              	.LFB127:
  67:Drivers/VL53L0X/API/vl53l0x_api.c **** 
  68:Drivers/VL53L0X/API/vl53l0x_api.c **** VL53L0X_Error VL53L0X_GetPalSpecVersion(VL53L0X_Version_t *pPalSpecVersion)
  69:Drivers/VL53L0X/API/vl53l0x_api.c **** {
  64              		.loc 1 69 0
  65              		.cfi_startproc
  66              		@ args = 0, pretend = 0, frame = 0
  67              		@ frame_needed = 0, uses_anonymous_args = 0
  68              		@ link register save eliminated.
  69              	.LVL3:
  70:Drivers/VL53L0X/API/vl53l0x_api.c **** 	VL53L0X_Error Status = VL53L0X_ERROR_NONE;
  71:Drivers/VL53L0X/API/vl53l0x_api.c **** 
  72:Drivers/VL53L0X/API/vl53l0x_api.c **** 	LOG_FUNCTION_START("");
  73:Drivers/VL53L0X/API/vl53l0x_api.c **** 
  74:Drivers/VL53L0X/API/vl53l0x_api.c **** 	pPalSpecVersion->major = VL53L0X_SPECIFICATION_VER_MAJOR;
  70              		.loc 1 74 0
  71 0000 0123     		movs	r3, #1
  72 0002 0371     		strb	r3, [r0, #4]
  75:Drivers/VL53L0X/API/vl53l0x_api.c **** 	pPalSpecVersion->minor = VL53L0X_SPECIFICATION_VER_MINOR;
  73              		.loc 1 75 0
  74 0004 0223     		movs	r3, #2
  75 0006 4371     		strb	r3, [r0, #5]
  76:Drivers/VL53L0X/API/vl53l0x_api.c **** 	pPalSpecVersion->build = VL53L0X_SPECIFICATION_VER_SUB;
  76              		.loc 1 76 0
  77 0008 0723     		movs	r3, #7
  78 000a 8371     		strb	r3, [r0, #6]
  77:Drivers/VL53L0X/API/vl53l0x_api.c **** 
  78:Drivers/VL53L0X/API/vl53l0x_api.c **** 	pPalSpecVersion->revision = VL53L0X_SPECIFICATION_VER_REVISION;
  79              		.loc 1 78 0
  80 000c 4FF4B463 		mov	r3, #1440
  81 0010 0360     		str	r3, [r0]
  79:Drivers/VL53L0X/API/vl53l0x_api.c **** 
  80:Drivers/VL53L0X/API/vl53l0x_api.c **** 	LOG_FUNCTION_END(Status);
  81:Drivers/VL53L0X/API/vl53l0x_api.c **** 	return Status;
  82:Drivers/VL53L0X/API/vl53l0x_api.c **** }
  82              		.loc 1 82 0
  83 0012 0020     		movs	r0, #0
  84              	.LVL4:
  85 0014 7047     		bx	lr
  86              		.cfi_endproc
  87              	.LFE127:
  89              		.section	.text.VL53L0X_GetProductRevision,"ax",%progbits
  90              		.align	1
  91              		.global	VL53L0X_GetProductRevision
  92              		.syntax unified
  93              		.thumb
ARM GAS  /tmp/ccq7BpOX.s 			page 4


  94              		.thumb_func
  95              		.fpu fpv4-sp-d16
  97              	VL53L0X_GetProductRevision:
  98              	.LFB128:
  83:Drivers/VL53L0X/API/vl53l0x_api.c **** 
  84:Drivers/VL53L0X/API/vl53l0x_api.c **** VL53L0X_Error VL53L0X_GetProductRevision(VL53L0X_DEV Dev,
  85:Drivers/VL53L0X/API/vl53l0x_api.c **** 	uint8_t *pProductRevisionMajor, uint8_t *pProductRevisionMinor)
  86:Drivers/VL53L0X/API/vl53l0x_api.c **** {
  99              		.loc 1 86 0
 100              		.cfi_startproc
 101              		@ args = 0, pretend = 0, frame = 8
 102              		@ frame_needed = 0, uses_anonymous_args = 0
 103              	.LVL5:
 104 0000 30B5     		push	{r4, r5, lr}
 105              	.LCFI0:
 106              		.cfi_def_cfa_offset 12
 107              		.cfi_offset 4, -12
 108              		.cfi_offset 5, -8
 109              		.cfi_offset 14, -4
 110 0002 83B0     		sub	sp, sp, #12
 111              	.LCFI1:
 112              		.cfi_def_cfa_offset 24
 113 0004 0D46     		mov	r5, r1
 114 0006 1446     		mov	r4, r2
 115              	.LVL6:
  87:Drivers/VL53L0X/API/vl53l0x_api.c **** 	VL53L0X_Error Status = VL53L0X_ERROR_NONE;
  88:Drivers/VL53L0X/API/vl53l0x_api.c **** 	uint8_t revision_id;
  89:Drivers/VL53L0X/API/vl53l0x_api.c **** 
  90:Drivers/VL53L0X/API/vl53l0x_api.c **** 	LOG_FUNCTION_START("");
  91:Drivers/VL53L0X/API/vl53l0x_api.c **** 
  92:Drivers/VL53L0X/API/vl53l0x_api.c **** 	Status = VL53L0X_RdByte(Dev, VL53L0X_REG_IDENTIFICATION_REVISION_ID,
 116              		.loc 1 92 0
 117 0008 0DF10702 		add	r2, sp, #7
 118              	.LVL7:
 119 000c C221     		movs	r1, #194
 120              	.LVL8:
 121 000e FFF7FEFF 		bl	VL53L0X_RdByte
 122              	.LVL9:
  93:Drivers/VL53L0X/API/vl53l0x_api.c **** 		&revision_id);
  94:Drivers/VL53L0X/API/vl53l0x_api.c **** 	*pProductRevisionMajor = 1;
 123              		.loc 1 94 0
 124 0012 0123     		movs	r3, #1
 125 0014 2B70     		strb	r3, [r5]
  95:Drivers/VL53L0X/API/vl53l0x_api.c **** 	*pProductRevisionMinor = (revision_id & 0xF0) >> 4;
 126              		.loc 1 95 0
 127 0016 9DF80730 		ldrb	r3, [sp, #7]	@ zero_extendqisi2
 128 001a 1B09     		lsrs	r3, r3, #4
 129 001c 2370     		strb	r3, [r4]
  96:Drivers/VL53L0X/API/vl53l0x_api.c **** 
  97:Drivers/VL53L0X/API/vl53l0x_api.c **** 	LOG_FUNCTION_END(Status);
  98:Drivers/VL53L0X/API/vl53l0x_api.c **** 	return Status;
  99:Drivers/VL53L0X/API/vl53l0x_api.c **** 
 100:Drivers/VL53L0X/API/vl53l0x_api.c **** }
 130              		.loc 1 100 0
 131 001e 03B0     		add	sp, sp, #12
 132              	.LCFI2:
 133              		.cfi_def_cfa_offset 12
ARM GAS  /tmp/ccq7BpOX.s 			page 5


 134              		@ sp needed
 135 0020 30BD     		pop	{r4, r5, pc}
 136              		.cfi_endproc
 137              	.LFE128:
 139              		.section	.text.VL53L0X_GetDeviceInfo,"ax",%progbits
 140              		.align	1
 141              		.global	VL53L0X_GetDeviceInfo
 142              		.syntax unified
 143              		.thumb
 144              		.thumb_func
 145              		.fpu fpv4-sp-d16
 147              	VL53L0X_GetDeviceInfo:
 148              	.LFB129:
 101:Drivers/VL53L0X/API/vl53l0x_api.c **** 
 102:Drivers/VL53L0X/API/vl53l0x_api.c **** VL53L0X_Error VL53L0X_GetDeviceInfo(VL53L0X_DEV Dev,
 103:Drivers/VL53L0X/API/vl53l0x_api.c **** 	VL53L0X_DeviceInfo_t *pVL53L0X_DeviceInfo)
 104:Drivers/VL53L0X/API/vl53l0x_api.c **** {
 149              		.loc 1 104 0
 150              		.cfi_startproc
 151              		@ args = 0, pretend = 0, frame = 0
 152              		@ frame_needed = 0, uses_anonymous_args = 0
 153              	.LVL10:
 154 0000 08B5     		push	{r3, lr}
 155              	.LCFI3:
 156              		.cfi_def_cfa_offset 8
 157              		.cfi_offset 3, -8
 158              		.cfi_offset 14, -4
 159              	.LVL11:
 105:Drivers/VL53L0X/API/vl53l0x_api.c **** 	VL53L0X_Error Status = VL53L0X_ERROR_NONE;
 106:Drivers/VL53L0X/API/vl53l0x_api.c **** 	LOG_FUNCTION_START("");
 107:Drivers/VL53L0X/API/vl53l0x_api.c **** 
 108:Drivers/VL53L0X/API/vl53l0x_api.c **** 	Status = VL53L0X_get_device_info(Dev, pVL53L0X_DeviceInfo);
 160              		.loc 1 108 0
 161 0002 FFF7FEFF 		bl	VL53L0X_get_device_info
 162              	.LVL12:
 109:Drivers/VL53L0X/API/vl53l0x_api.c **** 
 110:Drivers/VL53L0X/API/vl53l0x_api.c **** 	LOG_FUNCTION_END(Status);
 111:Drivers/VL53L0X/API/vl53l0x_api.c **** 	return Status;
 112:Drivers/VL53L0X/API/vl53l0x_api.c **** }
 163              		.loc 1 112 0
 164 0006 08BD     		pop	{r3, pc}
 165              		.cfi_endproc
 166              	.LFE129:
 168              		.section	.text.VL53L0X_GetDeviceErrorStatus,"ax",%progbits
 169              		.align	1
 170              		.global	VL53L0X_GetDeviceErrorStatus
 171              		.syntax unified
 172              		.thumb
 173              		.thumb_func
 174              		.fpu fpv4-sp-d16
 176              	VL53L0X_GetDeviceErrorStatus:
 177              	.LFB130:
 113:Drivers/VL53L0X/API/vl53l0x_api.c **** 
 114:Drivers/VL53L0X/API/vl53l0x_api.c **** VL53L0X_Error VL53L0X_GetDeviceErrorStatus(VL53L0X_DEV Dev,
 115:Drivers/VL53L0X/API/vl53l0x_api.c **** 	VL53L0X_DeviceError *pDeviceErrorStatus)
 116:Drivers/VL53L0X/API/vl53l0x_api.c **** {
 178              		.loc 1 116 0
ARM GAS  /tmp/ccq7BpOX.s 			page 6


 179              		.cfi_startproc
 180              		@ args = 0, pretend = 0, frame = 8
 181              		@ frame_needed = 0, uses_anonymous_args = 0
 182              	.LVL13:
 183 0000 10B5     		push	{r4, lr}
 184              	.LCFI4:
 185              		.cfi_def_cfa_offset 8
 186              		.cfi_offset 4, -8
 187              		.cfi_offset 14, -4
 188 0002 82B0     		sub	sp, sp, #8
 189              	.LCFI5:
 190              		.cfi_def_cfa_offset 16
 191 0004 0C46     		mov	r4, r1
 192              	.LVL14:
 117:Drivers/VL53L0X/API/vl53l0x_api.c **** 	VL53L0X_Error Status = VL53L0X_ERROR_NONE;
 118:Drivers/VL53L0X/API/vl53l0x_api.c **** 	uint8_t RangeStatus;
 119:Drivers/VL53L0X/API/vl53l0x_api.c **** 
 120:Drivers/VL53L0X/API/vl53l0x_api.c **** 	LOG_FUNCTION_START("");
 121:Drivers/VL53L0X/API/vl53l0x_api.c **** 
 122:Drivers/VL53L0X/API/vl53l0x_api.c **** 	Status = VL53L0X_RdByte(Dev, VL53L0X_REG_RESULT_RANGE_STATUS,
 193              		.loc 1 122 0
 194 0006 0DF10702 		add	r2, sp, #7
 195 000a 1421     		movs	r1, #20
 196              	.LVL15:
 197 000c FFF7FEFF 		bl	VL53L0X_RdByte
 198              	.LVL16:
 123:Drivers/VL53L0X/API/vl53l0x_api.c **** 		&RangeStatus);
 124:Drivers/VL53L0X/API/vl53l0x_api.c **** 
 125:Drivers/VL53L0X/API/vl53l0x_api.c **** 	*pDeviceErrorStatus = (VL53L0X_DeviceError)((RangeStatus & 0x78) >> 3);
 199              		.loc 1 125 0
 200 0010 9DF80730 		ldrb	r3, [sp, #7]	@ zero_extendqisi2
 201 0014 C3F3C303 		ubfx	r3, r3, #3, #4
 202 0018 2370     		strb	r3, [r4]
 126:Drivers/VL53L0X/API/vl53l0x_api.c **** 
 127:Drivers/VL53L0X/API/vl53l0x_api.c **** 	LOG_FUNCTION_END(Status);
 128:Drivers/VL53L0X/API/vl53l0x_api.c **** 	return Status;
 129:Drivers/VL53L0X/API/vl53l0x_api.c **** }
 203              		.loc 1 129 0
 204 001a 02B0     		add	sp, sp, #8
 205              	.LCFI6:
 206              		.cfi_def_cfa_offset 8
 207              		@ sp needed
 208 001c 10BD     		pop	{r4, pc}
 209              		.cfi_endproc
 210              	.LFE130:
 212              		.section	.text.VL53L0X_GetDeviceErrorString,"ax",%progbits
 213              		.align	1
 214              		.global	VL53L0X_GetDeviceErrorString
 215              		.syntax unified
 216              		.thumb
 217              		.thumb_func
 218              		.fpu fpv4-sp-d16
 220              	VL53L0X_GetDeviceErrorString:
 221              	.LFB131:
 130:Drivers/VL53L0X/API/vl53l0x_api.c **** 
 131:Drivers/VL53L0X/API/vl53l0x_api.c **** 
 132:Drivers/VL53L0X/API/vl53l0x_api.c **** VL53L0X_Error VL53L0X_GetDeviceErrorString(VL53L0X_DeviceError ErrorCode,
ARM GAS  /tmp/ccq7BpOX.s 			page 7


 133:Drivers/VL53L0X/API/vl53l0x_api.c **** 	char *pDeviceErrorString)
 134:Drivers/VL53L0X/API/vl53l0x_api.c **** {
 222              		.loc 1 134 0
 223              		.cfi_startproc
 224              		@ args = 0, pretend = 0, frame = 0
 225              		@ frame_needed = 0, uses_anonymous_args = 0
 226              	.LVL17:
 227 0000 08B5     		push	{r3, lr}
 228              	.LCFI7:
 229              		.cfi_def_cfa_offset 8
 230              		.cfi_offset 3, -8
 231              		.cfi_offset 14, -4
 232              	.LVL18:
 135:Drivers/VL53L0X/API/vl53l0x_api.c **** 	VL53L0X_Error Status = VL53L0X_ERROR_NONE;
 136:Drivers/VL53L0X/API/vl53l0x_api.c **** 
 137:Drivers/VL53L0X/API/vl53l0x_api.c **** 	LOG_FUNCTION_START("");
 138:Drivers/VL53L0X/API/vl53l0x_api.c **** 
 139:Drivers/VL53L0X/API/vl53l0x_api.c **** 	Status = VL53L0X_get_device_error_string(ErrorCode, pDeviceErrorString);
 233              		.loc 1 139 0
 234 0002 FFF7FEFF 		bl	VL53L0X_get_device_error_string
 235              	.LVL19:
 140:Drivers/VL53L0X/API/vl53l0x_api.c **** 
 141:Drivers/VL53L0X/API/vl53l0x_api.c **** 	LOG_FUNCTION_END(Status);
 142:Drivers/VL53L0X/API/vl53l0x_api.c **** 	return Status;
 143:Drivers/VL53L0X/API/vl53l0x_api.c **** }
 236              		.loc 1 143 0
 237 0006 08BD     		pop	{r3, pc}
 238              		.cfi_endproc
 239              	.LFE131:
 241              		.section	.text.VL53L0X_GetRangeStatusString,"ax",%progbits
 242              		.align	1
 243              		.global	VL53L0X_GetRangeStatusString
 244              		.syntax unified
 245              		.thumb
 246              		.thumb_func
 247              		.fpu fpv4-sp-d16
 249              	VL53L0X_GetRangeStatusString:
 250              	.LFB132:
 144:Drivers/VL53L0X/API/vl53l0x_api.c **** 
 145:Drivers/VL53L0X/API/vl53l0x_api.c **** VL53L0X_Error VL53L0X_GetRangeStatusString(uint8_t RangeStatus,
 146:Drivers/VL53L0X/API/vl53l0x_api.c **** 	char *pRangeStatusString)
 147:Drivers/VL53L0X/API/vl53l0x_api.c **** {
 251              		.loc 1 147 0
 252              		.cfi_startproc
 253              		@ args = 0, pretend = 0, frame = 0
 254              		@ frame_needed = 0, uses_anonymous_args = 0
 255              	.LVL20:
 256 0000 08B5     		push	{r3, lr}
 257              	.LCFI8:
 258              		.cfi_def_cfa_offset 8
 259              		.cfi_offset 3, -8
 260              		.cfi_offset 14, -4
 261              	.LVL21:
 148:Drivers/VL53L0X/API/vl53l0x_api.c **** 	VL53L0X_Error Status = VL53L0X_ERROR_NONE;
 149:Drivers/VL53L0X/API/vl53l0x_api.c **** 	LOG_FUNCTION_START("");
 150:Drivers/VL53L0X/API/vl53l0x_api.c **** 
 151:Drivers/VL53L0X/API/vl53l0x_api.c **** 	Status = VL53L0X_get_range_status_string(RangeStatus,
ARM GAS  /tmp/ccq7BpOX.s 			page 8


 262              		.loc 1 151 0
 263 0002 FFF7FEFF 		bl	VL53L0X_get_range_status_string
 264              	.LVL22:
 152:Drivers/VL53L0X/API/vl53l0x_api.c **** 		pRangeStatusString);
 153:Drivers/VL53L0X/API/vl53l0x_api.c **** 
 154:Drivers/VL53L0X/API/vl53l0x_api.c **** 	LOG_FUNCTION_END(Status);
 155:Drivers/VL53L0X/API/vl53l0x_api.c **** 	return Status;
 156:Drivers/VL53L0X/API/vl53l0x_api.c **** }
 265              		.loc 1 156 0
 266 0006 08BD     		pop	{r3, pc}
 267              		.cfi_endproc
 268              	.LFE132:
 270              		.section	.text.VL53L0X_GetPalErrorString,"ax",%progbits
 271              		.align	1
 272              		.global	VL53L0X_GetPalErrorString
 273              		.syntax unified
 274              		.thumb
 275              		.thumb_func
 276              		.fpu fpv4-sp-d16
 278              	VL53L0X_GetPalErrorString:
 279              	.LFB133:
 157:Drivers/VL53L0X/API/vl53l0x_api.c **** 
 158:Drivers/VL53L0X/API/vl53l0x_api.c **** VL53L0X_Error VL53L0X_GetPalErrorString(VL53L0X_Error PalErrorCode,
 159:Drivers/VL53L0X/API/vl53l0x_api.c **** 	char *pPalErrorString)
 160:Drivers/VL53L0X/API/vl53l0x_api.c **** {
 280              		.loc 1 160 0
 281              		.cfi_startproc
 282              		@ args = 0, pretend = 0, frame = 0
 283              		@ frame_needed = 0, uses_anonymous_args = 0
 284              	.LVL23:
 285 0000 08B5     		push	{r3, lr}
 286              	.LCFI9:
 287              		.cfi_def_cfa_offset 8
 288              		.cfi_offset 3, -8
 289              		.cfi_offset 14, -4
 290              	.LVL24:
 161:Drivers/VL53L0X/API/vl53l0x_api.c **** 	VL53L0X_Error Status = VL53L0X_ERROR_NONE;
 162:Drivers/VL53L0X/API/vl53l0x_api.c **** 	LOG_FUNCTION_START("");
 163:Drivers/VL53L0X/API/vl53l0x_api.c **** 
 164:Drivers/VL53L0X/API/vl53l0x_api.c **** 	Status = VL53L0X_get_pal_error_string(PalErrorCode, pPalErrorString);
 291              		.loc 1 164 0
 292 0002 FFF7FEFF 		bl	VL53L0X_get_pal_error_string
 293              	.LVL25:
 165:Drivers/VL53L0X/API/vl53l0x_api.c **** 
 166:Drivers/VL53L0X/API/vl53l0x_api.c **** 	LOG_FUNCTION_END(Status);
 167:Drivers/VL53L0X/API/vl53l0x_api.c **** 	return Status;
 168:Drivers/VL53L0X/API/vl53l0x_api.c **** }
 294              		.loc 1 168 0
 295 0006 08BD     		pop	{r3, pc}
 296              		.cfi_endproc
 297              	.LFE133:
 299              		.section	.text.VL53L0X_GetPalStateString,"ax",%progbits
 300              		.align	1
 301              		.global	VL53L0X_GetPalStateString
 302              		.syntax unified
 303              		.thumb
 304              		.thumb_func
ARM GAS  /tmp/ccq7BpOX.s 			page 9


 305              		.fpu fpv4-sp-d16
 307              	VL53L0X_GetPalStateString:
 308              	.LFB134:
 169:Drivers/VL53L0X/API/vl53l0x_api.c **** 
 170:Drivers/VL53L0X/API/vl53l0x_api.c **** VL53L0X_Error VL53L0X_GetPalStateString(VL53L0X_State PalStateCode,
 171:Drivers/VL53L0X/API/vl53l0x_api.c **** 	char *pPalStateString)
 172:Drivers/VL53L0X/API/vl53l0x_api.c **** {
 309              		.loc 1 172 0
 310              		.cfi_startproc
 311              		@ args = 0, pretend = 0, frame = 0
 312              		@ frame_needed = 0, uses_anonymous_args = 0
 313              	.LVL26:
 314 0000 08B5     		push	{r3, lr}
 315              	.LCFI10:
 316              		.cfi_def_cfa_offset 8
 317              		.cfi_offset 3, -8
 318              		.cfi_offset 14, -4
 319              	.LVL27:
 173:Drivers/VL53L0X/API/vl53l0x_api.c **** 	VL53L0X_Error Status = VL53L0X_ERROR_NONE;
 174:Drivers/VL53L0X/API/vl53l0x_api.c **** 	LOG_FUNCTION_START("");
 175:Drivers/VL53L0X/API/vl53l0x_api.c **** 
 176:Drivers/VL53L0X/API/vl53l0x_api.c **** 	Status = VL53L0X_get_pal_state_string(PalStateCode, pPalStateString);
 320              		.loc 1 176 0
 321 0002 FFF7FEFF 		bl	VL53L0X_get_pal_state_string
 322              	.LVL28:
 177:Drivers/VL53L0X/API/vl53l0x_api.c **** 
 178:Drivers/VL53L0X/API/vl53l0x_api.c **** 	LOG_FUNCTION_END(Status);
 179:Drivers/VL53L0X/API/vl53l0x_api.c **** 	return Status;
 180:Drivers/VL53L0X/API/vl53l0x_api.c **** }
 323              		.loc 1 180 0
 324 0006 08BD     		pop	{r3, pc}
 325              		.cfi_endproc
 326              	.LFE134:
 328              		.section	.text.VL53L0X_GetPalState,"ax",%progbits
 329              		.align	1
 330              		.global	VL53L0X_GetPalState
 331              		.syntax unified
 332              		.thumb
 333              		.thumb_func
 334              		.fpu fpv4-sp-d16
 336              	VL53L0X_GetPalState:
 337              	.LFB135:
 181:Drivers/VL53L0X/API/vl53l0x_api.c **** 
 182:Drivers/VL53L0X/API/vl53l0x_api.c **** VL53L0X_Error VL53L0X_GetPalState(VL53L0X_DEV Dev, VL53L0X_State *pPalState)
 183:Drivers/VL53L0X/API/vl53l0x_api.c **** {
 338              		.loc 1 183 0
 339              		.cfi_startproc
 340              		@ args = 0, pretend = 0, frame = 0
 341              		@ frame_needed = 0, uses_anonymous_args = 0
 342              		@ link register save eliminated.
 343              	.LVL29:
 184:Drivers/VL53L0X/API/vl53l0x_api.c **** 	VL53L0X_Error Status = VL53L0X_ERROR_NONE;
 185:Drivers/VL53L0X/API/vl53l0x_api.c **** 	LOG_FUNCTION_START("");
 186:Drivers/VL53L0X/API/vl53l0x_api.c **** 
 187:Drivers/VL53L0X/API/vl53l0x_api.c **** 	*pPalState = PALDevDataGet(Dev, PalState);
 344              		.loc 1 187 0
 345 0000 90F83231 		ldrb	r3, [r0, #306]	@ zero_extendqisi2
ARM GAS  /tmp/ccq7BpOX.s 			page 10


 346 0004 0B70     		strb	r3, [r1]
 188:Drivers/VL53L0X/API/vl53l0x_api.c **** 
 189:Drivers/VL53L0X/API/vl53l0x_api.c **** 	LOG_FUNCTION_END(Status);
 190:Drivers/VL53L0X/API/vl53l0x_api.c **** 	return Status;
 191:Drivers/VL53L0X/API/vl53l0x_api.c **** }
 347              		.loc 1 191 0
 348 0006 0020     		movs	r0, #0
 349              	.LVL30:
 350 0008 7047     		bx	lr
 351              		.cfi_endproc
 352              	.LFE135:
 354              		.section	.text.VL53L0X_GetPowerMode,"ax",%progbits
 355              		.align	1
 356              		.global	VL53L0X_GetPowerMode
 357              		.syntax unified
 358              		.thumb
 359              		.thumb_func
 360              		.fpu fpv4-sp-d16
 362              	VL53L0X_GetPowerMode:
 363              	.LFB137:
 192:Drivers/VL53L0X/API/vl53l0x_api.c **** 
 193:Drivers/VL53L0X/API/vl53l0x_api.c **** VL53L0X_Error VL53L0X_SetPowerMode(VL53L0X_DEV Dev, VL53L0X_PowerModes PowerMode)
 194:Drivers/VL53L0X/API/vl53l0x_api.c **** {
 195:Drivers/VL53L0X/API/vl53l0x_api.c **** 	VL53L0X_Error Status = VL53L0X_ERROR_NONE;
 196:Drivers/VL53L0X/API/vl53l0x_api.c **** 	LOG_FUNCTION_START("");
 197:Drivers/VL53L0X/API/vl53l0x_api.c **** 
 198:Drivers/VL53L0X/API/vl53l0x_api.c **** 	/* Only level1 of Power mode exists */
 199:Drivers/VL53L0X/API/vl53l0x_api.c **** 	if ((PowerMode != VL53L0X_POWERMODE_STANDBY_LEVEL1)
 200:Drivers/VL53L0X/API/vl53l0x_api.c **** 		&& (PowerMode != VL53L0X_POWERMODE_IDLE_LEVEL1)) {
 201:Drivers/VL53L0X/API/vl53l0x_api.c **** 		Status = VL53L0X_ERROR_MODE_NOT_SUPPORTED;
 202:Drivers/VL53L0X/API/vl53l0x_api.c **** 	} else if (PowerMode == VL53L0X_POWERMODE_STANDBY_LEVEL1) {
 203:Drivers/VL53L0X/API/vl53l0x_api.c **** 		/* set the standby level1 of power mode */
 204:Drivers/VL53L0X/API/vl53l0x_api.c **** 		Status = VL53L0X_WrByte(Dev, 0x80, 0x00);
 205:Drivers/VL53L0X/API/vl53l0x_api.c **** 		if (Status == VL53L0X_ERROR_NONE) {
 206:Drivers/VL53L0X/API/vl53l0x_api.c **** 			/* Set PAL State to standby */
 207:Drivers/VL53L0X/API/vl53l0x_api.c **** 			PALDevDataSet(Dev, PalState, VL53L0X_STATE_STANDBY);
 208:Drivers/VL53L0X/API/vl53l0x_api.c **** 			PALDevDataSet(Dev, PowerMode,
 209:Drivers/VL53L0X/API/vl53l0x_api.c **** 				VL53L0X_POWERMODE_STANDBY_LEVEL1);
 210:Drivers/VL53L0X/API/vl53l0x_api.c **** 		}
 211:Drivers/VL53L0X/API/vl53l0x_api.c **** 
 212:Drivers/VL53L0X/API/vl53l0x_api.c **** 	} else {
 213:Drivers/VL53L0X/API/vl53l0x_api.c **** 		/* VL53L0X_POWERMODE_IDLE_LEVEL1 */
 214:Drivers/VL53L0X/API/vl53l0x_api.c **** 		Status = VL53L0X_WrByte(Dev, 0x80, 0x00);
 215:Drivers/VL53L0X/API/vl53l0x_api.c **** 		if (Status == VL53L0X_ERROR_NONE)
 216:Drivers/VL53L0X/API/vl53l0x_api.c **** 			Status = VL53L0X_StaticInit(Dev);
 217:Drivers/VL53L0X/API/vl53l0x_api.c **** 
 218:Drivers/VL53L0X/API/vl53l0x_api.c **** 		if (Status == VL53L0X_ERROR_NONE)
 219:Drivers/VL53L0X/API/vl53l0x_api.c **** 			PALDevDataSet(Dev, PowerMode,
 220:Drivers/VL53L0X/API/vl53l0x_api.c **** 				VL53L0X_POWERMODE_IDLE_LEVEL1);
 221:Drivers/VL53L0X/API/vl53l0x_api.c **** 
 222:Drivers/VL53L0X/API/vl53l0x_api.c **** 	}
 223:Drivers/VL53L0X/API/vl53l0x_api.c **** 
 224:Drivers/VL53L0X/API/vl53l0x_api.c **** 	LOG_FUNCTION_END(Status);
 225:Drivers/VL53L0X/API/vl53l0x_api.c **** 	return Status;
 226:Drivers/VL53L0X/API/vl53l0x_api.c **** }
 227:Drivers/VL53L0X/API/vl53l0x_api.c **** 
 228:Drivers/VL53L0X/API/vl53l0x_api.c **** VL53L0X_Error VL53L0X_GetPowerMode(VL53L0X_DEV Dev, VL53L0X_PowerModes *pPowerMode)
ARM GAS  /tmp/ccq7BpOX.s 			page 11


 229:Drivers/VL53L0X/API/vl53l0x_api.c **** {
 364              		.loc 1 229 0
 365              		.cfi_startproc
 366              		@ args = 0, pretend = 0, frame = 8
 367              		@ frame_needed = 0, uses_anonymous_args = 0
 368              	.LVL31:
 369 0000 10B5     		push	{r4, lr}
 370              	.LCFI11:
 371              		.cfi_def_cfa_offset 8
 372              		.cfi_offset 4, -8
 373              		.cfi_offset 14, -4
 374 0002 82B0     		sub	sp, sp, #8
 375              	.LCFI12:
 376              		.cfi_def_cfa_offset 16
 377 0004 0446     		mov	r4, r0
 378              	.LVL32:
 230:Drivers/VL53L0X/API/vl53l0x_api.c **** 	VL53L0X_Error Status = VL53L0X_ERROR_NONE;
 231:Drivers/VL53L0X/API/vl53l0x_api.c **** 	uint8_t Byte;
 232:Drivers/VL53L0X/API/vl53l0x_api.c **** 	LOG_FUNCTION_START("");
 233:Drivers/VL53L0X/API/vl53l0x_api.c **** 
 234:Drivers/VL53L0X/API/vl53l0x_api.c **** 	/* Only level1 of Power mode exists */
 235:Drivers/VL53L0X/API/vl53l0x_api.c **** 	Status = VL53L0X_RdByte(Dev, 0x80, &Byte);
 379              		.loc 1 235 0
 380 0006 0DF10702 		add	r2, sp, #7
 381 000a 8021     		movs	r1, #128
 382              	.LVL33:
 383 000c FFF7FEFF 		bl	VL53L0X_RdByte
 384              	.LVL34:
 236:Drivers/VL53L0X/API/vl53l0x_api.c **** 
 237:Drivers/VL53L0X/API/vl53l0x_api.c **** 	if (Status == VL53L0X_ERROR_NONE) {
 385              		.loc 1 237 0
 386 0010 0346     		mov	r3, r0
 387 0012 30B9     		cbnz	r0, .L19
 238:Drivers/VL53L0X/API/vl53l0x_api.c **** 		if (Byte == 1) {
 388              		.loc 1 238 0
 389 0014 9DF80720 		ldrb	r2, [sp, #7]	@ zero_extendqisi2
 390 0018 012A     		cmp	r2, #1
 391 001a 05D0     		beq	.L22
 239:Drivers/VL53L0X/API/vl53l0x_api.c **** 			PALDevDataSet(Dev, PowerMode,
 240:Drivers/VL53L0X/API/vl53l0x_api.c **** 				VL53L0X_POWERMODE_IDLE_LEVEL1);
 241:Drivers/VL53L0X/API/vl53l0x_api.c **** 		} else {
 242:Drivers/VL53L0X/API/vl53l0x_api.c **** 			PALDevDataSet(Dev, PowerMode,
 392              		.loc 1 242 0
 393 001c 0022     		movs	r2, #0
 394 001e 84F83321 		strb	r2, [r4, #307]
 395              	.L19:
 243:Drivers/VL53L0X/API/vl53l0x_api.c **** 				VL53L0X_POWERMODE_STANDBY_LEVEL1);
 244:Drivers/VL53L0X/API/vl53l0x_api.c **** 		}
 245:Drivers/VL53L0X/API/vl53l0x_api.c **** 	}
 246:Drivers/VL53L0X/API/vl53l0x_api.c **** 
 247:Drivers/VL53L0X/API/vl53l0x_api.c **** 	LOG_FUNCTION_END(Status);
 248:Drivers/VL53L0X/API/vl53l0x_api.c **** 	return Status;
 249:Drivers/VL53L0X/API/vl53l0x_api.c **** }
 396              		.loc 1 249 0
 397 0022 1846     		mov	r0, r3
 398              	.LVL35:
 399 0024 02B0     		add	sp, sp, #8
ARM GAS  /tmp/ccq7BpOX.s 			page 12


 400              	.LCFI13:
 401              		.cfi_remember_state
 402              		.cfi_def_cfa_offset 8
 403              		@ sp needed
 404 0026 10BD     		pop	{r4, pc}
 405              	.LVL36:
 406              	.L22:
 407              	.LCFI14:
 408              		.cfi_restore_state
 239:Drivers/VL53L0X/API/vl53l0x_api.c **** 			PALDevDataSet(Dev, PowerMode,
 409              		.loc 1 239 0
 410 0028 0222     		movs	r2, #2
 411 002a 84F83321 		strb	r2, [r4, #307]
 412 002e F8E7     		b	.L19
 413              		.cfi_endproc
 414              	.LFE137:
 416              		.section	.text.VL53L0X_SetOffsetCalibrationDataMicroMeter,"ax",%progbits
 417              		.align	1
 418              		.global	VL53L0X_SetOffsetCalibrationDataMicroMeter
 419              		.syntax unified
 420              		.thumb
 421              		.thumb_func
 422              		.fpu fpv4-sp-d16
 424              	VL53L0X_SetOffsetCalibrationDataMicroMeter:
 425              	.LFB138:
 250:Drivers/VL53L0X/API/vl53l0x_api.c **** 
 251:Drivers/VL53L0X/API/vl53l0x_api.c **** VL53L0X_Error VL53L0X_SetOffsetCalibrationDataMicroMeter(VL53L0X_DEV Dev,
 252:Drivers/VL53L0X/API/vl53l0x_api.c **** 	int32_t OffsetCalibrationDataMicroMeter)
 253:Drivers/VL53L0X/API/vl53l0x_api.c **** {
 426              		.loc 1 253 0
 427              		.cfi_startproc
 428              		@ args = 0, pretend = 0, frame = 0
 429              		@ frame_needed = 0, uses_anonymous_args = 0
 430              	.LVL37:
 431 0000 08B5     		push	{r3, lr}
 432              	.LCFI15:
 433              		.cfi_def_cfa_offset 8
 434              		.cfi_offset 3, -8
 435              		.cfi_offset 14, -4
 436              	.LVL38:
 254:Drivers/VL53L0X/API/vl53l0x_api.c **** 	VL53L0X_Error Status = VL53L0X_ERROR_NONE;
 255:Drivers/VL53L0X/API/vl53l0x_api.c **** 	LOG_FUNCTION_START("");
 256:Drivers/VL53L0X/API/vl53l0x_api.c **** 
 257:Drivers/VL53L0X/API/vl53l0x_api.c **** 	Status = VL53L0X_set_offset_calibration_data_micro_meter(Dev,
 437              		.loc 1 257 0
 438 0002 FFF7FEFF 		bl	VL53L0X_set_offset_calibration_data_micro_meter
 439              	.LVL39:
 258:Drivers/VL53L0X/API/vl53l0x_api.c **** 		OffsetCalibrationDataMicroMeter);
 259:Drivers/VL53L0X/API/vl53l0x_api.c **** 
 260:Drivers/VL53L0X/API/vl53l0x_api.c **** 	LOG_FUNCTION_END(Status);
 261:Drivers/VL53L0X/API/vl53l0x_api.c **** 	return Status;
 262:Drivers/VL53L0X/API/vl53l0x_api.c **** }
 440              		.loc 1 262 0
 441 0006 08BD     		pop	{r3, pc}
 442              		.cfi_endproc
 443              	.LFE138:
 445              		.section	.text.VL53L0X_GetOffsetCalibrationDataMicroMeter,"ax",%progbits
ARM GAS  /tmp/ccq7BpOX.s 			page 13


 446              		.align	1
 447              		.global	VL53L0X_GetOffsetCalibrationDataMicroMeter
 448              		.syntax unified
 449              		.thumb
 450              		.thumb_func
 451              		.fpu fpv4-sp-d16
 453              	VL53L0X_GetOffsetCalibrationDataMicroMeter:
 454              	.LFB139:
 263:Drivers/VL53L0X/API/vl53l0x_api.c **** 
 264:Drivers/VL53L0X/API/vl53l0x_api.c **** VL53L0X_Error VL53L0X_GetOffsetCalibrationDataMicroMeter(VL53L0X_DEV Dev,
 265:Drivers/VL53L0X/API/vl53l0x_api.c **** 	int32_t *pOffsetCalibrationDataMicroMeter)
 266:Drivers/VL53L0X/API/vl53l0x_api.c **** {
 455              		.loc 1 266 0
 456              		.cfi_startproc
 457              		@ args = 0, pretend = 0, frame = 0
 458              		@ frame_needed = 0, uses_anonymous_args = 0
 459              	.LVL40:
 460 0000 08B5     		push	{r3, lr}
 461              	.LCFI16:
 462              		.cfi_def_cfa_offset 8
 463              		.cfi_offset 3, -8
 464              		.cfi_offset 14, -4
 465              	.LVL41:
 267:Drivers/VL53L0X/API/vl53l0x_api.c **** 	VL53L0X_Error Status = VL53L0X_ERROR_NONE;
 268:Drivers/VL53L0X/API/vl53l0x_api.c **** 	LOG_FUNCTION_START("");
 269:Drivers/VL53L0X/API/vl53l0x_api.c **** 
 270:Drivers/VL53L0X/API/vl53l0x_api.c **** 	Status = VL53L0X_get_offset_calibration_data_micro_meter(Dev,
 466              		.loc 1 270 0
 467 0002 FFF7FEFF 		bl	VL53L0X_get_offset_calibration_data_micro_meter
 468              	.LVL42:
 271:Drivers/VL53L0X/API/vl53l0x_api.c **** 		pOffsetCalibrationDataMicroMeter);
 272:Drivers/VL53L0X/API/vl53l0x_api.c **** 
 273:Drivers/VL53L0X/API/vl53l0x_api.c **** 	LOG_FUNCTION_END(Status);
 274:Drivers/VL53L0X/API/vl53l0x_api.c **** 	return Status;
 275:Drivers/VL53L0X/API/vl53l0x_api.c **** }
 469              		.loc 1 275 0
 470 0006 08BD     		pop	{r3, pc}
 471              		.cfi_endproc
 472              	.LFE139:
 474              		.section	.text.VL53L0X_SetLinearityCorrectiveGain,"ax",%progbits
 475              		.align	1
 476              		.global	VL53L0X_SetLinearityCorrectiveGain
 477              		.syntax unified
 478              		.thumb
 479              		.thumb_func
 480              		.fpu fpv4-sp-d16
 482              	VL53L0X_SetLinearityCorrectiveGain:
 483              	.LFB140:
 276:Drivers/VL53L0X/API/vl53l0x_api.c **** 
 277:Drivers/VL53L0X/API/vl53l0x_api.c **** VL53L0X_Error VL53L0X_SetLinearityCorrectiveGain(VL53L0X_DEV Dev,
 278:Drivers/VL53L0X/API/vl53l0x_api.c **** 	int16_t LinearityCorrectiveGain)
 279:Drivers/VL53L0X/API/vl53l0x_api.c **** {
 484              		.loc 1 279 0
 485              		.cfi_startproc
 486              		@ args = 0, pretend = 0, frame = 0
 487              		@ frame_needed = 0, uses_anonymous_args = 0
 488              	.LVL43:
ARM GAS  /tmp/ccq7BpOX.s 			page 14


 489 0000 08B5     		push	{r3, lr}
 490              	.LCFI17:
 491              		.cfi_def_cfa_offset 8
 492              		.cfi_offset 3, -8
 493              		.cfi_offset 14, -4
 494              	.LVL44:
 280:Drivers/VL53L0X/API/vl53l0x_api.c **** 	VL53L0X_Error Status = VL53L0X_ERROR_NONE;
 281:Drivers/VL53L0X/API/vl53l0x_api.c **** 	LOG_FUNCTION_START("");
 282:Drivers/VL53L0X/API/vl53l0x_api.c **** 
 283:Drivers/VL53L0X/API/vl53l0x_api.c **** 	if ((LinearityCorrectiveGain < 0) || (LinearityCorrectiveGain > 1000))
 495              		.loc 1 283 0
 496 0002 8BB2     		uxth	r3, r1
 497 0004 B3F57A7F 		cmp	r3, #1000
 498 0008 09D8     		bhi	.L29
 284:Drivers/VL53L0X/API/vl53l0x_api.c **** 		Status = VL53L0X_ERROR_INVALID_PARAMS;
 285:Drivers/VL53L0X/API/vl53l0x_api.c **** 	else {
 286:Drivers/VL53L0X/API/vl53l0x_api.c **** 		PALDevDataSet(Dev, LinearityCorrectiveGain,
 499              		.loc 1 286 0
 500 000a A0F85231 		strh	r3, [r0, #338]	@ movhi
 287:Drivers/VL53L0X/API/vl53l0x_api.c **** 			LinearityCorrectiveGain);
 288:Drivers/VL53L0X/API/vl53l0x_api.c **** 
 289:Drivers/VL53L0X/API/vl53l0x_api.c **** 		if (LinearityCorrectiveGain != 1000) {
 501              		.loc 1 289 0
 502 000e B1F57A7F 		cmp	r1, #1000
 503 0012 07D0     		beq	.L30
 290:Drivers/VL53L0X/API/vl53l0x_api.c **** 			/* Disable FW Xtalk */
 291:Drivers/VL53L0X/API/vl53l0x_api.c **** 			Status = VL53L0X_WrWord(Dev,
 504              		.loc 1 291 0
 505 0014 0022     		movs	r2, #0
 506 0016 2021     		movs	r1, #32
 507              	.LVL45:
 508 0018 FFF7FEFF 		bl	VL53L0X_WrWord
 509              	.LVL46:
 510              	.L28:
 292:Drivers/VL53L0X/API/vl53l0x_api.c **** 			VL53L0X_REG_CROSSTALK_COMPENSATION_PEAK_RATE_MCPS, 0);
 293:Drivers/VL53L0X/API/vl53l0x_api.c **** 		}
 294:Drivers/VL53L0X/API/vl53l0x_api.c **** 	}
 295:Drivers/VL53L0X/API/vl53l0x_api.c **** 
 296:Drivers/VL53L0X/API/vl53l0x_api.c **** 	LOG_FUNCTION_END(Status);
 297:Drivers/VL53L0X/API/vl53l0x_api.c **** 	return Status;
 298:Drivers/VL53L0X/API/vl53l0x_api.c **** }
 511              		.loc 1 298 0
 512 001c 08BD     		pop	{r3, pc}
 513              	.LVL47:
 514              	.L29:
 284:Drivers/VL53L0X/API/vl53l0x_api.c **** 	else {
 515              		.loc 1 284 0
 516 001e 6FF00300 		mvn	r0, #3
 517              	.LVL48:
 518 0022 FBE7     		b	.L28
 519              	.LVL49:
 520              	.L30:
 280:Drivers/VL53L0X/API/vl53l0x_api.c **** 	LOG_FUNCTION_START("");
 521              		.loc 1 280 0
 522 0024 0020     		movs	r0, #0
 523              	.LVL50:
 524 0026 F9E7     		b	.L28
ARM GAS  /tmp/ccq7BpOX.s 			page 15


 525              		.cfi_endproc
 526              	.LFE140:
 528              		.section	.text.VL53L0X_GetLinearityCorrectiveGain,"ax",%progbits
 529              		.align	1
 530              		.global	VL53L0X_GetLinearityCorrectiveGain
 531              		.syntax unified
 532              		.thumb
 533              		.thumb_func
 534              		.fpu fpv4-sp-d16
 536              	VL53L0X_GetLinearityCorrectiveGain:
 537              	.LFB141:
 299:Drivers/VL53L0X/API/vl53l0x_api.c **** 
 300:Drivers/VL53L0X/API/vl53l0x_api.c **** VL53L0X_Error VL53L0X_GetLinearityCorrectiveGain(VL53L0X_DEV Dev,
 301:Drivers/VL53L0X/API/vl53l0x_api.c **** 	uint16_t *pLinearityCorrectiveGain)
 302:Drivers/VL53L0X/API/vl53l0x_api.c **** {
 538              		.loc 1 302 0
 539              		.cfi_startproc
 540              		@ args = 0, pretend = 0, frame = 0
 541              		@ frame_needed = 0, uses_anonymous_args = 0
 542              		@ link register save eliminated.
 543              	.LVL51:
 303:Drivers/VL53L0X/API/vl53l0x_api.c **** 	VL53L0X_Error Status = VL53L0X_ERROR_NONE;
 304:Drivers/VL53L0X/API/vl53l0x_api.c **** 	LOG_FUNCTION_START("");
 305:Drivers/VL53L0X/API/vl53l0x_api.c **** 
 306:Drivers/VL53L0X/API/vl53l0x_api.c **** 	*pLinearityCorrectiveGain = PALDevDataGet(Dev, LinearityCorrectiveGain);
 544              		.loc 1 306 0
 545 0000 B0F85231 		ldrh	r3, [r0, #338]
 546 0004 0B80     		strh	r3, [r1]	@ movhi
 307:Drivers/VL53L0X/API/vl53l0x_api.c **** 
 308:Drivers/VL53L0X/API/vl53l0x_api.c **** 	LOG_FUNCTION_END(Status);
 309:Drivers/VL53L0X/API/vl53l0x_api.c **** 	return Status;
 310:Drivers/VL53L0X/API/vl53l0x_api.c **** }
 547              		.loc 1 310 0
 548 0006 0020     		movs	r0, #0
 549              	.LVL52:
 550 0008 7047     		bx	lr
 551              		.cfi_endproc
 552              	.LFE141:
 554              		.section	.text.VL53L0X_SetGroupParamHold,"ax",%progbits
 555              		.align	1
 556              		.global	VL53L0X_SetGroupParamHold
 557              		.syntax unified
 558              		.thumb
 559              		.thumb_func
 560              		.fpu fpv4-sp-d16
 562              	VL53L0X_SetGroupParamHold:
 563              	.LFB142:
 311:Drivers/VL53L0X/API/vl53l0x_api.c **** 
 312:Drivers/VL53L0X/API/vl53l0x_api.c **** VL53L0X_Error VL53L0X_SetGroupParamHold(VL53L0X_DEV Dev, uint8_t GroupParamHold)
 313:Drivers/VL53L0X/API/vl53l0x_api.c **** {
 564              		.loc 1 313 0
 565              		.cfi_startproc
 566              		@ args = 0, pretend = 0, frame = 0
 567              		@ frame_needed = 0, uses_anonymous_args = 0
 568              		@ link register save eliminated.
 569              	.LVL53:
 314:Drivers/VL53L0X/API/vl53l0x_api.c **** 	VL53L0X_Error Status = VL53L0X_ERROR_NOT_IMPLEMENTED;
ARM GAS  /tmp/ccq7BpOX.s 			page 16


 315:Drivers/VL53L0X/API/vl53l0x_api.c **** 	LOG_FUNCTION_START("");
 316:Drivers/VL53L0X/API/vl53l0x_api.c **** 
 317:Drivers/VL53L0X/API/vl53l0x_api.c **** 	/* not implemented on VL53L0X */
 318:Drivers/VL53L0X/API/vl53l0x_api.c **** 
 319:Drivers/VL53L0X/API/vl53l0x_api.c **** 	LOG_FUNCTION_END(Status);
 320:Drivers/VL53L0X/API/vl53l0x_api.c **** 	return Status;
 321:Drivers/VL53L0X/API/vl53l0x_api.c **** }
 570              		.loc 1 321 0
 571 0000 6FF06200 		mvn	r0, #98
 572              	.LVL54:
 573 0004 7047     		bx	lr
 574              		.cfi_endproc
 575              	.LFE142:
 577              		.section	.text.VL53L0X_GetUpperLimitMilliMeter,"ax",%progbits
 578              		.align	1
 579              		.global	VL53L0X_GetUpperLimitMilliMeter
 580              		.syntax unified
 581              		.thumb
 582              		.thumb_func
 583              		.fpu fpv4-sp-d16
 585              	VL53L0X_GetUpperLimitMilliMeter:
 586              	.LFB143:
 322:Drivers/VL53L0X/API/vl53l0x_api.c **** 
 323:Drivers/VL53L0X/API/vl53l0x_api.c **** VL53L0X_Error VL53L0X_GetUpperLimitMilliMeter(VL53L0X_DEV Dev,
 324:Drivers/VL53L0X/API/vl53l0x_api.c **** 	uint16_t *pUpperLimitMilliMeter)
 325:Drivers/VL53L0X/API/vl53l0x_api.c **** {
 587              		.loc 1 325 0
 588              		.cfi_startproc
 589              		@ args = 0, pretend = 0, frame = 0
 590              		@ frame_needed = 0, uses_anonymous_args = 0
 591              		@ link register save eliminated.
 592              	.LVL55:
 326:Drivers/VL53L0X/API/vl53l0x_api.c **** 	VL53L0X_Error Status = VL53L0X_ERROR_NOT_IMPLEMENTED;
 327:Drivers/VL53L0X/API/vl53l0x_api.c **** 	LOG_FUNCTION_START("");
 328:Drivers/VL53L0X/API/vl53l0x_api.c **** 
 329:Drivers/VL53L0X/API/vl53l0x_api.c **** 	/* not implemented on VL53L0X */
 330:Drivers/VL53L0X/API/vl53l0x_api.c **** 
 331:Drivers/VL53L0X/API/vl53l0x_api.c **** 	LOG_FUNCTION_END(Status);
 332:Drivers/VL53L0X/API/vl53l0x_api.c **** 	return Status;
 333:Drivers/VL53L0X/API/vl53l0x_api.c **** }
 593              		.loc 1 333 0
 594 0000 6FF06200 		mvn	r0, #98
 595              	.LVL56:
 596 0004 7047     		bx	lr
 597              		.cfi_endproc
 598              	.LFE143:
 600              		.section	.text.VL53L0X_GetTotalSignalRate,"ax",%progbits
 601              		.align	1
 602              		.global	VL53L0X_GetTotalSignalRate
 603              		.syntax unified
 604              		.thumb
 605              		.thumb_func
 606              		.fpu fpv4-sp-d16
 608              	VL53L0X_GetTotalSignalRate:
 609              	.LFB144:
 334:Drivers/VL53L0X/API/vl53l0x_api.c **** 
 335:Drivers/VL53L0X/API/vl53l0x_api.c **** VL53L0X_Error VL53L0X_GetTotalSignalRate(VL53L0X_DEV Dev,
ARM GAS  /tmp/ccq7BpOX.s 			page 17


 336:Drivers/VL53L0X/API/vl53l0x_api.c **** 	FixPoint1616_t *pTotalSignalRate)
 337:Drivers/VL53L0X/API/vl53l0x_api.c **** {
 610              		.loc 1 337 0
 611              		.cfi_startproc
 612              		@ args = 0, pretend = 0, frame = 32
 613              		@ frame_needed = 0, uses_anonymous_args = 0
 614              	.LVL57:
 615 0000 F0B5     		push	{r4, r5, r6, r7, lr}
 616              	.LCFI18:
 617              		.cfi_def_cfa_offset 20
 618              		.cfi_offset 4, -20
 619              		.cfi_offset 5, -16
 620              		.cfi_offset 6, -12
 621              		.cfi_offset 7, -8
 622              		.cfi_offset 14, -4
 623 0002 89B0     		sub	sp, sp, #36
 624              	.LCFI19:
 625              		.cfi_def_cfa_offset 56
 626 0004 0646     		mov	r6, r0
 627 0006 0F46     		mov	r7, r1
 628              	.LVL58:
 338:Drivers/VL53L0X/API/vl53l0x_api.c **** 	VL53L0X_Error Status = VL53L0X_ERROR_NONE;
 339:Drivers/VL53L0X/API/vl53l0x_api.c **** 	VL53L0X_RangingMeasurementData_t LastRangeDataBuffer;
 340:Drivers/VL53L0X/API/vl53l0x_api.c **** 
 341:Drivers/VL53L0X/API/vl53l0x_api.c **** 	LOG_FUNCTION_START("");
 342:Drivers/VL53L0X/API/vl53l0x_api.c **** 
 343:Drivers/VL53L0X/API/vl53l0x_api.c **** 	LastRangeDataBuffer = PALDevDataGet(Dev, LastRangeMeasure);
 629              		.loc 1 343 0
 630 0008 01AC     		add	r4, sp, #4
 631 000a 00F15005 		add	r5, r0, #80
 632 000e 0FCD     		ldmia	r5!, {r0, r1, r2, r3}
 633              	.LVL59:
 634 0010 0FC4     		stmia	r4!, {r0, r1, r2, r3}
 635 0012 95E80700 		ldm	r5, {r0, r1, r2}
 636 0016 84E80700 		stm	r4, {r0, r1, r2}
 344:Drivers/VL53L0X/API/vl53l0x_api.c **** 
 345:Drivers/VL53L0X/API/vl53l0x_api.c **** 	Status = VL53L0X_get_total_signal_rate(
 637              		.loc 1 345 0
 638 001a 3A46     		mov	r2, r7
 639 001c 01A9     		add	r1, sp, #4
 640 001e 3046     		mov	r0, r6
 641 0020 FFF7FEFF 		bl	VL53L0X_get_total_signal_rate
 642              	.LVL60:
 346:Drivers/VL53L0X/API/vl53l0x_api.c **** 		Dev, &LastRangeDataBuffer, pTotalSignalRate);
 347:Drivers/VL53L0X/API/vl53l0x_api.c **** 
 348:Drivers/VL53L0X/API/vl53l0x_api.c **** 	LOG_FUNCTION_END(Status);
 349:Drivers/VL53L0X/API/vl53l0x_api.c **** 	return Status;
 350:Drivers/VL53L0X/API/vl53l0x_api.c **** }
 643              		.loc 1 350 0
 644 0024 09B0     		add	sp, sp, #36
 645              	.LCFI20:
 646              		.cfi_def_cfa_offset 20
 647              		@ sp needed
 648 0026 F0BD     		pop	{r4, r5, r6, r7, pc}
 649              		.cfi_endproc
 650              	.LFE144:
 652              		.section	.text.VL53L0X_SetDeviceAddress,"ax",%progbits
ARM GAS  /tmp/ccq7BpOX.s 			page 18


 653              		.align	1
 654              		.global	VL53L0X_SetDeviceAddress
 655              		.syntax unified
 656              		.thumb
 657              		.thumb_func
 658              		.fpu fpv4-sp-d16
 660              	VL53L0X_SetDeviceAddress:
 661              	.LFB145:
 351:Drivers/VL53L0X/API/vl53l0x_api.c **** 
 352:Drivers/VL53L0X/API/vl53l0x_api.c **** /* End Group PAL General Functions */
 353:Drivers/VL53L0X/API/vl53l0x_api.c **** 
 354:Drivers/VL53L0X/API/vl53l0x_api.c **** /* Group PAL Init Functions */
 355:Drivers/VL53L0X/API/vl53l0x_api.c **** VL53L0X_Error VL53L0X_SetDeviceAddress(VL53L0X_DEV Dev, uint8_t DeviceAddress)
 356:Drivers/VL53L0X/API/vl53l0x_api.c **** {
 662              		.loc 1 356 0
 663              		.cfi_startproc
 664              		@ args = 0, pretend = 0, frame = 0
 665              		@ frame_needed = 0, uses_anonymous_args = 0
 666              	.LVL61:
 667 0000 08B5     		push	{r3, lr}
 668              	.LCFI21:
 669              		.cfi_def_cfa_offset 8
 670              		.cfi_offset 3, -8
 671              		.cfi_offset 14, -4
 672              	.LVL62:
 357:Drivers/VL53L0X/API/vl53l0x_api.c **** 	VL53L0X_Error Status = VL53L0X_ERROR_NONE;
 358:Drivers/VL53L0X/API/vl53l0x_api.c **** 	LOG_FUNCTION_START("");
 359:Drivers/VL53L0X/API/vl53l0x_api.c **** 
 360:Drivers/VL53L0X/API/vl53l0x_api.c **** 	Status = VL53L0X_WrByte(Dev, VL53L0X_REG_I2C_SLAVE_DEVICE_ADDRESS,
 673              		.loc 1 360 0
 674 0002 4A08     		lsrs	r2, r1, #1
 675 0004 8A21     		movs	r1, #138
 676              	.LVL63:
 677 0006 FFF7FEFF 		bl	VL53L0X_WrByte
 678              	.LVL64:
 361:Drivers/VL53L0X/API/vl53l0x_api.c **** 		DeviceAddress / 2);
 362:Drivers/VL53L0X/API/vl53l0x_api.c **** 
 363:Drivers/VL53L0X/API/vl53l0x_api.c **** 	LOG_FUNCTION_END(Status);
 364:Drivers/VL53L0X/API/vl53l0x_api.c **** 	return Status;
 365:Drivers/VL53L0X/API/vl53l0x_api.c **** }
 679              		.loc 1 365 0
 680 000a 08BD     		pop	{r3, pc}
 681              		.cfi_endproc
 682              	.LFE145:
 684              		.section	.text.VL53L0X_SetTuningSettingBuffer,"ax",%progbits
 685              		.align	1
 686              		.global	VL53L0X_SetTuningSettingBuffer
 687              		.syntax unified
 688              		.thumb
 689              		.thumb_func
 690              		.fpu fpv4-sp-d16
 692              	VL53L0X_SetTuningSettingBuffer:
 693              	.LFB147:
 366:Drivers/VL53L0X/API/vl53l0x_api.c **** 
 367:Drivers/VL53L0X/API/vl53l0x_api.c **** VL53L0X_Error VL53L0X_DataInit(VL53L0X_DEV Dev)
 368:Drivers/VL53L0X/API/vl53l0x_api.c **** {
 369:Drivers/VL53L0X/API/vl53l0x_api.c **** 	VL53L0X_Error Status = VL53L0X_ERROR_NONE;
ARM GAS  /tmp/ccq7BpOX.s 			page 19


 370:Drivers/VL53L0X/API/vl53l0x_api.c **** 	VL53L0X_DeviceParameters_t CurrentParameters;
 371:Drivers/VL53L0X/API/vl53l0x_api.c **** 	int i;
 372:Drivers/VL53L0X/API/vl53l0x_api.c **** 	uint8_t StopVariable;
 373:Drivers/VL53L0X/API/vl53l0x_api.c **** 
 374:Drivers/VL53L0X/API/vl53l0x_api.c **** 	LOG_FUNCTION_START("");
 375:Drivers/VL53L0X/API/vl53l0x_api.c **** 
 376:Drivers/VL53L0X/API/vl53l0x_api.c **** 	/* by default the I2C is running at 1V8 if you want to change it you
 377:Drivers/VL53L0X/API/vl53l0x_api.c **** 	 * need to include this define at compilation level. */
 378:Drivers/VL53L0X/API/vl53l0x_api.c **** #ifdef USE_I2C_2V8
 379:Drivers/VL53L0X/API/vl53l0x_api.c **** 	Status = VL53L0X_UpdateByte(Dev,
 380:Drivers/VL53L0X/API/vl53l0x_api.c **** 		VL53L0X_REG_VHV_CONFIG_PAD_SCL_SDA__EXTSUP_HV,
 381:Drivers/VL53L0X/API/vl53l0x_api.c **** 		0xFE,
 382:Drivers/VL53L0X/API/vl53l0x_api.c **** 		0x01);
 383:Drivers/VL53L0X/API/vl53l0x_api.c **** #endif
 384:Drivers/VL53L0X/API/vl53l0x_api.c **** 
 385:Drivers/VL53L0X/API/vl53l0x_api.c **** 	/* Set I2C standard mode */
 386:Drivers/VL53L0X/API/vl53l0x_api.c **** 	if (Status == VL53L0X_ERROR_NONE)
 387:Drivers/VL53L0X/API/vl53l0x_api.c **** 		Status = VL53L0X_WrByte(Dev, 0x88, 0x00);
 388:Drivers/VL53L0X/API/vl53l0x_api.c **** 
 389:Drivers/VL53L0X/API/vl53l0x_api.c **** 	VL53L0X_SETDEVICESPECIFICPARAMETER(Dev, ReadDataFromDeviceDone, 0);
 390:Drivers/VL53L0X/API/vl53l0x_api.c **** 
 391:Drivers/VL53L0X/API/vl53l0x_api.c **** #ifdef USE_IQC_STATION
 392:Drivers/VL53L0X/API/vl53l0x_api.c **** 	if (Status == VL53L0X_ERROR_NONE)
 393:Drivers/VL53L0X/API/vl53l0x_api.c **** 		Status = VL53L0X_apply_offset_adjustment(Dev);
 394:Drivers/VL53L0X/API/vl53l0x_api.c **** #endif
 395:Drivers/VL53L0X/API/vl53l0x_api.c **** 
 396:Drivers/VL53L0X/API/vl53l0x_api.c **** 	/* Default value is 1000 for Linearity Corrective Gain */
 397:Drivers/VL53L0X/API/vl53l0x_api.c **** 	PALDevDataSet(Dev, LinearityCorrectiveGain, 1000);
 398:Drivers/VL53L0X/API/vl53l0x_api.c **** 
 399:Drivers/VL53L0X/API/vl53l0x_api.c **** 	/* Dmax default Parameter */
 400:Drivers/VL53L0X/API/vl53l0x_api.c **** 	PALDevDataSet(Dev, DmaxCalRangeMilliMeter, 400);
 401:Drivers/VL53L0X/API/vl53l0x_api.c **** 	PALDevDataSet(Dev, DmaxCalSignalRateRtnMegaCps,
 402:Drivers/VL53L0X/API/vl53l0x_api.c **** 		(FixPoint1616_t)((0x00016B85))); /* 1.42 No Cover Glass*/
 403:Drivers/VL53L0X/API/vl53l0x_api.c **** 
 404:Drivers/VL53L0X/API/vl53l0x_api.c **** 	/* Set Default static parameters
 405:Drivers/VL53L0X/API/vl53l0x_api.c **** 	 *set first temporary values 9.44MHz * 65536 = 618660 */
 406:Drivers/VL53L0X/API/vl53l0x_api.c **** 	VL53L0X_SETDEVICESPECIFICPARAMETER(Dev, OscFrequencyMHz, 618660);
 407:Drivers/VL53L0X/API/vl53l0x_api.c **** 
 408:Drivers/VL53L0X/API/vl53l0x_api.c **** 	/* Set Default XTalkCompensationRateMegaCps to 0  */
 409:Drivers/VL53L0X/API/vl53l0x_api.c **** 	VL53L0X_SETPARAMETERFIELD(Dev, XTalkCompensationRateMegaCps, 0);
 410:Drivers/VL53L0X/API/vl53l0x_api.c **** 
 411:Drivers/VL53L0X/API/vl53l0x_api.c **** 	/* Get default parameters */
 412:Drivers/VL53L0X/API/vl53l0x_api.c **** 	Status = VL53L0X_GetDeviceParameters(Dev, &CurrentParameters);
 413:Drivers/VL53L0X/API/vl53l0x_api.c **** 	if (Status == VL53L0X_ERROR_NONE) {
 414:Drivers/VL53L0X/API/vl53l0x_api.c **** 		/* initialize PAL values */
 415:Drivers/VL53L0X/API/vl53l0x_api.c **** 		CurrentParameters.DeviceMode = VL53L0X_DEVICEMODE_SINGLE_RANGING;
 416:Drivers/VL53L0X/API/vl53l0x_api.c **** 		CurrentParameters.HistogramMode = VL53L0X_HISTOGRAMMODE_DISABLED;
 417:Drivers/VL53L0X/API/vl53l0x_api.c **** 		PALDevDataSet(Dev, CurrentParameters, CurrentParameters);
 418:Drivers/VL53L0X/API/vl53l0x_api.c **** 	}
 419:Drivers/VL53L0X/API/vl53l0x_api.c **** 
 420:Drivers/VL53L0X/API/vl53l0x_api.c **** 	/* Sigma estimator variable */
 421:Drivers/VL53L0X/API/vl53l0x_api.c **** 	PALDevDataSet(Dev, SigmaEstRefArray, 100);
 422:Drivers/VL53L0X/API/vl53l0x_api.c **** 	PALDevDataSet(Dev, SigmaEstEffPulseWidth, 900);
 423:Drivers/VL53L0X/API/vl53l0x_api.c **** 	PALDevDataSet(Dev, SigmaEstEffAmbWidth, 500);
 424:Drivers/VL53L0X/API/vl53l0x_api.c **** 	PALDevDataSet(Dev, targetRefRate, 0x0A00); /* 20 MCPS in 9:7 format */
 425:Drivers/VL53L0X/API/vl53l0x_api.c **** 
 426:Drivers/VL53L0X/API/vl53l0x_api.c **** 	/* Use internal default settings */
ARM GAS  /tmp/ccq7BpOX.s 			page 20


 427:Drivers/VL53L0X/API/vl53l0x_api.c **** 	PALDevDataSet(Dev, UseInternalTuningSettings, 1);
 428:Drivers/VL53L0X/API/vl53l0x_api.c **** 
 429:Drivers/VL53L0X/API/vl53l0x_api.c **** 	Status |= VL53L0X_WrByte(Dev, 0x80, 0x01);
 430:Drivers/VL53L0X/API/vl53l0x_api.c **** 	Status |= VL53L0X_WrByte(Dev, 0xFF, 0x01);
 431:Drivers/VL53L0X/API/vl53l0x_api.c **** 	Status |= VL53L0X_WrByte(Dev, 0x00, 0x00);
 432:Drivers/VL53L0X/API/vl53l0x_api.c **** 	Status |= VL53L0X_RdByte(Dev, 0x91, &StopVariable);
 433:Drivers/VL53L0X/API/vl53l0x_api.c **** 	PALDevDataSet(Dev, StopVariable, StopVariable);
 434:Drivers/VL53L0X/API/vl53l0x_api.c **** 	Status |= VL53L0X_WrByte(Dev, 0x00, 0x01);
 435:Drivers/VL53L0X/API/vl53l0x_api.c **** 	Status |= VL53L0X_WrByte(Dev, 0xFF, 0x00);
 436:Drivers/VL53L0X/API/vl53l0x_api.c **** 	Status |= VL53L0X_WrByte(Dev, 0x80, 0x00);
 437:Drivers/VL53L0X/API/vl53l0x_api.c **** 
 438:Drivers/VL53L0X/API/vl53l0x_api.c **** 	/* Enable all check */
 439:Drivers/VL53L0X/API/vl53l0x_api.c **** 	for (i = 0; i < VL53L0X_CHECKENABLE_NUMBER_OF_CHECKS; i++) {
 440:Drivers/VL53L0X/API/vl53l0x_api.c **** 		if (Status == VL53L0X_ERROR_NONE)
 441:Drivers/VL53L0X/API/vl53l0x_api.c **** 			Status |= VL53L0X_SetLimitCheckEnable(Dev, i, 1);
 442:Drivers/VL53L0X/API/vl53l0x_api.c **** 		else
 443:Drivers/VL53L0X/API/vl53l0x_api.c **** 			break;
 444:Drivers/VL53L0X/API/vl53l0x_api.c **** 
 445:Drivers/VL53L0X/API/vl53l0x_api.c **** 	}
 446:Drivers/VL53L0X/API/vl53l0x_api.c **** 
 447:Drivers/VL53L0X/API/vl53l0x_api.c **** 	/* Disable the following checks */
 448:Drivers/VL53L0X/API/vl53l0x_api.c **** 	if (Status == VL53L0X_ERROR_NONE)
 449:Drivers/VL53L0X/API/vl53l0x_api.c **** 		Status = VL53L0X_SetLimitCheckEnable(Dev,
 450:Drivers/VL53L0X/API/vl53l0x_api.c **** 			VL53L0X_CHECKENABLE_SIGNAL_REF_CLIP, 0);
 451:Drivers/VL53L0X/API/vl53l0x_api.c **** 
 452:Drivers/VL53L0X/API/vl53l0x_api.c **** 	if (Status == VL53L0X_ERROR_NONE)
 453:Drivers/VL53L0X/API/vl53l0x_api.c **** 		Status = VL53L0X_SetLimitCheckEnable(Dev,
 454:Drivers/VL53L0X/API/vl53l0x_api.c **** 			VL53L0X_CHECKENABLE_RANGE_IGNORE_THRESHOLD, 0);
 455:Drivers/VL53L0X/API/vl53l0x_api.c **** 
 456:Drivers/VL53L0X/API/vl53l0x_api.c **** 	if (Status == VL53L0X_ERROR_NONE)
 457:Drivers/VL53L0X/API/vl53l0x_api.c **** 		Status = VL53L0X_SetLimitCheckEnable(Dev,
 458:Drivers/VL53L0X/API/vl53l0x_api.c **** 			VL53L0X_CHECKENABLE_SIGNAL_RATE_MSRC, 0);
 459:Drivers/VL53L0X/API/vl53l0x_api.c **** 
 460:Drivers/VL53L0X/API/vl53l0x_api.c **** 	if (Status == VL53L0X_ERROR_NONE)
 461:Drivers/VL53L0X/API/vl53l0x_api.c **** 		Status = VL53L0X_SetLimitCheckEnable(Dev,
 462:Drivers/VL53L0X/API/vl53l0x_api.c **** 			VL53L0X_CHECKENABLE_SIGNAL_RATE_PRE_RANGE, 0);
 463:Drivers/VL53L0X/API/vl53l0x_api.c **** 
 464:Drivers/VL53L0X/API/vl53l0x_api.c **** 	/* Limit default values */
 465:Drivers/VL53L0X/API/vl53l0x_api.c **** 	if (Status == VL53L0X_ERROR_NONE) {
 466:Drivers/VL53L0X/API/vl53l0x_api.c **** 		Status = VL53L0X_SetLimitCheckValue(Dev,
 467:Drivers/VL53L0X/API/vl53l0x_api.c **** 			VL53L0X_CHECKENABLE_SIGMA_FINAL_RANGE,
 468:Drivers/VL53L0X/API/vl53l0x_api.c **** 				(FixPoint1616_t)(18 * 65536));
 469:Drivers/VL53L0X/API/vl53l0x_api.c **** 	}
 470:Drivers/VL53L0X/API/vl53l0x_api.c **** 	if (Status == VL53L0X_ERROR_NONE) {
 471:Drivers/VL53L0X/API/vl53l0x_api.c **** 		Status = VL53L0X_SetLimitCheckValue(Dev,
 472:Drivers/VL53L0X/API/vl53l0x_api.c **** 			VL53L0X_CHECKENABLE_SIGNAL_RATE_FINAL_RANGE,
 473:Drivers/VL53L0X/API/vl53l0x_api.c **** 				(FixPoint1616_t)(25 * 65536 / 100));
 474:Drivers/VL53L0X/API/vl53l0x_api.c **** 				/* 0.25 * 65536 */
 475:Drivers/VL53L0X/API/vl53l0x_api.c **** 	}
 476:Drivers/VL53L0X/API/vl53l0x_api.c **** 
 477:Drivers/VL53L0X/API/vl53l0x_api.c **** 	if (Status == VL53L0X_ERROR_NONE) {
 478:Drivers/VL53L0X/API/vl53l0x_api.c **** 		Status = VL53L0X_SetLimitCheckValue(Dev,
 479:Drivers/VL53L0X/API/vl53l0x_api.c **** 			VL53L0X_CHECKENABLE_SIGNAL_REF_CLIP,
 480:Drivers/VL53L0X/API/vl53l0x_api.c **** 				(FixPoint1616_t)(35 * 65536));
 481:Drivers/VL53L0X/API/vl53l0x_api.c **** 	}
 482:Drivers/VL53L0X/API/vl53l0x_api.c **** 
 483:Drivers/VL53L0X/API/vl53l0x_api.c **** 	if (Status == VL53L0X_ERROR_NONE) {
ARM GAS  /tmp/ccq7BpOX.s 			page 21


 484:Drivers/VL53L0X/API/vl53l0x_api.c **** 		Status = VL53L0X_SetLimitCheckValue(Dev,
 485:Drivers/VL53L0X/API/vl53l0x_api.c **** 			VL53L0X_CHECKENABLE_RANGE_IGNORE_THRESHOLD,
 486:Drivers/VL53L0X/API/vl53l0x_api.c **** 				(FixPoint1616_t)(0 * 65536));
 487:Drivers/VL53L0X/API/vl53l0x_api.c **** 	}
 488:Drivers/VL53L0X/API/vl53l0x_api.c **** 
 489:Drivers/VL53L0X/API/vl53l0x_api.c **** 	if (Status == VL53L0X_ERROR_NONE) {
 490:Drivers/VL53L0X/API/vl53l0x_api.c **** 
 491:Drivers/VL53L0X/API/vl53l0x_api.c **** 		PALDevDataSet(Dev, SequenceConfig, 0xFF);
 492:Drivers/VL53L0X/API/vl53l0x_api.c **** 		Status = VL53L0X_WrByte(Dev, VL53L0X_REG_SYSTEM_SEQUENCE_CONFIG,
 493:Drivers/VL53L0X/API/vl53l0x_api.c **** 			0xFF);
 494:Drivers/VL53L0X/API/vl53l0x_api.c **** 
 495:Drivers/VL53L0X/API/vl53l0x_api.c **** 		/* Set PAL state to tell that we are waiting for call to
 496:Drivers/VL53L0X/API/vl53l0x_api.c **** 		 * VL53L0X_StaticInit */
 497:Drivers/VL53L0X/API/vl53l0x_api.c **** 		PALDevDataSet(Dev, PalState, VL53L0X_STATE_WAIT_STATICINIT);
 498:Drivers/VL53L0X/API/vl53l0x_api.c **** 	}
 499:Drivers/VL53L0X/API/vl53l0x_api.c **** 
 500:Drivers/VL53L0X/API/vl53l0x_api.c **** 	if (Status == VL53L0X_ERROR_NONE)
 501:Drivers/VL53L0X/API/vl53l0x_api.c **** 		VL53L0X_SETDEVICESPECIFICPARAMETER(Dev, RefSpadsInitialised, 0);
 502:Drivers/VL53L0X/API/vl53l0x_api.c **** 
 503:Drivers/VL53L0X/API/vl53l0x_api.c **** 
 504:Drivers/VL53L0X/API/vl53l0x_api.c **** 	LOG_FUNCTION_END(Status);
 505:Drivers/VL53L0X/API/vl53l0x_api.c **** 	return Status;
 506:Drivers/VL53L0X/API/vl53l0x_api.c **** }
 507:Drivers/VL53L0X/API/vl53l0x_api.c **** 
 508:Drivers/VL53L0X/API/vl53l0x_api.c **** VL53L0X_Error VL53L0X_SetTuningSettingBuffer(VL53L0X_DEV Dev,
 509:Drivers/VL53L0X/API/vl53l0x_api.c **** 	uint8_t *pTuningSettingBuffer, uint8_t UseInternalTuningSettings)
 510:Drivers/VL53L0X/API/vl53l0x_api.c **** {
 694              		.loc 1 510 0
 695              		.cfi_startproc
 696              		@ args = 0, pretend = 0, frame = 0
 697              		@ frame_needed = 0, uses_anonymous_args = 0
 698              		@ link register save eliminated.
 699              	.LVL65:
 511:Drivers/VL53L0X/API/vl53l0x_api.c **** 	VL53L0X_Error Status = VL53L0X_ERROR_NONE;
 512:Drivers/VL53L0X/API/vl53l0x_api.c **** 
 513:Drivers/VL53L0X/API/vl53l0x_api.c **** 	LOG_FUNCTION_START("");
 514:Drivers/VL53L0X/API/vl53l0x_api.c **** 
 515:Drivers/VL53L0X/API/vl53l0x_api.c **** 	if (UseInternalTuningSettings == 1) {
 700              		.loc 1 515 0
 701 0000 012A     		cmp	r2, #1
 702 0002 08D0     		beq	.L43
 516:Drivers/VL53L0X/API/vl53l0x_api.c **** 		/* Force use internal settings */
 517:Drivers/VL53L0X/API/vl53l0x_api.c **** 		PALDevDataSet(Dev, UseInternalTuningSettings, 1);
 518:Drivers/VL53L0X/API/vl53l0x_api.c **** 	} else {
 519:Drivers/VL53L0X/API/vl53l0x_api.c **** 
 520:Drivers/VL53L0X/API/vl53l0x_api.c **** 		/* check that the first byte is not 0 */
 521:Drivers/VL53L0X/API/vl53l0x_api.c **** 		if (*pTuningSettingBuffer != 0) {
 703              		.loc 1 521 0
 704 0004 0B78     		ldrb	r3, [r1]	@ zero_extendqisi2
 705 0006 5BB1     		cbz	r3, .L42
 522:Drivers/VL53L0X/API/vl53l0x_api.c **** 			PALDevDataSet(Dev, pTuningSettingsPointer,
 706              		.loc 1 522 0
 707 0008 C0F84C11 		str	r1, [r0, #332]
 523:Drivers/VL53L0X/API/vl53l0x_api.c **** 				pTuningSettingBuffer);
 524:Drivers/VL53L0X/API/vl53l0x_api.c **** 			PALDevDataSet(Dev, UseInternalTuningSettings, 0);
 708              		.loc 1 524 0
 709 000c 0023     		movs	r3, #0
ARM GAS  /tmp/ccq7BpOX.s 			page 22


 710 000e 80F85031 		strb	r3, [r0, #336]
 511:Drivers/VL53L0X/API/vl53l0x_api.c **** 
 711              		.loc 1 511 0
 712 0012 1846     		mov	r0, r3
 713              	.LVL66:
 714 0014 7047     		bx	lr
 715              	.LVL67:
 716              	.L43:
 517:Drivers/VL53L0X/API/vl53l0x_api.c **** 	} else {
 717              		.loc 1 517 0
 718 0016 0123     		movs	r3, #1
 719 0018 80F85031 		strb	r3, [r0, #336]
 511:Drivers/VL53L0X/API/vl53l0x_api.c **** 
 720              		.loc 1 511 0
 721 001c 0020     		movs	r0, #0
 722              	.LVL68:
 723 001e 7047     		bx	lr
 724              	.LVL69:
 725              	.L42:
 525:Drivers/VL53L0X/API/vl53l0x_api.c **** 
 526:Drivers/VL53L0X/API/vl53l0x_api.c **** 		} else {
 527:Drivers/VL53L0X/API/vl53l0x_api.c **** 			Status = VL53L0X_ERROR_INVALID_PARAMS;
 726              		.loc 1 527 0
 727 0020 6FF00300 		mvn	r0, #3
 728              	.LVL70:
 528:Drivers/VL53L0X/API/vl53l0x_api.c **** 		}
 529:Drivers/VL53L0X/API/vl53l0x_api.c **** 	}
 530:Drivers/VL53L0X/API/vl53l0x_api.c **** 
 531:Drivers/VL53L0X/API/vl53l0x_api.c **** 	LOG_FUNCTION_END(Status);
 532:Drivers/VL53L0X/API/vl53l0x_api.c **** 	return Status;
 533:Drivers/VL53L0X/API/vl53l0x_api.c **** }
 729              		.loc 1 533 0
 730 0024 7047     		bx	lr
 731              		.cfi_endproc
 732              	.LFE147:
 734              		.section	.text.VL53L0X_GetTuningSettingBuffer,"ax",%progbits
 735              		.align	1
 736              		.global	VL53L0X_GetTuningSettingBuffer
 737              		.syntax unified
 738              		.thumb
 739              		.thumb_func
 740              		.fpu fpv4-sp-d16
 742              	VL53L0X_GetTuningSettingBuffer:
 743              	.LFB148:
 534:Drivers/VL53L0X/API/vl53l0x_api.c **** 
 535:Drivers/VL53L0X/API/vl53l0x_api.c **** VL53L0X_Error VL53L0X_GetTuningSettingBuffer(VL53L0X_DEV Dev,
 536:Drivers/VL53L0X/API/vl53l0x_api.c **** 	uint8_t **ppTuningSettingBuffer, uint8_t *pUseInternalTuningSettings)
 537:Drivers/VL53L0X/API/vl53l0x_api.c **** {
 744              		.loc 1 537 0
 745              		.cfi_startproc
 746              		@ args = 0, pretend = 0, frame = 0
 747              		@ frame_needed = 0, uses_anonymous_args = 0
 748              		@ link register save eliminated.
 749              	.LVL71:
 538:Drivers/VL53L0X/API/vl53l0x_api.c **** 	VL53L0X_Error Status = VL53L0X_ERROR_NONE;
 539:Drivers/VL53L0X/API/vl53l0x_api.c **** 
 540:Drivers/VL53L0X/API/vl53l0x_api.c **** 	LOG_FUNCTION_START("");
ARM GAS  /tmp/ccq7BpOX.s 			page 23


 541:Drivers/VL53L0X/API/vl53l0x_api.c **** 
 542:Drivers/VL53L0X/API/vl53l0x_api.c **** 	*ppTuningSettingBuffer = PALDevDataGet(Dev, pTuningSettingsPointer);
 750              		.loc 1 542 0
 751 0000 D0F84C31 		ldr	r3, [r0, #332]
 752 0004 0B60     		str	r3, [r1]
 543:Drivers/VL53L0X/API/vl53l0x_api.c **** 	*pUseInternalTuningSettings = PALDevDataGet(Dev,
 753              		.loc 1 543 0
 754 0006 90F85031 		ldrb	r3, [r0, #336]	@ zero_extendqisi2
 755 000a 1370     		strb	r3, [r2]
 544:Drivers/VL53L0X/API/vl53l0x_api.c **** 		UseInternalTuningSettings);
 545:Drivers/VL53L0X/API/vl53l0x_api.c **** 
 546:Drivers/VL53L0X/API/vl53l0x_api.c **** 	LOG_FUNCTION_END(Status);
 547:Drivers/VL53L0X/API/vl53l0x_api.c **** 	return Status;
 548:Drivers/VL53L0X/API/vl53l0x_api.c **** }
 756              		.loc 1 548 0
 757 000c 0020     		movs	r0, #0
 758              	.LVL72:
 759 000e 7047     		bx	lr
 760              		.cfi_endproc
 761              	.LFE148:
 763              		.section	.text.VL53L0X_WaitDeviceBooted,"ax",%progbits
 764              		.align	1
 765              		.global	VL53L0X_WaitDeviceBooted
 766              		.syntax unified
 767              		.thumb
 768              		.thumb_func
 769              		.fpu fpv4-sp-d16
 771              	VL53L0X_WaitDeviceBooted:
 772              	.LFB150:
 549:Drivers/VL53L0X/API/vl53l0x_api.c **** 
 550:Drivers/VL53L0X/API/vl53l0x_api.c **** VL53L0X_Error VL53L0X_StaticInit(VL53L0X_DEV Dev)
 551:Drivers/VL53L0X/API/vl53l0x_api.c **** {
 552:Drivers/VL53L0X/API/vl53l0x_api.c **** 	VL53L0X_Error Status = VL53L0X_ERROR_NONE;
 553:Drivers/VL53L0X/API/vl53l0x_api.c **** 	VL53L0X_DeviceParameters_t CurrentParameters = {0};
 554:Drivers/VL53L0X/API/vl53l0x_api.c **** 	uint8_t *pTuningSettingBuffer;
 555:Drivers/VL53L0X/API/vl53l0x_api.c **** 	uint16_t tempword = 0;
 556:Drivers/VL53L0X/API/vl53l0x_api.c **** 	uint8_t tempbyte = 0;
 557:Drivers/VL53L0X/API/vl53l0x_api.c **** 	uint8_t UseInternalTuningSettings = 0;
 558:Drivers/VL53L0X/API/vl53l0x_api.c **** 	uint32_t count = 0;
 559:Drivers/VL53L0X/API/vl53l0x_api.c **** 	uint8_t isApertureSpads = 0;
 560:Drivers/VL53L0X/API/vl53l0x_api.c **** 	uint32_t refSpadCount = 0;
 561:Drivers/VL53L0X/API/vl53l0x_api.c **** 	uint8_t ApertureSpads = 0;
 562:Drivers/VL53L0X/API/vl53l0x_api.c **** 	uint8_t vcselPulsePeriodPCLK;
 563:Drivers/VL53L0X/API/vl53l0x_api.c **** 	uint32_t seqTimeoutMicroSecs;
 564:Drivers/VL53L0X/API/vl53l0x_api.c **** 
 565:Drivers/VL53L0X/API/vl53l0x_api.c **** 	LOG_FUNCTION_START("");
 566:Drivers/VL53L0X/API/vl53l0x_api.c **** 
 567:Drivers/VL53L0X/API/vl53l0x_api.c **** 	Status = VL53L0X_get_info_from_device(Dev, 1);
 568:Drivers/VL53L0X/API/vl53l0x_api.c **** 
 569:Drivers/VL53L0X/API/vl53l0x_api.c **** 	/* set the ref spad from NVM */
 570:Drivers/VL53L0X/API/vl53l0x_api.c **** 	count	= (uint32_t)VL53L0X_GETDEVICESPECIFICPARAMETER(Dev,
 571:Drivers/VL53L0X/API/vl53l0x_api.c **** 		ReferenceSpadCount);
 572:Drivers/VL53L0X/API/vl53l0x_api.c **** 	ApertureSpads = VL53L0X_GETDEVICESPECIFICPARAMETER(Dev,
 573:Drivers/VL53L0X/API/vl53l0x_api.c **** 		ReferenceSpadType);
 574:Drivers/VL53L0X/API/vl53l0x_api.c **** 
 575:Drivers/VL53L0X/API/vl53l0x_api.c **** 	/* NVM value invalid */
 576:Drivers/VL53L0X/API/vl53l0x_api.c **** 	if ((ApertureSpads > 1) ||
ARM GAS  /tmp/ccq7BpOX.s 			page 24


 577:Drivers/VL53L0X/API/vl53l0x_api.c **** 		((ApertureSpads == 1) && (count > 32)) ||
 578:Drivers/VL53L0X/API/vl53l0x_api.c **** 		((ApertureSpads == 0) && (count > 12)))
 579:Drivers/VL53L0X/API/vl53l0x_api.c **** 		Status = VL53L0X_perform_ref_spad_management(Dev, &refSpadCount,
 580:Drivers/VL53L0X/API/vl53l0x_api.c **** 			&isApertureSpads);
 581:Drivers/VL53L0X/API/vl53l0x_api.c **** 	else
 582:Drivers/VL53L0X/API/vl53l0x_api.c **** 		Status = VL53L0X_set_reference_spads(Dev, count, ApertureSpads);
 583:Drivers/VL53L0X/API/vl53l0x_api.c **** 
 584:Drivers/VL53L0X/API/vl53l0x_api.c **** 
 585:Drivers/VL53L0X/API/vl53l0x_api.c **** 	/* Initialize tuning settings buffer to prevent compiler warning. */
 586:Drivers/VL53L0X/API/vl53l0x_api.c **** 	pTuningSettingBuffer = DefaultTuningSettings;
 587:Drivers/VL53L0X/API/vl53l0x_api.c **** 
 588:Drivers/VL53L0X/API/vl53l0x_api.c **** 	if (Status == VL53L0X_ERROR_NONE) {
 589:Drivers/VL53L0X/API/vl53l0x_api.c **** 		UseInternalTuningSettings = PALDevDataGet(Dev,
 590:Drivers/VL53L0X/API/vl53l0x_api.c **** 			UseInternalTuningSettings);
 591:Drivers/VL53L0X/API/vl53l0x_api.c **** 
 592:Drivers/VL53L0X/API/vl53l0x_api.c **** 		if (UseInternalTuningSettings == 0)
 593:Drivers/VL53L0X/API/vl53l0x_api.c **** 			pTuningSettingBuffer = PALDevDataGet(Dev,
 594:Drivers/VL53L0X/API/vl53l0x_api.c **** 				pTuningSettingsPointer);
 595:Drivers/VL53L0X/API/vl53l0x_api.c **** 		else
 596:Drivers/VL53L0X/API/vl53l0x_api.c **** 			pTuningSettingBuffer = DefaultTuningSettings;
 597:Drivers/VL53L0X/API/vl53l0x_api.c **** 
 598:Drivers/VL53L0X/API/vl53l0x_api.c **** 	}
 599:Drivers/VL53L0X/API/vl53l0x_api.c **** 
 600:Drivers/VL53L0X/API/vl53l0x_api.c **** 	if (Status == VL53L0X_ERROR_NONE)
 601:Drivers/VL53L0X/API/vl53l0x_api.c **** 		Status = VL53L0X_load_tuning_settings(Dev, pTuningSettingBuffer);
 602:Drivers/VL53L0X/API/vl53l0x_api.c **** 
 603:Drivers/VL53L0X/API/vl53l0x_api.c **** 
 604:Drivers/VL53L0X/API/vl53l0x_api.c **** 	/* Set interrupt config to new sample ready */
 605:Drivers/VL53L0X/API/vl53l0x_api.c **** 	if (Status == VL53L0X_ERROR_NONE) {
 606:Drivers/VL53L0X/API/vl53l0x_api.c **** 		Status = VL53L0X_SetGpioConfig(Dev, 0, 0,
 607:Drivers/VL53L0X/API/vl53l0x_api.c **** 		VL53L0X_REG_SYSTEM_INTERRUPT_GPIO_NEW_SAMPLE_READY,
 608:Drivers/VL53L0X/API/vl53l0x_api.c **** 		VL53L0X_INTERRUPTPOLARITY_LOW);
 609:Drivers/VL53L0X/API/vl53l0x_api.c **** 	}
 610:Drivers/VL53L0X/API/vl53l0x_api.c **** 
 611:Drivers/VL53L0X/API/vl53l0x_api.c **** 	if (Status == VL53L0X_ERROR_NONE) {
 612:Drivers/VL53L0X/API/vl53l0x_api.c **** 		Status = VL53L0X_WrByte(Dev, 0xFF, 0x01);
 613:Drivers/VL53L0X/API/vl53l0x_api.c **** 		Status |= VL53L0X_RdWord(Dev, 0x84, &tempword);
 614:Drivers/VL53L0X/API/vl53l0x_api.c **** 		Status |= VL53L0X_WrByte(Dev, 0xFF, 0x00);
 615:Drivers/VL53L0X/API/vl53l0x_api.c **** 	}
 616:Drivers/VL53L0X/API/vl53l0x_api.c **** 
 617:Drivers/VL53L0X/API/vl53l0x_api.c **** 	if (Status == VL53L0X_ERROR_NONE) {
 618:Drivers/VL53L0X/API/vl53l0x_api.c **** 		VL53L0X_SETDEVICESPECIFICPARAMETER(Dev, OscFrequencyMHz,
 619:Drivers/VL53L0X/API/vl53l0x_api.c **** 			VL53L0X_FIXPOINT412TOFIXPOINT1616(tempword));
 620:Drivers/VL53L0X/API/vl53l0x_api.c **** 	}
 621:Drivers/VL53L0X/API/vl53l0x_api.c **** 
 622:Drivers/VL53L0X/API/vl53l0x_api.c **** 	/* After static init, some device parameters may be changed,
 623:Drivers/VL53L0X/API/vl53l0x_api.c **** 	 * so update them */
 624:Drivers/VL53L0X/API/vl53l0x_api.c **** 	if (Status == VL53L0X_ERROR_NONE)
 625:Drivers/VL53L0X/API/vl53l0x_api.c **** 		Status = VL53L0X_GetDeviceParameters(Dev, &CurrentParameters);
 626:Drivers/VL53L0X/API/vl53l0x_api.c **** 
 627:Drivers/VL53L0X/API/vl53l0x_api.c **** 
 628:Drivers/VL53L0X/API/vl53l0x_api.c **** 	if (Status == VL53L0X_ERROR_NONE) {
 629:Drivers/VL53L0X/API/vl53l0x_api.c **** 		Status = VL53L0X_GetFractionEnable(Dev, &tempbyte);
 630:Drivers/VL53L0X/API/vl53l0x_api.c **** 		if (Status == VL53L0X_ERROR_NONE)
 631:Drivers/VL53L0X/API/vl53l0x_api.c **** 			PALDevDataSet(Dev, RangeFractionalEnable, tempbyte);
 632:Drivers/VL53L0X/API/vl53l0x_api.c **** 
 633:Drivers/VL53L0X/API/vl53l0x_api.c **** 	}
ARM GAS  /tmp/ccq7BpOX.s 			page 25


 634:Drivers/VL53L0X/API/vl53l0x_api.c **** 
 635:Drivers/VL53L0X/API/vl53l0x_api.c **** 	if (Status == VL53L0X_ERROR_NONE)
 636:Drivers/VL53L0X/API/vl53l0x_api.c **** 		PALDevDataSet(Dev, CurrentParameters, CurrentParameters);
 637:Drivers/VL53L0X/API/vl53l0x_api.c **** 
 638:Drivers/VL53L0X/API/vl53l0x_api.c **** 
 639:Drivers/VL53L0X/API/vl53l0x_api.c **** 	/* read the sequence config and save it */
 640:Drivers/VL53L0X/API/vl53l0x_api.c **** 	if (Status == VL53L0X_ERROR_NONE) {
 641:Drivers/VL53L0X/API/vl53l0x_api.c **** 		Status = VL53L0X_RdByte(Dev,
 642:Drivers/VL53L0X/API/vl53l0x_api.c **** 		VL53L0X_REG_SYSTEM_SEQUENCE_CONFIG, &tempbyte);
 643:Drivers/VL53L0X/API/vl53l0x_api.c **** 		if (Status == VL53L0X_ERROR_NONE)
 644:Drivers/VL53L0X/API/vl53l0x_api.c **** 			PALDevDataSet(Dev, SequenceConfig, tempbyte);
 645:Drivers/VL53L0X/API/vl53l0x_api.c **** 
 646:Drivers/VL53L0X/API/vl53l0x_api.c **** 	}
 647:Drivers/VL53L0X/API/vl53l0x_api.c **** 
 648:Drivers/VL53L0X/API/vl53l0x_api.c **** 	/* Disable MSRC and TCC by default */
 649:Drivers/VL53L0X/API/vl53l0x_api.c **** 	if (Status == VL53L0X_ERROR_NONE)
 650:Drivers/VL53L0X/API/vl53l0x_api.c **** 		Status = VL53L0X_SetSequenceStepEnable(Dev,
 651:Drivers/VL53L0X/API/vl53l0x_api.c **** 					VL53L0X_SEQUENCESTEP_TCC, 0);
 652:Drivers/VL53L0X/API/vl53l0x_api.c **** 
 653:Drivers/VL53L0X/API/vl53l0x_api.c **** 
 654:Drivers/VL53L0X/API/vl53l0x_api.c **** 	if (Status == VL53L0X_ERROR_NONE)
 655:Drivers/VL53L0X/API/vl53l0x_api.c **** 		Status = VL53L0X_SetSequenceStepEnable(Dev,
 656:Drivers/VL53L0X/API/vl53l0x_api.c **** 		VL53L0X_SEQUENCESTEP_MSRC, 0);
 657:Drivers/VL53L0X/API/vl53l0x_api.c **** 
 658:Drivers/VL53L0X/API/vl53l0x_api.c **** 
 659:Drivers/VL53L0X/API/vl53l0x_api.c **** 	/* Set PAL State to standby */
 660:Drivers/VL53L0X/API/vl53l0x_api.c **** 	if (Status == VL53L0X_ERROR_NONE)
 661:Drivers/VL53L0X/API/vl53l0x_api.c **** 		PALDevDataSet(Dev, PalState, VL53L0X_STATE_IDLE);
 662:Drivers/VL53L0X/API/vl53l0x_api.c **** 
 663:Drivers/VL53L0X/API/vl53l0x_api.c **** 
 664:Drivers/VL53L0X/API/vl53l0x_api.c **** 
 665:Drivers/VL53L0X/API/vl53l0x_api.c **** 	/* Store pre-range vcsel period */
 666:Drivers/VL53L0X/API/vl53l0x_api.c **** 	if (Status == VL53L0X_ERROR_NONE) {
 667:Drivers/VL53L0X/API/vl53l0x_api.c **** 		Status = VL53L0X_GetVcselPulsePeriod(
 668:Drivers/VL53L0X/API/vl53l0x_api.c **** 			Dev,
 669:Drivers/VL53L0X/API/vl53l0x_api.c **** 			VL53L0X_VCSEL_PERIOD_PRE_RANGE,
 670:Drivers/VL53L0X/API/vl53l0x_api.c **** 			&vcselPulsePeriodPCLK);
 671:Drivers/VL53L0X/API/vl53l0x_api.c **** 	}
 672:Drivers/VL53L0X/API/vl53l0x_api.c **** 
 673:Drivers/VL53L0X/API/vl53l0x_api.c **** 	if (Status == VL53L0X_ERROR_NONE) {
 674:Drivers/VL53L0X/API/vl53l0x_api.c **** 			VL53L0X_SETDEVICESPECIFICPARAMETER(
 675:Drivers/VL53L0X/API/vl53l0x_api.c **** 				Dev,
 676:Drivers/VL53L0X/API/vl53l0x_api.c **** 				PreRangeVcselPulsePeriod,
 677:Drivers/VL53L0X/API/vl53l0x_api.c **** 				vcselPulsePeriodPCLK);
 678:Drivers/VL53L0X/API/vl53l0x_api.c **** 	}
 679:Drivers/VL53L0X/API/vl53l0x_api.c **** 
 680:Drivers/VL53L0X/API/vl53l0x_api.c **** 	/* Store final-range vcsel period */
 681:Drivers/VL53L0X/API/vl53l0x_api.c **** 	if (Status == VL53L0X_ERROR_NONE) {
 682:Drivers/VL53L0X/API/vl53l0x_api.c **** 		Status = VL53L0X_GetVcselPulsePeriod(
 683:Drivers/VL53L0X/API/vl53l0x_api.c **** 			Dev,
 684:Drivers/VL53L0X/API/vl53l0x_api.c **** 			VL53L0X_VCSEL_PERIOD_FINAL_RANGE,
 685:Drivers/VL53L0X/API/vl53l0x_api.c **** 			&vcselPulsePeriodPCLK);
 686:Drivers/VL53L0X/API/vl53l0x_api.c **** 	}
 687:Drivers/VL53L0X/API/vl53l0x_api.c **** 
 688:Drivers/VL53L0X/API/vl53l0x_api.c **** 	if (Status == VL53L0X_ERROR_NONE) {
 689:Drivers/VL53L0X/API/vl53l0x_api.c **** 			VL53L0X_SETDEVICESPECIFICPARAMETER(
 690:Drivers/VL53L0X/API/vl53l0x_api.c **** 				Dev,
ARM GAS  /tmp/ccq7BpOX.s 			page 26


 691:Drivers/VL53L0X/API/vl53l0x_api.c **** 				FinalRangeVcselPulsePeriod,
 692:Drivers/VL53L0X/API/vl53l0x_api.c **** 				vcselPulsePeriodPCLK);
 693:Drivers/VL53L0X/API/vl53l0x_api.c **** 	}
 694:Drivers/VL53L0X/API/vl53l0x_api.c **** 
 695:Drivers/VL53L0X/API/vl53l0x_api.c **** 	/* Store pre-range timeout */
 696:Drivers/VL53L0X/API/vl53l0x_api.c **** 	if (Status == VL53L0X_ERROR_NONE) {
 697:Drivers/VL53L0X/API/vl53l0x_api.c **** 		Status = get_sequence_step_timeout(
 698:Drivers/VL53L0X/API/vl53l0x_api.c **** 			Dev,
 699:Drivers/VL53L0X/API/vl53l0x_api.c **** 			VL53L0X_SEQUENCESTEP_PRE_RANGE,
 700:Drivers/VL53L0X/API/vl53l0x_api.c **** 			&seqTimeoutMicroSecs);
 701:Drivers/VL53L0X/API/vl53l0x_api.c **** 	}
 702:Drivers/VL53L0X/API/vl53l0x_api.c **** 
 703:Drivers/VL53L0X/API/vl53l0x_api.c **** 	if (Status == VL53L0X_ERROR_NONE) {
 704:Drivers/VL53L0X/API/vl53l0x_api.c **** 		VL53L0X_SETDEVICESPECIFICPARAMETER(
 705:Drivers/VL53L0X/API/vl53l0x_api.c **** 			Dev,
 706:Drivers/VL53L0X/API/vl53l0x_api.c **** 			PreRangeTimeoutMicroSecs,
 707:Drivers/VL53L0X/API/vl53l0x_api.c **** 			seqTimeoutMicroSecs);
 708:Drivers/VL53L0X/API/vl53l0x_api.c **** 	}
 709:Drivers/VL53L0X/API/vl53l0x_api.c **** 
 710:Drivers/VL53L0X/API/vl53l0x_api.c **** 	/* Store final-range timeout */
 711:Drivers/VL53L0X/API/vl53l0x_api.c **** 	if (Status == VL53L0X_ERROR_NONE) {
 712:Drivers/VL53L0X/API/vl53l0x_api.c **** 		Status = get_sequence_step_timeout(
 713:Drivers/VL53L0X/API/vl53l0x_api.c **** 			Dev,
 714:Drivers/VL53L0X/API/vl53l0x_api.c **** 			VL53L0X_SEQUENCESTEP_FINAL_RANGE,
 715:Drivers/VL53L0X/API/vl53l0x_api.c **** 			&seqTimeoutMicroSecs);
 716:Drivers/VL53L0X/API/vl53l0x_api.c **** 	}
 717:Drivers/VL53L0X/API/vl53l0x_api.c **** 
 718:Drivers/VL53L0X/API/vl53l0x_api.c **** 	if (Status == VL53L0X_ERROR_NONE) {
 719:Drivers/VL53L0X/API/vl53l0x_api.c **** 		VL53L0X_SETDEVICESPECIFICPARAMETER(
 720:Drivers/VL53L0X/API/vl53l0x_api.c **** 			Dev,
 721:Drivers/VL53L0X/API/vl53l0x_api.c **** 			FinalRangeTimeoutMicroSecs,
 722:Drivers/VL53L0X/API/vl53l0x_api.c **** 			seqTimeoutMicroSecs);
 723:Drivers/VL53L0X/API/vl53l0x_api.c **** 	}
 724:Drivers/VL53L0X/API/vl53l0x_api.c **** 
 725:Drivers/VL53L0X/API/vl53l0x_api.c **** 	LOG_FUNCTION_END(Status);
 726:Drivers/VL53L0X/API/vl53l0x_api.c **** 	return Status;
 727:Drivers/VL53L0X/API/vl53l0x_api.c **** }
 728:Drivers/VL53L0X/API/vl53l0x_api.c **** 
 729:Drivers/VL53L0X/API/vl53l0x_api.c **** VL53L0X_Error VL53L0X_WaitDeviceBooted(VL53L0X_DEV Dev)
 730:Drivers/VL53L0X/API/vl53l0x_api.c **** {
 773              		.loc 1 730 0
 774              		.cfi_startproc
 775              		@ args = 0, pretend = 0, frame = 0
 776              		@ frame_needed = 0, uses_anonymous_args = 0
 777              		@ link register save eliminated.
 778              	.LVL73:
 731:Drivers/VL53L0X/API/vl53l0x_api.c **** 	VL53L0X_Error Status = VL53L0X_ERROR_NOT_IMPLEMENTED;
 732:Drivers/VL53L0X/API/vl53l0x_api.c **** 	LOG_FUNCTION_START("");
 733:Drivers/VL53L0X/API/vl53l0x_api.c **** 
 734:Drivers/VL53L0X/API/vl53l0x_api.c **** 	/* not implemented on VL53L0X */
 735:Drivers/VL53L0X/API/vl53l0x_api.c **** 
 736:Drivers/VL53L0X/API/vl53l0x_api.c **** 	LOG_FUNCTION_END(Status);
 737:Drivers/VL53L0X/API/vl53l0x_api.c **** 	return Status;
 738:Drivers/VL53L0X/API/vl53l0x_api.c **** }
 779              		.loc 1 738 0
 780 0000 6FF06200 		mvn	r0, #98
 781              	.LVL74:
ARM GAS  /tmp/ccq7BpOX.s 			page 27


 782 0004 7047     		bx	lr
 783              		.cfi_endproc
 784              	.LFE150:
 786              		.section	.text.VL53L0X_ResetDevice,"ax",%progbits
 787              		.align	1
 788              		.global	VL53L0X_ResetDevice
 789              		.syntax unified
 790              		.thumb
 791              		.thumb_func
 792              		.fpu fpv4-sp-d16
 794              	VL53L0X_ResetDevice:
 795              	.LFB151:
 739:Drivers/VL53L0X/API/vl53l0x_api.c **** 
 740:Drivers/VL53L0X/API/vl53l0x_api.c **** VL53L0X_Error VL53L0X_ResetDevice(VL53L0X_DEV Dev)
 741:Drivers/VL53L0X/API/vl53l0x_api.c **** {
 796              		.loc 1 741 0
 797              		.cfi_startproc
 798              		@ args = 0, pretend = 0, frame = 8
 799              		@ frame_needed = 0, uses_anonymous_args = 0
 800              	.LVL75:
 801 0000 30B5     		push	{r4, r5, lr}
 802              	.LCFI22:
 803              		.cfi_def_cfa_offset 12
 804              		.cfi_offset 4, -12
 805              		.cfi_offset 5, -8
 806              		.cfi_offset 14, -4
 807 0002 83B0     		sub	sp, sp, #12
 808              	.LCFI23:
 809              		.cfi_def_cfa_offset 24
 810 0004 0446     		mov	r4, r0
 811              	.LVL76:
 742:Drivers/VL53L0X/API/vl53l0x_api.c **** 	VL53L0X_Error Status = VL53L0X_ERROR_NONE;
 743:Drivers/VL53L0X/API/vl53l0x_api.c **** 	uint8_t Byte;
 744:Drivers/VL53L0X/API/vl53l0x_api.c **** 	LOG_FUNCTION_START("");
 745:Drivers/VL53L0X/API/vl53l0x_api.c **** 
 746:Drivers/VL53L0X/API/vl53l0x_api.c **** 	/* Set reset bit */
 747:Drivers/VL53L0X/API/vl53l0x_api.c **** 	Status = VL53L0X_WrByte(Dev, VL53L0X_REG_SOFT_RESET_GO2_SOFT_RESET_N,
 812              		.loc 1 747 0
 813 0006 0022     		movs	r2, #0
 814 0008 BF21     		movs	r1, #191
 815 000a FFF7FEFF 		bl	VL53L0X_WrByte
 816              	.LVL77:
 748:Drivers/VL53L0X/API/vl53l0x_api.c **** 		0x00);
 749:Drivers/VL53L0X/API/vl53l0x_api.c **** 
 750:Drivers/VL53L0X/API/vl53l0x_api.c **** 	/* Wait for some time */
 751:Drivers/VL53L0X/API/vl53l0x_api.c **** 	if (Status == VL53L0X_ERROR_NONE) {
 817              		.loc 1 751 0
 818 000e 48B9     		cbnz	r0, .L47
 819              	.LVL78:
 820              	.L48:
 752:Drivers/VL53L0X/API/vl53l0x_api.c **** 		do {
 753:Drivers/VL53L0X/API/vl53l0x_api.c **** 			Status = VL53L0X_RdByte(Dev,
 821              		.loc 1 753 0 discriminator 1
 822 0010 0DF10702 		add	r2, sp, #7
 823 0014 C021     		movs	r1, #192
 824 0016 2046     		mov	r0, r4
 825 0018 FFF7FEFF 		bl	VL53L0X_RdByte
ARM GAS  /tmp/ccq7BpOX.s 			page 28


 826              	.LVL79:
 754:Drivers/VL53L0X/API/vl53l0x_api.c **** 			VL53L0X_REG_IDENTIFICATION_MODEL_ID, &Byte);
 755:Drivers/VL53L0X/API/vl53l0x_api.c **** 		} while (Byte != 0x00);
 827              		.loc 1 755 0 discriminator 1
 828 001c 9DF80730 		ldrb	r3, [sp, #7]	@ zero_extendqisi2
 829 0020 002B     		cmp	r3, #0
 830 0022 F5D1     		bne	.L48
 831              	.L47:
 756:Drivers/VL53L0X/API/vl53l0x_api.c **** 	}
 757:Drivers/VL53L0X/API/vl53l0x_api.c **** 
 758:Drivers/VL53L0X/API/vl53l0x_api.c **** 	VL53L0X_PollingDelay(Dev);
 832              		.loc 1 758 0
 833 0024 2046     		mov	r0, r4
 834 0026 FFF7FEFF 		bl	VL53L0X_PollingDelay
 835              	.LVL80:
 759:Drivers/VL53L0X/API/vl53l0x_api.c **** 
 760:Drivers/VL53L0X/API/vl53l0x_api.c **** 	/* Release reset */
 761:Drivers/VL53L0X/API/vl53l0x_api.c **** 	Status = VL53L0X_WrByte(Dev, VL53L0X_REG_SOFT_RESET_GO2_SOFT_RESET_N,
 836              		.loc 1 761 0
 837 002a 0122     		movs	r2, #1
 838 002c BF21     		movs	r1, #191
 839 002e 2046     		mov	r0, r4
 840 0030 FFF7FEFF 		bl	VL53L0X_WrByte
 841              	.LVL81:
 762:Drivers/VL53L0X/API/vl53l0x_api.c **** 		0x01);
 763:Drivers/VL53L0X/API/vl53l0x_api.c **** 
 764:Drivers/VL53L0X/API/vl53l0x_api.c **** 	/* Wait until correct boot-up of the device */
 765:Drivers/VL53L0X/API/vl53l0x_api.c **** 	if (Status == VL53L0X_ERROR_NONE) {
 842              		.loc 1 765 0
 843 0034 0546     		mov	r5, r0
 844 0036 50B9     		cbnz	r0, .L49
 845              	.LVL82:
 846              	.L50:
 766:Drivers/VL53L0X/API/vl53l0x_api.c **** 		do {
 767:Drivers/VL53L0X/API/vl53l0x_api.c **** 			Status = VL53L0X_RdByte(Dev,
 847              		.loc 1 767 0 discriminator 1
 848 0038 0DF10702 		add	r2, sp, #7
 849 003c C021     		movs	r1, #192
 850 003e 2046     		mov	r0, r4
 851 0040 FFF7FEFF 		bl	VL53L0X_RdByte
 852              	.LVL83:
 853 0044 0546     		mov	r5, r0
 854              	.LVL84:
 768:Drivers/VL53L0X/API/vl53l0x_api.c **** 			VL53L0X_REG_IDENTIFICATION_MODEL_ID, &Byte);
 769:Drivers/VL53L0X/API/vl53l0x_api.c **** 		} while (Byte == 0x00);
 855              		.loc 1 769 0 discriminator 1
 856 0046 9DF80730 		ldrb	r3, [sp, #7]	@ zero_extendqisi2
 857 004a 002B     		cmp	r3, #0
 858 004c F4D0     		beq	.L50
 859              	.LVL85:
 860              	.L49:
 770:Drivers/VL53L0X/API/vl53l0x_api.c **** 	}
 771:Drivers/VL53L0X/API/vl53l0x_api.c **** 
 772:Drivers/VL53L0X/API/vl53l0x_api.c **** 	VL53L0X_PollingDelay(Dev);
 861              		.loc 1 772 0
 862 004e 2046     		mov	r0, r4
 863 0050 FFF7FEFF 		bl	VL53L0X_PollingDelay
ARM GAS  /tmp/ccq7BpOX.s 			page 29


 864              	.LVL86:
 773:Drivers/VL53L0X/API/vl53l0x_api.c **** 
 774:Drivers/VL53L0X/API/vl53l0x_api.c **** 	/* Set PAL State to VL53L0X_STATE_POWERDOWN */
 775:Drivers/VL53L0X/API/vl53l0x_api.c **** 	if (Status == VL53L0X_ERROR_NONE)
 865              		.loc 1 775 0
 866 0054 15B9     		cbnz	r5, .L51
 776:Drivers/VL53L0X/API/vl53l0x_api.c **** 		PALDevDataSet(Dev, PalState, VL53L0X_STATE_POWERDOWN);
 867              		.loc 1 776 0
 868 0056 0023     		movs	r3, #0
 869 0058 84F83231 		strb	r3, [r4, #306]
 870              	.L51:
 777:Drivers/VL53L0X/API/vl53l0x_api.c **** 
 778:Drivers/VL53L0X/API/vl53l0x_api.c **** 
 779:Drivers/VL53L0X/API/vl53l0x_api.c **** 	LOG_FUNCTION_END(Status);
 780:Drivers/VL53L0X/API/vl53l0x_api.c **** 	return Status;
 781:Drivers/VL53L0X/API/vl53l0x_api.c **** }
 871              		.loc 1 781 0
 872 005c 2846     		mov	r0, r5
 873 005e 03B0     		add	sp, sp, #12
 874              	.LCFI24:
 875              		.cfi_def_cfa_offset 12
 876              		@ sp needed
 877 0060 30BD     		pop	{r4, r5, pc}
 878              		.cfi_endproc
 879              	.LFE151:
 881              		.section	.text.VL53L0X_SetDeviceMode,"ax",%progbits
 882              		.align	1
 883              		.global	VL53L0X_SetDeviceMode
 884              		.syntax unified
 885              		.thumb
 886              		.thumb_func
 887              		.fpu fpv4-sp-d16
 889              	VL53L0X_SetDeviceMode:
 890              	.LFB154:
 782:Drivers/VL53L0X/API/vl53l0x_api.c **** /* End Group PAL Init Functions */
 783:Drivers/VL53L0X/API/vl53l0x_api.c **** 
 784:Drivers/VL53L0X/API/vl53l0x_api.c **** /* Group PAL Parameters Functions */
 785:Drivers/VL53L0X/API/vl53l0x_api.c **** VL53L0X_Error VL53L0X_SetDeviceParameters(VL53L0X_DEV Dev,
 786:Drivers/VL53L0X/API/vl53l0x_api.c **** 	const VL53L0X_DeviceParameters_t *pDeviceParameters)
 787:Drivers/VL53L0X/API/vl53l0x_api.c **** {
 788:Drivers/VL53L0X/API/vl53l0x_api.c **** 	VL53L0X_Error Status = VL53L0X_ERROR_NONE;
 789:Drivers/VL53L0X/API/vl53l0x_api.c **** 	int i;
 790:Drivers/VL53L0X/API/vl53l0x_api.c **** 	LOG_FUNCTION_START("");
 791:Drivers/VL53L0X/API/vl53l0x_api.c **** 	Status = VL53L0X_SetDeviceMode(Dev, pDeviceParameters->DeviceMode);
 792:Drivers/VL53L0X/API/vl53l0x_api.c **** 
 793:Drivers/VL53L0X/API/vl53l0x_api.c **** 	if (Status == VL53L0X_ERROR_NONE)
 794:Drivers/VL53L0X/API/vl53l0x_api.c **** 		Status = VL53L0X_SetInterMeasurementPeriodMilliSeconds(Dev,
 795:Drivers/VL53L0X/API/vl53l0x_api.c **** 			pDeviceParameters->InterMeasurementPeriodMilliSeconds);
 796:Drivers/VL53L0X/API/vl53l0x_api.c **** 
 797:Drivers/VL53L0X/API/vl53l0x_api.c **** 
 798:Drivers/VL53L0X/API/vl53l0x_api.c **** 	if (Status == VL53L0X_ERROR_NONE)
 799:Drivers/VL53L0X/API/vl53l0x_api.c **** 		Status = VL53L0X_SetXTalkCompensationRateMegaCps(Dev,
 800:Drivers/VL53L0X/API/vl53l0x_api.c **** 			pDeviceParameters->XTalkCompensationRateMegaCps);
 801:Drivers/VL53L0X/API/vl53l0x_api.c **** 
 802:Drivers/VL53L0X/API/vl53l0x_api.c **** 
 803:Drivers/VL53L0X/API/vl53l0x_api.c **** 	if (Status == VL53L0X_ERROR_NONE)
 804:Drivers/VL53L0X/API/vl53l0x_api.c **** 		Status = VL53L0X_SetOffsetCalibrationDataMicroMeter(Dev,
ARM GAS  /tmp/ccq7BpOX.s 			page 30


 805:Drivers/VL53L0X/API/vl53l0x_api.c **** 			pDeviceParameters->RangeOffsetMicroMeters);
 806:Drivers/VL53L0X/API/vl53l0x_api.c **** 
 807:Drivers/VL53L0X/API/vl53l0x_api.c **** 
 808:Drivers/VL53L0X/API/vl53l0x_api.c **** 	for (i = 0; i < VL53L0X_CHECKENABLE_NUMBER_OF_CHECKS; i++) {
 809:Drivers/VL53L0X/API/vl53l0x_api.c **** 		if (Status == VL53L0X_ERROR_NONE)
 810:Drivers/VL53L0X/API/vl53l0x_api.c **** 			Status |= VL53L0X_SetLimitCheckEnable(Dev, i,
 811:Drivers/VL53L0X/API/vl53l0x_api.c **** 				pDeviceParameters->LimitChecksEnable[i]);
 812:Drivers/VL53L0X/API/vl53l0x_api.c **** 		else
 813:Drivers/VL53L0X/API/vl53l0x_api.c **** 			break;
 814:Drivers/VL53L0X/API/vl53l0x_api.c **** 
 815:Drivers/VL53L0X/API/vl53l0x_api.c **** 		if (Status == VL53L0X_ERROR_NONE)
 816:Drivers/VL53L0X/API/vl53l0x_api.c **** 			Status |= VL53L0X_SetLimitCheckValue(Dev, i,
 817:Drivers/VL53L0X/API/vl53l0x_api.c **** 				pDeviceParameters->LimitChecksValue[i]);
 818:Drivers/VL53L0X/API/vl53l0x_api.c **** 		else
 819:Drivers/VL53L0X/API/vl53l0x_api.c **** 			break;
 820:Drivers/VL53L0X/API/vl53l0x_api.c **** 
 821:Drivers/VL53L0X/API/vl53l0x_api.c **** 	}
 822:Drivers/VL53L0X/API/vl53l0x_api.c **** 
 823:Drivers/VL53L0X/API/vl53l0x_api.c **** 	if (Status == VL53L0X_ERROR_NONE)
 824:Drivers/VL53L0X/API/vl53l0x_api.c **** 		Status = VL53L0X_SetWrapAroundCheckEnable(Dev,
 825:Drivers/VL53L0X/API/vl53l0x_api.c **** 			pDeviceParameters->WrapAroundCheckEnable);
 826:Drivers/VL53L0X/API/vl53l0x_api.c **** 
 827:Drivers/VL53L0X/API/vl53l0x_api.c **** 	if (Status == VL53L0X_ERROR_NONE)
 828:Drivers/VL53L0X/API/vl53l0x_api.c **** 		Status = VL53L0X_SetMeasurementTimingBudgetMicroSeconds(Dev,
 829:Drivers/VL53L0X/API/vl53l0x_api.c **** 			pDeviceParameters->MeasurementTimingBudgetMicroSeconds);
 830:Drivers/VL53L0X/API/vl53l0x_api.c **** 
 831:Drivers/VL53L0X/API/vl53l0x_api.c **** 
 832:Drivers/VL53L0X/API/vl53l0x_api.c **** 	LOG_FUNCTION_END(Status);
 833:Drivers/VL53L0X/API/vl53l0x_api.c **** 	return Status;
 834:Drivers/VL53L0X/API/vl53l0x_api.c **** }
 835:Drivers/VL53L0X/API/vl53l0x_api.c **** 
 836:Drivers/VL53L0X/API/vl53l0x_api.c **** VL53L0X_Error VL53L0X_GetDeviceParameters(VL53L0X_DEV Dev,
 837:Drivers/VL53L0X/API/vl53l0x_api.c **** 	VL53L0X_DeviceParameters_t *pDeviceParameters)
 838:Drivers/VL53L0X/API/vl53l0x_api.c **** {
 839:Drivers/VL53L0X/API/vl53l0x_api.c **** 	VL53L0X_Error Status = VL53L0X_ERROR_NONE;
 840:Drivers/VL53L0X/API/vl53l0x_api.c **** 	int i;
 841:Drivers/VL53L0X/API/vl53l0x_api.c **** 
 842:Drivers/VL53L0X/API/vl53l0x_api.c **** 	LOG_FUNCTION_START("");
 843:Drivers/VL53L0X/API/vl53l0x_api.c **** 
 844:Drivers/VL53L0X/API/vl53l0x_api.c **** 	Status = VL53L0X_GetDeviceMode(Dev, &(pDeviceParameters->DeviceMode));
 845:Drivers/VL53L0X/API/vl53l0x_api.c **** 
 846:Drivers/VL53L0X/API/vl53l0x_api.c **** 	if (Status == VL53L0X_ERROR_NONE)
 847:Drivers/VL53L0X/API/vl53l0x_api.c **** 		Status = VL53L0X_GetInterMeasurementPeriodMilliSeconds(Dev,
 848:Drivers/VL53L0X/API/vl53l0x_api.c **** 		&(pDeviceParameters->InterMeasurementPeriodMilliSeconds));
 849:Drivers/VL53L0X/API/vl53l0x_api.c **** 
 850:Drivers/VL53L0X/API/vl53l0x_api.c **** 
 851:Drivers/VL53L0X/API/vl53l0x_api.c **** 	if (Status == VL53L0X_ERROR_NONE)
 852:Drivers/VL53L0X/API/vl53l0x_api.c **** 		pDeviceParameters->XTalkCompensationEnable = 0;
 853:Drivers/VL53L0X/API/vl53l0x_api.c **** 
 854:Drivers/VL53L0X/API/vl53l0x_api.c **** 	if (Status == VL53L0X_ERROR_NONE)
 855:Drivers/VL53L0X/API/vl53l0x_api.c **** 		Status = VL53L0X_GetXTalkCompensationRateMegaCps(Dev,
 856:Drivers/VL53L0X/API/vl53l0x_api.c **** 			&(pDeviceParameters->XTalkCompensationRateMegaCps));
 857:Drivers/VL53L0X/API/vl53l0x_api.c **** 
 858:Drivers/VL53L0X/API/vl53l0x_api.c **** 
 859:Drivers/VL53L0X/API/vl53l0x_api.c **** 	if (Status == VL53L0X_ERROR_NONE)
 860:Drivers/VL53L0X/API/vl53l0x_api.c **** 		Status = VL53L0X_GetOffsetCalibrationDataMicroMeter(Dev,
 861:Drivers/VL53L0X/API/vl53l0x_api.c **** 			&(pDeviceParameters->RangeOffsetMicroMeters));
ARM GAS  /tmp/ccq7BpOX.s 			page 31


 862:Drivers/VL53L0X/API/vl53l0x_api.c **** 
 863:Drivers/VL53L0X/API/vl53l0x_api.c **** 
 864:Drivers/VL53L0X/API/vl53l0x_api.c **** 	if (Status == VL53L0X_ERROR_NONE) {
 865:Drivers/VL53L0X/API/vl53l0x_api.c **** 		for (i = 0; i < VL53L0X_CHECKENABLE_NUMBER_OF_CHECKS; i++) {
 866:Drivers/VL53L0X/API/vl53l0x_api.c **** 			/* get first the values, then the enables.
 867:Drivers/VL53L0X/API/vl53l0x_api.c **** 			 * VL53L0X_GetLimitCheckValue will modify the enable
 868:Drivers/VL53L0X/API/vl53l0x_api.c **** 			 * flags
 869:Drivers/VL53L0X/API/vl53l0x_api.c **** 			 */
 870:Drivers/VL53L0X/API/vl53l0x_api.c **** 			if (Status == VL53L0X_ERROR_NONE) {
 871:Drivers/VL53L0X/API/vl53l0x_api.c **** 				Status |= VL53L0X_GetLimitCheckValue(Dev, i,
 872:Drivers/VL53L0X/API/vl53l0x_api.c **** 				&(pDeviceParameters->LimitChecksValue[i]));
 873:Drivers/VL53L0X/API/vl53l0x_api.c **** 			} else {
 874:Drivers/VL53L0X/API/vl53l0x_api.c **** 				break;
 875:Drivers/VL53L0X/API/vl53l0x_api.c **** 			}
 876:Drivers/VL53L0X/API/vl53l0x_api.c **** 			if (Status == VL53L0X_ERROR_NONE) {
 877:Drivers/VL53L0X/API/vl53l0x_api.c **** 				Status |= VL53L0X_GetLimitCheckEnable(Dev, i,
 878:Drivers/VL53L0X/API/vl53l0x_api.c **** 				&(pDeviceParameters->LimitChecksEnable[i]));
 879:Drivers/VL53L0X/API/vl53l0x_api.c **** 			} else {
 880:Drivers/VL53L0X/API/vl53l0x_api.c **** 				break;
 881:Drivers/VL53L0X/API/vl53l0x_api.c **** 			}
 882:Drivers/VL53L0X/API/vl53l0x_api.c **** 		}
 883:Drivers/VL53L0X/API/vl53l0x_api.c **** 	}
 884:Drivers/VL53L0X/API/vl53l0x_api.c **** 
 885:Drivers/VL53L0X/API/vl53l0x_api.c **** 	if (Status == VL53L0X_ERROR_NONE) {
 886:Drivers/VL53L0X/API/vl53l0x_api.c **** 		Status = VL53L0X_GetWrapAroundCheckEnable(Dev,
 887:Drivers/VL53L0X/API/vl53l0x_api.c **** 			&(pDeviceParameters->WrapAroundCheckEnable));
 888:Drivers/VL53L0X/API/vl53l0x_api.c **** 	}
 889:Drivers/VL53L0X/API/vl53l0x_api.c **** 
 890:Drivers/VL53L0X/API/vl53l0x_api.c **** 	/* Need to be done at the end as it uses VCSELPulsePeriod */
 891:Drivers/VL53L0X/API/vl53l0x_api.c **** 	if (Status == VL53L0X_ERROR_NONE) {
 892:Drivers/VL53L0X/API/vl53l0x_api.c **** 		Status = VL53L0X_GetMeasurementTimingBudgetMicroSeconds(Dev,
 893:Drivers/VL53L0X/API/vl53l0x_api.c **** 		&(pDeviceParameters->MeasurementTimingBudgetMicroSeconds));
 894:Drivers/VL53L0X/API/vl53l0x_api.c **** 	}
 895:Drivers/VL53L0X/API/vl53l0x_api.c **** 
 896:Drivers/VL53L0X/API/vl53l0x_api.c **** 	LOG_FUNCTION_END(Status);
 897:Drivers/VL53L0X/API/vl53l0x_api.c **** 	return Status;
 898:Drivers/VL53L0X/API/vl53l0x_api.c **** }
 899:Drivers/VL53L0X/API/vl53l0x_api.c **** 
 900:Drivers/VL53L0X/API/vl53l0x_api.c **** VL53L0X_Error VL53L0X_SetDeviceMode(VL53L0X_DEV Dev, VL53L0X_DeviceModes DeviceMode)
 901:Drivers/VL53L0X/API/vl53l0x_api.c **** {
 891              		.loc 1 901 0
 892              		.cfi_startproc
 893              		@ args = 0, pretend = 0, frame = 0
 894              		@ frame_needed = 0, uses_anonymous_args = 0
 895              		@ link register save eliminated.
 896              	.LVL87:
 902:Drivers/VL53L0X/API/vl53l0x_api.c **** 	VL53L0X_Error Status = VL53L0X_ERROR_NONE;
 903:Drivers/VL53L0X/API/vl53l0x_api.c **** 
 904:Drivers/VL53L0X/API/vl53l0x_api.c **** 	LOG_FUNCTION_START("%d", (int)DeviceMode);
 905:Drivers/VL53L0X/API/vl53l0x_api.c **** 
 906:Drivers/VL53L0X/API/vl53l0x_api.c **** 	switch (DeviceMode) {
 897              		.loc 1 906 0
 898 0000 1529     		cmp	r1, #21
 899 0002 0FD8     		bhi	.L57
 900 0004 DFE801F0 		tbb	[pc, r1]
 901              	.L56:
 902 0008 0B       		.byte	(.L55-.L56)/2
ARM GAS  /tmp/ccq7BpOX.s 			page 32


 903 0009 0B       		.byte	(.L55-.L56)/2
 904 000a 0E       		.byte	(.L57-.L56)/2
 905 000b 0B       		.byte	(.L55-.L56)/2
 906 000c 0E       		.byte	(.L57-.L56)/2
 907 000d 0E       		.byte	(.L57-.L56)/2
 908 000e 0E       		.byte	(.L57-.L56)/2
 909 000f 0E       		.byte	(.L57-.L56)/2
 910 0010 0E       		.byte	(.L57-.L56)/2
 911 0011 0E       		.byte	(.L57-.L56)/2
 912 0012 0E       		.byte	(.L57-.L56)/2
 913 0013 0E       		.byte	(.L57-.L56)/2
 914 0014 0E       		.byte	(.L57-.L56)/2
 915 0015 0E       		.byte	(.L57-.L56)/2
 916 0016 0E       		.byte	(.L57-.L56)/2
 917 0017 0E       		.byte	(.L57-.L56)/2
 918 0018 0E       		.byte	(.L57-.L56)/2
 919 0019 0E       		.byte	(.L57-.L56)/2
 920 001a 0E       		.byte	(.L57-.L56)/2
 921 001b 0E       		.byte	(.L57-.L56)/2
 922 001c 0B       		.byte	(.L55-.L56)/2
 923 001d 0B       		.byte	(.L55-.L56)/2
 924              		.p2align 1
 925              	.L55:
 907:Drivers/VL53L0X/API/vl53l0x_api.c **** 	case VL53L0X_DEVICEMODE_SINGLE_RANGING:
 908:Drivers/VL53L0X/API/vl53l0x_api.c **** 	case VL53L0X_DEVICEMODE_CONTINUOUS_RANGING:
 909:Drivers/VL53L0X/API/vl53l0x_api.c **** 	case VL53L0X_DEVICEMODE_CONTINUOUS_TIMED_RANGING:
 910:Drivers/VL53L0X/API/vl53l0x_api.c **** 	case VL53L0X_DEVICEMODE_GPIO_DRIVE:
 911:Drivers/VL53L0X/API/vl53l0x_api.c **** 	case VL53L0X_DEVICEMODE_GPIO_OSC:
 912:Drivers/VL53L0X/API/vl53l0x_api.c **** 		/* Supported modes */
 913:Drivers/VL53L0X/API/vl53l0x_api.c **** 		VL53L0X_SETPARAMETERFIELD(Dev, DeviceMode, DeviceMode);
 926              		.loc 1 913 0
 927 001e 0174     		strb	r1, [r0, #16]
 902:Drivers/VL53L0X/API/vl53l0x_api.c **** 	VL53L0X_Error Status = VL53L0X_ERROR_NONE;
 928              		.loc 1 902 0
 929 0020 0020     		movs	r0, #0
 930              	.LVL88:
 914:Drivers/VL53L0X/API/vl53l0x_api.c **** 		break;
 931              		.loc 1 914 0
 932 0022 7047     		bx	lr
 933              	.LVL89:
 934              	.L57:
 915:Drivers/VL53L0X/API/vl53l0x_api.c **** 	default:
 916:Drivers/VL53L0X/API/vl53l0x_api.c **** 		/* Unsupported mode */
 917:Drivers/VL53L0X/API/vl53l0x_api.c **** 		Status = VL53L0X_ERROR_MODE_NOT_SUPPORTED;
 935              		.loc 1 917 0
 936 0024 6FF00700 		mvn	r0, #7
 937              	.LVL90:
 918:Drivers/VL53L0X/API/vl53l0x_api.c **** 	}
 919:Drivers/VL53L0X/API/vl53l0x_api.c **** 
 920:Drivers/VL53L0X/API/vl53l0x_api.c **** 	LOG_FUNCTION_END(Status);
 921:Drivers/VL53L0X/API/vl53l0x_api.c **** 	return Status;
 922:Drivers/VL53L0X/API/vl53l0x_api.c **** }
 938              		.loc 1 922 0
 939 0028 7047     		bx	lr
 940              		.cfi_endproc
 941              	.LFE154:
 943              		.section	.text.VL53L0X_GetDeviceMode,"ax",%progbits
ARM GAS  /tmp/ccq7BpOX.s 			page 33


 944              		.align	1
 945              		.global	VL53L0X_GetDeviceMode
 946              		.syntax unified
 947              		.thumb
 948              		.thumb_func
 949              		.fpu fpv4-sp-d16
 951              	VL53L0X_GetDeviceMode:
 952              	.LFB155:
 923:Drivers/VL53L0X/API/vl53l0x_api.c **** 
 924:Drivers/VL53L0X/API/vl53l0x_api.c **** VL53L0X_Error VL53L0X_GetDeviceMode(VL53L0X_DEV Dev,
 925:Drivers/VL53L0X/API/vl53l0x_api.c **** 	VL53L0X_DeviceModes *pDeviceMode)
 926:Drivers/VL53L0X/API/vl53l0x_api.c **** {
 953              		.loc 1 926 0
 954              		.cfi_startproc
 955              		@ args = 0, pretend = 0, frame = 0
 956              		@ frame_needed = 0, uses_anonymous_args = 0
 957              		@ link register save eliminated.
 958              	.LVL91:
 927:Drivers/VL53L0X/API/vl53l0x_api.c **** 	VL53L0X_Error Status = VL53L0X_ERROR_NONE;
 928:Drivers/VL53L0X/API/vl53l0x_api.c **** 	LOG_FUNCTION_START("");
 929:Drivers/VL53L0X/API/vl53l0x_api.c **** 
 930:Drivers/VL53L0X/API/vl53l0x_api.c **** 	VL53L0X_GETPARAMETERFIELD(Dev, DeviceMode, *pDeviceMode);
 959              		.loc 1 930 0
 960 0000 037C     		ldrb	r3, [r0, #16]	@ zero_extendqisi2
 961 0002 0B70     		strb	r3, [r1]
 931:Drivers/VL53L0X/API/vl53l0x_api.c **** 
 932:Drivers/VL53L0X/API/vl53l0x_api.c **** 	LOG_FUNCTION_END(Status);
 933:Drivers/VL53L0X/API/vl53l0x_api.c **** 	return Status;
 934:Drivers/VL53L0X/API/vl53l0x_api.c **** }
 962              		.loc 1 934 0
 963 0004 0020     		movs	r0, #0
 964              	.LVL92:
 965 0006 7047     		bx	lr
 966              		.cfi_endproc
 967              	.LFE155:
 969              		.section	.text.VL53L0X_SetRangeFractionEnable,"ax",%progbits
 970              		.align	1
 971              		.global	VL53L0X_SetRangeFractionEnable
 972              		.syntax unified
 973              		.thumb
 974              		.thumb_func
 975              		.fpu fpv4-sp-d16
 977              	VL53L0X_SetRangeFractionEnable:
 978              	.LFB156:
 935:Drivers/VL53L0X/API/vl53l0x_api.c **** 
 936:Drivers/VL53L0X/API/vl53l0x_api.c **** VL53L0X_Error VL53L0X_SetRangeFractionEnable(VL53L0X_DEV Dev,	uint8_t Enable)
 937:Drivers/VL53L0X/API/vl53l0x_api.c **** {
 979              		.loc 1 937 0
 980              		.cfi_startproc
 981              		@ args = 0, pretend = 0, frame = 0
 982              		@ frame_needed = 0, uses_anonymous_args = 0
 983              	.LVL93:
 984 0000 38B5     		push	{r3, r4, r5, lr}
 985              	.LCFI25:
 986              		.cfi_def_cfa_offset 16
 987              		.cfi_offset 3, -16
 988              		.cfi_offset 4, -12
ARM GAS  /tmp/ccq7BpOX.s 			page 34


 989              		.cfi_offset 5, -8
 990              		.cfi_offset 14, -4
 991 0002 0546     		mov	r5, r0
 992 0004 0C46     		mov	r4, r1
 993              	.LVL94:
 938:Drivers/VL53L0X/API/vl53l0x_api.c **** 	VL53L0X_Error Status = VL53L0X_ERROR_NONE;
 939:Drivers/VL53L0X/API/vl53l0x_api.c **** 
 940:Drivers/VL53L0X/API/vl53l0x_api.c **** 	LOG_FUNCTION_START("%d", (int)Enable);
 941:Drivers/VL53L0X/API/vl53l0x_api.c **** 
 942:Drivers/VL53L0X/API/vl53l0x_api.c **** 	Status = VL53L0X_WrByte(Dev, VL53L0X_REG_SYSTEM_RANGE_CONFIG, Enable);
 994              		.loc 1 942 0
 995 0006 0A46     		mov	r2, r1
 996 0008 0921     		movs	r1, #9
 997              	.LVL95:
 998 000a FFF7FEFF 		bl	VL53L0X_WrByte
 999              	.LVL96:
 943:Drivers/VL53L0X/API/vl53l0x_api.c **** 
 944:Drivers/VL53L0X/API/vl53l0x_api.c **** 	if (Status == VL53L0X_ERROR_NONE)
 1000              		.loc 1 944 0
 1001 000e 0346     		mov	r3, r0
 1002 0010 08B9     		cbnz	r0, .L60
 945:Drivers/VL53L0X/API/vl53l0x_api.c **** 		PALDevDataSet(Dev, RangeFractionalEnable, Enable);
 1003              		.loc 1 945 0
 1004 0012 85F83141 		strb	r4, [r5, #305]
 1005              	.L60:
 946:Drivers/VL53L0X/API/vl53l0x_api.c **** 
 947:Drivers/VL53L0X/API/vl53l0x_api.c **** 	LOG_FUNCTION_END(Status);
 948:Drivers/VL53L0X/API/vl53l0x_api.c **** 	return Status;
 949:Drivers/VL53L0X/API/vl53l0x_api.c **** }
 1006              		.loc 1 949 0
 1007 0016 1846     		mov	r0, r3
 1008              	.LVL97:
 1009 0018 38BD     		pop	{r3, r4, r5, pc}
 1010              		.cfi_endproc
 1011              	.LFE156:
 1013              		.section	.text.VL53L0X_GetFractionEnable,"ax",%progbits
 1014              		.align	1
 1015              		.global	VL53L0X_GetFractionEnable
 1016              		.syntax unified
 1017              		.thumb
 1018              		.thumb_func
 1019              		.fpu fpv4-sp-d16
 1021              	VL53L0X_GetFractionEnable:
 1022              	.LFB157:
 950:Drivers/VL53L0X/API/vl53l0x_api.c **** 
 951:Drivers/VL53L0X/API/vl53l0x_api.c **** VL53L0X_Error VL53L0X_GetFractionEnable(VL53L0X_DEV Dev, uint8_t *pEnabled)
 952:Drivers/VL53L0X/API/vl53l0x_api.c **** {
 1023              		.loc 1 952 0
 1024              		.cfi_startproc
 1025              		@ args = 0, pretend = 0, frame = 0
 1026              		@ frame_needed = 0, uses_anonymous_args = 0
 1027              	.LVL98:
 1028 0000 10B5     		push	{r4, lr}
 1029              	.LCFI26:
 1030              		.cfi_def_cfa_offset 8
 1031              		.cfi_offset 4, -8
 1032              		.cfi_offset 14, -4
ARM GAS  /tmp/ccq7BpOX.s 			page 35


 1033 0002 0C46     		mov	r4, r1
 1034              	.LVL99:
 953:Drivers/VL53L0X/API/vl53l0x_api.c **** 	VL53L0X_Error Status = VL53L0X_ERROR_NONE;
 954:Drivers/VL53L0X/API/vl53l0x_api.c **** 	LOG_FUNCTION_START("");
 955:Drivers/VL53L0X/API/vl53l0x_api.c **** 
 956:Drivers/VL53L0X/API/vl53l0x_api.c **** 	Status = VL53L0X_RdByte(Dev, VL53L0X_REG_SYSTEM_RANGE_CONFIG, pEnabled);
 1035              		.loc 1 956 0
 1036 0004 0A46     		mov	r2, r1
 1037 0006 0921     		movs	r1, #9
 1038              	.LVL100:
 1039 0008 FFF7FEFF 		bl	VL53L0X_RdByte
 1040              	.LVL101:
 957:Drivers/VL53L0X/API/vl53l0x_api.c **** 
 958:Drivers/VL53L0X/API/vl53l0x_api.c **** 	if (Status == VL53L0X_ERROR_NONE)
 1041              		.loc 1 958 0
 1042 000c 0246     		mov	r2, r0
 1043 000e 18B9     		cbnz	r0, .L63
 959:Drivers/VL53L0X/API/vl53l0x_api.c **** 		*pEnabled = (*pEnabled & 1);
 1044              		.loc 1 959 0
 1045 0010 2378     		ldrb	r3, [r4]	@ zero_extendqisi2
 1046 0012 03F00103 		and	r3, r3, #1
 1047 0016 2370     		strb	r3, [r4]
 1048              	.L63:
 960:Drivers/VL53L0X/API/vl53l0x_api.c **** 
 961:Drivers/VL53L0X/API/vl53l0x_api.c **** 	LOG_FUNCTION_END(Status);
 962:Drivers/VL53L0X/API/vl53l0x_api.c **** 	return Status;
 963:Drivers/VL53L0X/API/vl53l0x_api.c **** }
 1049              		.loc 1 963 0
 1050 0018 1046     		mov	r0, r2
 1051              	.LVL102:
 1052 001a 10BD     		pop	{r4, pc}
 1053              		.cfi_endproc
 1054              	.LFE157:
 1056              		.section	.text.VL53L0X_SetHistogramMode,"ax",%progbits
 1057              		.align	1
 1058              		.global	VL53L0X_SetHistogramMode
 1059              		.syntax unified
 1060              		.thumb
 1061              		.thumb_func
 1062              		.fpu fpv4-sp-d16
 1064              	VL53L0X_SetHistogramMode:
 1065              	.LFB158:
 964:Drivers/VL53L0X/API/vl53l0x_api.c **** 
 965:Drivers/VL53L0X/API/vl53l0x_api.c **** VL53L0X_Error VL53L0X_SetHistogramMode(VL53L0X_DEV Dev,
 966:Drivers/VL53L0X/API/vl53l0x_api.c **** 	VL53L0X_HistogramModes HistogramMode)
 967:Drivers/VL53L0X/API/vl53l0x_api.c **** {
 1066              		.loc 1 967 0
 1067              		.cfi_startproc
 1068              		@ args = 0, pretend = 0, frame = 0
 1069              		@ frame_needed = 0, uses_anonymous_args = 0
 1070              		@ link register save eliminated.
 1071              	.LVL103:
 968:Drivers/VL53L0X/API/vl53l0x_api.c **** 	VL53L0X_Error Status = VL53L0X_ERROR_NOT_IMPLEMENTED;
 969:Drivers/VL53L0X/API/vl53l0x_api.c **** 	LOG_FUNCTION_START("");
 970:Drivers/VL53L0X/API/vl53l0x_api.c **** 
 971:Drivers/VL53L0X/API/vl53l0x_api.c **** 	/* not implemented on VL53L0X */
 972:Drivers/VL53L0X/API/vl53l0x_api.c **** 
ARM GAS  /tmp/ccq7BpOX.s 			page 36


 973:Drivers/VL53L0X/API/vl53l0x_api.c **** 	LOG_FUNCTION_END(Status);
 974:Drivers/VL53L0X/API/vl53l0x_api.c **** 	return Status;
 975:Drivers/VL53L0X/API/vl53l0x_api.c **** }
 1072              		.loc 1 975 0
 1073 0000 6FF06200 		mvn	r0, #98
 1074              	.LVL104:
 1075 0004 7047     		bx	lr
 1076              		.cfi_endproc
 1077              	.LFE158:
 1079              		.section	.text.VL53L0X_GetHistogramMode,"ax",%progbits
 1080              		.align	1
 1081              		.global	VL53L0X_GetHistogramMode
 1082              		.syntax unified
 1083              		.thumb
 1084              		.thumb_func
 1085              		.fpu fpv4-sp-d16
 1087              	VL53L0X_GetHistogramMode:
 1088              	.LFB159:
 976:Drivers/VL53L0X/API/vl53l0x_api.c **** 
 977:Drivers/VL53L0X/API/vl53l0x_api.c **** VL53L0X_Error VL53L0X_GetHistogramMode(VL53L0X_DEV Dev,
 978:Drivers/VL53L0X/API/vl53l0x_api.c **** 	VL53L0X_HistogramModes *pHistogramMode)
 979:Drivers/VL53L0X/API/vl53l0x_api.c **** {
 1089              		.loc 1 979 0
 1090              		.cfi_startproc
 1091              		@ args = 0, pretend = 0, frame = 0
 1092              		@ frame_needed = 0, uses_anonymous_args = 0
 1093              		@ link register save eliminated.
 1094              	.LVL105:
 980:Drivers/VL53L0X/API/vl53l0x_api.c **** 	VL53L0X_Error Status = VL53L0X_ERROR_NOT_IMPLEMENTED;
 981:Drivers/VL53L0X/API/vl53l0x_api.c **** 	LOG_FUNCTION_START("");
 982:Drivers/VL53L0X/API/vl53l0x_api.c **** 
 983:Drivers/VL53L0X/API/vl53l0x_api.c **** 	/* not implemented on VL53L0X */
 984:Drivers/VL53L0X/API/vl53l0x_api.c **** 
 985:Drivers/VL53L0X/API/vl53l0x_api.c **** 	LOG_FUNCTION_END(Status);
 986:Drivers/VL53L0X/API/vl53l0x_api.c **** 	return Status;
 987:Drivers/VL53L0X/API/vl53l0x_api.c **** }
 1095              		.loc 1 987 0
 1096 0000 6FF06200 		mvn	r0, #98
 1097              	.LVL106:
 1098 0004 7047     		bx	lr
 1099              		.cfi_endproc
 1100              	.LFE159:
 1102              		.section	.text.VL53L0X_SetMeasurementTimingBudgetMicroSeconds,"ax",%progbits
 1103              		.align	1
 1104              		.global	VL53L0X_SetMeasurementTimingBudgetMicroSeconds
 1105              		.syntax unified
 1106              		.thumb
 1107              		.thumb_func
 1108              		.fpu fpv4-sp-d16
 1110              	VL53L0X_SetMeasurementTimingBudgetMicroSeconds:
 1111              	.LFB160:
 988:Drivers/VL53L0X/API/vl53l0x_api.c **** 
 989:Drivers/VL53L0X/API/vl53l0x_api.c **** VL53L0X_Error VL53L0X_SetMeasurementTimingBudgetMicroSeconds(VL53L0X_DEV Dev,
 990:Drivers/VL53L0X/API/vl53l0x_api.c **** 	uint32_t MeasurementTimingBudgetMicroSeconds)
 991:Drivers/VL53L0X/API/vl53l0x_api.c **** {
 1112              		.loc 1 991 0
 1113              		.cfi_startproc
ARM GAS  /tmp/ccq7BpOX.s 			page 37


 1114              		@ args = 0, pretend = 0, frame = 0
 1115              		@ frame_needed = 0, uses_anonymous_args = 0
 1116              	.LVL107:
 1117 0000 08B5     		push	{r3, lr}
 1118              	.LCFI27:
 1119              		.cfi_def_cfa_offset 8
 1120              		.cfi_offset 3, -8
 1121              		.cfi_offset 14, -4
 1122              	.LVL108:
 992:Drivers/VL53L0X/API/vl53l0x_api.c **** 	VL53L0X_Error Status = VL53L0X_ERROR_NONE;
 993:Drivers/VL53L0X/API/vl53l0x_api.c **** 	LOG_FUNCTION_START("");
 994:Drivers/VL53L0X/API/vl53l0x_api.c **** 
 995:Drivers/VL53L0X/API/vl53l0x_api.c **** 	Status = VL53L0X_set_measurement_timing_budget_micro_seconds(Dev,
 1123              		.loc 1 995 0
 1124 0002 FFF7FEFF 		bl	VL53L0X_set_measurement_timing_budget_micro_seconds
 1125              	.LVL109:
 996:Drivers/VL53L0X/API/vl53l0x_api.c **** 		MeasurementTimingBudgetMicroSeconds);
 997:Drivers/VL53L0X/API/vl53l0x_api.c **** 
 998:Drivers/VL53L0X/API/vl53l0x_api.c **** 	LOG_FUNCTION_END(Status);
 999:Drivers/VL53L0X/API/vl53l0x_api.c **** 
1000:Drivers/VL53L0X/API/vl53l0x_api.c **** 	return Status;
1001:Drivers/VL53L0X/API/vl53l0x_api.c **** }
 1126              		.loc 1 1001 0
 1127 0006 08BD     		pop	{r3, pc}
 1128              		.cfi_endproc
 1129              	.LFE160:
 1131              		.section	.text.VL53L0X_GetMeasurementTimingBudgetMicroSeconds,"ax",%progbits
 1132              		.align	1
 1133              		.global	VL53L0X_GetMeasurementTimingBudgetMicroSeconds
 1134              		.syntax unified
 1135              		.thumb
 1136              		.thumb_func
 1137              		.fpu fpv4-sp-d16
 1139              	VL53L0X_GetMeasurementTimingBudgetMicroSeconds:
 1140              	.LFB161:
1002:Drivers/VL53L0X/API/vl53l0x_api.c **** 
1003:Drivers/VL53L0X/API/vl53l0x_api.c **** VL53L0X_Error VL53L0X_GetMeasurementTimingBudgetMicroSeconds(VL53L0X_DEV Dev,
1004:Drivers/VL53L0X/API/vl53l0x_api.c **** 	uint32_t *pMeasurementTimingBudgetMicroSeconds)
1005:Drivers/VL53L0X/API/vl53l0x_api.c **** {
 1141              		.loc 1 1005 0
 1142              		.cfi_startproc
 1143              		@ args = 0, pretend = 0, frame = 0
 1144              		@ frame_needed = 0, uses_anonymous_args = 0
 1145              	.LVL110:
 1146 0000 08B5     		push	{r3, lr}
 1147              	.LCFI28:
 1148              		.cfi_def_cfa_offset 8
 1149              		.cfi_offset 3, -8
 1150              		.cfi_offset 14, -4
 1151              	.LVL111:
1006:Drivers/VL53L0X/API/vl53l0x_api.c **** 	VL53L0X_Error Status = VL53L0X_ERROR_NONE;
1007:Drivers/VL53L0X/API/vl53l0x_api.c **** 	LOG_FUNCTION_START("");
1008:Drivers/VL53L0X/API/vl53l0x_api.c **** 
1009:Drivers/VL53L0X/API/vl53l0x_api.c **** 	Status = VL53L0X_get_measurement_timing_budget_micro_seconds(Dev,
 1152              		.loc 1 1009 0
 1153 0002 FFF7FEFF 		bl	VL53L0X_get_measurement_timing_budget_micro_seconds
 1154              	.LVL112:
ARM GAS  /tmp/ccq7BpOX.s 			page 38


1010:Drivers/VL53L0X/API/vl53l0x_api.c **** 		pMeasurementTimingBudgetMicroSeconds);
1011:Drivers/VL53L0X/API/vl53l0x_api.c **** 
1012:Drivers/VL53L0X/API/vl53l0x_api.c **** 	LOG_FUNCTION_END(Status);
1013:Drivers/VL53L0X/API/vl53l0x_api.c **** 	return Status;
1014:Drivers/VL53L0X/API/vl53l0x_api.c **** }
 1155              		.loc 1 1014 0
 1156 0006 08BD     		pop	{r3, pc}
 1157              		.cfi_endproc
 1158              	.LFE161:
 1160              		.section	.text.VL53L0X_SetVcselPulsePeriod,"ax",%progbits
 1161              		.align	1
 1162              		.global	VL53L0X_SetVcselPulsePeriod
 1163              		.syntax unified
 1164              		.thumb
 1165              		.thumb_func
 1166              		.fpu fpv4-sp-d16
 1168              	VL53L0X_SetVcselPulsePeriod:
 1169              	.LFB162:
1015:Drivers/VL53L0X/API/vl53l0x_api.c **** 
1016:Drivers/VL53L0X/API/vl53l0x_api.c **** VL53L0X_Error VL53L0X_SetVcselPulsePeriod(VL53L0X_DEV Dev,
1017:Drivers/VL53L0X/API/vl53l0x_api.c **** 	VL53L0X_VcselPeriod VcselPeriodType, uint8_t VCSELPulsePeriodPCLK)
1018:Drivers/VL53L0X/API/vl53l0x_api.c **** {
 1170              		.loc 1 1018 0
 1171              		.cfi_startproc
 1172              		@ args = 0, pretend = 0, frame = 0
 1173              		@ frame_needed = 0, uses_anonymous_args = 0
 1174              	.LVL113:
 1175 0000 08B5     		push	{r3, lr}
 1176              	.LCFI29:
 1177              		.cfi_def_cfa_offset 8
 1178              		.cfi_offset 3, -8
 1179              		.cfi_offset 14, -4
 1180              	.LVL114:
1019:Drivers/VL53L0X/API/vl53l0x_api.c **** 	VL53L0X_Error Status = VL53L0X_ERROR_NONE;
1020:Drivers/VL53L0X/API/vl53l0x_api.c **** 	LOG_FUNCTION_START("");
1021:Drivers/VL53L0X/API/vl53l0x_api.c **** 
1022:Drivers/VL53L0X/API/vl53l0x_api.c **** 	Status = VL53L0X_set_vcsel_pulse_period(Dev, VcselPeriodType,
 1181              		.loc 1 1022 0
 1182 0002 FFF7FEFF 		bl	VL53L0X_set_vcsel_pulse_period
 1183              	.LVL115:
1023:Drivers/VL53L0X/API/vl53l0x_api.c **** 		VCSELPulsePeriodPCLK);
1024:Drivers/VL53L0X/API/vl53l0x_api.c **** 
1025:Drivers/VL53L0X/API/vl53l0x_api.c **** 	LOG_FUNCTION_END(Status);
1026:Drivers/VL53L0X/API/vl53l0x_api.c **** 	return Status;
1027:Drivers/VL53L0X/API/vl53l0x_api.c **** }
 1184              		.loc 1 1027 0
 1185 0006 08BD     		pop	{r3, pc}
 1186              		.cfi_endproc
 1187              	.LFE162:
 1189              		.section	.text.VL53L0X_GetVcselPulsePeriod,"ax",%progbits
 1190              		.align	1
 1191              		.global	VL53L0X_GetVcselPulsePeriod
 1192              		.syntax unified
 1193              		.thumb
 1194              		.thumb_func
 1195              		.fpu fpv4-sp-d16
 1197              	VL53L0X_GetVcselPulsePeriod:
ARM GAS  /tmp/ccq7BpOX.s 			page 39


 1198              	.LFB163:
1028:Drivers/VL53L0X/API/vl53l0x_api.c **** 
1029:Drivers/VL53L0X/API/vl53l0x_api.c **** VL53L0X_Error VL53L0X_GetVcselPulsePeriod(VL53L0X_DEV Dev,
1030:Drivers/VL53L0X/API/vl53l0x_api.c **** 	VL53L0X_VcselPeriod VcselPeriodType, uint8_t *pVCSELPulsePeriodPCLK)
1031:Drivers/VL53L0X/API/vl53l0x_api.c **** {
 1199              		.loc 1 1031 0
 1200              		.cfi_startproc
 1201              		@ args = 0, pretend = 0, frame = 0
 1202              		@ frame_needed = 0, uses_anonymous_args = 0
 1203              	.LVL116:
 1204 0000 08B5     		push	{r3, lr}
 1205              	.LCFI30:
 1206              		.cfi_def_cfa_offset 8
 1207              		.cfi_offset 3, -8
 1208              		.cfi_offset 14, -4
 1209              	.LVL117:
1032:Drivers/VL53L0X/API/vl53l0x_api.c **** 	VL53L0X_Error Status = VL53L0X_ERROR_NONE;
1033:Drivers/VL53L0X/API/vl53l0x_api.c **** 	LOG_FUNCTION_START("");
1034:Drivers/VL53L0X/API/vl53l0x_api.c **** 
1035:Drivers/VL53L0X/API/vl53l0x_api.c **** 	Status = VL53L0X_get_vcsel_pulse_period(Dev, VcselPeriodType,
 1210              		.loc 1 1035 0
 1211 0002 FFF7FEFF 		bl	VL53L0X_get_vcsel_pulse_period
 1212              	.LVL118:
1036:Drivers/VL53L0X/API/vl53l0x_api.c **** 		pVCSELPulsePeriodPCLK);
1037:Drivers/VL53L0X/API/vl53l0x_api.c **** 
1038:Drivers/VL53L0X/API/vl53l0x_api.c **** 	LOG_FUNCTION_END(Status);
1039:Drivers/VL53L0X/API/vl53l0x_api.c **** 	return Status;
1040:Drivers/VL53L0X/API/vl53l0x_api.c **** }
 1213              		.loc 1 1040 0
 1214 0006 08BD     		pop	{r3, pc}
 1215              		.cfi_endproc
 1216              	.LFE163:
 1218              		.section	.text.VL53L0X_SetSequenceStepEnable,"ax",%progbits
 1219              		.align	1
 1220              		.global	VL53L0X_SetSequenceStepEnable
 1221              		.syntax unified
 1222              		.thumb
 1223              		.thumb_func
 1224              		.fpu fpv4-sp-d16
 1226              	VL53L0X_SetSequenceStepEnable:
 1227              	.LFB164:
1041:Drivers/VL53L0X/API/vl53l0x_api.c **** 
1042:Drivers/VL53L0X/API/vl53l0x_api.c **** VL53L0X_Error VL53L0X_SetSequenceStepEnable(VL53L0X_DEV Dev,
1043:Drivers/VL53L0X/API/vl53l0x_api.c **** 	VL53L0X_SequenceStepId SequenceStepId, uint8_t SequenceStepEnabled)
1044:Drivers/VL53L0X/API/vl53l0x_api.c **** {
 1228              		.loc 1 1044 0
 1229              		.cfi_startproc
 1230              		@ args = 0, pretend = 0, frame = 8
 1231              		@ frame_needed = 0, uses_anonymous_args = 0
 1232              	.LVL119:
 1233 0000 F0B5     		push	{r4, r5, r6, r7, lr}
 1234              	.LCFI31:
 1235              		.cfi_def_cfa_offset 20
 1236              		.cfi_offset 4, -20
 1237              		.cfi_offset 5, -16
 1238              		.cfi_offset 6, -12
 1239              		.cfi_offset 7, -8
ARM GAS  /tmp/ccq7BpOX.s 			page 40


 1240              		.cfi_offset 14, -4
 1241 0002 83B0     		sub	sp, sp, #12
 1242              	.LCFI32:
 1243              		.cfi_def_cfa_offset 32
 1244 0004 0646     		mov	r6, r0
 1245 0006 0D46     		mov	r5, r1
 1246 0008 1746     		mov	r7, r2
 1247              	.LVL120:
1045:Drivers/VL53L0X/API/vl53l0x_api.c **** 	VL53L0X_Error Status = VL53L0X_ERROR_NONE;
1046:Drivers/VL53L0X/API/vl53l0x_api.c **** 	uint8_t SequenceConfig = 0;
 1248              		.loc 1 1046 0
 1249 000a 02AA     		add	r2, sp, #8
 1250              	.LVL121:
 1251 000c 0023     		movs	r3, #0
 1252 000e 02F8013D 		strb	r3, [r2, #-1]!
 1253              	.LVL122:
1047:Drivers/VL53L0X/API/vl53l0x_api.c **** 	uint8_t SequenceConfigNew = 0;
1048:Drivers/VL53L0X/API/vl53l0x_api.c **** 	uint32_t MeasurementTimingBudgetMicroSeconds;
1049:Drivers/VL53L0X/API/vl53l0x_api.c **** 	LOG_FUNCTION_START("");
1050:Drivers/VL53L0X/API/vl53l0x_api.c **** 
1051:Drivers/VL53L0X/API/vl53l0x_api.c **** 	Status = VL53L0X_RdByte(Dev, VL53L0X_REG_SYSTEM_SEQUENCE_CONFIG,
 1254              		.loc 1 1051 0
 1255 0012 0121     		movs	r1, #1
 1256              	.LVL123:
 1257 0014 FFF7FEFF 		bl	VL53L0X_RdByte
 1258              	.LVL124:
1052:Drivers/VL53L0X/API/vl53l0x_api.c **** 		&SequenceConfig);
1053:Drivers/VL53L0X/API/vl53l0x_api.c **** 
1054:Drivers/VL53L0X/API/vl53l0x_api.c **** 	SequenceConfigNew = SequenceConfig;
 1259              		.loc 1 1054 0
 1260 0018 9DF80730 		ldrb	r3, [sp, #7]	@ zero_extendqisi2
 1261              	.LVL125:
1055:Drivers/VL53L0X/API/vl53l0x_api.c **** 
1056:Drivers/VL53L0X/API/vl53l0x_api.c **** 	if (Status == VL53L0X_ERROR_NONE) {
 1262              		.loc 1 1056 0
 1263 001c 0446     		mov	r4, r0
 1264 001e 68BB     		cbnz	r0, .L93
1057:Drivers/VL53L0X/API/vl53l0x_api.c **** 		if (SequenceStepEnabled == 1) {
 1265              		.loc 1 1057 0
 1266 0020 012F     		cmp	r7, #1
 1267 0022 06D0     		beq	.L97
1058:Drivers/VL53L0X/API/vl53l0x_api.c **** 
1059:Drivers/VL53L0X/API/vl53l0x_api.c **** 			/* Enable requested sequence step
1060:Drivers/VL53L0X/API/vl53l0x_api.c **** 			 */
1061:Drivers/VL53L0X/API/vl53l0x_api.c **** 			switch (SequenceStepId) {
1062:Drivers/VL53L0X/API/vl53l0x_api.c **** 			case VL53L0X_SEQUENCESTEP_TCC:
1063:Drivers/VL53L0X/API/vl53l0x_api.c **** 				SequenceConfigNew |= 0x10;
1064:Drivers/VL53L0X/API/vl53l0x_api.c **** 				break;
1065:Drivers/VL53L0X/API/vl53l0x_api.c **** 			case VL53L0X_SEQUENCESTEP_DSS:
1066:Drivers/VL53L0X/API/vl53l0x_api.c **** 				SequenceConfigNew |= 0x28;
1067:Drivers/VL53L0X/API/vl53l0x_api.c **** 				break;
1068:Drivers/VL53L0X/API/vl53l0x_api.c **** 			case VL53L0X_SEQUENCESTEP_MSRC:
1069:Drivers/VL53L0X/API/vl53l0x_api.c **** 				SequenceConfigNew |= 0x04;
1070:Drivers/VL53L0X/API/vl53l0x_api.c **** 				break;
1071:Drivers/VL53L0X/API/vl53l0x_api.c **** 			case VL53L0X_SEQUENCESTEP_PRE_RANGE:
1072:Drivers/VL53L0X/API/vl53l0x_api.c **** 				SequenceConfigNew |= 0x40;
1073:Drivers/VL53L0X/API/vl53l0x_api.c **** 				break;
ARM GAS  /tmp/ccq7BpOX.s 			page 41


1074:Drivers/VL53L0X/API/vl53l0x_api.c **** 			case VL53L0X_SEQUENCESTEP_FINAL_RANGE:
1075:Drivers/VL53L0X/API/vl53l0x_api.c **** 				SequenceConfigNew |= 0x80;
1076:Drivers/VL53L0X/API/vl53l0x_api.c **** 				break;
1077:Drivers/VL53L0X/API/vl53l0x_api.c **** 			default:
1078:Drivers/VL53L0X/API/vl53l0x_api.c **** 				Status = VL53L0X_ERROR_INVALID_PARAMS;
1079:Drivers/VL53L0X/API/vl53l0x_api.c **** 			}
1080:Drivers/VL53L0X/API/vl53l0x_api.c **** 		} else {
1081:Drivers/VL53L0X/API/vl53l0x_api.c **** 			/* Disable requested sequence step
1082:Drivers/VL53L0X/API/vl53l0x_api.c **** 			 */
1083:Drivers/VL53L0X/API/vl53l0x_api.c **** 			switch (SequenceStepId) {
 1268              		.loc 1 1083 0
 1269 0024 042D     		cmp	r5, #4
 1270 0026 38D8     		bhi	.L95
 1271 0028 DFE805F0 		tbb	[pc, r5]
 1272              	.L85:
 1273 002c 19       		.byte	(.L84-.L85)/2
 1274 002d 1C       		.byte	(.L86-.L85)/2
 1275 002e 1F       		.byte	(.L87-.L85)/2
 1276 002f 22       		.byte	(.L88-.L85)/2
 1277 0030 25       		.byte	(.L89-.L85)/2
 1278 0031 00       		.p2align 1
 1279              	.L97:
1061:Drivers/VL53L0X/API/vl53l0x_api.c **** 			case VL53L0X_SEQUENCESTEP_TCC:
 1280              		.loc 1 1061 0
 1281 0032 042D     		cmp	r5, #4
 1282 0034 2DD8     		bhi	.L94
 1283 0036 DFE805F0 		tbb	[pc, r5]
 1284              	.L79:
 1285 003a 03       		.byte	(.L78-.L79)/2
 1286 003b 06       		.byte	(.L80-.L79)/2
 1287 003c 09       		.byte	(.L81-.L79)/2
 1288 003d 0C       		.byte	(.L82-.L79)/2
 1289 003e 0F       		.byte	(.L83-.L79)/2
 1290 003f 00       		.p2align 1
 1291              	.L78:
1063:Drivers/VL53L0X/API/vl53l0x_api.c **** 				break;
 1292              		.loc 1 1063 0
 1293 0040 43F01005 		orr	r5, r3, #16
 1294              	.LVL126:
1064:Drivers/VL53L0X/API/vl53l0x_api.c **** 			case VL53L0X_SEQUENCESTEP_DSS:
 1295              		.loc 1 1064 0
 1296 0044 1BE0     		b	.L76
 1297              	.LVL127:
 1298              	.L80:
1066:Drivers/VL53L0X/API/vl53l0x_api.c **** 				break;
 1299              		.loc 1 1066 0
 1300 0046 43F02805 		orr	r5, r3, #40
 1301              	.LVL128:
1067:Drivers/VL53L0X/API/vl53l0x_api.c **** 			case VL53L0X_SEQUENCESTEP_MSRC:
 1302              		.loc 1 1067 0
 1303 004a 18E0     		b	.L76
 1304              	.LVL129:
 1305              	.L81:
1069:Drivers/VL53L0X/API/vl53l0x_api.c **** 				break;
 1306              		.loc 1 1069 0
 1307 004c 43F00405 		orr	r5, r3, #4
 1308              	.LVL130:
ARM GAS  /tmp/ccq7BpOX.s 			page 42


1070:Drivers/VL53L0X/API/vl53l0x_api.c **** 			case VL53L0X_SEQUENCESTEP_PRE_RANGE:
 1309              		.loc 1 1070 0
 1310 0050 15E0     		b	.L76
 1311              	.LVL131:
 1312              	.L82:
1072:Drivers/VL53L0X/API/vl53l0x_api.c **** 				break;
 1313              		.loc 1 1072 0
 1314 0052 43F04005 		orr	r5, r3, #64
 1315              	.LVL132:
1073:Drivers/VL53L0X/API/vl53l0x_api.c **** 			case VL53L0X_SEQUENCESTEP_FINAL_RANGE:
 1316              		.loc 1 1073 0
 1317 0056 12E0     		b	.L76
 1318              	.LVL133:
 1319              	.L83:
1075:Drivers/VL53L0X/API/vl53l0x_api.c **** 				break;
 1320              		.loc 1 1075 0
 1321 0058 43F08005 		orr	r5, r3, #128
 1322              	.LVL134:
1076:Drivers/VL53L0X/API/vl53l0x_api.c **** 			default:
 1323              		.loc 1 1076 0
 1324 005c 0FE0     		b	.L76
 1325              	.LVL135:
 1326              	.L84:
1084:Drivers/VL53L0X/API/vl53l0x_api.c **** 			case VL53L0X_SEQUENCESTEP_TCC:
1085:Drivers/VL53L0X/API/vl53l0x_api.c **** 				SequenceConfigNew &= 0xef;
 1327              		.loc 1 1085 0
 1328 005e 03F0EF05 		and	r5, r3, #239
 1329              	.LVL136:
1086:Drivers/VL53L0X/API/vl53l0x_api.c **** 				break;
 1330              		.loc 1 1086 0
 1331 0062 0CE0     		b	.L76
 1332              	.LVL137:
 1333              	.L86:
1087:Drivers/VL53L0X/API/vl53l0x_api.c **** 			case VL53L0X_SEQUENCESTEP_DSS:
1088:Drivers/VL53L0X/API/vl53l0x_api.c **** 				SequenceConfigNew &= 0xd7;
 1334              		.loc 1 1088 0
 1335 0064 03F0D705 		and	r5, r3, #215
 1336              	.LVL138:
1089:Drivers/VL53L0X/API/vl53l0x_api.c **** 				break;
 1337              		.loc 1 1089 0
 1338 0068 09E0     		b	.L76
 1339              	.LVL139:
 1340              	.L87:
1090:Drivers/VL53L0X/API/vl53l0x_api.c **** 			case VL53L0X_SEQUENCESTEP_MSRC:
1091:Drivers/VL53L0X/API/vl53l0x_api.c **** 				SequenceConfigNew &= 0xfb;
 1341              		.loc 1 1091 0
 1342 006a 03F0FB05 		and	r5, r3, #251
 1343              	.LVL140:
1092:Drivers/VL53L0X/API/vl53l0x_api.c **** 				break;
 1344              		.loc 1 1092 0
 1345 006e 06E0     		b	.L76
 1346              	.LVL141:
 1347              	.L88:
1093:Drivers/VL53L0X/API/vl53l0x_api.c **** 			case VL53L0X_SEQUENCESTEP_PRE_RANGE:
1094:Drivers/VL53L0X/API/vl53l0x_api.c **** 				SequenceConfigNew &= 0xbf;
 1348              		.loc 1 1094 0
 1349 0070 03F0BF05 		and	r5, r3, #191
ARM GAS  /tmp/ccq7BpOX.s 			page 43


 1350              	.LVL142:
1095:Drivers/VL53L0X/API/vl53l0x_api.c **** 				break;
 1351              		.loc 1 1095 0
 1352 0074 03E0     		b	.L76
 1353              	.LVL143:
 1354              	.L89:
1096:Drivers/VL53L0X/API/vl53l0x_api.c **** 			case VL53L0X_SEQUENCESTEP_FINAL_RANGE:
1097:Drivers/VL53L0X/API/vl53l0x_api.c **** 				SequenceConfigNew &= 0x7f;
 1355              		.loc 1 1097 0
 1356 0076 03F07F05 		and	r5, r3, #127
 1357              	.LVL144:
1098:Drivers/VL53L0X/API/vl53l0x_api.c **** 				break;
 1358              		.loc 1 1098 0
 1359 007a 00E0     		b	.L76
 1360              	.LVL145:
 1361              	.L93:
1054:Drivers/VL53L0X/API/vl53l0x_api.c **** 
 1362              		.loc 1 1054 0
 1363 007c 1D46     		mov	r5, r3
 1364              	.LVL146:
 1365              	.L76:
1099:Drivers/VL53L0X/API/vl53l0x_api.c **** 			default:
1100:Drivers/VL53L0X/API/vl53l0x_api.c **** 				Status = VL53L0X_ERROR_INVALID_PARAMS;
1101:Drivers/VL53L0X/API/vl53l0x_api.c **** 			}
1102:Drivers/VL53L0X/API/vl53l0x_api.c **** 		}
1103:Drivers/VL53L0X/API/vl53l0x_api.c **** 	}
1104:Drivers/VL53L0X/API/vl53l0x_api.c **** 
1105:Drivers/VL53L0X/API/vl53l0x_api.c **** 	if (SequenceConfigNew != SequenceConfig) {
 1366              		.loc 1 1105 0
 1367 007e 9D42     		cmp	r5, r3
 1368 0080 04D0     		beq	.L90
1106:Drivers/VL53L0X/API/vl53l0x_api.c **** 		/* Apply New Setting */
1107:Drivers/VL53L0X/API/vl53l0x_api.c **** 		if (Status == VL53L0X_ERROR_NONE) {
 1369              		.loc 1 1107 0
 1370 0082 74B1     		cbz	r4, .L98
 1371              	.L91:
1108:Drivers/VL53L0X/API/vl53l0x_api.c **** 			Status = VL53L0X_WrByte(Dev,
1109:Drivers/VL53L0X/API/vl53l0x_api.c **** 			VL53L0X_REG_SYSTEM_SEQUENCE_CONFIG, SequenceConfigNew);
1110:Drivers/VL53L0X/API/vl53l0x_api.c **** 		}
1111:Drivers/VL53L0X/API/vl53l0x_api.c **** 		if (Status == VL53L0X_ERROR_NONE)
 1372              		.loc 1 1111 0
 1373 0084 0CB9     		cbnz	r4, .L92
1112:Drivers/VL53L0X/API/vl53l0x_api.c **** 			PALDevDataSet(Dev, SequenceConfig, SequenceConfigNew);
 1374              		.loc 1 1112 0
 1375 0086 86F83051 		strb	r5, [r6, #304]
 1376              	.L92:
1113:Drivers/VL53L0X/API/vl53l0x_api.c **** 
1114:Drivers/VL53L0X/API/vl53l0x_api.c **** 
1115:Drivers/VL53L0X/API/vl53l0x_api.c **** 		/* Recalculate timing budget */
1116:Drivers/VL53L0X/API/vl53l0x_api.c **** 		if (Status == VL53L0X_ERROR_NONE) {
 1377              		.loc 1 1116 0
 1378 008a 8CB1     		cbz	r4, .L99
 1379              	.L90:
1117:Drivers/VL53L0X/API/vl53l0x_api.c **** 			VL53L0X_GETPARAMETERFIELD(Dev,
1118:Drivers/VL53L0X/API/vl53l0x_api.c **** 				MeasurementTimingBudgetMicroSeconds,
1119:Drivers/VL53L0X/API/vl53l0x_api.c **** 				MeasurementTimingBudgetMicroSeconds);
1120:Drivers/VL53L0X/API/vl53l0x_api.c **** 
ARM GAS  /tmp/ccq7BpOX.s 			page 44


1121:Drivers/VL53L0X/API/vl53l0x_api.c **** 			VL53L0X_SetMeasurementTimingBudgetMicroSeconds(Dev,
1122:Drivers/VL53L0X/API/vl53l0x_api.c **** 				MeasurementTimingBudgetMicroSeconds);
1123:Drivers/VL53L0X/API/vl53l0x_api.c **** 		}
1124:Drivers/VL53L0X/API/vl53l0x_api.c **** 	}
1125:Drivers/VL53L0X/API/vl53l0x_api.c **** 
1126:Drivers/VL53L0X/API/vl53l0x_api.c **** 	LOG_FUNCTION_END(Status);
1127:Drivers/VL53L0X/API/vl53l0x_api.c **** 
1128:Drivers/VL53L0X/API/vl53l0x_api.c **** 	return Status;
1129:Drivers/VL53L0X/API/vl53l0x_api.c **** }
 1380              		.loc 1 1129 0
 1381 008c 2046     		mov	r0, r4
 1382 008e 03B0     		add	sp, sp, #12
 1383              	.LCFI33:
 1384              		.cfi_remember_state
 1385              		.cfi_def_cfa_offset 20
 1386              		@ sp needed
 1387 0090 F0BD     		pop	{r4, r5, r6, r7, pc}
 1388              	.LVL147:
 1389              	.L94:
1054:Drivers/VL53L0X/API/vl53l0x_api.c **** 
 1390              		.loc 1 1054 0
 1391 0092 1D46     		mov	r5, r3
1078:Drivers/VL53L0X/API/vl53l0x_api.c **** 			}
 1392              		.loc 1 1078 0
 1393 0094 6FF00304 		mvn	r4, #3
 1394 0098 F1E7     		b	.L76
 1395              	.L95:
1054:Drivers/VL53L0X/API/vl53l0x_api.c **** 
 1396              		.loc 1 1054 0
 1397 009a 1D46     		mov	r5, r3
1100:Drivers/VL53L0X/API/vl53l0x_api.c **** 			}
 1398              		.loc 1 1100 0
 1399 009c 6FF00304 		mvn	r4, #3
 1400 00a0 EDE7     		b	.L76
 1401              	.LVL148:
 1402              	.L98:
 1403              	.LCFI34:
 1404              		.cfi_restore_state
1108:Drivers/VL53L0X/API/vl53l0x_api.c **** 			VL53L0X_REG_SYSTEM_SEQUENCE_CONFIG, SequenceConfigNew);
 1405              		.loc 1 1108 0
 1406 00a2 2A46     		mov	r2, r5
 1407 00a4 0121     		movs	r1, #1
 1408 00a6 3046     		mov	r0, r6
 1409 00a8 FFF7FEFF 		bl	VL53L0X_WrByte
 1410              	.LVL149:
 1411 00ac 0446     		mov	r4, r0
 1412              	.LVL150:
 1413 00ae E9E7     		b	.L91
 1414              	.L99:
 1415              	.LVL151:
1121:Drivers/VL53L0X/API/vl53l0x_api.c **** 				MeasurementTimingBudgetMicroSeconds);
 1416              		.loc 1 1121 0
 1417 00b0 7169     		ldr	r1, [r6, #20]
 1418 00b2 3046     		mov	r0, r6
 1419 00b4 FFF7FEFF 		bl	VL53L0X_SetMeasurementTimingBudgetMicroSeconds
 1420              	.LVL152:
 1421 00b8 E8E7     		b	.L90
ARM GAS  /tmp/ccq7BpOX.s 			page 45


 1422              		.cfi_endproc
 1423              	.LFE164:
 1425              		.section	.text.sequence_step_enabled,"ax",%progbits
 1426              		.align	1
 1427              		.global	sequence_step_enabled
 1428              		.syntax unified
 1429              		.thumb
 1430              		.thumb_func
 1431              		.fpu fpv4-sp-d16
 1433              	sequence_step_enabled:
 1434              	.LFB165:
1130:Drivers/VL53L0X/API/vl53l0x_api.c **** 
1131:Drivers/VL53L0X/API/vl53l0x_api.c **** VL53L0X_Error sequence_step_enabled(VL53L0X_DEV Dev,
1132:Drivers/VL53L0X/API/vl53l0x_api.c **** 	VL53L0X_SequenceStepId SequenceStepId, uint8_t SequenceConfig,
1133:Drivers/VL53L0X/API/vl53l0x_api.c **** 	uint8_t *pSequenceStepEnabled)
1134:Drivers/VL53L0X/API/vl53l0x_api.c **** {
 1435              		.loc 1 1134 0
 1436              		.cfi_startproc
 1437              		@ args = 0, pretend = 0, frame = 0
 1438              		@ frame_needed = 0, uses_anonymous_args = 0
 1439              		@ link register save eliminated.
 1440              	.LVL153:
1135:Drivers/VL53L0X/API/vl53l0x_api.c **** 	VL53L0X_Error Status = VL53L0X_ERROR_NONE;
1136:Drivers/VL53L0X/API/vl53l0x_api.c **** 	*pSequenceStepEnabled = 0;
 1441              		.loc 1 1136 0
 1442 0000 0020     		movs	r0, #0
 1443              	.LVL154:
 1444 0002 1870     		strb	r0, [r3]
1137:Drivers/VL53L0X/API/vl53l0x_api.c **** 	LOG_FUNCTION_START("");
1138:Drivers/VL53L0X/API/vl53l0x_api.c **** 
1139:Drivers/VL53L0X/API/vl53l0x_api.c **** 	switch (SequenceStepId) {
 1445              		.loc 1 1139 0
 1446 0004 0429     		cmp	r1, #4
 1447 0006 1CD8     		bhi	.L108
 1448 0008 DFE801F0 		tbb	[pc, r1]
 1449              	.L103:
 1450 000c 03       		.byte	(.L102-.L103)/2
 1451 000d 08       		.byte	(.L104-.L103)/2
 1452 000e 0D       		.byte	(.L105-.L103)/2
 1453 000f 12       		.byte	(.L106-.L103)/2
 1454 0010 17       		.byte	(.L107-.L103)/2
 1455 0011 00       		.p2align 1
 1456              	.L102:
1140:Drivers/VL53L0X/API/vl53l0x_api.c **** 	case VL53L0X_SEQUENCESTEP_TCC:
1141:Drivers/VL53L0X/API/vl53l0x_api.c **** 		*pSequenceStepEnabled = (SequenceConfig & 0x10) >> 4;
 1457              		.loc 1 1141 0
 1458 0012 C2F30012 		ubfx	r2, r2, #4, #1
 1459              	.LVL155:
 1460 0016 1A70     		strb	r2, [r3]
1135:Drivers/VL53L0X/API/vl53l0x_api.c **** 	*pSequenceStepEnabled = 0;
 1461              		.loc 1 1135 0
 1462 0018 0020     		movs	r0, #0
1142:Drivers/VL53L0X/API/vl53l0x_api.c **** 		break;
 1463              		.loc 1 1142 0
 1464 001a 7047     		bx	lr
 1465              	.LVL156:
 1466              	.L104:
ARM GAS  /tmp/ccq7BpOX.s 			page 46


1143:Drivers/VL53L0X/API/vl53l0x_api.c **** 	case VL53L0X_SEQUENCESTEP_DSS:
1144:Drivers/VL53L0X/API/vl53l0x_api.c **** 		*pSequenceStepEnabled = (SequenceConfig & 0x08) >> 3;
 1467              		.loc 1 1144 0
 1468 001c C2F3C002 		ubfx	r2, r2, #3, #1
 1469              	.LVL157:
 1470 0020 1A70     		strb	r2, [r3]
1135:Drivers/VL53L0X/API/vl53l0x_api.c **** 	*pSequenceStepEnabled = 0;
 1471              		.loc 1 1135 0
 1472 0022 0020     		movs	r0, #0
1145:Drivers/VL53L0X/API/vl53l0x_api.c **** 		break;
 1473              		.loc 1 1145 0
 1474 0024 7047     		bx	lr
 1475              	.LVL158:
 1476              	.L105:
1146:Drivers/VL53L0X/API/vl53l0x_api.c **** 	case VL53L0X_SEQUENCESTEP_MSRC:
1147:Drivers/VL53L0X/API/vl53l0x_api.c **** 		*pSequenceStepEnabled = (SequenceConfig & 0x04) >> 2;
 1477              		.loc 1 1147 0
 1478 0026 C2F38002 		ubfx	r2, r2, #2, #1
 1479              	.LVL159:
 1480 002a 1A70     		strb	r2, [r3]
1135:Drivers/VL53L0X/API/vl53l0x_api.c **** 	*pSequenceStepEnabled = 0;
 1481              		.loc 1 1135 0
 1482 002c 0020     		movs	r0, #0
1148:Drivers/VL53L0X/API/vl53l0x_api.c **** 		break;
 1483              		.loc 1 1148 0
 1484 002e 7047     		bx	lr
 1485              	.LVL160:
 1486              	.L106:
1149:Drivers/VL53L0X/API/vl53l0x_api.c **** 	case VL53L0X_SEQUENCESTEP_PRE_RANGE:
1150:Drivers/VL53L0X/API/vl53l0x_api.c **** 		*pSequenceStepEnabled = (SequenceConfig & 0x40) >> 6;
 1487              		.loc 1 1150 0
 1488 0030 C2F38012 		ubfx	r2, r2, #6, #1
 1489              	.LVL161:
 1490 0034 1A70     		strb	r2, [r3]
1135:Drivers/VL53L0X/API/vl53l0x_api.c **** 	*pSequenceStepEnabled = 0;
 1491              		.loc 1 1135 0
 1492 0036 0020     		movs	r0, #0
1151:Drivers/VL53L0X/API/vl53l0x_api.c **** 		break;
 1493              		.loc 1 1151 0
 1494 0038 7047     		bx	lr
 1495              	.LVL162:
 1496              	.L107:
1152:Drivers/VL53L0X/API/vl53l0x_api.c **** 	case VL53L0X_SEQUENCESTEP_FINAL_RANGE:
1153:Drivers/VL53L0X/API/vl53l0x_api.c **** 		*pSequenceStepEnabled = (SequenceConfig & 0x80) >> 7;
 1497              		.loc 1 1153 0
 1498 003a D209     		lsrs	r2, r2, #7
 1499              	.LVL163:
 1500 003c 1A70     		strb	r2, [r3]
1135:Drivers/VL53L0X/API/vl53l0x_api.c **** 	*pSequenceStepEnabled = 0;
 1501              		.loc 1 1135 0
 1502 003e 0020     		movs	r0, #0
1154:Drivers/VL53L0X/API/vl53l0x_api.c **** 		break;
 1503              		.loc 1 1154 0
 1504 0040 7047     		bx	lr
 1505              	.LVL164:
 1506              	.L108:
1155:Drivers/VL53L0X/API/vl53l0x_api.c **** 	default:
ARM GAS  /tmp/ccq7BpOX.s 			page 47


1156:Drivers/VL53L0X/API/vl53l0x_api.c **** 		Status = VL53L0X_ERROR_INVALID_PARAMS;
 1507              		.loc 1 1156 0
 1508 0042 6FF00300 		mvn	r0, #3
 1509              	.LVL165:
1157:Drivers/VL53L0X/API/vl53l0x_api.c **** 	}
1158:Drivers/VL53L0X/API/vl53l0x_api.c **** 
1159:Drivers/VL53L0X/API/vl53l0x_api.c **** 	LOG_FUNCTION_END(Status);
1160:Drivers/VL53L0X/API/vl53l0x_api.c **** 	return Status;
1161:Drivers/VL53L0X/API/vl53l0x_api.c **** }
 1510              		.loc 1 1161 0
 1511 0046 7047     		bx	lr
 1512              		.cfi_endproc
 1513              	.LFE165:
 1515              		.section	.text.VL53L0X_GetSequenceStepEnable,"ax",%progbits
 1516              		.align	1
 1517              		.global	VL53L0X_GetSequenceStepEnable
 1518              		.syntax unified
 1519              		.thumb
 1520              		.thumb_func
 1521              		.fpu fpv4-sp-d16
 1523              	VL53L0X_GetSequenceStepEnable:
 1524              	.LFB166:
1162:Drivers/VL53L0X/API/vl53l0x_api.c **** 
1163:Drivers/VL53L0X/API/vl53l0x_api.c **** VL53L0X_Error VL53L0X_GetSequenceStepEnable(VL53L0X_DEV Dev,
1164:Drivers/VL53L0X/API/vl53l0x_api.c **** 	VL53L0X_SequenceStepId SequenceStepId, uint8_t *pSequenceStepEnabled)
1165:Drivers/VL53L0X/API/vl53l0x_api.c **** {
 1525              		.loc 1 1165 0
 1526              		.cfi_startproc
 1527              		@ args = 0, pretend = 0, frame = 8
 1528              		@ frame_needed = 0, uses_anonymous_args = 0
 1529              	.LVL166:
 1530 0000 70B5     		push	{r4, r5, r6, lr}
 1531              	.LCFI35:
 1532              		.cfi_def_cfa_offset 16
 1533              		.cfi_offset 4, -16
 1534              		.cfi_offset 5, -12
 1535              		.cfi_offset 6, -8
 1536              		.cfi_offset 14, -4
 1537 0002 82B0     		sub	sp, sp, #8
 1538              	.LCFI36:
 1539              		.cfi_def_cfa_offset 24
 1540 0004 0446     		mov	r4, r0
 1541 0006 0D46     		mov	r5, r1
 1542 0008 1646     		mov	r6, r2
 1543              	.LVL167:
1166:Drivers/VL53L0X/API/vl53l0x_api.c **** 	VL53L0X_Error Status = VL53L0X_ERROR_NONE;
1167:Drivers/VL53L0X/API/vl53l0x_api.c **** 	uint8_t SequenceConfig = 0;
 1544              		.loc 1 1167 0
 1545 000a 02AA     		add	r2, sp, #8
 1546              	.LVL168:
 1547 000c 0023     		movs	r3, #0
 1548 000e 02F8013D 		strb	r3, [r2, #-1]!
1168:Drivers/VL53L0X/API/vl53l0x_api.c **** 	LOG_FUNCTION_START("");
1169:Drivers/VL53L0X/API/vl53l0x_api.c **** 
1170:Drivers/VL53L0X/API/vl53l0x_api.c **** 	Status = VL53L0X_RdByte(Dev, VL53L0X_REG_SYSTEM_SEQUENCE_CONFIG,
 1549              		.loc 1 1170 0
 1550 0012 0121     		movs	r1, #1
ARM GAS  /tmp/ccq7BpOX.s 			page 48


 1551              	.LVL169:
 1552 0014 FFF7FEFF 		bl	VL53L0X_RdByte
 1553              	.LVL170:
1171:Drivers/VL53L0X/API/vl53l0x_api.c **** 		&SequenceConfig);
1172:Drivers/VL53L0X/API/vl53l0x_api.c **** 
1173:Drivers/VL53L0X/API/vl53l0x_api.c **** 	if (Status == VL53L0X_ERROR_NONE) {
 1554              		.loc 1 1173 0
 1555 0018 0346     		mov	r3, r0
 1556 001a 10B1     		cbz	r0, .L112
 1557              	.LVL171:
 1558              	.L110:
1174:Drivers/VL53L0X/API/vl53l0x_api.c **** 		Status = sequence_step_enabled(Dev, SequenceStepId,
1175:Drivers/VL53L0X/API/vl53l0x_api.c **** 			SequenceConfig, pSequenceStepEnabled);
1176:Drivers/VL53L0X/API/vl53l0x_api.c **** 	}
1177:Drivers/VL53L0X/API/vl53l0x_api.c **** 
1178:Drivers/VL53L0X/API/vl53l0x_api.c **** 	LOG_FUNCTION_END(Status);
1179:Drivers/VL53L0X/API/vl53l0x_api.c **** 	return Status;
1180:Drivers/VL53L0X/API/vl53l0x_api.c **** }
 1559              		.loc 1 1180 0
 1560 001c 1846     		mov	r0, r3
 1561 001e 02B0     		add	sp, sp, #8
 1562              	.LCFI37:
 1563              		.cfi_remember_state
 1564              		.cfi_def_cfa_offset 16
 1565              		@ sp needed
 1566 0020 70BD     		pop	{r4, r5, r6, pc}
 1567              	.LVL172:
 1568              	.L112:
 1569              	.LCFI38:
 1570              		.cfi_restore_state
1174:Drivers/VL53L0X/API/vl53l0x_api.c **** 		Status = sequence_step_enabled(Dev, SequenceStepId,
 1571              		.loc 1 1174 0
 1572 0022 3346     		mov	r3, r6
 1573 0024 9DF80720 		ldrb	r2, [sp, #7]	@ zero_extendqisi2
 1574 0028 2946     		mov	r1, r5
 1575 002a 2046     		mov	r0, r4
 1576              	.LVL173:
 1577 002c FFF7FEFF 		bl	sequence_step_enabled
 1578              	.LVL174:
 1579 0030 0346     		mov	r3, r0
 1580              	.LVL175:
 1581 0032 F3E7     		b	.L110
 1582              		.cfi_endproc
 1583              	.LFE166:
 1585              		.section	.text.VL53L0X_GetSequenceStepEnables,"ax",%progbits
 1586              		.align	1
 1587              		.global	VL53L0X_GetSequenceStepEnables
 1588              		.syntax unified
 1589              		.thumb
 1590              		.thumb_func
 1591              		.fpu fpv4-sp-d16
 1593              	VL53L0X_GetSequenceStepEnables:
 1594              	.LFB167:
1181:Drivers/VL53L0X/API/vl53l0x_api.c **** 
1182:Drivers/VL53L0X/API/vl53l0x_api.c **** VL53L0X_Error VL53L0X_GetSequenceStepEnables(VL53L0X_DEV Dev,
1183:Drivers/VL53L0X/API/vl53l0x_api.c **** 	VL53L0X_SchedulerSequenceSteps_t *pSchedulerSequenceSteps)
1184:Drivers/VL53L0X/API/vl53l0x_api.c **** {
ARM GAS  /tmp/ccq7BpOX.s 			page 49


 1595              		.loc 1 1184 0
 1596              		.cfi_startproc
 1597              		@ args = 0, pretend = 0, frame = 8
 1598              		@ frame_needed = 0, uses_anonymous_args = 0
 1599              	.LVL176:
 1600 0000 30B5     		push	{r4, r5, lr}
 1601              	.LCFI39:
 1602              		.cfi_def_cfa_offset 12
 1603              		.cfi_offset 4, -12
 1604              		.cfi_offset 5, -8
 1605              		.cfi_offset 14, -4
 1606 0002 83B0     		sub	sp, sp, #12
 1607              	.LCFI40:
 1608              		.cfi_def_cfa_offset 24
 1609 0004 0446     		mov	r4, r0
 1610 0006 0D46     		mov	r5, r1
 1611              	.LVL177:
1185:Drivers/VL53L0X/API/vl53l0x_api.c **** 	VL53L0X_Error Status = VL53L0X_ERROR_NONE;
1186:Drivers/VL53L0X/API/vl53l0x_api.c **** 	uint8_t SequenceConfig = 0;
 1612              		.loc 1 1186 0
 1613 0008 02AA     		add	r2, sp, #8
 1614 000a 0023     		movs	r3, #0
 1615 000c 02F8013D 		strb	r3, [r2, #-1]!
1187:Drivers/VL53L0X/API/vl53l0x_api.c **** 	LOG_FUNCTION_START("");
1188:Drivers/VL53L0X/API/vl53l0x_api.c **** 
1189:Drivers/VL53L0X/API/vl53l0x_api.c **** 	Status = VL53L0X_RdByte(Dev, VL53L0X_REG_SYSTEM_SEQUENCE_CONFIG,
 1616              		.loc 1 1189 0
 1617 0010 0121     		movs	r1, #1
 1618              	.LVL178:
 1619 0012 FFF7FEFF 		bl	VL53L0X_RdByte
 1620              	.LVL179:
1190:Drivers/VL53L0X/API/vl53l0x_api.c **** 		&SequenceConfig);
1191:Drivers/VL53L0X/API/vl53l0x_api.c **** 
1192:Drivers/VL53L0X/API/vl53l0x_api.c **** 	if (Status == VL53L0X_ERROR_NONE) {
 1621              		.loc 1 1192 0
 1622 0016 0346     		mov	r3, r0
 1623 0018 30B1     		cbz	r0, .L120
 1624              	.LVL180:
 1625              	.L114:
1193:Drivers/VL53L0X/API/vl53l0x_api.c **** 		Status = sequence_step_enabled(Dev,
1194:Drivers/VL53L0X/API/vl53l0x_api.c **** 		VL53L0X_SEQUENCESTEP_TCC, SequenceConfig,
1195:Drivers/VL53L0X/API/vl53l0x_api.c **** 			&pSchedulerSequenceSteps->TccOn);
1196:Drivers/VL53L0X/API/vl53l0x_api.c **** 	}
1197:Drivers/VL53L0X/API/vl53l0x_api.c **** 	if (Status == VL53L0X_ERROR_NONE) {
 1626              		.loc 1 1197 0
 1627 001a 73B1     		cbz	r3, .L121
 1628              	.L115:
1198:Drivers/VL53L0X/API/vl53l0x_api.c **** 		Status = sequence_step_enabled(Dev,
1199:Drivers/VL53L0X/API/vl53l0x_api.c **** 		VL53L0X_SEQUENCESTEP_DSS, SequenceConfig,
1200:Drivers/VL53L0X/API/vl53l0x_api.c **** 			&pSchedulerSequenceSteps->DssOn);
1201:Drivers/VL53L0X/API/vl53l0x_api.c **** 	}
1202:Drivers/VL53L0X/API/vl53l0x_api.c **** 	if (Status == VL53L0X_ERROR_NONE) {
 1629              		.loc 1 1202 0
 1630 001c B3B1     		cbz	r3, .L122
 1631              	.L116:
1203:Drivers/VL53L0X/API/vl53l0x_api.c **** 		Status = sequence_step_enabled(Dev,
1204:Drivers/VL53L0X/API/vl53l0x_api.c **** 		VL53L0X_SEQUENCESTEP_MSRC, SequenceConfig,
ARM GAS  /tmp/ccq7BpOX.s 			page 50


1205:Drivers/VL53L0X/API/vl53l0x_api.c **** 			&pSchedulerSequenceSteps->MsrcOn);
1206:Drivers/VL53L0X/API/vl53l0x_api.c **** 	}
1207:Drivers/VL53L0X/API/vl53l0x_api.c **** 	if (Status == VL53L0X_ERROR_NONE) {
 1632              		.loc 1 1207 0
 1633 001e F3B1     		cbz	r3, .L123
 1634              	.L117:
1208:Drivers/VL53L0X/API/vl53l0x_api.c **** 		Status = sequence_step_enabled(Dev,
1209:Drivers/VL53L0X/API/vl53l0x_api.c **** 		VL53L0X_SEQUENCESTEP_PRE_RANGE, SequenceConfig,
1210:Drivers/VL53L0X/API/vl53l0x_api.c **** 			&pSchedulerSequenceSteps->PreRangeOn);
1211:Drivers/VL53L0X/API/vl53l0x_api.c **** 	}
1212:Drivers/VL53L0X/API/vl53l0x_api.c **** 	if (Status == VL53L0X_ERROR_NONE) {
 1635              		.loc 1 1212 0
 1636 0020 33B3     		cbz	r3, .L124
 1637              	.L118:
1213:Drivers/VL53L0X/API/vl53l0x_api.c **** 		Status = sequence_step_enabled(Dev,
1214:Drivers/VL53L0X/API/vl53l0x_api.c **** 		VL53L0X_SEQUENCESTEP_FINAL_RANGE, SequenceConfig,
1215:Drivers/VL53L0X/API/vl53l0x_api.c **** 			&pSchedulerSequenceSteps->FinalRangeOn);
1216:Drivers/VL53L0X/API/vl53l0x_api.c **** 	}
1217:Drivers/VL53L0X/API/vl53l0x_api.c **** 
1218:Drivers/VL53L0X/API/vl53l0x_api.c **** 	LOG_FUNCTION_END(Status);
1219:Drivers/VL53L0X/API/vl53l0x_api.c **** 	return Status;
1220:Drivers/VL53L0X/API/vl53l0x_api.c **** }
 1638              		.loc 1 1220 0
 1639 0022 1846     		mov	r0, r3
 1640 0024 03B0     		add	sp, sp, #12
 1641              	.LCFI41:
 1642              		.cfi_remember_state
 1643              		.cfi_def_cfa_offset 12
 1644              		@ sp needed
 1645 0026 30BD     		pop	{r4, r5, pc}
 1646              	.LVL181:
 1647              	.L120:
 1648              	.LCFI42:
 1649              		.cfi_restore_state
1193:Drivers/VL53L0X/API/vl53l0x_api.c **** 		VL53L0X_SEQUENCESTEP_TCC, SequenceConfig,
 1650              		.loc 1 1193 0
 1651 0028 2B46     		mov	r3, r5
 1652 002a 9DF80720 		ldrb	r2, [sp, #7]	@ zero_extendqisi2
 1653 002e 0021     		movs	r1, #0
 1654 0030 2046     		mov	r0, r4
 1655              	.LVL182:
 1656 0032 FFF7FEFF 		bl	sequence_step_enabled
 1657              	.LVL183:
 1658 0036 0346     		mov	r3, r0
 1659              	.LVL184:
 1660 0038 EFE7     		b	.L114
 1661              	.L121:
1198:Drivers/VL53L0X/API/vl53l0x_api.c **** 		VL53L0X_SEQUENCESTEP_DSS, SequenceConfig,
 1662              		.loc 1 1198 0
 1663 003a AB1C     		adds	r3, r5, #2
 1664              	.LVL185:
 1665 003c 9DF80720 		ldrb	r2, [sp, #7]	@ zero_extendqisi2
 1666 0040 0121     		movs	r1, #1
 1667 0042 2046     		mov	r0, r4
 1668 0044 FFF7FEFF 		bl	sequence_step_enabled
 1669              	.LVL186:
 1670 0048 0346     		mov	r3, r0
ARM GAS  /tmp/ccq7BpOX.s 			page 51


 1671              	.LVL187:
 1672 004a E7E7     		b	.L115
 1673              	.L122:
1203:Drivers/VL53L0X/API/vl53l0x_api.c **** 		VL53L0X_SEQUENCESTEP_MSRC, SequenceConfig,
 1674              		.loc 1 1203 0
 1675 004c 6B1C     		adds	r3, r5, #1
 1676              	.LVL188:
 1677 004e 9DF80720 		ldrb	r2, [sp, #7]	@ zero_extendqisi2
 1678 0052 0221     		movs	r1, #2
 1679 0054 2046     		mov	r0, r4
 1680 0056 FFF7FEFF 		bl	sequence_step_enabled
 1681              	.LVL189:
 1682 005a 0346     		mov	r3, r0
 1683              	.LVL190:
 1684 005c DFE7     		b	.L116
 1685              	.L123:
1208:Drivers/VL53L0X/API/vl53l0x_api.c **** 		VL53L0X_SEQUENCESTEP_PRE_RANGE, SequenceConfig,
 1686              		.loc 1 1208 0
 1687 005e EB1C     		adds	r3, r5, #3
 1688              	.LVL191:
 1689 0060 9DF80720 		ldrb	r2, [sp, #7]	@ zero_extendqisi2
 1690 0064 0321     		movs	r1, #3
 1691 0066 2046     		mov	r0, r4
 1692 0068 FFF7FEFF 		bl	sequence_step_enabled
 1693              	.LVL192:
 1694 006c 0346     		mov	r3, r0
 1695              	.LVL193:
 1696 006e D7E7     		b	.L117
 1697              	.L124:
1213:Drivers/VL53L0X/API/vl53l0x_api.c **** 		VL53L0X_SEQUENCESTEP_FINAL_RANGE, SequenceConfig,
 1698              		.loc 1 1213 0
 1699 0070 2B1D     		adds	r3, r5, #4
 1700              	.LVL194:
 1701 0072 9DF80720 		ldrb	r2, [sp, #7]	@ zero_extendqisi2
 1702 0076 0421     		movs	r1, #4
 1703 0078 2046     		mov	r0, r4
 1704 007a FFF7FEFF 		bl	sequence_step_enabled
 1705              	.LVL195:
 1706 007e 0346     		mov	r3, r0
 1707              	.LVL196:
 1708 0080 CFE7     		b	.L118
 1709              		.cfi_endproc
 1710              	.LFE167:
 1712              		.section	.text.VL53L0X_GetNumberOfSequenceSteps,"ax",%progbits
 1713              		.align	1
 1714              		.global	VL53L0X_GetNumberOfSequenceSteps
 1715              		.syntax unified
 1716              		.thumb
 1717              		.thumb_func
 1718              		.fpu fpv4-sp-d16
 1720              	VL53L0X_GetNumberOfSequenceSteps:
 1721              	.LFB168:
1221:Drivers/VL53L0X/API/vl53l0x_api.c **** 
1222:Drivers/VL53L0X/API/vl53l0x_api.c **** VL53L0X_Error VL53L0X_GetNumberOfSequenceSteps(VL53L0X_DEV Dev,
1223:Drivers/VL53L0X/API/vl53l0x_api.c **** 	uint8_t *pNumberOfSequenceSteps)
1224:Drivers/VL53L0X/API/vl53l0x_api.c **** {
 1722              		.loc 1 1224 0
ARM GAS  /tmp/ccq7BpOX.s 			page 52


 1723              		.cfi_startproc
 1724              		@ args = 0, pretend = 0, frame = 0
 1725              		@ frame_needed = 0, uses_anonymous_args = 0
 1726              		@ link register save eliminated.
 1727              	.LVL197:
1225:Drivers/VL53L0X/API/vl53l0x_api.c **** 	VL53L0X_Error Status = VL53L0X_ERROR_NONE;
1226:Drivers/VL53L0X/API/vl53l0x_api.c **** 	LOG_FUNCTION_START("");
1227:Drivers/VL53L0X/API/vl53l0x_api.c **** 
1228:Drivers/VL53L0X/API/vl53l0x_api.c **** 	*pNumberOfSequenceSteps = VL53L0X_SEQUENCESTEP_NUMBER_OF_CHECKS;
 1728              		.loc 1 1228 0
 1729 0000 0523     		movs	r3, #5
 1730 0002 0B70     		strb	r3, [r1]
1229:Drivers/VL53L0X/API/vl53l0x_api.c **** 
1230:Drivers/VL53L0X/API/vl53l0x_api.c **** 	LOG_FUNCTION_END(Status);
1231:Drivers/VL53L0X/API/vl53l0x_api.c **** 	return Status;
1232:Drivers/VL53L0X/API/vl53l0x_api.c **** }
 1731              		.loc 1 1232 0
 1732 0004 0020     		movs	r0, #0
 1733              	.LVL198:
 1734 0006 7047     		bx	lr
 1735              		.cfi_endproc
 1736              	.LFE168:
 1738              		.section	.text.VL53L0X_GetSequenceStepsInfo,"ax",%progbits
 1739              		.align	1
 1740              		.global	VL53L0X_GetSequenceStepsInfo
 1741              		.syntax unified
 1742              		.thumb
 1743              		.thumb_func
 1744              		.fpu fpv4-sp-d16
 1746              	VL53L0X_GetSequenceStepsInfo:
 1747              	.LFB169:
1233:Drivers/VL53L0X/API/vl53l0x_api.c **** 
1234:Drivers/VL53L0X/API/vl53l0x_api.c **** VL53L0X_Error VL53L0X_GetSequenceStepsInfo(VL53L0X_SequenceStepId SequenceStepId,
1235:Drivers/VL53L0X/API/vl53l0x_api.c **** 	char *pSequenceStepsString)
1236:Drivers/VL53L0X/API/vl53l0x_api.c **** {
 1748              		.loc 1 1236 0
 1749              		.cfi_startproc
 1750              		@ args = 0, pretend = 0, frame = 0
 1751              		@ frame_needed = 0, uses_anonymous_args = 0
 1752              	.LVL199:
 1753 0000 08B5     		push	{r3, lr}
 1754              	.LCFI43:
 1755              		.cfi_def_cfa_offset 8
 1756              		.cfi_offset 3, -8
 1757              		.cfi_offset 14, -4
 1758              	.LVL200:
1237:Drivers/VL53L0X/API/vl53l0x_api.c **** 	VL53L0X_Error Status = VL53L0X_ERROR_NONE;
1238:Drivers/VL53L0X/API/vl53l0x_api.c **** 	LOG_FUNCTION_START("");
1239:Drivers/VL53L0X/API/vl53l0x_api.c **** 
1240:Drivers/VL53L0X/API/vl53l0x_api.c **** 	Status = VL53L0X_get_sequence_steps_info(
 1759              		.loc 1 1240 0
 1760 0002 FFF7FEFF 		bl	VL53L0X_get_sequence_steps_info
 1761              	.LVL201:
1241:Drivers/VL53L0X/API/vl53l0x_api.c **** 			SequenceStepId,
1242:Drivers/VL53L0X/API/vl53l0x_api.c **** 			pSequenceStepsString);
1243:Drivers/VL53L0X/API/vl53l0x_api.c **** 
1244:Drivers/VL53L0X/API/vl53l0x_api.c **** 	LOG_FUNCTION_END(Status);
ARM GAS  /tmp/ccq7BpOX.s 			page 53


1245:Drivers/VL53L0X/API/vl53l0x_api.c **** 
1246:Drivers/VL53L0X/API/vl53l0x_api.c **** 	return Status;
1247:Drivers/VL53L0X/API/vl53l0x_api.c **** }
 1762              		.loc 1 1247 0
 1763 0006 08BD     		pop	{r3, pc}
 1764              		.cfi_endproc
 1765              	.LFE169:
 1767              		.section	.text.VL53L0X_SetSequenceStepTimeout,"ax",%progbits
 1768              		.align	1
 1769              		.global	VL53L0X_SetSequenceStepTimeout
 1770              		.syntax unified
 1771              		.thumb
 1772              		.thumb_func
 1773              		.fpu fpv4-sp-d16
 1775              	VL53L0X_SetSequenceStepTimeout:
 1776              	.LFB170:
1248:Drivers/VL53L0X/API/vl53l0x_api.c **** 
1249:Drivers/VL53L0X/API/vl53l0x_api.c **** VL53L0X_Error VL53L0X_SetSequenceStepTimeout(VL53L0X_DEV Dev,
1250:Drivers/VL53L0X/API/vl53l0x_api.c **** 	VL53L0X_SequenceStepId SequenceStepId, FixPoint1616_t TimeOutMilliSecs)
1251:Drivers/VL53L0X/API/vl53l0x_api.c **** {
 1777              		.loc 1 1251 0
 1778              		.cfi_startproc
 1779              		@ args = 0, pretend = 0, frame = 8
 1780              		@ frame_needed = 0, uses_anonymous_args = 0
 1781              	.LVL202:
 1782 0000 70B5     		push	{r4, r5, r6, lr}
 1783              	.LCFI44:
 1784              		.cfi_def_cfa_offset 16
 1785              		.cfi_offset 4, -16
 1786              		.cfi_offset 5, -12
 1787              		.cfi_offset 6, -8
 1788              		.cfi_offset 14, -4
 1789 0002 82B0     		sub	sp, sp, #8
 1790              	.LCFI45:
 1791              		.cfi_def_cfa_offset 24
 1792 0004 0546     		mov	r5, r0
 1793 0006 0E46     		mov	r6, r1
 1794              	.LVL203:
1252:Drivers/VL53L0X/API/vl53l0x_api.c **** 	VL53L0X_Error Status = VL53L0X_ERROR_NONE;
1253:Drivers/VL53L0X/API/vl53l0x_api.c **** 	VL53L0X_Error Status1 = VL53L0X_ERROR_NONE;
1254:Drivers/VL53L0X/API/vl53l0x_api.c **** 	uint32_t TimeoutMicroSeconds = ((TimeOutMilliSecs * 1000) + 0x8000)
 1795              		.loc 1 1254 0
 1796 0008 4FF47A73 		mov	r3, #1000
 1797 000c 03FB02F2 		mul	r2, r3, r2
 1798              	.LVL204:
 1799 0010 02F50042 		add	r2, r2, #32768
 1800 0014 140C     		lsrs	r4, r2, #16
 1801              	.LVL205:
1255:Drivers/VL53L0X/API/vl53l0x_api.c **** 		>> 16;
1256:Drivers/VL53L0X/API/vl53l0x_api.c **** 	uint32_t MeasurementTimingBudgetMicroSeconds;
1257:Drivers/VL53L0X/API/vl53l0x_api.c **** 	FixPoint1616_t OldTimeOutMicroSeconds;
1258:Drivers/VL53L0X/API/vl53l0x_api.c **** 
1259:Drivers/VL53L0X/API/vl53l0x_api.c **** 	LOG_FUNCTION_START("");
1260:Drivers/VL53L0X/API/vl53l0x_api.c **** 
1261:Drivers/VL53L0X/API/vl53l0x_api.c **** 	/* Read back the current value in case we need to revert back to this.
1262:Drivers/VL53L0X/API/vl53l0x_api.c **** 	 */
1263:Drivers/VL53L0X/API/vl53l0x_api.c **** 	Status = get_sequence_step_timeout(Dev, SequenceStepId,
ARM GAS  /tmp/ccq7BpOX.s 			page 54


 1802              		.loc 1 1263 0
 1803 0016 01AA     		add	r2, sp, #4
 1804 0018 FFF7FEFF 		bl	get_sequence_step_timeout
 1805              	.LVL206:
1264:Drivers/VL53L0X/API/vl53l0x_api.c **** 		&OldTimeOutMicroSeconds);
1265:Drivers/VL53L0X/API/vl53l0x_api.c **** 
1266:Drivers/VL53L0X/API/vl53l0x_api.c **** 	if (Status == VL53L0X_ERROR_NONE) {
 1806              		.loc 1 1266 0
 1807 001c 0346     		mov	r3, r0
 1808 001e 18B1     		cbz	r0, .L132
 1809              	.LVL207:
 1810              	.L129:
1267:Drivers/VL53L0X/API/vl53l0x_api.c **** 		Status = set_sequence_step_timeout(Dev, SequenceStepId,
1268:Drivers/VL53L0X/API/vl53l0x_api.c **** 			TimeoutMicroSeconds);
1269:Drivers/VL53L0X/API/vl53l0x_api.c **** 	}
1270:Drivers/VL53L0X/API/vl53l0x_api.c **** 
1271:Drivers/VL53L0X/API/vl53l0x_api.c **** 	if (Status == VL53L0X_ERROR_NONE) {
 1811              		.loc 1 1271 0
 1812 0020 4BB1     		cbz	r3, .L133
 1813              	.LVL208:
 1814              	.L130:
1272:Drivers/VL53L0X/API/vl53l0x_api.c **** 		VL53L0X_GETPARAMETERFIELD(Dev,
1273:Drivers/VL53L0X/API/vl53l0x_api.c **** 			MeasurementTimingBudgetMicroSeconds,
1274:Drivers/VL53L0X/API/vl53l0x_api.c **** 			MeasurementTimingBudgetMicroSeconds);
1275:Drivers/VL53L0X/API/vl53l0x_api.c **** 
1276:Drivers/VL53L0X/API/vl53l0x_api.c **** 		/* At this point we don't know if the requested value is valid,
1277:Drivers/VL53L0X/API/vl53l0x_api.c **** 		 therefore proceed to update the entire timing budget and
1278:Drivers/VL53L0X/API/vl53l0x_api.c **** 		 if this fails, revert back to the previous value.
1279:Drivers/VL53L0X/API/vl53l0x_api.c **** 		 */
1280:Drivers/VL53L0X/API/vl53l0x_api.c **** 		Status = VL53L0X_SetMeasurementTimingBudgetMicroSeconds(Dev,
1281:Drivers/VL53L0X/API/vl53l0x_api.c **** 			MeasurementTimingBudgetMicroSeconds);
1282:Drivers/VL53L0X/API/vl53l0x_api.c **** 
1283:Drivers/VL53L0X/API/vl53l0x_api.c **** 		if (Status != VL53L0X_ERROR_NONE) {
1284:Drivers/VL53L0X/API/vl53l0x_api.c **** 			Status1 = set_sequence_step_timeout(Dev, SequenceStepId,
1285:Drivers/VL53L0X/API/vl53l0x_api.c **** 				OldTimeOutMicroSeconds);
1286:Drivers/VL53L0X/API/vl53l0x_api.c **** 
1287:Drivers/VL53L0X/API/vl53l0x_api.c **** 			if (Status1 == VL53L0X_ERROR_NONE) {
1288:Drivers/VL53L0X/API/vl53l0x_api.c **** 				Status1 =
1289:Drivers/VL53L0X/API/vl53l0x_api.c **** 				VL53L0X_SetMeasurementTimingBudgetMicroSeconds(
1290:Drivers/VL53L0X/API/vl53l0x_api.c **** 					Dev,
1291:Drivers/VL53L0X/API/vl53l0x_api.c **** 					MeasurementTimingBudgetMicroSeconds);
1292:Drivers/VL53L0X/API/vl53l0x_api.c **** 			}
1293:Drivers/VL53L0X/API/vl53l0x_api.c **** 
1294:Drivers/VL53L0X/API/vl53l0x_api.c **** 			Status = Status1;
1295:Drivers/VL53L0X/API/vl53l0x_api.c **** 		}
1296:Drivers/VL53L0X/API/vl53l0x_api.c **** 	}
1297:Drivers/VL53L0X/API/vl53l0x_api.c **** 
1298:Drivers/VL53L0X/API/vl53l0x_api.c **** 	LOG_FUNCTION_END(Status);
1299:Drivers/VL53L0X/API/vl53l0x_api.c **** 
1300:Drivers/VL53L0X/API/vl53l0x_api.c **** 	return Status;
1301:Drivers/VL53L0X/API/vl53l0x_api.c **** }
 1815              		.loc 1 1301 0
 1816 0022 1846     		mov	r0, r3
 1817 0024 02B0     		add	sp, sp, #8
 1818              	.LCFI46:
 1819              		.cfi_remember_state
 1820              		.cfi_def_cfa_offset 16
ARM GAS  /tmp/ccq7BpOX.s 			page 55


 1821              		@ sp needed
 1822 0026 70BD     		pop	{r4, r5, r6, pc}
 1823              	.LVL209:
 1824              	.L132:
 1825              	.LCFI47:
 1826              		.cfi_restore_state
1267:Drivers/VL53L0X/API/vl53l0x_api.c **** 		Status = set_sequence_step_timeout(Dev, SequenceStepId,
 1827              		.loc 1 1267 0
 1828 0028 2246     		mov	r2, r4
 1829 002a 3146     		mov	r1, r6
 1830 002c 2846     		mov	r0, r5
 1831              	.LVL210:
 1832 002e FFF7FEFF 		bl	set_sequence_step_timeout
 1833              	.LVL211:
 1834 0032 0346     		mov	r3, r0
 1835              	.LVL212:
 1836 0034 F4E7     		b	.L129
 1837              	.L133:
1272:Drivers/VL53L0X/API/vl53l0x_api.c **** 		VL53L0X_GETPARAMETERFIELD(Dev,
 1838              		.loc 1 1272 0
 1839 0036 6C69     		ldr	r4, [r5, #20]
 1840              	.LVL213:
1280:Drivers/VL53L0X/API/vl53l0x_api.c **** 			MeasurementTimingBudgetMicroSeconds);
 1841              		.loc 1 1280 0
 1842 0038 2146     		mov	r1, r4
 1843 003a 2846     		mov	r0, r5
 1844 003c FFF7FEFF 		bl	VL53L0X_SetMeasurementTimingBudgetMicroSeconds
 1845              	.LVL214:
1283:Drivers/VL53L0X/API/vl53l0x_api.c **** 			Status1 = set_sequence_step_timeout(Dev, SequenceStepId,
 1846              		.loc 1 1283 0
 1847 0040 0346     		mov	r3, r0
 1848 0042 0028     		cmp	r0, #0
 1849 0044 EDD0     		beq	.L130
1284:Drivers/VL53L0X/API/vl53l0x_api.c **** 				OldTimeOutMicroSeconds);
 1850              		.loc 1 1284 0
 1851 0046 019A     		ldr	r2, [sp, #4]
 1852 0048 3146     		mov	r1, r6
 1853 004a 2846     		mov	r0, r5
 1854              	.LVL215:
 1855 004c FFF7FEFF 		bl	set_sequence_step_timeout
 1856              	.LVL216:
1287:Drivers/VL53L0X/API/vl53l0x_api.c **** 				Status1 =
 1857              		.loc 1 1287 0
 1858 0050 0346     		mov	r3, r0
 1859 0052 0028     		cmp	r0, #0
 1860 0054 E5D1     		bne	.L130
1288:Drivers/VL53L0X/API/vl53l0x_api.c **** 				VL53L0X_SetMeasurementTimingBudgetMicroSeconds(
 1861              		.loc 1 1288 0
 1862 0056 2146     		mov	r1, r4
 1863 0058 2846     		mov	r0, r5
 1864              	.LVL217:
 1865 005a FFF7FEFF 		bl	VL53L0X_SetMeasurementTimingBudgetMicroSeconds
 1866              	.LVL218:
 1867 005e 0346     		mov	r3, r0
 1868              	.LVL219:
 1869 0060 DFE7     		b	.L130
 1870              		.cfi_endproc
ARM GAS  /tmp/ccq7BpOX.s 			page 56


 1871              	.LFE170:
 1873              		.section	.text.VL53L0X_GetSequenceStepTimeout,"ax",%progbits
 1874              		.align	1
 1875              		.global	VL53L0X_GetSequenceStepTimeout
 1876              		.syntax unified
 1877              		.thumb
 1878              		.thumb_func
 1879              		.fpu fpv4-sp-d16
 1881              	VL53L0X_GetSequenceStepTimeout:
 1882              	.LFB171:
1302:Drivers/VL53L0X/API/vl53l0x_api.c **** 
1303:Drivers/VL53L0X/API/vl53l0x_api.c **** VL53L0X_Error VL53L0X_GetSequenceStepTimeout(VL53L0X_DEV Dev,
1304:Drivers/VL53L0X/API/vl53l0x_api.c **** 	VL53L0X_SequenceStepId SequenceStepId, FixPoint1616_t *pTimeOutMilliSecs)
1305:Drivers/VL53L0X/API/vl53l0x_api.c **** {
 1883              		.loc 1 1305 0
 1884              		.cfi_startproc
 1885              		@ args = 0, pretend = 0, frame = 8
 1886              		@ frame_needed = 0, uses_anonymous_args = 0
 1887              	.LVL220:
 1888 0000 10B5     		push	{r4, lr}
 1889              	.LCFI48:
 1890              		.cfi_def_cfa_offset 8
 1891              		.cfi_offset 4, -8
 1892              		.cfi_offset 14, -4
 1893 0002 82B0     		sub	sp, sp, #8
 1894              	.LCFI49:
 1895              		.cfi_def_cfa_offset 16
 1896 0004 1446     		mov	r4, r2
 1897              	.LVL221:
1306:Drivers/VL53L0X/API/vl53l0x_api.c **** 	VL53L0X_Error Status = VL53L0X_ERROR_NONE;
1307:Drivers/VL53L0X/API/vl53l0x_api.c **** 	uint32_t TimeoutMicroSeconds;
1308:Drivers/VL53L0X/API/vl53l0x_api.c **** 	LOG_FUNCTION_START("");
1309:Drivers/VL53L0X/API/vl53l0x_api.c **** 
1310:Drivers/VL53L0X/API/vl53l0x_api.c **** 	Status = get_sequence_step_timeout(Dev, SequenceStepId,
 1898              		.loc 1 1310 0
 1899 0006 01AA     		add	r2, sp, #4
 1900              	.LVL222:
 1901 0008 FFF7FEFF 		bl	get_sequence_step_timeout
 1902              	.LVL223:
1311:Drivers/VL53L0X/API/vl53l0x_api.c **** 		&TimeoutMicroSeconds);
1312:Drivers/VL53L0X/API/vl53l0x_api.c **** 	if (Status == VL53L0X_ERROR_NONE) {
 1903              		.loc 1 1312 0
 1904 000c 0246     		mov	r2, r0
 1905 000e 48B9     		cbnz	r0, .L135
1313:Drivers/VL53L0X/API/vl53l0x_api.c **** 		TimeoutMicroSeconds <<= 8;
 1906              		.loc 1 1313 0
 1907 0010 019B     		ldr	r3, [sp, #4]
 1908 0012 1B02     		lsls	r3, r3, #8
1314:Drivers/VL53L0X/API/vl53l0x_api.c **** 		*pTimeOutMilliSecs = (TimeoutMicroSeconds + 500)/1000;
 1909              		.loc 1 1314 0
 1910 0014 03F5FA73 		add	r3, r3, #500
 1911 0018 0449     		ldr	r1, .L137
 1912 001a A1FB0313 		umull	r1, r3, r1, r3
 1913 001e 9B09     		lsrs	r3, r3, #6
1315:Drivers/VL53L0X/API/vl53l0x_api.c **** 		*pTimeOutMilliSecs <<= 8;
 1914              		.loc 1 1315 0
 1915 0020 1B02     		lsls	r3, r3, #8
ARM GAS  /tmp/ccq7BpOX.s 			page 57


 1916 0022 2360     		str	r3, [r4]
 1917              	.L135:
1316:Drivers/VL53L0X/API/vl53l0x_api.c **** 	}
1317:Drivers/VL53L0X/API/vl53l0x_api.c **** 
1318:Drivers/VL53L0X/API/vl53l0x_api.c **** 	LOG_FUNCTION_END(Status);
1319:Drivers/VL53L0X/API/vl53l0x_api.c **** 	return Status;
1320:Drivers/VL53L0X/API/vl53l0x_api.c **** }
 1918              		.loc 1 1320 0
 1919 0024 1046     		mov	r0, r2
 1920              	.LVL224:
 1921 0026 02B0     		add	sp, sp, #8
 1922              	.LCFI50:
 1923              		.cfi_def_cfa_offset 8
 1924              		@ sp needed
 1925 0028 10BD     		pop	{r4, pc}
 1926              	.LVL225:
 1927              	.L138:
 1928 002a 00BF     		.align	2
 1929              	.L137:
 1930 002c D34D6210 		.word	274877907
 1931              		.cfi_endproc
 1932              	.LFE171:
 1934              		.section	.text.VL53L0X_SetInterMeasurementPeriodMilliSeconds,"ax",%progbits
 1935              		.align	1
 1936              		.global	VL53L0X_SetInterMeasurementPeriodMilliSeconds
 1937              		.syntax unified
 1938              		.thumb
 1939              		.thumb_func
 1940              		.fpu fpv4-sp-d16
 1942              	VL53L0X_SetInterMeasurementPeriodMilliSeconds:
 1943              	.LFB172:
1321:Drivers/VL53L0X/API/vl53l0x_api.c **** 
1322:Drivers/VL53L0X/API/vl53l0x_api.c **** VL53L0X_Error VL53L0X_SetInterMeasurementPeriodMilliSeconds(VL53L0X_DEV Dev,
1323:Drivers/VL53L0X/API/vl53l0x_api.c **** 	uint32_t InterMeasurementPeriodMilliSeconds)
1324:Drivers/VL53L0X/API/vl53l0x_api.c **** {
 1944              		.loc 1 1324 0
 1945              		.cfi_startproc
 1946              		@ args = 0, pretend = 0, frame = 8
 1947              		@ frame_needed = 0, uses_anonymous_args = 0
 1948              	.LVL226:
 1949 0000 30B5     		push	{r4, r5, lr}
 1950              	.LCFI51:
 1951              		.cfi_def_cfa_offset 12
 1952              		.cfi_offset 4, -12
 1953              		.cfi_offset 5, -8
 1954              		.cfi_offset 14, -4
 1955 0002 83B0     		sub	sp, sp, #12
 1956              	.LCFI52:
 1957              		.cfi_def_cfa_offset 24
 1958 0004 0446     		mov	r4, r0
 1959 0006 0D46     		mov	r5, r1
 1960              	.LVL227:
1325:Drivers/VL53L0X/API/vl53l0x_api.c **** 	VL53L0X_Error Status = VL53L0X_ERROR_NONE;
1326:Drivers/VL53L0X/API/vl53l0x_api.c **** 	uint16_t osc_calibrate_val;
1327:Drivers/VL53L0X/API/vl53l0x_api.c **** 	uint32_t IMPeriodMilliSeconds;
1328:Drivers/VL53L0X/API/vl53l0x_api.c **** 
1329:Drivers/VL53L0X/API/vl53l0x_api.c **** 	LOG_FUNCTION_START("");
ARM GAS  /tmp/ccq7BpOX.s 			page 58


1330:Drivers/VL53L0X/API/vl53l0x_api.c **** 
1331:Drivers/VL53L0X/API/vl53l0x_api.c **** 	Status = VL53L0X_RdWord(Dev, VL53L0X_REG_OSC_CALIBRATE_VAL,
 1961              		.loc 1 1331 0
 1962 0008 0DF10602 		add	r2, sp, #6
 1963 000c F821     		movs	r1, #248
 1964              	.LVL228:
 1965 000e FFF7FEFF 		bl	VL53L0X_RdWord
 1966              	.LVL229:
1332:Drivers/VL53L0X/API/vl53l0x_api.c **** 		&osc_calibrate_val);
1333:Drivers/VL53L0X/API/vl53l0x_api.c **** 
1334:Drivers/VL53L0X/API/vl53l0x_api.c **** 	if (Status == VL53L0X_ERROR_NONE) {
 1967              		.loc 1 1334 0
 1968 0012 0346     		mov	r3, r0
 1969 0014 48B9     		cbnz	r0, .L140
1335:Drivers/VL53L0X/API/vl53l0x_api.c **** 		if (osc_calibrate_val != 0) {
 1970              		.loc 1 1335 0
 1971 0016 BDF80620 		ldrh	r2, [sp, #6]
 1972 001a 5AB1     		cbz	r2, .L143
1336:Drivers/VL53L0X/API/vl53l0x_api.c **** 			IMPeriodMilliSeconds =
 1973              		.loc 1 1336 0
 1974 001c 05FB02F2 		mul	r2, r5, r2
 1975              	.LVL230:
 1976              	.L141:
1337:Drivers/VL53L0X/API/vl53l0x_api.c **** 				InterMeasurementPeriodMilliSeconds
1338:Drivers/VL53L0X/API/vl53l0x_api.c **** 					* osc_calibrate_val;
1339:Drivers/VL53L0X/API/vl53l0x_api.c **** 		} else {
1340:Drivers/VL53L0X/API/vl53l0x_api.c **** 			IMPeriodMilliSeconds =
1341:Drivers/VL53L0X/API/vl53l0x_api.c **** 				InterMeasurementPeriodMilliSeconds;
1342:Drivers/VL53L0X/API/vl53l0x_api.c **** 		}
1343:Drivers/VL53L0X/API/vl53l0x_api.c **** 		Status = VL53L0X_WrDWord(Dev,
 1977              		.loc 1 1343 0
 1978 0020 0421     		movs	r1, #4
 1979 0022 2046     		mov	r0, r4
 1980              	.LVL231:
 1981 0024 FFF7FEFF 		bl	VL53L0X_WrDWord
 1982              	.LVL232:
 1983 0028 0346     		mov	r3, r0
 1984              	.LVL233:
 1985              	.L140:
1344:Drivers/VL53L0X/API/vl53l0x_api.c **** 		VL53L0X_REG_SYSTEM_INTERMEASUREMENT_PERIOD,
1345:Drivers/VL53L0X/API/vl53l0x_api.c **** 			IMPeriodMilliSeconds);
1346:Drivers/VL53L0X/API/vl53l0x_api.c **** 	}
1347:Drivers/VL53L0X/API/vl53l0x_api.c **** 
1348:Drivers/VL53L0X/API/vl53l0x_api.c **** 	if (Status == VL53L0X_ERROR_NONE) {
 1986              		.loc 1 1348 0
 1987 002a 03B9     		cbnz	r3, .L142
1349:Drivers/VL53L0X/API/vl53l0x_api.c **** 		VL53L0X_SETPARAMETERFIELD(Dev,
 1988              		.loc 1 1349 0
 1989 002c A561     		str	r5, [r4, #24]
 1990              	.L142:
1350:Drivers/VL53L0X/API/vl53l0x_api.c **** 			InterMeasurementPeriodMilliSeconds,
1351:Drivers/VL53L0X/API/vl53l0x_api.c **** 			InterMeasurementPeriodMilliSeconds);
1352:Drivers/VL53L0X/API/vl53l0x_api.c **** 	}
1353:Drivers/VL53L0X/API/vl53l0x_api.c **** 
1354:Drivers/VL53L0X/API/vl53l0x_api.c **** 	LOG_FUNCTION_END(Status);
1355:Drivers/VL53L0X/API/vl53l0x_api.c **** 	return Status;
1356:Drivers/VL53L0X/API/vl53l0x_api.c **** }
ARM GAS  /tmp/ccq7BpOX.s 			page 59


 1991              		.loc 1 1356 0
 1992 002e 1846     		mov	r0, r3
 1993 0030 03B0     		add	sp, sp, #12
 1994              	.LCFI53:
 1995              		.cfi_remember_state
 1996              		.cfi_def_cfa_offset 12
 1997              		@ sp needed
 1998 0032 30BD     		pop	{r4, r5, pc}
 1999              	.LVL234:
 2000              	.L143:
 2001              	.LCFI54:
 2002              		.cfi_restore_state
1340:Drivers/VL53L0X/API/vl53l0x_api.c **** 				InterMeasurementPeriodMilliSeconds;
 2003              		.loc 1 1340 0
 2004 0034 2A46     		mov	r2, r5
 2005 0036 F3E7     		b	.L141
 2006              		.cfi_endproc
 2007              	.LFE172:
 2009              		.section	.text.VL53L0X_GetInterMeasurementPeriodMilliSeconds,"ax",%progbits
 2010              		.align	1
 2011              		.global	VL53L0X_GetInterMeasurementPeriodMilliSeconds
 2012              		.syntax unified
 2013              		.thumb
 2014              		.thumb_func
 2015              		.fpu fpv4-sp-d16
 2017              	VL53L0X_GetInterMeasurementPeriodMilliSeconds:
 2018              	.LFB173:
1357:Drivers/VL53L0X/API/vl53l0x_api.c **** 
1358:Drivers/VL53L0X/API/vl53l0x_api.c **** VL53L0X_Error VL53L0X_GetInterMeasurementPeriodMilliSeconds(VL53L0X_DEV Dev,
1359:Drivers/VL53L0X/API/vl53l0x_api.c **** 	uint32_t *pInterMeasurementPeriodMilliSeconds)
1360:Drivers/VL53L0X/API/vl53l0x_api.c **** {
 2019              		.loc 1 1360 0
 2020              		.cfi_startproc
 2021              		@ args = 0, pretend = 0, frame = 8
 2022              		@ frame_needed = 0, uses_anonymous_args = 0
 2023              	.LVL235:
 2024 0000 30B5     		push	{r4, r5, lr}
 2025              	.LCFI55:
 2026              		.cfi_def_cfa_offset 12
 2027              		.cfi_offset 4, -12
 2028              		.cfi_offset 5, -8
 2029              		.cfi_offset 14, -4
 2030 0002 83B0     		sub	sp, sp, #12
 2031              	.LCFI56:
 2032              		.cfi_def_cfa_offset 24
 2033 0004 0446     		mov	r4, r0
 2034 0006 0D46     		mov	r5, r1
 2035              	.LVL236:
1361:Drivers/VL53L0X/API/vl53l0x_api.c **** 	VL53L0X_Error Status = VL53L0X_ERROR_NONE;
1362:Drivers/VL53L0X/API/vl53l0x_api.c **** 	uint16_t osc_calibrate_val;
1363:Drivers/VL53L0X/API/vl53l0x_api.c **** 	uint32_t IMPeriodMilliSeconds;
1364:Drivers/VL53L0X/API/vl53l0x_api.c **** 
1365:Drivers/VL53L0X/API/vl53l0x_api.c **** 	LOG_FUNCTION_START("");
1366:Drivers/VL53L0X/API/vl53l0x_api.c **** 
1367:Drivers/VL53L0X/API/vl53l0x_api.c **** 	Status = VL53L0X_RdWord(Dev, VL53L0X_REG_OSC_CALIBRATE_VAL,
 2036              		.loc 1 1367 0
 2037 0008 0DF10602 		add	r2, sp, #6
ARM GAS  /tmp/ccq7BpOX.s 			page 60


 2038 000c F821     		movs	r1, #248
 2039              	.LVL237:
 2040 000e FFF7FEFF 		bl	VL53L0X_RdWord
 2041              	.LVL238:
1368:Drivers/VL53L0X/API/vl53l0x_api.c **** 		&osc_calibrate_val);
1369:Drivers/VL53L0X/API/vl53l0x_api.c **** 
1370:Drivers/VL53L0X/API/vl53l0x_api.c **** 	if (Status == VL53L0X_ERROR_NONE) {
 2042              		.loc 1 1370 0
 2043 0012 0346     		mov	r3, r0
 2044 0014 60B1     		cbz	r0, .L150
 2045              	.LVL239:
 2046              	.L146:
1371:Drivers/VL53L0X/API/vl53l0x_api.c **** 		Status = VL53L0X_RdDWord(Dev,
1372:Drivers/VL53L0X/API/vl53l0x_api.c **** 		VL53L0X_REG_SYSTEM_INTERMEASUREMENT_PERIOD,
1373:Drivers/VL53L0X/API/vl53l0x_api.c **** 			&IMPeriodMilliSeconds);
1374:Drivers/VL53L0X/API/vl53l0x_api.c **** 	}
1375:Drivers/VL53L0X/API/vl53l0x_api.c **** 
1376:Drivers/VL53L0X/API/vl53l0x_api.c **** 	if (Status == VL53L0X_ERROR_NONE) {
 2047              		.loc 1 1376 0
 2048 0016 43B9     		cbnz	r3, .L147
1377:Drivers/VL53L0X/API/vl53l0x_api.c **** 		if (osc_calibrate_val != 0) {
 2049              		.loc 1 1377 0
 2050 0018 BDF80620 		ldrh	r2, [sp, #6]
 2051 001c 1AB1     		cbz	r2, .L148
1378:Drivers/VL53L0X/API/vl53l0x_api.c **** 			*pInterMeasurementPeriodMilliSeconds =
1379:Drivers/VL53L0X/API/vl53l0x_api.c **** 				IMPeriodMilliSeconds / osc_calibrate_val;
 2052              		.loc 1 1379 0
 2053 001e 0099     		ldr	r1, [sp]
 2054 0020 B1FBF2F2 		udiv	r2, r1, r2
1378:Drivers/VL53L0X/API/vl53l0x_api.c **** 			*pInterMeasurementPeriodMilliSeconds =
 2055              		.loc 1 1378 0
 2056 0024 2A60     		str	r2, [r5]
 2057              	.L148:
1380:Drivers/VL53L0X/API/vl53l0x_api.c **** 		}
1381:Drivers/VL53L0X/API/vl53l0x_api.c **** 		VL53L0X_SETPARAMETERFIELD(Dev,
 2058              		.loc 1 1381 0
 2059 0026 2A68     		ldr	r2, [r5]
 2060 0028 A261     		str	r2, [r4, #24]
 2061              	.L147:
1382:Drivers/VL53L0X/API/vl53l0x_api.c **** 			InterMeasurementPeriodMilliSeconds,
1383:Drivers/VL53L0X/API/vl53l0x_api.c **** 			*pInterMeasurementPeriodMilliSeconds);
1384:Drivers/VL53L0X/API/vl53l0x_api.c **** 	}
1385:Drivers/VL53L0X/API/vl53l0x_api.c **** 
1386:Drivers/VL53L0X/API/vl53l0x_api.c **** 	LOG_FUNCTION_END(Status);
1387:Drivers/VL53L0X/API/vl53l0x_api.c **** 	return Status;
1388:Drivers/VL53L0X/API/vl53l0x_api.c **** }
 2062              		.loc 1 1388 0
 2063 002a 1846     		mov	r0, r3
 2064 002c 03B0     		add	sp, sp, #12
 2065              	.LCFI57:
 2066              		.cfi_remember_state
 2067              		.cfi_def_cfa_offset 12
 2068              		@ sp needed
 2069 002e 30BD     		pop	{r4, r5, pc}
 2070              	.LVL240:
 2071              	.L150:
 2072              	.LCFI58:
ARM GAS  /tmp/ccq7BpOX.s 			page 61


 2073              		.cfi_restore_state
1371:Drivers/VL53L0X/API/vl53l0x_api.c **** 		VL53L0X_REG_SYSTEM_INTERMEASUREMENT_PERIOD,
 2074              		.loc 1 1371 0
 2075 0030 6A46     		mov	r2, sp
 2076 0032 0421     		movs	r1, #4
 2077 0034 2046     		mov	r0, r4
 2078              	.LVL241:
 2079 0036 FFF7FEFF 		bl	VL53L0X_RdDWord
 2080              	.LVL242:
 2081 003a 0346     		mov	r3, r0
 2082              	.LVL243:
 2083 003c EBE7     		b	.L146
 2084              		.cfi_endproc
 2085              	.LFE173:
 2087              		.section	.text.VL53L0X_SetXTalkCompensationEnable,"ax",%progbits
 2088              		.align	1
 2089              		.global	VL53L0X_SetXTalkCompensationEnable
 2090              		.syntax unified
 2091              		.thumb
 2092              		.thumb_func
 2093              		.fpu fpv4-sp-d16
 2095              	VL53L0X_SetXTalkCompensationEnable:
 2096              	.LFB174:
1389:Drivers/VL53L0X/API/vl53l0x_api.c **** 
1390:Drivers/VL53L0X/API/vl53l0x_api.c **** VL53L0X_Error VL53L0X_SetXTalkCompensationEnable(VL53L0X_DEV Dev,
1391:Drivers/VL53L0X/API/vl53l0x_api.c **** 	uint8_t XTalkCompensationEnable)
1392:Drivers/VL53L0X/API/vl53l0x_api.c **** {
 2097              		.loc 1 1392 0
 2098              		.cfi_startproc
 2099              		@ args = 0, pretend = 0, frame = 0
 2100              		@ frame_needed = 0, uses_anonymous_args = 0
 2101              	.LVL244:
 2102 0000 38B5     		push	{r3, r4, r5, lr}
 2103              	.LCFI59:
 2104              		.cfi_def_cfa_offset 16
 2105              		.cfi_offset 3, -16
 2106              		.cfi_offset 4, -12
 2107              		.cfi_offset 5, -8
 2108              		.cfi_offset 14, -4
 2109 0002 0446     		mov	r4, r0
 2110              	.LVL245:
1393:Drivers/VL53L0X/API/vl53l0x_api.c **** 	VL53L0X_Error Status = VL53L0X_ERROR_NONE;
1394:Drivers/VL53L0X/API/vl53l0x_api.c **** 	FixPoint1616_t TempFix1616;
1395:Drivers/VL53L0X/API/vl53l0x_api.c **** 	uint16_t LinearityCorrectiveGain;
1396:Drivers/VL53L0X/API/vl53l0x_api.c **** 
1397:Drivers/VL53L0X/API/vl53l0x_api.c **** 	LOG_FUNCTION_START("");
1398:Drivers/VL53L0X/API/vl53l0x_api.c **** 
1399:Drivers/VL53L0X/API/vl53l0x_api.c **** 	LinearityCorrectiveGain = PALDevDataGet(Dev, LinearityCorrectiveGain);
 2111              		.loc 1 1399 0
 2112 0004 B0F85231 		ldrh	r3, [r0, #338]
 2113              	.LVL246:
1400:Drivers/VL53L0X/API/vl53l0x_api.c **** 
1401:Drivers/VL53L0X/API/vl53l0x_api.c **** 	if ((XTalkCompensationEnable == 0)
 2114              		.loc 1 1401 0
 2115 0008 0D46     		mov	r5, r1
 2116 000a 31B1     		cbz	r1, .L155
1402:Drivers/VL53L0X/API/vl53l0x_api.c **** 		|| (LinearityCorrectiveGain != 1000)) {
ARM GAS  /tmp/ccq7BpOX.s 			page 62


 2117              		.loc 1 1402 0
 2118 000c B3F57A7F 		cmp	r3, #1000
 2119 0010 01D0     		beq	.L158
1403:Drivers/VL53L0X/API/vl53l0x_api.c **** 		TempFix1616 = 0;
 2120              		.loc 1 1403 0
 2121 0012 0022     		movs	r2, #0
 2122 0014 02E0     		b	.L152
 2123              	.L158:
1404:Drivers/VL53L0X/API/vl53l0x_api.c **** 	} else {
1405:Drivers/VL53L0X/API/vl53l0x_api.c **** 		VL53L0X_GETPARAMETERFIELD(Dev, XTalkCompensationRateMegaCps,
 2124              		.loc 1 1405 0
 2125 0016 026A     		ldr	r2, [r0, #32]
 2126              	.LVL247:
 2127 0018 00E0     		b	.L152
 2128              	.LVL248:
 2129              	.L155:
1403:Drivers/VL53L0X/API/vl53l0x_api.c **** 		TempFix1616 = 0;
 2130              		.loc 1 1403 0
 2131 001a 0022     		movs	r2, #0
 2132              	.L152:
 2133              	.LVL249:
1406:Drivers/VL53L0X/API/vl53l0x_api.c **** 			TempFix1616);
1407:Drivers/VL53L0X/API/vl53l0x_api.c **** 	}
1408:Drivers/VL53L0X/API/vl53l0x_api.c **** 
1409:Drivers/VL53L0X/API/vl53l0x_api.c **** 	/* the following register has a format 3.13 */
1410:Drivers/VL53L0X/API/vl53l0x_api.c **** 	Status = VL53L0X_WrWord(Dev,
 2134              		.loc 1 1410 0
 2135 001c C2F3CF02 		ubfx	r2, r2, #3, #16
 2136              	.LVL250:
 2137 0020 2021     		movs	r1, #32
 2138              	.LVL251:
 2139 0022 2046     		mov	r0, r4
 2140              	.LVL252:
 2141 0024 FFF7FEFF 		bl	VL53L0X_WrWord
 2142              	.LVL253:
1411:Drivers/VL53L0X/API/vl53l0x_api.c **** 	VL53L0X_REG_CROSSTALK_COMPENSATION_PEAK_RATE_MCPS,
1412:Drivers/VL53L0X/API/vl53l0x_api.c **** 		VL53L0X_FIXPOINT1616TOFIXPOINT313(TempFix1616));
1413:Drivers/VL53L0X/API/vl53l0x_api.c **** 
1414:Drivers/VL53L0X/API/vl53l0x_api.c **** 	if (Status == VL53L0X_ERROR_NONE) {
 2143              		.loc 1 1414 0
 2144 0028 0346     		mov	r3, r0
 2145 002a 10B9     		cbnz	r0, .L153
1415:Drivers/VL53L0X/API/vl53l0x_api.c **** 		if (XTalkCompensationEnable == 0) {
 2146              		.loc 1 1415 0
 2147 002c 1DB1     		cbz	r5, .L159
1416:Drivers/VL53L0X/API/vl53l0x_api.c **** 			VL53L0X_SETPARAMETERFIELD(Dev, XTalkCompensationEnable,
1417:Drivers/VL53L0X/API/vl53l0x_api.c **** 				0);
1418:Drivers/VL53L0X/API/vl53l0x_api.c **** 		} else {
1419:Drivers/VL53L0X/API/vl53l0x_api.c **** 			VL53L0X_SETPARAMETERFIELD(Dev, XTalkCompensationEnable,
 2148              		.loc 1 1419 0
 2149 002e 0122     		movs	r2, #1
 2150 0030 2277     		strb	r2, [r4, #28]
 2151              	.L153:
1420:Drivers/VL53L0X/API/vl53l0x_api.c **** 				1);
1421:Drivers/VL53L0X/API/vl53l0x_api.c **** 		}
1422:Drivers/VL53L0X/API/vl53l0x_api.c **** 	}
1423:Drivers/VL53L0X/API/vl53l0x_api.c **** 
ARM GAS  /tmp/ccq7BpOX.s 			page 63


1424:Drivers/VL53L0X/API/vl53l0x_api.c **** 	LOG_FUNCTION_END(Status);
1425:Drivers/VL53L0X/API/vl53l0x_api.c **** 	return Status;
1426:Drivers/VL53L0X/API/vl53l0x_api.c **** }
 2152              		.loc 1 1426 0
 2153 0032 1846     		mov	r0, r3
 2154              	.LVL254:
 2155 0034 38BD     		pop	{r3, r4, r5, pc}
 2156              	.LVL255:
 2157              	.L159:
1416:Drivers/VL53L0X/API/vl53l0x_api.c **** 			VL53L0X_SETPARAMETERFIELD(Dev, XTalkCompensationEnable,
 2158              		.loc 1 1416 0
 2159 0036 0022     		movs	r2, #0
 2160 0038 2277     		strb	r2, [r4, #28]
 2161 003a FAE7     		b	.L153
 2162              		.cfi_endproc
 2163              	.LFE174:
 2165              		.section	.text.VL53L0X_GetXTalkCompensationEnable,"ax",%progbits
 2166              		.align	1
 2167              		.global	VL53L0X_GetXTalkCompensationEnable
 2168              		.syntax unified
 2169              		.thumb
 2170              		.thumb_func
 2171              		.fpu fpv4-sp-d16
 2173              	VL53L0X_GetXTalkCompensationEnable:
 2174              	.LFB175:
1427:Drivers/VL53L0X/API/vl53l0x_api.c **** 
1428:Drivers/VL53L0X/API/vl53l0x_api.c **** VL53L0X_Error VL53L0X_GetXTalkCompensationEnable(VL53L0X_DEV Dev,
1429:Drivers/VL53L0X/API/vl53l0x_api.c **** 	uint8_t *pXTalkCompensationEnable)
1430:Drivers/VL53L0X/API/vl53l0x_api.c **** {
 2175              		.loc 1 1430 0
 2176              		.cfi_startproc
 2177              		@ args = 0, pretend = 0, frame = 0
 2178              		@ frame_needed = 0, uses_anonymous_args = 0
 2179              		@ link register save eliminated.
 2180              	.LVL256:
1431:Drivers/VL53L0X/API/vl53l0x_api.c **** 	VL53L0X_Error Status = VL53L0X_ERROR_NONE;
1432:Drivers/VL53L0X/API/vl53l0x_api.c **** 	uint8_t Temp8;
1433:Drivers/VL53L0X/API/vl53l0x_api.c **** 	LOG_FUNCTION_START("");
1434:Drivers/VL53L0X/API/vl53l0x_api.c **** 
1435:Drivers/VL53L0X/API/vl53l0x_api.c **** 	VL53L0X_GETPARAMETERFIELD(Dev, XTalkCompensationEnable, Temp8);
 2181              		.loc 1 1435 0
 2182 0000 037F     		ldrb	r3, [r0, #28]	@ zero_extendqisi2
 2183              	.LVL257:
1436:Drivers/VL53L0X/API/vl53l0x_api.c **** 	*pXTalkCompensationEnable = Temp8;
 2184              		.loc 1 1436 0
 2185 0002 0B70     		strb	r3, [r1]
1437:Drivers/VL53L0X/API/vl53l0x_api.c **** 
1438:Drivers/VL53L0X/API/vl53l0x_api.c **** 	LOG_FUNCTION_END(Status);
1439:Drivers/VL53L0X/API/vl53l0x_api.c **** 	return Status;
1440:Drivers/VL53L0X/API/vl53l0x_api.c **** }
 2186              		.loc 1 1440 0
 2187 0004 0020     		movs	r0, #0
 2188              	.LVL258:
 2189 0006 7047     		bx	lr
 2190              		.cfi_endproc
 2191              	.LFE175:
 2193              		.section	.text.VL53L0X_SetXTalkCompensationRateMegaCps,"ax",%progbits
ARM GAS  /tmp/ccq7BpOX.s 			page 64


 2194              		.align	1
 2195              		.global	VL53L0X_SetXTalkCompensationRateMegaCps
 2196              		.syntax unified
 2197              		.thumb
 2198              		.thumb_func
 2199              		.fpu fpv4-sp-d16
 2201              	VL53L0X_SetXTalkCompensationRateMegaCps:
 2202              	.LFB176:
1441:Drivers/VL53L0X/API/vl53l0x_api.c **** 
1442:Drivers/VL53L0X/API/vl53l0x_api.c **** VL53L0X_Error VL53L0X_SetXTalkCompensationRateMegaCps(VL53L0X_DEV Dev,
1443:Drivers/VL53L0X/API/vl53l0x_api.c **** 	FixPoint1616_t XTalkCompensationRateMegaCps)
1444:Drivers/VL53L0X/API/vl53l0x_api.c **** {
 2203              		.loc 1 1444 0
 2204              		.cfi_startproc
 2205              		@ args = 0, pretend = 0, frame = 0
 2206              		@ frame_needed = 0, uses_anonymous_args = 0
 2207              	.LVL259:
 2208 0000 38B5     		push	{r3, r4, r5, lr}
 2209              	.LCFI60:
 2210              		.cfi_def_cfa_offset 16
 2211              		.cfi_offset 3, -16
 2212              		.cfi_offset 4, -12
 2213              		.cfi_offset 5, -8
 2214              		.cfi_offset 14, -4
 2215              	.LVL260:
1445:Drivers/VL53L0X/API/vl53l0x_api.c **** 	VL53L0X_Error Status = VL53L0X_ERROR_NONE;
1446:Drivers/VL53L0X/API/vl53l0x_api.c **** 	uint8_t Temp8;
1447:Drivers/VL53L0X/API/vl53l0x_api.c **** 	uint16_t LinearityCorrectiveGain;
1448:Drivers/VL53L0X/API/vl53l0x_api.c **** 	uint16_t data;
1449:Drivers/VL53L0X/API/vl53l0x_api.c **** 	LOG_FUNCTION_START("");
1450:Drivers/VL53L0X/API/vl53l0x_api.c **** 
1451:Drivers/VL53L0X/API/vl53l0x_api.c **** 	VL53L0X_GETPARAMETERFIELD(Dev, XTalkCompensationEnable, Temp8);
 2216              		.loc 1 1451 0
 2217 0002 037F     		ldrb	r3, [r0, #28]	@ zero_extendqisi2
 2218              	.LVL261:
1452:Drivers/VL53L0X/API/vl53l0x_api.c **** 	LinearityCorrectiveGain = PALDevDataGet(Dev, LinearityCorrectiveGain);
 2219              		.loc 1 1452 0
 2220 0004 B0F85221 		ldrh	r2, [r0, #338]
 2221              	.LVL262:
1453:Drivers/VL53L0X/API/vl53l0x_api.c **** 
1454:Drivers/VL53L0X/API/vl53l0x_api.c **** 	if (Temp8 == 0) { /* disabled write only internal value */
 2222              		.loc 1 1454 0
 2223 0008 63B1     		cbz	r3, .L167
1455:Drivers/VL53L0X/API/vl53l0x_api.c **** 		VL53L0X_SETPARAMETERFIELD(Dev, XTalkCompensationRateMegaCps,
1456:Drivers/VL53L0X/API/vl53l0x_api.c **** 			XTalkCompensationRateMegaCps);
1457:Drivers/VL53L0X/API/vl53l0x_api.c **** 	} else {
1458:Drivers/VL53L0X/API/vl53l0x_api.c **** 		/* the following register has a format 3.13 */
1459:Drivers/VL53L0X/API/vl53l0x_api.c **** 		if (LinearityCorrectiveGain == 1000) {
 2224              		.loc 1 1459 0
 2225 000a B2F57A7F 		cmp	r2, #1000
 2226 000e 0CD0     		beq	.L168
1460:Drivers/VL53L0X/API/vl53l0x_api.c **** 			data = VL53L0X_FIXPOINT1616TOFIXPOINT313(
1461:Drivers/VL53L0X/API/vl53l0x_api.c **** 				XTalkCompensationRateMegaCps);
1462:Drivers/VL53L0X/API/vl53l0x_api.c **** 		} else {
1463:Drivers/VL53L0X/API/vl53l0x_api.c **** 			data = 0;
 2227              		.loc 1 1463 0
 2228 0010 0022     		movs	r2, #0
ARM GAS  /tmp/ccq7BpOX.s 			page 65


 2229              	.LVL263:
 2230              	.L164:
 2231 0012 0D46     		mov	r5, r1
 2232 0014 0446     		mov	r4, r0
 2233              	.LVL264:
1464:Drivers/VL53L0X/API/vl53l0x_api.c **** 		}
1465:Drivers/VL53L0X/API/vl53l0x_api.c **** 
1466:Drivers/VL53L0X/API/vl53l0x_api.c **** 		Status = VL53L0X_WrWord(Dev,
 2234              		.loc 1 1466 0
 2235 0016 2021     		movs	r1, #32
 2236              	.LVL265:
 2237 0018 FFF7FEFF 		bl	VL53L0X_WrWord
 2238              	.LVL266:
1467:Drivers/VL53L0X/API/vl53l0x_api.c **** 		VL53L0X_REG_CROSSTALK_COMPENSATION_PEAK_RATE_MCPS, data);
1468:Drivers/VL53L0X/API/vl53l0x_api.c **** 
1469:Drivers/VL53L0X/API/vl53l0x_api.c **** 		if (Status == VL53L0X_ERROR_NONE) {
 2239              		.loc 1 1469 0
 2240 001c 0346     		mov	r3, r0
 2241 001e 10B9     		cbnz	r0, .L163
1470:Drivers/VL53L0X/API/vl53l0x_api.c **** 			VL53L0X_SETPARAMETERFIELD(Dev,
 2242              		.loc 1 1470 0
 2243 0020 2562     		str	r5, [r4, #32]
 2244 0022 00E0     		b	.L163
 2245              	.LVL267:
 2246              	.L167:
1455:Drivers/VL53L0X/API/vl53l0x_api.c **** 			XTalkCompensationRateMegaCps);
 2247              		.loc 1 1455 0
 2248 0024 0162     		str	r1, [r0, #32]
 2249              	.LVL268:
 2250              	.L163:
1471:Drivers/VL53L0X/API/vl53l0x_api.c **** 				XTalkCompensationRateMegaCps,
1472:Drivers/VL53L0X/API/vl53l0x_api.c **** 				XTalkCompensationRateMegaCps);
1473:Drivers/VL53L0X/API/vl53l0x_api.c **** 		}
1474:Drivers/VL53L0X/API/vl53l0x_api.c **** 	}
1475:Drivers/VL53L0X/API/vl53l0x_api.c **** 
1476:Drivers/VL53L0X/API/vl53l0x_api.c **** 	LOG_FUNCTION_END(Status);
1477:Drivers/VL53L0X/API/vl53l0x_api.c **** 	return Status;
1478:Drivers/VL53L0X/API/vl53l0x_api.c **** }
 2251              		.loc 1 1478 0
 2252 0026 1846     		mov	r0, r3
 2253 0028 38BD     		pop	{r3, r4, r5, pc}
 2254              	.LVL269:
 2255              	.L168:
1460:Drivers/VL53L0X/API/vl53l0x_api.c **** 				XTalkCompensationRateMegaCps);
 2256              		.loc 1 1460 0
 2257 002a C1F3CF02 		ubfx	r2, r1, #3, #16
 2258              	.LVL270:
 2259 002e F0E7     		b	.L164
 2260              		.cfi_endproc
 2261              	.LFE176:
 2263              		.section	.text.VL53L0X_GetXTalkCompensationRateMegaCps,"ax",%progbits
 2264              		.align	1
 2265              		.global	VL53L0X_GetXTalkCompensationRateMegaCps
 2266              		.syntax unified
 2267              		.thumb
 2268              		.thumb_func
 2269              		.fpu fpv4-sp-d16
ARM GAS  /tmp/ccq7BpOX.s 			page 66


 2271              	VL53L0X_GetXTalkCompensationRateMegaCps:
 2272              	.LFB177:
1479:Drivers/VL53L0X/API/vl53l0x_api.c **** 
1480:Drivers/VL53L0X/API/vl53l0x_api.c **** VL53L0X_Error VL53L0X_GetXTalkCompensationRateMegaCps(VL53L0X_DEV Dev,
1481:Drivers/VL53L0X/API/vl53l0x_api.c **** 	FixPoint1616_t *pXTalkCompensationRateMegaCps)
1482:Drivers/VL53L0X/API/vl53l0x_api.c **** {
 2273              		.loc 1 1482 0
 2274              		.cfi_startproc
 2275              		@ args = 0, pretend = 0, frame = 8
 2276              		@ frame_needed = 0, uses_anonymous_args = 0
 2277              	.LVL271:
 2278 0000 30B5     		push	{r4, r5, lr}
 2279              	.LCFI61:
 2280              		.cfi_def_cfa_offset 12
 2281              		.cfi_offset 4, -12
 2282              		.cfi_offset 5, -8
 2283              		.cfi_offset 14, -4
 2284 0002 83B0     		sub	sp, sp, #12
 2285              	.LCFI62:
 2286              		.cfi_def_cfa_offset 24
 2287 0004 0446     		mov	r4, r0
 2288 0006 0D46     		mov	r5, r1
 2289              	.LVL272:
1483:Drivers/VL53L0X/API/vl53l0x_api.c **** 	VL53L0X_Error Status = VL53L0X_ERROR_NONE;
1484:Drivers/VL53L0X/API/vl53l0x_api.c **** 	uint16_t Value;
1485:Drivers/VL53L0X/API/vl53l0x_api.c **** 	FixPoint1616_t TempFix1616;
1486:Drivers/VL53L0X/API/vl53l0x_api.c **** 
1487:Drivers/VL53L0X/API/vl53l0x_api.c **** 	LOG_FUNCTION_START("");
1488:Drivers/VL53L0X/API/vl53l0x_api.c **** 
1489:Drivers/VL53L0X/API/vl53l0x_api.c **** 	Status = VL53L0X_RdWord(Dev,
 2290              		.loc 1 1489 0
 2291 0008 0DF10602 		add	r2, sp, #6
 2292 000c 2021     		movs	r1, #32
 2293              	.LVL273:
 2294 000e FFF7FEFF 		bl	VL53L0X_RdWord
 2295              	.LVL274:
1490:Drivers/VL53L0X/API/vl53l0x_api.c **** 	VL53L0X_REG_CROSSTALK_COMPENSATION_PEAK_RATE_MCPS, (uint16_t *)&Value);
1491:Drivers/VL53L0X/API/vl53l0x_api.c **** 	if (Status == VL53L0X_ERROR_NONE) {
 2296              		.loc 1 1491 0
 2297 0012 0246     		mov	r2, r0
 2298 0014 38B9     		cbnz	r0, .L170
1492:Drivers/VL53L0X/API/vl53l0x_api.c **** 		if (Value == 0) {
 2299              		.loc 1 1492 0
 2300 0016 BDF80630 		ldrh	r3, [sp, #6]
 2301 001a 3BB1     		cbz	r3, .L173
1493:Drivers/VL53L0X/API/vl53l0x_api.c **** 			/* the Xtalk is disabled return value from memory */
1494:Drivers/VL53L0X/API/vl53l0x_api.c **** 			VL53L0X_GETPARAMETERFIELD(Dev,
1495:Drivers/VL53L0X/API/vl53l0x_api.c **** 				XTalkCompensationRateMegaCps, TempFix1616);
1496:Drivers/VL53L0X/API/vl53l0x_api.c **** 			*pXTalkCompensationRateMegaCps = TempFix1616;
1497:Drivers/VL53L0X/API/vl53l0x_api.c **** 			VL53L0X_SETPARAMETERFIELD(Dev, XTalkCompensationEnable,
1498:Drivers/VL53L0X/API/vl53l0x_api.c **** 				0);
1499:Drivers/VL53L0X/API/vl53l0x_api.c **** 		} else {
1500:Drivers/VL53L0X/API/vl53l0x_api.c **** 			TempFix1616 = VL53L0X_FIXPOINT313TOFIXPOINT1616(Value);
 2302              		.loc 1 1500 0
 2303 001c DB00     		lsls	r3, r3, #3
 2304              	.LVL275:
1501:Drivers/VL53L0X/API/vl53l0x_api.c **** 			*pXTalkCompensationRateMegaCps = TempFix1616;
ARM GAS  /tmp/ccq7BpOX.s 			page 67


 2305              		.loc 1 1501 0
 2306 001e 2B60     		str	r3, [r5]
1502:Drivers/VL53L0X/API/vl53l0x_api.c **** 			VL53L0X_SETPARAMETERFIELD(Dev,
 2307              		.loc 1 1502 0
 2308 0020 2362     		str	r3, [r4, #32]
1503:Drivers/VL53L0X/API/vl53l0x_api.c **** 				XTalkCompensationRateMegaCps, TempFix1616);
1504:Drivers/VL53L0X/API/vl53l0x_api.c **** 			VL53L0X_SETPARAMETERFIELD(Dev, XTalkCompensationEnable,
 2309              		.loc 1 1504 0
 2310 0022 0123     		movs	r3, #1
 2311              	.LVL276:
 2312 0024 2377     		strb	r3, [r4, #28]
 2313              	.LVL277:
 2314              	.L170:
1505:Drivers/VL53L0X/API/vl53l0x_api.c **** 				1);
1506:Drivers/VL53L0X/API/vl53l0x_api.c **** 		}
1507:Drivers/VL53L0X/API/vl53l0x_api.c **** 	}
1508:Drivers/VL53L0X/API/vl53l0x_api.c **** 
1509:Drivers/VL53L0X/API/vl53l0x_api.c **** 	LOG_FUNCTION_END(Status);
1510:Drivers/VL53L0X/API/vl53l0x_api.c **** 	return Status;
1511:Drivers/VL53L0X/API/vl53l0x_api.c **** }
 2315              		.loc 1 1511 0
 2316 0026 1046     		mov	r0, r2
 2317              	.LVL278:
 2318 0028 03B0     		add	sp, sp, #12
 2319              	.LCFI63:
 2320              		.cfi_remember_state
 2321              		.cfi_def_cfa_offset 12
 2322              		@ sp needed
 2323 002a 30BD     		pop	{r4, r5, pc}
 2324              	.LVL279:
 2325              	.L173:
 2326              	.LCFI64:
 2327              		.cfi_restore_state
1494:Drivers/VL53L0X/API/vl53l0x_api.c **** 				XTalkCompensationRateMegaCps, TempFix1616);
 2328              		.loc 1 1494 0
 2329 002c 236A     		ldr	r3, [r4, #32]
 2330              	.LVL280:
1496:Drivers/VL53L0X/API/vl53l0x_api.c **** 			VL53L0X_SETPARAMETERFIELD(Dev, XTalkCompensationEnable,
 2331              		.loc 1 1496 0
 2332 002e 2B60     		str	r3, [r5]
1497:Drivers/VL53L0X/API/vl53l0x_api.c **** 				0);
 2333              		.loc 1 1497 0
 2334 0030 0023     		movs	r3, #0
 2335              	.LVL281:
 2336 0032 2377     		strb	r3, [r4, #28]
 2337              	.LVL282:
 2338 0034 F7E7     		b	.L170
 2339              		.cfi_endproc
 2340              	.LFE177:
 2342              		.section	.text.VL53L0X_SetRefCalibration,"ax",%progbits
 2343              		.align	1
 2344              		.global	VL53L0X_SetRefCalibration
 2345              		.syntax unified
 2346              		.thumb
 2347              		.thumb_func
 2348              		.fpu fpv4-sp-d16
 2350              	VL53L0X_SetRefCalibration:
ARM GAS  /tmp/ccq7BpOX.s 			page 68


 2351              	.LFB178:
1512:Drivers/VL53L0X/API/vl53l0x_api.c **** 
1513:Drivers/VL53L0X/API/vl53l0x_api.c **** VL53L0X_Error VL53L0X_SetRefCalibration(VL53L0X_DEV Dev, uint8_t VhvSettings,
1514:Drivers/VL53L0X/API/vl53l0x_api.c **** 	uint8_t PhaseCal)
1515:Drivers/VL53L0X/API/vl53l0x_api.c **** {
 2352              		.loc 1 1515 0
 2353              		.cfi_startproc
 2354              		@ args = 0, pretend = 0, frame = 0
 2355              		@ frame_needed = 0, uses_anonymous_args = 0
 2356              	.LVL283:
 2357 0000 08B5     		push	{r3, lr}
 2358              	.LCFI65:
 2359              		.cfi_def_cfa_offset 8
 2360              		.cfi_offset 3, -8
 2361              		.cfi_offset 14, -4
 2362              	.LVL284:
1516:Drivers/VL53L0X/API/vl53l0x_api.c **** 	VL53L0X_Error Status = VL53L0X_ERROR_NONE;
1517:Drivers/VL53L0X/API/vl53l0x_api.c **** 	LOG_FUNCTION_START("");
1518:Drivers/VL53L0X/API/vl53l0x_api.c **** 
1519:Drivers/VL53L0X/API/vl53l0x_api.c **** 	Status = VL53L0X_set_ref_calibration(Dev, VhvSettings, PhaseCal);
 2363              		.loc 1 1519 0
 2364 0002 FFF7FEFF 		bl	VL53L0X_set_ref_calibration
 2365              	.LVL285:
1520:Drivers/VL53L0X/API/vl53l0x_api.c **** 
1521:Drivers/VL53L0X/API/vl53l0x_api.c **** 	LOG_FUNCTION_END(Status);
1522:Drivers/VL53L0X/API/vl53l0x_api.c **** 	return Status;
1523:Drivers/VL53L0X/API/vl53l0x_api.c **** }
 2366              		.loc 1 1523 0
 2367 0006 08BD     		pop	{r3, pc}
 2368              		.cfi_endproc
 2369              	.LFE178:
 2371              		.section	.text.VL53L0X_GetRefCalibration,"ax",%progbits
 2372              		.align	1
 2373              		.global	VL53L0X_GetRefCalibration
 2374              		.syntax unified
 2375              		.thumb
 2376              		.thumb_func
 2377              		.fpu fpv4-sp-d16
 2379              	VL53L0X_GetRefCalibration:
 2380              	.LFB179:
1524:Drivers/VL53L0X/API/vl53l0x_api.c **** 
1525:Drivers/VL53L0X/API/vl53l0x_api.c **** VL53L0X_Error VL53L0X_GetRefCalibration(VL53L0X_DEV Dev, uint8_t *pVhvSettings,
1526:Drivers/VL53L0X/API/vl53l0x_api.c **** 	uint8_t *pPhaseCal)
1527:Drivers/VL53L0X/API/vl53l0x_api.c **** {
 2381              		.loc 1 1527 0
 2382              		.cfi_startproc
 2383              		@ args = 0, pretend = 0, frame = 0
 2384              		@ frame_needed = 0, uses_anonymous_args = 0
 2385              	.LVL286:
 2386 0000 08B5     		push	{r3, lr}
 2387              	.LCFI66:
 2388              		.cfi_def_cfa_offset 8
 2389              		.cfi_offset 3, -8
 2390              		.cfi_offset 14, -4
 2391              	.LVL287:
1528:Drivers/VL53L0X/API/vl53l0x_api.c **** 	VL53L0X_Error Status = VL53L0X_ERROR_NONE;
1529:Drivers/VL53L0X/API/vl53l0x_api.c **** 	LOG_FUNCTION_START("");
ARM GAS  /tmp/ccq7BpOX.s 			page 69


1530:Drivers/VL53L0X/API/vl53l0x_api.c **** 
1531:Drivers/VL53L0X/API/vl53l0x_api.c **** 	Status = VL53L0X_get_ref_calibration(Dev, pVhvSettings, pPhaseCal);
 2392              		.loc 1 1531 0
 2393 0002 FFF7FEFF 		bl	VL53L0X_get_ref_calibration
 2394              	.LVL288:
1532:Drivers/VL53L0X/API/vl53l0x_api.c **** 
1533:Drivers/VL53L0X/API/vl53l0x_api.c **** 	LOG_FUNCTION_END(Status);
1534:Drivers/VL53L0X/API/vl53l0x_api.c **** 	return Status;
1535:Drivers/VL53L0X/API/vl53l0x_api.c **** }
 2395              		.loc 1 1535 0
 2396 0006 08BD     		pop	{r3, pc}
 2397              		.cfi_endproc
 2398              	.LFE179:
 2400              		.section	.text.VL53L0X_GetNumberOfLimitCheck,"ax",%progbits
 2401              		.align	1
 2402              		.global	VL53L0X_GetNumberOfLimitCheck
 2403              		.syntax unified
 2404              		.thumb
 2405              		.thumb_func
 2406              		.fpu fpv4-sp-d16
 2408              	VL53L0X_GetNumberOfLimitCheck:
 2409              	.LFB180:
1536:Drivers/VL53L0X/API/vl53l0x_api.c **** 
1537:Drivers/VL53L0X/API/vl53l0x_api.c **** /*
1538:Drivers/VL53L0X/API/vl53l0x_api.c ****  * CHECK LIMIT FUNCTIONS
1539:Drivers/VL53L0X/API/vl53l0x_api.c ****  */
1540:Drivers/VL53L0X/API/vl53l0x_api.c **** 
1541:Drivers/VL53L0X/API/vl53l0x_api.c **** VL53L0X_Error VL53L0X_GetNumberOfLimitCheck(uint16_t *pNumberOfLimitCheck)
1542:Drivers/VL53L0X/API/vl53l0x_api.c **** {
 2410              		.loc 1 1542 0
 2411              		.cfi_startproc
 2412              		@ args = 0, pretend = 0, frame = 0
 2413              		@ frame_needed = 0, uses_anonymous_args = 0
 2414              		@ link register save eliminated.
 2415              	.LVL289:
1543:Drivers/VL53L0X/API/vl53l0x_api.c **** 	VL53L0X_Error Status = VL53L0X_ERROR_NONE;
1544:Drivers/VL53L0X/API/vl53l0x_api.c **** 	LOG_FUNCTION_START("");
1545:Drivers/VL53L0X/API/vl53l0x_api.c **** 
1546:Drivers/VL53L0X/API/vl53l0x_api.c **** 	*pNumberOfLimitCheck = VL53L0X_CHECKENABLE_NUMBER_OF_CHECKS;
 2416              		.loc 1 1546 0
 2417 0000 0623     		movs	r3, #6
 2418 0002 0380     		strh	r3, [r0]	@ movhi
1547:Drivers/VL53L0X/API/vl53l0x_api.c **** 
1548:Drivers/VL53L0X/API/vl53l0x_api.c **** 	LOG_FUNCTION_END(Status);
1549:Drivers/VL53L0X/API/vl53l0x_api.c **** 	return Status;
1550:Drivers/VL53L0X/API/vl53l0x_api.c **** }
 2419              		.loc 1 1550 0
 2420 0004 0020     		movs	r0, #0
 2421              	.LVL290:
 2422 0006 7047     		bx	lr
 2423              		.cfi_endproc
 2424              	.LFE180:
 2426              		.section	.text.VL53L0X_GetLimitCheckInfo,"ax",%progbits
 2427              		.align	1
 2428              		.global	VL53L0X_GetLimitCheckInfo
 2429              		.syntax unified
 2430              		.thumb
ARM GAS  /tmp/ccq7BpOX.s 			page 70


 2431              		.thumb_func
 2432              		.fpu fpv4-sp-d16
 2434              	VL53L0X_GetLimitCheckInfo:
 2435              	.LFB181:
1551:Drivers/VL53L0X/API/vl53l0x_api.c **** 
1552:Drivers/VL53L0X/API/vl53l0x_api.c **** VL53L0X_Error VL53L0X_GetLimitCheckInfo(VL53L0X_DEV Dev, uint16_t LimitCheckId,
1553:Drivers/VL53L0X/API/vl53l0x_api.c **** 	char *pLimitCheckString)
1554:Drivers/VL53L0X/API/vl53l0x_api.c **** {
 2436              		.loc 1 1554 0
 2437              		.cfi_startproc
 2438              		@ args = 0, pretend = 0, frame = 0
 2439              		@ frame_needed = 0, uses_anonymous_args = 0
 2440              	.LVL291:
 2441 0000 08B5     		push	{r3, lr}
 2442              	.LCFI67:
 2443              		.cfi_def_cfa_offset 8
 2444              		.cfi_offset 3, -8
 2445              		.cfi_offset 14, -4
 2446              	.LVL292:
1555:Drivers/VL53L0X/API/vl53l0x_api.c **** 	VL53L0X_Error Status = VL53L0X_ERROR_NONE;
1556:Drivers/VL53L0X/API/vl53l0x_api.c **** 
1557:Drivers/VL53L0X/API/vl53l0x_api.c **** 	LOG_FUNCTION_START("");
1558:Drivers/VL53L0X/API/vl53l0x_api.c **** 
1559:Drivers/VL53L0X/API/vl53l0x_api.c **** 	Status = VL53L0X_get_limit_check_info(Dev, LimitCheckId,
 2447              		.loc 1 1559 0
 2448 0002 FFF7FEFF 		bl	VL53L0X_get_limit_check_info
 2449              	.LVL293:
1560:Drivers/VL53L0X/API/vl53l0x_api.c **** 		pLimitCheckString);
1561:Drivers/VL53L0X/API/vl53l0x_api.c **** 
1562:Drivers/VL53L0X/API/vl53l0x_api.c **** 	LOG_FUNCTION_END(Status);
1563:Drivers/VL53L0X/API/vl53l0x_api.c **** 	return Status;
1564:Drivers/VL53L0X/API/vl53l0x_api.c **** }
 2450              		.loc 1 1564 0
 2451 0006 08BD     		pop	{r3, pc}
 2452              		.cfi_endproc
 2453              	.LFE181:
 2455              		.section	.text.VL53L0X_GetLimitCheckStatus,"ax",%progbits
 2456              		.align	1
 2457              		.global	VL53L0X_GetLimitCheckStatus
 2458              		.syntax unified
 2459              		.thumb
 2460              		.thumb_func
 2461              		.fpu fpv4-sp-d16
 2463              	VL53L0X_GetLimitCheckStatus:
 2464              	.LFB182:
1565:Drivers/VL53L0X/API/vl53l0x_api.c **** 
1566:Drivers/VL53L0X/API/vl53l0x_api.c **** VL53L0X_Error VL53L0X_GetLimitCheckStatus(VL53L0X_DEV Dev, uint16_t LimitCheckId,
1567:Drivers/VL53L0X/API/vl53l0x_api.c **** 	uint8_t *pLimitCheckStatus)
1568:Drivers/VL53L0X/API/vl53l0x_api.c **** {
 2465              		.loc 1 1568 0
 2466              		.cfi_startproc
 2467              		@ args = 0, pretend = 0, frame = 0
 2468              		@ frame_needed = 0, uses_anonymous_args = 0
 2469              		@ link register save eliminated.
 2470              	.LVL294:
1569:Drivers/VL53L0X/API/vl53l0x_api.c **** 	VL53L0X_Error Status = VL53L0X_ERROR_NONE;
1570:Drivers/VL53L0X/API/vl53l0x_api.c **** 	uint8_t Temp8;
ARM GAS  /tmp/ccq7BpOX.s 			page 71


1571:Drivers/VL53L0X/API/vl53l0x_api.c **** 
1572:Drivers/VL53L0X/API/vl53l0x_api.c **** 	LOG_FUNCTION_START("");
1573:Drivers/VL53L0X/API/vl53l0x_api.c **** 
1574:Drivers/VL53L0X/API/vl53l0x_api.c **** 	if (LimitCheckId >= VL53L0X_CHECKENABLE_NUMBER_OF_CHECKS) {
 2471              		.loc 1 1574 0
 2472 0000 0529     		cmp	r1, #5
 2473 0002 05D8     		bhi	.L183
1575:Drivers/VL53L0X/API/vl53l0x_api.c **** 		Status = VL53L0X_ERROR_INVALID_PARAMS;
1576:Drivers/VL53L0X/API/vl53l0x_api.c **** 	} else {
1577:Drivers/VL53L0X/API/vl53l0x_api.c **** 
1578:Drivers/VL53L0X/API/vl53l0x_api.c **** 		VL53L0X_GETARRAYPARAMETERFIELD(Dev, LimitChecksStatus,
 2474              		.loc 1 1578 0
 2475 0004 0844     		add	r0, r0, r1
 2476              	.LVL295:
 2477 0006 90F82E30 		ldrb	r3, [r0, #46]	@ zero_extendqisi2
 2478              	.LVL296:
1579:Drivers/VL53L0X/API/vl53l0x_api.c **** 			LimitCheckId, Temp8);
1580:Drivers/VL53L0X/API/vl53l0x_api.c **** 
1581:Drivers/VL53L0X/API/vl53l0x_api.c **** 		*pLimitCheckStatus = Temp8;
 2479              		.loc 1 1581 0
 2480 000a 1370     		strb	r3, [r2]
1569:Drivers/VL53L0X/API/vl53l0x_api.c **** 	uint8_t Temp8;
 2481              		.loc 1 1569 0
 2482 000c 0020     		movs	r0, #0
 2483 000e 7047     		bx	lr
 2484              	.LVL297:
 2485              	.L183:
1575:Drivers/VL53L0X/API/vl53l0x_api.c **** 		Status = VL53L0X_ERROR_INVALID_PARAMS;
 2486              		.loc 1 1575 0
 2487 0010 6FF00300 		mvn	r0, #3
 2488              	.LVL298:
1582:Drivers/VL53L0X/API/vl53l0x_api.c **** 
1583:Drivers/VL53L0X/API/vl53l0x_api.c **** 	}
1584:Drivers/VL53L0X/API/vl53l0x_api.c **** 
1585:Drivers/VL53L0X/API/vl53l0x_api.c **** 	LOG_FUNCTION_END(Status);
1586:Drivers/VL53L0X/API/vl53l0x_api.c **** 	return Status;
1587:Drivers/VL53L0X/API/vl53l0x_api.c **** }
 2489              		.loc 1 1587 0
 2490 0014 7047     		bx	lr
 2491              		.cfi_endproc
 2492              	.LFE182:
 2494              		.section	.text.VL53L0X_SetLimitCheckEnable,"ax",%progbits
 2495              		.align	1
 2496              		.global	VL53L0X_SetLimitCheckEnable
 2497              		.syntax unified
 2498              		.thumb
 2499              		.thumb_func
 2500              		.fpu fpv4-sp-d16
 2502              	VL53L0X_SetLimitCheckEnable:
 2503              	.LFB183:
1588:Drivers/VL53L0X/API/vl53l0x_api.c **** 
1589:Drivers/VL53L0X/API/vl53l0x_api.c **** VL53L0X_Error VL53L0X_SetLimitCheckEnable(VL53L0X_DEV Dev, uint16_t LimitCheckId,
1590:Drivers/VL53L0X/API/vl53l0x_api.c **** 	uint8_t LimitCheckEnable)
1591:Drivers/VL53L0X/API/vl53l0x_api.c **** {
 2504              		.loc 1 1591 0
 2505              		.cfi_startproc
 2506              		@ args = 0, pretend = 0, frame = 0
ARM GAS  /tmp/ccq7BpOX.s 			page 72


 2507              		@ frame_needed = 0, uses_anonymous_args = 0
 2508              	.LVL299:
1592:Drivers/VL53L0X/API/vl53l0x_api.c **** 	VL53L0X_Error Status = VL53L0X_ERROR_NONE;
1593:Drivers/VL53L0X/API/vl53l0x_api.c **** 	FixPoint1616_t TempFix1616 = 0;
1594:Drivers/VL53L0X/API/vl53l0x_api.c **** 	uint8_t LimitCheckEnableInt = 0;
1595:Drivers/VL53L0X/API/vl53l0x_api.c **** 	uint8_t LimitCheckDisable = 0;
1596:Drivers/VL53L0X/API/vl53l0x_api.c **** 	uint8_t Temp8;
1597:Drivers/VL53L0X/API/vl53l0x_api.c **** 
1598:Drivers/VL53L0X/API/vl53l0x_api.c **** 	LOG_FUNCTION_START("");
1599:Drivers/VL53L0X/API/vl53l0x_api.c **** 
1600:Drivers/VL53L0X/API/vl53l0x_api.c **** 	if (LimitCheckId >= VL53L0X_CHECKENABLE_NUMBER_OF_CHECKS) {
 2509              		.loc 1 1600 0
 2510 0000 0529     		cmp	r1, #5
 2511 0002 41D8     		bhi	.L197
1591:Drivers/VL53L0X/API/vl53l0x_api.c **** 	VL53L0X_Error Status = VL53L0X_ERROR_NONE;
 2512              		.loc 1 1591 0
 2513 0004 F8B5     		push	{r3, r4, r5, r6, r7, lr}
 2514              	.LCFI68:
 2515              		.cfi_def_cfa_offset 24
 2516              		.cfi_offset 3, -24
 2517              		.cfi_offset 4, -20
 2518              		.cfi_offset 5, -16
 2519              		.cfi_offset 6, -12
 2520              		.cfi_offset 7, -8
 2521              		.cfi_offset 14, -4
1601:Drivers/VL53L0X/API/vl53l0x_api.c **** 		Status = VL53L0X_ERROR_INVALID_PARAMS;
1602:Drivers/VL53L0X/API/vl53l0x_api.c **** 	} else {
1603:Drivers/VL53L0X/API/vl53l0x_api.c **** 		if (LimitCheckEnable == 0) {
 2522              		.loc 1 1603 0
 2523 0006 8AB1     		cbz	r2, .L198
1604:Drivers/VL53L0X/API/vl53l0x_api.c **** 			TempFix1616 = 0;
1605:Drivers/VL53L0X/API/vl53l0x_api.c **** 			LimitCheckEnableInt = 0;
1606:Drivers/VL53L0X/API/vl53l0x_api.c **** 			LimitCheckDisable = 1;
1607:Drivers/VL53L0X/API/vl53l0x_api.c **** 
1608:Drivers/VL53L0X/API/vl53l0x_api.c **** 		} else {
1609:Drivers/VL53L0X/API/vl53l0x_api.c **** 			VL53L0X_GETARRAYPARAMETERFIELD(Dev, LimitChecksValue,
 2524              		.loc 1 1609 0
 2525 0008 01F10C03 		add	r3, r1, #12
 2526 000c 00EB8303 		add	r3, r0, r3, lsl #2
 2527 0010 D3F804C0 		ldr	ip, [r3, #4]
 2528              	.LVL300:
1610:Drivers/VL53L0X/API/vl53l0x_api.c **** 				LimitCheckId, TempFix1616);
1611:Drivers/VL53L0X/API/vl53l0x_api.c **** 			LimitCheckDisable = 0;
 2529              		.loc 1 1611 0
 2530 0014 0023     		movs	r3, #0
1612:Drivers/VL53L0X/API/vl53l0x_api.c **** 			/* this to be sure to have either 0 or 1 */
1613:Drivers/VL53L0X/API/vl53l0x_api.c **** 			LimitCheckEnableInt = 1;
 2531              		.loc 1 1613 0
 2532 0016 0127     		movs	r7, #1
 2533              	.LVL301:
 2534              	.L186:
 2535 0018 1646     		mov	r6, r2
 2536 001a 0C46     		mov	r4, r1
 2537 001c 0546     		mov	r5, r0
 2538              	.LVL302:
1614:Drivers/VL53L0X/API/vl53l0x_api.c **** 		}
1615:Drivers/VL53L0X/API/vl53l0x_api.c **** 
ARM GAS  /tmp/ccq7BpOX.s 			page 73


1616:Drivers/VL53L0X/API/vl53l0x_api.c **** 		switch (LimitCheckId) {
 2539              		.loc 1 1616 0
 2540 001e 0529     		cmp	r1, #5
 2541 0020 35D8     		bhi	.L199
 2542 0022 DFE801F0 		tbb	[pc, r1]
 2543              	.LVL303:
 2544              	.L188:
 2545 0026 08       		.byte	(.L187-.L188)/2
 2546 0027 0C       		.byte	(.L189-.L188)/2
 2547 0028 18       		.byte	(.L190-.L188)/2
 2548 0029 1C       		.byte	(.L191-.L188)/2
 2549 002a 20       		.byte	(.L192-.L188)/2
 2550 002b 26       		.byte	(.L193-.L188)/2
 2551              		.p2align 1
 2552              	.L198:
1605:Drivers/VL53L0X/API/vl53l0x_api.c **** 			LimitCheckDisable = 1;
 2553              		.loc 1 1605 0
 2554 002c 1746     		mov	r7, r2
1606:Drivers/VL53L0X/API/vl53l0x_api.c **** 
 2555              		.loc 1 1606 0
 2556 002e 0123     		movs	r3, #1
1604:Drivers/VL53L0X/API/vl53l0x_api.c **** 			LimitCheckEnableInt = 0;
 2557              		.loc 1 1604 0
 2558 0030 4FF0000C 		mov	ip, #0
 2559 0034 F0E7     		b	.L186
 2560              	.LVL304:
 2561              	.L187:
1617:Drivers/VL53L0X/API/vl53l0x_api.c **** 
1618:Drivers/VL53L0X/API/vl53l0x_api.c **** 		case VL53L0X_CHECKENABLE_SIGMA_FINAL_RANGE:
1619:Drivers/VL53L0X/API/vl53l0x_api.c **** 			/* internal computation: */
1620:Drivers/VL53L0X/API/vl53l0x_api.c **** 			VL53L0X_SETARRAYPARAMETERFIELD(Dev, LimitChecksEnable,
 2562              		.loc 1 1620 0
 2563 0036 80F82870 		strb	r7, [r0, #40]
1592:Drivers/VL53L0X/API/vl53l0x_api.c **** 	FixPoint1616_t TempFix1616 = 0;
 2564              		.loc 1 1592 0
 2565 003a 0020     		movs	r0, #0
 2566              	.LVL305:
 2567 003c 05E0     		b	.L194
 2568              	.LVL306:
 2569              	.L189:
1621:Drivers/VL53L0X/API/vl53l0x_api.c **** 				VL53L0X_CHECKENABLE_SIGMA_FINAL_RANGE,
1622:Drivers/VL53L0X/API/vl53l0x_api.c **** 				LimitCheckEnableInt);
1623:Drivers/VL53L0X/API/vl53l0x_api.c **** 
1624:Drivers/VL53L0X/API/vl53l0x_api.c **** 			break;
1625:Drivers/VL53L0X/API/vl53l0x_api.c **** 
1626:Drivers/VL53L0X/API/vl53l0x_api.c **** 		case VL53L0X_CHECKENABLE_SIGNAL_RATE_FINAL_RANGE:
1627:Drivers/VL53L0X/API/vl53l0x_api.c **** 
1628:Drivers/VL53L0X/API/vl53l0x_api.c **** 			Status = VL53L0X_WrWord(Dev,
 2570              		.loc 1 1628 0
 2571 003e CCF34F22 		ubfx	r2, ip, #9, #16
 2572 0042 4421     		movs	r1, #68
 2573              	.LVL307:
 2574 0044 FFF7FEFF 		bl	VL53L0X_WrWord
 2575              	.LVL308:
 2576              	.L195:
1629:Drivers/VL53L0X/API/vl53l0x_api.c **** 			VL53L0X_REG_FINAL_RANGE_CONFIG_MIN_COUNT_RATE_RTN_LIMIT,
1630:Drivers/VL53L0X/API/vl53l0x_api.c **** 				VL53L0X_FIXPOINT1616TOFIXPOINT97(TempFix1616));
ARM GAS  /tmp/ccq7BpOX.s 			page 74


1631:Drivers/VL53L0X/API/vl53l0x_api.c **** 
1632:Drivers/VL53L0X/API/vl53l0x_api.c **** 			break;
1633:Drivers/VL53L0X/API/vl53l0x_api.c **** 
1634:Drivers/VL53L0X/API/vl53l0x_api.c **** 		case VL53L0X_CHECKENABLE_SIGNAL_REF_CLIP:
1635:Drivers/VL53L0X/API/vl53l0x_api.c **** 
1636:Drivers/VL53L0X/API/vl53l0x_api.c **** 			/* internal computation: */
1637:Drivers/VL53L0X/API/vl53l0x_api.c **** 			VL53L0X_SETARRAYPARAMETERFIELD(Dev, LimitChecksEnable,
1638:Drivers/VL53L0X/API/vl53l0x_api.c **** 				VL53L0X_CHECKENABLE_SIGNAL_REF_CLIP,
1639:Drivers/VL53L0X/API/vl53l0x_api.c **** 				LimitCheckEnableInt);
1640:Drivers/VL53L0X/API/vl53l0x_api.c **** 
1641:Drivers/VL53L0X/API/vl53l0x_api.c **** 			break;
1642:Drivers/VL53L0X/API/vl53l0x_api.c **** 
1643:Drivers/VL53L0X/API/vl53l0x_api.c **** 		case VL53L0X_CHECKENABLE_RANGE_IGNORE_THRESHOLD:
1644:Drivers/VL53L0X/API/vl53l0x_api.c **** 
1645:Drivers/VL53L0X/API/vl53l0x_api.c **** 			/* internal computation: */
1646:Drivers/VL53L0X/API/vl53l0x_api.c **** 			VL53L0X_SETARRAYPARAMETERFIELD(Dev, LimitChecksEnable,
1647:Drivers/VL53L0X/API/vl53l0x_api.c **** 				VL53L0X_CHECKENABLE_RANGE_IGNORE_THRESHOLD,
1648:Drivers/VL53L0X/API/vl53l0x_api.c **** 				LimitCheckEnableInt);
1649:Drivers/VL53L0X/API/vl53l0x_api.c **** 
1650:Drivers/VL53L0X/API/vl53l0x_api.c **** 			break;
1651:Drivers/VL53L0X/API/vl53l0x_api.c **** 
1652:Drivers/VL53L0X/API/vl53l0x_api.c **** 		case VL53L0X_CHECKENABLE_SIGNAL_RATE_MSRC:
1653:Drivers/VL53L0X/API/vl53l0x_api.c **** 
1654:Drivers/VL53L0X/API/vl53l0x_api.c **** 			Temp8 = (uint8_t)(LimitCheckDisable << 1);
1655:Drivers/VL53L0X/API/vl53l0x_api.c **** 			Status = VL53L0X_UpdateByte(Dev,
1656:Drivers/VL53L0X/API/vl53l0x_api.c **** 				VL53L0X_REG_MSRC_CONFIG_CONTROL,
1657:Drivers/VL53L0X/API/vl53l0x_api.c **** 				0xFE, Temp8);
1658:Drivers/VL53L0X/API/vl53l0x_api.c **** 
1659:Drivers/VL53L0X/API/vl53l0x_api.c **** 			break;
1660:Drivers/VL53L0X/API/vl53l0x_api.c **** 
1661:Drivers/VL53L0X/API/vl53l0x_api.c **** 		case VL53L0X_CHECKENABLE_SIGNAL_RATE_PRE_RANGE:
1662:Drivers/VL53L0X/API/vl53l0x_api.c **** 
1663:Drivers/VL53L0X/API/vl53l0x_api.c **** 			Temp8 = (uint8_t)(LimitCheckDisable << 4);
1664:Drivers/VL53L0X/API/vl53l0x_api.c **** 			Status = VL53L0X_UpdateByte(Dev,
1665:Drivers/VL53L0X/API/vl53l0x_api.c **** 				VL53L0X_REG_MSRC_CONFIG_CONTROL,
1666:Drivers/VL53L0X/API/vl53l0x_api.c **** 				0xEF, Temp8);
1667:Drivers/VL53L0X/API/vl53l0x_api.c **** 
1668:Drivers/VL53L0X/API/vl53l0x_api.c **** 			break;
1669:Drivers/VL53L0X/API/vl53l0x_api.c **** 
1670:Drivers/VL53L0X/API/vl53l0x_api.c **** 
1671:Drivers/VL53L0X/API/vl53l0x_api.c **** 		default:
1672:Drivers/VL53L0X/API/vl53l0x_api.c **** 			Status = VL53L0X_ERROR_INVALID_PARAMS;
1673:Drivers/VL53L0X/API/vl53l0x_api.c **** 
1674:Drivers/VL53L0X/API/vl53l0x_api.c **** 		}
1675:Drivers/VL53L0X/API/vl53l0x_api.c **** 
1676:Drivers/VL53L0X/API/vl53l0x_api.c **** 	}
1677:Drivers/VL53L0X/API/vl53l0x_api.c **** 
1678:Drivers/VL53L0X/API/vl53l0x_api.c **** 	if (Status == VL53L0X_ERROR_NONE) {
 2577              		.loc 1 1678 0
 2578 0048 20B9     		cbnz	r0, .L185
 2579              	.LVL309:
 2580              	.L194:
1679:Drivers/VL53L0X/API/vl53l0x_api.c **** 		if (LimitCheckEnable == 0) {
 2581              		.loc 1 1679 0
 2582 004a C6B1     		cbz	r6, .L204
1680:Drivers/VL53L0X/API/vl53l0x_api.c **** 			VL53L0X_SETARRAYPARAMETERFIELD(Dev, LimitChecksEnable,
1681:Drivers/VL53L0X/API/vl53l0x_api.c **** 				LimitCheckId, 0);
ARM GAS  /tmp/ccq7BpOX.s 			page 75


1682:Drivers/VL53L0X/API/vl53l0x_api.c **** 		} else {
1683:Drivers/VL53L0X/API/vl53l0x_api.c **** 			VL53L0X_SETARRAYPARAMETERFIELD(Dev, LimitChecksEnable,
 2583              		.loc 1 1683 0
 2584 004c 2C44     		add	r4, r4, r5
 2585 004e 0123     		movs	r3, #1
 2586 0050 84F82830 		strb	r3, [r4, #40]
 2587              	.L185:
1684:Drivers/VL53L0X/API/vl53l0x_api.c **** 				LimitCheckId, 1);
1685:Drivers/VL53L0X/API/vl53l0x_api.c **** 		}
1686:Drivers/VL53L0X/API/vl53l0x_api.c **** 	}
1687:Drivers/VL53L0X/API/vl53l0x_api.c **** 
1688:Drivers/VL53L0X/API/vl53l0x_api.c **** 	LOG_FUNCTION_END(Status);
1689:Drivers/VL53L0X/API/vl53l0x_api.c **** 	return Status;
1690:Drivers/VL53L0X/API/vl53l0x_api.c **** }
 2588              		.loc 1 1690 0
 2589 0054 F8BD     		pop	{r3, r4, r5, r6, r7, pc}
 2590              	.LVL310:
 2591              	.L190:
1637:Drivers/VL53L0X/API/vl53l0x_api.c **** 				VL53L0X_CHECKENABLE_SIGNAL_REF_CLIP,
 2592              		.loc 1 1637 0
 2593 0056 80F82A70 		strb	r7, [r0, #42]
1592:Drivers/VL53L0X/API/vl53l0x_api.c **** 	FixPoint1616_t TempFix1616 = 0;
 2594              		.loc 1 1592 0
 2595 005a 0020     		movs	r0, #0
 2596              	.LVL311:
 2597 005c F5E7     		b	.L194
 2598              	.LVL312:
 2599              	.L191:
1646:Drivers/VL53L0X/API/vl53l0x_api.c **** 				VL53L0X_CHECKENABLE_RANGE_IGNORE_THRESHOLD,
 2600              		.loc 1 1646 0
 2601 005e 80F82B70 		strb	r7, [r0, #43]
1592:Drivers/VL53L0X/API/vl53l0x_api.c **** 	FixPoint1616_t TempFix1616 = 0;
 2602              		.loc 1 1592 0
 2603 0062 0020     		movs	r0, #0
 2604              	.LVL313:
 2605 0064 F1E7     		b	.L194
 2606              	.LVL314:
 2607              	.L192:
1655:Drivers/VL53L0X/API/vl53l0x_api.c **** 				VL53L0X_REG_MSRC_CONFIG_CONTROL,
 2608              		.loc 1 1655 0
 2609 0066 5B00     		lsls	r3, r3, #1
 2610              	.LVL315:
 2611 0068 FE22     		movs	r2, #254
 2612 006a 6021     		movs	r1, #96
 2613              	.LVL316:
 2614 006c FFF7FEFF 		bl	VL53L0X_UpdateByte
 2615              	.LVL317:
1659:Drivers/VL53L0X/API/vl53l0x_api.c **** 
 2616              		.loc 1 1659 0
 2617 0070 EAE7     		b	.L195
 2618              	.LVL318:
 2619              	.L193:
1664:Drivers/VL53L0X/API/vl53l0x_api.c **** 				VL53L0X_REG_MSRC_CONFIG_CONTROL,
 2620              		.loc 1 1664 0
 2621 0072 1B01     		lsls	r3, r3, #4
 2622              	.LVL319:
 2623 0074 EF22     		movs	r2, #239
ARM GAS  /tmp/ccq7BpOX.s 			page 76


 2624 0076 6021     		movs	r1, #96
 2625              	.LVL320:
 2626 0078 FFF7FEFF 		bl	VL53L0X_UpdateByte
 2627              	.LVL321:
1668:Drivers/VL53L0X/API/vl53l0x_api.c **** 
 2628              		.loc 1 1668 0
 2629 007c E4E7     		b	.L195
 2630              	.LVL322:
 2631              	.L204:
1680:Drivers/VL53L0X/API/vl53l0x_api.c **** 				LimitCheckId, 0);
 2632              		.loc 1 1680 0
 2633 007e 2C44     		add	r4, r4, r5
 2634 0080 0023     		movs	r3, #0
 2635 0082 84F82830 		strb	r3, [r4, #40]
 2636 0086 E5E7     		b	.L185
 2637              	.LVL323:
 2638              	.L197:
 2639              	.LCFI69:
 2640              		.cfi_def_cfa_offset 0
 2641              		.cfi_restore 3
 2642              		.cfi_restore 4
 2643              		.cfi_restore 5
 2644              		.cfi_restore 6
 2645              		.cfi_restore 7
 2646              		.cfi_restore 14
1601:Drivers/VL53L0X/API/vl53l0x_api.c **** 	} else {
 2647              		.loc 1 1601 0
 2648 0088 6FF00300 		mvn	r0, #3
 2649              	.LVL324:
 2650              		.loc 1 1690 0
 2651 008c 7047     		bx	lr
 2652              	.LVL325:
 2653              	.L199:
1672:Drivers/VL53L0X/API/vl53l0x_api.c **** 
 2654              		.loc 1 1672 0
 2655 008e 6FF00300 		mvn	r0, #3
 2656              	.LVL326:
 2657 0092 DFE7     		b	.L185
 2658              		.cfi_endproc
 2659              	.LFE183:
 2661              		.section	.text.VL53L0X_GetLimitCheckEnable,"ax",%progbits
 2662              		.align	1
 2663              		.global	VL53L0X_GetLimitCheckEnable
 2664              		.syntax unified
 2665              		.thumb
 2666              		.thumb_func
 2667              		.fpu fpv4-sp-d16
 2669              	VL53L0X_GetLimitCheckEnable:
 2670              	.LFB184:
1691:Drivers/VL53L0X/API/vl53l0x_api.c **** 
1692:Drivers/VL53L0X/API/vl53l0x_api.c **** VL53L0X_Error VL53L0X_GetLimitCheckEnable(VL53L0X_DEV Dev, uint16_t LimitCheckId,
1693:Drivers/VL53L0X/API/vl53l0x_api.c **** 	uint8_t *pLimitCheckEnable)
1694:Drivers/VL53L0X/API/vl53l0x_api.c **** {
 2671              		.loc 1 1694 0
 2672              		.cfi_startproc
 2673              		@ args = 0, pretend = 0, frame = 0
 2674              		@ frame_needed = 0, uses_anonymous_args = 0
ARM GAS  /tmp/ccq7BpOX.s 			page 77


 2675              		@ link register save eliminated.
 2676              	.LVL327:
1695:Drivers/VL53L0X/API/vl53l0x_api.c **** 	VL53L0X_Error Status = VL53L0X_ERROR_NONE;
1696:Drivers/VL53L0X/API/vl53l0x_api.c **** 	uint8_t Temp8;
1697:Drivers/VL53L0X/API/vl53l0x_api.c **** 
1698:Drivers/VL53L0X/API/vl53l0x_api.c **** 	LOG_FUNCTION_START("");
1699:Drivers/VL53L0X/API/vl53l0x_api.c **** 
1700:Drivers/VL53L0X/API/vl53l0x_api.c **** 	if (LimitCheckId >= VL53L0X_CHECKENABLE_NUMBER_OF_CHECKS) {
 2677              		.loc 1 1700 0
 2678 0000 0529     		cmp	r1, #5
 2679 0002 05D8     		bhi	.L208
1701:Drivers/VL53L0X/API/vl53l0x_api.c **** 		Status = VL53L0X_ERROR_INVALID_PARAMS;
1702:Drivers/VL53L0X/API/vl53l0x_api.c **** 		*pLimitCheckEnable = 0;
1703:Drivers/VL53L0X/API/vl53l0x_api.c **** 	} else {
1704:Drivers/VL53L0X/API/vl53l0x_api.c **** 		VL53L0X_GETARRAYPARAMETERFIELD(Dev, LimitChecksEnable,
 2680              		.loc 1 1704 0
 2681 0004 0844     		add	r0, r0, r1
 2682              	.LVL328:
 2683 0006 90F82830 		ldrb	r3, [r0, #40]	@ zero_extendqisi2
 2684              	.LVL329:
1705:Drivers/VL53L0X/API/vl53l0x_api.c **** 			LimitCheckId, Temp8);
1706:Drivers/VL53L0X/API/vl53l0x_api.c **** 		*pLimitCheckEnable = Temp8;
 2685              		.loc 1 1706 0
 2686 000a 1370     		strb	r3, [r2]
1695:Drivers/VL53L0X/API/vl53l0x_api.c **** 	uint8_t Temp8;
 2687              		.loc 1 1695 0
 2688 000c 0020     		movs	r0, #0
 2689              	.LVL330:
1707:Drivers/VL53L0X/API/vl53l0x_api.c **** 	}
1708:Drivers/VL53L0X/API/vl53l0x_api.c **** 
1709:Drivers/VL53L0X/API/vl53l0x_api.c **** 	LOG_FUNCTION_END(Status);
1710:Drivers/VL53L0X/API/vl53l0x_api.c **** 	return Status;
1711:Drivers/VL53L0X/API/vl53l0x_api.c **** }
 2690              		.loc 1 1711 0
 2691 000e 7047     		bx	lr
 2692              	.LVL331:
 2693              	.L208:
1702:Drivers/VL53L0X/API/vl53l0x_api.c **** 	} else {
 2694              		.loc 1 1702 0
 2695 0010 0023     		movs	r3, #0
 2696 0012 1370     		strb	r3, [r2]
1701:Drivers/VL53L0X/API/vl53l0x_api.c **** 		*pLimitCheckEnable = 0;
 2697              		.loc 1 1701 0
 2698 0014 6FF00300 		mvn	r0, #3
 2699              	.LVL332:
 2700 0018 7047     		bx	lr
 2701              		.cfi_endproc
 2702              	.LFE184:
 2704              		.section	.text.VL53L0X_SetLimitCheckValue,"ax",%progbits
 2705              		.align	1
 2706              		.global	VL53L0X_SetLimitCheckValue
 2707              		.syntax unified
 2708              		.thumb
 2709              		.thumb_func
 2710              		.fpu fpv4-sp-d16
 2712              	VL53L0X_SetLimitCheckValue:
 2713              	.LFB185:
ARM GAS  /tmp/ccq7BpOX.s 			page 78


1712:Drivers/VL53L0X/API/vl53l0x_api.c **** 
1713:Drivers/VL53L0X/API/vl53l0x_api.c **** VL53L0X_Error VL53L0X_SetLimitCheckValue(VL53L0X_DEV Dev, uint16_t LimitCheckId,
1714:Drivers/VL53L0X/API/vl53l0x_api.c **** 	FixPoint1616_t LimitCheckValue)
1715:Drivers/VL53L0X/API/vl53l0x_api.c **** {
 2714              		.loc 1 1715 0
 2715              		.cfi_startproc
 2716              		@ args = 0, pretend = 0, frame = 0
 2717              		@ frame_needed = 0, uses_anonymous_args = 0
 2718              	.LVL333:
1716:Drivers/VL53L0X/API/vl53l0x_api.c **** 	VL53L0X_Error Status = VL53L0X_ERROR_NONE;
1717:Drivers/VL53L0X/API/vl53l0x_api.c **** 	uint8_t Temp8;
1718:Drivers/VL53L0X/API/vl53l0x_api.c **** 
1719:Drivers/VL53L0X/API/vl53l0x_api.c **** 	LOG_FUNCTION_START("");
1720:Drivers/VL53L0X/API/vl53l0x_api.c **** 
1721:Drivers/VL53L0X/API/vl53l0x_api.c **** 	VL53L0X_GETARRAYPARAMETERFIELD(Dev, LimitChecksEnable, LimitCheckId,
 2719              		.loc 1 1721 0
 2720 0000 4318     		adds	r3, r0, r1
 2721 0002 93F82830 		ldrb	r3, [r3, #40]	@ zero_extendqisi2
 2722              	.LVL334:
1722:Drivers/VL53L0X/API/vl53l0x_api.c **** 		Temp8);
1723:Drivers/VL53L0X/API/vl53l0x_api.c **** 
1724:Drivers/VL53L0X/API/vl53l0x_api.c **** 	if (Temp8 == 0) { /* disabled write only internal value */
 2723              		.loc 1 1724 0
 2724 0006 53B1     		cbz	r3, .L224
1715:Drivers/VL53L0X/API/vl53l0x_api.c **** 	VL53L0X_Error Status = VL53L0X_ERROR_NONE;
 2725              		.loc 1 1715 0
 2726 0008 70B5     		push	{r4, r5, r6, lr}
 2727              	.LCFI70:
 2728              		.cfi_def_cfa_offset 16
 2729              		.cfi_offset 4, -16
 2730              		.cfi_offset 5, -12
 2731              		.cfi_offset 6, -8
 2732              		.cfi_offset 14, -4
 2733 000a 1646     		mov	r6, r2
 2734 000c 0C46     		mov	r4, r1
 2735 000e 0546     		mov	r5, r0
1725:Drivers/VL53L0X/API/vl53l0x_api.c **** 		VL53L0X_SETARRAYPARAMETERFIELD(Dev, LimitChecksValue,
1726:Drivers/VL53L0X/API/vl53l0x_api.c **** 			LimitCheckId, LimitCheckValue);
1727:Drivers/VL53L0X/API/vl53l0x_api.c **** 	} else {
1728:Drivers/VL53L0X/API/vl53l0x_api.c **** 
1729:Drivers/VL53L0X/API/vl53l0x_api.c **** 		switch (LimitCheckId) {
 2736              		.loc 1 1729 0
 2737 0010 0529     		cmp	r1, #5
 2738 0012 25D8     		bhi	.L220
 2739 0014 DFE801F0 		tbb	[pc, r1]
 2740              	.LVL335:
 2741              	.L213:
 2742 0018 09       		.byte	(.L212-.L213)/2
 2743 0019 0C       		.byte	(.L214-.L213)/2
 2744 001a 18       		.byte	(.L215-.L213)/2
 2745 001b 1B       		.byte	(.L216-.L213)/2
 2746 001c 1E       		.byte	(.L217-.L213)/2
 2747 001d 1E       		.byte	(.L217-.L213)/2
 2748              		.p2align 1
 2749              	.L224:
 2750              	.LCFI71:
 2751              		.cfi_def_cfa_offset 0
ARM GAS  /tmp/ccq7BpOX.s 			page 79


 2752              		.cfi_restore 4
 2753              		.cfi_restore 5
 2754              		.cfi_restore 6
 2755              		.cfi_restore 14
1725:Drivers/VL53L0X/API/vl53l0x_api.c **** 		VL53L0X_SETARRAYPARAMETERFIELD(Dev, LimitChecksValue,
 2756              		.loc 1 1725 0
 2757 001e 0C31     		adds	r1, r1, #12
 2758              	.LVL336:
 2759 0020 00EB8101 		add	r1, r0, r1, lsl #2
 2760 0024 4A60     		str	r2, [r1, #4]
1716:Drivers/VL53L0X/API/vl53l0x_api.c **** 	uint8_t Temp8;
 2761              		.loc 1 1716 0
 2762 0026 0020     		movs	r0, #0
 2763              	.LVL337:
1730:Drivers/VL53L0X/API/vl53l0x_api.c **** 
1731:Drivers/VL53L0X/API/vl53l0x_api.c **** 		case VL53L0X_CHECKENABLE_SIGMA_FINAL_RANGE:
1732:Drivers/VL53L0X/API/vl53l0x_api.c **** 			/* internal computation: */
1733:Drivers/VL53L0X/API/vl53l0x_api.c **** 			VL53L0X_SETARRAYPARAMETERFIELD(Dev, LimitChecksValue,
1734:Drivers/VL53L0X/API/vl53l0x_api.c **** 				VL53L0X_CHECKENABLE_SIGMA_FINAL_RANGE,
1735:Drivers/VL53L0X/API/vl53l0x_api.c **** 				LimitCheckValue);
1736:Drivers/VL53L0X/API/vl53l0x_api.c **** 			break;
1737:Drivers/VL53L0X/API/vl53l0x_api.c **** 
1738:Drivers/VL53L0X/API/vl53l0x_api.c **** 		case VL53L0X_CHECKENABLE_SIGNAL_RATE_FINAL_RANGE:
1739:Drivers/VL53L0X/API/vl53l0x_api.c **** 
1740:Drivers/VL53L0X/API/vl53l0x_api.c **** 			Status = VL53L0X_WrWord(Dev,
1741:Drivers/VL53L0X/API/vl53l0x_api.c **** 			VL53L0X_REG_FINAL_RANGE_CONFIG_MIN_COUNT_RATE_RTN_LIMIT,
1742:Drivers/VL53L0X/API/vl53l0x_api.c **** 				VL53L0X_FIXPOINT1616TOFIXPOINT97(
1743:Drivers/VL53L0X/API/vl53l0x_api.c **** 					LimitCheckValue));
1744:Drivers/VL53L0X/API/vl53l0x_api.c **** 
1745:Drivers/VL53L0X/API/vl53l0x_api.c **** 			break;
1746:Drivers/VL53L0X/API/vl53l0x_api.c **** 
1747:Drivers/VL53L0X/API/vl53l0x_api.c **** 		case VL53L0X_CHECKENABLE_SIGNAL_REF_CLIP:
1748:Drivers/VL53L0X/API/vl53l0x_api.c **** 
1749:Drivers/VL53L0X/API/vl53l0x_api.c **** 			/* internal computation: */
1750:Drivers/VL53L0X/API/vl53l0x_api.c **** 			VL53L0X_SETARRAYPARAMETERFIELD(Dev, LimitChecksValue,
1751:Drivers/VL53L0X/API/vl53l0x_api.c **** 				VL53L0X_CHECKENABLE_SIGNAL_REF_CLIP,
1752:Drivers/VL53L0X/API/vl53l0x_api.c **** 				LimitCheckValue);
1753:Drivers/VL53L0X/API/vl53l0x_api.c **** 
1754:Drivers/VL53L0X/API/vl53l0x_api.c **** 			break;
1755:Drivers/VL53L0X/API/vl53l0x_api.c **** 
1756:Drivers/VL53L0X/API/vl53l0x_api.c **** 		case VL53L0X_CHECKENABLE_RANGE_IGNORE_THRESHOLD:
1757:Drivers/VL53L0X/API/vl53l0x_api.c **** 
1758:Drivers/VL53L0X/API/vl53l0x_api.c **** 			/* internal computation: */
1759:Drivers/VL53L0X/API/vl53l0x_api.c **** 			VL53L0X_SETARRAYPARAMETERFIELD(Dev, LimitChecksValue,
1760:Drivers/VL53L0X/API/vl53l0x_api.c **** 				VL53L0X_CHECKENABLE_RANGE_IGNORE_THRESHOLD,
1761:Drivers/VL53L0X/API/vl53l0x_api.c **** 				LimitCheckValue);
1762:Drivers/VL53L0X/API/vl53l0x_api.c **** 
1763:Drivers/VL53L0X/API/vl53l0x_api.c **** 			break;
1764:Drivers/VL53L0X/API/vl53l0x_api.c **** 
1765:Drivers/VL53L0X/API/vl53l0x_api.c **** 		case VL53L0X_CHECKENABLE_SIGNAL_RATE_MSRC:
1766:Drivers/VL53L0X/API/vl53l0x_api.c **** 		case VL53L0X_CHECKENABLE_SIGNAL_RATE_PRE_RANGE:
1767:Drivers/VL53L0X/API/vl53l0x_api.c **** 
1768:Drivers/VL53L0X/API/vl53l0x_api.c **** 			Status = VL53L0X_WrWord(Dev,
1769:Drivers/VL53L0X/API/vl53l0x_api.c **** 				VL53L0X_REG_PRE_RANGE_MIN_COUNT_RATE_RTN_LIMIT,
1770:Drivers/VL53L0X/API/vl53l0x_api.c **** 				VL53L0X_FIXPOINT1616TOFIXPOINT97(
1771:Drivers/VL53L0X/API/vl53l0x_api.c **** 					LimitCheckValue));
1772:Drivers/VL53L0X/API/vl53l0x_api.c **** 
ARM GAS  /tmp/ccq7BpOX.s 			page 80


1773:Drivers/VL53L0X/API/vl53l0x_api.c **** 			break;
1774:Drivers/VL53L0X/API/vl53l0x_api.c **** 
1775:Drivers/VL53L0X/API/vl53l0x_api.c **** 		default:
1776:Drivers/VL53L0X/API/vl53l0x_api.c **** 			Status = VL53L0X_ERROR_INVALID_PARAMS;
1777:Drivers/VL53L0X/API/vl53l0x_api.c **** 
1778:Drivers/VL53L0X/API/vl53l0x_api.c **** 		}
1779:Drivers/VL53L0X/API/vl53l0x_api.c **** 
1780:Drivers/VL53L0X/API/vl53l0x_api.c **** 		if (Status == VL53L0X_ERROR_NONE) {
1781:Drivers/VL53L0X/API/vl53l0x_api.c **** 			VL53L0X_SETARRAYPARAMETERFIELD(Dev, LimitChecksValue,
1782:Drivers/VL53L0X/API/vl53l0x_api.c **** 				LimitCheckId, LimitCheckValue);
1783:Drivers/VL53L0X/API/vl53l0x_api.c **** 		}
1784:Drivers/VL53L0X/API/vl53l0x_api.c **** 	}
1785:Drivers/VL53L0X/API/vl53l0x_api.c **** 
1786:Drivers/VL53L0X/API/vl53l0x_api.c **** 	LOG_FUNCTION_END(Status);
1787:Drivers/VL53L0X/API/vl53l0x_api.c **** 	return Status;
1788:Drivers/VL53L0X/API/vl53l0x_api.c **** }
 2764              		.loc 1 1788 0
 2765 0028 7047     		bx	lr
 2766              	.LVL338:
 2767              	.L212:
 2768              	.LCFI72:
 2769              		.cfi_def_cfa_offset 16
 2770              		.cfi_offset 4, -16
 2771              		.cfi_offset 5, -12
 2772              		.cfi_offset 6, -8
 2773              		.cfi_offset 14, -4
1733:Drivers/VL53L0X/API/vl53l0x_api.c **** 				VL53L0X_CHECKENABLE_SIGMA_FINAL_RANGE,
 2774              		.loc 1 1733 0
 2775 002a 6A63     		str	r2, [r5, #52]
 2776              	.LVL339:
1716:Drivers/VL53L0X/API/vl53l0x_api.c **** 	uint8_t Temp8;
 2777              		.loc 1 1716 0
 2778 002c 0020     		movs	r0, #0
 2779              	.LVL340:
 2780 002e 05E0     		b	.L218
 2781              	.LVL341:
 2782              	.L214:
1740:Drivers/VL53L0X/API/vl53l0x_api.c **** 			VL53L0X_REG_FINAL_RANGE_CONFIG_MIN_COUNT_RATE_RTN_LIMIT,
 2783              		.loc 1 1740 0
 2784 0030 C2F34F22 		ubfx	r2, r2, #9, #16
 2785              	.LVL342:
 2786 0034 4421     		movs	r1, #68
 2787              	.LVL343:
 2788 0036 FFF7FEFF 		bl	VL53L0X_WrWord
 2789              	.LVL344:
 2790              	.L219:
1780:Drivers/VL53L0X/API/vl53l0x_api.c **** 			VL53L0X_SETARRAYPARAMETERFIELD(Dev, LimitChecksValue,
 2791              		.loc 1 1780 0
 2792 003a 20B9     		cbnz	r0, .L211
 2793              	.LVL345:
 2794              	.L218:
1781:Drivers/VL53L0X/API/vl53l0x_api.c **** 				LimitCheckId, LimitCheckValue);
 2795              		.loc 1 1781 0
 2796 003c 04F10C01 		add	r1, r4, #12
 2797 0040 05EB8101 		add	r1, r5, r1, lsl #2
 2798 0044 4E60     		str	r6, [r1, #4]
 2799              	.L211:
ARM GAS  /tmp/ccq7BpOX.s 			page 81


 2800              	.LVL346:
 2801              		.loc 1 1788 0
 2802 0046 70BD     		pop	{r4, r5, r6, pc}
 2803              	.LVL347:
 2804              	.L215:
1750:Drivers/VL53L0X/API/vl53l0x_api.c **** 				VL53L0X_CHECKENABLE_SIGNAL_REF_CLIP,
 2805              		.loc 1 1750 0
 2806 0048 EA63     		str	r2, [r5, #60]
 2807              	.LVL348:
1716:Drivers/VL53L0X/API/vl53l0x_api.c **** 	uint8_t Temp8;
 2808              		.loc 1 1716 0
 2809 004a 0020     		movs	r0, #0
 2810              	.LVL349:
 2811 004c F6E7     		b	.L218
 2812              	.LVL350:
 2813              	.L216:
1759:Drivers/VL53L0X/API/vl53l0x_api.c **** 				VL53L0X_CHECKENABLE_RANGE_IGNORE_THRESHOLD,
 2814              		.loc 1 1759 0
 2815 004e 2A64     		str	r2, [r5, #64]
 2816              	.LVL351:
1716:Drivers/VL53L0X/API/vl53l0x_api.c **** 	uint8_t Temp8;
 2817              		.loc 1 1716 0
 2818 0050 0020     		movs	r0, #0
 2819              	.LVL352:
 2820 0052 F3E7     		b	.L218
 2821              	.LVL353:
 2822              	.L217:
1768:Drivers/VL53L0X/API/vl53l0x_api.c **** 				VL53L0X_REG_PRE_RANGE_MIN_COUNT_RATE_RTN_LIMIT,
 2823              		.loc 1 1768 0
 2824 0054 C2F34F22 		ubfx	r2, r2, #9, #16
 2825              	.LVL354:
 2826 0058 6421     		movs	r1, #100
 2827              	.LVL355:
 2828 005a FFF7FEFF 		bl	VL53L0X_WrWord
 2829              	.LVL356:
1773:Drivers/VL53L0X/API/vl53l0x_api.c **** 
 2830              		.loc 1 1773 0
 2831 005e ECE7     		b	.L219
 2832              	.LVL357:
 2833              	.L220:
1776:Drivers/VL53L0X/API/vl53l0x_api.c **** 
 2834              		.loc 1 1776 0
 2835 0060 6FF00300 		mvn	r0, #3
 2836              	.LVL358:
 2837 0064 EFE7     		b	.L211
 2838              		.cfi_endproc
 2839              	.LFE185:
 2841              		.section	.text.VL53L0X_GetLimitCheckValue,"ax",%progbits
 2842              		.align	1
 2843              		.global	VL53L0X_GetLimitCheckValue
 2844              		.syntax unified
 2845              		.thumb
 2846              		.thumb_func
 2847              		.fpu fpv4-sp-d16
 2849              	VL53L0X_GetLimitCheckValue:
 2850              	.LFB186:
1789:Drivers/VL53L0X/API/vl53l0x_api.c **** 
ARM GAS  /tmp/ccq7BpOX.s 			page 82


1790:Drivers/VL53L0X/API/vl53l0x_api.c **** VL53L0X_Error VL53L0X_GetLimitCheckValue(VL53L0X_DEV Dev, uint16_t LimitCheckId,
1791:Drivers/VL53L0X/API/vl53l0x_api.c **** 	FixPoint1616_t *pLimitCheckValue)
1792:Drivers/VL53L0X/API/vl53l0x_api.c **** {
 2851              		.loc 1 1792 0
 2852              		.cfi_startproc
 2853              		@ args = 0, pretend = 0, frame = 8
 2854              		@ frame_needed = 0, uses_anonymous_args = 0
 2855              	.LVL359:
 2856 0000 F0B5     		push	{r4, r5, r6, r7, lr}
 2857              	.LCFI73:
 2858              		.cfi_def_cfa_offset 20
 2859              		.cfi_offset 4, -20
 2860              		.cfi_offset 5, -16
 2861              		.cfi_offset 6, -12
 2862              		.cfi_offset 7, -8
 2863              		.cfi_offset 14, -4
 2864 0002 83B0     		sub	sp, sp, #12
 2865              	.LCFI74:
 2866              		.cfi_def_cfa_offset 32
 2867 0004 0546     		mov	r5, r0
 2868 0006 0C46     		mov	r4, r1
 2869 0008 1746     		mov	r7, r2
 2870              	.LVL360:
1793:Drivers/VL53L0X/API/vl53l0x_api.c **** 	VL53L0X_Error Status = VL53L0X_ERROR_NONE;
1794:Drivers/VL53L0X/API/vl53l0x_api.c **** 	uint8_t EnableZeroValue = 0;
1795:Drivers/VL53L0X/API/vl53l0x_api.c **** 	uint16_t Temp16;
1796:Drivers/VL53L0X/API/vl53l0x_api.c **** 	FixPoint1616_t TempFix1616;
1797:Drivers/VL53L0X/API/vl53l0x_api.c **** 
1798:Drivers/VL53L0X/API/vl53l0x_api.c **** 	LOG_FUNCTION_START("");
1799:Drivers/VL53L0X/API/vl53l0x_api.c **** 
1800:Drivers/VL53L0X/API/vl53l0x_api.c **** 	switch (LimitCheckId) {
 2871              		.loc 1 1800 0
 2872 000a 0529     		cmp	r1, #5
 2873 000c 2DD8     		bhi	.L236
 2874 000e DFE801F0 		tbb	[pc, r1]
 2875              	.L228:
 2876 0012 03       		.byte	(.L227-.L228)/2
 2877 0013 0C       		.byte	(.L229-.L228)/2
 2878 0014 18       		.byte	(.L230-.L228)/2
 2879 0015 1C       		.byte	(.L231-.L228)/2
 2880 0016 20       		.byte	(.L232-.L228)/2
 2881 0017 20       		.byte	(.L232-.L228)/2
 2882              		.p2align 1
 2883              	.L227:
1801:Drivers/VL53L0X/API/vl53l0x_api.c **** 
1802:Drivers/VL53L0X/API/vl53l0x_api.c **** 	case VL53L0X_CHECKENABLE_SIGMA_FINAL_RANGE:
1803:Drivers/VL53L0X/API/vl53l0x_api.c **** 		/* internal computation: */
1804:Drivers/VL53L0X/API/vl53l0x_api.c **** 		VL53L0X_GETARRAYPARAMETERFIELD(Dev, LimitChecksValue,
 2884              		.loc 1 1804 0
 2885 0018 466B     		ldr	r6, [r0, #52]
 2886              	.LVL361:
1805:Drivers/VL53L0X/API/vl53l0x_api.c **** 			VL53L0X_CHECKENABLE_SIGMA_FINAL_RANGE, TempFix1616);
1806:Drivers/VL53L0X/API/vl53l0x_api.c **** 		EnableZeroValue = 0;
 2887              		.loc 1 1806 0
 2888 001a 0022     		movs	r2, #0
 2889              	.LVL362:
1793:Drivers/VL53L0X/API/vl53l0x_api.c **** 	uint8_t EnableZeroValue = 0;
ARM GAS  /tmp/ccq7BpOX.s 			page 83


 2890              		.loc 1 1793 0
 2891 001c 1346     		mov	r3, r2
 2892              	.LVL363:
 2893              	.L226:
1807:Drivers/VL53L0X/API/vl53l0x_api.c **** 		break;
1808:Drivers/VL53L0X/API/vl53l0x_api.c **** 
1809:Drivers/VL53L0X/API/vl53l0x_api.c **** 	case VL53L0X_CHECKENABLE_SIGNAL_RATE_FINAL_RANGE:
1810:Drivers/VL53L0X/API/vl53l0x_api.c **** 		Status = VL53L0X_RdWord(Dev,
1811:Drivers/VL53L0X/API/vl53l0x_api.c **** 		VL53L0X_REG_FINAL_RANGE_CONFIG_MIN_COUNT_RATE_RTN_LIMIT,
1812:Drivers/VL53L0X/API/vl53l0x_api.c **** 			&Temp16);
1813:Drivers/VL53L0X/API/vl53l0x_api.c **** 		if (Status == VL53L0X_ERROR_NONE)
1814:Drivers/VL53L0X/API/vl53l0x_api.c **** 			TempFix1616 = VL53L0X_FIXPOINT97TOFIXPOINT1616(Temp16);
1815:Drivers/VL53L0X/API/vl53l0x_api.c **** 
1816:Drivers/VL53L0X/API/vl53l0x_api.c **** 
1817:Drivers/VL53L0X/API/vl53l0x_api.c **** 		EnableZeroValue = 1;
1818:Drivers/VL53L0X/API/vl53l0x_api.c **** 		break;
1819:Drivers/VL53L0X/API/vl53l0x_api.c **** 
1820:Drivers/VL53L0X/API/vl53l0x_api.c **** 	case VL53L0X_CHECKENABLE_SIGNAL_REF_CLIP:
1821:Drivers/VL53L0X/API/vl53l0x_api.c **** 		/* internal computation: */
1822:Drivers/VL53L0X/API/vl53l0x_api.c **** 		VL53L0X_GETARRAYPARAMETERFIELD(Dev, LimitChecksValue,
1823:Drivers/VL53L0X/API/vl53l0x_api.c **** 			VL53L0X_CHECKENABLE_SIGNAL_REF_CLIP, TempFix1616);
1824:Drivers/VL53L0X/API/vl53l0x_api.c **** 		EnableZeroValue = 0;
1825:Drivers/VL53L0X/API/vl53l0x_api.c **** 		break;
1826:Drivers/VL53L0X/API/vl53l0x_api.c **** 
1827:Drivers/VL53L0X/API/vl53l0x_api.c **** 	case VL53L0X_CHECKENABLE_RANGE_IGNORE_THRESHOLD:
1828:Drivers/VL53L0X/API/vl53l0x_api.c **** 		/* internal computation: */
1829:Drivers/VL53L0X/API/vl53l0x_api.c **** 		VL53L0X_GETARRAYPARAMETERFIELD(Dev, LimitChecksValue,
1830:Drivers/VL53L0X/API/vl53l0x_api.c **** 			VL53L0X_CHECKENABLE_RANGE_IGNORE_THRESHOLD, TempFix1616);
1831:Drivers/VL53L0X/API/vl53l0x_api.c **** 		EnableZeroValue = 0;
1832:Drivers/VL53L0X/API/vl53l0x_api.c **** 		break;
1833:Drivers/VL53L0X/API/vl53l0x_api.c **** 
1834:Drivers/VL53L0X/API/vl53l0x_api.c **** 	case VL53L0X_CHECKENABLE_SIGNAL_RATE_MSRC:
1835:Drivers/VL53L0X/API/vl53l0x_api.c **** 	case VL53L0X_CHECKENABLE_SIGNAL_RATE_PRE_RANGE:
1836:Drivers/VL53L0X/API/vl53l0x_api.c **** 		Status = VL53L0X_RdWord(Dev,
1837:Drivers/VL53L0X/API/vl53l0x_api.c **** 			VL53L0X_REG_PRE_RANGE_MIN_COUNT_RATE_RTN_LIMIT,
1838:Drivers/VL53L0X/API/vl53l0x_api.c **** 			&Temp16);
1839:Drivers/VL53L0X/API/vl53l0x_api.c **** 		if (Status == VL53L0X_ERROR_NONE)
1840:Drivers/VL53L0X/API/vl53l0x_api.c **** 			TempFix1616 = VL53L0X_FIXPOINT97TOFIXPOINT1616(Temp16);
1841:Drivers/VL53L0X/API/vl53l0x_api.c **** 
1842:Drivers/VL53L0X/API/vl53l0x_api.c **** 
1843:Drivers/VL53L0X/API/vl53l0x_api.c **** 		EnableZeroValue = 0;
1844:Drivers/VL53L0X/API/vl53l0x_api.c **** 		break;
1845:Drivers/VL53L0X/API/vl53l0x_api.c **** 
1846:Drivers/VL53L0X/API/vl53l0x_api.c **** 	default:
1847:Drivers/VL53L0X/API/vl53l0x_api.c **** 		Status = VL53L0X_ERROR_INVALID_PARAMS;
1848:Drivers/VL53L0X/API/vl53l0x_api.c **** 
1849:Drivers/VL53L0X/API/vl53l0x_api.c **** 	}
1850:Drivers/VL53L0X/API/vl53l0x_api.c **** 
1851:Drivers/VL53L0X/API/vl53l0x_api.c **** 	if (Status == VL53L0X_ERROR_NONE) {
 2894              		.loc 1 1851 0
 2895 001e 0BB9     		cbnz	r3, .L233
1852:Drivers/VL53L0X/API/vl53l0x_api.c **** 
1853:Drivers/VL53L0X/API/vl53l0x_api.c **** 		if (EnableZeroValue == 1) {
 2896              		.loc 1 1853 0
 2897 0020 5ABB     		cbnz	r2, .L240
1854:Drivers/VL53L0X/API/vl53l0x_api.c **** 
1855:Drivers/VL53L0X/API/vl53l0x_api.c **** 			if (TempFix1616 == 0) {
ARM GAS  /tmp/ccq7BpOX.s 			page 84


1856:Drivers/VL53L0X/API/vl53l0x_api.c **** 				/* disabled: return value from memory */
1857:Drivers/VL53L0X/API/vl53l0x_api.c **** 				VL53L0X_GETARRAYPARAMETERFIELD(Dev,
1858:Drivers/VL53L0X/API/vl53l0x_api.c **** 					LimitChecksValue, LimitCheckId,
1859:Drivers/VL53L0X/API/vl53l0x_api.c **** 					TempFix1616);
1860:Drivers/VL53L0X/API/vl53l0x_api.c **** 				*pLimitCheckValue = TempFix1616;
1861:Drivers/VL53L0X/API/vl53l0x_api.c **** 				VL53L0X_SETARRAYPARAMETERFIELD(Dev,
1862:Drivers/VL53L0X/API/vl53l0x_api.c **** 					LimitChecksEnable, LimitCheckId, 0);
1863:Drivers/VL53L0X/API/vl53l0x_api.c **** 			} else {
1864:Drivers/VL53L0X/API/vl53l0x_api.c **** 				*pLimitCheckValue = TempFix1616;
1865:Drivers/VL53L0X/API/vl53l0x_api.c **** 				VL53L0X_SETARRAYPARAMETERFIELD(Dev,
1866:Drivers/VL53L0X/API/vl53l0x_api.c **** 					LimitChecksValue, LimitCheckId,
1867:Drivers/VL53L0X/API/vl53l0x_api.c **** 					TempFix1616);
1868:Drivers/VL53L0X/API/vl53l0x_api.c **** 				VL53L0X_SETARRAYPARAMETERFIELD(Dev,
1869:Drivers/VL53L0X/API/vl53l0x_api.c **** 					LimitChecksEnable, LimitCheckId, 1);
1870:Drivers/VL53L0X/API/vl53l0x_api.c **** 			}
1871:Drivers/VL53L0X/API/vl53l0x_api.c **** 		} else {
1872:Drivers/VL53L0X/API/vl53l0x_api.c **** 			*pLimitCheckValue = TempFix1616;
 2898              		.loc 1 1872 0
 2899 0022 3E60     		str	r6, [r7]
 2900              	.LVL364:
 2901              	.L233:
1873:Drivers/VL53L0X/API/vl53l0x_api.c **** 		}
1874:Drivers/VL53L0X/API/vl53l0x_api.c **** 	}
1875:Drivers/VL53L0X/API/vl53l0x_api.c **** 
1876:Drivers/VL53L0X/API/vl53l0x_api.c **** 	LOG_FUNCTION_END(Status);
1877:Drivers/VL53L0X/API/vl53l0x_api.c **** 	return Status;
1878:Drivers/VL53L0X/API/vl53l0x_api.c **** 
1879:Drivers/VL53L0X/API/vl53l0x_api.c **** }
 2902              		.loc 1 1879 0
 2903 0024 1846     		mov	r0, r3
 2904 0026 03B0     		add	sp, sp, #12
 2905              	.LCFI75:
 2906              		.cfi_remember_state
 2907              		.cfi_def_cfa_offset 20
 2908              		@ sp needed
 2909 0028 F0BD     		pop	{r4, r5, r6, r7, pc}
 2910              	.LVL365:
 2911              	.L229:
 2912              	.LCFI76:
 2913              		.cfi_restore_state
1810:Drivers/VL53L0X/API/vl53l0x_api.c **** 		VL53L0X_REG_FINAL_RANGE_CONFIG_MIN_COUNT_RATE_RTN_LIMIT,
 2914              		.loc 1 1810 0
 2915 002a 0DF10602 		add	r2, sp, #6
 2916              	.LVL366:
 2917 002e 4421     		movs	r1, #68
 2918              	.LVL367:
 2919 0030 FFF7FEFF 		bl	VL53L0X_RdWord
 2920              	.LVL368:
1813:Drivers/VL53L0X/API/vl53l0x_api.c **** 			TempFix1616 = VL53L0X_FIXPOINT97TOFIXPOINT1616(Temp16);
 2921              		.loc 1 1813 0
 2922 0034 0346     		mov	r3, r0
 2923 0036 E0B9     		cbnz	r0, .L237
1814:Drivers/VL53L0X/API/vl53l0x_api.c **** 
 2924              		.loc 1 1814 0
 2925 0038 BDF80660 		ldrh	r6, [sp, #6]
 2926 003c 7602     		lsls	r6, r6, #9
 2927              	.LVL369:
ARM GAS  /tmp/ccq7BpOX.s 			page 85


1817:Drivers/VL53L0X/API/vl53l0x_api.c **** 		break;
 2928              		.loc 1 1817 0
 2929 003e 0122     		movs	r2, #1
 2930 0040 EDE7     		b	.L226
 2931              	.LVL370:
 2932              	.L230:
1822:Drivers/VL53L0X/API/vl53l0x_api.c **** 			VL53L0X_CHECKENABLE_SIGNAL_REF_CLIP, TempFix1616);
 2933              		.loc 1 1822 0
 2934 0042 C66B     		ldr	r6, [r0, #60]
 2935              	.LVL371:
1824:Drivers/VL53L0X/API/vl53l0x_api.c **** 		break;
 2936              		.loc 1 1824 0
 2937 0044 0022     		movs	r2, #0
 2938              	.LVL372:
1793:Drivers/VL53L0X/API/vl53l0x_api.c **** 	uint8_t EnableZeroValue = 0;
 2939              		.loc 1 1793 0
 2940 0046 1346     		mov	r3, r2
1825:Drivers/VL53L0X/API/vl53l0x_api.c **** 
 2941              		.loc 1 1825 0
 2942 0048 E9E7     		b	.L226
 2943              	.LVL373:
 2944              	.L231:
1829:Drivers/VL53L0X/API/vl53l0x_api.c **** 			VL53L0X_CHECKENABLE_RANGE_IGNORE_THRESHOLD, TempFix1616);
 2945              		.loc 1 1829 0
 2946 004a 066C     		ldr	r6, [r0, #64]
 2947              	.LVL374:
1831:Drivers/VL53L0X/API/vl53l0x_api.c **** 		break;
 2948              		.loc 1 1831 0
 2949 004c 0022     		movs	r2, #0
 2950              	.LVL375:
1793:Drivers/VL53L0X/API/vl53l0x_api.c **** 	uint8_t EnableZeroValue = 0;
 2951              		.loc 1 1793 0
 2952 004e 1346     		mov	r3, r2
1832:Drivers/VL53L0X/API/vl53l0x_api.c **** 
 2953              		.loc 1 1832 0
 2954 0050 E5E7     		b	.L226
 2955              	.LVL376:
 2956              	.L232:
1836:Drivers/VL53L0X/API/vl53l0x_api.c **** 			VL53L0X_REG_PRE_RANGE_MIN_COUNT_RATE_RTN_LIMIT,
 2957              		.loc 1 1836 0
 2958 0052 0DF10602 		add	r2, sp, #6
 2959              	.LVL377:
 2960 0056 6421     		movs	r1, #100
 2961              	.LVL378:
 2962 0058 FFF7FEFF 		bl	VL53L0X_RdWord
 2963              	.LVL379:
1839:Drivers/VL53L0X/API/vl53l0x_api.c **** 			TempFix1616 = VL53L0X_FIXPOINT97TOFIXPOINT1616(Temp16);
 2964              		.loc 1 1839 0
 2965 005c 0346     		mov	r3, r0
 2966 005e 50B9     		cbnz	r0, .L238
1840:Drivers/VL53L0X/API/vl53l0x_api.c **** 
 2967              		.loc 1 1840 0
 2968 0060 BDF80660 		ldrh	r6, [sp, #6]
 2969 0064 7602     		lsls	r6, r6, #9
 2970              	.LVL380:
1843:Drivers/VL53L0X/API/vl53l0x_api.c **** 		break;
 2971              		.loc 1 1843 0
ARM GAS  /tmp/ccq7BpOX.s 			page 86


 2972 0066 0022     		movs	r2, #0
 2973 0068 D9E7     		b	.L226
 2974              	.LVL381:
 2975              	.L236:
1794:Drivers/VL53L0X/API/vl53l0x_api.c **** 	uint16_t Temp16;
 2976              		.loc 1 1794 0
 2977 006a 0022     		movs	r2, #0
 2978              	.LVL382:
1847:Drivers/VL53L0X/API/vl53l0x_api.c **** 
 2979              		.loc 1 1847 0
 2980 006c 6FF00303 		mvn	r3, #3
 2981 0070 D5E7     		b	.L226
 2982              	.LVL383:
 2983              	.L237:
1817:Drivers/VL53L0X/API/vl53l0x_api.c **** 		break;
 2984              		.loc 1 1817 0
 2985 0072 0122     		movs	r2, #1
 2986 0074 D3E7     		b	.L226
 2987              	.L238:
1843:Drivers/VL53L0X/API/vl53l0x_api.c **** 		break;
 2988              		.loc 1 1843 0
 2989 0076 0022     		movs	r2, #0
 2990 0078 D1E7     		b	.L226
 2991              	.LVL384:
 2992              	.L240:
1855:Drivers/VL53L0X/API/vl53l0x_api.c **** 				/* disabled: return value from memory */
 2993              		.loc 1 1855 0
 2994 007a 56B9     		cbnz	r6, .L235
1857:Drivers/VL53L0X/API/vl53l0x_api.c **** 					LimitChecksValue, LimitCheckId,
 2995              		.loc 1 1857 0
 2996 007c 04F10C02 		add	r2, r4, #12
 2997              	.LVL385:
 2998 0080 05EB8202 		add	r2, r5, r2, lsl #2
 2999 0084 5268     		ldr	r2, [r2, #4]
 3000              	.LVL386:
1860:Drivers/VL53L0X/API/vl53l0x_api.c **** 				VL53L0X_SETARRAYPARAMETERFIELD(Dev,
 3001              		.loc 1 1860 0
 3002 0086 3A60     		str	r2, [r7]
1861:Drivers/VL53L0X/API/vl53l0x_api.c **** 					LimitChecksEnable, LimitCheckId, 0);
 3003              		.loc 1 1861 0
 3004 0088 2C44     		add	r4, r4, r5
 3005 008a 0022     		movs	r2, #0
 3006              	.LVL387:
 3007 008c 84F82820 		strb	r2, [r4, #40]
 3008              	.LVL388:
 3009 0090 C8E7     		b	.L233
