ARM GAS  /tmp/ccd61hBZ.s 			page 1


   1              		.cpu cortex-m4
   2              		.eabi_attribute 27, 1
   3              		.eabi_attribute 28, 1
   4              		.eabi_attribute 20, 1
   5              		.eabi_attribute 21, 1
   6              		.eabi_attribute 23, 3
   7              		.eabi_attribute 24, 1
   8              		.eabi_attribute 25, 1
   9              		.eabi_attribute 26, 1
  10              		.eabi_attribute 30, 6
  11              		.eabi_attribute 34, 1
  12              		.eabi_attribute 18, 4
  13              		.file	"stm32f3xx_hal.c"
  14              		.text
  15              	.Ltext0:
  16              		.cfi_sections	.debug_frame
  17              		.section	.rodata.CHANNEL_OFFSET_TAB,"a",%progbits
  18              		.align	2
  21              	CHANNEL_OFFSET_TAB:
  22 0000 08       		.byte	8
  23 0001 1C       		.byte	28
  24 0002 30       		.byte	48
  25 0003 44       		.byte	68
  26 0004 58       		.byte	88
  27 0005 6C       		.byte	108
  28 0006 80       		.byte	-128
  29              		.comm	uwTick,4,4
  30              		.section	.text.HAL_Init,"ax",%progbits
  31              		.align	1
  32              		.global	HAL_Init
  33              		.syntax unified
  34              		.thumb
  35              		.thumb_func
  36              		.fpu fpv4-sp-d16
  38              	HAL_Init:
  39              	.LFB695:
  40              		.file 1 "Drivers/STM32F3xx_HAL_Driver/Src/stm32f3xx_hal.c"
   1:Drivers/STM32F3xx_HAL_Driver/Src/stm32f3xx_hal.c **** /**
   2:Drivers/STM32F3xx_HAL_Driver/Src/stm32f3xx_hal.c ****   ******************************************************************************
   3:Drivers/STM32F3xx_HAL_Driver/Src/stm32f3xx_hal.c ****   * @file    stm32f3xx_hal.c
   4:Drivers/STM32F3xx_HAL_Driver/Src/stm32f3xx_hal.c ****   * @author  MCD Application Team
   5:Drivers/STM32F3xx_HAL_Driver/Src/stm32f3xx_hal.c ****   * @brief   HAL module driver.
   6:Drivers/STM32F3xx_HAL_Driver/Src/stm32f3xx_hal.c ****   *          This is the common part of the HAL initialization
   7:Drivers/STM32F3xx_HAL_Driver/Src/stm32f3xx_hal.c ****   *
   8:Drivers/STM32F3xx_HAL_Driver/Src/stm32f3xx_hal.c ****   @verbatim
   9:Drivers/STM32F3xx_HAL_Driver/Src/stm32f3xx_hal.c ****   ==============================================================================
  10:Drivers/STM32F3xx_HAL_Driver/Src/stm32f3xx_hal.c ****                      ##### How to use this driver #####
  11:Drivers/STM32F3xx_HAL_Driver/Src/stm32f3xx_hal.c ****   ==============================================================================
  12:Drivers/STM32F3xx_HAL_Driver/Src/stm32f3xx_hal.c ****     [..]
  13:Drivers/STM32F3xx_HAL_Driver/Src/stm32f3xx_hal.c ****     The common HAL driver contains a set of generic and common APIs that can be
  14:Drivers/STM32F3xx_HAL_Driver/Src/stm32f3xx_hal.c ****     used by the PPP peripheral drivers and the user to start using the HAL.
  15:Drivers/STM32F3xx_HAL_Driver/Src/stm32f3xx_hal.c ****     [..]
  16:Drivers/STM32F3xx_HAL_Driver/Src/stm32f3xx_hal.c ****     The HAL contains two APIs categories:
  17:Drivers/STM32F3xx_HAL_Driver/Src/stm32f3xx_hal.c ****          (+) HAL Initialization and de-initialization functions
  18:Drivers/STM32F3xx_HAL_Driver/Src/stm32f3xx_hal.c ****          (+) HAL Control functions
  19:Drivers/STM32F3xx_HAL_Driver/Src/stm32f3xx_hal.c **** 
  20:Drivers/STM32F3xx_HAL_Driver/Src/stm32f3xx_hal.c ****   @endverbatim
ARM GAS  /tmp/ccd61hBZ.s 			page 2


  21:Drivers/STM32F3xx_HAL_Driver/Src/stm32f3xx_hal.c ****   ******************************************************************************
  22:Drivers/STM32F3xx_HAL_Driver/Src/stm32f3xx_hal.c ****   * @attention
  23:Drivers/STM32F3xx_HAL_Driver/Src/stm32f3xx_hal.c ****   *
  24:Drivers/STM32F3xx_HAL_Driver/Src/stm32f3xx_hal.c ****   * <h2><center>&copy; COPYRIGHT(c) 2016 STMicroelectronics</center></h2>
  25:Drivers/STM32F3xx_HAL_Driver/Src/stm32f3xx_hal.c ****   *
  26:Drivers/STM32F3xx_HAL_Driver/Src/stm32f3xx_hal.c ****   * Redistribution and use in source and binary forms, with or without modification,
  27:Drivers/STM32F3xx_HAL_Driver/Src/stm32f3xx_hal.c ****   * are permitted provided that the following conditions are met:
  28:Drivers/STM32F3xx_HAL_Driver/Src/stm32f3xx_hal.c ****   *   1. Redistributions of source code must retain the above copyright notice,
  29:Drivers/STM32F3xx_HAL_Driver/Src/stm32f3xx_hal.c ****   *      this list of conditions and the following disclaimer.
  30:Drivers/STM32F3xx_HAL_Driver/Src/stm32f3xx_hal.c ****   *   2. Redistributions in binary form must reproduce the above copyright notice,
  31:Drivers/STM32F3xx_HAL_Driver/Src/stm32f3xx_hal.c ****   *      this list of conditions and the following disclaimer in the documentation
  32:Drivers/STM32F3xx_HAL_Driver/Src/stm32f3xx_hal.c ****   *      and/or other materials provided with the distribution.
  33:Drivers/STM32F3xx_HAL_Driver/Src/stm32f3xx_hal.c ****   *   3. Neither the name of STMicroelectronics nor the names of its contributors
  34:Drivers/STM32F3xx_HAL_Driver/Src/stm32f3xx_hal.c ****   *      may be used to endorse or promote products derived from this software
  35:Drivers/STM32F3xx_HAL_Driver/Src/stm32f3xx_hal.c ****   *      without specific prior written permission.
  36:Drivers/STM32F3xx_HAL_Driver/Src/stm32f3xx_hal.c ****   *
  37:Drivers/STM32F3xx_HAL_Driver/Src/stm32f3xx_hal.c ****   * THIS SOFTWARE IS PROVIDED BY THE COPYRIGHT HOLDERS AND CONTRIBUTORS "AS IS"
  38:Drivers/STM32F3xx_HAL_Driver/Src/stm32f3xx_hal.c ****   * AND ANY EXPRESS OR IMPLIED WARRANTIES, INCLUDING, BUT NOT LIMITED TO, THE
  39:Drivers/STM32F3xx_HAL_Driver/Src/stm32f3xx_hal.c ****   * IMPLIED WARRANTIES OF MERCHANTABILITY AND FITNESS FOR A PARTICULAR PURPOSE ARE
  40:Drivers/STM32F3xx_HAL_Driver/Src/stm32f3xx_hal.c ****   * DISCLAIMED. IN NO EVENT SHALL THE COPYRIGHT HOLDER OR CONTRIBUTORS BE LIABLE
  41:Drivers/STM32F3xx_HAL_Driver/Src/stm32f3xx_hal.c ****   * FOR ANY DIRECT, INDIRECT, INCIDENTAL, SPECIAL, EXEMPLARY, OR CONSEQUENTIAL
  42:Drivers/STM32F3xx_HAL_Driver/Src/stm32f3xx_hal.c ****   * DAMAGES (INCLUDING, BUT NOT LIMITED TO, PROCUREMENT OF SUBSTITUTE GOODS OR
  43:Drivers/STM32F3xx_HAL_Driver/Src/stm32f3xx_hal.c ****   * SERVICES; LOSS OF USE, DATA, OR PROFITS; OR BUSINESS INTERRUPTION) HOWEVER
  44:Drivers/STM32F3xx_HAL_Driver/Src/stm32f3xx_hal.c ****   * CAUSED AND ON ANY THEORY OF LIABILITY, WHETHER IN CONTRACT, STRICT LIABILITY,
  45:Drivers/STM32F3xx_HAL_Driver/Src/stm32f3xx_hal.c ****   * OR TORT (INCLUDING NEGLIGENCE OR OTHERWISE) ARISING IN ANY WAY OUT OF THE USE
  46:Drivers/STM32F3xx_HAL_Driver/Src/stm32f3xx_hal.c ****   * OF THIS SOFTWARE, EVEN IF ADVISED OF THE POSSIBILITY OF SUCH DAMAGE.
  47:Drivers/STM32F3xx_HAL_Driver/Src/stm32f3xx_hal.c ****   *
  48:Drivers/STM32F3xx_HAL_Driver/Src/stm32f3xx_hal.c ****   ******************************************************************************  
  49:Drivers/STM32F3xx_HAL_Driver/Src/stm32f3xx_hal.c ****   */
  50:Drivers/STM32F3xx_HAL_Driver/Src/stm32f3xx_hal.c **** 
  51:Drivers/STM32F3xx_HAL_Driver/Src/stm32f3xx_hal.c **** /* Includes ------------------------------------------------------------------*/
  52:Drivers/STM32F3xx_HAL_Driver/Src/stm32f3xx_hal.c **** #include "stm32f3xx_hal.h"
  53:Drivers/STM32F3xx_HAL_Driver/Src/stm32f3xx_hal.c **** 
  54:Drivers/STM32F3xx_HAL_Driver/Src/stm32f3xx_hal.c **** /** @addtogroup STM32F3xx_HAL_Driver
  55:Drivers/STM32F3xx_HAL_Driver/Src/stm32f3xx_hal.c ****   * @{
  56:Drivers/STM32F3xx_HAL_Driver/Src/stm32f3xx_hal.c ****   */
  57:Drivers/STM32F3xx_HAL_Driver/Src/stm32f3xx_hal.c **** 
  58:Drivers/STM32F3xx_HAL_Driver/Src/stm32f3xx_hal.c **** /** @defgroup HAL HAL
  59:Drivers/STM32F3xx_HAL_Driver/Src/stm32f3xx_hal.c ****   * @brief HAL module driver.
  60:Drivers/STM32F3xx_HAL_Driver/Src/stm32f3xx_hal.c ****   * @{
  61:Drivers/STM32F3xx_HAL_Driver/Src/stm32f3xx_hal.c ****   */
  62:Drivers/STM32F3xx_HAL_Driver/Src/stm32f3xx_hal.c **** 
  63:Drivers/STM32F3xx_HAL_Driver/Src/stm32f3xx_hal.c **** #ifdef HAL_MODULE_ENABLED
  64:Drivers/STM32F3xx_HAL_Driver/Src/stm32f3xx_hal.c **** 
  65:Drivers/STM32F3xx_HAL_Driver/Src/stm32f3xx_hal.c **** /* Private typedef -----------------------------------------------------------*/
  66:Drivers/STM32F3xx_HAL_Driver/Src/stm32f3xx_hal.c **** /* Private define ------------------------------------------------------------*/
  67:Drivers/STM32F3xx_HAL_Driver/Src/stm32f3xx_hal.c **** /** @defgroup HAL_Private Constants
  68:Drivers/STM32F3xx_HAL_Driver/Src/stm32f3xx_hal.c ****   * @{
  69:Drivers/STM32F3xx_HAL_Driver/Src/stm32f3xx_hal.c ****   */
  70:Drivers/STM32F3xx_HAL_Driver/Src/stm32f3xx_hal.c **** /**
  71:Drivers/STM32F3xx_HAL_Driver/Src/stm32f3xx_hal.c ****  * @brief STM32F3xx HAL Driver version number V1.5.0
  72:Drivers/STM32F3xx_HAL_Driver/Src/stm32f3xx_hal.c ****    */
  73:Drivers/STM32F3xx_HAL_Driver/Src/stm32f3xx_hal.c **** #define __STM32F3xx_HAL_VERSION_MAIN   (0x01U) /*!< [31:24] main version */
  74:Drivers/STM32F3xx_HAL_Driver/Src/stm32f3xx_hal.c **** #define __STM32F3xx_HAL_VERSION_SUB1   (0x05U) /*!< [23:16] sub1 version */
  75:Drivers/STM32F3xx_HAL_Driver/Src/stm32f3xx_hal.c **** #define __STM32F3xx_HAL_VERSION_SUB2   (0x00U) /*!< [15:8]  sub2 version */
  76:Drivers/STM32F3xx_HAL_Driver/Src/stm32f3xx_hal.c **** #define __STM32F3xx_HAL_VERSION_RC     (0x00U) /*!< [7:0]  release candidate */
  77:Drivers/STM32F3xx_HAL_Driver/Src/stm32f3xx_hal.c **** #define __STM32F3xx_HAL_VERSION         ((__STM32F3xx_HAL_VERSION_MAIN << 24U)\
ARM GAS  /tmp/ccd61hBZ.s 			page 3


  78:Drivers/STM32F3xx_HAL_Driver/Src/stm32f3xx_hal.c ****                                         |(__STM32F3xx_HAL_VERSION_SUB1 << 16U)\
  79:Drivers/STM32F3xx_HAL_Driver/Src/stm32f3xx_hal.c ****                                         |(__STM32F3xx_HAL_VERSION_SUB2 << 8U )\
  80:Drivers/STM32F3xx_HAL_Driver/Src/stm32f3xx_hal.c ****                                         |(__STM32F3xx_HAL_VERSION_RC))
  81:Drivers/STM32F3xx_HAL_Driver/Src/stm32f3xx_hal.c **** 
  82:Drivers/STM32F3xx_HAL_Driver/Src/stm32f3xx_hal.c **** #define IDCODE_DEVID_MASK    (0x00000FFFU)
  83:Drivers/STM32F3xx_HAL_Driver/Src/stm32f3xx_hal.c **** /**
  84:Drivers/STM32F3xx_HAL_Driver/Src/stm32f3xx_hal.c ****   * @}
  85:Drivers/STM32F3xx_HAL_Driver/Src/stm32f3xx_hal.c ****   */
  86:Drivers/STM32F3xx_HAL_Driver/Src/stm32f3xx_hal.c ****   
  87:Drivers/STM32F3xx_HAL_Driver/Src/stm32f3xx_hal.c **** /* Private macro -------------------------------------------------------------*/
  88:Drivers/STM32F3xx_HAL_Driver/Src/stm32f3xx_hal.c **** /* Private variables ---------------------------------------------------------*/
  89:Drivers/STM32F3xx_HAL_Driver/Src/stm32f3xx_hal.c **** /** @defgroup HAL_Private_Variables HAL Private Variables
  90:Drivers/STM32F3xx_HAL_Driver/Src/stm32f3xx_hal.c ****   * @{
  91:Drivers/STM32F3xx_HAL_Driver/Src/stm32f3xx_hal.c ****   */
  92:Drivers/STM32F3xx_HAL_Driver/Src/stm32f3xx_hal.c **** __IO uint32_t uwTick;
  93:Drivers/STM32F3xx_HAL_Driver/Src/stm32f3xx_hal.c **** /**
  94:Drivers/STM32F3xx_HAL_Driver/Src/stm32f3xx_hal.c ****   * @}
  95:Drivers/STM32F3xx_HAL_Driver/Src/stm32f3xx_hal.c ****   */
  96:Drivers/STM32F3xx_HAL_Driver/Src/stm32f3xx_hal.c **** /* Private function prototypes -----------------------------------------------*/
  97:Drivers/STM32F3xx_HAL_Driver/Src/stm32f3xx_hal.c **** /* Exported functions ---------------------------------------------------------*/
  98:Drivers/STM32F3xx_HAL_Driver/Src/stm32f3xx_hal.c **** 
  99:Drivers/STM32F3xx_HAL_Driver/Src/stm32f3xx_hal.c **** /** @defgroup HAL_Exported_Functions HAL Exported Functions
 100:Drivers/STM32F3xx_HAL_Driver/Src/stm32f3xx_hal.c ****   * @{
 101:Drivers/STM32F3xx_HAL_Driver/Src/stm32f3xx_hal.c ****   */
 102:Drivers/STM32F3xx_HAL_Driver/Src/stm32f3xx_hal.c **** 
 103:Drivers/STM32F3xx_HAL_Driver/Src/stm32f3xx_hal.c **** /** @defgroup HAL_Exported_Functions_Group1 Initialization and de-initialization Functions 
 104:Drivers/STM32F3xx_HAL_Driver/Src/stm32f3xx_hal.c ****  *  @brief    Initialization and de-initialization functions
 105:Drivers/STM32F3xx_HAL_Driver/Src/stm32f3xx_hal.c ****  *
 106:Drivers/STM32F3xx_HAL_Driver/Src/stm32f3xx_hal.c **** @verbatim
 107:Drivers/STM32F3xx_HAL_Driver/Src/stm32f3xx_hal.c ****  ===============================================================================
 108:Drivers/STM32F3xx_HAL_Driver/Src/stm32f3xx_hal.c ****               ##### Initialization and de-initialization functions #####
 109:Drivers/STM32F3xx_HAL_Driver/Src/stm32f3xx_hal.c ****  ===============================================================================
 110:Drivers/STM32F3xx_HAL_Driver/Src/stm32f3xx_hal.c ****     [..]  This section provides functions allowing to:
 111:Drivers/STM32F3xx_HAL_Driver/Src/stm32f3xx_hal.c ****       (+) Initializes the Flash interface, the NVIC allocation and initial clock 
 112:Drivers/STM32F3xx_HAL_Driver/Src/stm32f3xx_hal.c ****           configuration. It initializes the source of time base also when timeout 
 113:Drivers/STM32F3xx_HAL_Driver/Src/stm32f3xx_hal.c ****           is needed and the backup domain when enabled.
 114:Drivers/STM32F3xx_HAL_Driver/Src/stm32f3xx_hal.c ****       (+) de-Initializes common part of the HAL.
 115:Drivers/STM32F3xx_HAL_Driver/Src/stm32f3xx_hal.c ****       (+) Configure The time base source to have 1ms time base with a dedicated 
 116:Drivers/STM32F3xx_HAL_Driver/Src/stm32f3xx_hal.c ****           Tick interrupt priority. 
 117:Drivers/STM32F3xx_HAL_Driver/Src/stm32f3xx_hal.c ****         (++) Systick timer is used by default as source of time base, but user 
 118:Drivers/STM32F3xx_HAL_Driver/Src/stm32f3xx_hal.c ****              can eventually implement his proper time base source (a general purpose 
 119:Drivers/STM32F3xx_HAL_Driver/Src/stm32f3xx_hal.c ****              timer for example or other time source), keeping in mind that Time base 
 120:Drivers/STM32F3xx_HAL_Driver/Src/stm32f3xx_hal.c ****              duration should be kept 1ms since PPP_TIMEOUT_VALUEs are defined and 
 121:Drivers/STM32F3xx_HAL_Driver/Src/stm32f3xx_hal.c ****              handled in milliseconds basis.
 122:Drivers/STM32F3xx_HAL_Driver/Src/stm32f3xx_hal.c ****         (++) Time base configuration function (HAL_InitTick ()) is called automatically 
 123:Drivers/STM32F3xx_HAL_Driver/Src/stm32f3xx_hal.c ****              at the beginning of the program after reset by HAL_Init() or at any time 
 124:Drivers/STM32F3xx_HAL_Driver/Src/stm32f3xx_hal.c ****              when clock is configured, by HAL_RCC_ClockConfig(). 
 125:Drivers/STM32F3xx_HAL_Driver/Src/stm32f3xx_hal.c ****         (++) Source of time base is configured  to generate interrupts at regular 
 126:Drivers/STM32F3xx_HAL_Driver/Src/stm32f3xx_hal.c ****              time intervals. Care must be taken if HAL_Delay() is called from a 
 127:Drivers/STM32F3xx_HAL_Driver/Src/stm32f3xx_hal.c ****              peripheral ISR process, the Tick interrupt line must have higher priority 
 128:Drivers/STM32F3xx_HAL_Driver/Src/stm32f3xx_hal.c ****             (numerically lower) than the peripheral interrupt. Otherwise the caller 
 129:Drivers/STM32F3xx_HAL_Driver/Src/stm32f3xx_hal.c ****             ISR process will be blocked. 
 130:Drivers/STM32F3xx_HAL_Driver/Src/stm32f3xx_hal.c ****        (++) functions affecting time base configurations are declared as __Weak  
 131:Drivers/STM32F3xx_HAL_Driver/Src/stm32f3xx_hal.c ****              to make  override possible  in case of other  implementations in user file.
 132:Drivers/STM32F3xx_HAL_Driver/Src/stm32f3xx_hal.c **** 
 133:Drivers/STM32F3xx_HAL_Driver/Src/stm32f3xx_hal.c **** @endverbatim
 134:Drivers/STM32F3xx_HAL_Driver/Src/stm32f3xx_hal.c ****   * @{
ARM GAS  /tmp/ccd61hBZ.s 			page 4


 135:Drivers/STM32F3xx_HAL_Driver/Src/stm32f3xx_hal.c ****   */
 136:Drivers/STM32F3xx_HAL_Driver/Src/stm32f3xx_hal.c **** 
 137:Drivers/STM32F3xx_HAL_Driver/Src/stm32f3xx_hal.c **** /**
 138:Drivers/STM32F3xx_HAL_Driver/Src/stm32f3xx_hal.c ****   * @brief  This function configures the Flash prefetch, 
 139:Drivers/STM32F3xx_HAL_Driver/Src/stm32f3xx_hal.c ****   *         Configures time base source, NVIC and Low level hardware
 140:Drivers/STM32F3xx_HAL_Driver/Src/stm32f3xx_hal.c ****   * @note   This function is called at the beginning of program after reset and before 
 141:Drivers/STM32F3xx_HAL_Driver/Src/stm32f3xx_hal.c ****   *         the clock configuration
 142:Drivers/STM32F3xx_HAL_Driver/Src/stm32f3xx_hal.c ****   *             
 143:Drivers/STM32F3xx_HAL_Driver/Src/stm32f3xx_hal.c ****   * @note   The Systick configuration is based on HSI clock, as HSI is the clock
 144:Drivers/STM32F3xx_HAL_Driver/Src/stm32f3xx_hal.c ****   *         used after a system Reset and the NVIC configuration is set to Priority group 4 
 145:Drivers/STM32F3xx_HAL_Driver/Src/stm32f3xx_hal.c ****   *            
 146:Drivers/STM32F3xx_HAL_Driver/Src/stm32f3xx_hal.c ****   * @note   The time base configuration is based on MSI clock when exting from Reset.
 147:Drivers/STM32F3xx_HAL_Driver/Src/stm32f3xx_hal.c ****   *         Once done, time base tick start incrementing.
 148:Drivers/STM32F3xx_HAL_Driver/Src/stm32f3xx_hal.c ****   *         In the default implementation,Systick is used as source of time base.
 149:Drivers/STM32F3xx_HAL_Driver/Src/stm32f3xx_hal.c ****   *       The tick variable is incremented each 1ms in its ISR.
 150:Drivers/STM32F3xx_HAL_Driver/Src/stm32f3xx_hal.c ****   * @retval HAL status
 151:Drivers/STM32F3xx_HAL_Driver/Src/stm32f3xx_hal.c ****   */
 152:Drivers/STM32F3xx_HAL_Driver/Src/stm32f3xx_hal.c **** HAL_StatusTypeDef HAL_Init(void)
 153:Drivers/STM32F3xx_HAL_Driver/Src/stm32f3xx_hal.c **** {
  41              		.loc 1 153 0
  42              		.cfi_startproc
  43              		@ args = 0, pretend = 0, frame = 0
  44              		@ frame_needed = 1, uses_anonymous_args = 0
  45 0000 80B5     		push	{r7, lr}
  46              	.LCFI0:
  47              		.cfi_def_cfa_offset 8
  48              		.cfi_offset 7, -8
  49              		.cfi_offset 14, -4
  50 0002 00AF     		add	r7, sp, #0
  51              	.LCFI1:
  52              		.cfi_def_cfa_register 7
 154:Drivers/STM32F3xx_HAL_Driver/Src/stm32f3xx_hal.c ****   /* Configure Flash prefetch */
 155:Drivers/STM32F3xx_HAL_Driver/Src/stm32f3xx_hal.c **** #if (PREFETCH_ENABLE != 0U)
 156:Drivers/STM32F3xx_HAL_Driver/Src/stm32f3xx_hal.c ****   __HAL_FLASH_PREFETCH_BUFFER_ENABLE();
  53              		.loc 1 156 0
  54 0004 084B     		ldr	r3, .L3
  55 0006 1B68     		ldr	r3, [r3]
  56 0008 074A     		ldr	r2, .L3
  57 000a 43F01003 		orr	r3, r3, #16
  58 000e 1360     		str	r3, [r2]
 157:Drivers/STM32F3xx_HAL_Driver/Src/stm32f3xx_hal.c **** #endif /* PREFETCH_ENABLE */
 158:Drivers/STM32F3xx_HAL_Driver/Src/stm32f3xx_hal.c **** 
 159:Drivers/STM32F3xx_HAL_Driver/Src/stm32f3xx_hal.c ****   /* Set Interrupt Group Priority */
 160:Drivers/STM32F3xx_HAL_Driver/Src/stm32f3xx_hal.c ****   HAL_NVIC_SetPriorityGrouping(NVIC_PRIORITYGROUP_4);
  59              		.loc 1 160 0
  60 0010 0320     		movs	r0, #3
  61 0012 FFF7FEFF 		bl	HAL_NVIC_SetPriorityGrouping
 161:Drivers/STM32F3xx_HAL_Driver/Src/stm32f3xx_hal.c **** 
 162:Drivers/STM32F3xx_HAL_Driver/Src/stm32f3xx_hal.c ****   /* Enable systick and configure 1ms tick (default clock after Reset is HSI) */
 163:Drivers/STM32F3xx_HAL_Driver/Src/stm32f3xx_hal.c ****   HAL_InitTick(TICK_INT_PRIORITY);
  62              		.loc 1 163 0
  63 0016 0020     		movs	r0, #0
  64 0018 FFF7FEFF 		bl	HAL_InitTick
 164:Drivers/STM32F3xx_HAL_Driver/Src/stm32f3xx_hal.c **** 
 165:Drivers/STM32F3xx_HAL_Driver/Src/stm32f3xx_hal.c ****   /* Init the low level hardware */
 166:Drivers/STM32F3xx_HAL_Driver/Src/stm32f3xx_hal.c ****   HAL_MspInit();
  65              		.loc 1 166 0
ARM GAS  /tmp/ccd61hBZ.s 			page 5


  66 001c FFF7FEFF 		bl	HAL_MspInit
 167:Drivers/STM32F3xx_HAL_Driver/Src/stm32f3xx_hal.c **** 
 168:Drivers/STM32F3xx_HAL_Driver/Src/stm32f3xx_hal.c ****   /* Return function status */
 169:Drivers/STM32F3xx_HAL_Driver/Src/stm32f3xx_hal.c ****   return HAL_OK;
  67              		.loc 1 169 0
  68 0020 0023     		movs	r3, #0
 170:Drivers/STM32F3xx_HAL_Driver/Src/stm32f3xx_hal.c **** }
  69              		.loc 1 170 0
  70 0022 1846     		mov	r0, r3
  71 0024 80BD     		pop	{r7, pc}
  72              	.L4:
  73 0026 00BF     		.align	2
  74              	.L3:
  75 0028 00200240 		.word	1073881088
  76              		.cfi_endproc
  77              	.LFE695:
  79              		.section	.text.HAL_DeInit,"ax",%progbits
  80              		.align	1
  81              		.global	HAL_DeInit
  82              		.syntax unified
  83              		.thumb
  84              		.thumb_func
  85              		.fpu fpv4-sp-d16
  87              	HAL_DeInit:
  88              	.LFB696:
 171:Drivers/STM32F3xx_HAL_Driver/Src/stm32f3xx_hal.c **** 
 172:Drivers/STM32F3xx_HAL_Driver/Src/stm32f3xx_hal.c **** /**
 173:Drivers/STM32F3xx_HAL_Driver/Src/stm32f3xx_hal.c ****   * @brief  This function de-Initializes common part of the HAL and stops the source
 174:Drivers/STM32F3xx_HAL_Driver/Src/stm32f3xx_hal.c ****   *         of time base.
 175:Drivers/STM32F3xx_HAL_Driver/Src/stm32f3xx_hal.c ****   * @note This function is optional.
 176:Drivers/STM32F3xx_HAL_Driver/Src/stm32f3xx_hal.c ****   * @retval HAL status
 177:Drivers/STM32F3xx_HAL_Driver/Src/stm32f3xx_hal.c ****   */
 178:Drivers/STM32F3xx_HAL_Driver/Src/stm32f3xx_hal.c **** HAL_StatusTypeDef HAL_DeInit(void)
 179:Drivers/STM32F3xx_HAL_Driver/Src/stm32f3xx_hal.c **** {
  89              		.loc 1 179 0
  90              		.cfi_startproc
  91              		@ args = 0, pretend = 0, frame = 0
  92              		@ frame_needed = 1, uses_anonymous_args = 0
  93 0000 80B5     		push	{r7, lr}
  94              	.LCFI2:
  95              		.cfi_def_cfa_offset 8
  96              		.cfi_offset 7, -8
  97              		.cfi_offset 14, -4
  98 0002 00AF     		add	r7, sp, #0
  99              	.LCFI3:
 100              		.cfi_def_cfa_register 7
 180:Drivers/STM32F3xx_HAL_Driver/Src/stm32f3xx_hal.c ****   /* Reset of all peripherals */
 181:Drivers/STM32F3xx_HAL_Driver/Src/stm32f3xx_hal.c ****   __HAL_RCC_APB1_FORCE_RESET();
 101              		.loc 1 181 0
 102 0004 0C4B     		ldr	r3, .L7
 103 0006 4FF0FF32 		mov	r2, #-1
 104 000a 1A61     		str	r2, [r3, #16]
 182:Drivers/STM32F3xx_HAL_Driver/Src/stm32f3xx_hal.c ****   __HAL_RCC_APB1_RELEASE_RESET();
 105              		.loc 1 182 0
 106 000c 0A4B     		ldr	r3, .L7
 107 000e 0022     		movs	r2, #0
 108 0010 1A61     		str	r2, [r3, #16]
ARM GAS  /tmp/ccd61hBZ.s 			page 6


 183:Drivers/STM32F3xx_HAL_Driver/Src/stm32f3xx_hal.c **** 
 184:Drivers/STM32F3xx_HAL_Driver/Src/stm32f3xx_hal.c ****   __HAL_RCC_APB2_FORCE_RESET();
 109              		.loc 1 184 0
 110 0012 094B     		ldr	r3, .L7
 111 0014 4FF0FF32 		mov	r2, #-1
 112 0018 DA60     		str	r2, [r3, #12]
 185:Drivers/STM32F3xx_HAL_Driver/Src/stm32f3xx_hal.c ****   __HAL_RCC_APB2_RELEASE_RESET();
 113              		.loc 1 185 0
 114 001a 074B     		ldr	r3, .L7
 115 001c 0022     		movs	r2, #0
 116 001e DA60     		str	r2, [r3, #12]
 186:Drivers/STM32F3xx_HAL_Driver/Src/stm32f3xx_hal.c **** 
 187:Drivers/STM32F3xx_HAL_Driver/Src/stm32f3xx_hal.c ****   __HAL_RCC_AHB_FORCE_RESET();
 117              		.loc 1 187 0
 118 0020 054B     		ldr	r3, .L7
 119 0022 4FF0FF32 		mov	r2, #-1
 120 0026 9A62     		str	r2, [r3, #40]
 188:Drivers/STM32F3xx_HAL_Driver/Src/stm32f3xx_hal.c ****   __HAL_RCC_AHB_RELEASE_RESET();
 121              		.loc 1 188 0
 122 0028 034B     		ldr	r3, .L7
 123 002a 0022     		movs	r2, #0
 124 002c 9A62     		str	r2, [r3, #40]
 189:Drivers/STM32F3xx_HAL_Driver/Src/stm32f3xx_hal.c **** 
 190:Drivers/STM32F3xx_HAL_Driver/Src/stm32f3xx_hal.c ****   /* De-Init the low level hardware */
 191:Drivers/STM32F3xx_HAL_Driver/Src/stm32f3xx_hal.c ****   HAL_MspDeInit();
 125              		.loc 1 191 0
 126 002e FFF7FEFF 		bl	HAL_MspDeInit
 192:Drivers/STM32F3xx_HAL_Driver/Src/stm32f3xx_hal.c **** 
 193:Drivers/STM32F3xx_HAL_Driver/Src/stm32f3xx_hal.c ****   /* Return function status */
 194:Drivers/STM32F3xx_HAL_Driver/Src/stm32f3xx_hal.c ****   return HAL_OK;
 127              		.loc 1 194 0
 128 0032 0023     		movs	r3, #0
 195:Drivers/STM32F3xx_HAL_Driver/Src/stm32f3xx_hal.c **** }
 129              		.loc 1 195 0
 130 0034 1846     		mov	r0, r3
 131 0036 80BD     		pop	{r7, pc}
 132              	.L8:
 133              		.align	2
 134              	.L7:
 135 0038 00100240 		.word	1073876992
 136              		.cfi_endproc
 137              	.LFE696:
 139              		.section	.text.HAL_MspInit,"ax",%progbits
 140              		.align	1
 141              		.weak	HAL_MspInit
 142              		.syntax unified
 143              		.thumb
 144              		.thumb_func
 145              		.fpu fpv4-sp-d16
 147              	HAL_MspInit:
 148              	.LFB697:
 196:Drivers/STM32F3xx_HAL_Driver/Src/stm32f3xx_hal.c **** 
 197:Drivers/STM32F3xx_HAL_Driver/Src/stm32f3xx_hal.c **** /**
 198:Drivers/STM32F3xx_HAL_Driver/Src/stm32f3xx_hal.c ****   * @brief  Initializes the MSP.
 199:Drivers/STM32F3xx_HAL_Driver/Src/stm32f3xx_hal.c ****   * @retval None
 200:Drivers/STM32F3xx_HAL_Driver/Src/stm32f3xx_hal.c ****   */
 201:Drivers/STM32F3xx_HAL_Driver/Src/stm32f3xx_hal.c **** __weak void HAL_MspInit(void)
ARM GAS  /tmp/ccd61hBZ.s 			page 7


 202:Drivers/STM32F3xx_HAL_Driver/Src/stm32f3xx_hal.c **** {
 149              		.loc 1 202 0
 150              		.cfi_startproc
 151              		@ args = 0, pretend = 0, frame = 0
 152              		@ frame_needed = 1, uses_anonymous_args = 0
 153              		@ link register save eliminated.
 154 0000 80B4     		push	{r7}
 155              	.LCFI4:
 156              		.cfi_def_cfa_offset 4
 157              		.cfi_offset 7, -4
 158 0002 00AF     		add	r7, sp, #0
 159              	.LCFI5:
 160              		.cfi_def_cfa_register 7
 203:Drivers/STM32F3xx_HAL_Driver/Src/stm32f3xx_hal.c ****   /* NOTE : This function Should not be modified, when the callback is needed,
 204:Drivers/STM32F3xx_HAL_Driver/Src/stm32f3xx_hal.c ****             the HAL_MspInit could be implemented in the user file
 205:Drivers/STM32F3xx_HAL_Driver/Src/stm32f3xx_hal.c ****    */
 206:Drivers/STM32F3xx_HAL_Driver/Src/stm32f3xx_hal.c **** }
 161              		.loc 1 206 0
 162 0004 00BF     		nop
 163 0006 BD46     		mov	sp, r7
 164              	.LCFI6:
 165              		.cfi_def_cfa_register 13
 166              		@ sp needed
 167 0008 5DF8047B 		ldr	r7, [sp], #4
 168              	.LCFI7:
 169              		.cfi_restore 7
 170              		.cfi_def_cfa_offset 0
 171 000c 7047     		bx	lr
 172              		.cfi_endproc
 173              	.LFE697:
 175              		.section	.text.HAL_MspDeInit,"ax",%progbits
 176              		.align	1
 177              		.weak	HAL_MspDeInit
 178              		.syntax unified
 179              		.thumb
 180              		.thumb_func
 181              		.fpu fpv4-sp-d16
 183              	HAL_MspDeInit:
 184              	.LFB698:
 207:Drivers/STM32F3xx_HAL_Driver/Src/stm32f3xx_hal.c **** 
 208:Drivers/STM32F3xx_HAL_Driver/Src/stm32f3xx_hal.c **** /**
 209:Drivers/STM32F3xx_HAL_Driver/Src/stm32f3xx_hal.c ****   * @brief  DeInitializes the MSP.
 210:Drivers/STM32F3xx_HAL_Driver/Src/stm32f3xx_hal.c ****   * @retval None
 211:Drivers/STM32F3xx_HAL_Driver/Src/stm32f3xx_hal.c ****   */
 212:Drivers/STM32F3xx_HAL_Driver/Src/stm32f3xx_hal.c **** __weak void HAL_MspDeInit(void)
 213:Drivers/STM32F3xx_HAL_Driver/Src/stm32f3xx_hal.c **** {
 185              		.loc 1 213 0
 186              		.cfi_startproc
 187              		@ args = 0, pretend = 0, frame = 0
 188              		@ frame_needed = 1, uses_anonymous_args = 0
 189              		@ link register save eliminated.
 190 0000 80B4     		push	{r7}
 191              	.LCFI8:
 192              		.cfi_def_cfa_offset 4
 193              		.cfi_offset 7, -4
 194 0002 00AF     		add	r7, sp, #0
 195              	.LCFI9:
ARM GAS  /tmp/ccd61hBZ.s 			page 8


 196              		.cfi_def_cfa_register 7
 214:Drivers/STM32F3xx_HAL_Driver/Src/stm32f3xx_hal.c ****   /* NOTE : This function Should not be modified, when the callback is needed,
 215:Drivers/STM32F3xx_HAL_Driver/Src/stm32f3xx_hal.c ****             the HAL_MspDeInit could be implemented in the user file
 216:Drivers/STM32F3xx_HAL_Driver/Src/stm32f3xx_hal.c ****    */
 217:Drivers/STM32F3xx_HAL_Driver/Src/stm32f3xx_hal.c **** }
 197              		.loc 1 217 0
 198 0004 00BF     		nop
 199 0006 BD46     		mov	sp, r7
 200              	.LCFI10:
 201              		.cfi_def_cfa_register 13
 202              		@ sp needed
 203 0008 5DF8047B 		ldr	r7, [sp], #4
 204              	.LCFI11:
 205              		.cfi_restore 7
 206              		.cfi_def_cfa_offset 0
 207 000c 7047     		bx	lr
 208              		.cfi_endproc
 209              	.LFE698:
 211              		.section	.text.HAL_InitTick,"ax",%progbits
 212              		.align	1
 213              		.weak	HAL_InitTick
 214              		.syntax unified
 215              		.thumb
 216              		.thumb_func
 217              		.fpu fpv4-sp-d16
 219              	HAL_InitTick:
 220              	.LFB699:
 218:Drivers/STM32F3xx_HAL_Driver/Src/stm32f3xx_hal.c **** 
 219:Drivers/STM32F3xx_HAL_Driver/Src/stm32f3xx_hal.c **** /**
 220:Drivers/STM32F3xx_HAL_Driver/Src/stm32f3xx_hal.c ****   * @brief  This function configures the source of the time base. 
 221:Drivers/STM32F3xx_HAL_Driver/Src/stm32f3xx_hal.c ****   *         The time source is configured  to have 1ms time base with a dedicated 
 222:Drivers/STM32F3xx_HAL_Driver/Src/stm32f3xx_hal.c ****   *         Tick interrupt priority. 
 223:Drivers/STM32F3xx_HAL_Driver/Src/stm32f3xx_hal.c ****   * @note   This function is called  automatically at the beginning of program after
 224:Drivers/STM32F3xx_HAL_Driver/Src/stm32f3xx_hal.c ****   *         reset by HAL_Init() or at any time when clock is reconfigured  by HAL_RCC_ClockConfig()
 225:Drivers/STM32F3xx_HAL_Driver/Src/stm32f3xx_hal.c ****   * @note   In the default implementation , SysTick timer is the source of time base. 
 226:Drivers/STM32F3xx_HAL_Driver/Src/stm32f3xx_hal.c ****   *         It is used to generate interrupts at regular time intervals. 
 227:Drivers/STM32F3xx_HAL_Driver/Src/stm32f3xx_hal.c ****   *         Care must be taken if HAL_Delay() is called from a peripheral ISR process, 
 228:Drivers/STM32F3xx_HAL_Driver/Src/stm32f3xx_hal.c ****   *         The the SysTick interrupt must have higher priority (numerically lower) 
 229:Drivers/STM32F3xx_HAL_Driver/Src/stm32f3xx_hal.c ****   *         than the peripheral interrupt. Otherwise the caller ISR process will be blocked.
 230:Drivers/STM32F3xx_HAL_Driver/Src/stm32f3xx_hal.c ****   *         The function is declared as __Weak  to be overwritten  in case of other
 231:Drivers/STM32F3xx_HAL_Driver/Src/stm32f3xx_hal.c ****   *         implementation  in user file.
 232:Drivers/STM32F3xx_HAL_Driver/Src/stm32f3xx_hal.c ****   * @param TickPriority Tick interrupt priority.
 233:Drivers/STM32F3xx_HAL_Driver/Src/stm32f3xx_hal.c ****   * @retval HAL status
 234:Drivers/STM32F3xx_HAL_Driver/Src/stm32f3xx_hal.c ****   */
 235:Drivers/STM32F3xx_HAL_Driver/Src/stm32f3xx_hal.c **** __weak HAL_StatusTypeDef HAL_InitTick(uint32_t TickPriority)
 236:Drivers/STM32F3xx_HAL_Driver/Src/stm32f3xx_hal.c **** {
 221              		.loc 1 236 0
 222              		.cfi_startproc
 223              		@ args = 0, pretend = 0, frame = 8
 224              		@ frame_needed = 1, uses_anonymous_args = 0
 225 0000 80B5     		push	{r7, lr}
 226              	.LCFI12:
 227              		.cfi_def_cfa_offset 8
 228              		.cfi_offset 7, -8
 229              		.cfi_offset 14, -4
 230 0002 82B0     		sub	sp, sp, #8
 231              	.LCFI13:
ARM GAS  /tmp/ccd61hBZ.s 			page 9


 232              		.cfi_def_cfa_offset 16
 233 0004 00AF     		add	r7, sp, #0
 234              	.LCFI14:
 235              		.cfi_def_cfa_register 7
 236 0006 7860     		str	r0, [r7, #4]
 237:Drivers/STM32F3xx_HAL_Driver/Src/stm32f3xx_hal.c ****   /*Configure the SysTick to have interrupt in 1ms time basis*/
 238:Drivers/STM32F3xx_HAL_Driver/Src/stm32f3xx_hal.c ****   HAL_SYSTICK_Config(SystemCoreClock / 1000U);
 237              		.loc 1 238 0
 238 0008 094B     		ldr	r3, .L13
 239 000a 1B68     		ldr	r3, [r3]
 240 000c 094A     		ldr	r2, .L13+4
 241 000e A2FB0323 		umull	r2, r3, r2, r3
 242 0012 9B09     		lsrs	r3, r3, #6
 243 0014 1846     		mov	r0, r3
 244 0016 FFF7FEFF 		bl	HAL_SYSTICK_Config
 239:Drivers/STM32F3xx_HAL_Driver/Src/stm32f3xx_hal.c ****  
 240:Drivers/STM32F3xx_HAL_Driver/Src/stm32f3xx_hal.c ****   /*Configure the SysTick IRQ priority */
 241:Drivers/STM32F3xx_HAL_Driver/Src/stm32f3xx_hal.c ****   HAL_NVIC_SetPriority(SysTick_IRQn, TickPriority ,0U);
 245              		.loc 1 241 0
 246 001a 0022     		movs	r2, #0
 247 001c 7968     		ldr	r1, [r7, #4]
 248 001e 4FF0FF30 		mov	r0, #-1
 249 0022 FFF7FEFF 		bl	HAL_NVIC_SetPriority
 242:Drivers/STM32F3xx_HAL_Driver/Src/stm32f3xx_hal.c **** 
 243:Drivers/STM32F3xx_HAL_Driver/Src/stm32f3xx_hal.c ****    /* Return function status */
 244:Drivers/STM32F3xx_HAL_Driver/Src/stm32f3xx_hal.c ****   return HAL_OK;
 250              		.loc 1 244 0
 251 0026 0023     		movs	r3, #0
 245:Drivers/STM32F3xx_HAL_Driver/Src/stm32f3xx_hal.c **** }
 252              		.loc 1 245 0
 253 0028 1846     		mov	r0, r3
 254 002a 0837     		adds	r7, r7, #8
 255              	.LCFI15:
 256              		.cfi_def_cfa_offset 8
 257 002c BD46     		mov	sp, r7
 258              	.LCFI16:
 259              		.cfi_def_cfa_register 13
 260              		@ sp needed
 261 002e 80BD     		pop	{r7, pc}
 262              	.L14:
 263              		.align	2
 264              	.L13:
 265 0030 00000000 		.word	SystemCoreClock
 266 0034 D34D6210 		.word	274877907
 267              		.cfi_endproc
 268              	.LFE699:
 270              		.section	.text.HAL_IncTick,"ax",%progbits
 271              		.align	1
 272              		.weak	HAL_IncTick
 273              		.syntax unified
 274              		.thumb
 275              		.thumb_func
 276              		.fpu fpv4-sp-d16
 278              	HAL_IncTick:
 279              	.LFB700:
 246:Drivers/STM32F3xx_HAL_Driver/Src/stm32f3xx_hal.c **** 
 247:Drivers/STM32F3xx_HAL_Driver/Src/stm32f3xx_hal.c **** /**
ARM GAS  /tmp/ccd61hBZ.s 			page 10


 248:Drivers/STM32F3xx_HAL_Driver/Src/stm32f3xx_hal.c ****   * @}
 249:Drivers/STM32F3xx_HAL_Driver/Src/stm32f3xx_hal.c ****   */
 250:Drivers/STM32F3xx_HAL_Driver/Src/stm32f3xx_hal.c **** 
 251:Drivers/STM32F3xx_HAL_Driver/Src/stm32f3xx_hal.c **** /** @defgroup HAL_Exported_Functions_Group2 HAL Control functions 
 252:Drivers/STM32F3xx_HAL_Driver/Src/stm32f3xx_hal.c ****  *  @brief    HAL Control functions
 253:Drivers/STM32F3xx_HAL_Driver/Src/stm32f3xx_hal.c ****  *
 254:Drivers/STM32F3xx_HAL_Driver/Src/stm32f3xx_hal.c **** @verbatim
 255:Drivers/STM32F3xx_HAL_Driver/Src/stm32f3xx_hal.c ****  ===============================================================================
 256:Drivers/STM32F3xx_HAL_Driver/Src/stm32f3xx_hal.c ****                       ##### HAL Control functions #####
 257:Drivers/STM32F3xx_HAL_Driver/Src/stm32f3xx_hal.c ****  ===============================================================================
 258:Drivers/STM32F3xx_HAL_Driver/Src/stm32f3xx_hal.c ****     [..]  This section provides functions allowing to:
 259:Drivers/STM32F3xx_HAL_Driver/Src/stm32f3xx_hal.c ****       (+) Provide a tick value in millisecond
 260:Drivers/STM32F3xx_HAL_Driver/Src/stm32f3xx_hal.c ****       (+) Provide a blocking delay in millisecond
 261:Drivers/STM32F3xx_HAL_Driver/Src/stm32f3xx_hal.c ****       (+) Suspend the time base source interrupt
 262:Drivers/STM32F3xx_HAL_Driver/Src/stm32f3xx_hal.c ****       (+) Resume the time base source interrupt
 263:Drivers/STM32F3xx_HAL_Driver/Src/stm32f3xx_hal.c ****       (+) Get the HAL API driver version
 264:Drivers/STM32F3xx_HAL_Driver/Src/stm32f3xx_hal.c ****       (+) Get the device identifier
 265:Drivers/STM32F3xx_HAL_Driver/Src/stm32f3xx_hal.c ****       (+) Get the device revision identifier
 266:Drivers/STM32F3xx_HAL_Driver/Src/stm32f3xx_hal.c ****       (+) Enable/Disable Debug module during Sleep mode
 267:Drivers/STM32F3xx_HAL_Driver/Src/stm32f3xx_hal.c ****       (+) Enable/Disable Debug module during STOP mode
 268:Drivers/STM32F3xx_HAL_Driver/Src/stm32f3xx_hal.c ****       (+) Enable/Disable Debug module during STANDBY mode
 269:Drivers/STM32F3xx_HAL_Driver/Src/stm32f3xx_hal.c ****       
 270:Drivers/STM32F3xx_HAL_Driver/Src/stm32f3xx_hal.c **** @endverbatim
 271:Drivers/STM32F3xx_HAL_Driver/Src/stm32f3xx_hal.c ****   * @{
 272:Drivers/STM32F3xx_HAL_Driver/Src/stm32f3xx_hal.c ****   */
 273:Drivers/STM32F3xx_HAL_Driver/Src/stm32f3xx_hal.c **** 
 274:Drivers/STM32F3xx_HAL_Driver/Src/stm32f3xx_hal.c **** /**
 275:Drivers/STM32F3xx_HAL_Driver/Src/stm32f3xx_hal.c ****   * @brief  This function is called to increment  a global variable "uwTick"
 276:Drivers/STM32F3xx_HAL_Driver/Src/stm32f3xx_hal.c ****   *         used as application time base.
 277:Drivers/STM32F3xx_HAL_Driver/Src/stm32f3xx_hal.c ****   * @note In the default implementation, this variable is incremented each 1ms
 278:Drivers/STM32F3xx_HAL_Driver/Src/stm32f3xx_hal.c ****   *         in Systick ISR.
 279:Drivers/STM32F3xx_HAL_Driver/Src/stm32f3xx_hal.c ****   * @note This function is declared as __weak to be overwritten in case of other 
 280:Drivers/STM32F3xx_HAL_Driver/Src/stm32f3xx_hal.c ****   *         implementations  in user file.
 281:Drivers/STM32F3xx_HAL_Driver/Src/stm32f3xx_hal.c ****   * @retval None
 282:Drivers/STM32F3xx_HAL_Driver/Src/stm32f3xx_hal.c ****   */
 283:Drivers/STM32F3xx_HAL_Driver/Src/stm32f3xx_hal.c **** __weak void HAL_IncTick(void)
 284:Drivers/STM32F3xx_HAL_Driver/Src/stm32f3xx_hal.c **** {
 280              		.loc 1 284 0
 281              		.cfi_startproc
 282              		@ args = 0, pretend = 0, frame = 0
 283              		@ frame_needed = 1, uses_anonymous_args = 0
 284              		@ link register save eliminated.
 285 0000 80B4     		push	{r7}
 286              	.LCFI17:
 287              		.cfi_def_cfa_offset 4
 288              		.cfi_offset 7, -4
 289 0002 00AF     		add	r7, sp, #0
 290              	.LCFI18:
 291              		.cfi_def_cfa_register 7
 285:Drivers/STM32F3xx_HAL_Driver/Src/stm32f3xx_hal.c ****   uwTick++;
 292              		.loc 1 285 0
 293 0004 044B     		ldr	r3, .L16
 294 0006 1B68     		ldr	r3, [r3]
 295 0008 0133     		adds	r3, r3, #1
 296 000a 034A     		ldr	r2, .L16
 297 000c 1360     		str	r3, [r2]
 286:Drivers/STM32F3xx_HAL_Driver/Src/stm32f3xx_hal.c **** }
ARM GAS  /tmp/ccd61hBZ.s 			page 11


 298              		.loc 1 286 0
 299 000e 00BF     		nop
 300 0010 BD46     		mov	sp, r7
 301              	.LCFI19:
 302              		.cfi_def_cfa_register 13
 303              		@ sp needed
 304 0012 5DF8047B 		ldr	r7, [sp], #4
 305              	.LCFI20:
 306              		.cfi_restore 7
 307              		.cfi_def_cfa_offset 0
 308 0016 7047     		bx	lr
 309              	.L17:
 310              		.align	2
 311              	.L16:
 312 0018 00000000 		.word	uwTick
 313              		.cfi_endproc
 314              	.LFE700:
 316              		.section	.text.HAL_GetTick,"ax",%progbits
 317              		.align	1
 318              		.weak	HAL_GetTick
 319              		.syntax unified
 320              		.thumb
 321              		.thumb_func
 322              		.fpu fpv4-sp-d16
 324              	HAL_GetTick:
 325              	.LFB701:
 287:Drivers/STM32F3xx_HAL_Driver/Src/stm32f3xx_hal.c **** 
 288:Drivers/STM32F3xx_HAL_Driver/Src/stm32f3xx_hal.c **** /**
 289:Drivers/STM32F3xx_HAL_Driver/Src/stm32f3xx_hal.c ****   * @brief  Povides a tick value in millisecond.
 290:Drivers/STM32F3xx_HAL_Driver/Src/stm32f3xx_hal.c ****   * @note   The function is declared as __Weak  to be overwritten  in case of other 
 291:Drivers/STM32F3xx_HAL_Driver/Src/stm32f3xx_hal.c ****   *         implementations  in user file.
 292:Drivers/STM32F3xx_HAL_Driver/Src/stm32f3xx_hal.c ****   * @retval tick value
 293:Drivers/STM32F3xx_HAL_Driver/Src/stm32f3xx_hal.c ****   */
 294:Drivers/STM32F3xx_HAL_Driver/Src/stm32f3xx_hal.c **** __weak uint32_t HAL_GetTick(void)
 295:Drivers/STM32F3xx_HAL_Driver/Src/stm32f3xx_hal.c **** {
 326              		.loc 1 295 0
 327              		.cfi_startproc
 328              		@ args = 0, pretend = 0, frame = 0
 329              		@ frame_needed = 1, uses_anonymous_args = 0
 330              		@ link register save eliminated.
 331 0000 80B4     		push	{r7}
 332              	.LCFI21:
 333              		.cfi_def_cfa_offset 4
 334              		.cfi_offset 7, -4
 335 0002 00AF     		add	r7, sp, #0
 336              	.LCFI22:
 337              		.cfi_def_cfa_register 7
 296:Drivers/STM32F3xx_HAL_Driver/Src/stm32f3xx_hal.c ****   return uwTick;  
 338              		.loc 1 296 0
 339 0004 034B     		ldr	r3, .L20
 340 0006 1B68     		ldr	r3, [r3]
 297:Drivers/STM32F3xx_HAL_Driver/Src/stm32f3xx_hal.c **** }
 341              		.loc 1 297 0
 342 0008 1846     		mov	r0, r3
 343 000a BD46     		mov	sp, r7
 344              	.LCFI23:
 345              		.cfi_def_cfa_register 13
ARM GAS  /tmp/ccd61hBZ.s 			page 12


 346              		@ sp needed
 347 000c 5DF8047B 		ldr	r7, [sp], #4
 348              	.LCFI24:
 349              		.cfi_restore 7
 350              		.cfi_def_cfa_offset 0
 351 0010 7047     		bx	lr
 352              	.L21:
 353 0012 00BF     		.align	2
 354              	.L20:
 355 0014 00000000 		.word	uwTick
 356              		.cfi_endproc
 357              	.LFE701:
 359              		.section	.text.HAL_Delay,"ax",%progbits
 360              		.align	1
 361              		.weak	HAL_Delay
 362              		.syntax unified
 363              		.thumb
 364              		.thumb_func
 365              		.fpu fpv4-sp-d16
 367              	HAL_Delay:
 368              	.LFB702:
 298:Drivers/STM32F3xx_HAL_Driver/Src/stm32f3xx_hal.c **** 
 299:Drivers/STM32F3xx_HAL_Driver/Src/stm32f3xx_hal.c **** /**
 300:Drivers/STM32F3xx_HAL_Driver/Src/stm32f3xx_hal.c ****   * @brief  This function provides accurate delay (in milliseconds) based 
 301:Drivers/STM32F3xx_HAL_Driver/Src/stm32f3xx_hal.c ****   *         on variable incremented.
 302:Drivers/STM32F3xx_HAL_Driver/Src/stm32f3xx_hal.c ****   * @note   In the default implementation , SysTick timer is the source of time base. 
 303:Drivers/STM32F3xx_HAL_Driver/Src/stm32f3xx_hal.c ****   *         It is used to generate interrupts at regular time intervals where uwTick
 304:Drivers/STM32F3xx_HAL_Driver/Src/stm32f3xx_hal.c ****   *         is incremented.
 305:Drivers/STM32F3xx_HAL_Driver/Src/stm32f3xx_hal.c ****   *         The function is declared as __Weak  to be overwritten  in case of other
 306:Drivers/STM32F3xx_HAL_Driver/Src/stm32f3xx_hal.c ****   *         implementations  in user file.
 307:Drivers/STM32F3xx_HAL_Driver/Src/stm32f3xx_hal.c ****   * @param  Delay specifies the delay time length, in milliseconds.
 308:Drivers/STM32F3xx_HAL_Driver/Src/stm32f3xx_hal.c ****   * @retval None
 309:Drivers/STM32F3xx_HAL_Driver/Src/stm32f3xx_hal.c ****   */
 310:Drivers/STM32F3xx_HAL_Driver/Src/stm32f3xx_hal.c **** __weak void HAL_Delay(__IO uint32_t Delay)
 311:Drivers/STM32F3xx_HAL_Driver/Src/stm32f3xx_hal.c **** {
 369              		.loc 1 311 0
 370              		.cfi_startproc
 371              		@ args = 0, pretend = 0, frame = 16
 372              		@ frame_needed = 1, uses_anonymous_args = 0
 373 0000 80B5     		push	{r7, lr}
 374              	.LCFI25:
 375              		.cfi_def_cfa_offset 8
 376              		.cfi_offset 7, -8
 377              		.cfi_offset 14, -4
 378 0002 84B0     		sub	sp, sp, #16
 379              	.LCFI26:
 380              		.cfi_def_cfa_offset 24
 381 0004 00AF     		add	r7, sp, #0
 382              	.LCFI27:
 383              		.cfi_def_cfa_register 7
 384 0006 7860     		str	r0, [r7, #4]
 312:Drivers/STM32F3xx_HAL_Driver/Src/stm32f3xx_hal.c ****   uint32_t tickstart = HAL_GetTick();
 385              		.loc 1 312 0
 386 0008 FFF7FEFF 		bl	HAL_GetTick
 387 000c B860     		str	r0, [r7, #8]
 313:Drivers/STM32F3xx_HAL_Driver/Src/stm32f3xx_hal.c ****   uint32_t wait = Delay;
 388              		.loc 1 313 0
ARM GAS  /tmp/ccd61hBZ.s 			page 13


 389 000e 7B68     		ldr	r3, [r7, #4]
 390 0010 FB60     		str	r3, [r7, #12]
 314:Drivers/STM32F3xx_HAL_Driver/Src/stm32f3xx_hal.c ****   
 315:Drivers/STM32F3xx_HAL_Driver/Src/stm32f3xx_hal.c ****   /* Add a period to guarantee minimum wait */
 316:Drivers/STM32F3xx_HAL_Driver/Src/stm32f3xx_hal.c ****   if (wait < HAL_MAX_DELAY)
 391              		.loc 1 316 0
 392 0012 FB68     		ldr	r3, [r7, #12]
 393 0014 B3F1FF3F 		cmp	r3, #-1
 394 0018 02D0     		beq	.L25
 317:Drivers/STM32F3xx_HAL_Driver/Src/stm32f3xx_hal.c ****   {
 318:Drivers/STM32F3xx_HAL_Driver/Src/stm32f3xx_hal.c ****      wait++;
 395              		.loc 1 318 0
 396 001a FB68     		ldr	r3, [r7, #12]
 397 001c 0133     		adds	r3, r3, #1
 398 001e FB60     		str	r3, [r7, #12]
 399              	.L25:
 319:Drivers/STM32F3xx_HAL_Driver/Src/stm32f3xx_hal.c ****   }
 320:Drivers/STM32F3xx_HAL_Driver/Src/stm32f3xx_hal.c ****   
 321:Drivers/STM32F3xx_HAL_Driver/Src/stm32f3xx_hal.c ****   while((HAL_GetTick() - tickstart) < wait)
 400              		.loc 1 321 0
 401 0020 00BF     		nop
 402              	.L24:
 403              		.loc 1 321 0 is_stmt 0 discriminator 1
 404 0022 FFF7FEFF 		bl	HAL_GetTick
 405 0026 0246     		mov	r2, r0
 406 0028 BB68     		ldr	r3, [r7, #8]
 407 002a D31A     		subs	r3, r2, r3
 408 002c FA68     		ldr	r2, [r7, #12]
 409 002e 9A42     		cmp	r2, r3
 410 0030 F7D8     		bhi	.L24
 322:Drivers/STM32F3xx_HAL_Driver/Src/stm32f3xx_hal.c ****   {
 323:Drivers/STM32F3xx_HAL_Driver/Src/stm32f3xx_hal.c ****   }
 324:Drivers/STM32F3xx_HAL_Driver/Src/stm32f3xx_hal.c **** }
 411              		.loc 1 324 0 is_stmt 1
 412 0032 00BF     		nop
 413 0034 1037     		adds	r7, r7, #16
 414              	.LCFI28:
 415              		.cfi_def_cfa_offset 8
 416 0036 BD46     		mov	sp, r7
 417              	.LCFI29:
 418              		.cfi_def_cfa_register 13
 419              		@ sp needed
 420 0038 80BD     		pop	{r7, pc}
 421              		.cfi_endproc
 422              	.LFE702:
 424              		.section	.text.HAL_SuspendTick,"ax",%progbits
 425              		.align	1
 426              		.weak	HAL_SuspendTick
 427              		.syntax unified
 428              		.thumb
 429              		.thumb_func
 430              		.fpu fpv4-sp-d16
 432              	HAL_SuspendTick:
 433              	.LFB703:
 325:Drivers/STM32F3xx_HAL_Driver/Src/stm32f3xx_hal.c **** 
 326:Drivers/STM32F3xx_HAL_Driver/Src/stm32f3xx_hal.c **** /**
 327:Drivers/STM32F3xx_HAL_Driver/Src/stm32f3xx_hal.c ****   * @brief  Suspend Tick increment.
ARM GAS  /tmp/ccd61hBZ.s 			page 14


 328:Drivers/STM32F3xx_HAL_Driver/Src/stm32f3xx_hal.c ****   * @note   In the default implementation , SysTick timer is the source of time base. It is  
 329:Drivers/STM32F3xx_HAL_Driver/Src/stm32f3xx_hal.c ****   *         used to generate interrupts at regular time intervals. Once HAL_SuspendTick()
 330:Drivers/STM32F3xx_HAL_Driver/Src/stm32f3xx_hal.c ****   *         is called, the the SysTick interrupt will be disabled and so Tick increment 
 331:Drivers/STM32F3xx_HAL_Driver/Src/stm32f3xx_hal.c ****   *         is suspended.
 332:Drivers/STM32F3xx_HAL_Driver/Src/stm32f3xx_hal.c ****   * @note This function is declared as __weak to be overwritten in case of other
 333:Drivers/STM32F3xx_HAL_Driver/Src/stm32f3xx_hal.c ****   *         implementations  in user file.
 334:Drivers/STM32F3xx_HAL_Driver/Src/stm32f3xx_hal.c ****   * @retval None
 335:Drivers/STM32F3xx_HAL_Driver/Src/stm32f3xx_hal.c ****   */
 336:Drivers/STM32F3xx_HAL_Driver/Src/stm32f3xx_hal.c **** __weak void HAL_SuspendTick(void)
 337:Drivers/STM32F3xx_HAL_Driver/Src/stm32f3xx_hal.c **** 
 338:Drivers/STM32F3xx_HAL_Driver/Src/stm32f3xx_hal.c **** {
 434              		.loc 1 338 0
 435              		.cfi_startproc
 436              		@ args = 0, pretend = 0, frame = 0
 437              		@ frame_needed = 1, uses_anonymous_args = 0
 438              		@ link register save eliminated.
 439 0000 80B4     		push	{r7}
 440              	.LCFI30:
 441              		.cfi_def_cfa_offset 4
 442              		.cfi_offset 7, -4
 443 0002 00AF     		add	r7, sp, #0
 444              	.LCFI31:
 445              		.cfi_def_cfa_register 7
 339:Drivers/STM32F3xx_HAL_Driver/Src/stm32f3xx_hal.c ****   /* Disable SysTick Interrupt */
 340:Drivers/STM32F3xx_HAL_Driver/Src/stm32f3xx_hal.c ****   SysTick->CTRL &= ~SysTick_CTRL_TICKINT_Msk;
 446              		.loc 1 340 0
 447 0004 054B     		ldr	r3, .L27
 448 0006 1B68     		ldr	r3, [r3]
 449 0008 044A     		ldr	r2, .L27
 450 000a 23F00203 		bic	r3, r3, #2
 451 000e 1360     		str	r3, [r2]
 341:Drivers/STM32F3xx_HAL_Driver/Src/stm32f3xx_hal.c ****                                                    
 342:Drivers/STM32F3xx_HAL_Driver/Src/stm32f3xx_hal.c **** }
 452              		.loc 1 342 0
 453 0010 00BF     		nop
 454 0012 BD46     		mov	sp, r7
 455              	.LCFI32:
 456              		.cfi_def_cfa_register 13
 457              		@ sp needed
 458 0014 5DF8047B 		ldr	r7, [sp], #4
 459              	.LCFI33:
 460              		.cfi_restore 7
 461              		.cfi_def_cfa_offset 0
 462 0018 7047     		bx	lr
 463              	.L28:
 464 001a 00BF     		.align	2
 465              	.L27:
 466 001c 10E000E0 		.word	-536813552
 467              		.cfi_endproc
 468              	.LFE703:
 470              		.section	.text.HAL_ResumeTick,"ax",%progbits
 471              		.align	1
 472              		.weak	HAL_ResumeTick
 473              		.syntax unified
 474              		.thumb
 475              		.thumb_func
 476              		.fpu fpv4-sp-d16
ARM GAS  /tmp/ccd61hBZ.s 			page 15


 478              	HAL_ResumeTick:
 479              	.LFB704:
 343:Drivers/STM32F3xx_HAL_Driver/Src/stm32f3xx_hal.c **** 
 344:Drivers/STM32F3xx_HAL_Driver/Src/stm32f3xx_hal.c **** /**
 345:Drivers/STM32F3xx_HAL_Driver/Src/stm32f3xx_hal.c ****   * @brief  Resume Tick increment.
 346:Drivers/STM32F3xx_HAL_Driver/Src/stm32f3xx_hal.c ****   * @note   In the default implementation , SysTick timer is the source of time base. It is  
 347:Drivers/STM32F3xx_HAL_Driver/Src/stm32f3xx_hal.c ****   *         used to generate interrupts at regular time intervals. Once HAL_ResumeTick()
 348:Drivers/STM32F3xx_HAL_Driver/Src/stm32f3xx_hal.c ****   *         is called, the the SysTick interrupt will be enabled and so Tick increment 
 349:Drivers/STM32F3xx_HAL_Driver/Src/stm32f3xx_hal.c ****   *         is resumed.
 350:Drivers/STM32F3xx_HAL_Driver/Src/stm32f3xx_hal.c ****   *         The function is declared as __Weak  to be overwritten  in case of other
 351:Drivers/STM32F3xx_HAL_Driver/Src/stm32f3xx_hal.c ****   *         implementations  in user file.
 352:Drivers/STM32F3xx_HAL_Driver/Src/stm32f3xx_hal.c ****   * @retval None
 353:Drivers/STM32F3xx_HAL_Driver/Src/stm32f3xx_hal.c ****   */
 354:Drivers/STM32F3xx_HAL_Driver/Src/stm32f3xx_hal.c **** __weak void HAL_ResumeTick(void)
 355:Drivers/STM32F3xx_HAL_Driver/Src/stm32f3xx_hal.c **** {
 480              		.loc 1 355 0
 481              		.cfi_startproc
 482              		@ args = 0, pretend = 0, frame = 0
 483              		@ frame_needed = 1, uses_anonymous_args = 0
 484              		@ link register save eliminated.
 485 0000 80B4     		push	{r7}
 486              	.LCFI34:
 487              		.cfi_def_cfa_offset 4
 488              		.cfi_offset 7, -4
 489 0002 00AF     		add	r7, sp, #0
 490              	.LCFI35:
 491              		.cfi_def_cfa_register 7
 356:Drivers/STM32F3xx_HAL_Driver/Src/stm32f3xx_hal.c ****   /* Enable SysTick Interrupt */
 357:Drivers/STM32F3xx_HAL_Driver/Src/stm32f3xx_hal.c ****   SysTick->CTRL  |= SysTick_CTRL_TICKINT_Msk;
 492              		.loc 1 357 0
 493 0004 054B     		ldr	r3, .L30
 494 0006 1B68     		ldr	r3, [r3]
 495 0008 044A     		ldr	r2, .L30
 496 000a 43F00203 		orr	r3, r3, #2
 497 000e 1360     		str	r3, [r2]
 358:Drivers/STM32F3xx_HAL_Driver/Src/stm32f3xx_hal.c ****   
 359:Drivers/STM32F3xx_HAL_Driver/Src/stm32f3xx_hal.c **** }
 498              		.loc 1 359 0
 499 0010 00BF     		nop
 500 0012 BD46     		mov	sp, r7
 501              	.LCFI36:
 502              		.cfi_def_cfa_register 13
 503              		@ sp needed
 504 0014 5DF8047B 		ldr	r7, [sp], #4
 505              	.LCFI37:
 506              		.cfi_restore 7
 507              		.cfi_def_cfa_offset 0
 508 0018 7047     		bx	lr
 509              	.L31:
 510 001a 00BF     		.align	2
 511              	.L30:
 512 001c 10E000E0 		.word	-536813552
 513              		.cfi_endproc
 514              	.LFE704:
 516              		.section	.text.HAL_GetHalVersion,"ax",%progbits
 517              		.align	1
 518              		.global	HAL_GetHalVersion
ARM GAS  /tmp/ccd61hBZ.s 			page 16


 519              		.syntax unified
 520              		.thumb
 521              		.thumb_func
 522              		.fpu fpv4-sp-d16
 524              	HAL_GetHalVersion:
 525              	.LFB705:
 360:Drivers/STM32F3xx_HAL_Driver/Src/stm32f3xx_hal.c **** 
 361:Drivers/STM32F3xx_HAL_Driver/Src/stm32f3xx_hal.c **** /**
 362:Drivers/STM32F3xx_HAL_Driver/Src/stm32f3xx_hal.c ****   * @brief  This function returns the HAL revision
 363:Drivers/STM32F3xx_HAL_Driver/Src/stm32f3xx_hal.c ****   * @retval version : 0xXYZR (8bits for each decimal, R for RC)
 364:Drivers/STM32F3xx_HAL_Driver/Src/stm32f3xx_hal.c ****   */
 365:Drivers/STM32F3xx_HAL_Driver/Src/stm32f3xx_hal.c **** uint32_t HAL_GetHalVersion(void)
 366:Drivers/STM32F3xx_HAL_Driver/Src/stm32f3xx_hal.c **** {
 526              		.loc 1 366 0
 527              		.cfi_startproc
 528              		@ args = 0, pretend = 0, frame = 0
 529              		@ frame_needed = 1, uses_anonymous_args = 0
 530              		@ link register save eliminated.
 531 0000 80B4     		push	{r7}
 532              	.LCFI38:
 533              		.cfi_def_cfa_offset 4
 534              		.cfi_offset 7, -4
 535 0002 00AF     		add	r7, sp, #0
 536              	.LCFI39:
 537              		.cfi_def_cfa_register 7
 367:Drivers/STM32F3xx_HAL_Driver/Src/stm32f3xx_hal.c ****  return __STM32F3xx_HAL_VERSION;
 538              		.loc 1 367 0
 539 0004 024B     		ldr	r3, .L34
 368:Drivers/STM32F3xx_HAL_Driver/Src/stm32f3xx_hal.c **** }
 540              		.loc 1 368 0
 541 0006 1846     		mov	r0, r3
 542 0008 BD46     		mov	sp, r7
 543              	.LCFI40:
 544              		.cfi_def_cfa_register 13
 545              		@ sp needed
 546 000a 5DF8047B 		ldr	r7, [sp], #4
 547              	.LCFI41:
 548              		.cfi_restore 7
 549              		.cfi_def_cfa_offset 0
 550 000e 7047     		bx	lr
 551              	.L35:
 552              		.align	2
 553              	.L34:
 554 0010 00000501 		.word	17104896
 555              		.cfi_endproc
 556              	.LFE705:
 558              		.section	.text.HAL_GetREVID,"ax",%progbits
 559              		.align	1
 560              		.global	HAL_GetREVID
 561              		.syntax unified
 562              		.thumb
 563              		.thumb_func
 564              		.fpu fpv4-sp-d16
 566              	HAL_GetREVID:
 567              	.LFB706:
 369:Drivers/STM32F3xx_HAL_Driver/Src/stm32f3xx_hal.c **** 
 370:Drivers/STM32F3xx_HAL_Driver/Src/stm32f3xx_hal.c **** /**
ARM GAS  /tmp/ccd61hBZ.s 			page 17


 371:Drivers/STM32F3xx_HAL_Driver/Src/stm32f3xx_hal.c ****   * @brief  Returns the device revision identifier.
 372:Drivers/STM32F3xx_HAL_Driver/Src/stm32f3xx_hal.c ****   * @retval Device revision identifier
 373:Drivers/STM32F3xx_HAL_Driver/Src/stm32f3xx_hal.c ****   */
 374:Drivers/STM32F3xx_HAL_Driver/Src/stm32f3xx_hal.c **** uint32_t HAL_GetREVID(void)
 375:Drivers/STM32F3xx_HAL_Driver/Src/stm32f3xx_hal.c **** {
 568              		.loc 1 375 0
 569              		.cfi_startproc
 570              		@ args = 0, pretend = 0, frame = 0
 571              		@ frame_needed = 1, uses_anonymous_args = 0
 572              		@ link register save eliminated.
 573 0000 80B4     		push	{r7}
 574              	.LCFI42:
 575              		.cfi_def_cfa_offset 4
 576              		.cfi_offset 7, -4
 577 0002 00AF     		add	r7, sp, #0
 578              	.LCFI43:
 579              		.cfi_def_cfa_register 7
 376:Drivers/STM32F3xx_HAL_Driver/Src/stm32f3xx_hal.c ****   return((DBGMCU->IDCODE) >> 16U);
 580              		.loc 1 376 0
 581 0004 034B     		ldr	r3, .L38
 582 0006 1B68     		ldr	r3, [r3]
 583 0008 1B0C     		lsrs	r3, r3, #16
 377:Drivers/STM32F3xx_HAL_Driver/Src/stm32f3xx_hal.c **** }
 584              		.loc 1 377 0
 585 000a 1846     		mov	r0, r3
 586 000c BD46     		mov	sp, r7
 587              	.LCFI44:
 588              		.cfi_def_cfa_register 13
 589              		@ sp needed
 590 000e 5DF8047B 		ldr	r7, [sp], #4
 591              	.LCFI45:
 592              		.cfi_restore 7
 593              		.cfi_def_cfa_offset 0
 594 0012 7047     		bx	lr
 595              	.L39:
 596              		.align	2
 597              	.L38:
 598 0014 002004E0 		.word	-536600576
 599              		.cfi_endproc
 600              	.LFE706:
 602              		.section	.text.HAL_GetDEVID,"ax",%progbits
 603              		.align	1
 604              		.global	HAL_GetDEVID
 605              		.syntax unified
 606              		.thumb
 607              		.thumb_func
 608              		.fpu fpv4-sp-d16
 610              	HAL_GetDEVID:
 611              	.LFB707:
 378:Drivers/STM32F3xx_HAL_Driver/Src/stm32f3xx_hal.c **** 
 379:Drivers/STM32F3xx_HAL_Driver/Src/stm32f3xx_hal.c **** /**
 380:Drivers/STM32F3xx_HAL_Driver/Src/stm32f3xx_hal.c ****   * @brief  Returns the device identifier.
 381:Drivers/STM32F3xx_HAL_Driver/Src/stm32f3xx_hal.c ****   * @retval Device identifier
 382:Drivers/STM32F3xx_HAL_Driver/Src/stm32f3xx_hal.c ****   */
 383:Drivers/STM32F3xx_HAL_Driver/Src/stm32f3xx_hal.c **** uint32_t HAL_GetDEVID(void)
 384:Drivers/STM32F3xx_HAL_Driver/Src/stm32f3xx_hal.c **** {
 612              		.loc 1 384 0
ARM GAS  /tmp/ccd61hBZ.s 			page 18


 613              		.cfi_startproc
 614              		@ args = 0, pretend = 0, frame = 0
 615              		@ frame_needed = 1, uses_anonymous_args = 0
 616              		@ link register save eliminated.
 617 0000 80B4     		push	{r7}
 618              	.LCFI46:
 619              		.cfi_def_cfa_offset 4
 620              		.cfi_offset 7, -4
 621 0002 00AF     		add	r7, sp, #0
 622              	.LCFI47:
 623              		.cfi_def_cfa_register 7
 385:Drivers/STM32F3xx_HAL_Driver/Src/stm32f3xx_hal.c ****   return((DBGMCU->IDCODE) & IDCODE_DEVID_MASK);
 624              		.loc 1 385 0
 625 0004 044B     		ldr	r3, .L42
 626 0006 1B68     		ldr	r3, [r3]
 627 0008 C3F30B03 		ubfx	r3, r3, #0, #12
 386:Drivers/STM32F3xx_HAL_Driver/Src/stm32f3xx_hal.c **** }
 628              		.loc 1 386 0
 629 000c 1846     		mov	r0, r3
 630 000e BD46     		mov	sp, r7
 631              	.LCFI48:
 632              		.cfi_def_cfa_register 13
 633              		@ sp needed
 634 0010 5DF8047B 		ldr	r7, [sp], #4
 635              	.LCFI49:
 636              		.cfi_restore 7
 637              		.cfi_def_cfa_offset 0
 638 0014 7047     		bx	lr
 639              	.L43:
 640 0016 00BF     		.align	2
 641              	.L42:
 642 0018 002004E0 		.word	-536600576
 643              		.cfi_endproc
 644              	.LFE707:
 646              		.section	.text.HAL_GetUIDw0,"ax",%progbits
 647              		.align	1
 648              		.global	HAL_GetUIDw0
 649              		.syntax unified
 650              		.thumb
 651              		.thumb_func
 652              		.fpu fpv4-sp-d16
 654              	HAL_GetUIDw0:
 655              	.LFB708:
 387:Drivers/STM32F3xx_HAL_Driver/Src/stm32f3xx_hal.c **** 
 388:Drivers/STM32F3xx_HAL_Driver/Src/stm32f3xx_hal.c **** /**
 389:Drivers/STM32F3xx_HAL_Driver/Src/stm32f3xx_hal.c ****   * @brief  Returns first word of the unique device identifier (UID based on 96 bits)
 390:Drivers/STM32F3xx_HAL_Driver/Src/stm32f3xx_hal.c ****   * @retval Device identifier
 391:Drivers/STM32F3xx_HAL_Driver/Src/stm32f3xx_hal.c ****   */
 392:Drivers/STM32F3xx_HAL_Driver/Src/stm32f3xx_hal.c **** uint32_t HAL_GetUIDw0(void)
 393:Drivers/STM32F3xx_HAL_Driver/Src/stm32f3xx_hal.c **** {
 656              		.loc 1 393 0
 657              		.cfi_startproc
 658              		@ args = 0, pretend = 0, frame = 0
 659              		@ frame_needed = 1, uses_anonymous_args = 0
 660              		@ link register save eliminated.
 661 0000 80B4     		push	{r7}
 662              	.LCFI50:
ARM GAS  /tmp/ccd61hBZ.s 			page 19


 663              		.cfi_def_cfa_offset 4
 664              		.cfi_offset 7, -4
 665 0002 00AF     		add	r7, sp, #0
 666              	.LCFI51:
 667              		.cfi_def_cfa_register 7
 394:Drivers/STM32F3xx_HAL_Driver/Src/stm32f3xx_hal.c ****    return(READ_REG(*((uint32_t *)UID_BASE)));
 668              		.loc 1 394 0
 669 0004 034B     		ldr	r3, .L46
 670 0006 1B68     		ldr	r3, [r3]
 395:Drivers/STM32F3xx_HAL_Driver/Src/stm32f3xx_hal.c **** }
 671              		.loc 1 395 0
 672 0008 1846     		mov	r0, r3
 673 000a BD46     		mov	sp, r7
 674              	.LCFI52:
 675              		.cfi_def_cfa_register 13
 676              		@ sp needed
 677 000c 5DF8047B 		ldr	r7, [sp], #4
 678              	.LCFI53:
 679              		.cfi_restore 7
 680              		.cfi_def_cfa_offset 0
 681 0010 7047     		bx	lr
 682              	.L47:
 683 0012 00BF     		.align	2
 684              	.L46:
 685 0014 ACF7FF1F 		.word	536868780
 686              		.cfi_endproc
 687              	.LFE708:
 689              		.section	.text.HAL_GetUIDw1,"ax",%progbits
 690              		.align	1
 691              		.global	HAL_GetUIDw1
 692              		.syntax unified
 693              		.thumb
 694              		.thumb_func
 695              		.fpu fpv4-sp-d16
 697              	HAL_GetUIDw1:
 698              	.LFB709:
 396:Drivers/STM32F3xx_HAL_Driver/Src/stm32f3xx_hal.c **** 
 397:Drivers/STM32F3xx_HAL_Driver/Src/stm32f3xx_hal.c **** /**
 398:Drivers/STM32F3xx_HAL_Driver/Src/stm32f3xx_hal.c ****   * @brief  Returns second word of the unique device identifier (UID based on 96 bits)
 399:Drivers/STM32F3xx_HAL_Driver/Src/stm32f3xx_hal.c ****   * @retval Device identifier
 400:Drivers/STM32F3xx_HAL_Driver/Src/stm32f3xx_hal.c ****   */
 401:Drivers/STM32F3xx_HAL_Driver/Src/stm32f3xx_hal.c **** uint32_t HAL_GetUIDw1(void)
 402:Drivers/STM32F3xx_HAL_Driver/Src/stm32f3xx_hal.c **** {
 699              		.loc 1 402 0
 700              		.cfi_startproc
 701              		@ args = 0, pretend = 0, frame = 0
 702              		@ frame_needed = 1, uses_anonymous_args = 0
 703              		@ link register save eliminated.
 704 0000 80B4     		push	{r7}
 705              	.LCFI54:
 706              		.cfi_def_cfa_offset 4
 707              		.cfi_offset 7, -4
 708 0002 00AF     		add	r7, sp, #0
 709              	.LCFI55:
 710              		.cfi_def_cfa_register 7
 403:Drivers/STM32F3xx_HAL_Driver/Src/stm32f3xx_hal.c ****    return(READ_REG(*((uint32_t *)(UID_BASE + 4U))));
 711              		.loc 1 403 0
ARM GAS  /tmp/ccd61hBZ.s 			page 20


 712 0004 034B     		ldr	r3, .L50
 713 0006 1B68     		ldr	r3, [r3]
 404:Drivers/STM32F3xx_HAL_Driver/Src/stm32f3xx_hal.c **** }
 714              		.loc 1 404 0
 715 0008 1846     		mov	r0, r3
 716 000a BD46     		mov	sp, r7
 717              	.LCFI56:
 718              		.cfi_def_cfa_register 13
 719              		@ sp needed
 720 000c 5DF8047B 		ldr	r7, [sp], #4
 721              	.LCFI57:
 722              		.cfi_restore 7
 723              		.cfi_def_cfa_offset 0
 724 0010 7047     		bx	lr
 725              	.L51:
 726 0012 00BF     		.align	2
 727              	.L50:
 728 0014 B0F7FF1F 		.word	536868784
 729              		.cfi_endproc
 730              	.LFE709:
 732              		.section	.text.HAL_GetUIDw2,"ax",%progbits
 733              		.align	1
 734              		.global	HAL_GetUIDw2
 735              		.syntax unified
 736              		.thumb
 737              		.thumb_func
 738              		.fpu fpv4-sp-d16
 740              	HAL_GetUIDw2:
 741              	.LFB710:
 405:Drivers/STM32F3xx_HAL_Driver/Src/stm32f3xx_hal.c **** 
 406:Drivers/STM32F3xx_HAL_Driver/Src/stm32f3xx_hal.c **** /**
 407:Drivers/STM32F3xx_HAL_Driver/Src/stm32f3xx_hal.c ****   * @brief  Returns third word of the unique device identifier (UID based on 96 bits)
 408:Drivers/STM32F3xx_HAL_Driver/Src/stm32f3xx_hal.c ****   * @retval Device identifier
 409:Drivers/STM32F3xx_HAL_Driver/Src/stm32f3xx_hal.c ****   */
 410:Drivers/STM32F3xx_HAL_Driver/Src/stm32f3xx_hal.c **** uint32_t HAL_GetUIDw2(void)
 411:Drivers/STM32F3xx_HAL_Driver/Src/stm32f3xx_hal.c **** {
 742              		.loc 1 411 0
 743              		.cfi_startproc
 744              		@ args = 0, pretend = 0, frame = 0
 745              		@ frame_needed = 1, uses_anonymous_args = 0
 746              		@ link register save eliminated.
 747 0000 80B4     		push	{r7}
 748              	.LCFI58:
 749              		.cfi_def_cfa_offset 4
 750              		.cfi_offset 7, -4
 751 0002 00AF     		add	r7, sp, #0
 752              	.LCFI59:
 753              		.cfi_def_cfa_register 7
 412:Drivers/STM32F3xx_HAL_Driver/Src/stm32f3xx_hal.c ****    return(READ_REG(*((uint32_t *)(UID_BASE + 8U))));
 754              		.loc 1 412 0
 755 0004 034B     		ldr	r3, .L54
 756 0006 1B68     		ldr	r3, [r3]
 413:Drivers/STM32F3xx_HAL_Driver/Src/stm32f3xx_hal.c **** }
 757              		.loc 1 413 0
 758 0008 1846     		mov	r0, r3
 759 000a BD46     		mov	sp, r7
 760              	.LCFI60:
ARM GAS  /tmp/ccd61hBZ.s 			page 21


 761              		.cfi_def_cfa_register 13
 762              		@ sp needed
 763 000c 5DF8047B 		ldr	r7, [sp], #4
 764              	.LCFI61:
 765              		.cfi_restore 7
 766              		.cfi_def_cfa_offset 0
 767 0010 7047     		bx	lr
 768              	.L55:
 769 0012 00BF     		.align	2
 770              	.L54:
 771 0014 B4F7FF1F 		.word	536868788
 772              		.cfi_endproc
 773              	.LFE710:
 775              		.section	.text.HAL_DBGMCU_EnableDBGSleepMode,"ax",%progbits
 776              		.align	1
 777              		.global	HAL_DBGMCU_EnableDBGSleepMode
 778              		.syntax unified
 779              		.thumb
 780              		.thumb_func
 781              		.fpu fpv4-sp-d16
 783              	HAL_DBGMCU_EnableDBGSleepMode:
 784              	.LFB711:
 414:Drivers/STM32F3xx_HAL_Driver/Src/stm32f3xx_hal.c **** 
 415:Drivers/STM32F3xx_HAL_Driver/Src/stm32f3xx_hal.c **** /**
 416:Drivers/STM32F3xx_HAL_Driver/Src/stm32f3xx_hal.c ****   * @brief  Enable the Debug Module during SLEEP mode
 417:Drivers/STM32F3xx_HAL_Driver/Src/stm32f3xx_hal.c ****   * @retval None
 418:Drivers/STM32F3xx_HAL_Driver/Src/stm32f3xx_hal.c ****   */
 419:Drivers/STM32F3xx_HAL_Driver/Src/stm32f3xx_hal.c **** void HAL_DBGMCU_EnableDBGSleepMode(void)
 420:Drivers/STM32F3xx_HAL_Driver/Src/stm32f3xx_hal.c **** {
 785              		.loc 1 420 0
 786              		.cfi_startproc
 787              		@ args = 0, pretend = 0, frame = 0
 788              		@ frame_needed = 1, uses_anonymous_args = 0
 789              		@ link register save eliminated.
 790 0000 80B4     		push	{r7}
 791              	.LCFI62:
 792              		.cfi_def_cfa_offset 4
 793              		.cfi_offset 7, -4
 794 0002 00AF     		add	r7, sp, #0
 795              	.LCFI63:
 796              		.cfi_def_cfa_register 7
 421:Drivers/STM32F3xx_HAL_Driver/Src/stm32f3xx_hal.c ****   SET_BIT(DBGMCU->CR, DBGMCU_CR_DBG_SLEEP);
 797              		.loc 1 421 0
 798 0004 054B     		ldr	r3, .L57
 799 0006 5B68     		ldr	r3, [r3, #4]
 800 0008 044A     		ldr	r2, .L57
 801 000a 43F00103 		orr	r3, r3, #1
 802 000e 5360     		str	r3, [r2, #4]
 422:Drivers/STM32F3xx_HAL_Driver/Src/stm32f3xx_hal.c **** }
 803              		.loc 1 422 0
 804 0010 00BF     		nop
 805 0012 BD46     		mov	sp, r7
 806              	.LCFI64:
 807              		.cfi_def_cfa_register 13
 808              		@ sp needed
 809 0014 5DF8047B 		ldr	r7, [sp], #4
 810              	.LCFI65:
ARM GAS  /tmp/ccd61hBZ.s 			page 22


 811              		.cfi_restore 7
 812              		.cfi_def_cfa_offset 0
 813 0018 7047     		bx	lr
 814              	.L58:
 815 001a 00BF     		.align	2
 816              	.L57:
 817 001c 002004E0 		.word	-536600576
 818              		.cfi_endproc
 819              	.LFE711:
 821              		.section	.text.HAL_DBGMCU_DisableDBGSleepMode,"ax",%progbits
 822              		.align	1
 823              		.global	HAL_DBGMCU_DisableDBGSleepMode
 824              		.syntax unified
 825              		.thumb
 826              		.thumb_func
 827              		.fpu fpv4-sp-d16
 829              	HAL_DBGMCU_DisableDBGSleepMode:
 830              	.LFB712:
 423:Drivers/STM32F3xx_HAL_Driver/Src/stm32f3xx_hal.c **** 
 424:Drivers/STM32F3xx_HAL_Driver/Src/stm32f3xx_hal.c **** /**
 425:Drivers/STM32F3xx_HAL_Driver/Src/stm32f3xx_hal.c ****   * @brief  Disable the Debug Module during SLEEP mode
 426:Drivers/STM32F3xx_HAL_Driver/Src/stm32f3xx_hal.c ****   * @retval None
 427:Drivers/STM32F3xx_HAL_Driver/Src/stm32f3xx_hal.c ****   */
 428:Drivers/STM32F3xx_HAL_Driver/Src/stm32f3xx_hal.c **** void HAL_DBGMCU_DisableDBGSleepMode(void)
 429:Drivers/STM32F3xx_HAL_Driver/Src/stm32f3xx_hal.c **** {
 831              		.loc 1 429 0
 832              		.cfi_startproc
 833              		@ args = 0, pretend = 0, frame = 0
 834              		@ frame_needed = 1, uses_anonymous_args = 0
 835              		@ link register save eliminated.
 836 0000 80B4     		push	{r7}
 837              	.LCFI66:
 838              		.cfi_def_cfa_offset 4
 839              		.cfi_offset 7, -4
 840 0002 00AF     		add	r7, sp, #0
 841              	.LCFI67:
 842              		.cfi_def_cfa_register 7
 430:Drivers/STM32F3xx_HAL_Driver/Src/stm32f3xx_hal.c ****   CLEAR_BIT(DBGMCU->CR, DBGMCU_CR_DBG_SLEEP);
 843              		.loc 1 430 0
 844 0004 054B     		ldr	r3, .L60
 845 0006 5B68     		ldr	r3, [r3, #4]
 846 0008 044A     		ldr	r2, .L60
 847 000a 23F00103 		bic	r3, r3, #1
 848 000e 5360     		str	r3, [r2, #4]
 431:Drivers/STM32F3xx_HAL_Driver/Src/stm32f3xx_hal.c **** }
 849              		.loc 1 431 0
 850 0010 00BF     		nop
 851 0012 BD46     		mov	sp, r7
 852              	.LCFI68:
 853              		.cfi_def_cfa_register 13
 854              		@ sp needed
 855 0014 5DF8047B 		ldr	r7, [sp], #4
 856              	.LCFI69:
 857              		.cfi_restore 7
 858              		.cfi_def_cfa_offset 0
 859 0018 7047     		bx	lr
 860              	.L61:
ARM GAS  /tmp/ccd61hBZ.s 			page 23


 861 001a 00BF     		.align	2
 862              	.L60:
 863 001c 002004E0 		.word	-536600576
 864              		.cfi_endproc
 865              	.LFE712:
 867              		.section	.text.HAL_DBGMCU_EnableDBGStopMode,"ax",%progbits
 868              		.align	1
 869              		.global	HAL_DBGMCU_EnableDBGStopMode
 870              		.syntax unified
 871              		.thumb
 872              		.thumb_func
 873              		.fpu fpv4-sp-d16
 875              	HAL_DBGMCU_EnableDBGStopMode:
 876              	.LFB713:
 432:Drivers/STM32F3xx_HAL_Driver/Src/stm32f3xx_hal.c **** 
 433:Drivers/STM32F3xx_HAL_Driver/Src/stm32f3xx_hal.c **** /**
 434:Drivers/STM32F3xx_HAL_Driver/Src/stm32f3xx_hal.c ****   * @brief  Enable the Debug Module during STOP mode
 435:Drivers/STM32F3xx_HAL_Driver/Src/stm32f3xx_hal.c ****   * @retval None
 436:Drivers/STM32F3xx_HAL_Driver/Src/stm32f3xx_hal.c ****   */
 437:Drivers/STM32F3xx_HAL_Driver/Src/stm32f3xx_hal.c **** void HAL_DBGMCU_EnableDBGStopMode(void)
 438:Drivers/STM32F3xx_HAL_Driver/Src/stm32f3xx_hal.c **** {
 877              		.loc 1 438 0
 878              		.cfi_startproc
 879              		@ args = 0, pretend = 0, frame = 0
 880              		@ frame_needed = 1, uses_anonymous_args = 0
 881              		@ link register save eliminated.
 882 0000 80B4     		push	{r7}
 883              	.LCFI70:
 884              		.cfi_def_cfa_offset 4
 885              		.cfi_offset 7, -4
 886 0002 00AF     		add	r7, sp, #0
 887              	.LCFI71:
 888              		.cfi_def_cfa_register 7
 439:Drivers/STM32F3xx_HAL_Driver/Src/stm32f3xx_hal.c ****   SET_BIT(DBGMCU->CR, DBGMCU_CR_DBG_STOP);
 889              		.loc 1 439 0
 890 0004 054B     		ldr	r3, .L63
 891 0006 5B68     		ldr	r3, [r3, #4]
 892 0008 044A     		ldr	r2, .L63
 893 000a 43F00203 		orr	r3, r3, #2
 894 000e 5360     		str	r3, [r2, #4]
 440:Drivers/STM32F3xx_HAL_Driver/Src/stm32f3xx_hal.c **** }
 895              		.loc 1 440 0
 896 0010 00BF     		nop
 897 0012 BD46     		mov	sp, r7
 898              	.LCFI72:
 899              		.cfi_def_cfa_register 13
 900              		@ sp needed
 901 0014 5DF8047B 		ldr	r7, [sp], #4
 902              	.LCFI73:
 903              		.cfi_restore 7
 904              		.cfi_def_cfa_offset 0
 905 0018 7047     		bx	lr
 906              	.L64:
 907 001a 00BF     		.align	2
 908              	.L63:
 909 001c 002004E0 		.word	-536600576
 910              		.cfi_endproc
ARM GAS  /tmp/ccd61hBZ.s 			page 24


 911              	.LFE713:
 913              		.section	.text.HAL_DBGMCU_DisableDBGStopMode,"ax",%progbits
 914              		.align	1
 915              		.global	HAL_DBGMCU_DisableDBGStopMode
 916              		.syntax unified
 917              		.thumb
 918              		.thumb_func
 919              		.fpu fpv4-sp-d16
 921              	HAL_DBGMCU_DisableDBGStopMode:
 922              	.LFB714:
 441:Drivers/STM32F3xx_HAL_Driver/Src/stm32f3xx_hal.c **** 
 442:Drivers/STM32F3xx_HAL_Driver/Src/stm32f3xx_hal.c **** /**
 443:Drivers/STM32F3xx_HAL_Driver/Src/stm32f3xx_hal.c ****   * @brief  Disable the Debug Module during STOP mode
 444:Drivers/STM32F3xx_HAL_Driver/Src/stm32f3xx_hal.c ****   * @retval None
 445:Drivers/STM32F3xx_HAL_Driver/Src/stm32f3xx_hal.c ****   */
 446:Drivers/STM32F3xx_HAL_Driver/Src/stm32f3xx_hal.c **** void HAL_DBGMCU_DisableDBGStopMode(void)
 447:Drivers/STM32F3xx_HAL_Driver/Src/stm32f3xx_hal.c **** {
 923              		.loc 1 447 0
 924              		.cfi_startproc
 925              		@ args = 0, pretend = 0, frame = 0
 926              		@ frame_needed = 1, uses_anonymous_args = 0
 927              		@ link register save eliminated.
 928 0000 80B4     		push	{r7}
 929              	.LCFI74:
 930              		.cfi_def_cfa_offset 4
 931              		.cfi_offset 7, -4
 932 0002 00AF     		add	r7, sp, #0
 933              	.LCFI75:
 934              		.cfi_def_cfa_register 7
 448:Drivers/STM32F3xx_HAL_Driver/Src/stm32f3xx_hal.c ****   CLEAR_BIT(DBGMCU->CR, DBGMCU_CR_DBG_STOP);
 935              		.loc 1 448 0
 936 0004 054B     		ldr	r3, .L66
 937 0006 5B68     		ldr	r3, [r3, #4]
 938 0008 044A     		ldr	r2, .L66
 939 000a 23F00203 		bic	r3, r3, #2
 940 000e 5360     		str	r3, [r2, #4]
 449:Drivers/STM32F3xx_HAL_Driver/Src/stm32f3xx_hal.c **** }
 941              		.loc 1 449 0
 942 0010 00BF     		nop
 943 0012 BD46     		mov	sp, r7
 944              	.LCFI76:
 945              		.cfi_def_cfa_register 13
 946              		@ sp needed
 947 0014 5DF8047B 		ldr	r7, [sp], #4
 948              	.LCFI77:
 949              		.cfi_restore 7
 950              		.cfi_def_cfa_offset 0
 951 0018 7047     		bx	lr
 952              	.L67:
 953 001a 00BF     		.align	2
 954              	.L66:
 955 001c 002004E0 		.word	-536600576
 956              		.cfi_endproc
 957              	.LFE714:
 959              		.section	.text.HAL_DBGMCU_EnableDBGStandbyMode,"ax",%progbits
 960              		.align	1
 961              		.global	HAL_DBGMCU_EnableDBGStandbyMode
ARM GAS  /tmp/ccd61hBZ.s 			page 25


 962              		.syntax unified
 963              		.thumb
 964              		.thumb_func
 965              		.fpu fpv4-sp-d16
 967              	HAL_DBGMCU_EnableDBGStandbyMode:
 968              	.LFB715:
 450:Drivers/STM32F3xx_HAL_Driver/Src/stm32f3xx_hal.c **** 
 451:Drivers/STM32F3xx_HAL_Driver/Src/stm32f3xx_hal.c **** /**
 452:Drivers/STM32F3xx_HAL_Driver/Src/stm32f3xx_hal.c ****   * @brief  Enable the Debug Module during STANDBY mode
 453:Drivers/STM32F3xx_HAL_Driver/Src/stm32f3xx_hal.c ****   * @retval None
 454:Drivers/STM32F3xx_HAL_Driver/Src/stm32f3xx_hal.c ****   */
 455:Drivers/STM32F3xx_HAL_Driver/Src/stm32f3xx_hal.c **** void HAL_DBGMCU_EnableDBGStandbyMode(void)
 456:Drivers/STM32F3xx_HAL_Driver/Src/stm32f3xx_hal.c **** {
 969              		.loc 1 456 0
 970              		.cfi_startproc
 971              		@ args = 0, pretend = 0, frame = 0
 972              		@ frame_needed = 1, uses_anonymous_args = 0
 973              		@ link register save eliminated.
 974 0000 80B4     		push	{r7}
 975              	.LCFI78:
 976              		.cfi_def_cfa_offset 4
 977              		.cfi_offset 7, -4
 978 0002 00AF     		add	r7, sp, #0
 979              	.LCFI79:
 980              		.cfi_def_cfa_register 7
 457:Drivers/STM32F3xx_HAL_Driver/Src/stm32f3xx_hal.c ****   SET_BIT(DBGMCU->CR, DBGMCU_CR_DBG_STANDBY);
 981              		.loc 1 457 0
 982 0004 054B     		ldr	r3, .L69
 983 0006 5B68     		ldr	r3, [r3, #4]
 984 0008 044A     		ldr	r2, .L69
 985 000a 43F00403 		orr	r3, r3, #4
 986 000e 5360     		str	r3, [r2, #4]
 458:Drivers/STM32F3xx_HAL_Driver/Src/stm32f3xx_hal.c **** }
 987              		.loc 1 458 0
 988 0010 00BF     		nop
 989 0012 BD46     		mov	sp, r7
 990              	.LCFI80:
 991              		.cfi_def_cfa_register 13
 992              		@ sp needed
 993 0014 5DF8047B 		ldr	r7, [sp], #4
 994              	.LCFI81:
 995              		.cfi_restore 7
 996              		.cfi_def_cfa_offset 0
 997 0018 7047     		bx	lr
 998              	.L70:
 999 001a 00BF     		.align	2
 1000              	.L69:
 1001 001c 002004E0 		.word	-536600576
 1002              		.cfi_endproc
 1003              	.LFE715:
 1005              		.section	.text.HAL_DBGMCU_DisableDBGStandbyMode,"ax",%progbits
 1006              		.align	1
 1007              		.global	HAL_DBGMCU_DisableDBGStandbyMode
 1008              		.syntax unified
 1009              		.thumb
 1010              		.thumb_func
 1011              		.fpu fpv4-sp-d16
ARM GAS  /tmp/ccd61hBZ.s 			page 26


 1013              	HAL_DBGMCU_DisableDBGStandbyMode:
 1014              	.LFB716:
 459:Drivers/STM32F3xx_HAL_Driver/Src/stm32f3xx_hal.c **** 
 460:Drivers/STM32F3xx_HAL_Driver/Src/stm32f3xx_hal.c **** /**
 461:Drivers/STM32F3xx_HAL_Driver/Src/stm32f3xx_hal.c ****   * @brief  Disable the Debug Module during STANDBY mode
 462:Drivers/STM32F3xx_HAL_Driver/Src/stm32f3xx_hal.c ****   * @retval None
 463:Drivers/STM32F3xx_HAL_Driver/Src/stm32f3xx_hal.c ****   */
 464:Drivers/STM32F3xx_HAL_Driver/Src/stm32f3xx_hal.c **** void HAL_DBGMCU_DisableDBGStandbyMode(void)
 465:Drivers/STM32F3xx_HAL_Driver/Src/stm32f3xx_hal.c **** {
 1015              		.loc 1 465 0
 1016              		.cfi_startproc
 1017              		@ args = 0, pretend = 0, frame = 0
 1018              		@ frame_needed = 1, uses_anonymous_args = 0
 1019              		@ link register save eliminated.
 1020 0000 80B4     		push	{r7}
 1021              	.LCFI82:
 1022              		.cfi_def_cfa_offset 4
 1023              		.cfi_offset 7, -4
 1024 0002 00AF     		add	r7, sp, #0
 1025              	.LCFI83:
 1026              		.cfi_def_cfa_register 7
 466:Drivers/STM32F3xx_HAL_Driver/Src/stm32f3xx_hal.c ****   CLEAR_BIT(DBGMCU->CR, DBGMCU_CR_DBG_STANDBY);
 1027              		.loc 1 466 0
 1028 0004 054B     		ldr	r3, .L72
 1029 0006 5B68     		ldr	r3, [r3, #4]
 1030 0008 044A     		ldr	r2, .L72
 1031 000a 23F00403 		bic	r3, r3, #4
 1032 000e 5360     		str	r3, [r2, #4]
 467:Drivers/STM32F3xx_HAL_Driver/Src/stm32f3xx_hal.c **** }
 1033              		.loc 1 467 0
 1034 0010 00BF     		nop
 1035 0012 BD46     		mov	sp, r7
 1036              	.LCFI84:
 1037              		.cfi_def_cfa_register 13
 1038              		@ sp needed
 1039 0014 5DF8047B 		ldr	r7, [sp], #4
 1040              	.LCFI85:
 1041              		.cfi_restore 7
 1042              		.cfi_def_cfa_offset 0
 1043 0018 7047     		bx	lr
 1044              	.L73:
 1045 001a 00BF     		.align	2
 1046              	.L72:
 1047 001c 002004E0 		.word	-536600576
 1048              		.cfi_endproc
 1049              	.LFE716:
 1051              		.text
 1052              	.Letext0:
 1053              		.file 2 "/usr/arm-none-eabi/include/machine/_default_types.h"
 1054              		.file 3 "/usr/arm-none-eabi/include/sys/_stdint.h"
 1055              		.file 4 "Drivers/CMSIS/Include/core_cm4.h"
 1056              		.file 5 "Drivers/CMSIS/Device/ST/STM32F3xx/Include/system_stm32f3xx.h"
 1057              		.file 6 "Drivers/CMSIS/Device/ST/STM32F3xx/Include/stm32f303x8.h"
 1058              		.file 7 "/usr/arm-none-eabi/include/sys/lock.h"
 1059              		.file 8 "/usr/arm-none-eabi/include/sys/_types.h"
 1060              		.file 9 "/usr/lib/gcc/arm-none-eabi/7.3.0/include/stddef.h"
 1061              		.file 10 "/usr/arm-none-eabi/include/sys/reent.h"
ARM GAS  /tmp/ccd61hBZ.s 			page 27


 1062              		.file 11 "Drivers/STM32F3xx_HAL_Driver/Inc/stm32f3xx_hal_def.h"
 1063              		.file 12 "Drivers/STM32F3xx_HAL_Driver/Inc/stm32f3xx_ll_dma.h"
ARM GAS  /tmp/ccd61hBZ.s 			page 28

