ARM GAS  /tmp/ccZ0zGVl.s 			page 1


   1              		.cpu cortex-m4
   2              		.eabi_attribute 27, 1
   3              		.eabi_attribute 28, 1
   4              		.eabi_attribute 20, 1
   5              		.eabi_attribute 21, 1
   6              		.eabi_attribute 23, 3
   7              		.eabi_attribute 24, 1
   8              		.eabi_attribute 25, 1
   9              		.eabi_attribute 26, 1
  10              		.eabi_attribute 30, 6
  11              		.eabi_attribute 34, 1
  12              		.eabi_attribute 18, 4
  13              		.file	"stm32f3xx_hal_dma.c"
  14              		.text
  15              	.Ltext0:
  16              		.cfi_sections	.debug_frame
  17              		.section	.rodata.CHANNEL_OFFSET_TAB,"a",%progbits
  18              		.align	2
  21              	CHANNEL_OFFSET_TAB:
  22 0000 08       		.byte	8
  23 0001 1C       		.byte	28
  24 0002 30       		.byte	48
  25 0003 44       		.byte	68
  26 0004 58       		.byte	88
  27 0005 6C       		.byte	108
  28 0006 80       		.byte	-128
  29              		.section	.text.HAL_DMA_Init,"ax",%progbits
  30              		.align	1
  31              		.global	HAL_DMA_Init
  32              		.syntax unified
  33              		.thumb
  34              		.thumb_func
  35              		.fpu fpv4-sp-d16
  37              	HAL_DMA_Init:
  38              	.LFB695:
  39              		.file 1 "Drivers/STM32F3xx_HAL_Driver/Src/stm32f3xx_hal_dma.c"
   1:Drivers/STM32F3xx_HAL_Driver/Src/stm32f3xx_hal_dma.c **** /**
   2:Drivers/STM32F3xx_HAL_Driver/Src/stm32f3xx_hal_dma.c ****   ******************************************************************************
   3:Drivers/STM32F3xx_HAL_Driver/Src/stm32f3xx_hal_dma.c ****   * @file    stm32f3xx_hal_dma.c
   4:Drivers/STM32F3xx_HAL_Driver/Src/stm32f3xx_hal_dma.c ****   * @author  MCD Application Team
   5:Drivers/STM32F3xx_HAL_Driver/Src/stm32f3xx_hal_dma.c ****   * @brief   DMA HAL module driver.
   6:Drivers/STM32F3xx_HAL_Driver/Src/stm32f3xx_hal_dma.c ****   *    
   7:Drivers/STM32F3xx_HAL_Driver/Src/stm32f3xx_hal_dma.c ****   *         This file provides firmware functions to manage the following 
   8:Drivers/STM32F3xx_HAL_Driver/Src/stm32f3xx_hal_dma.c ****   *         functionalities of the Direct Memory Access (DMA) peripheral:
   9:Drivers/STM32F3xx_HAL_Driver/Src/stm32f3xx_hal_dma.c ****   *           + Initialization and de-initialization functions
  10:Drivers/STM32F3xx_HAL_Driver/Src/stm32f3xx_hal_dma.c ****   *           + IO operation functions
  11:Drivers/STM32F3xx_HAL_Driver/Src/stm32f3xx_hal_dma.c ****   *           + Peripheral State and errors functions
  12:Drivers/STM32F3xx_HAL_Driver/Src/stm32f3xx_hal_dma.c ****   @verbatim     
  13:Drivers/STM32F3xx_HAL_Driver/Src/stm32f3xx_hal_dma.c ****   ==============================================================================      
  14:Drivers/STM32F3xx_HAL_Driver/Src/stm32f3xx_hal_dma.c ****                         ##### How to use this driver #####
  15:Drivers/STM32F3xx_HAL_Driver/Src/stm32f3xx_hal_dma.c ****   ============================================================================== 
  16:Drivers/STM32F3xx_HAL_Driver/Src/stm32f3xx_hal_dma.c ****   [..]
  17:Drivers/STM32F3xx_HAL_Driver/Src/stm32f3xx_hal_dma.c ****    (#) Enable and configure the peripheral to be connected to the DMA Channel
  18:Drivers/STM32F3xx_HAL_Driver/Src/stm32f3xx_hal_dma.c ****        (except for internal SRAM / FLASH memories: no initialization is 
  19:Drivers/STM32F3xx_HAL_Driver/Src/stm32f3xx_hal_dma.c ****        necessary). Please refer to Reference manual for connection between peripherals
  20:Drivers/STM32F3xx_HAL_Driver/Src/stm32f3xx_hal_dma.c ****        and DMA requests .
  21:Drivers/STM32F3xx_HAL_Driver/Src/stm32f3xx_hal_dma.c **** 
ARM GAS  /tmp/ccZ0zGVl.s 			page 2


  22:Drivers/STM32F3xx_HAL_Driver/Src/stm32f3xx_hal_dma.c ****    (#) For a given Channel, program the required configuration through the following parameters:   
  23:Drivers/STM32F3xx_HAL_Driver/Src/stm32f3xx_hal_dma.c ****        Transfer Direction, Source and Destination data formats, 
  24:Drivers/STM32F3xx_HAL_Driver/Src/stm32f3xx_hal_dma.c ****        Circular or Normal mode, Channel Priority level, Source and Destination Increment mode, 
  25:Drivers/STM32F3xx_HAL_Driver/Src/stm32f3xx_hal_dma.c ****        using HAL_DMA_Init() function.
  26:Drivers/STM32F3xx_HAL_Driver/Src/stm32f3xx_hal_dma.c **** 
  27:Drivers/STM32F3xx_HAL_Driver/Src/stm32f3xx_hal_dma.c ****    (#) Use HAL_DMA_GetState() function to return the DMA state and HAL_DMA_GetError() in case of er
  28:Drivers/STM32F3xx_HAL_Driver/Src/stm32f3xx_hal_dma.c ****        detection.
  29:Drivers/STM32F3xx_HAL_Driver/Src/stm32f3xx_hal_dma.c ****                     
  30:Drivers/STM32F3xx_HAL_Driver/Src/stm32f3xx_hal_dma.c ****    (#) Use HAL_DMA_Abort() function to abort the current transfer
  31:Drivers/STM32F3xx_HAL_Driver/Src/stm32f3xx_hal_dma.c ****                    
  32:Drivers/STM32F3xx_HAL_Driver/Src/stm32f3xx_hal_dma.c ****      -@-   In Memory-to-Memory transfer mode, Circular mode is not allowed.
  33:Drivers/STM32F3xx_HAL_Driver/Src/stm32f3xx_hal_dma.c ****      *** Polling mode IO operation ***
  34:Drivers/STM32F3xx_HAL_Driver/Src/stm32f3xx_hal_dma.c ****      =================================   
  35:Drivers/STM32F3xx_HAL_Driver/Src/stm32f3xx_hal_dma.c ****     [..] 
  36:Drivers/STM32F3xx_HAL_Driver/Src/stm32f3xx_hal_dma.c ****       (+) Use HAL_DMA_Start() to start DMA transfer after the configuration of Source 
  37:Drivers/STM32F3xx_HAL_Driver/Src/stm32f3xx_hal_dma.c ****           address and destination address and the Length of data to be transferred
  38:Drivers/STM32F3xx_HAL_Driver/Src/stm32f3xx_hal_dma.c ****       (+) Use HAL_DMA_PollForTransfer() to poll for the end of current transfer, in this  
  39:Drivers/STM32F3xx_HAL_Driver/Src/stm32f3xx_hal_dma.c ****           case a fixed Timeout can be configured by User depending from his application.
  40:Drivers/STM32F3xx_HAL_Driver/Src/stm32f3xx_hal_dma.c **** 
  41:Drivers/STM32F3xx_HAL_Driver/Src/stm32f3xx_hal_dma.c ****      *** Interrupt mode IO operation ***    
  42:Drivers/STM32F3xx_HAL_Driver/Src/stm32f3xx_hal_dma.c ****      =================================== 
  43:Drivers/STM32F3xx_HAL_Driver/Src/stm32f3xx_hal_dma.c ****     [..]
  44:Drivers/STM32F3xx_HAL_Driver/Src/stm32f3xx_hal_dma.c ****       (+) Configure the DMA interrupt priority using HAL_NVIC_SetPriority()
  45:Drivers/STM32F3xx_HAL_Driver/Src/stm32f3xx_hal_dma.c ****       (+) Enable the DMA IRQ handler using HAL_NVIC_EnableIRQ() 
  46:Drivers/STM32F3xx_HAL_Driver/Src/stm32f3xx_hal_dma.c ****       (+) Use HAL_DMA_Start_IT() to start DMA transfer after the configuration of  
  47:Drivers/STM32F3xx_HAL_Driver/Src/stm32f3xx_hal_dma.c ****           Source address and destination address and the Length of data to be transferred. 
  48:Drivers/STM32F3xx_HAL_Driver/Src/stm32f3xx_hal_dma.c ****           In this case the DMA interrupt is configured 
  49:Drivers/STM32F3xx_HAL_Driver/Src/stm32f3xx_hal_dma.c ****       (+) Use HAL_DMA_Channel_IRQHandler() called under DMA_IRQHandler() Interrupt subroutine
  50:Drivers/STM32F3xx_HAL_Driver/Src/stm32f3xx_hal_dma.c ****       (+) At the end of data transfer HAL_DMA_IRQHandler() function is executed and user can 
  51:Drivers/STM32F3xx_HAL_Driver/Src/stm32f3xx_hal_dma.c ****           add his own function by customization of function pointer XferCpltCallback and 
  52:Drivers/STM32F3xx_HAL_Driver/Src/stm32f3xx_hal_dma.c ****           XferErrorCallback (i.e a member of DMA handle structure). 
  53:Drivers/STM32F3xx_HAL_Driver/Src/stm32f3xx_hal_dma.c **** 
  54:Drivers/STM32F3xx_HAL_Driver/Src/stm32f3xx_hal_dma.c ****      *** DMA HAL driver macros list ***
  55:Drivers/STM32F3xx_HAL_Driver/Src/stm32f3xx_hal_dma.c ****      ============================================= 
  56:Drivers/STM32F3xx_HAL_Driver/Src/stm32f3xx_hal_dma.c ****      [..]
  57:Drivers/STM32F3xx_HAL_Driver/Src/stm32f3xx_hal_dma.c ****        Below the list of most used macros in DMA HAL driver.
  58:Drivers/STM32F3xx_HAL_Driver/Src/stm32f3xx_hal_dma.c **** 
  59:Drivers/STM32F3xx_HAL_Driver/Src/stm32f3xx_hal_dma.c ****      [..] 
  60:Drivers/STM32F3xx_HAL_Driver/Src/stm32f3xx_hal_dma.c ****       (@) You can refer to the DMA HAL driver header file for more useful macros  
  61:Drivers/STM32F3xx_HAL_Driver/Src/stm32f3xx_hal_dma.c **** 
  62:Drivers/STM32F3xx_HAL_Driver/Src/stm32f3xx_hal_dma.c ****   @endverbatim
  63:Drivers/STM32F3xx_HAL_Driver/Src/stm32f3xx_hal_dma.c ****   ******************************************************************************
  64:Drivers/STM32F3xx_HAL_Driver/Src/stm32f3xx_hal_dma.c ****   * @attention
  65:Drivers/STM32F3xx_HAL_Driver/Src/stm32f3xx_hal_dma.c ****   *
  66:Drivers/STM32F3xx_HAL_Driver/Src/stm32f3xx_hal_dma.c ****   * <h2><center>&copy; COPYRIGHT(c) 2016 STMicroelectronics</center></h2>
  67:Drivers/STM32F3xx_HAL_Driver/Src/stm32f3xx_hal_dma.c ****   *
  68:Drivers/STM32F3xx_HAL_Driver/Src/stm32f3xx_hal_dma.c ****   * Redistribution and use in source and binary forms, with or without modification,
  69:Drivers/STM32F3xx_HAL_Driver/Src/stm32f3xx_hal_dma.c ****   * are permitted provided that the following conditions are met:
  70:Drivers/STM32F3xx_HAL_Driver/Src/stm32f3xx_hal_dma.c ****   *   1. Redistributions of source code must retain the above copyright notice,
  71:Drivers/STM32F3xx_HAL_Driver/Src/stm32f3xx_hal_dma.c ****   *      this list of conditions and the following disclaimer.
  72:Drivers/STM32F3xx_HAL_Driver/Src/stm32f3xx_hal_dma.c ****   *   2. Redistributions in binary form must reproduce the above copyright notice,
  73:Drivers/STM32F3xx_HAL_Driver/Src/stm32f3xx_hal_dma.c ****   *      this list of conditions and the following disclaimer in the documentation
  74:Drivers/STM32F3xx_HAL_Driver/Src/stm32f3xx_hal_dma.c ****   *      and/or other materials provided with the distribution.
  75:Drivers/STM32F3xx_HAL_Driver/Src/stm32f3xx_hal_dma.c ****   *   3. Neither the name of STMicroelectronics nor the names of its contributors
  76:Drivers/STM32F3xx_HAL_Driver/Src/stm32f3xx_hal_dma.c ****   *      may be used to endorse or promote products derived from this software
  77:Drivers/STM32F3xx_HAL_Driver/Src/stm32f3xx_hal_dma.c ****   *      without specific prior written permission.
  78:Drivers/STM32F3xx_HAL_Driver/Src/stm32f3xx_hal_dma.c ****   *
ARM GAS  /tmp/ccZ0zGVl.s 			page 3


  79:Drivers/STM32F3xx_HAL_Driver/Src/stm32f3xx_hal_dma.c ****   * THIS SOFTWARE IS PROVIDED BY THE COPYRIGHT HOLDERS AND CONTRIBUTORS "AS IS"
  80:Drivers/STM32F3xx_HAL_Driver/Src/stm32f3xx_hal_dma.c ****   * AND ANY EXPRESS OR IMPLIED WARRANTIES, INCLUDING, BUT NOT LIMITED TO, THE
  81:Drivers/STM32F3xx_HAL_Driver/Src/stm32f3xx_hal_dma.c ****   * IMPLIED WARRANTIES OF MERCHANTABILITY AND FITNESS FOR A PARTICULAR PURPOSE ARE
  82:Drivers/STM32F3xx_HAL_Driver/Src/stm32f3xx_hal_dma.c ****   * DISCLAIMED. IN NO EVENT SHALL THE COPYRIGHT HOLDER OR CONTRIBUTORS BE LIABLE
  83:Drivers/STM32F3xx_HAL_Driver/Src/stm32f3xx_hal_dma.c ****   * FOR ANY DIRECT, INDIRECT, INCIDENTAL, SPECIAL, EXEMPLARY, OR CONSEQUENTIAL
  84:Drivers/STM32F3xx_HAL_Driver/Src/stm32f3xx_hal_dma.c ****   * DAMAGES (INCLUDING, BUT NOT LIMITED TO, PROCUREMENT OF SUBSTITUTE GOODS OR
  85:Drivers/STM32F3xx_HAL_Driver/Src/stm32f3xx_hal_dma.c ****   * SERVICES; LOSS OF USE, DATA, OR PROFITS; OR BUSINESS INTERRUPTION) HOWEVER
  86:Drivers/STM32F3xx_HAL_Driver/Src/stm32f3xx_hal_dma.c ****   * CAUSED AND ON ANY THEORY OF LIABILITY, WHETHER IN CONTRACT, STRICT LIABILITY,
  87:Drivers/STM32F3xx_HAL_Driver/Src/stm32f3xx_hal_dma.c ****   * OR TORT (INCLUDING NEGLIGENCE OR OTHERWISE) ARISING IN ANY WAY OUT OF THE USE
  88:Drivers/STM32F3xx_HAL_Driver/Src/stm32f3xx_hal_dma.c ****   * OF THIS SOFTWARE, EVEN IF ADVISED OF THE POSSIBILITY OF SUCH DAMAGE.
  89:Drivers/STM32F3xx_HAL_Driver/Src/stm32f3xx_hal_dma.c ****   *
  90:Drivers/STM32F3xx_HAL_Driver/Src/stm32f3xx_hal_dma.c ****   ******************************************************************************
  91:Drivers/STM32F3xx_HAL_Driver/Src/stm32f3xx_hal_dma.c ****   */ 
  92:Drivers/STM32F3xx_HAL_Driver/Src/stm32f3xx_hal_dma.c **** 
  93:Drivers/STM32F3xx_HAL_Driver/Src/stm32f3xx_hal_dma.c **** /* Includes ------------------------------------------------------------------*/
  94:Drivers/STM32F3xx_HAL_Driver/Src/stm32f3xx_hal_dma.c **** #include "stm32f3xx_hal.h"
  95:Drivers/STM32F3xx_HAL_Driver/Src/stm32f3xx_hal_dma.c **** 
  96:Drivers/STM32F3xx_HAL_Driver/Src/stm32f3xx_hal_dma.c **** /** @addtogroup STM32F3xx_HAL_Driver
  97:Drivers/STM32F3xx_HAL_Driver/Src/stm32f3xx_hal_dma.c ****   * @{
  98:Drivers/STM32F3xx_HAL_Driver/Src/stm32f3xx_hal_dma.c ****   */
  99:Drivers/STM32F3xx_HAL_Driver/Src/stm32f3xx_hal_dma.c **** 
 100:Drivers/STM32F3xx_HAL_Driver/Src/stm32f3xx_hal_dma.c **** /** @defgroup DMA DMA
 101:Drivers/STM32F3xx_HAL_Driver/Src/stm32f3xx_hal_dma.c ****   * @brief DMA HAL module driver
 102:Drivers/STM32F3xx_HAL_Driver/Src/stm32f3xx_hal_dma.c ****   * @{
 103:Drivers/STM32F3xx_HAL_Driver/Src/stm32f3xx_hal_dma.c ****   */
 104:Drivers/STM32F3xx_HAL_Driver/Src/stm32f3xx_hal_dma.c **** 
 105:Drivers/STM32F3xx_HAL_Driver/Src/stm32f3xx_hal_dma.c **** #ifdef HAL_DMA_MODULE_ENABLED
 106:Drivers/STM32F3xx_HAL_Driver/Src/stm32f3xx_hal_dma.c **** 
 107:Drivers/STM32F3xx_HAL_Driver/Src/stm32f3xx_hal_dma.c **** /* Private typedef -----------------------------------------------------------*/
 108:Drivers/STM32F3xx_HAL_Driver/Src/stm32f3xx_hal_dma.c **** /* Private define ------------------------------------------------------------*/
 109:Drivers/STM32F3xx_HAL_Driver/Src/stm32f3xx_hal_dma.c **** /* Private macro -------------------------------------------------------------*/
 110:Drivers/STM32F3xx_HAL_Driver/Src/stm32f3xx_hal_dma.c **** /* Private variables ---------------------------------------------------------*/
 111:Drivers/STM32F3xx_HAL_Driver/Src/stm32f3xx_hal_dma.c **** /* Private function prototypes -----------------------------------------------*/
 112:Drivers/STM32F3xx_HAL_Driver/Src/stm32f3xx_hal_dma.c **** /** @defgroup DMA_Private_Functions DMA Private Functions
 113:Drivers/STM32F3xx_HAL_Driver/Src/stm32f3xx_hal_dma.c ****   * @{
 114:Drivers/STM32F3xx_HAL_Driver/Src/stm32f3xx_hal_dma.c ****   */
 115:Drivers/STM32F3xx_HAL_Driver/Src/stm32f3xx_hal_dma.c **** static void DMA_SetConfig(DMA_HandleTypeDef *hdma, uint32_t SrcAddress, uint32_t DstAddress, uint32
 116:Drivers/STM32F3xx_HAL_Driver/Src/stm32f3xx_hal_dma.c **** static void DMA_CalcBaseAndBitshift(DMA_HandleTypeDef *hdma);
 117:Drivers/STM32F3xx_HAL_Driver/Src/stm32f3xx_hal_dma.c **** /**
 118:Drivers/STM32F3xx_HAL_Driver/Src/stm32f3xx_hal_dma.c ****   * @}
 119:Drivers/STM32F3xx_HAL_Driver/Src/stm32f3xx_hal_dma.c ****   */
 120:Drivers/STM32F3xx_HAL_Driver/Src/stm32f3xx_hal_dma.c **** 
 121:Drivers/STM32F3xx_HAL_Driver/Src/stm32f3xx_hal_dma.c **** /* Exported functions ---------------------------------------------------------*/
 122:Drivers/STM32F3xx_HAL_Driver/Src/stm32f3xx_hal_dma.c **** 
 123:Drivers/STM32F3xx_HAL_Driver/Src/stm32f3xx_hal_dma.c **** /** @defgroup DMA_Exported_Functions DMA Exported Functions
 124:Drivers/STM32F3xx_HAL_Driver/Src/stm32f3xx_hal_dma.c ****   * @{
 125:Drivers/STM32F3xx_HAL_Driver/Src/stm32f3xx_hal_dma.c ****   */
 126:Drivers/STM32F3xx_HAL_Driver/Src/stm32f3xx_hal_dma.c **** 
 127:Drivers/STM32F3xx_HAL_Driver/Src/stm32f3xx_hal_dma.c **** /** @defgroup DMA_Exported_Functions_Group1 Initialization and de-initialization functions
 128:Drivers/STM32F3xx_HAL_Driver/Src/stm32f3xx_hal_dma.c ****  *  @brief   Initialization and de-initialization functions 
 129:Drivers/STM32F3xx_HAL_Driver/Src/stm32f3xx_hal_dma.c ****  *
 130:Drivers/STM32F3xx_HAL_Driver/Src/stm32f3xx_hal_dma.c **** @verbatim   
 131:Drivers/STM32F3xx_HAL_Driver/Src/stm32f3xx_hal_dma.c ****  ===============================================================================
 132:Drivers/STM32F3xx_HAL_Driver/Src/stm32f3xx_hal_dma.c ****              ##### Initialization and de-initialization functions  #####
 133:Drivers/STM32F3xx_HAL_Driver/Src/stm32f3xx_hal_dma.c ****  ===============================================================================  
 134:Drivers/STM32F3xx_HAL_Driver/Src/stm32f3xx_hal_dma.c ****     [..]
 135:Drivers/STM32F3xx_HAL_Driver/Src/stm32f3xx_hal_dma.c ****     This section provides functions allowing to initialize the DMA Channel source
ARM GAS  /tmp/ccZ0zGVl.s 			page 4


 136:Drivers/STM32F3xx_HAL_Driver/Src/stm32f3xx_hal_dma.c ****     and destination addresses, incrementation and data sizes, transfer direction, 
 137:Drivers/STM32F3xx_HAL_Driver/Src/stm32f3xx_hal_dma.c ****     circular/normal mode selection, memory-to-memory mode selection and Channel priority value.
 138:Drivers/STM32F3xx_HAL_Driver/Src/stm32f3xx_hal_dma.c ****     [..]
 139:Drivers/STM32F3xx_HAL_Driver/Src/stm32f3xx_hal_dma.c ****     The HAL_DMA_Init() function follows the DMA configuration procedures as described in
 140:Drivers/STM32F3xx_HAL_Driver/Src/stm32f3xx_hal_dma.c ****     reference manual.  
 141:Drivers/STM32F3xx_HAL_Driver/Src/stm32f3xx_hal_dma.c **** 
 142:Drivers/STM32F3xx_HAL_Driver/Src/stm32f3xx_hal_dma.c **** @endverbatim
 143:Drivers/STM32F3xx_HAL_Driver/Src/stm32f3xx_hal_dma.c ****   * @{
 144:Drivers/STM32F3xx_HAL_Driver/Src/stm32f3xx_hal_dma.c ****   */
 145:Drivers/STM32F3xx_HAL_Driver/Src/stm32f3xx_hal_dma.c ****   
 146:Drivers/STM32F3xx_HAL_Driver/Src/stm32f3xx_hal_dma.c **** /**
 147:Drivers/STM32F3xx_HAL_Driver/Src/stm32f3xx_hal_dma.c ****   * @brief  Initialize the DMA according to the specified
 148:Drivers/STM32F3xx_HAL_Driver/Src/stm32f3xx_hal_dma.c ****   *         parameters in the DMA_InitTypeDef and initialize the associated handle.
 149:Drivers/STM32F3xx_HAL_Driver/Src/stm32f3xx_hal_dma.c ****   * @param  hdma Pointer to a DMA_HandleTypeDef structure that contains
 150:Drivers/STM32F3xx_HAL_Driver/Src/stm32f3xx_hal_dma.c ****   *               the configuration information for the specified DMA Channel.  
 151:Drivers/STM32F3xx_HAL_Driver/Src/stm32f3xx_hal_dma.c ****   * @retval HAL status
 152:Drivers/STM32F3xx_HAL_Driver/Src/stm32f3xx_hal_dma.c ****   */
 153:Drivers/STM32F3xx_HAL_Driver/Src/stm32f3xx_hal_dma.c **** HAL_StatusTypeDef HAL_DMA_Init(DMA_HandleTypeDef *hdma)
 154:Drivers/STM32F3xx_HAL_Driver/Src/stm32f3xx_hal_dma.c **** { 
  40              		.loc 1 154 0
  41              		.cfi_startproc
  42              		@ args = 0, pretend = 0, frame = 16
  43              		@ frame_needed = 1, uses_anonymous_args = 0
  44 0000 80B5     		push	{r7, lr}
  45              	.LCFI0:
  46              		.cfi_def_cfa_offset 8
  47              		.cfi_offset 7, -8
  48              		.cfi_offset 14, -4
  49 0002 84B0     		sub	sp, sp, #16
  50              	.LCFI1:
  51              		.cfi_def_cfa_offset 24
  52 0004 00AF     		add	r7, sp, #0
  53              	.LCFI2:
  54              		.cfi_def_cfa_register 7
  55 0006 7860     		str	r0, [r7, #4]
 155:Drivers/STM32F3xx_HAL_Driver/Src/stm32f3xx_hal_dma.c ****   uint32_t tmp = 0U;
  56              		.loc 1 155 0
  57 0008 0023     		movs	r3, #0
  58 000a FB60     		str	r3, [r7, #12]
 156:Drivers/STM32F3xx_HAL_Driver/Src/stm32f3xx_hal_dma.c ****   
 157:Drivers/STM32F3xx_HAL_Driver/Src/stm32f3xx_hal_dma.c ****   /* Check the DMA handle allocation */
 158:Drivers/STM32F3xx_HAL_Driver/Src/stm32f3xx_hal_dma.c ****   if(NULL == hdma)
  59              		.loc 1 158 0
  60 000c 7B68     		ldr	r3, [r7, #4]
  61 000e 002B     		cmp	r3, #0
  62 0010 01D1     		bne	.L2
 159:Drivers/STM32F3xx_HAL_Driver/Src/stm32f3xx_hal_dma.c ****   {
 160:Drivers/STM32F3xx_HAL_Driver/Src/stm32f3xx_hal_dma.c ****     return HAL_ERROR;
  63              		.loc 1 160 0
  64 0012 0123     		movs	r3, #1
  65 0014 43E0     		b	.L3
  66              	.L2:
 161:Drivers/STM32F3xx_HAL_Driver/Src/stm32f3xx_hal_dma.c ****   }
 162:Drivers/STM32F3xx_HAL_Driver/Src/stm32f3xx_hal_dma.c ****   
 163:Drivers/STM32F3xx_HAL_Driver/Src/stm32f3xx_hal_dma.c ****   /* Check the parameters */
 164:Drivers/STM32F3xx_HAL_Driver/Src/stm32f3xx_hal_dma.c ****   assert_param(IS_DMA_ALL_INSTANCE(hdma->Instance));
 165:Drivers/STM32F3xx_HAL_Driver/Src/stm32f3xx_hal_dma.c ****   assert_param(IS_DMA_DIRECTION(hdma->Init.Direction));
ARM GAS  /tmp/ccZ0zGVl.s 			page 5


 166:Drivers/STM32F3xx_HAL_Driver/Src/stm32f3xx_hal_dma.c ****   assert_param(IS_DMA_PERIPHERAL_INC_STATE(hdma->Init.PeriphInc));
 167:Drivers/STM32F3xx_HAL_Driver/Src/stm32f3xx_hal_dma.c ****   assert_param(IS_DMA_MEMORY_INC_STATE(hdma->Init.MemInc));
 168:Drivers/STM32F3xx_HAL_Driver/Src/stm32f3xx_hal_dma.c ****   assert_param(IS_DMA_PERIPHERAL_DATA_SIZE(hdma->Init.PeriphDataAlignment));
 169:Drivers/STM32F3xx_HAL_Driver/Src/stm32f3xx_hal_dma.c ****   assert_param(IS_DMA_MEMORY_DATA_SIZE(hdma->Init.MemDataAlignment));
 170:Drivers/STM32F3xx_HAL_Driver/Src/stm32f3xx_hal_dma.c ****   assert_param(IS_DMA_MODE(hdma->Init.Mode));
 171:Drivers/STM32F3xx_HAL_Driver/Src/stm32f3xx_hal_dma.c ****   assert_param(IS_DMA_PRIORITY(hdma->Init.Priority));
 172:Drivers/STM32F3xx_HAL_Driver/Src/stm32f3xx_hal_dma.c ****   
 173:Drivers/STM32F3xx_HAL_Driver/Src/stm32f3xx_hal_dma.c ****   /* Change DMA peripheral state */
 174:Drivers/STM32F3xx_HAL_Driver/Src/stm32f3xx_hal_dma.c ****   hdma->State = HAL_DMA_STATE_BUSY;
  67              		.loc 1 174 0
  68 0016 7B68     		ldr	r3, [r7, #4]
  69 0018 0222     		movs	r2, #2
  70 001a 83F82120 		strb	r2, [r3, #33]
 175:Drivers/STM32F3xx_HAL_Driver/Src/stm32f3xx_hal_dma.c **** 
 176:Drivers/STM32F3xx_HAL_Driver/Src/stm32f3xx_hal_dma.c ****   /* Get the CR register value */
 177:Drivers/STM32F3xx_HAL_Driver/Src/stm32f3xx_hal_dma.c ****   tmp = hdma->Instance->CCR;
  71              		.loc 1 177 0
  72 001e 7B68     		ldr	r3, [r7, #4]
  73 0020 1B68     		ldr	r3, [r3]
  74 0022 1B68     		ldr	r3, [r3]
  75 0024 FB60     		str	r3, [r7, #12]
 178:Drivers/STM32F3xx_HAL_Driver/Src/stm32f3xx_hal_dma.c ****   
 179:Drivers/STM32F3xx_HAL_Driver/Src/stm32f3xx_hal_dma.c ****   /* Clear PL, MSIZE, PSIZE, MINC, PINC, CIRC, DIR bits */
 180:Drivers/STM32F3xx_HAL_Driver/Src/stm32f3xx_hal_dma.c ****   tmp &= ((uint32_t)~(DMA_CCR_PL    | DMA_CCR_MSIZE  | DMA_CCR_PSIZE  | \
  76              		.loc 1 180 0
  77 0026 FB68     		ldr	r3, [r7, #12]
  78 0028 23F47F53 		bic	r3, r3, #16320
  79 002c 23F03003 		bic	r3, r3, #48
  80 0030 FB60     		str	r3, [r7, #12]
 181:Drivers/STM32F3xx_HAL_Driver/Src/stm32f3xx_hal_dma.c ****                       DMA_CCR_MINC  | DMA_CCR_PINC   | DMA_CCR_CIRC   | \
 182:Drivers/STM32F3xx_HAL_Driver/Src/stm32f3xx_hal_dma.c ****                       DMA_CCR_DIR));
 183:Drivers/STM32F3xx_HAL_Driver/Src/stm32f3xx_hal_dma.c ****   
 184:Drivers/STM32F3xx_HAL_Driver/Src/stm32f3xx_hal_dma.c ****   /* Prepare the DMA Channel configuration */
 185:Drivers/STM32F3xx_HAL_Driver/Src/stm32f3xx_hal_dma.c ****   tmp |=  hdma->Init.Direction        |
  81              		.loc 1 185 0
  82 0032 7B68     		ldr	r3, [r7, #4]
  83 0034 5A68     		ldr	r2, [r3, #4]
 186:Drivers/STM32F3xx_HAL_Driver/Src/stm32f3xx_hal_dma.c ****           hdma->Init.PeriphInc           | hdma->Init.MemInc           |
  84              		.loc 1 186 0
  85 0036 7B68     		ldr	r3, [r7, #4]
  86 0038 9B68     		ldr	r3, [r3, #8]
 185:Drivers/STM32F3xx_HAL_Driver/Src/stm32f3xx_hal_dma.c ****           hdma->Init.PeriphInc           | hdma->Init.MemInc           |
  87              		.loc 1 185 0
  88 003a 1A43     		orrs	r2, r2, r3
  89              		.loc 1 186 0
  90 003c 7B68     		ldr	r3, [r7, #4]
  91 003e DB68     		ldr	r3, [r3, #12]
  92 0040 1A43     		orrs	r2, r2, r3
 187:Drivers/STM32F3xx_HAL_Driver/Src/stm32f3xx_hal_dma.c ****           hdma->Init.PeriphDataAlignment | hdma->Init.MemDataAlignment |
  93              		.loc 1 187 0
  94 0042 7B68     		ldr	r3, [r7, #4]
  95 0044 1B69     		ldr	r3, [r3, #16]
 186:Drivers/STM32F3xx_HAL_Driver/Src/stm32f3xx_hal_dma.c ****           hdma->Init.PeriphInc           | hdma->Init.MemInc           |
  96              		.loc 1 186 0
  97 0046 1A43     		orrs	r2, r2, r3
  98              		.loc 1 187 0
  99 0048 7B68     		ldr	r3, [r7, #4]
ARM GAS  /tmp/ccZ0zGVl.s 			page 6


 100 004a 5B69     		ldr	r3, [r3, #20]
 101 004c 1A43     		orrs	r2, r2, r3
 188:Drivers/STM32F3xx_HAL_Driver/Src/stm32f3xx_hal_dma.c ****           hdma->Init.Mode                | hdma->Init.Priority;
 102              		.loc 1 188 0
 103 004e 7B68     		ldr	r3, [r7, #4]
 104 0050 9B69     		ldr	r3, [r3, #24]
 187:Drivers/STM32F3xx_HAL_Driver/Src/stm32f3xx_hal_dma.c ****           hdma->Init.PeriphDataAlignment | hdma->Init.MemDataAlignment |
 105              		.loc 1 187 0
 106 0052 1A43     		orrs	r2, r2, r3
 107              		.loc 1 188 0
 108 0054 7B68     		ldr	r3, [r7, #4]
 109 0056 DB69     		ldr	r3, [r3, #28]
 110 0058 1343     		orrs	r3, r3, r2
 185:Drivers/STM32F3xx_HAL_Driver/Src/stm32f3xx_hal_dma.c ****           hdma->Init.PeriphInc           | hdma->Init.MemInc           |
 111              		.loc 1 185 0
 112 005a FA68     		ldr	r2, [r7, #12]
 113 005c 1343     		orrs	r3, r3, r2
 114 005e FB60     		str	r3, [r7, #12]
 189:Drivers/STM32F3xx_HAL_Driver/Src/stm32f3xx_hal_dma.c **** 
 190:Drivers/STM32F3xx_HAL_Driver/Src/stm32f3xx_hal_dma.c ****   /* Write to DMA Channel CR register */
 191:Drivers/STM32F3xx_HAL_Driver/Src/stm32f3xx_hal_dma.c ****   hdma->Instance->CCR = tmp;  
 115              		.loc 1 191 0
 116 0060 7B68     		ldr	r3, [r7, #4]
 117 0062 1B68     		ldr	r3, [r3]
 118 0064 FA68     		ldr	r2, [r7, #12]
 119 0066 1A60     		str	r2, [r3]
 192:Drivers/STM32F3xx_HAL_Driver/Src/stm32f3xx_hal_dma.c ****   
 193:Drivers/STM32F3xx_HAL_Driver/Src/stm32f3xx_hal_dma.c ****   /* Initialize DmaBaseAddress and ChannelIndex parameters used 
 194:Drivers/STM32F3xx_HAL_Driver/Src/stm32f3xx_hal_dma.c ****      by HAL_DMA_IRQHandler() and HAL_DMA_PollForTransfer() */
 195:Drivers/STM32F3xx_HAL_Driver/Src/stm32f3xx_hal_dma.c ****   DMA_CalcBaseAndBitshift(hdma);
 120              		.loc 1 195 0
 121 0068 7868     		ldr	r0, [r7, #4]
 122 006a FFF7FEFF 		bl	DMA_CalcBaseAndBitshift
 196:Drivers/STM32F3xx_HAL_Driver/Src/stm32f3xx_hal_dma.c ****   
 197:Drivers/STM32F3xx_HAL_Driver/Src/stm32f3xx_hal_dma.c ****   /* Clean callbacks */
 198:Drivers/STM32F3xx_HAL_Driver/Src/stm32f3xx_hal_dma.c ****   hdma->XferCpltCallback = NULL;
 123              		.loc 1 198 0
 124 006e 7B68     		ldr	r3, [r7, #4]
 125 0070 0022     		movs	r2, #0
 126 0072 9A62     		str	r2, [r3, #40]
 199:Drivers/STM32F3xx_HAL_Driver/Src/stm32f3xx_hal_dma.c ****   hdma->XferHalfCpltCallback = NULL;
 127              		.loc 1 199 0
 128 0074 7B68     		ldr	r3, [r7, #4]
 129 0076 0022     		movs	r2, #0
 130 0078 DA62     		str	r2, [r3, #44]
 200:Drivers/STM32F3xx_HAL_Driver/Src/stm32f3xx_hal_dma.c ****   hdma->XferErrorCallback = NULL;
 131              		.loc 1 200 0
 132 007a 7B68     		ldr	r3, [r7, #4]
 133 007c 0022     		movs	r2, #0
 134 007e 1A63     		str	r2, [r3, #48]
 201:Drivers/STM32F3xx_HAL_Driver/Src/stm32f3xx_hal_dma.c ****   hdma->XferAbortCallback = NULL;
 135              		.loc 1 201 0
 136 0080 7B68     		ldr	r3, [r7, #4]
 137 0082 0022     		movs	r2, #0
 138 0084 5A63     		str	r2, [r3, #52]
 202:Drivers/STM32F3xx_HAL_Driver/Src/stm32f3xx_hal_dma.c ****   
 203:Drivers/STM32F3xx_HAL_Driver/Src/stm32f3xx_hal_dma.c ****   /* Initialise the error code */
ARM GAS  /tmp/ccZ0zGVl.s 			page 7


 204:Drivers/STM32F3xx_HAL_Driver/Src/stm32f3xx_hal_dma.c ****   hdma->ErrorCode = HAL_DMA_ERROR_NONE;
 139              		.loc 1 204 0
 140 0086 7B68     		ldr	r3, [r7, #4]
 141 0088 0022     		movs	r2, #0
 142 008a 9A63     		str	r2, [r3, #56]
 205:Drivers/STM32F3xx_HAL_Driver/Src/stm32f3xx_hal_dma.c **** 
 206:Drivers/STM32F3xx_HAL_Driver/Src/stm32f3xx_hal_dma.c ****   /* Initialize the DMA state*/
 207:Drivers/STM32F3xx_HAL_Driver/Src/stm32f3xx_hal_dma.c ****   hdma->State = HAL_DMA_STATE_READY;
 143              		.loc 1 207 0
 144 008c 7B68     		ldr	r3, [r7, #4]
 145 008e 0122     		movs	r2, #1
 146 0090 83F82120 		strb	r2, [r3, #33]
 208:Drivers/STM32F3xx_HAL_Driver/Src/stm32f3xx_hal_dma.c ****   
 209:Drivers/STM32F3xx_HAL_Driver/Src/stm32f3xx_hal_dma.c ****   /* Allocate lock resource and initialize it */
 210:Drivers/STM32F3xx_HAL_Driver/Src/stm32f3xx_hal_dma.c ****   hdma->Lock = HAL_UNLOCKED;
 147              		.loc 1 210 0
 148 0094 7B68     		ldr	r3, [r7, #4]
 149 0096 0022     		movs	r2, #0
 150 0098 83F82020 		strb	r2, [r3, #32]
 211:Drivers/STM32F3xx_HAL_Driver/Src/stm32f3xx_hal_dma.c ****   
 212:Drivers/STM32F3xx_HAL_Driver/Src/stm32f3xx_hal_dma.c ****   return HAL_OK;
 151              		.loc 1 212 0
 152 009c 0023     		movs	r3, #0
 153              	.L3:
 213:Drivers/STM32F3xx_HAL_Driver/Src/stm32f3xx_hal_dma.c **** }  
 154              		.loc 1 213 0
 155 009e 1846     		mov	r0, r3
 156 00a0 1037     		adds	r7, r7, #16
 157              	.LCFI3:
 158              		.cfi_def_cfa_offset 8
 159 00a2 BD46     		mov	sp, r7
 160              	.LCFI4:
 161              		.cfi_def_cfa_register 13
 162              		@ sp needed
 163 00a4 80BD     		pop	{r7, pc}
 164              		.cfi_endproc
 165              	.LFE695:
 167              		.section	.text.HAL_DMA_DeInit,"ax",%progbits
 168              		.align	1
 169              		.global	HAL_DMA_DeInit
 170              		.syntax unified
 171              		.thumb
 172              		.thumb_func
 173              		.fpu fpv4-sp-d16
 175              	HAL_DMA_DeInit:
 176              	.LFB696:
 214:Drivers/STM32F3xx_HAL_Driver/Src/stm32f3xx_hal_dma.c ****   
 215:Drivers/STM32F3xx_HAL_Driver/Src/stm32f3xx_hal_dma.c **** /**
 216:Drivers/STM32F3xx_HAL_Driver/Src/stm32f3xx_hal_dma.c ****   * @brief  DeInitialize the DMA peripheral 
 217:Drivers/STM32F3xx_HAL_Driver/Src/stm32f3xx_hal_dma.c ****   * @param  hdma pointer to a DMA_HandleTypeDef structure that contains
 218:Drivers/STM32F3xx_HAL_Driver/Src/stm32f3xx_hal_dma.c ****   *               the configuration information for the specified DMA Channel.  
 219:Drivers/STM32F3xx_HAL_Driver/Src/stm32f3xx_hal_dma.c ****   * @retval HAL status
 220:Drivers/STM32F3xx_HAL_Driver/Src/stm32f3xx_hal_dma.c ****   */
 221:Drivers/STM32F3xx_HAL_Driver/Src/stm32f3xx_hal_dma.c **** HAL_StatusTypeDef HAL_DMA_DeInit(DMA_HandleTypeDef *hdma)
 222:Drivers/STM32F3xx_HAL_Driver/Src/stm32f3xx_hal_dma.c **** {
 177              		.loc 1 222 0
 178              		.cfi_startproc
ARM GAS  /tmp/ccZ0zGVl.s 			page 8


 179              		@ args = 0, pretend = 0, frame = 8
 180              		@ frame_needed = 1, uses_anonymous_args = 0
 181 0000 80B5     		push	{r7, lr}
 182              	.LCFI5:
 183              		.cfi_def_cfa_offset 8
 184              		.cfi_offset 7, -8
 185              		.cfi_offset 14, -4
 186 0002 82B0     		sub	sp, sp, #8
 187              	.LCFI6:
 188              		.cfi_def_cfa_offset 16
 189 0004 00AF     		add	r7, sp, #0
 190              	.LCFI7:
 191              		.cfi_def_cfa_register 7
 192 0006 7860     		str	r0, [r7, #4]
 223:Drivers/STM32F3xx_HAL_Driver/Src/stm32f3xx_hal_dma.c ****   /* Check the DMA handle allocation */
 224:Drivers/STM32F3xx_HAL_Driver/Src/stm32f3xx_hal_dma.c ****   if(NULL == hdma)
 193              		.loc 1 224 0
 194 0008 7B68     		ldr	r3, [r7, #4]
 195 000a 002B     		cmp	r3, #0
 196 000c 01D1     		bne	.L5
 225:Drivers/STM32F3xx_HAL_Driver/Src/stm32f3xx_hal_dma.c ****   {
 226:Drivers/STM32F3xx_HAL_Driver/Src/stm32f3xx_hal_dma.c ****     return HAL_ERROR;
 197              		.loc 1 226 0
 198 000e 0123     		movs	r3, #1
 199 0010 2EE0     		b	.L6
 200              	.L5:
 227:Drivers/STM32F3xx_HAL_Driver/Src/stm32f3xx_hal_dma.c ****   }
 228:Drivers/STM32F3xx_HAL_Driver/Src/stm32f3xx_hal_dma.c ****   
 229:Drivers/STM32F3xx_HAL_Driver/Src/stm32f3xx_hal_dma.c ****   /* Check the parameters */
 230:Drivers/STM32F3xx_HAL_Driver/Src/stm32f3xx_hal_dma.c ****   assert_param(IS_DMA_ALL_INSTANCE(hdma->Instance));
 231:Drivers/STM32F3xx_HAL_Driver/Src/stm32f3xx_hal_dma.c **** 
 232:Drivers/STM32F3xx_HAL_Driver/Src/stm32f3xx_hal_dma.c ****   /* Disable the selected DMA Channelx */
 233:Drivers/STM32F3xx_HAL_Driver/Src/stm32f3xx_hal_dma.c ****   hdma->Instance->CCR &= ~DMA_CCR_EN;
 201              		.loc 1 233 0
 202 0012 7B68     		ldr	r3, [r7, #4]
 203 0014 1B68     		ldr	r3, [r3]
 204 0016 1A68     		ldr	r2, [r3]
 205 0018 7B68     		ldr	r3, [r7, #4]
 206 001a 1B68     		ldr	r3, [r3]
 207 001c 22F00102 		bic	r2, r2, #1
 208 0020 1A60     		str	r2, [r3]
 234:Drivers/STM32F3xx_HAL_Driver/Src/stm32f3xx_hal_dma.c **** 
 235:Drivers/STM32F3xx_HAL_Driver/Src/stm32f3xx_hal_dma.c ****   /* Reset DMA Channel control register */
 236:Drivers/STM32F3xx_HAL_Driver/Src/stm32f3xx_hal_dma.c ****   hdma->Instance->CCR  = 0U;
 209              		.loc 1 236 0
 210 0022 7B68     		ldr	r3, [r7, #4]
 211 0024 1B68     		ldr	r3, [r3]
 212 0026 0022     		movs	r2, #0
 213 0028 1A60     		str	r2, [r3]
 237:Drivers/STM32F3xx_HAL_Driver/Src/stm32f3xx_hal_dma.c **** 
 238:Drivers/STM32F3xx_HAL_Driver/Src/stm32f3xx_hal_dma.c ****   /* Reset DMA Channel Number of Data to Transfer register */
 239:Drivers/STM32F3xx_HAL_Driver/Src/stm32f3xx_hal_dma.c ****   hdma->Instance->CNDTR = 0U;
 214              		.loc 1 239 0
 215 002a 7B68     		ldr	r3, [r7, #4]
 216 002c 1B68     		ldr	r3, [r3]
 217 002e 0022     		movs	r2, #0
 218 0030 5A60     		str	r2, [r3, #4]
ARM GAS  /tmp/ccZ0zGVl.s 			page 9


 240:Drivers/STM32F3xx_HAL_Driver/Src/stm32f3xx_hal_dma.c **** 
 241:Drivers/STM32F3xx_HAL_Driver/Src/stm32f3xx_hal_dma.c ****   /* Reset DMA Channel peripheral address register */
 242:Drivers/STM32F3xx_HAL_Driver/Src/stm32f3xx_hal_dma.c ****   hdma->Instance->CPAR  = 0U;
 219              		.loc 1 242 0
 220 0032 7B68     		ldr	r3, [r7, #4]
 221 0034 1B68     		ldr	r3, [r3]
 222 0036 0022     		movs	r2, #0
 223 0038 9A60     		str	r2, [r3, #8]
 243:Drivers/STM32F3xx_HAL_Driver/Src/stm32f3xx_hal_dma.c ****   
 244:Drivers/STM32F3xx_HAL_Driver/Src/stm32f3xx_hal_dma.c ****   /* Reset DMA Channel memory address register */
 245:Drivers/STM32F3xx_HAL_Driver/Src/stm32f3xx_hal_dma.c ****   hdma->Instance->CMAR = 0U;
 224              		.loc 1 245 0
 225 003a 7B68     		ldr	r3, [r7, #4]
 226 003c 1B68     		ldr	r3, [r3]
 227 003e 0022     		movs	r2, #0
 228 0040 DA60     		str	r2, [r3, #12]
 246:Drivers/STM32F3xx_HAL_Driver/Src/stm32f3xx_hal_dma.c **** 
 247:Drivers/STM32F3xx_HAL_Driver/Src/stm32f3xx_hal_dma.c ****   /* Get DMA Base Address */  
 248:Drivers/STM32F3xx_HAL_Driver/Src/stm32f3xx_hal_dma.c ****   DMA_CalcBaseAndBitshift(hdma);
 229              		.loc 1 248 0
 230 0042 7868     		ldr	r0, [r7, #4]
 231 0044 FFF7FEFF 		bl	DMA_CalcBaseAndBitshift
 249:Drivers/STM32F3xx_HAL_Driver/Src/stm32f3xx_hal_dma.c **** 
 250:Drivers/STM32F3xx_HAL_Driver/Src/stm32f3xx_hal_dma.c ****   /* Clear all flags */
 251:Drivers/STM32F3xx_HAL_Driver/Src/stm32f3xx_hal_dma.c ****   hdma->DmaBaseAddress->IFCR = DMA_FLAG_GL1 << hdma->ChannelIndex;
 232              		.loc 1 251 0
 233 0048 7B68     		ldr	r3, [r7, #4]
 234 004a 1A6C     		ldr	r2, [r3, #64]
 235 004c 7B68     		ldr	r3, [r7, #4]
 236 004e DB6B     		ldr	r3, [r3, #60]
 237 0050 0121     		movs	r1, #1
 238 0052 01FA02F2 		lsl	r2, r1, r2
 239 0056 5A60     		str	r2, [r3, #4]
 252:Drivers/STM32F3xx_HAL_Driver/Src/stm32f3xx_hal_dma.c **** 
 253:Drivers/STM32F3xx_HAL_Driver/Src/stm32f3xx_hal_dma.c ****   /* Initialize the error code */
 254:Drivers/STM32F3xx_HAL_Driver/Src/stm32f3xx_hal_dma.c ****   hdma->ErrorCode = HAL_DMA_ERROR_NONE;
 240              		.loc 1 254 0
 241 0058 7B68     		ldr	r3, [r7, #4]
 242 005a 0022     		movs	r2, #0
 243 005c 9A63     		str	r2, [r3, #56]
 255:Drivers/STM32F3xx_HAL_Driver/Src/stm32f3xx_hal_dma.c **** 
 256:Drivers/STM32F3xx_HAL_Driver/Src/stm32f3xx_hal_dma.c ****   /* Initialize the DMA state */
 257:Drivers/STM32F3xx_HAL_Driver/Src/stm32f3xx_hal_dma.c ****   hdma->State = HAL_DMA_STATE_RESET;
 244              		.loc 1 257 0
 245 005e 7B68     		ldr	r3, [r7, #4]
 246 0060 0022     		movs	r2, #0
 247 0062 83F82120 		strb	r2, [r3, #33]
 258:Drivers/STM32F3xx_HAL_Driver/Src/stm32f3xx_hal_dma.c **** 
 259:Drivers/STM32F3xx_HAL_Driver/Src/stm32f3xx_hal_dma.c ****   /* Release Lock */
 260:Drivers/STM32F3xx_HAL_Driver/Src/stm32f3xx_hal_dma.c ****   __HAL_UNLOCK(hdma);
 248              		.loc 1 260 0
 249 0066 7B68     		ldr	r3, [r7, #4]
 250 0068 0022     		movs	r2, #0
 251 006a 83F82020 		strb	r2, [r3, #32]
 261:Drivers/STM32F3xx_HAL_Driver/Src/stm32f3xx_hal_dma.c **** 
 262:Drivers/STM32F3xx_HAL_Driver/Src/stm32f3xx_hal_dma.c ****   return HAL_OK;
 252              		.loc 1 262 0
ARM GAS  /tmp/ccZ0zGVl.s 			page 10


 253 006e 0023     		movs	r3, #0
 254              	.L6:
 263:Drivers/STM32F3xx_HAL_Driver/Src/stm32f3xx_hal_dma.c **** }
 255              		.loc 1 263 0
 256 0070 1846     		mov	r0, r3
 257 0072 0837     		adds	r7, r7, #8
 258              	.LCFI8:
 259              		.cfi_def_cfa_offset 8
 260 0074 BD46     		mov	sp, r7
 261              	.LCFI9:
 262              		.cfi_def_cfa_register 13
 263              		@ sp needed
 264 0076 80BD     		pop	{r7, pc}
 265              		.cfi_endproc
 266              	.LFE696:
 268              		.section	.text.HAL_DMA_Start,"ax",%progbits
 269              		.align	1
 270              		.global	HAL_DMA_Start
 271              		.syntax unified
 272              		.thumb
 273              		.thumb_func
 274              		.fpu fpv4-sp-d16
 276              	HAL_DMA_Start:
 277              	.LFB697:
 264:Drivers/STM32F3xx_HAL_Driver/Src/stm32f3xx_hal_dma.c **** 
 265:Drivers/STM32F3xx_HAL_Driver/Src/stm32f3xx_hal_dma.c **** /**
 266:Drivers/STM32F3xx_HAL_Driver/Src/stm32f3xx_hal_dma.c ****   * @}
 267:Drivers/STM32F3xx_HAL_Driver/Src/stm32f3xx_hal_dma.c ****   */
 268:Drivers/STM32F3xx_HAL_Driver/Src/stm32f3xx_hal_dma.c **** 
 269:Drivers/STM32F3xx_HAL_Driver/Src/stm32f3xx_hal_dma.c **** /** @defgroup DMA_Exported_Functions_Group2 Input and Output operation functions 
 270:Drivers/STM32F3xx_HAL_Driver/Src/stm32f3xx_hal_dma.c ****  *  @brief   I/O operation functions  
 271:Drivers/STM32F3xx_HAL_Driver/Src/stm32f3xx_hal_dma.c ****  *
 272:Drivers/STM32F3xx_HAL_Driver/Src/stm32f3xx_hal_dma.c **** @verbatim   
 273:Drivers/STM32F3xx_HAL_Driver/Src/stm32f3xx_hal_dma.c ****  ===============================================================================
 274:Drivers/STM32F3xx_HAL_Driver/Src/stm32f3xx_hal_dma.c ****                       #####  IO operation functions  #####
 275:Drivers/STM32F3xx_HAL_Driver/Src/stm32f3xx_hal_dma.c ****  ===============================================================================  
 276:Drivers/STM32F3xx_HAL_Driver/Src/stm32f3xx_hal_dma.c ****     [..]  This section provides functions allowing to:
 277:Drivers/STM32F3xx_HAL_Driver/Src/stm32f3xx_hal_dma.c ****       (+) Configure the source, destination address and data length and Start DMA transfer
 278:Drivers/STM32F3xx_HAL_Driver/Src/stm32f3xx_hal_dma.c ****       (+) Configure the source, destination address and data length and 
 279:Drivers/STM32F3xx_HAL_Driver/Src/stm32f3xx_hal_dma.c ****           Start DMA transfer with interrupt
 280:Drivers/STM32F3xx_HAL_Driver/Src/stm32f3xx_hal_dma.c ****       (+) Abort DMA transfer
 281:Drivers/STM32F3xx_HAL_Driver/Src/stm32f3xx_hal_dma.c ****       (+) Poll for transfer complete
 282:Drivers/STM32F3xx_HAL_Driver/Src/stm32f3xx_hal_dma.c ****       (+) Handle DMA interrupt request  
 283:Drivers/STM32F3xx_HAL_Driver/Src/stm32f3xx_hal_dma.c **** 
 284:Drivers/STM32F3xx_HAL_Driver/Src/stm32f3xx_hal_dma.c **** @endverbatim
 285:Drivers/STM32F3xx_HAL_Driver/Src/stm32f3xx_hal_dma.c ****   * @{
 286:Drivers/STM32F3xx_HAL_Driver/Src/stm32f3xx_hal_dma.c ****   */
 287:Drivers/STM32F3xx_HAL_Driver/Src/stm32f3xx_hal_dma.c **** 
 288:Drivers/STM32F3xx_HAL_Driver/Src/stm32f3xx_hal_dma.c **** /**
 289:Drivers/STM32F3xx_HAL_Driver/Src/stm32f3xx_hal_dma.c ****   * @brief  Start the DMA Transfer.
 290:Drivers/STM32F3xx_HAL_Driver/Src/stm32f3xx_hal_dma.c ****   * @param  hdma      : pointer to a DMA_HandleTypeDef structure that contains
 291:Drivers/STM32F3xx_HAL_Driver/Src/stm32f3xx_hal_dma.c ****   *                     the configuration information for the specified DMA Channel.  
 292:Drivers/STM32F3xx_HAL_Driver/Src/stm32f3xx_hal_dma.c ****   * @param  SrcAddress The source memory Buffer address
 293:Drivers/STM32F3xx_HAL_Driver/Src/stm32f3xx_hal_dma.c ****   * @param  DstAddress The destination memory Buffer address
 294:Drivers/STM32F3xx_HAL_Driver/Src/stm32f3xx_hal_dma.c ****   * @param  DataLength The length of data to be transferred from source to destination
 295:Drivers/STM32F3xx_HAL_Driver/Src/stm32f3xx_hal_dma.c ****   * @retval HAL status
 296:Drivers/STM32F3xx_HAL_Driver/Src/stm32f3xx_hal_dma.c ****   */
ARM GAS  /tmp/ccZ0zGVl.s 			page 11


 297:Drivers/STM32F3xx_HAL_Driver/Src/stm32f3xx_hal_dma.c **** HAL_StatusTypeDef HAL_DMA_Start(DMA_HandleTypeDef *hdma, uint32_t SrcAddress, uint32_t DstAddress, 
 298:Drivers/STM32F3xx_HAL_Driver/Src/stm32f3xx_hal_dma.c **** {
 278              		.loc 1 298 0
 279              		.cfi_startproc
 280              		@ args = 0, pretend = 0, frame = 24
 281              		@ frame_needed = 1, uses_anonymous_args = 0
 282 0000 80B5     		push	{r7, lr}
 283              	.LCFI10:
 284              		.cfi_def_cfa_offset 8
 285              		.cfi_offset 7, -8
 286              		.cfi_offset 14, -4
 287 0002 86B0     		sub	sp, sp, #24
 288              	.LCFI11:
 289              		.cfi_def_cfa_offset 32
 290 0004 00AF     		add	r7, sp, #0
 291              	.LCFI12:
 292              		.cfi_def_cfa_register 7
 293 0006 F860     		str	r0, [r7, #12]
 294 0008 B960     		str	r1, [r7, #8]
 295 000a 7A60     		str	r2, [r7, #4]
 296 000c 3B60     		str	r3, [r7]
 299:Drivers/STM32F3xx_HAL_Driver/Src/stm32f3xx_hal_dma.c **** 	HAL_StatusTypeDef status = HAL_OK;
 297              		.loc 1 299 0
 298 000e 0023     		movs	r3, #0
 299 0010 FB75     		strb	r3, [r7, #23]
 300:Drivers/STM32F3xx_HAL_Driver/Src/stm32f3xx_hal_dma.c **** 
 301:Drivers/STM32F3xx_HAL_Driver/Src/stm32f3xx_hal_dma.c ****   /* Check the parameters */
 302:Drivers/STM32F3xx_HAL_Driver/Src/stm32f3xx_hal_dma.c ****   assert_param(IS_DMA_BUFFER_SIZE(DataLength));
 303:Drivers/STM32F3xx_HAL_Driver/Src/stm32f3xx_hal_dma.c ****   
 304:Drivers/STM32F3xx_HAL_Driver/Src/stm32f3xx_hal_dma.c ****   /* Process locked */
 305:Drivers/STM32F3xx_HAL_Driver/Src/stm32f3xx_hal_dma.c ****   __HAL_LOCK(hdma);
 300              		.loc 1 305 0
 301 0012 FB68     		ldr	r3, [r7, #12]
 302 0014 93F82030 		ldrb	r3, [r3, #32]	@ zero_extendqisi2
 303 0018 012B     		cmp	r3, #1
 304 001a 01D1     		bne	.L8
 305              		.loc 1 305 0 is_stmt 0 discriminator 1
 306 001c 0223     		movs	r3, #2
 307 001e 2DE0     		b	.L9
 308              	.L8:
 309              		.loc 1 305 0 discriminator 2
 310 0020 FB68     		ldr	r3, [r7, #12]
 311 0022 0122     		movs	r2, #1
 312 0024 83F82020 		strb	r2, [r3, #32]
 306:Drivers/STM32F3xx_HAL_Driver/Src/stm32f3xx_hal_dma.c ****   
 307:Drivers/STM32F3xx_HAL_Driver/Src/stm32f3xx_hal_dma.c ****   if(HAL_DMA_STATE_READY == hdma->State)
 313              		.loc 1 307 0 is_stmt 1 discriminator 2
 314 0028 FB68     		ldr	r3, [r7, #12]
 315 002a 93F82130 		ldrb	r3, [r3, #33]	@ zero_extendqisi2
 316 002e 012B     		cmp	r3, #1
 317 0030 1DD1     		bne	.L10
 308:Drivers/STM32F3xx_HAL_Driver/Src/stm32f3xx_hal_dma.c ****   {
 309:Drivers/STM32F3xx_HAL_Driver/Src/stm32f3xx_hal_dma.c ****   	/* Change DMA peripheral state */  
 310:Drivers/STM32F3xx_HAL_Driver/Src/stm32f3xx_hal_dma.c ****   	hdma->State = HAL_DMA_STATE_BUSY;
 318              		.loc 1 310 0
 319 0032 FB68     		ldr	r3, [r7, #12]
 320 0034 0222     		movs	r2, #2
ARM GAS  /tmp/ccZ0zGVl.s 			page 12


 321 0036 83F82120 		strb	r2, [r3, #33]
 311:Drivers/STM32F3xx_HAL_Driver/Src/stm32f3xx_hal_dma.c ****   	
 312:Drivers/STM32F3xx_HAL_Driver/Src/stm32f3xx_hal_dma.c ****   	hdma->ErrorCode = HAL_DMA_ERROR_NONE;
 322              		.loc 1 312 0
 323 003a FB68     		ldr	r3, [r7, #12]
 324 003c 0022     		movs	r2, #0
 325 003e 9A63     		str	r2, [r3, #56]
 313:Drivers/STM32F3xx_HAL_Driver/Src/stm32f3xx_hal_dma.c ****   	
 314:Drivers/STM32F3xx_HAL_Driver/Src/stm32f3xx_hal_dma.c ****   	/* Disable the peripheral */
 315:Drivers/STM32F3xx_HAL_Driver/Src/stm32f3xx_hal_dma.c ****   	hdma->Instance->CCR &= ~DMA_CCR_EN;  
 326              		.loc 1 315 0
 327 0040 FB68     		ldr	r3, [r7, #12]
 328 0042 1B68     		ldr	r3, [r3]
 329 0044 1A68     		ldr	r2, [r3]
 330 0046 FB68     		ldr	r3, [r7, #12]
 331 0048 1B68     		ldr	r3, [r3]
 332 004a 22F00102 		bic	r2, r2, #1
 333 004e 1A60     		str	r2, [r3]
 316:Drivers/STM32F3xx_HAL_Driver/Src/stm32f3xx_hal_dma.c ****   	
 317:Drivers/STM32F3xx_HAL_Driver/Src/stm32f3xx_hal_dma.c ****   	/* Configure the source, destination address and the data length */
 318:Drivers/STM32F3xx_HAL_Driver/Src/stm32f3xx_hal_dma.c ****   	DMA_SetConfig(hdma, SrcAddress, DstAddress, DataLength);
 334              		.loc 1 318 0
 335 0050 3B68     		ldr	r3, [r7]
 336 0052 7A68     		ldr	r2, [r7, #4]
 337 0054 B968     		ldr	r1, [r7, #8]
 338 0056 F868     		ldr	r0, [r7, #12]
 339 0058 FFF7FEFF 		bl	DMA_SetConfig
 319:Drivers/STM32F3xx_HAL_Driver/Src/stm32f3xx_hal_dma.c ****   	
 320:Drivers/STM32F3xx_HAL_Driver/Src/stm32f3xx_hal_dma.c ****   	/* Enable the Peripheral */
 321:Drivers/STM32F3xx_HAL_Driver/Src/stm32f3xx_hal_dma.c ****   	hdma->Instance->CCR |= DMA_CCR_EN;  
 340              		.loc 1 321 0
 341 005c FB68     		ldr	r3, [r7, #12]
 342 005e 1B68     		ldr	r3, [r3]
 343 0060 1A68     		ldr	r2, [r3]
 344 0062 FB68     		ldr	r3, [r7, #12]
 345 0064 1B68     		ldr	r3, [r3]
 346 0066 42F00102 		orr	r2, r2, #1
 347 006a 1A60     		str	r2, [r3]
 348 006c 05E0     		b	.L11
 349              	.L10:
 322:Drivers/STM32F3xx_HAL_Driver/Src/stm32f3xx_hal_dma.c ****   }
 323:Drivers/STM32F3xx_HAL_Driver/Src/stm32f3xx_hal_dma.c ****   else
 324:Drivers/STM32F3xx_HAL_Driver/Src/stm32f3xx_hal_dma.c ****   {
 325:Drivers/STM32F3xx_HAL_Driver/Src/stm32f3xx_hal_dma.c ****   	/* Process Unlocked */
 326:Drivers/STM32F3xx_HAL_Driver/Src/stm32f3xx_hal_dma.c ****   	__HAL_UNLOCK(hdma);
 350              		.loc 1 326 0
 351 006e FB68     		ldr	r3, [r7, #12]
 352 0070 0022     		movs	r2, #0
 353 0072 83F82020 		strb	r2, [r3, #32]
 327:Drivers/STM32F3xx_HAL_Driver/Src/stm32f3xx_hal_dma.c ****   	
 328:Drivers/STM32F3xx_HAL_Driver/Src/stm32f3xx_hal_dma.c ****   	/* Remain BUSY */
 329:Drivers/STM32F3xx_HAL_Driver/Src/stm32f3xx_hal_dma.c ****   	status = HAL_BUSY;
 354              		.loc 1 329 0
 355 0076 0223     		movs	r3, #2
 356 0078 FB75     		strb	r3, [r7, #23]
 357              	.L11:
 330:Drivers/STM32F3xx_HAL_Driver/Src/stm32f3xx_hal_dma.c ****   }  
ARM GAS  /tmp/ccZ0zGVl.s 			page 13


 331:Drivers/STM32F3xx_HAL_Driver/Src/stm32f3xx_hal_dma.c **** 
 332:Drivers/STM32F3xx_HAL_Driver/Src/stm32f3xx_hal_dma.c ****   return status; 
 358              		.loc 1 332 0
 359 007a FB7D     		ldrb	r3, [r7, #23]	@ zero_extendqisi2
 360              	.L9:
 333:Drivers/STM32F3xx_HAL_Driver/Src/stm32f3xx_hal_dma.c **** } 
 361              		.loc 1 333 0
 362 007c 1846     		mov	r0, r3
 363 007e 1837     		adds	r7, r7, #24
 364              	.LCFI13:
 365              		.cfi_def_cfa_offset 8
 366 0080 BD46     		mov	sp, r7
 367              	.LCFI14:
 368              		.cfi_def_cfa_register 13
 369              		@ sp needed
 370 0082 80BD     		pop	{r7, pc}
 371              		.cfi_endproc
 372              	.LFE697:
 374              		.section	.text.HAL_DMA_Start_IT,"ax",%progbits
 375              		.align	1
 376              		.global	HAL_DMA_Start_IT
 377              		.syntax unified
 378              		.thumb
 379              		.thumb_func
 380              		.fpu fpv4-sp-d16
 382              	HAL_DMA_Start_IT:
 383              	.LFB698:
 334:Drivers/STM32F3xx_HAL_Driver/Src/stm32f3xx_hal_dma.c **** 
 335:Drivers/STM32F3xx_HAL_Driver/Src/stm32f3xx_hal_dma.c **** /**
 336:Drivers/STM32F3xx_HAL_Driver/Src/stm32f3xx_hal_dma.c ****   * @brief  Start the DMA Transfer with interrupt enabled.
 337:Drivers/STM32F3xx_HAL_Driver/Src/stm32f3xx_hal_dma.c ****   * @param  hdma       pointer to a DMA_HandleTypeDef structure that contains
 338:Drivers/STM32F3xx_HAL_Driver/Src/stm32f3xx_hal_dma.c ****   *                     the configuration information for the specified DMA Channel.  
 339:Drivers/STM32F3xx_HAL_Driver/Src/stm32f3xx_hal_dma.c ****   * @param  SrcAddress The source memory Buffer address
 340:Drivers/STM32F3xx_HAL_Driver/Src/stm32f3xx_hal_dma.c ****   * @param  DstAddress The destination memory Buffer address
 341:Drivers/STM32F3xx_HAL_Driver/Src/stm32f3xx_hal_dma.c ****   * @param  DataLength The length of data to be transferred from source to destination
 342:Drivers/STM32F3xx_HAL_Driver/Src/stm32f3xx_hal_dma.c ****   * @retval HAL status
 343:Drivers/STM32F3xx_HAL_Driver/Src/stm32f3xx_hal_dma.c ****   */
 344:Drivers/STM32F3xx_HAL_Driver/Src/stm32f3xx_hal_dma.c **** HAL_StatusTypeDef HAL_DMA_Start_IT(DMA_HandleTypeDef *hdma, uint32_t SrcAddress, uint32_t DstAddres
 345:Drivers/STM32F3xx_HAL_Driver/Src/stm32f3xx_hal_dma.c **** {
 384              		.loc 1 345 0
 385              		.cfi_startproc
 386              		@ args = 0, pretend = 0, frame = 24
 387              		@ frame_needed = 1, uses_anonymous_args = 0
 388 0000 80B5     		push	{r7, lr}
 389              	.LCFI15:
 390              		.cfi_def_cfa_offset 8
 391              		.cfi_offset 7, -8
 392              		.cfi_offset 14, -4
 393 0002 86B0     		sub	sp, sp, #24
 394              	.LCFI16:
 395              		.cfi_def_cfa_offset 32
 396 0004 00AF     		add	r7, sp, #0
 397              	.LCFI17:
 398              		.cfi_def_cfa_register 7
 399 0006 F860     		str	r0, [r7, #12]
 400 0008 B960     		str	r1, [r7, #8]
 401 000a 7A60     		str	r2, [r7, #4]
ARM GAS  /tmp/ccZ0zGVl.s 			page 14


 402 000c 3B60     		str	r3, [r7]
 346:Drivers/STM32F3xx_HAL_Driver/Src/stm32f3xx_hal_dma.c **** 	HAL_StatusTypeDef status = HAL_OK;
 403              		.loc 1 346 0
 404 000e 0023     		movs	r3, #0
 405 0010 FB75     		strb	r3, [r7, #23]
 347:Drivers/STM32F3xx_HAL_Driver/Src/stm32f3xx_hal_dma.c **** 
 348:Drivers/STM32F3xx_HAL_Driver/Src/stm32f3xx_hal_dma.c ****   /* Check the parameters */
 349:Drivers/STM32F3xx_HAL_Driver/Src/stm32f3xx_hal_dma.c ****   assert_param(IS_DMA_BUFFER_SIZE(DataLength));
 350:Drivers/STM32F3xx_HAL_Driver/Src/stm32f3xx_hal_dma.c ****   
 351:Drivers/STM32F3xx_HAL_Driver/Src/stm32f3xx_hal_dma.c ****   /* Process locked */
 352:Drivers/STM32F3xx_HAL_Driver/Src/stm32f3xx_hal_dma.c ****   __HAL_LOCK(hdma);
 406              		.loc 1 352 0
 407 0012 FB68     		ldr	r3, [r7, #12]
 408 0014 93F82030 		ldrb	r3, [r3, #32]	@ zero_extendqisi2
 409 0018 012B     		cmp	r3, #1
 410 001a 01D1     		bne	.L13
 411              		.loc 1 352 0 is_stmt 0 discriminator 1
 412 001c 0223     		movs	r3, #2
 413 001e 4AE0     		b	.L14
 414              	.L13:
 415              		.loc 1 352 0 discriminator 2
 416 0020 FB68     		ldr	r3, [r7, #12]
 417 0022 0122     		movs	r2, #1
 418 0024 83F82020 		strb	r2, [r3, #32]
 353:Drivers/STM32F3xx_HAL_Driver/Src/stm32f3xx_hal_dma.c ****   
 354:Drivers/STM32F3xx_HAL_Driver/Src/stm32f3xx_hal_dma.c ****   if(HAL_DMA_STATE_READY == hdma->State)
 419              		.loc 1 354 0 is_stmt 1 discriminator 2
 420 0028 FB68     		ldr	r3, [r7, #12]
 421 002a 93F82130 		ldrb	r3, [r3, #33]	@ zero_extendqisi2
 422 002e 012B     		cmp	r3, #1
 423 0030 3AD1     		bne	.L15
 355:Drivers/STM32F3xx_HAL_Driver/Src/stm32f3xx_hal_dma.c ****   {
 356:Drivers/STM32F3xx_HAL_Driver/Src/stm32f3xx_hal_dma.c ****   	/* Change DMA peripheral state */  
 357:Drivers/STM32F3xx_HAL_Driver/Src/stm32f3xx_hal_dma.c ****   	hdma->State = HAL_DMA_STATE_BUSY;
 424              		.loc 1 357 0
 425 0032 FB68     		ldr	r3, [r7, #12]
 426 0034 0222     		movs	r2, #2
 427 0036 83F82120 		strb	r2, [r3, #33]
 358:Drivers/STM32F3xx_HAL_Driver/Src/stm32f3xx_hal_dma.c ****   	
 359:Drivers/STM32F3xx_HAL_Driver/Src/stm32f3xx_hal_dma.c ****   	hdma->ErrorCode = HAL_DMA_ERROR_NONE;
 428              		.loc 1 359 0
 429 003a FB68     		ldr	r3, [r7, #12]
 430 003c 0022     		movs	r2, #0
 431 003e 9A63     		str	r2, [r3, #56]
 360:Drivers/STM32F3xx_HAL_Driver/Src/stm32f3xx_hal_dma.c ****   	
 361:Drivers/STM32F3xx_HAL_Driver/Src/stm32f3xx_hal_dma.c ****   	/* Disable the peripheral */
 362:Drivers/STM32F3xx_HAL_Driver/Src/stm32f3xx_hal_dma.c ****   	hdma->Instance->CCR &= ~DMA_CCR_EN;
 432              		.loc 1 362 0
 433 0040 FB68     		ldr	r3, [r7, #12]
 434 0042 1B68     		ldr	r3, [r3]
 435 0044 1A68     		ldr	r2, [r3]
 436 0046 FB68     		ldr	r3, [r7, #12]
 437 0048 1B68     		ldr	r3, [r3]
 438 004a 22F00102 		bic	r2, r2, #1
 439 004e 1A60     		str	r2, [r3]
 363:Drivers/STM32F3xx_HAL_Driver/Src/stm32f3xx_hal_dma.c ****   	
 364:Drivers/STM32F3xx_HAL_Driver/Src/stm32f3xx_hal_dma.c ****   	/* Configure the source, destination address and the data length */  
ARM GAS  /tmp/ccZ0zGVl.s 			page 15


 365:Drivers/STM32F3xx_HAL_Driver/Src/stm32f3xx_hal_dma.c ****   	DMA_SetConfig(hdma, SrcAddress, DstAddress, DataLength);
 440              		.loc 1 365 0
 441 0050 3B68     		ldr	r3, [r7]
 442 0052 7A68     		ldr	r2, [r7, #4]
 443 0054 B968     		ldr	r1, [r7, #8]
 444 0056 F868     		ldr	r0, [r7, #12]
 445 0058 FFF7FEFF 		bl	DMA_SetConfig
 366:Drivers/STM32F3xx_HAL_Driver/Src/stm32f3xx_hal_dma.c ****   	
 367:Drivers/STM32F3xx_HAL_Driver/Src/stm32f3xx_hal_dma.c ****   	/* Enable the transfer complete, & transfer error interrupts */
 368:Drivers/STM32F3xx_HAL_Driver/Src/stm32f3xx_hal_dma.c ****   	/* Half transfer interrupt is optional: enable it only if associated callback is available */
 369:Drivers/STM32F3xx_HAL_Driver/Src/stm32f3xx_hal_dma.c ****     if(NULL != hdma->XferHalfCpltCallback )
 446              		.loc 1 369 0
 447 005c FB68     		ldr	r3, [r7, #12]
 448 005e DB6A     		ldr	r3, [r3, #44]
 449 0060 002B     		cmp	r3, #0
 450 0062 08D0     		beq	.L16
 370:Drivers/STM32F3xx_HAL_Driver/Src/stm32f3xx_hal_dma.c ****     {
 371:Drivers/STM32F3xx_HAL_Driver/Src/stm32f3xx_hal_dma.c ****       hdma->Instance->CCR |= (DMA_IT_TC | DMA_IT_HT | DMA_IT_TE);
 451              		.loc 1 371 0
 452 0064 FB68     		ldr	r3, [r7, #12]
 453 0066 1B68     		ldr	r3, [r3]
 454 0068 1A68     		ldr	r2, [r3]
 455 006a FB68     		ldr	r3, [r7, #12]
 456 006c 1B68     		ldr	r3, [r3]
 457 006e 42F00E02 		orr	r2, r2, #14
 458 0072 1A60     		str	r2, [r3]
 459 0074 0FE0     		b	.L17
 460              	.L16:
 372:Drivers/STM32F3xx_HAL_Driver/Src/stm32f3xx_hal_dma.c ****     }
 373:Drivers/STM32F3xx_HAL_Driver/Src/stm32f3xx_hal_dma.c ****   	else
 374:Drivers/STM32F3xx_HAL_Driver/Src/stm32f3xx_hal_dma.c ****   	{
 375:Drivers/STM32F3xx_HAL_Driver/Src/stm32f3xx_hal_dma.c ****   		hdma->Instance->CCR |= (DMA_IT_TC | DMA_IT_TE);
 461              		.loc 1 375 0
 462 0076 FB68     		ldr	r3, [r7, #12]
 463 0078 1B68     		ldr	r3, [r3]
 464 007a 1A68     		ldr	r2, [r3]
 465 007c FB68     		ldr	r3, [r7, #12]
 466 007e 1B68     		ldr	r3, [r3]
 467 0080 42F00A02 		orr	r2, r2, #10
 468 0084 1A60     		str	r2, [r3]
 376:Drivers/STM32F3xx_HAL_Driver/Src/stm32f3xx_hal_dma.c ****   		hdma->Instance->CCR &= ~DMA_IT_HT;
 469              		.loc 1 376 0
 470 0086 FB68     		ldr	r3, [r7, #12]
 471 0088 1B68     		ldr	r3, [r3]
 472 008a 1A68     		ldr	r2, [r3]
 473 008c FB68     		ldr	r3, [r7, #12]
 474 008e 1B68     		ldr	r3, [r3]
 475 0090 22F00402 		bic	r2, r2, #4
 476 0094 1A60     		str	r2, [r3]
 477              	.L17:
 377:Drivers/STM32F3xx_HAL_Driver/Src/stm32f3xx_hal_dma.c ****   	}
 378:Drivers/STM32F3xx_HAL_Driver/Src/stm32f3xx_hal_dma.c ****   	
 379:Drivers/STM32F3xx_HAL_Driver/Src/stm32f3xx_hal_dma.c ****   	/* Enable the Peripheral */
 380:Drivers/STM32F3xx_HAL_Driver/Src/stm32f3xx_hal_dma.c ****   	hdma->Instance->CCR |= DMA_CCR_EN;
 478              		.loc 1 380 0
 479 0096 FB68     		ldr	r3, [r7, #12]
 480 0098 1B68     		ldr	r3, [r3]
ARM GAS  /tmp/ccZ0zGVl.s 			page 16


 481 009a 1A68     		ldr	r2, [r3]
 482 009c FB68     		ldr	r3, [r7, #12]
 483 009e 1B68     		ldr	r3, [r3]
 484 00a0 42F00102 		orr	r2, r2, #1
 485 00a4 1A60     		str	r2, [r3]
 486 00a6 05E0     		b	.L18
 487              	.L15:
 381:Drivers/STM32F3xx_HAL_Driver/Src/stm32f3xx_hal_dma.c ****   }
 382:Drivers/STM32F3xx_HAL_Driver/Src/stm32f3xx_hal_dma.c ****   else
 383:Drivers/STM32F3xx_HAL_Driver/Src/stm32f3xx_hal_dma.c ****   {
 384:Drivers/STM32F3xx_HAL_Driver/Src/stm32f3xx_hal_dma.c ****   	/* Process Unlocked */
 385:Drivers/STM32F3xx_HAL_Driver/Src/stm32f3xx_hal_dma.c ****     __HAL_UNLOCK(hdma); 
 488              		.loc 1 385 0
 489 00a8 FB68     		ldr	r3, [r7, #12]
 490 00aa 0022     		movs	r2, #0
 491 00ac 83F82020 		strb	r2, [r3, #32]
 386:Drivers/STM32F3xx_HAL_Driver/Src/stm32f3xx_hal_dma.c ****   
 387:Drivers/STM32F3xx_HAL_Driver/Src/stm32f3xx_hal_dma.c ****     /* Remain BUSY */
 388:Drivers/STM32F3xx_HAL_Driver/Src/stm32f3xx_hal_dma.c ****     status = HAL_BUSY;
 492              		.loc 1 388 0
 493 00b0 0223     		movs	r3, #2
 494 00b2 FB75     		strb	r3, [r7, #23]
 495              	.L18:
 389:Drivers/STM32F3xx_HAL_Driver/Src/stm32f3xx_hal_dma.c ****   }     
 390:Drivers/STM32F3xx_HAL_Driver/Src/stm32f3xx_hal_dma.c ****   
 391:Drivers/STM32F3xx_HAL_Driver/Src/stm32f3xx_hal_dma.c ****   return status;    
 496              		.loc 1 391 0
 497 00b4 FB7D     		ldrb	r3, [r7, #23]	@ zero_extendqisi2
 498              	.L14:
 392:Drivers/STM32F3xx_HAL_Driver/Src/stm32f3xx_hal_dma.c **** } 
 499              		.loc 1 392 0
 500 00b6 1846     		mov	r0, r3
 501 00b8 1837     		adds	r7, r7, #24
 502              	.LCFI18:
 503              		.cfi_def_cfa_offset 8
 504 00ba BD46     		mov	sp, r7
 505              	.LCFI19:
 506              		.cfi_def_cfa_register 13
 507              		@ sp needed
 508 00bc 80BD     		pop	{r7, pc}
 509              		.cfi_endproc
 510              	.LFE698:
 512              		.section	.text.HAL_DMA_Abort,"ax",%progbits
 513              		.align	1
 514              		.global	HAL_DMA_Abort
 515              		.syntax unified
 516              		.thumb
 517              		.thumb_func
 518              		.fpu fpv4-sp-d16
 520              	HAL_DMA_Abort:
 521              	.LFB699:
 393:Drivers/STM32F3xx_HAL_Driver/Src/stm32f3xx_hal_dma.c **** 
 394:Drivers/STM32F3xx_HAL_Driver/Src/stm32f3xx_hal_dma.c **** /**
 395:Drivers/STM32F3xx_HAL_Driver/Src/stm32f3xx_hal_dma.c ****   * @brief  Abort the DMA Transfer.
 396:Drivers/STM32F3xx_HAL_Driver/Src/stm32f3xx_hal_dma.c ****   * @param  hdma  : pointer to a DMA_HandleTypeDef structure that contains
 397:Drivers/STM32F3xx_HAL_Driver/Src/stm32f3xx_hal_dma.c ****   *                 the configuration information for the specified DMA Channel.                  
 398:Drivers/STM32F3xx_HAL_Driver/Src/stm32f3xx_hal_dma.c ****   * @retval HAL status
ARM GAS  /tmp/ccZ0zGVl.s 			page 17


 399:Drivers/STM32F3xx_HAL_Driver/Src/stm32f3xx_hal_dma.c ****   */
 400:Drivers/STM32F3xx_HAL_Driver/Src/stm32f3xx_hal_dma.c **** HAL_StatusTypeDef HAL_DMA_Abort(DMA_HandleTypeDef *hdma)
 401:Drivers/STM32F3xx_HAL_Driver/Src/stm32f3xx_hal_dma.c **** {
 522              		.loc 1 401 0
 523              		.cfi_startproc
 524              		@ args = 0, pretend = 0, frame = 8
 525              		@ frame_needed = 1, uses_anonymous_args = 0
 526              		@ link register save eliminated.
 527 0000 80B4     		push	{r7}
 528              	.LCFI20:
 529              		.cfi_def_cfa_offset 4
 530              		.cfi_offset 7, -4
 531 0002 83B0     		sub	sp, sp, #12
 532              	.LCFI21:
 533              		.cfi_def_cfa_offset 16
 534 0004 00AF     		add	r7, sp, #0
 535              	.LCFI22:
 536              		.cfi_def_cfa_register 7
 537 0006 7860     		str	r0, [r7, #4]
 402:Drivers/STM32F3xx_HAL_Driver/Src/stm32f3xx_hal_dma.c **** 	/* Disable DMA IT */
 403:Drivers/STM32F3xx_HAL_Driver/Src/stm32f3xx_hal_dma.c **** 	 hdma->Instance->CCR &= ~(DMA_IT_TC | DMA_IT_HT | DMA_IT_TE);
 538              		.loc 1 403 0
 539 0008 7B68     		ldr	r3, [r7, #4]
 540 000a 1B68     		ldr	r3, [r3]
 541 000c 1A68     		ldr	r2, [r3]
 542 000e 7B68     		ldr	r3, [r7, #4]
 543 0010 1B68     		ldr	r3, [r3]
 544 0012 22F00E02 		bic	r2, r2, #14
 545 0016 1A60     		str	r2, [r3]
 404:Drivers/STM32F3xx_HAL_Driver/Src/stm32f3xx_hal_dma.c **** 	
 405:Drivers/STM32F3xx_HAL_Driver/Src/stm32f3xx_hal_dma.c **** 	/* Disable the channel */
 406:Drivers/STM32F3xx_HAL_Driver/Src/stm32f3xx_hal_dma.c **** 	hdma->Instance->CCR &= ~DMA_CCR_EN;
 546              		.loc 1 406 0
 547 0018 7B68     		ldr	r3, [r7, #4]
 548 001a 1B68     		ldr	r3, [r3]
 549 001c 1A68     		ldr	r2, [r3]
 550 001e 7B68     		ldr	r3, [r7, #4]
 551 0020 1B68     		ldr	r3, [r3]
 552 0022 22F00102 		bic	r2, r2, #1
 553 0026 1A60     		str	r2, [r3]
 407:Drivers/STM32F3xx_HAL_Driver/Src/stm32f3xx_hal_dma.c **** 	
 408:Drivers/STM32F3xx_HAL_Driver/Src/stm32f3xx_hal_dma.c **** 	/* Clear all flags */
 409:Drivers/STM32F3xx_HAL_Driver/Src/stm32f3xx_hal_dma.c **** 	hdma->DmaBaseAddress->IFCR = (DMA_FLAG_GL1 << hdma->ChannelIndex);
 554              		.loc 1 409 0
 555 0028 7B68     		ldr	r3, [r7, #4]
 556 002a 1A6C     		ldr	r2, [r3, #64]
 557 002c 7B68     		ldr	r3, [r7, #4]
 558 002e DB6B     		ldr	r3, [r3, #60]
 559 0030 0121     		movs	r1, #1
 560 0032 01FA02F2 		lsl	r2, r1, r2
 561 0036 5A60     		str	r2, [r3, #4]
 410:Drivers/STM32F3xx_HAL_Driver/Src/stm32f3xx_hal_dma.c **** 	
 411:Drivers/STM32F3xx_HAL_Driver/Src/stm32f3xx_hal_dma.c **** 	/* Change the DMA state*/
 412:Drivers/STM32F3xx_HAL_Driver/Src/stm32f3xx_hal_dma.c **** 	hdma->State = HAL_DMA_STATE_READY; 
 562              		.loc 1 412 0
 563 0038 7B68     		ldr	r3, [r7, #4]
 564 003a 0122     		movs	r2, #1
ARM GAS  /tmp/ccZ0zGVl.s 			page 18


 565 003c 83F82120 		strb	r2, [r3, #33]
 413:Drivers/STM32F3xx_HAL_Driver/Src/stm32f3xx_hal_dma.c **** 	
 414:Drivers/STM32F3xx_HAL_Driver/Src/stm32f3xx_hal_dma.c **** 	/* Process Unlocked */
 415:Drivers/STM32F3xx_HAL_Driver/Src/stm32f3xx_hal_dma.c **** 	__HAL_UNLOCK(hdma);
 566              		.loc 1 415 0
 567 0040 7B68     		ldr	r3, [r7, #4]
 568 0042 0022     		movs	r2, #0
 569 0044 83F82020 		strb	r2, [r3, #32]
 416:Drivers/STM32F3xx_HAL_Driver/Src/stm32f3xx_hal_dma.c **** 	
 417:Drivers/STM32F3xx_HAL_Driver/Src/stm32f3xx_hal_dma.c **** 	return HAL_OK; 
 570              		.loc 1 417 0
 571 0048 0023     		movs	r3, #0
 418:Drivers/STM32F3xx_HAL_Driver/Src/stm32f3xx_hal_dma.c **** }
 572              		.loc 1 418 0
 573 004a 1846     		mov	r0, r3
 574 004c 0C37     		adds	r7, r7, #12
 575              	.LCFI23:
 576              		.cfi_def_cfa_offset 4
 577 004e BD46     		mov	sp, r7
 578              	.LCFI24:
 579              		.cfi_def_cfa_register 13
 580              		@ sp needed
 581 0050 5DF8047B 		ldr	r7, [sp], #4
 582              	.LCFI25:
 583              		.cfi_restore 7
 584              		.cfi_def_cfa_offset 0
 585 0054 7047     		bx	lr
 586              		.cfi_endproc
 587              	.LFE699:
 589              		.section	.text.HAL_DMA_Abort_IT,"ax",%progbits
 590              		.align	1
 591              		.global	HAL_DMA_Abort_IT
 592              		.syntax unified
 593              		.thumb
 594              		.thumb_func
 595              		.fpu fpv4-sp-d16
 597              	HAL_DMA_Abort_IT:
 598              	.LFB700:
 419:Drivers/STM32F3xx_HAL_Driver/Src/stm32f3xx_hal_dma.c **** 
 420:Drivers/STM32F3xx_HAL_Driver/Src/stm32f3xx_hal_dma.c **** /**
 421:Drivers/STM32F3xx_HAL_Driver/Src/stm32f3xx_hal_dma.c ****   * @brief  Abort the DMA Transfer in Interrupt mode.
 422:Drivers/STM32F3xx_HAL_Driver/Src/stm32f3xx_hal_dma.c ****   * @param  hdma  : pointer to a DMA_HandleTypeDef structure that contains
 423:Drivers/STM32F3xx_HAL_Driver/Src/stm32f3xx_hal_dma.c ****   *                 the configuration information for the specified DMA Stream.
 424:Drivers/STM32F3xx_HAL_Driver/Src/stm32f3xx_hal_dma.c ****   * @retval HAL status
 425:Drivers/STM32F3xx_HAL_Driver/Src/stm32f3xx_hal_dma.c ****   */
 426:Drivers/STM32F3xx_HAL_Driver/Src/stm32f3xx_hal_dma.c **** HAL_StatusTypeDef HAL_DMA_Abort_IT(DMA_HandleTypeDef *hdma)
 427:Drivers/STM32F3xx_HAL_Driver/Src/stm32f3xx_hal_dma.c **** {  
 599              		.loc 1 427 0
 600              		.cfi_startproc
 601              		@ args = 0, pretend = 0, frame = 16
 602              		@ frame_needed = 1, uses_anonymous_args = 0
 603 0000 80B5     		push	{r7, lr}
 604              	.LCFI26:
 605              		.cfi_def_cfa_offset 8
 606              		.cfi_offset 7, -8
 607              		.cfi_offset 14, -4
 608 0002 84B0     		sub	sp, sp, #16
ARM GAS  /tmp/ccZ0zGVl.s 			page 19


 609              	.LCFI27:
 610              		.cfi_def_cfa_offset 24
 611 0004 00AF     		add	r7, sp, #0
 612              	.LCFI28:
 613              		.cfi_def_cfa_register 7
 614 0006 7860     		str	r0, [r7, #4]
 428:Drivers/STM32F3xx_HAL_Driver/Src/stm32f3xx_hal_dma.c ****   HAL_StatusTypeDef status = HAL_OK;
 615              		.loc 1 428 0
 616 0008 0023     		movs	r3, #0
 617 000a FB73     		strb	r3, [r7, #15]
 429:Drivers/STM32F3xx_HAL_Driver/Src/stm32f3xx_hal_dma.c ****   
 430:Drivers/STM32F3xx_HAL_Driver/Src/stm32f3xx_hal_dma.c ****   if(HAL_DMA_STATE_BUSY != hdma->State)
 618              		.loc 1 430 0
 619 000c 7B68     		ldr	r3, [r7, #4]
 620 000e 93F82130 		ldrb	r3, [r3, #33]	@ zero_extendqisi2
 621 0012 022B     		cmp	r3, #2
 622 0014 05D0     		beq	.L22
 431:Drivers/STM32F3xx_HAL_Driver/Src/stm32f3xx_hal_dma.c ****   {
 432:Drivers/STM32F3xx_HAL_Driver/Src/stm32f3xx_hal_dma.c ****     /* no transfer ongoing */
 433:Drivers/STM32F3xx_HAL_Driver/Src/stm32f3xx_hal_dma.c ****     hdma->ErrorCode = HAL_DMA_ERROR_NO_XFER;
 623              		.loc 1 433 0
 624 0016 7B68     		ldr	r3, [r7, #4]
 625 0018 0422     		movs	r2, #4
 626 001a 9A63     		str	r2, [r3, #56]
 434:Drivers/STM32F3xx_HAL_Driver/Src/stm32f3xx_hal_dma.c ****         
 435:Drivers/STM32F3xx_HAL_Driver/Src/stm32f3xx_hal_dma.c ****     status = HAL_ERROR;
 627              		.loc 1 435 0
 628 001c 0123     		movs	r3, #1
 629 001e FB73     		strb	r3, [r7, #15]
 630 0020 27E0     		b	.L23
 631              	.L22:
 436:Drivers/STM32F3xx_HAL_Driver/Src/stm32f3xx_hal_dma.c ****   }
 437:Drivers/STM32F3xx_HAL_Driver/Src/stm32f3xx_hal_dma.c ****   else
 438:Drivers/STM32F3xx_HAL_Driver/Src/stm32f3xx_hal_dma.c ****   { 
 439:Drivers/STM32F3xx_HAL_Driver/Src/stm32f3xx_hal_dma.c ****   
 440:Drivers/STM32F3xx_HAL_Driver/Src/stm32f3xx_hal_dma.c ****     /* Disable DMA IT */
 441:Drivers/STM32F3xx_HAL_Driver/Src/stm32f3xx_hal_dma.c ****     hdma->Instance->CCR &= ~(DMA_IT_TC | DMA_IT_HT | DMA_IT_TE);
 632              		.loc 1 441 0
 633 0022 7B68     		ldr	r3, [r7, #4]
 634 0024 1B68     		ldr	r3, [r3]
 635 0026 1A68     		ldr	r2, [r3]
 636 0028 7B68     		ldr	r3, [r7, #4]
 637 002a 1B68     		ldr	r3, [r3]
 638 002c 22F00E02 		bic	r2, r2, #14
 639 0030 1A60     		str	r2, [r3]
 442:Drivers/STM32F3xx_HAL_Driver/Src/stm32f3xx_hal_dma.c ****     
 443:Drivers/STM32F3xx_HAL_Driver/Src/stm32f3xx_hal_dma.c ****     /* Disable the channel */
 444:Drivers/STM32F3xx_HAL_Driver/Src/stm32f3xx_hal_dma.c ****     hdma->Instance->CCR &= ~DMA_CCR_EN;
 640              		.loc 1 444 0
 641 0032 7B68     		ldr	r3, [r7, #4]
 642 0034 1B68     		ldr	r3, [r3]
 643 0036 1A68     		ldr	r2, [r3]
 644 0038 7B68     		ldr	r3, [r7, #4]
 645 003a 1B68     		ldr	r3, [r3]
 646 003c 22F00102 		bic	r2, r2, #1
 647 0040 1A60     		str	r2, [r3]
 445:Drivers/STM32F3xx_HAL_Driver/Src/stm32f3xx_hal_dma.c ****     
ARM GAS  /tmp/ccZ0zGVl.s 			page 20


 446:Drivers/STM32F3xx_HAL_Driver/Src/stm32f3xx_hal_dma.c ****     /* Clear all flags */
 447:Drivers/STM32F3xx_HAL_Driver/Src/stm32f3xx_hal_dma.c ****     hdma->DmaBaseAddress->IFCR = DMA_FLAG_GL1 << hdma->ChannelIndex;
 648              		.loc 1 447 0
 649 0042 7B68     		ldr	r3, [r7, #4]
 650 0044 1A6C     		ldr	r2, [r3, #64]
 651 0046 7B68     		ldr	r3, [r7, #4]
 652 0048 DB6B     		ldr	r3, [r3, #60]
 653 004a 0121     		movs	r1, #1
 654 004c 01FA02F2 		lsl	r2, r1, r2
 655 0050 5A60     		str	r2, [r3, #4]
 448:Drivers/STM32F3xx_HAL_Driver/Src/stm32f3xx_hal_dma.c ****     
 449:Drivers/STM32F3xx_HAL_Driver/Src/stm32f3xx_hal_dma.c ****     /* Change the DMA state */
 450:Drivers/STM32F3xx_HAL_Driver/Src/stm32f3xx_hal_dma.c ****     hdma->State = HAL_DMA_STATE_READY;
 656              		.loc 1 450 0
 657 0052 7B68     		ldr	r3, [r7, #4]
 658 0054 0122     		movs	r2, #1
 659 0056 83F82120 		strb	r2, [r3, #33]
 451:Drivers/STM32F3xx_HAL_Driver/Src/stm32f3xx_hal_dma.c ****     
 452:Drivers/STM32F3xx_HAL_Driver/Src/stm32f3xx_hal_dma.c ****     /* Process Unlocked */
 453:Drivers/STM32F3xx_HAL_Driver/Src/stm32f3xx_hal_dma.c ****     __HAL_UNLOCK(hdma);
 660              		.loc 1 453 0
 661 005a 7B68     		ldr	r3, [r7, #4]
 662 005c 0022     		movs	r2, #0
 663 005e 83F82020 		strb	r2, [r3, #32]
 454:Drivers/STM32F3xx_HAL_Driver/Src/stm32f3xx_hal_dma.c ****     
 455:Drivers/STM32F3xx_HAL_Driver/Src/stm32f3xx_hal_dma.c ****     /* Call User Abort callback */ 
 456:Drivers/STM32F3xx_HAL_Driver/Src/stm32f3xx_hal_dma.c ****     if(hdma->XferAbortCallback != NULL)
 664              		.loc 1 456 0
 665 0062 7B68     		ldr	r3, [r7, #4]
 666 0064 5B6B     		ldr	r3, [r3, #52]
 667 0066 002B     		cmp	r3, #0
 668 0068 03D0     		beq	.L23
 457:Drivers/STM32F3xx_HAL_Driver/Src/stm32f3xx_hal_dma.c ****     {
 458:Drivers/STM32F3xx_HAL_Driver/Src/stm32f3xx_hal_dma.c ****       hdma->XferAbortCallback(hdma);
 669              		.loc 1 458 0
 670 006a 7B68     		ldr	r3, [r7, #4]
 671 006c 5B6B     		ldr	r3, [r3, #52]
 672 006e 7868     		ldr	r0, [r7, #4]
 673 0070 9847     		blx	r3
 674              	.LVL0:
 675              	.L23:
 459:Drivers/STM32F3xx_HAL_Driver/Src/stm32f3xx_hal_dma.c ****     } 
 460:Drivers/STM32F3xx_HAL_Driver/Src/stm32f3xx_hal_dma.c ****   }
 461:Drivers/STM32F3xx_HAL_Driver/Src/stm32f3xx_hal_dma.c ****   return status;
 676              		.loc 1 461 0
 677 0072 FB7B     		ldrb	r3, [r7, #15]	@ zero_extendqisi2
 462:Drivers/STM32F3xx_HAL_Driver/Src/stm32f3xx_hal_dma.c **** }
 678              		.loc 1 462 0
 679 0074 1846     		mov	r0, r3
 680 0076 1037     		adds	r7, r7, #16
 681              	.LCFI29:
 682              		.cfi_def_cfa_offset 8
 683 0078 BD46     		mov	sp, r7
 684              	.LCFI30:
 685              		.cfi_def_cfa_register 13
 686              		@ sp needed
 687 007a 80BD     		pop	{r7, pc}
ARM GAS  /tmp/ccZ0zGVl.s 			page 21


 688              		.cfi_endproc
 689              	.LFE700:
 691              		.section	.text.HAL_DMA_PollForTransfer,"ax",%progbits
 692              		.align	1
 693              		.global	HAL_DMA_PollForTransfer
 694              		.syntax unified
 695              		.thumb
 696              		.thumb_func
 697              		.fpu fpv4-sp-d16
 699              	HAL_DMA_PollForTransfer:
 700              	.LFB701:
 463:Drivers/STM32F3xx_HAL_Driver/Src/stm32f3xx_hal_dma.c **** 
 464:Drivers/STM32F3xx_HAL_Driver/Src/stm32f3xx_hal_dma.c **** /**
 465:Drivers/STM32F3xx_HAL_Driver/Src/stm32f3xx_hal_dma.c ****   * @brief  Polling for transfer complete.
 466:Drivers/STM32F3xx_HAL_Driver/Src/stm32f3xx_hal_dma.c ****   * @param  hdma    pointer to a DMA_HandleTypeDef structure that contains
 467:Drivers/STM32F3xx_HAL_Driver/Src/stm32f3xx_hal_dma.c ****   *                  the configuration information for the specified DMA Channel.
 468:Drivers/STM32F3xx_HAL_Driver/Src/stm32f3xx_hal_dma.c ****   * @param  CompleteLevel Specifies the DMA level complete.  
 469:Drivers/STM32F3xx_HAL_Driver/Src/stm32f3xx_hal_dma.c ****   * @param  Timeout       Timeout duration.
 470:Drivers/STM32F3xx_HAL_Driver/Src/stm32f3xx_hal_dma.c ****   * @retval HAL status
 471:Drivers/STM32F3xx_HAL_Driver/Src/stm32f3xx_hal_dma.c ****   */
 472:Drivers/STM32F3xx_HAL_Driver/Src/stm32f3xx_hal_dma.c **** HAL_StatusTypeDef HAL_DMA_PollForTransfer(DMA_HandleTypeDef *hdma, uint32_t CompleteLevel, uint32_t
 473:Drivers/STM32F3xx_HAL_Driver/Src/stm32f3xx_hal_dma.c **** {
 701              		.loc 1 473 0
 702              		.cfi_startproc
 703              		@ args = 0, pretend = 0, frame = 24
 704              		@ frame_needed = 1, uses_anonymous_args = 0
 705 0000 80B5     		push	{r7, lr}
 706              	.LCFI31:
 707              		.cfi_def_cfa_offset 8
 708              		.cfi_offset 7, -8
 709              		.cfi_offset 14, -4
 710 0002 86B0     		sub	sp, sp, #24
 711              	.LCFI32:
 712              		.cfi_def_cfa_offset 32
 713 0004 00AF     		add	r7, sp, #0
 714              	.LCFI33:
 715              		.cfi_def_cfa_register 7
 716 0006 F860     		str	r0, [r7, #12]
 717 0008 B960     		str	r1, [r7, #8]
 718 000a 7A60     		str	r2, [r7, #4]
 474:Drivers/STM32F3xx_HAL_Driver/Src/stm32f3xx_hal_dma.c ****   uint32_t temp;
 475:Drivers/STM32F3xx_HAL_Driver/Src/stm32f3xx_hal_dma.c ****   uint32_t tickstart = 0U;
 719              		.loc 1 475 0
 720 000c 0023     		movs	r3, #0
 721 000e 3B61     		str	r3, [r7, #16]
 476:Drivers/STM32F3xx_HAL_Driver/Src/stm32f3xx_hal_dma.c ****   
 477:Drivers/STM32F3xx_HAL_Driver/Src/stm32f3xx_hal_dma.c ****   if(HAL_DMA_STATE_BUSY != hdma->State)
 722              		.loc 1 477 0
 723 0010 FB68     		ldr	r3, [r7, #12]
 724 0012 93F82130 		ldrb	r3, [r3, #33]	@ zero_extendqisi2
 725 0016 022B     		cmp	r3, #2
 726 0018 08D0     		beq	.L26
 478:Drivers/STM32F3xx_HAL_Driver/Src/stm32f3xx_hal_dma.c ****   {
 479:Drivers/STM32F3xx_HAL_Driver/Src/stm32f3xx_hal_dma.c ****     /* no transfer ongoing */
 480:Drivers/STM32F3xx_HAL_Driver/Src/stm32f3xx_hal_dma.c ****     hdma->ErrorCode = HAL_DMA_ERROR_NO_XFER;
 727              		.loc 1 480 0
 728 001a FB68     		ldr	r3, [r7, #12]
ARM GAS  /tmp/ccZ0zGVl.s 			page 22


 729 001c 0422     		movs	r2, #4
 730 001e 9A63     		str	r2, [r3, #56]
 481:Drivers/STM32F3xx_HAL_Driver/Src/stm32f3xx_hal_dma.c ****     __HAL_UNLOCK(hdma);
 731              		.loc 1 481 0
 732 0020 FB68     		ldr	r3, [r7, #12]
 733 0022 0022     		movs	r2, #0
 734 0024 83F82020 		strb	r2, [r3, #32]
 482:Drivers/STM32F3xx_HAL_Driver/Src/stm32f3xx_hal_dma.c ****     return HAL_ERROR;
 735              		.loc 1 482 0
 736 0028 0123     		movs	r3, #1
 737 002a 80E0     		b	.L27
 738              	.L26:
 483:Drivers/STM32F3xx_HAL_Driver/Src/stm32f3xx_hal_dma.c ****   }
 484:Drivers/STM32F3xx_HAL_Driver/Src/stm32f3xx_hal_dma.c ****   
 485:Drivers/STM32F3xx_HAL_Driver/Src/stm32f3xx_hal_dma.c ****   /* Polling mode not supported in circular mode */
 486:Drivers/STM32F3xx_HAL_Driver/Src/stm32f3xx_hal_dma.c ****   if (RESET != (hdma->Instance->CCR & DMA_CCR_CIRC))
 739              		.loc 1 486 0
 740 002c FB68     		ldr	r3, [r7, #12]
 741 002e 1B68     		ldr	r3, [r3]
 742 0030 1B68     		ldr	r3, [r3]
 743 0032 03F02003 		and	r3, r3, #32
 744 0036 002B     		cmp	r3, #0
 745 0038 05D0     		beq	.L28
 487:Drivers/STM32F3xx_HAL_Driver/Src/stm32f3xx_hal_dma.c ****   {
 488:Drivers/STM32F3xx_HAL_Driver/Src/stm32f3xx_hal_dma.c ****     hdma->ErrorCode = HAL_DMA_ERROR_NOT_SUPPORTED;
 746              		.loc 1 488 0
 747 003a FB68     		ldr	r3, [r7, #12]
 748 003c 4FF48072 		mov	r2, #256
 749 0040 9A63     		str	r2, [r3, #56]
 489:Drivers/STM32F3xx_HAL_Driver/Src/stm32f3xx_hal_dma.c ****     return HAL_ERROR;
 750              		.loc 1 489 0
 751 0042 0123     		movs	r3, #1
 752 0044 73E0     		b	.L27
 753              	.L28:
 490:Drivers/STM32F3xx_HAL_Driver/Src/stm32f3xx_hal_dma.c ****   }
 491:Drivers/STM32F3xx_HAL_Driver/Src/stm32f3xx_hal_dma.c ****   
 492:Drivers/STM32F3xx_HAL_Driver/Src/stm32f3xx_hal_dma.c ****   /* Get the level transfer complete flag */
 493:Drivers/STM32F3xx_HAL_Driver/Src/stm32f3xx_hal_dma.c ****   if(HAL_DMA_FULL_TRANSFER == CompleteLevel)
 754              		.loc 1 493 0
 755 0046 BB68     		ldr	r3, [r7, #8]
 756 0048 002B     		cmp	r3, #0
 757 004a 06D1     		bne	.L29
 494:Drivers/STM32F3xx_HAL_Driver/Src/stm32f3xx_hal_dma.c ****   {
 495:Drivers/STM32F3xx_HAL_Driver/Src/stm32f3xx_hal_dma.c ****     /* Transfer Complete flag */
 496:Drivers/STM32F3xx_HAL_Driver/Src/stm32f3xx_hal_dma.c ****     temp = DMA_FLAG_TC1 << hdma->ChannelIndex;
 758              		.loc 1 496 0
 759 004c FB68     		ldr	r3, [r7, #12]
 760 004e 1B6C     		ldr	r3, [r3, #64]
 761 0050 0222     		movs	r2, #2
 762 0052 02FA03F3 		lsl	r3, r2, r3
 763 0056 7B61     		str	r3, [r7, #20]
 764 0058 05E0     		b	.L30
 765              	.L29:
 497:Drivers/STM32F3xx_HAL_Driver/Src/stm32f3xx_hal_dma.c ****   }
 498:Drivers/STM32F3xx_HAL_Driver/Src/stm32f3xx_hal_dma.c ****   else
 499:Drivers/STM32F3xx_HAL_Driver/Src/stm32f3xx_hal_dma.c ****   {
 500:Drivers/STM32F3xx_HAL_Driver/Src/stm32f3xx_hal_dma.c ****     /* Half Transfer Complete flag */
ARM GAS  /tmp/ccZ0zGVl.s 			page 23


 501:Drivers/STM32F3xx_HAL_Driver/Src/stm32f3xx_hal_dma.c ****     temp = DMA_FLAG_HT1 << hdma->ChannelIndex;
 766              		.loc 1 501 0
 767 005a FB68     		ldr	r3, [r7, #12]
 768 005c 1B6C     		ldr	r3, [r3, #64]
 769 005e 0422     		movs	r2, #4
 770 0060 02FA03F3 		lsl	r3, r2, r3
 771 0064 7B61     		str	r3, [r7, #20]
 772              	.L30:
 502:Drivers/STM32F3xx_HAL_Driver/Src/stm32f3xx_hal_dma.c ****   }
 503:Drivers/STM32F3xx_HAL_Driver/Src/stm32f3xx_hal_dma.c **** 
 504:Drivers/STM32F3xx_HAL_Driver/Src/stm32f3xx_hal_dma.c ****   /* Get tick */
 505:Drivers/STM32F3xx_HAL_Driver/Src/stm32f3xx_hal_dma.c ****   tickstart = HAL_GetTick();
 773              		.loc 1 505 0
 774 0066 FFF7FEFF 		bl	HAL_GetTick
 775 006a 3861     		str	r0, [r7, #16]
 506:Drivers/STM32F3xx_HAL_Driver/Src/stm32f3xx_hal_dma.c **** 
 507:Drivers/STM32F3xx_HAL_Driver/Src/stm32f3xx_hal_dma.c ****   while(RESET == (hdma->DmaBaseAddress->ISR & temp))
 776              		.loc 1 507 0
 777 006c 3BE0     		b	.L31
 778              	.L34:
 508:Drivers/STM32F3xx_HAL_Driver/Src/stm32f3xx_hal_dma.c ****   {
 509:Drivers/STM32F3xx_HAL_Driver/Src/stm32f3xx_hal_dma.c ****     if(RESET != (hdma->DmaBaseAddress->ISR & (DMA_FLAG_TE1 << hdma->ChannelIndex)))
 779              		.loc 1 509 0
 780 006e FB68     		ldr	r3, [r7, #12]
 781 0070 DB6B     		ldr	r3, [r3, #60]
 782 0072 1A68     		ldr	r2, [r3]
 783 0074 FB68     		ldr	r3, [r7, #12]
 784 0076 1B6C     		ldr	r3, [r3, #64]
 785 0078 0821     		movs	r1, #8
 786 007a 01FA03F3 		lsl	r3, r1, r3
 787 007e 1340     		ands	r3, r3, r2
 788 0080 002B     		cmp	r3, #0
 789 0082 14D0     		beq	.L32
 510:Drivers/STM32F3xx_HAL_Driver/Src/stm32f3xx_hal_dma.c ****     {      
 511:Drivers/STM32F3xx_HAL_Driver/Src/stm32f3xx_hal_dma.c ****       /* When a DMA transfer error occurs */
 512:Drivers/STM32F3xx_HAL_Driver/Src/stm32f3xx_hal_dma.c ****       /* A hardware clear of its EN bits is performed */
 513:Drivers/STM32F3xx_HAL_Driver/Src/stm32f3xx_hal_dma.c ****       /* Clear all flags */
 514:Drivers/STM32F3xx_HAL_Driver/Src/stm32f3xx_hal_dma.c ****       hdma->DmaBaseAddress->IFCR = DMA_FLAG_GL1 << hdma->ChannelIndex;
 790              		.loc 1 514 0
 791 0084 FB68     		ldr	r3, [r7, #12]
 792 0086 1A6C     		ldr	r2, [r3, #64]
 793 0088 FB68     		ldr	r3, [r7, #12]
 794 008a DB6B     		ldr	r3, [r3, #60]
 795 008c 0121     		movs	r1, #1
 796 008e 01FA02F2 		lsl	r2, r1, r2
 797 0092 5A60     		str	r2, [r3, #4]
 515:Drivers/STM32F3xx_HAL_Driver/Src/stm32f3xx_hal_dma.c ****       
 516:Drivers/STM32F3xx_HAL_Driver/Src/stm32f3xx_hal_dma.c ****       /* Update error code */
 517:Drivers/STM32F3xx_HAL_Driver/Src/stm32f3xx_hal_dma.c ****       hdma->ErrorCode = HAL_DMA_ERROR_TE;
 798              		.loc 1 517 0
 799 0094 FB68     		ldr	r3, [r7, #12]
 800 0096 0122     		movs	r2, #1
 801 0098 9A63     		str	r2, [r3, #56]
 518:Drivers/STM32F3xx_HAL_Driver/Src/stm32f3xx_hal_dma.c **** 
 519:Drivers/STM32F3xx_HAL_Driver/Src/stm32f3xx_hal_dma.c ****       /* Change the DMA state */
 520:Drivers/STM32F3xx_HAL_Driver/Src/stm32f3xx_hal_dma.c ****       hdma->State= HAL_DMA_STATE_READY;       
 802              		.loc 1 520 0
ARM GAS  /tmp/ccZ0zGVl.s 			page 24


 803 009a FB68     		ldr	r3, [r7, #12]
 804 009c 0122     		movs	r2, #1
 805 009e 83F82120 		strb	r2, [r3, #33]
 521:Drivers/STM32F3xx_HAL_Driver/Src/stm32f3xx_hal_dma.c ****       
 522:Drivers/STM32F3xx_HAL_Driver/Src/stm32f3xx_hal_dma.c ****       /* Process Unlocked */
 523:Drivers/STM32F3xx_HAL_Driver/Src/stm32f3xx_hal_dma.c ****       __HAL_UNLOCK(hdma);
 806              		.loc 1 523 0
 807 00a2 FB68     		ldr	r3, [r7, #12]
 808 00a4 0022     		movs	r2, #0
 809 00a6 83F82020 		strb	r2, [r3, #32]
 524:Drivers/STM32F3xx_HAL_Driver/Src/stm32f3xx_hal_dma.c ****       
 525:Drivers/STM32F3xx_HAL_Driver/Src/stm32f3xx_hal_dma.c ****       return HAL_ERROR;      
 810              		.loc 1 525 0
 811 00aa 0123     		movs	r3, #1
 812 00ac 3FE0     		b	.L27
 813              	.L32:
 526:Drivers/STM32F3xx_HAL_Driver/Src/stm32f3xx_hal_dma.c ****     }      
 527:Drivers/STM32F3xx_HAL_Driver/Src/stm32f3xx_hal_dma.c ****     /* Check for the Timeout */
 528:Drivers/STM32F3xx_HAL_Driver/Src/stm32f3xx_hal_dma.c ****     if(Timeout != HAL_MAX_DELAY)
 814              		.loc 1 528 0
 815 00ae 7B68     		ldr	r3, [r7, #4]
 816 00b0 B3F1FF3F 		cmp	r3, #-1
 817 00b4 17D0     		beq	.L31
 529:Drivers/STM32F3xx_HAL_Driver/Src/stm32f3xx_hal_dma.c ****     {
 530:Drivers/STM32F3xx_HAL_Driver/Src/stm32f3xx_hal_dma.c ****       if((Timeout == 0U) || ((HAL_GetTick() - tickstart) > Timeout))
 818              		.loc 1 530 0
 819 00b6 7B68     		ldr	r3, [r7, #4]
 820 00b8 002B     		cmp	r3, #0
 821 00ba 07D0     		beq	.L33
 822              		.loc 1 530 0 is_stmt 0 discriminator 1
 823 00bc FFF7FEFF 		bl	HAL_GetTick
 824 00c0 0246     		mov	r2, r0
 825 00c2 3B69     		ldr	r3, [r7, #16]
 826 00c4 D31A     		subs	r3, r2, r3
 827 00c6 7A68     		ldr	r2, [r7, #4]
 828 00c8 9A42     		cmp	r2, r3
 829 00ca 0CD2     		bcs	.L31
 830              	.L33:
 531:Drivers/STM32F3xx_HAL_Driver/Src/stm32f3xx_hal_dma.c ****       {
 532:Drivers/STM32F3xx_HAL_Driver/Src/stm32f3xx_hal_dma.c ****         /* Update error code */
 533:Drivers/STM32F3xx_HAL_Driver/Src/stm32f3xx_hal_dma.c ****         hdma->ErrorCode = HAL_DMA_ERROR_TIMEOUT;
 831              		.loc 1 533 0 is_stmt 1
 832 00cc FB68     		ldr	r3, [r7, #12]
 833 00ce 2022     		movs	r2, #32
 834 00d0 9A63     		str	r2, [r3, #56]
 534:Drivers/STM32F3xx_HAL_Driver/Src/stm32f3xx_hal_dma.c ****         
 535:Drivers/STM32F3xx_HAL_Driver/Src/stm32f3xx_hal_dma.c ****         /* Change the DMA state */
 536:Drivers/STM32F3xx_HAL_Driver/Src/stm32f3xx_hal_dma.c ****         hdma->State = HAL_DMA_STATE_READY;
 835              		.loc 1 536 0
 836 00d2 FB68     		ldr	r3, [r7, #12]
 837 00d4 0122     		movs	r2, #1
 838 00d6 83F82120 		strb	r2, [r3, #33]
 537:Drivers/STM32F3xx_HAL_Driver/Src/stm32f3xx_hal_dma.c **** 
 538:Drivers/STM32F3xx_HAL_Driver/Src/stm32f3xx_hal_dma.c ****         /* Process Unlocked */
 539:Drivers/STM32F3xx_HAL_Driver/Src/stm32f3xx_hal_dma.c ****         __HAL_UNLOCK(hdma);
 839              		.loc 1 539 0
 840 00da FB68     		ldr	r3, [r7, #12]
ARM GAS  /tmp/ccZ0zGVl.s 			page 25


 841 00dc 0022     		movs	r2, #0
 842 00de 83F82020 		strb	r2, [r3, #32]
 540:Drivers/STM32F3xx_HAL_Driver/Src/stm32f3xx_hal_dma.c **** 
 541:Drivers/STM32F3xx_HAL_Driver/Src/stm32f3xx_hal_dma.c ****         return HAL_ERROR;
 843              		.loc 1 541 0
 844 00e2 0123     		movs	r3, #1
 845 00e4 23E0     		b	.L27
 846              	.L31:
 507:Drivers/STM32F3xx_HAL_Driver/Src/stm32f3xx_hal_dma.c ****   {
 847              		.loc 1 507 0
 848 00e6 FB68     		ldr	r3, [r7, #12]
 849 00e8 DB6B     		ldr	r3, [r3, #60]
 850 00ea 1A68     		ldr	r2, [r3]
 851 00ec 7B69     		ldr	r3, [r7, #20]
 852 00ee 1340     		ands	r3, r3, r2
 853 00f0 002B     		cmp	r3, #0
 854 00f2 BCD0     		beq	.L34
 542:Drivers/STM32F3xx_HAL_Driver/Src/stm32f3xx_hal_dma.c ****       }
 543:Drivers/STM32F3xx_HAL_Driver/Src/stm32f3xx_hal_dma.c ****     }
 544:Drivers/STM32F3xx_HAL_Driver/Src/stm32f3xx_hal_dma.c ****   }
 545:Drivers/STM32F3xx_HAL_Driver/Src/stm32f3xx_hal_dma.c **** 
 546:Drivers/STM32F3xx_HAL_Driver/Src/stm32f3xx_hal_dma.c ****   if(HAL_DMA_FULL_TRANSFER == CompleteLevel)
 855              		.loc 1 546 0
 856 00f4 BB68     		ldr	r3, [r7, #8]
 857 00f6 002B     		cmp	r3, #0
 858 00f8 0CD1     		bne	.L35
 547:Drivers/STM32F3xx_HAL_Driver/Src/stm32f3xx_hal_dma.c ****   {
 548:Drivers/STM32F3xx_HAL_Driver/Src/stm32f3xx_hal_dma.c ****     /* Clear the transfer complete flag */
 549:Drivers/STM32F3xx_HAL_Driver/Src/stm32f3xx_hal_dma.c ****     hdma->DmaBaseAddress->IFCR = DMA_FLAG_TC1 << hdma->ChannelIndex;
 859              		.loc 1 549 0
 860 00fa FB68     		ldr	r3, [r7, #12]
 861 00fc 1A6C     		ldr	r2, [r3, #64]
 862 00fe FB68     		ldr	r3, [r7, #12]
 863 0100 DB6B     		ldr	r3, [r3, #60]
 864 0102 0221     		movs	r1, #2
 865 0104 01FA02F2 		lsl	r2, r1, r2
 866 0108 5A60     		str	r2, [r3, #4]
 550:Drivers/STM32F3xx_HAL_Driver/Src/stm32f3xx_hal_dma.c **** 
 551:Drivers/STM32F3xx_HAL_Driver/Src/stm32f3xx_hal_dma.c ****     /* The selected Channelx EN bit is cleared (DMA is disabled and 
 552:Drivers/STM32F3xx_HAL_Driver/Src/stm32f3xx_hal_dma.c ****     all transfers are complete) */
 553:Drivers/STM32F3xx_HAL_Driver/Src/stm32f3xx_hal_dma.c ****     hdma->State = HAL_DMA_STATE_READY;
 867              		.loc 1 553 0
 868 010a FB68     		ldr	r3, [r7, #12]
 869 010c 0122     		movs	r2, #1
 870 010e 83F82120 		strb	r2, [r3, #33]
 871 0112 07E0     		b	.L36
 872              	.L35:
 554:Drivers/STM32F3xx_HAL_Driver/Src/stm32f3xx_hal_dma.c ****   }
 555:Drivers/STM32F3xx_HAL_Driver/Src/stm32f3xx_hal_dma.c ****   else
 556:Drivers/STM32F3xx_HAL_Driver/Src/stm32f3xx_hal_dma.c ****   { 
 557:Drivers/STM32F3xx_HAL_Driver/Src/stm32f3xx_hal_dma.c ****     /* Clear the half transfer complete flag */
 558:Drivers/STM32F3xx_HAL_Driver/Src/stm32f3xx_hal_dma.c ****     hdma->DmaBaseAddress->IFCR = DMA_FLAG_HT1 << hdma->ChannelIndex;
 873              		.loc 1 558 0
 874 0114 FB68     		ldr	r3, [r7, #12]
 875 0116 1A6C     		ldr	r2, [r3, #64]
 876 0118 FB68     		ldr	r3, [r7, #12]
 877 011a DB6B     		ldr	r3, [r3, #60]
ARM GAS  /tmp/ccZ0zGVl.s 			page 26


 878 011c 0421     		movs	r1, #4
 879 011e 01FA02F2 		lsl	r2, r1, r2
 880 0122 5A60     		str	r2, [r3, #4]
 881              	.L36:
 559:Drivers/STM32F3xx_HAL_Driver/Src/stm32f3xx_hal_dma.c ****   }
 560:Drivers/STM32F3xx_HAL_Driver/Src/stm32f3xx_hal_dma.c ****   
 561:Drivers/STM32F3xx_HAL_Driver/Src/stm32f3xx_hal_dma.c ****   /* Process unlocked */
 562:Drivers/STM32F3xx_HAL_Driver/Src/stm32f3xx_hal_dma.c ****   __HAL_UNLOCK(hdma);  
 882              		.loc 1 562 0
 883 0124 FB68     		ldr	r3, [r7, #12]
 884 0126 0022     		movs	r2, #0
 885 0128 83F82020 		strb	r2, [r3, #32]
 563:Drivers/STM32F3xx_HAL_Driver/Src/stm32f3xx_hal_dma.c **** 
 564:Drivers/STM32F3xx_HAL_Driver/Src/stm32f3xx_hal_dma.c ****   return HAL_OK;
 886              		.loc 1 564 0
 887 012c 0023     		movs	r3, #0
 888              	.L27:
 565:Drivers/STM32F3xx_HAL_Driver/Src/stm32f3xx_hal_dma.c **** }
 889              		.loc 1 565 0
 890 012e 1846     		mov	r0, r3
 891 0130 1837     		adds	r7, r7, #24
 892              	.LCFI34:
 893              		.cfi_def_cfa_offset 8
 894 0132 BD46     		mov	sp, r7
 895              	.LCFI35:
 896              		.cfi_def_cfa_register 13
 897              		@ sp needed
 898 0134 80BD     		pop	{r7, pc}
 899              		.cfi_endproc
 900              	.LFE701:
 902              		.section	.text.HAL_DMA_IRQHandler,"ax",%progbits
 903              		.align	1
 904              		.global	HAL_DMA_IRQHandler
 905              		.syntax unified
 906              		.thumb
 907              		.thumb_func
 908              		.fpu fpv4-sp-d16
 910              	HAL_DMA_IRQHandler:
 911              	.LFB702:
 566:Drivers/STM32F3xx_HAL_Driver/Src/stm32f3xx_hal_dma.c **** 
 567:Drivers/STM32F3xx_HAL_Driver/Src/stm32f3xx_hal_dma.c **** /**
 568:Drivers/STM32F3xx_HAL_Driver/Src/stm32f3xx_hal_dma.c ****   * @brief  Handle DMA interrupt request.
 569:Drivers/STM32F3xx_HAL_Driver/Src/stm32f3xx_hal_dma.c ****   * @param  hdma pointer to a DMA_HandleTypeDef structure that contains
 570:Drivers/STM32F3xx_HAL_Driver/Src/stm32f3xx_hal_dma.c ****   *               the configuration information for the specified DMA Channel.  
 571:Drivers/STM32F3xx_HAL_Driver/Src/stm32f3xx_hal_dma.c ****   * @retval None
 572:Drivers/STM32F3xx_HAL_Driver/Src/stm32f3xx_hal_dma.c ****   */
 573:Drivers/STM32F3xx_HAL_Driver/Src/stm32f3xx_hal_dma.c **** void HAL_DMA_IRQHandler(DMA_HandleTypeDef *hdma)
 574:Drivers/STM32F3xx_HAL_Driver/Src/stm32f3xx_hal_dma.c **** {
 912              		.loc 1 574 0
 913              		.cfi_startproc
 914              		@ args = 0, pretend = 0, frame = 16
 915              		@ frame_needed = 1, uses_anonymous_args = 0
 916 0000 80B5     		push	{r7, lr}
 917              	.LCFI36:
 918              		.cfi_def_cfa_offset 8
 919              		.cfi_offset 7, -8
 920              		.cfi_offset 14, -4
ARM GAS  /tmp/ccZ0zGVl.s 			page 27


 921 0002 84B0     		sub	sp, sp, #16
 922              	.LCFI37:
 923              		.cfi_def_cfa_offset 24
 924 0004 00AF     		add	r7, sp, #0
 925              	.LCFI38:
 926              		.cfi_def_cfa_register 7
 927 0006 7860     		str	r0, [r7, #4]
 575:Drivers/STM32F3xx_HAL_Driver/Src/stm32f3xx_hal_dma.c **** 	uint32_t flag_it = hdma->DmaBaseAddress->ISR;
 928              		.loc 1 575 0
 929 0008 7B68     		ldr	r3, [r7, #4]
 930 000a DB6B     		ldr	r3, [r3, #60]
 931 000c 1B68     		ldr	r3, [r3]
 932 000e FB60     		str	r3, [r7, #12]
 576:Drivers/STM32F3xx_HAL_Driver/Src/stm32f3xx_hal_dma.c ****   uint32_t source_it = hdma->Instance->CCR;
 933              		.loc 1 576 0
 934 0010 7B68     		ldr	r3, [r7, #4]
 935 0012 1B68     		ldr	r3, [r3]
 936 0014 1B68     		ldr	r3, [r3]
 937 0016 BB60     		str	r3, [r7, #8]
 577:Drivers/STM32F3xx_HAL_Driver/Src/stm32f3xx_hal_dma.c ****           
 578:Drivers/STM32F3xx_HAL_Driver/Src/stm32f3xx_hal_dma.c ****   /* Half Transfer Complete Interrupt management ******************************/
 579:Drivers/STM32F3xx_HAL_Driver/Src/stm32f3xx_hal_dma.c ****   if ((RESET != (flag_it & (DMA_FLAG_HT1 << hdma->ChannelIndex))) && (RESET != (source_it & DMA_IT_
 938              		.loc 1 579 0
 939 0018 7B68     		ldr	r3, [r7, #4]
 940 001a 1B6C     		ldr	r3, [r3, #64]
 941 001c 0422     		movs	r2, #4
 942 001e 9A40     		lsls	r2, r2, r3
 943 0020 FB68     		ldr	r3, [r7, #12]
 944 0022 1340     		ands	r3, r3, r2
 945 0024 002B     		cmp	r3, #0
 946 0026 24D0     		beq	.L38
 947              		.loc 1 579 0 is_stmt 0 discriminator 1
 948 0028 BB68     		ldr	r3, [r7, #8]
 949 002a 03F00403 		and	r3, r3, #4
 950 002e 002B     		cmp	r3, #0
 951 0030 1FD0     		beq	.L38
 580:Drivers/STM32F3xx_HAL_Driver/Src/stm32f3xx_hal_dma.c ****   {
 581:Drivers/STM32F3xx_HAL_Driver/Src/stm32f3xx_hal_dma.c ****   	/* Disable the half transfer interrupt if the DMA mode is not CIRCULAR */
 582:Drivers/STM32F3xx_HAL_Driver/Src/stm32f3xx_hal_dma.c ****   	if((hdma->Instance->CCR & DMA_CCR_CIRC) == 0U)
 952              		.loc 1 582 0 is_stmt 1
 953 0032 7B68     		ldr	r3, [r7, #4]
 954 0034 1B68     		ldr	r3, [r3]
 955 0036 1B68     		ldr	r3, [r3]
 956 0038 03F02003 		and	r3, r3, #32
 957 003c 002B     		cmp	r3, #0
 958 003e 07D1     		bne	.L39
 583:Drivers/STM32F3xx_HAL_Driver/Src/stm32f3xx_hal_dma.c ****   	{
 584:Drivers/STM32F3xx_HAL_Driver/Src/stm32f3xx_hal_dma.c ****   		/* Disable the half transfer interrupt */
 585:Drivers/STM32F3xx_HAL_Driver/Src/stm32f3xx_hal_dma.c ****   		hdma->Instance->CCR &= ~DMA_IT_HT;
 959              		.loc 1 585 0
 960 0040 7B68     		ldr	r3, [r7, #4]
 961 0042 1B68     		ldr	r3, [r3]
 962 0044 1A68     		ldr	r2, [r3]
 963 0046 7B68     		ldr	r3, [r7, #4]
 964 0048 1B68     		ldr	r3, [r3]
 965 004a 22F00402 		bic	r2, r2, #4
 966 004e 1A60     		str	r2, [r3]
ARM GAS  /tmp/ccZ0zGVl.s 			page 28


 967              	.L39:
 586:Drivers/STM32F3xx_HAL_Driver/Src/stm32f3xx_hal_dma.c ****   	}
 587:Drivers/STM32F3xx_HAL_Driver/Src/stm32f3xx_hal_dma.c ****   	
 588:Drivers/STM32F3xx_HAL_Driver/Src/stm32f3xx_hal_dma.c ****   	/* Clear the half transfer complete flag */
 589:Drivers/STM32F3xx_HAL_Driver/Src/stm32f3xx_hal_dma.c ****   	hdma->DmaBaseAddress->IFCR = DMA_FLAG_HT1 << hdma->ChannelIndex;
 968              		.loc 1 589 0
 969 0050 7B68     		ldr	r3, [r7, #4]
 970 0052 1A6C     		ldr	r2, [r3, #64]
 971 0054 7B68     		ldr	r3, [r7, #4]
 972 0056 DB6B     		ldr	r3, [r3, #60]
 973 0058 0421     		movs	r1, #4
 974 005a 01FA02F2 		lsl	r2, r1, r2
 975 005e 5A60     		str	r2, [r3, #4]
 590:Drivers/STM32F3xx_HAL_Driver/Src/stm32f3xx_hal_dma.c ****   	
 591:Drivers/STM32F3xx_HAL_Driver/Src/stm32f3xx_hal_dma.c ****   	/* DMA peripheral state is not updated in Half Transfer */
 592:Drivers/STM32F3xx_HAL_Driver/Src/stm32f3xx_hal_dma.c ****   	/* State is updated only in Transfer Complete case */
 593:Drivers/STM32F3xx_HAL_Driver/Src/stm32f3xx_hal_dma.c ****   	
 594:Drivers/STM32F3xx_HAL_Driver/Src/stm32f3xx_hal_dma.c ****   	if(hdma->XferHalfCpltCallback != NULL)
 976              		.loc 1 594 0
 977 0060 7B68     		ldr	r3, [r7, #4]
 978 0062 DB6A     		ldr	r3, [r3, #44]
 979 0064 002B     		cmp	r3, #0
 980 0066 6AD0     		beq	.L41
 595:Drivers/STM32F3xx_HAL_Driver/Src/stm32f3xx_hal_dma.c ****   	{
 596:Drivers/STM32F3xx_HAL_Driver/Src/stm32f3xx_hal_dma.c ****   		/* Half transfer callback */
 597:Drivers/STM32F3xx_HAL_Driver/Src/stm32f3xx_hal_dma.c ****   		hdma->XferHalfCpltCallback(hdma);
 981              		.loc 1 597 0
 982 0068 7B68     		ldr	r3, [r7, #4]
 983 006a DB6A     		ldr	r3, [r3, #44]
 984 006c 7868     		ldr	r0, [r7, #4]
 985 006e 9847     		blx	r3
 986              	.LVL1:
 594:Drivers/STM32F3xx_HAL_Driver/Src/stm32f3xx_hal_dma.c ****   	{
 987              		.loc 1 594 0
 988 0070 65E0     		b	.L41
 989              	.L38:
 598:Drivers/STM32F3xx_HAL_Driver/Src/stm32f3xx_hal_dma.c ****   	}
 599:Drivers/STM32F3xx_HAL_Driver/Src/stm32f3xx_hal_dma.c ****   }
 600:Drivers/STM32F3xx_HAL_Driver/Src/stm32f3xx_hal_dma.c ****   
 601:Drivers/STM32F3xx_HAL_Driver/Src/stm32f3xx_hal_dma.c ****   /* Transfer Complete Interrupt management ***********************************/
 602:Drivers/STM32F3xx_HAL_Driver/Src/stm32f3xx_hal_dma.c ****   else if ((RESET != (flag_it & (DMA_FLAG_TC1 << hdma->ChannelIndex))) && (RESET != (source_it & DM
 990              		.loc 1 602 0
 991 0072 7B68     		ldr	r3, [r7, #4]
 992 0074 1B6C     		ldr	r3, [r3, #64]
 993 0076 0222     		movs	r2, #2
 994 0078 9A40     		lsls	r2, r2, r3
 995 007a FB68     		ldr	r3, [r7, #12]
 996 007c 1340     		ands	r3, r3, r2
 997 007e 002B     		cmp	r3, #0
 998 0080 2CD0     		beq	.L42
 999              		.loc 1 602 0 is_stmt 0 discriminator 1
 1000 0082 BB68     		ldr	r3, [r7, #8]
 1001 0084 03F00203 		and	r3, r3, #2
 1002 0088 002B     		cmp	r3, #0
 1003 008a 27D0     		beq	.L42
 603:Drivers/STM32F3xx_HAL_Driver/Src/stm32f3xx_hal_dma.c ****   {
 604:Drivers/STM32F3xx_HAL_Driver/Src/stm32f3xx_hal_dma.c ****   	if((hdma->Instance->CCR & DMA_CCR_CIRC) == 0U)
ARM GAS  /tmp/ccZ0zGVl.s 			page 29


 1004              		.loc 1 604 0 is_stmt 1
 1005 008c 7B68     		ldr	r3, [r7, #4]
 1006 008e 1B68     		ldr	r3, [r3]
 1007 0090 1B68     		ldr	r3, [r3]
 1008 0092 03F02003 		and	r3, r3, #32
 1009 0096 002B     		cmp	r3, #0
 1010 0098 0BD1     		bne	.L43
 605:Drivers/STM32F3xx_HAL_Driver/Src/stm32f3xx_hal_dma.c ****   	{
 606:Drivers/STM32F3xx_HAL_Driver/Src/stm32f3xx_hal_dma.c ****   		/* Disable the transfer complete  & transfer error interrupts */
 607:Drivers/STM32F3xx_HAL_Driver/Src/stm32f3xx_hal_dma.c ****   		/* if the DMA mode is not CIRCULAR */
 608:Drivers/STM32F3xx_HAL_Driver/Src/stm32f3xx_hal_dma.c ****   		hdma->Instance->CCR &= ~(DMA_IT_TC | DMA_IT_TE);
 1011              		.loc 1 608 0
 1012 009a 7B68     		ldr	r3, [r7, #4]
 1013 009c 1B68     		ldr	r3, [r3]
 1014 009e 1A68     		ldr	r2, [r3]
 1015 00a0 7B68     		ldr	r3, [r7, #4]
 1016 00a2 1B68     		ldr	r3, [r3]
 1017 00a4 22F00A02 		bic	r2, r2, #10
 1018 00a8 1A60     		str	r2, [r3]
 609:Drivers/STM32F3xx_HAL_Driver/Src/stm32f3xx_hal_dma.c ****   		
 610:Drivers/STM32F3xx_HAL_Driver/Src/stm32f3xx_hal_dma.c ****   		/* Change the DMA state */
 611:Drivers/STM32F3xx_HAL_Driver/Src/stm32f3xx_hal_dma.c ****   		hdma->State = HAL_DMA_STATE_READY;
 1019              		.loc 1 611 0
 1020 00aa 7B68     		ldr	r3, [r7, #4]
 1021 00ac 0122     		movs	r2, #1
 1022 00ae 83F82120 		strb	r2, [r3, #33]
 1023              	.L43:
 612:Drivers/STM32F3xx_HAL_Driver/Src/stm32f3xx_hal_dma.c ****   	}
 613:Drivers/STM32F3xx_HAL_Driver/Src/stm32f3xx_hal_dma.c ****   	
 614:Drivers/STM32F3xx_HAL_Driver/Src/stm32f3xx_hal_dma.c ****   	/* Clear the transfer complete flag */
 615:Drivers/STM32F3xx_HAL_Driver/Src/stm32f3xx_hal_dma.c ****   	hdma->DmaBaseAddress->IFCR = DMA_FLAG_TC1 << hdma->ChannelIndex;
 1024              		.loc 1 615 0
 1025 00b2 7B68     		ldr	r3, [r7, #4]
 1026 00b4 1A6C     		ldr	r2, [r3, #64]
 1027 00b6 7B68     		ldr	r3, [r7, #4]
 1028 00b8 DB6B     		ldr	r3, [r3, #60]
 1029 00ba 0221     		movs	r1, #2
 1030 00bc 01FA02F2 		lsl	r2, r1, r2
 1031 00c0 5A60     		str	r2, [r3, #4]
 616:Drivers/STM32F3xx_HAL_Driver/Src/stm32f3xx_hal_dma.c ****   	
 617:Drivers/STM32F3xx_HAL_Driver/Src/stm32f3xx_hal_dma.c ****   	/* Process Unlocked */
 618:Drivers/STM32F3xx_HAL_Driver/Src/stm32f3xx_hal_dma.c ****   	__HAL_UNLOCK(hdma);
 1032              		.loc 1 618 0
 1033 00c2 7B68     		ldr	r3, [r7, #4]
 1034 00c4 0022     		movs	r2, #0
 1035 00c6 83F82020 		strb	r2, [r3, #32]
 619:Drivers/STM32F3xx_HAL_Driver/Src/stm32f3xx_hal_dma.c ****   	
 620:Drivers/STM32F3xx_HAL_Driver/Src/stm32f3xx_hal_dma.c ****   	if(hdma->XferCpltCallback != NULL)
 1036              		.loc 1 620 0
 1037 00ca 7B68     		ldr	r3, [r7, #4]
 1038 00cc 9B6A     		ldr	r3, [r3, #40]
 1039 00ce 002B     		cmp	r3, #0
 1040 00d0 35D0     		beq	.L41
 621:Drivers/STM32F3xx_HAL_Driver/Src/stm32f3xx_hal_dma.c ****   	{
 622:Drivers/STM32F3xx_HAL_Driver/Src/stm32f3xx_hal_dma.c ****   		/* Transfer complete callback */
 623:Drivers/STM32F3xx_HAL_Driver/Src/stm32f3xx_hal_dma.c ****   		hdma->XferCpltCallback(hdma);
 1041              		.loc 1 623 0
ARM GAS  /tmp/ccZ0zGVl.s 			page 30


 1042 00d2 7B68     		ldr	r3, [r7, #4]
 1043 00d4 9B6A     		ldr	r3, [r3, #40]
 1044 00d6 7868     		ldr	r0, [r7, #4]
 1045 00d8 9847     		blx	r3
 1046              	.LVL2:
 620:Drivers/STM32F3xx_HAL_Driver/Src/stm32f3xx_hal_dma.c ****   	{
 1047              		.loc 1 620 0
 1048 00da 30E0     		b	.L41
 1049              	.L42:
 624:Drivers/STM32F3xx_HAL_Driver/Src/stm32f3xx_hal_dma.c ****   	}
 625:Drivers/STM32F3xx_HAL_Driver/Src/stm32f3xx_hal_dma.c ****   }
 626:Drivers/STM32F3xx_HAL_Driver/Src/stm32f3xx_hal_dma.c ****   
 627:Drivers/STM32F3xx_HAL_Driver/Src/stm32f3xx_hal_dma.c ****   /* Transfer Error Interrupt management ***************************************/
 628:Drivers/STM32F3xx_HAL_Driver/Src/stm32f3xx_hal_dma.c ****   else if (( RESET != (flag_it & (DMA_FLAG_TE1 << hdma->ChannelIndex))) && (RESET != (source_it & D
 1050              		.loc 1 628 0
 1051 00dc 7B68     		ldr	r3, [r7, #4]
 1052 00de 1B6C     		ldr	r3, [r3, #64]
 1053 00e0 0822     		movs	r2, #8
 1054 00e2 9A40     		lsls	r2, r2, r3
 1055 00e4 FB68     		ldr	r3, [r7, #12]
 1056 00e6 1340     		ands	r3, r3, r2
 1057 00e8 002B     		cmp	r3, #0
 1058 00ea 28D0     		beq	.L45
 1059              		.loc 1 628 0 is_stmt 0 discriminator 1
 1060 00ec BB68     		ldr	r3, [r7, #8]
 1061 00ee 03F00803 		and	r3, r3, #8
 1062 00f2 002B     		cmp	r3, #0
 1063 00f4 23D0     		beq	.L45
 629:Drivers/STM32F3xx_HAL_Driver/Src/stm32f3xx_hal_dma.c ****   {
 630:Drivers/STM32F3xx_HAL_Driver/Src/stm32f3xx_hal_dma.c ****   	/* When a DMA transfer error occurs */
 631:Drivers/STM32F3xx_HAL_Driver/Src/stm32f3xx_hal_dma.c ****     /* A hardware clear of its EN bits is performed */
 632:Drivers/STM32F3xx_HAL_Driver/Src/stm32f3xx_hal_dma.c ****     /* Then, disable all DMA interrupts */
 633:Drivers/STM32F3xx_HAL_Driver/Src/stm32f3xx_hal_dma.c ****     hdma->Instance->CCR &= ~(DMA_IT_TC | DMA_IT_HT | DMA_IT_TE);
 1064              		.loc 1 633 0 is_stmt 1
 1065 00f6 7B68     		ldr	r3, [r7, #4]
 1066 00f8 1B68     		ldr	r3, [r3]
 1067 00fa 1A68     		ldr	r2, [r3]
 1068 00fc 7B68     		ldr	r3, [r7, #4]
 1069 00fe 1B68     		ldr	r3, [r3]
 1070 0100 22F00E02 		bic	r2, r2, #14
 1071 0104 1A60     		str	r2, [r3]
 634:Drivers/STM32F3xx_HAL_Driver/Src/stm32f3xx_hal_dma.c ****     
 635:Drivers/STM32F3xx_HAL_Driver/Src/stm32f3xx_hal_dma.c ****     /* Clear all flags */
 636:Drivers/STM32F3xx_HAL_Driver/Src/stm32f3xx_hal_dma.c ****     hdma->DmaBaseAddress->IFCR = DMA_FLAG_GL1 << hdma->ChannelIndex;
 1072              		.loc 1 636 0
 1073 0106 7B68     		ldr	r3, [r7, #4]
 1074 0108 1A6C     		ldr	r2, [r3, #64]
 1075 010a 7B68     		ldr	r3, [r7, #4]
 1076 010c DB6B     		ldr	r3, [r3, #60]
 1077 010e 0121     		movs	r1, #1
 1078 0110 01FA02F2 		lsl	r2, r1, r2
 1079 0114 5A60     		str	r2, [r3, #4]
 637:Drivers/STM32F3xx_HAL_Driver/Src/stm32f3xx_hal_dma.c ****     
 638:Drivers/STM32F3xx_HAL_Driver/Src/stm32f3xx_hal_dma.c ****     /* Update error code */
 639:Drivers/STM32F3xx_HAL_Driver/Src/stm32f3xx_hal_dma.c ****     hdma->ErrorCode = HAL_DMA_ERROR_TE;
 1080              		.loc 1 639 0
 1081 0116 7B68     		ldr	r3, [r7, #4]
ARM GAS  /tmp/ccZ0zGVl.s 			page 31


 1082 0118 0122     		movs	r2, #1
 1083 011a 9A63     		str	r2, [r3, #56]
 640:Drivers/STM32F3xx_HAL_Driver/Src/stm32f3xx_hal_dma.c ****     
 641:Drivers/STM32F3xx_HAL_Driver/Src/stm32f3xx_hal_dma.c ****     /* Change the DMA state */
 642:Drivers/STM32F3xx_HAL_Driver/Src/stm32f3xx_hal_dma.c ****     hdma->State = HAL_DMA_STATE_READY;    
 1084              		.loc 1 642 0
 1085 011c 7B68     		ldr	r3, [r7, #4]
 1086 011e 0122     		movs	r2, #1
 1087 0120 83F82120 		strb	r2, [r3, #33]
 643:Drivers/STM32F3xx_HAL_Driver/Src/stm32f3xx_hal_dma.c ****     
 644:Drivers/STM32F3xx_HAL_Driver/Src/stm32f3xx_hal_dma.c ****     /* Process Unlocked */
 645:Drivers/STM32F3xx_HAL_Driver/Src/stm32f3xx_hal_dma.c ****     __HAL_UNLOCK(hdma); 
 1088              		.loc 1 645 0
 1089 0124 7B68     		ldr	r3, [r7, #4]
 1090 0126 0022     		movs	r2, #0
 1091 0128 83F82020 		strb	r2, [r3, #32]
 646:Drivers/STM32F3xx_HAL_Driver/Src/stm32f3xx_hal_dma.c ****     
 647:Drivers/STM32F3xx_HAL_Driver/Src/stm32f3xx_hal_dma.c ****     if(hdma->XferErrorCallback != NULL)
 1092              		.loc 1 647 0
 1093 012c 7B68     		ldr	r3, [r7, #4]
 1094 012e 1B6B     		ldr	r3, [r3, #48]
 1095 0130 002B     		cmp	r3, #0
 1096 0132 04D0     		beq	.L45
 648:Drivers/STM32F3xx_HAL_Driver/Src/stm32f3xx_hal_dma.c ****     {
 649:Drivers/STM32F3xx_HAL_Driver/Src/stm32f3xx_hal_dma.c ****     	/* Transfer error callback */
 650:Drivers/STM32F3xx_HAL_Driver/Src/stm32f3xx_hal_dma.c ****     	hdma->XferErrorCallback(hdma);
 1097              		.loc 1 650 0
 1098 0134 7B68     		ldr	r3, [r7, #4]
 1099 0136 1B6B     		ldr	r3, [r3, #48]
 1100 0138 7868     		ldr	r0, [r7, #4]
 1101 013a 9847     		blx	r3
 1102              	.LVL3:
 651:Drivers/STM32F3xx_HAL_Driver/Src/stm32f3xx_hal_dma.c ****     }
 652:Drivers/STM32F3xx_HAL_Driver/Src/stm32f3xx_hal_dma.c ****   }
 653:Drivers/STM32F3xx_HAL_Driver/Src/stm32f3xx_hal_dma.c **** }  
 1103              		.loc 1 653 0
 1104 013c FFE7     		b	.L45
 1105              	.L41:
 1106              	.L45:
 1107 013e 00BF     		nop
 1108 0140 1037     		adds	r7, r7, #16
 1109              	.LCFI39:
 1110              		.cfi_def_cfa_offset 8
 1111 0142 BD46     		mov	sp, r7
 1112              	.LCFI40:
 1113              		.cfi_def_cfa_register 13
 1114              		@ sp needed
 1115 0144 80BD     		pop	{r7, pc}
 1116              		.cfi_endproc
 1117              	.LFE702:
 1119              		.section	.text.HAL_DMA_RegisterCallback,"ax",%progbits
 1120              		.align	1
 1121              		.global	HAL_DMA_RegisterCallback
 1122              		.syntax unified
 1123              		.thumb
 1124              		.thumb_func
 1125              		.fpu fpv4-sp-d16
ARM GAS  /tmp/ccZ0zGVl.s 			page 32


 1127              	HAL_DMA_RegisterCallback:
 1128              	.LFB703:
 654:Drivers/STM32F3xx_HAL_Driver/Src/stm32f3xx_hal_dma.c **** 
 655:Drivers/STM32F3xx_HAL_Driver/Src/stm32f3xx_hal_dma.c **** /**
 656:Drivers/STM32F3xx_HAL_Driver/Src/stm32f3xx_hal_dma.c ****   * @brief  Register callbacks
 657:Drivers/STM32F3xx_HAL_Driver/Src/stm32f3xx_hal_dma.c ****   * @param  hdma                 pointer to a DMA_HandleTypeDef structure that contains
 658:Drivers/STM32F3xx_HAL_Driver/Src/stm32f3xx_hal_dma.c ****   *                               the configuration information for the specified DMA Stream.
 659:Drivers/STM32F3xx_HAL_Driver/Src/stm32f3xx_hal_dma.c ****   * @param  CallbackID           User Callback identifer
 660:Drivers/STM32F3xx_HAL_Driver/Src/stm32f3xx_hal_dma.c ****   *                               a HAL_DMA_CallbackIDTypeDef ENUM as parameter.
 661:Drivers/STM32F3xx_HAL_Driver/Src/stm32f3xx_hal_dma.c ****   * @param  pCallback            pointer to private callback function which has pointer to 
 662:Drivers/STM32F3xx_HAL_Driver/Src/stm32f3xx_hal_dma.c ****   *                               a DMA_HandleTypeDef structure as parameter.
 663:Drivers/STM32F3xx_HAL_Driver/Src/stm32f3xx_hal_dma.c ****   * @retval HAL status
 664:Drivers/STM32F3xx_HAL_Driver/Src/stm32f3xx_hal_dma.c ****   */                          
 665:Drivers/STM32F3xx_HAL_Driver/Src/stm32f3xx_hal_dma.c **** HAL_StatusTypeDef HAL_DMA_RegisterCallback(DMA_HandleTypeDef *hdma, HAL_DMA_CallbackIDTypeDef Callb
 666:Drivers/STM32F3xx_HAL_Driver/Src/stm32f3xx_hal_dma.c **** {
 1129              		.loc 1 666 0
 1130              		.cfi_startproc
 1131              		@ args = 0, pretend = 0, frame = 24
 1132              		@ frame_needed = 1, uses_anonymous_args = 0
 1133              		@ link register save eliminated.
 1134 0000 80B4     		push	{r7}
 1135              	.LCFI41:
 1136              		.cfi_def_cfa_offset 4
 1137              		.cfi_offset 7, -4
 1138 0002 87B0     		sub	sp, sp, #28
 1139              	.LCFI42:
 1140              		.cfi_def_cfa_offset 32
 1141 0004 00AF     		add	r7, sp, #0
 1142              	.LCFI43:
 1143              		.cfi_def_cfa_register 7
 1144 0006 F860     		str	r0, [r7, #12]
 1145 0008 0B46     		mov	r3, r1
 1146 000a 7A60     		str	r2, [r7, #4]
 1147 000c FB72     		strb	r3, [r7, #11]
 667:Drivers/STM32F3xx_HAL_Driver/Src/stm32f3xx_hal_dma.c ****   HAL_StatusTypeDef status = HAL_OK;
 1148              		.loc 1 667 0
 1149 000e 0023     		movs	r3, #0
 1150 0010 FB75     		strb	r3, [r7, #23]
 668:Drivers/STM32F3xx_HAL_Driver/Src/stm32f3xx_hal_dma.c ****   
 669:Drivers/STM32F3xx_HAL_Driver/Src/stm32f3xx_hal_dma.c ****   /* Process locked */
 670:Drivers/STM32F3xx_HAL_Driver/Src/stm32f3xx_hal_dma.c ****   __HAL_LOCK(hdma);
 1151              		.loc 1 670 0
 1152 0012 FB68     		ldr	r3, [r7, #12]
 1153 0014 93F82030 		ldrb	r3, [r3, #32]	@ zero_extendqisi2
 1154 0018 012B     		cmp	r3, #1
 1155 001a 01D1     		bne	.L47
 1156              		.loc 1 670 0 is_stmt 0 discriminator 1
 1157 001c 0223     		movs	r3, #2
 1158 001e 32E0     		b	.L48
 1159              	.L47:
 1160              		.loc 1 670 0 discriminator 2
 1161 0020 FB68     		ldr	r3, [r7, #12]
 1162 0022 0122     		movs	r2, #1
 1163 0024 83F82020 		strb	r2, [r3, #32]
 671:Drivers/STM32F3xx_HAL_Driver/Src/stm32f3xx_hal_dma.c ****   
 672:Drivers/STM32F3xx_HAL_Driver/Src/stm32f3xx_hal_dma.c ****   if(HAL_DMA_STATE_READY == hdma->State)
 1164              		.loc 1 672 0 is_stmt 1 discriminator 2
ARM GAS  /tmp/ccZ0zGVl.s 			page 33


 1165 0028 FB68     		ldr	r3, [r7, #12]
 1166 002a 93F82130 		ldrb	r3, [r3, #33]	@ zero_extendqisi2
 1167 002e 012B     		cmp	r3, #1
 1168 0030 22D1     		bne	.L49
 673:Drivers/STM32F3xx_HAL_Driver/Src/stm32f3xx_hal_dma.c ****   {
 674:Drivers/STM32F3xx_HAL_Driver/Src/stm32f3xx_hal_dma.c ****     switch (CallbackID)
 1169              		.loc 1 674 0
 1170 0032 FB7A     		ldrb	r3, [r7, #11]	@ zero_extendqisi2
 1171 0034 032B     		cmp	r3, #3
 1172 0036 1BD8     		bhi	.L50
 1173 0038 01A2     		adr	r2, .L52
 1174 003a 52F823F0 		ldr	pc, [r2, r3, lsl #2]
 1175 003e 00BF     		.p2align 2
 1176              	.L52:
 1177 0040 51000000 		.word	.L51+1
 1178 0044 59000000 		.word	.L53+1
 1179 0048 61000000 		.word	.L54+1
 1180 004c 69000000 		.word	.L55+1
 1181              		.p2align 1
 1182              	.L51:
 675:Drivers/STM32F3xx_HAL_Driver/Src/stm32f3xx_hal_dma.c ****     {
 676:Drivers/STM32F3xx_HAL_Driver/Src/stm32f3xx_hal_dma.c ****      case  HAL_DMA_XFER_CPLT_CB_ID:
 677:Drivers/STM32F3xx_HAL_Driver/Src/stm32f3xx_hal_dma.c ****            hdma->XferCpltCallback = pCallback;
 1183              		.loc 1 677 0
 1184 0050 FB68     		ldr	r3, [r7, #12]
 1185 0052 7A68     		ldr	r2, [r7, #4]
 1186 0054 9A62     		str	r2, [r3, #40]
 678:Drivers/STM32F3xx_HAL_Driver/Src/stm32f3xx_hal_dma.c ****            break;
 1187              		.loc 1 678 0
 1188 0056 11E0     		b	.L57
 1189              	.L53:
 679:Drivers/STM32F3xx_HAL_Driver/Src/stm32f3xx_hal_dma.c ****        
 680:Drivers/STM32F3xx_HAL_Driver/Src/stm32f3xx_hal_dma.c ****      case  HAL_DMA_XFER_HALFCPLT_CB_ID:
 681:Drivers/STM32F3xx_HAL_Driver/Src/stm32f3xx_hal_dma.c ****            hdma->XferHalfCpltCallback = pCallback;
 1190              		.loc 1 681 0
 1191 0058 FB68     		ldr	r3, [r7, #12]
 1192 005a 7A68     		ldr	r2, [r7, #4]
 1193 005c DA62     		str	r2, [r3, #44]
 682:Drivers/STM32F3xx_HAL_Driver/Src/stm32f3xx_hal_dma.c ****            break;         
 1194              		.loc 1 682 0
 1195 005e 0DE0     		b	.L57
 1196              	.L54:
 683:Drivers/STM32F3xx_HAL_Driver/Src/stm32f3xx_hal_dma.c **** 
 684:Drivers/STM32F3xx_HAL_Driver/Src/stm32f3xx_hal_dma.c ****      case  HAL_DMA_XFER_ERROR_CB_ID:
 685:Drivers/STM32F3xx_HAL_Driver/Src/stm32f3xx_hal_dma.c ****            hdma->XferErrorCallback = pCallback;
 1197              		.loc 1 685 0
 1198 0060 FB68     		ldr	r3, [r7, #12]
 1199 0062 7A68     		ldr	r2, [r7, #4]
 1200 0064 1A63     		str	r2, [r3, #48]
 686:Drivers/STM32F3xx_HAL_Driver/Src/stm32f3xx_hal_dma.c ****            break;         
 1201              		.loc 1 686 0
 1202 0066 09E0     		b	.L57
 1203              	.L55:
 687:Drivers/STM32F3xx_HAL_Driver/Src/stm32f3xx_hal_dma.c ****            
 688:Drivers/STM32F3xx_HAL_Driver/Src/stm32f3xx_hal_dma.c ****      case  HAL_DMA_XFER_ABORT_CB_ID:
 689:Drivers/STM32F3xx_HAL_Driver/Src/stm32f3xx_hal_dma.c ****            hdma->XferAbortCallback = pCallback;
 1204              		.loc 1 689 0
ARM GAS  /tmp/ccZ0zGVl.s 			page 34


 1205 0068 FB68     		ldr	r3, [r7, #12]
 1206 006a 7A68     		ldr	r2, [r7, #4]
 1207 006c 5A63     		str	r2, [r3, #52]
 690:Drivers/STM32F3xx_HAL_Driver/Src/stm32f3xx_hal_dma.c ****            break; 
 1208              		.loc 1 690 0
 1209 006e 05E0     		b	.L57
 1210              	.L50:
 691:Drivers/STM32F3xx_HAL_Driver/Src/stm32f3xx_hal_dma.c ****            
 692:Drivers/STM32F3xx_HAL_Driver/Src/stm32f3xx_hal_dma.c ****      default:
 693:Drivers/STM32F3xx_HAL_Driver/Src/stm32f3xx_hal_dma.c ****            status = HAL_ERROR;
 1211              		.loc 1 693 0
 1212 0070 0123     		movs	r3, #1
 1213 0072 FB75     		strb	r3, [r7, #23]
 694:Drivers/STM32F3xx_HAL_Driver/Src/stm32f3xx_hal_dma.c ****            break;                                                            
 1214              		.loc 1 694 0
 1215 0074 00BF     		nop
 1216 0076 01E0     		b	.L57
 1217              	.L49:
 695:Drivers/STM32F3xx_HAL_Driver/Src/stm32f3xx_hal_dma.c ****     }
 696:Drivers/STM32F3xx_HAL_Driver/Src/stm32f3xx_hal_dma.c ****   }
 697:Drivers/STM32F3xx_HAL_Driver/Src/stm32f3xx_hal_dma.c ****   else
 698:Drivers/STM32F3xx_HAL_Driver/Src/stm32f3xx_hal_dma.c ****   {
 699:Drivers/STM32F3xx_HAL_Driver/Src/stm32f3xx_hal_dma.c ****     status = HAL_ERROR;
 1218              		.loc 1 699 0
 1219 0078 0123     		movs	r3, #1
 1220 007a FB75     		strb	r3, [r7, #23]
 1221              	.L57:
 700:Drivers/STM32F3xx_HAL_Driver/Src/stm32f3xx_hal_dma.c ****   } 
 701:Drivers/STM32F3xx_HAL_Driver/Src/stm32f3xx_hal_dma.c ****   
 702:Drivers/STM32F3xx_HAL_Driver/Src/stm32f3xx_hal_dma.c ****   /* Release Lock */
 703:Drivers/STM32F3xx_HAL_Driver/Src/stm32f3xx_hal_dma.c ****   __HAL_UNLOCK(hdma);
 1222              		.loc 1 703 0
 1223 007c FB68     		ldr	r3, [r7, #12]
 1224 007e 0022     		movs	r2, #0
 1225 0080 83F82020 		strb	r2, [r3, #32]
 704:Drivers/STM32F3xx_HAL_Driver/Src/stm32f3xx_hal_dma.c ****   
 705:Drivers/STM32F3xx_HAL_Driver/Src/stm32f3xx_hal_dma.c ****   return status;
 1226              		.loc 1 705 0
 1227 0084 FB7D     		ldrb	r3, [r7, #23]	@ zero_extendqisi2
 1228              	.L48:
 706:Drivers/STM32F3xx_HAL_Driver/Src/stm32f3xx_hal_dma.c **** }
 1229              		.loc 1 706 0
 1230 0086 1846     		mov	r0, r3
 1231 0088 1C37     		adds	r7, r7, #28
 1232              	.LCFI44:
 1233              		.cfi_def_cfa_offset 4
 1234 008a BD46     		mov	sp, r7
 1235              	.LCFI45:
 1236              		.cfi_def_cfa_register 13
 1237              		@ sp needed
 1238 008c 5DF8047B 		ldr	r7, [sp], #4
 1239              	.LCFI46:
 1240              		.cfi_restore 7
 1241              		.cfi_def_cfa_offset 0
 1242 0090 7047     		bx	lr
 1243              		.cfi_endproc
 1244              	.LFE703:
ARM GAS  /tmp/ccZ0zGVl.s 			page 35


 1246 0092 00BF     		.section	.text.HAL_DMA_UnRegisterCallback,"ax",%progbits
 1247              		.align	1
 1248              		.global	HAL_DMA_UnRegisterCallback
 1249              		.syntax unified
 1250              		.thumb
 1251              		.thumb_func
 1252              		.fpu fpv4-sp-d16
 1254              	HAL_DMA_UnRegisterCallback:
 1255              	.LFB704:
 707:Drivers/STM32F3xx_HAL_Driver/Src/stm32f3xx_hal_dma.c **** 
 708:Drivers/STM32F3xx_HAL_Driver/Src/stm32f3xx_hal_dma.c **** /**
 709:Drivers/STM32F3xx_HAL_Driver/Src/stm32f3xx_hal_dma.c ****   * @brief  UnRegister callbacks
 710:Drivers/STM32F3xx_HAL_Driver/Src/stm32f3xx_hal_dma.c ****   * @param  hdma                 pointer to a DMA_HandleTypeDef structure that contains
 711:Drivers/STM32F3xx_HAL_Driver/Src/stm32f3xx_hal_dma.c ****   *                               the configuration information for the specified DMA Stream.
 712:Drivers/STM32F3xx_HAL_Driver/Src/stm32f3xx_hal_dma.c ****   * @param  CallbackID           User Callback identifer
 713:Drivers/STM32F3xx_HAL_Driver/Src/stm32f3xx_hal_dma.c ****   *                               a HAL_DMA_CallbackIDTypeDef ENUM as parameter.
 714:Drivers/STM32F3xx_HAL_Driver/Src/stm32f3xx_hal_dma.c ****   * @retval HAL status
 715:Drivers/STM32F3xx_HAL_Driver/Src/stm32f3xx_hal_dma.c ****   */              
 716:Drivers/STM32F3xx_HAL_Driver/Src/stm32f3xx_hal_dma.c **** HAL_StatusTypeDef HAL_DMA_UnRegisterCallback(DMA_HandleTypeDef *hdma, HAL_DMA_CallbackIDTypeDef Cal
 717:Drivers/STM32F3xx_HAL_Driver/Src/stm32f3xx_hal_dma.c **** {
 1256              		.loc 1 717 0
 1257              		.cfi_startproc
 1258              		@ args = 0, pretend = 0, frame = 16
 1259              		@ frame_needed = 1, uses_anonymous_args = 0
 1260              		@ link register save eliminated.
 1261 0000 80B4     		push	{r7}
 1262              	.LCFI47:
 1263              		.cfi_def_cfa_offset 4
 1264              		.cfi_offset 7, -4
 1265 0002 85B0     		sub	sp, sp, #20
 1266              	.LCFI48:
 1267              		.cfi_def_cfa_offset 24
 1268 0004 00AF     		add	r7, sp, #0
 1269              	.LCFI49:
 1270              		.cfi_def_cfa_register 7
 1271 0006 7860     		str	r0, [r7, #4]
 1272 0008 0B46     		mov	r3, r1
 1273 000a FB70     		strb	r3, [r7, #3]
 718:Drivers/STM32F3xx_HAL_Driver/Src/stm32f3xx_hal_dma.c ****   HAL_StatusTypeDef status = HAL_OK;
 1274              		.loc 1 718 0
 1275 000c 0023     		movs	r3, #0
 1276 000e FB73     		strb	r3, [r7, #15]
 719:Drivers/STM32F3xx_HAL_Driver/Src/stm32f3xx_hal_dma.c **** 
 720:Drivers/STM32F3xx_HAL_Driver/Src/stm32f3xx_hal_dma.c ****     /* Process locked */
 721:Drivers/STM32F3xx_HAL_Driver/Src/stm32f3xx_hal_dma.c ****   __HAL_LOCK(hdma);
 1277              		.loc 1 721 0
 1278 0010 7B68     		ldr	r3, [r7, #4]
 1279 0012 93F82030 		ldrb	r3, [r3, #32]	@ zero_extendqisi2
 1280 0016 012B     		cmp	r3, #1
 1281 0018 01D1     		bne	.L59
 1282              		.loc 1 721 0 is_stmt 0 discriminator 1
 1283 001a 0223     		movs	r3, #2
 1284 001c 40E0     		b	.L60
 1285              	.L59:
 1286              		.loc 1 721 0 discriminator 2
 1287 001e 7B68     		ldr	r3, [r7, #4]
 1288 0020 0122     		movs	r2, #1
ARM GAS  /tmp/ccZ0zGVl.s 			page 36


 1289 0022 83F82020 		strb	r2, [r3, #32]
 722:Drivers/STM32F3xx_HAL_Driver/Src/stm32f3xx_hal_dma.c ****   
 723:Drivers/STM32F3xx_HAL_Driver/Src/stm32f3xx_hal_dma.c ****   if(HAL_DMA_STATE_READY == hdma->State)
 1290              		.loc 1 723 0 is_stmt 1 discriminator 2
 1291 0026 7B68     		ldr	r3, [r7, #4]
 1292 0028 93F82130 		ldrb	r3, [r3, #33]	@ zero_extendqisi2
 1293 002c 012B     		cmp	r3, #1
 1294 002e 30D1     		bne	.L61
 724:Drivers/STM32F3xx_HAL_Driver/Src/stm32f3xx_hal_dma.c ****   {
 725:Drivers/STM32F3xx_HAL_Driver/Src/stm32f3xx_hal_dma.c ****     switch (CallbackID)
 1295              		.loc 1 725 0
 1296 0030 FB78     		ldrb	r3, [r7, #3]	@ zero_extendqisi2
 1297 0032 042B     		cmp	r3, #4
 1298 0034 29D8     		bhi	.L62
 1299 0036 01A2     		adr	r2, .L64
 1300 0038 52F823F0 		ldr	pc, [r2, r3, lsl #2]
 1301              		.p2align 2
 1302              	.L64:
 1303 003c 51000000 		.word	.L63+1
 1304 0040 59000000 		.word	.L65+1
 1305 0044 61000000 		.word	.L66+1
 1306 0048 69000000 		.word	.L67+1
 1307 004c 71000000 		.word	.L68+1
 1308              		.p2align 1
 1309              	.L63:
 726:Drivers/STM32F3xx_HAL_Driver/Src/stm32f3xx_hal_dma.c ****     {
 727:Drivers/STM32F3xx_HAL_Driver/Src/stm32f3xx_hal_dma.c ****      case  HAL_DMA_XFER_CPLT_CB_ID:
 728:Drivers/STM32F3xx_HAL_Driver/Src/stm32f3xx_hal_dma.c ****            hdma->XferCpltCallback = NULL;
 1310              		.loc 1 728 0
 1311 0050 7B68     		ldr	r3, [r7, #4]
 1312 0052 0022     		movs	r2, #0
 1313 0054 9A62     		str	r2, [r3, #40]
 729:Drivers/STM32F3xx_HAL_Driver/Src/stm32f3xx_hal_dma.c ****            break;
 1314              		.loc 1 729 0
 1315 0056 1EE0     		b	.L70
 1316              	.L65:
 730:Drivers/STM32F3xx_HAL_Driver/Src/stm32f3xx_hal_dma.c ****        
 731:Drivers/STM32F3xx_HAL_Driver/Src/stm32f3xx_hal_dma.c ****      case  HAL_DMA_XFER_HALFCPLT_CB_ID:
 732:Drivers/STM32F3xx_HAL_Driver/Src/stm32f3xx_hal_dma.c ****            hdma->XferHalfCpltCallback = NULL;
 1317              		.loc 1 732 0
 1318 0058 7B68     		ldr	r3, [r7, #4]
 1319 005a 0022     		movs	r2, #0
 1320 005c DA62     		str	r2, [r3, #44]
 733:Drivers/STM32F3xx_HAL_Driver/Src/stm32f3xx_hal_dma.c ****            break;         
 1321              		.loc 1 733 0
 1322 005e 1AE0     		b	.L70
 1323              	.L66:
 734:Drivers/STM32F3xx_HAL_Driver/Src/stm32f3xx_hal_dma.c **** 
 735:Drivers/STM32F3xx_HAL_Driver/Src/stm32f3xx_hal_dma.c ****      case  HAL_DMA_XFER_ERROR_CB_ID:
 736:Drivers/STM32F3xx_HAL_Driver/Src/stm32f3xx_hal_dma.c ****            hdma->XferErrorCallback = NULL;
 1324              		.loc 1 736 0
 1325 0060 7B68     		ldr	r3, [r7, #4]
 1326 0062 0022     		movs	r2, #0
 1327 0064 1A63     		str	r2, [r3, #48]
 737:Drivers/STM32F3xx_HAL_Driver/Src/stm32f3xx_hal_dma.c ****            break;         
 1328              		.loc 1 737 0
 1329 0066 16E0     		b	.L70
ARM GAS  /tmp/ccZ0zGVl.s 			page 37


 1330              	.L67:
 738:Drivers/STM32F3xx_HAL_Driver/Src/stm32f3xx_hal_dma.c ****            
 739:Drivers/STM32F3xx_HAL_Driver/Src/stm32f3xx_hal_dma.c ****      case  HAL_DMA_XFER_ABORT_CB_ID:
 740:Drivers/STM32F3xx_HAL_Driver/Src/stm32f3xx_hal_dma.c ****            hdma->XferAbortCallback = NULL;
 1331              		.loc 1 740 0
 1332 0068 7B68     		ldr	r3, [r7, #4]
 1333 006a 0022     		movs	r2, #0
 1334 006c 5A63     		str	r2, [r3, #52]
 741:Drivers/STM32F3xx_HAL_Driver/Src/stm32f3xx_hal_dma.c ****            break; 
 1335              		.loc 1 741 0
 1336 006e 12E0     		b	.L70
 1337              	.L68:
 742:Drivers/STM32F3xx_HAL_Driver/Src/stm32f3xx_hal_dma.c ****      
 743:Drivers/STM32F3xx_HAL_Driver/Src/stm32f3xx_hal_dma.c ****     case   HAL_DMA_XFER_ALL_CB_ID:
 744:Drivers/STM32F3xx_HAL_Driver/Src/stm32f3xx_hal_dma.c ****            hdma->XferCpltCallback = NULL;
 1338              		.loc 1 744 0
 1339 0070 7B68     		ldr	r3, [r7, #4]
 1340 0072 0022     		movs	r2, #0
 1341 0074 9A62     		str	r2, [r3, #40]
 745:Drivers/STM32F3xx_HAL_Driver/Src/stm32f3xx_hal_dma.c ****            hdma->XferHalfCpltCallback = NULL;
 1342              		.loc 1 745 0
 1343 0076 7B68     		ldr	r3, [r7, #4]
 1344 0078 0022     		movs	r2, #0
 1345 007a DA62     		str	r2, [r3, #44]
 746:Drivers/STM32F3xx_HAL_Driver/Src/stm32f3xx_hal_dma.c ****            hdma->XferErrorCallback = NULL;
 1346              		.loc 1 746 0
 1347 007c 7B68     		ldr	r3, [r7, #4]
 1348 007e 0022     		movs	r2, #0
 1349 0080 1A63     		str	r2, [r3, #48]
 747:Drivers/STM32F3xx_HAL_Driver/Src/stm32f3xx_hal_dma.c ****            hdma->XferAbortCallback = NULL;
 1350              		.loc 1 747 0
 1351 0082 7B68     		ldr	r3, [r7, #4]
 1352 0084 0022     		movs	r2, #0
 1353 0086 5A63     		str	r2, [r3, #52]
 748:Drivers/STM32F3xx_HAL_Driver/Src/stm32f3xx_hal_dma.c ****            break; 
 1354              		.loc 1 748 0
 1355 0088 05E0     		b	.L70
 1356              	.L62:
 749:Drivers/STM32F3xx_HAL_Driver/Src/stm32f3xx_hal_dma.c ****      
 750:Drivers/STM32F3xx_HAL_Driver/Src/stm32f3xx_hal_dma.c ****     default:
 751:Drivers/STM32F3xx_HAL_Driver/Src/stm32f3xx_hal_dma.c ****            status = HAL_ERROR;
 1357              		.loc 1 751 0
 1358 008a 0123     		movs	r3, #1
 1359 008c FB73     		strb	r3, [r7, #15]
 752:Drivers/STM32F3xx_HAL_Driver/Src/stm32f3xx_hal_dma.c ****            break;                                                            
 1360              		.loc 1 752 0
 1361 008e 00BF     		nop
 1362 0090 01E0     		b	.L70
 1363              	.L61:
 753:Drivers/STM32F3xx_HAL_Driver/Src/stm32f3xx_hal_dma.c ****     }
 754:Drivers/STM32F3xx_HAL_Driver/Src/stm32f3xx_hal_dma.c ****   }
 755:Drivers/STM32F3xx_HAL_Driver/Src/stm32f3xx_hal_dma.c ****   else
 756:Drivers/STM32F3xx_HAL_Driver/Src/stm32f3xx_hal_dma.c ****   {
 757:Drivers/STM32F3xx_HAL_Driver/Src/stm32f3xx_hal_dma.c ****     status = HAL_ERROR;
 1364              		.loc 1 757 0
 1365 0092 0123     		movs	r3, #1
 1366 0094 FB73     		strb	r3, [r7, #15]
ARM GAS  /tmp/ccZ0zGVl.s 			page 38


 1367              	.L70:
 758:Drivers/STM32F3xx_HAL_Driver/Src/stm32f3xx_hal_dma.c ****   } 
 759:Drivers/STM32F3xx_HAL_Driver/Src/stm32f3xx_hal_dma.c ****   
 760:Drivers/STM32F3xx_HAL_Driver/Src/stm32f3xx_hal_dma.c ****   /* Release Lock */
 761:Drivers/STM32F3xx_HAL_Driver/Src/stm32f3xx_hal_dma.c ****   __HAL_UNLOCK(hdma);
 1368              		.loc 1 761 0
 1369 0096 7B68     		ldr	r3, [r7, #4]
 1370 0098 0022     		movs	r2, #0
 1371 009a 83F82020 		strb	r2, [r3, #32]
 762:Drivers/STM32F3xx_HAL_Driver/Src/stm32f3xx_hal_dma.c ****   
 763:Drivers/STM32F3xx_HAL_Driver/Src/stm32f3xx_hal_dma.c ****   return status;
 1372              		.loc 1 763 0
 1373 009e FB7B     		ldrb	r3, [r7, #15]	@ zero_extendqisi2
 1374              	.L60:
 764:Drivers/STM32F3xx_HAL_Driver/Src/stm32f3xx_hal_dma.c **** }
 1375              		.loc 1 764 0
 1376 00a0 1846     		mov	r0, r3
 1377 00a2 1437     		adds	r7, r7, #20
 1378              	.LCFI50:
 1379              		.cfi_def_cfa_offset 4
 1380 00a4 BD46     		mov	sp, r7
 1381              	.LCFI51:
 1382              		.cfi_def_cfa_register 13
 1383              		@ sp needed
 1384 00a6 5DF8047B 		ldr	r7, [sp], #4
 1385              	.LCFI52:
 1386              		.cfi_restore 7
 1387              		.cfi_def_cfa_offset 0
 1388 00aa 7047     		bx	lr
 1389              		.cfi_endproc
 1390              	.LFE704:
 1392              		.section	.text.HAL_DMA_GetState,"ax",%progbits
 1393              		.align	1
 1394              		.global	HAL_DMA_GetState
 1395              		.syntax unified
 1396              		.thumb
 1397              		.thumb_func
 1398              		.fpu fpv4-sp-d16
 1400              	HAL_DMA_GetState:
 1401              	.LFB705:
 765:Drivers/STM32F3xx_HAL_Driver/Src/stm32f3xx_hal_dma.c **** 
 766:Drivers/STM32F3xx_HAL_Driver/Src/stm32f3xx_hal_dma.c **** /**
 767:Drivers/STM32F3xx_HAL_Driver/Src/stm32f3xx_hal_dma.c ****   * @}
 768:Drivers/STM32F3xx_HAL_Driver/Src/stm32f3xx_hal_dma.c ****   */
 769:Drivers/STM32F3xx_HAL_Driver/Src/stm32f3xx_hal_dma.c **** 
 770:Drivers/STM32F3xx_HAL_Driver/Src/stm32f3xx_hal_dma.c **** /** @defgroup DMA_Exported_Functions_Group3 Peripheral State functions
 771:Drivers/STM32F3xx_HAL_Driver/Src/stm32f3xx_hal_dma.c ****  *  @brief    Peripheral State functions 
 772:Drivers/STM32F3xx_HAL_Driver/Src/stm32f3xx_hal_dma.c ****  *
 773:Drivers/STM32F3xx_HAL_Driver/Src/stm32f3xx_hal_dma.c **** @verbatim   
 774:Drivers/STM32F3xx_HAL_Driver/Src/stm32f3xx_hal_dma.c ****  ===============================================================================
 775:Drivers/STM32F3xx_HAL_Driver/Src/stm32f3xx_hal_dma.c ****                     ##### State and Errors functions #####
 776:Drivers/STM32F3xx_HAL_Driver/Src/stm32f3xx_hal_dma.c ****  ===============================================================================  
 777:Drivers/STM32F3xx_HAL_Driver/Src/stm32f3xx_hal_dma.c ****     [..]
 778:Drivers/STM32F3xx_HAL_Driver/Src/stm32f3xx_hal_dma.c ****     This subsection provides functions allowing to
 779:Drivers/STM32F3xx_HAL_Driver/Src/stm32f3xx_hal_dma.c ****       (+) Check the DMA state
 780:Drivers/STM32F3xx_HAL_Driver/Src/stm32f3xx_hal_dma.c ****       (+) Get error code
 781:Drivers/STM32F3xx_HAL_Driver/Src/stm32f3xx_hal_dma.c **** 
ARM GAS  /tmp/ccZ0zGVl.s 			page 39


 782:Drivers/STM32F3xx_HAL_Driver/Src/stm32f3xx_hal_dma.c **** @endverbatim
 783:Drivers/STM32F3xx_HAL_Driver/Src/stm32f3xx_hal_dma.c ****   * @{
 784:Drivers/STM32F3xx_HAL_Driver/Src/stm32f3xx_hal_dma.c ****   */  
 785:Drivers/STM32F3xx_HAL_Driver/Src/stm32f3xx_hal_dma.c **** 
 786:Drivers/STM32F3xx_HAL_Driver/Src/stm32f3xx_hal_dma.c **** /**
 787:Drivers/STM32F3xx_HAL_Driver/Src/stm32f3xx_hal_dma.c ****   * @brief  Returns the DMA state.
 788:Drivers/STM32F3xx_HAL_Driver/Src/stm32f3xx_hal_dma.c ****   * @param  hdma pointer to a DMA_HandleTypeDef structure that contains
 789:Drivers/STM32F3xx_HAL_Driver/Src/stm32f3xx_hal_dma.c ****   *               the configuration information for the specified DMA Channel.  
 790:Drivers/STM32F3xx_HAL_Driver/Src/stm32f3xx_hal_dma.c ****   * @retval HAL state
 791:Drivers/STM32F3xx_HAL_Driver/Src/stm32f3xx_hal_dma.c ****   */
 792:Drivers/STM32F3xx_HAL_Driver/Src/stm32f3xx_hal_dma.c **** HAL_DMA_StateTypeDef HAL_DMA_GetState(DMA_HandleTypeDef *hdma)
 793:Drivers/STM32F3xx_HAL_Driver/Src/stm32f3xx_hal_dma.c **** {
 1402              		.loc 1 793 0
 1403              		.cfi_startproc
 1404              		@ args = 0, pretend = 0, frame = 8
 1405              		@ frame_needed = 1, uses_anonymous_args = 0
 1406              		@ link register save eliminated.
 1407 0000 80B4     		push	{r7}
 1408              	.LCFI53:
 1409              		.cfi_def_cfa_offset 4
 1410              		.cfi_offset 7, -4
 1411 0002 83B0     		sub	sp, sp, #12
 1412              	.LCFI54:
 1413              		.cfi_def_cfa_offset 16
 1414 0004 00AF     		add	r7, sp, #0
 1415              	.LCFI55:
 1416              		.cfi_def_cfa_register 7
 1417 0006 7860     		str	r0, [r7, #4]
 794:Drivers/STM32F3xx_HAL_Driver/Src/stm32f3xx_hal_dma.c ****   return hdma->State;
 1418              		.loc 1 794 0
 1419 0008 7B68     		ldr	r3, [r7, #4]
 1420 000a 93F82130 		ldrb	r3, [r3, #33]	@ zero_extendqisi2
 795:Drivers/STM32F3xx_HAL_Driver/Src/stm32f3xx_hal_dma.c **** }
 1421              		.loc 1 795 0
 1422 000e 1846     		mov	r0, r3
 1423 0010 0C37     		adds	r7, r7, #12
 1424              	.LCFI56:
 1425              		.cfi_def_cfa_offset 4
 1426 0012 BD46     		mov	sp, r7
 1427              	.LCFI57:
 1428              		.cfi_def_cfa_register 13
 1429              		@ sp needed
 1430 0014 5DF8047B 		ldr	r7, [sp], #4
 1431              	.LCFI58:
 1432              		.cfi_restore 7
 1433              		.cfi_def_cfa_offset 0
 1434 0018 7047     		bx	lr
 1435              		.cfi_endproc
 1436              	.LFE705:
 1438              		.section	.text.HAL_DMA_GetError,"ax",%progbits
 1439              		.align	1
 1440              		.global	HAL_DMA_GetError
 1441              		.syntax unified
 1442              		.thumb
 1443              		.thumb_func
 1444              		.fpu fpv4-sp-d16
 1446              	HAL_DMA_GetError:
ARM GAS  /tmp/ccZ0zGVl.s 			page 40


 1447              	.LFB706:
 796:Drivers/STM32F3xx_HAL_Driver/Src/stm32f3xx_hal_dma.c **** 
 797:Drivers/STM32F3xx_HAL_Driver/Src/stm32f3xx_hal_dma.c **** /**
 798:Drivers/STM32F3xx_HAL_Driver/Src/stm32f3xx_hal_dma.c ****   * @brief  Return the DMA error code
 799:Drivers/STM32F3xx_HAL_Driver/Src/stm32f3xx_hal_dma.c ****   * @param  hdma pointer to a DMA_HandleTypeDef structure that contains
 800:Drivers/STM32F3xx_HAL_Driver/Src/stm32f3xx_hal_dma.c ****   *              the configuration information for the specified DMA Channel.
 801:Drivers/STM32F3xx_HAL_Driver/Src/stm32f3xx_hal_dma.c ****   * @retval DMA Error Code
 802:Drivers/STM32F3xx_HAL_Driver/Src/stm32f3xx_hal_dma.c ****   */
 803:Drivers/STM32F3xx_HAL_Driver/Src/stm32f3xx_hal_dma.c **** uint32_t HAL_DMA_GetError(DMA_HandleTypeDef *hdma)
 804:Drivers/STM32F3xx_HAL_Driver/Src/stm32f3xx_hal_dma.c **** {
 1448              		.loc 1 804 0
 1449              		.cfi_startproc
 1450              		@ args = 0, pretend = 0, frame = 8
 1451              		@ frame_needed = 1, uses_anonymous_args = 0
 1452              		@ link register save eliminated.
 1453 0000 80B4     		push	{r7}
 1454              	.LCFI59:
 1455              		.cfi_def_cfa_offset 4
 1456              		.cfi_offset 7, -4
 1457 0002 83B0     		sub	sp, sp, #12
 1458              	.LCFI60:
 1459              		.cfi_def_cfa_offset 16
 1460 0004 00AF     		add	r7, sp, #0
 1461              	.LCFI61:
 1462              		.cfi_def_cfa_register 7
 1463 0006 7860     		str	r0, [r7, #4]
 805:Drivers/STM32F3xx_HAL_Driver/Src/stm32f3xx_hal_dma.c ****   return hdma->ErrorCode;
 1464              		.loc 1 805 0
 1465 0008 7B68     		ldr	r3, [r7, #4]
 1466 000a 9B6B     		ldr	r3, [r3, #56]
 806:Drivers/STM32F3xx_HAL_Driver/Src/stm32f3xx_hal_dma.c **** }
 1467              		.loc 1 806 0
 1468 000c 1846     		mov	r0, r3
 1469 000e 0C37     		adds	r7, r7, #12
 1470              	.LCFI62:
 1471              		.cfi_def_cfa_offset 4
 1472 0010 BD46     		mov	sp, r7
 1473              	.LCFI63:
 1474              		.cfi_def_cfa_register 13
 1475              		@ sp needed
 1476 0012 5DF8047B 		ldr	r7, [sp], #4
 1477              	.LCFI64:
 1478              		.cfi_restore 7
 1479              		.cfi_def_cfa_offset 0
 1480 0016 7047     		bx	lr
 1481              		.cfi_endproc
 1482              	.LFE706:
 1484              		.section	.text.DMA_SetConfig,"ax",%progbits
 1485              		.align	1
 1486              		.syntax unified
 1487              		.thumb
 1488              		.thumb_func
 1489              		.fpu fpv4-sp-d16
 1491              	DMA_SetConfig:
 1492              	.LFB707:
 807:Drivers/STM32F3xx_HAL_Driver/Src/stm32f3xx_hal_dma.c **** 
 808:Drivers/STM32F3xx_HAL_Driver/Src/stm32f3xx_hal_dma.c **** /**
ARM GAS  /tmp/ccZ0zGVl.s 			page 41


 809:Drivers/STM32F3xx_HAL_Driver/Src/stm32f3xx_hal_dma.c ****   * @}
 810:Drivers/STM32F3xx_HAL_Driver/Src/stm32f3xx_hal_dma.c ****   */
 811:Drivers/STM32F3xx_HAL_Driver/Src/stm32f3xx_hal_dma.c **** 
 812:Drivers/STM32F3xx_HAL_Driver/Src/stm32f3xx_hal_dma.c **** /**
 813:Drivers/STM32F3xx_HAL_Driver/Src/stm32f3xx_hal_dma.c ****   * @}
 814:Drivers/STM32F3xx_HAL_Driver/Src/stm32f3xx_hal_dma.c ****   */
 815:Drivers/STM32F3xx_HAL_Driver/Src/stm32f3xx_hal_dma.c **** 
 816:Drivers/STM32F3xx_HAL_Driver/Src/stm32f3xx_hal_dma.c **** /** @addtogroup DMA_Private_Functions
 817:Drivers/STM32F3xx_HAL_Driver/Src/stm32f3xx_hal_dma.c ****   * @{
 818:Drivers/STM32F3xx_HAL_Driver/Src/stm32f3xx_hal_dma.c ****   */
 819:Drivers/STM32F3xx_HAL_Driver/Src/stm32f3xx_hal_dma.c **** 
 820:Drivers/STM32F3xx_HAL_Driver/Src/stm32f3xx_hal_dma.c **** /**
 821:Drivers/STM32F3xx_HAL_Driver/Src/stm32f3xx_hal_dma.c ****   * @brief  Set the DMA Transfer parameters.
 822:Drivers/STM32F3xx_HAL_Driver/Src/stm32f3xx_hal_dma.c ****   * @param  hdma       pointer to a DMA_HandleTypeDef structure that contains
 823:Drivers/STM32F3xx_HAL_Driver/Src/stm32f3xx_hal_dma.c ****   *                     the configuration information for the specified DMA Channel.  
 824:Drivers/STM32F3xx_HAL_Driver/Src/stm32f3xx_hal_dma.c ****   * @param  SrcAddress The source memory Buffer address
 825:Drivers/STM32F3xx_HAL_Driver/Src/stm32f3xx_hal_dma.c ****   * @param  DstAddress The destination memory Buffer address
 826:Drivers/STM32F3xx_HAL_Driver/Src/stm32f3xx_hal_dma.c ****   * @param  DataLength The length of data to be transferred from source to destination
 827:Drivers/STM32F3xx_HAL_Driver/Src/stm32f3xx_hal_dma.c ****   * @retval HAL status
 828:Drivers/STM32F3xx_HAL_Driver/Src/stm32f3xx_hal_dma.c ****   */
 829:Drivers/STM32F3xx_HAL_Driver/Src/stm32f3xx_hal_dma.c **** static void DMA_SetConfig(DMA_HandleTypeDef *hdma, uint32_t SrcAddress, uint32_t DstAddress, uint32
 830:Drivers/STM32F3xx_HAL_Driver/Src/stm32f3xx_hal_dma.c **** {
 1493              		.loc 1 830 0
 1494              		.cfi_startproc
 1495              		@ args = 0, pretend = 0, frame = 16
 1496              		@ frame_needed = 1, uses_anonymous_args = 0
 1497              		@ link register save eliminated.
 1498 0000 80B4     		push	{r7}
 1499              	.LCFI65:
 1500              		.cfi_def_cfa_offset 4
 1501              		.cfi_offset 7, -4
 1502 0002 85B0     		sub	sp, sp, #20
 1503              	.LCFI66:
 1504              		.cfi_def_cfa_offset 24
 1505 0004 00AF     		add	r7, sp, #0
 1506              	.LCFI67:
 1507              		.cfi_def_cfa_register 7
 1508 0006 F860     		str	r0, [r7, #12]
 1509 0008 B960     		str	r1, [r7, #8]
 1510 000a 7A60     		str	r2, [r7, #4]
 1511 000c 3B60     		str	r3, [r7]
 831:Drivers/STM32F3xx_HAL_Driver/Src/stm32f3xx_hal_dma.c **** 	/* Clear all flags */
 832:Drivers/STM32F3xx_HAL_Driver/Src/stm32f3xx_hal_dma.c ****   hdma->DmaBaseAddress->IFCR  = (DMA_FLAG_GL1 << hdma->ChannelIndex);
 1512              		.loc 1 832 0
 1513 000e FB68     		ldr	r3, [r7, #12]
 1514 0010 1A6C     		ldr	r2, [r3, #64]
 1515 0012 FB68     		ldr	r3, [r7, #12]
 1516 0014 DB6B     		ldr	r3, [r3, #60]
 1517 0016 0121     		movs	r1, #1
 1518 0018 01FA02F2 		lsl	r2, r1, r2
 1519 001c 5A60     		str	r2, [r3, #4]
 833:Drivers/STM32F3xx_HAL_Driver/Src/stm32f3xx_hal_dma.c ****   
 834:Drivers/STM32F3xx_HAL_Driver/Src/stm32f3xx_hal_dma.c ****   /* Configure DMA Channel data length */
 835:Drivers/STM32F3xx_HAL_Driver/Src/stm32f3xx_hal_dma.c ****   hdma->Instance->CNDTR = DataLength;
 1520              		.loc 1 835 0
 1521 001e FB68     		ldr	r3, [r7, #12]
 1522 0020 1B68     		ldr	r3, [r3]
ARM GAS  /tmp/ccZ0zGVl.s 			page 42


 1523 0022 3A68     		ldr	r2, [r7]
 1524 0024 5A60     		str	r2, [r3, #4]
 836:Drivers/STM32F3xx_HAL_Driver/Src/stm32f3xx_hal_dma.c ****   
 837:Drivers/STM32F3xx_HAL_Driver/Src/stm32f3xx_hal_dma.c ****   /* Peripheral to Memory */
 838:Drivers/STM32F3xx_HAL_Driver/Src/stm32f3xx_hal_dma.c ****   if((hdma->Init.Direction) == DMA_MEMORY_TO_PERIPH)
 1525              		.loc 1 838 0
 1526 0026 FB68     		ldr	r3, [r7, #12]
 1527 0028 5B68     		ldr	r3, [r3, #4]
 1528 002a 102B     		cmp	r3, #16
 1529 002c 08D1     		bne	.L76
 839:Drivers/STM32F3xx_HAL_Driver/Src/stm32f3xx_hal_dma.c ****   {   
 840:Drivers/STM32F3xx_HAL_Driver/Src/stm32f3xx_hal_dma.c ****     /* Configure DMA Channel destination address */
 841:Drivers/STM32F3xx_HAL_Driver/Src/stm32f3xx_hal_dma.c ****     hdma->Instance->CPAR = DstAddress;
 1530              		.loc 1 841 0
 1531 002e FB68     		ldr	r3, [r7, #12]
 1532 0030 1B68     		ldr	r3, [r3]
 1533 0032 7A68     		ldr	r2, [r7, #4]
 1534 0034 9A60     		str	r2, [r3, #8]
 842:Drivers/STM32F3xx_HAL_Driver/Src/stm32f3xx_hal_dma.c ****     
 843:Drivers/STM32F3xx_HAL_Driver/Src/stm32f3xx_hal_dma.c ****     /* Configure DMA Channel source address */
 844:Drivers/STM32F3xx_HAL_Driver/Src/stm32f3xx_hal_dma.c ****     hdma->Instance->CMAR = SrcAddress;
 1535              		.loc 1 844 0
 1536 0036 FB68     		ldr	r3, [r7, #12]
 1537 0038 1B68     		ldr	r3, [r3]
 1538 003a BA68     		ldr	r2, [r7, #8]
 1539 003c DA60     		str	r2, [r3, #12]
 845:Drivers/STM32F3xx_HAL_Driver/Src/stm32f3xx_hal_dma.c ****   }
 846:Drivers/STM32F3xx_HAL_Driver/Src/stm32f3xx_hal_dma.c ****   /* Memory to Peripheral */
 847:Drivers/STM32F3xx_HAL_Driver/Src/stm32f3xx_hal_dma.c ****   else
 848:Drivers/STM32F3xx_HAL_Driver/Src/stm32f3xx_hal_dma.c ****   {
 849:Drivers/STM32F3xx_HAL_Driver/Src/stm32f3xx_hal_dma.c ****     /* Configure DMA Channel source address */
 850:Drivers/STM32F3xx_HAL_Driver/Src/stm32f3xx_hal_dma.c ****     hdma->Instance->CPAR = SrcAddress;
 851:Drivers/STM32F3xx_HAL_Driver/Src/stm32f3xx_hal_dma.c ****     
 852:Drivers/STM32F3xx_HAL_Driver/Src/stm32f3xx_hal_dma.c ****     /* Configure DMA Channel destination address */
 853:Drivers/STM32F3xx_HAL_Driver/Src/stm32f3xx_hal_dma.c ****     hdma->Instance->CMAR = DstAddress;
 854:Drivers/STM32F3xx_HAL_Driver/Src/stm32f3xx_hal_dma.c ****   }
 855:Drivers/STM32F3xx_HAL_Driver/Src/stm32f3xx_hal_dma.c **** }
 1540              		.loc 1 855 0
 1541 003e 07E0     		b	.L78
 1542              	.L76:
 850:Drivers/STM32F3xx_HAL_Driver/Src/stm32f3xx_hal_dma.c ****     
 1543              		.loc 1 850 0
 1544 0040 FB68     		ldr	r3, [r7, #12]
 1545 0042 1B68     		ldr	r3, [r3]
 1546 0044 BA68     		ldr	r2, [r7, #8]
 1547 0046 9A60     		str	r2, [r3, #8]
 853:Drivers/STM32F3xx_HAL_Driver/Src/stm32f3xx_hal_dma.c ****   }
 1548              		.loc 1 853 0
 1549 0048 FB68     		ldr	r3, [r7, #12]
 1550 004a 1B68     		ldr	r3, [r3]
 1551 004c 7A68     		ldr	r2, [r7, #4]
 1552 004e DA60     		str	r2, [r3, #12]
 1553              	.L78:
 1554              		.loc 1 855 0
 1555 0050 00BF     		nop
 1556 0052 1437     		adds	r7, r7, #20
 1557              	.LCFI68:
ARM GAS  /tmp/ccZ0zGVl.s 			page 43


 1558              		.cfi_def_cfa_offset 4
 1559 0054 BD46     		mov	sp, r7
 1560              	.LCFI69:
 1561              		.cfi_def_cfa_register 13
 1562              		@ sp needed
 1563 0056 5DF8047B 		ldr	r7, [sp], #4
 1564              	.LCFI70:
 1565              		.cfi_restore 7
 1566              		.cfi_def_cfa_offset 0
 1567 005a 7047     		bx	lr
 1568              		.cfi_endproc
 1569              	.LFE707:
 1571              		.section	.text.DMA_CalcBaseAndBitshift,"ax",%progbits
 1572              		.align	1
 1573              		.syntax unified
 1574              		.thumb
 1575              		.thumb_func
 1576              		.fpu fpv4-sp-d16
 1578              	DMA_CalcBaseAndBitshift:
 1579              	.LFB708:
 856:Drivers/STM32F3xx_HAL_Driver/Src/stm32f3xx_hal_dma.c **** 
 857:Drivers/STM32F3xx_HAL_Driver/Src/stm32f3xx_hal_dma.c **** /**
 858:Drivers/STM32F3xx_HAL_Driver/Src/stm32f3xx_hal_dma.c ****   * @brief  Set the DMA base address and channel index depending on DMA instance
 859:Drivers/STM32F3xx_HAL_Driver/Src/stm32f3xx_hal_dma.c ****   * @param  hdma       pointer to a DMA_HandleTypeDef structure that contains
 860:Drivers/STM32F3xx_HAL_Driver/Src/stm32f3xx_hal_dma.c ****   *                     the configuration information for the specified DMA Stream. 
 861:Drivers/STM32F3xx_HAL_Driver/Src/stm32f3xx_hal_dma.c ****   * @retval None
 862:Drivers/STM32F3xx_HAL_Driver/Src/stm32f3xx_hal_dma.c ****   */
 863:Drivers/STM32F3xx_HAL_Driver/Src/stm32f3xx_hal_dma.c **** static void DMA_CalcBaseAndBitshift(DMA_HandleTypeDef *hdma)
 864:Drivers/STM32F3xx_HAL_Driver/Src/stm32f3xx_hal_dma.c **** {
 1580              		.loc 1 864 0
 1581              		.cfi_startproc
 1582              		@ args = 0, pretend = 0, frame = 8
 1583              		@ frame_needed = 1, uses_anonymous_args = 0
 1584              		@ link register save eliminated.
 1585 0000 80B4     		push	{r7}
 1586              	.LCFI71:
 1587              		.cfi_def_cfa_offset 4
 1588              		.cfi_offset 7, -4
 1589 0002 83B0     		sub	sp, sp, #12
 1590              	.LCFI72:
 1591              		.cfi_def_cfa_offset 16
 1592 0004 00AF     		add	r7, sp, #0
 1593              	.LCFI73:
 1594              		.cfi_def_cfa_register 7
 1595 0006 7860     		str	r0, [r7, #4]
 865:Drivers/STM32F3xx_HAL_Driver/Src/stm32f3xx_hal_dma.c **** #if defined (DMA2)
 866:Drivers/STM32F3xx_HAL_Driver/Src/stm32f3xx_hal_dma.c ****   /* calculation of the channel index */
 867:Drivers/STM32F3xx_HAL_Driver/Src/stm32f3xx_hal_dma.c ****   if ((uint32_t)(hdma->Instance) < (uint32_t)(DMA2_Channel1))
 868:Drivers/STM32F3xx_HAL_Driver/Src/stm32f3xx_hal_dma.c ****   {
 869:Drivers/STM32F3xx_HAL_Driver/Src/stm32f3xx_hal_dma.c ****     /* DMA1 */
 870:Drivers/STM32F3xx_HAL_Driver/Src/stm32f3xx_hal_dma.c ****     hdma->ChannelIndex = (((uint32_t)hdma->Instance - (uint32_t)DMA1_Channel1) / ((uint32_t)DMA1_Ch
 871:Drivers/STM32F3xx_HAL_Driver/Src/stm32f3xx_hal_dma.c ****     hdma->DmaBaseAddress = DMA1;
 872:Drivers/STM32F3xx_HAL_Driver/Src/stm32f3xx_hal_dma.c ****   }
 873:Drivers/STM32F3xx_HAL_Driver/Src/stm32f3xx_hal_dma.c ****   else 
 874:Drivers/STM32F3xx_HAL_Driver/Src/stm32f3xx_hal_dma.c ****   {
 875:Drivers/STM32F3xx_HAL_Driver/Src/stm32f3xx_hal_dma.c ****     /* DMA2 */
 876:Drivers/STM32F3xx_HAL_Driver/Src/stm32f3xx_hal_dma.c ****     hdma->ChannelIndex = (((uint32_t)hdma->Instance - (uint32_t)DMA2_Channel1) / ((uint32_t)DMA2_Ch
ARM GAS  /tmp/ccZ0zGVl.s 			page 44


 877:Drivers/STM32F3xx_HAL_Driver/Src/stm32f3xx_hal_dma.c ****     hdma->DmaBaseAddress = DMA2;
 878:Drivers/STM32F3xx_HAL_Driver/Src/stm32f3xx_hal_dma.c ****   }
 879:Drivers/STM32F3xx_HAL_Driver/Src/stm32f3xx_hal_dma.c **** #else
 880:Drivers/STM32F3xx_HAL_Driver/Src/stm32f3xx_hal_dma.c ****   /* calculation of the channel index */
 881:Drivers/STM32F3xx_HAL_Driver/Src/stm32f3xx_hal_dma.c ****   /* DMA1 */
 882:Drivers/STM32F3xx_HAL_Driver/Src/stm32f3xx_hal_dma.c ****   hdma->ChannelIndex = (((uint32_t)hdma->Instance - (uint32_t)DMA1_Channel1) / ((uint32_t)DMA1_Chan
 1596              		.loc 1 882 0
 1597 0008 7B68     		ldr	r3, [r7, #4]
 1598 000a 1B68     		ldr	r3, [r3]
 1599 000c 1A46     		mov	r2, r3
 1600 000e 094B     		ldr	r3, .L80
 1601 0010 1344     		add	r3, r3, r2
 1602 0012 094A     		ldr	r2, .L80+4
 1603 0014 A2FB0323 		umull	r2, r3, r2, r3
 1604 0018 1B09     		lsrs	r3, r3, #4
 1605 001a 9A00     		lsls	r2, r3, #2
 1606 001c 7B68     		ldr	r3, [r7, #4]
 1607 001e 1A64     		str	r2, [r3, #64]
 883:Drivers/STM32F3xx_HAL_Driver/Src/stm32f3xx_hal_dma.c ****   hdma->DmaBaseAddress = DMA1;
 1608              		.loc 1 883 0
 1609 0020 7B68     		ldr	r3, [r7, #4]
 1610 0022 064A     		ldr	r2, .L80+8
 1611 0024 DA63     		str	r2, [r3, #60]
 884:Drivers/STM32F3xx_HAL_Driver/Src/stm32f3xx_hal_dma.c **** #endif
 885:Drivers/STM32F3xx_HAL_Driver/Src/stm32f3xx_hal_dma.c **** }
 1612              		.loc 1 885 0
 1613 0026 00BF     		nop
 1614 0028 0C37     		adds	r7, r7, #12
 1615              	.LCFI74:
 1616              		.cfi_def_cfa_offset 4
 1617 002a BD46     		mov	sp, r7
 1618              	.LCFI75:
 1619              		.cfi_def_cfa_register 13
 1620              		@ sp needed
 1621 002c 5DF8047B 		ldr	r7, [sp], #4
 1622              	.LCFI76:
 1623              		.cfi_restore 7
 1624              		.cfi_def_cfa_offset 0
 1625 0030 7047     		bx	lr
 1626              	.L81:
 1627 0032 00BF     		.align	2
 1628              	.L80:
 1629 0034 F8FFFDBF 		.word	-1073872904
 1630 0038 CDCCCCCC 		.word	-858993459
 1631 003c 00000240 		.word	1073872896
 1632              		.cfi_endproc
 1633              	.LFE708:
 1635              		.text
 1636              	.Letext0:
 1637              		.file 2 "/usr/arm-none-eabi/include/machine/_default_types.h"
 1638              		.file 3 "/usr/arm-none-eabi/include/sys/_stdint.h"
 1639              		.file 4 "Drivers/CMSIS/Include/core_cm4.h"
 1640              		.file 5 "Drivers/CMSIS/Device/ST/STM32F3xx/Include/system_stm32f3xx.h"
 1641              		.file 6 "Drivers/CMSIS/Device/ST/STM32F3xx/Include/stm32f303x8.h"
 1642              		.file 7 "/usr/arm-none-eabi/include/sys/lock.h"
 1643              		.file 8 "/usr/arm-none-eabi/include/sys/_types.h"
 1644              		.file 9 "/usr/lib/gcc/arm-none-eabi/7.3.0/include/stddef.h"
ARM GAS  /tmp/ccZ0zGVl.s 			page 45


 1645              		.file 10 "/usr/arm-none-eabi/include/sys/reent.h"
 1646              		.file 11 "Drivers/CMSIS/Device/ST/STM32F3xx/Include/stm32f3xx.h"
 1647              		.file 12 "Drivers/STM32F3xx_HAL_Driver/Inc/stm32f3xx_hal_def.h"
 1648              		.file 13 "Drivers/STM32F3xx_HAL_Driver/Inc/stm32f3xx_hal_dma.h"
 1649              		.file 14 "Drivers/STM32F3xx_HAL_Driver/Inc/stm32f3xx_ll_dma.h"
ARM GAS  /tmp/ccZ0zGVl.s 			page 46

