ARM GAS  /tmp/ccy0jiyr.s 			page 1


   1              		.cpu cortex-m4
   2              		.eabi_attribute 27, 1
   3              		.eabi_attribute 28, 1
   4              		.eabi_attribute 20, 1
   5              		.eabi_attribute 21, 1
   6              		.eabi_attribute 23, 3
   7              		.eabi_attribute 24, 1
   8              		.eabi_attribute 25, 1
   9              		.eabi_attribute 26, 1
  10              		.eabi_attribute 30, 6
  11              		.eabi_attribute 34, 1
  12              		.eabi_attribute 18, 4
  13              		.file	"stm32f3xx_hal_i2c.c"
  14              		.text
  15              	.Ltext0:
  16              		.cfi_sections	.debug_frame
  17              		.section	.rodata.CHANNEL_OFFSET_TAB,"a",%progbits
  18              		.align	2
  21              	CHANNEL_OFFSET_TAB:
  22 0000 08       		.byte	8
  23 0001 1C       		.byte	28
  24 0002 30       		.byte	48
  25 0003 44       		.byte	68
  26 0004 58       		.byte	88
  27 0005 6C       		.byte	108
  28 0006 80       		.byte	-128
  29              		.section	.text.HAL_I2C_Init,"ax",%progbits
  30              		.align	1
  31              		.global	HAL_I2C_Init
  32              		.syntax unified
  33              		.thumb
  34              		.thumb_func
  35              		.fpu fpv4-sp-d16
  37              	HAL_I2C_Init:
  38              	.LFB695:
  39              		.file 1 "Drivers/STM32F3xx_HAL_Driver/Src/stm32f3xx_hal_i2c.c"
   1:Drivers/STM32F3xx_HAL_Driver/Src/stm32f3xx_hal_i2c.c **** /**
   2:Drivers/STM32F3xx_HAL_Driver/Src/stm32f3xx_hal_i2c.c ****   ******************************************************************************
   3:Drivers/STM32F3xx_HAL_Driver/Src/stm32f3xx_hal_i2c.c ****   * @file    stm32f3xx_hal_i2c.c
   4:Drivers/STM32F3xx_HAL_Driver/Src/stm32f3xx_hal_i2c.c ****   * @author  MCD Application Team
   5:Drivers/STM32F3xx_HAL_Driver/Src/stm32f3xx_hal_i2c.c ****   * @brief   I2C HAL module driver.
   6:Drivers/STM32F3xx_HAL_Driver/Src/stm32f3xx_hal_i2c.c ****   *          This file provides firmware functions to manage the following
   7:Drivers/STM32F3xx_HAL_Driver/Src/stm32f3xx_hal_i2c.c ****   *          functionalities of the Inter Integrated Circuit (I2C) peripheral:
   8:Drivers/STM32F3xx_HAL_Driver/Src/stm32f3xx_hal_i2c.c ****   *           + Initialization and de-initialization functions
   9:Drivers/STM32F3xx_HAL_Driver/Src/stm32f3xx_hal_i2c.c ****   *           + IO operation functions
  10:Drivers/STM32F3xx_HAL_Driver/Src/stm32f3xx_hal_i2c.c ****   *           + Peripheral State and Errors functions
  11:Drivers/STM32F3xx_HAL_Driver/Src/stm32f3xx_hal_i2c.c ****   *
  12:Drivers/STM32F3xx_HAL_Driver/Src/stm32f3xx_hal_i2c.c ****   @verbatim
  13:Drivers/STM32F3xx_HAL_Driver/Src/stm32f3xx_hal_i2c.c ****   ==============================================================================
  14:Drivers/STM32F3xx_HAL_Driver/Src/stm32f3xx_hal_i2c.c ****                         ##### How to use this driver #####
  15:Drivers/STM32F3xx_HAL_Driver/Src/stm32f3xx_hal_i2c.c ****   ==============================================================================
  16:Drivers/STM32F3xx_HAL_Driver/Src/stm32f3xx_hal_i2c.c ****     [..]
  17:Drivers/STM32F3xx_HAL_Driver/Src/stm32f3xx_hal_i2c.c ****     The I2C HAL driver can be used as follows:
  18:Drivers/STM32F3xx_HAL_Driver/Src/stm32f3xx_hal_i2c.c **** 
  19:Drivers/STM32F3xx_HAL_Driver/Src/stm32f3xx_hal_i2c.c ****     (#) Declare a I2C_HandleTypeDef handle structure, for example:
  20:Drivers/STM32F3xx_HAL_Driver/Src/stm32f3xx_hal_i2c.c ****         I2C_HandleTypeDef  hi2c;
  21:Drivers/STM32F3xx_HAL_Driver/Src/stm32f3xx_hal_i2c.c **** 
ARM GAS  /tmp/ccy0jiyr.s 			page 2


  22:Drivers/STM32F3xx_HAL_Driver/Src/stm32f3xx_hal_i2c.c ****     (#)Initialize the I2C low level resources by implementing the HAL_I2C_MspInit() API:
  23:Drivers/STM32F3xx_HAL_Driver/Src/stm32f3xx_hal_i2c.c ****         (##) Enable the I2Cx interface clock
  24:Drivers/STM32F3xx_HAL_Driver/Src/stm32f3xx_hal_i2c.c ****         (##) I2C pins configuration
  25:Drivers/STM32F3xx_HAL_Driver/Src/stm32f3xx_hal_i2c.c ****             (+++) Enable the clock for the I2C GPIOs
  26:Drivers/STM32F3xx_HAL_Driver/Src/stm32f3xx_hal_i2c.c ****             (+++) Configure I2C pins as alternate function open-drain
  27:Drivers/STM32F3xx_HAL_Driver/Src/stm32f3xx_hal_i2c.c ****         (##) NVIC configuration if you need to use interrupt process
  28:Drivers/STM32F3xx_HAL_Driver/Src/stm32f3xx_hal_i2c.c ****             (+++) Configure the I2Cx interrupt priority
  29:Drivers/STM32F3xx_HAL_Driver/Src/stm32f3xx_hal_i2c.c ****             (+++) Enable the NVIC I2C IRQ Channel
  30:Drivers/STM32F3xx_HAL_Driver/Src/stm32f3xx_hal_i2c.c ****         (##) DMA Configuration if you need to use DMA process
  31:Drivers/STM32F3xx_HAL_Driver/Src/stm32f3xx_hal_i2c.c ****             (+++) Declare a DMA_HandleTypeDef handle structure for the transmit or receive channel
  32:Drivers/STM32F3xx_HAL_Driver/Src/stm32f3xx_hal_i2c.c ****             (+++) Enable the DMAx interface clock using
  33:Drivers/STM32F3xx_HAL_Driver/Src/stm32f3xx_hal_i2c.c ****             (+++) Configure the DMA handle parameters
  34:Drivers/STM32F3xx_HAL_Driver/Src/stm32f3xx_hal_i2c.c ****             (+++) Configure the DMA Tx or Rx channel
  35:Drivers/STM32F3xx_HAL_Driver/Src/stm32f3xx_hal_i2c.c ****             (+++) Associate the initialized DMA handle to the hi2c DMA Tx or Rx handle
  36:Drivers/STM32F3xx_HAL_Driver/Src/stm32f3xx_hal_i2c.c ****             (+++) Configure the priority and enable the NVIC for the transfer complete interrupt on
  37:Drivers/STM32F3xx_HAL_Driver/Src/stm32f3xx_hal_i2c.c ****                   the DMA Tx or Rx channel
  38:Drivers/STM32F3xx_HAL_Driver/Src/stm32f3xx_hal_i2c.c **** 
  39:Drivers/STM32F3xx_HAL_Driver/Src/stm32f3xx_hal_i2c.c ****     (#) Configure the Communication Clock Timing, Own Address1, Master Addressing mode, Dual Addres
  40:Drivers/STM32F3xx_HAL_Driver/Src/stm32f3xx_hal_i2c.c ****         Own Address2, Own Address2 Mask, General call and Nostretch mode in the hi2c Init structure
  41:Drivers/STM32F3xx_HAL_Driver/Src/stm32f3xx_hal_i2c.c **** 
  42:Drivers/STM32F3xx_HAL_Driver/Src/stm32f3xx_hal_i2c.c ****     (#) Initialize the I2C registers by calling the HAL_I2C_Init(), configures also the low level H
  43:Drivers/STM32F3xx_HAL_Driver/Src/stm32f3xx_hal_i2c.c ****         (GPIO, CLOCK, NVIC...etc) by calling the customized HAL_I2C_MspInit(&hi2c) API.
  44:Drivers/STM32F3xx_HAL_Driver/Src/stm32f3xx_hal_i2c.c **** 
  45:Drivers/STM32F3xx_HAL_Driver/Src/stm32f3xx_hal_i2c.c ****     (#) To check if target device is ready for communication, use the function HAL_I2C_IsDeviceRead
  46:Drivers/STM32F3xx_HAL_Driver/Src/stm32f3xx_hal_i2c.c **** 
  47:Drivers/STM32F3xx_HAL_Driver/Src/stm32f3xx_hal_i2c.c ****     (#) For I2C IO and IO MEM operations, three operation modes are available within this driver :
  48:Drivers/STM32F3xx_HAL_Driver/Src/stm32f3xx_hal_i2c.c **** 
  49:Drivers/STM32F3xx_HAL_Driver/Src/stm32f3xx_hal_i2c.c ****     *** Polling mode IO operation ***
  50:Drivers/STM32F3xx_HAL_Driver/Src/stm32f3xx_hal_i2c.c ****     =================================
  51:Drivers/STM32F3xx_HAL_Driver/Src/stm32f3xx_hal_i2c.c ****     [..]
  52:Drivers/STM32F3xx_HAL_Driver/Src/stm32f3xx_hal_i2c.c ****       (+) Transmit in master mode an amount of data in blocking mode using HAL_I2C_Master_Transmit(
  53:Drivers/STM32F3xx_HAL_Driver/Src/stm32f3xx_hal_i2c.c ****       (+) Receive in master mode an amount of data in blocking mode using HAL_I2C_Master_Receive()
  54:Drivers/STM32F3xx_HAL_Driver/Src/stm32f3xx_hal_i2c.c ****       (+) Transmit in slave mode an amount of data in blocking mode using HAL_I2C_Slave_Transmit()
  55:Drivers/STM32F3xx_HAL_Driver/Src/stm32f3xx_hal_i2c.c ****       (+) Receive in slave mode an amount of data in blocking mode using HAL_I2C_Slave_Receive()
  56:Drivers/STM32F3xx_HAL_Driver/Src/stm32f3xx_hal_i2c.c **** 
  57:Drivers/STM32F3xx_HAL_Driver/Src/stm32f3xx_hal_i2c.c ****     *** Polling mode IO MEM operation ***
  58:Drivers/STM32F3xx_HAL_Driver/Src/stm32f3xx_hal_i2c.c ****     =====================================
  59:Drivers/STM32F3xx_HAL_Driver/Src/stm32f3xx_hal_i2c.c ****     [..]
  60:Drivers/STM32F3xx_HAL_Driver/Src/stm32f3xx_hal_i2c.c ****       (+) Write an amount of data in blocking mode to a specific memory address using HAL_I2C_Mem_W
  61:Drivers/STM32F3xx_HAL_Driver/Src/stm32f3xx_hal_i2c.c ****       (+) Read an amount of data in blocking mode from a specific memory address using HAL_I2C_Mem_
  62:Drivers/STM32F3xx_HAL_Driver/Src/stm32f3xx_hal_i2c.c **** 
  63:Drivers/STM32F3xx_HAL_Driver/Src/stm32f3xx_hal_i2c.c **** 
  64:Drivers/STM32F3xx_HAL_Driver/Src/stm32f3xx_hal_i2c.c ****     *** Interrupt mode IO operation ***
  65:Drivers/STM32F3xx_HAL_Driver/Src/stm32f3xx_hal_i2c.c ****     ===================================
  66:Drivers/STM32F3xx_HAL_Driver/Src/stm32f3xx_hal_i2c.c ****     [..]
  67:Drivers/STM32F3xx_HAL_Driver/Src/stm32f3xx_hal_i2c.c ****       (+) Transmit in master mode an amount of data in non-blocking mode using HAL_I2C_Master_Trans
  68:Drivers/STM32F3xx_HAL_Driver/Src/stm32f3xx_hal_i2c.c ****       (+) At transmission end of transfer, HAL_I2C_MasterTxCpltCallback() is executed and user can
  69:Drivers/STM32F3xx_HAL_Driver/Src/stm32f3xx_hal_i2c.c ****            add his own code by customization of function pointer HAL_I2C_MasterTxCpltCallback()
  70:Drivers/STM32F3xx_HAL_Driver/Src/stm32f3xx_hal_i2c.c ****       (+) Receive in master mode an amount of data in non-blocking mode using HAL_I2C_Master_Receiv
  71:Drivers/STM32F3xx_HAL_Driver/Src/stm32f3xx_hal_i2c.c ****       (+) At reception end of transfer, HAL_I2C_MasterRxCpltCallback() is executed and user can
  72:Drivers/STM32F3xx_HAL_Driver/Src/stm32f3xx_hal_i2c.c ****            add his own code by customization of function pointer HAL_I2C_MasterRxCpltCallback()
  73:Drivers/STM32F3xx_HAL_Driver/Src/stm32f3xx_hal_i2c.c ****       (+) Transmit in slave mode an amount of data in non-blocking mode using HAL_I2C_Slave_Transmi
  74:Drivers/STM32F3xx_HAL_Driver/Src/stm32f3xx_hal_i2c.c ****       (+) At transmission end of transfer, HAL_I2C_SlaveTxCpltCallback() is executed and user can
  75:Drivers/STM32F3xx_HAL_Driver/Src/stm32f3xx_hal_i2c.c ****            add his own code by customization of function pointer HAL_I2C_SlaveTxCpltCallback()
  76:Drivers/STM32F3xx_HAL_Driver/Src/stm32f3xx_hal_i2c.c ****       (+) Receive in slave mode an amount of data in non-blocking mode using HAL_I2C_Slave_Receive_
  77:Drivers/STM32F3xx_HAL_Driver/Src/stm32f3xx_hal_i2c.c ****       (+) At reception end of transfer, HAL_I2C_SlaveRxCpltCallback() is executed and user can
  78:Drivers/STM32F3xx_HAL_Driver/Src/stm32f3xx_hal_i2c.c ****            add his own code by customization of function pointer HAL_I2C_SlaveRxCpltCallback()
ARM GAS  /tmp/ccy0jiyr.s 			page 3


  79:Drivers/STM32F3xx_HAL_Driver/Src/stm32f3xx_hal_i2c.c ****       (+) In case of transfer Error, HAL_I2C_ErrorCallback() function is executed and user can
  80:Drivers/STM32F3xx_HAL_Driver/Src/stm32f3xx_hal_i2c.c ****            add his own code by customization of function pointer HAL_I2C_ErrorCallback()
  81:Drivers/STM32F3xx_HAL_Driver/Src/stm32f3xx_hal_i2c.c ****       (+) Abort a master I2C process communication with Interrupt using HAL_I2C_Master_Abort_IT()
  82:Drivers/STM32F3xx_HAL_Driver/Src/stm32f3xx_hal_i2c.c ****       (+) End of abort process, HAL_I2C_AbortCpltCallback() is executed and user can
  83:Drivers/STM32F3xx_HAL_Driver/Src/stm32f3xx_hal_i2c.c ****            add his own code by customization of function pointer HAL_I2C_AbortCpltCallback()
  84:Drivers/STM32F3xx_HAL_Driver/Src/stm32f3xx_hal_i2c.c ****       (+) Discard a slave I2C process communication using __HAL_I2C_GENERATE_NACK() macro.
  85:Drivers/STM32F3xx_HAL_Driver/Src/stm32f3xx_hal_i2c.c ****            This action will inform Master to generate a Stop condition to discard the communication
  86:Drivers/STM32F3xx_HAL_Driver/Src/stm32f3xx_hal_i2c.c **** 
  87:Drivers/STM32F3xx_HAL_Driver/Src/stm32f3xx_hal_i2c.c **** 
  88:Drivers/STM32F3xx_HAL_Driver/Src/stm32f3xx_hal_i2c.c ****     *** Interrupt mode IO sequential operation ***
  89:Drivers/STM32F3xx_HAL_Driver/Src/stm32f3xx_hal_i2c.c ****     ==============================================
  90:Drivers/STM32F3xx_HAL_Driver/Src/stm32f3xx_hal_i2c.c ****     [..]
  91:Drivers/STM32F3xx_HAL_Driver/Src/stm32f3xx_hal_i2c.c ****       (@) These interfaces allow to manage a sequential transfer with a repeated start condition
  92:Drivers/STM32F3xx_HAL_Driver/Src/stm32f3xx_hal_i2c.c ****           when a direction change during transfer
  93:Drivers/STM32F3xx_HAL_Driver/Src/stm32f3xx_hal_i2c.c ****     [..]
  94:Drivers/STM32F3xx_HAL_Driver/Src/stm32f3xx_hal_i2c.c ****       (+) A specific option field manage the different steps of a sequential transfer
  95:Drivers/STM32F3xx_HAL_Driver/Src/stm32f3xx_hal_i2c.c ****       (+) Option field values are defined through @ref I2C_XFEROPTIONS and are listed below:
  96:Drivers/STM32F3xx_HAL_Driver/Src/stm32f3xx_hal_i2c.c ****       (++) I2C_FIRST_AND_LAST_FRAME: No sequential usage, functionnal is same as associated interfa
  97:Drivers/STM32F3xx_HAL_Driver/Src/stm32f3xx_hal_i2c.c ****       (++) I2C_FIRST_FRAME: Sequential usage, this option allow to manage a sequence with start con
  98:Drivers/STM32F3xx_HAL_Driver/Src/stm32f3xx_hal_i2c.c ****                             and data to transfer without a final stop condition
  99:Drivers/STM32F3xx_HAL_Driver/Src/stm32f3xx_hal_i2c.c ****       (++) I2C_FIRST_AND_NEXT_FRAME: Sequential usage (Master only), this option allow to manage a 
 100:Drivers/STM32F3xx_HAL_Driver/Src/stm32f3xx_hal_i2c.c ****                             and data to transfer without a final stop condition, an then permit a c
 101:Drivers/STM32F3xx_HAL_Driver/Src/stm32f3xx_hal_i2c.c ****                             several times (like HAL_I2C_Master_Sequential_Transmit_IT() then HAL_I2
 102:Drivers/STM32F3xx_HAL_Driver/Src/stm32f3xx_hal_i2c.c ****       (++) I2C_NEXT_FRAME: Sequential usage, this option allow to manage a sequence with a restart 
 103:Drivers/STM32F3xx_HAL_Driver/Src/stm32f3xx_hal_i2c.c ****                             and with new data to transfer if the direction change or manage only th
 104:Drivers/STM32F3xx_HAL_Driver/Src/stm32f3xx_hal_i2c.c ****                             if no direction change and without a final stop condition in both cases
 105:Drivers/STM32F3xx_HAL_Driver/Src/stm32f3xx_hal_i2c.c ****       (++) I2C_LAST_FRAME: Sequential usage, this option allow to manage a sequance with a restart 
 106:Drivers/STM32F3xx_HAL_Driver/Src/stm32f3xx_hal_i2c.c ****                             and with new data to transfer if the direction change or manage only th
 107:Drivers/STM32F3xx_HAL_Driver/Src/stm32f3xx_hal_i2c.c ****                             if no direction change and with a final stop condition in both cases
 108:Drivers/STM32F3xx_HAL_Driver/Src/stm32f3xx_hal_i2c.c **** 
 109:Drivers/STM32F3xx_HAL_Driver/Src/stm32f3xx_hal_i2c.c ****       (+) Differents sequential I2C interfaces are listed below:
 110:Drivers/STM32F3xx_HAL_Driver/Src/stm32f3xx_hal_i2c.c ****       (++) Sequential transmit in master I2C mode an amount of data in non-blocking mode using HAL_
 111:Drivers/STM32F3xx_HAL_Driver/Src/stm32f3xx_hal_i2c.c ****       (+++) At transmission end of current frame transfer, HAL_I2C_MasterTxCpltCallback() is execut
 112:Drivers/STM32F3xx_HAL_Driver/Src/stm32f3xx_hal_i2c.c ****            add his own code by customization of function pointer HAL_I2C_MasterTxCpltCallback()
 113:Drivers/STM32F3xx_HAL_Driver/Src/stm32f3xx_hal_i2c.c ****       (++) Sequential receive in master I2C mode an amount of data in non-blocking mode using HAL_I
 114:Drivers/STM32F3xx_HAL_Driver/Src/stm32f3xx_hal_i2c.c ****       (+++) At reception end of current frame transfer, HAL_I2C_MasterRxCpltCallback() is executed 
 115:Drivers/STM32F3xx_HAL_Driver/Src/stm32f3xx_hal_i2c.c ****            add his own code by customization of function pointer HAL_I2C_MasterRxCpltCallback()
 116:Drivers/STM32F3xx_HAL_Driver/Src/stm32f3xx_hal_i2c.c ****       (++) Abort a master I2C process communication with Interrupt using HAL_I2C_Master_Abort_IT()
 117:Drivers/STM32F3xx_HAL_Driver/Src/stm32f3xx_hal_i2c.c ****       (+++) End of abort process, HAL_I2C_AbortCpltCallback() is executed and user can
 118:Drivers/STM32F3xx_HAL_Driver/Src/stm32f3xx_hal_i2c.c ****            add his own code by customization of function pointer HAL_I2C_AbortCpltCallback()
 119:Drivers/STM32F3xx_HAL_Driver/Src/stm32f3xx_hal_i2c.c ****       (++) Enable/disable the Address listen mode in slave I2C mode using HAL_I2C_EnableListen_IT()
 120:Drivers/STM32F3xx_HAL_Driver/Src/stm32f3xx_hal_i2c.c ****       (+++) When address slave I2C match, HAL_I2C_AddrCallback() is executed and user can
 121:Drivers/STM32F3xx_HAL_Driver/Src/stm32f3xx_hal_i2c.c ****            add his own code to check the Address Match Code and the transmission direction request 
 122:Drivers/STM32F3xx_HAL_Driver/Src/stm32f3xx_hal_i2c.c ****       (+++) At Listen mode end HAL_I2C_ListenCpltCallback() is executed and user can
 123:Drivers/STM32F3xx_HAL_Driver/Src/stm32f3xx_hal_i2c.c ****            add his own code by customization of function pointer HAL_I2C_ListenCpltCallback()
 124:Drivers/STM32F3xx_HAL_Driver/Src/stm32f3xx_hal_i2c.c ****       (++) Sequential transmit in slave I2C mode an amount of data in non-blocking mode using HAL_I
 125:Drivers/STM32F3xx_HAL_Driver/Src/stm32f3xx_hal_i2c.c ****       (+++) At transmission end of current frame transfer, HAL_I2C_SlaveTxCpltCallback() is execute
 126:Drivers/STM32F3xx_HAL_Driver/Src/stm32f3xx_hal_i2c.c ****            add his own code by customization of function pointer HAL_I2C_SlaveTxCpltCallback()
 127:Drivers/STM32F3xx_HAL_Driver/Src/stm32f3xx_hal_i2c.c ****       (++) Sequential receive in slave I2C mode an amount of data in non-blocking mode using HAL_I2
 128:Drivers/STM32F3xx_HAL_Driver/Src/stm32f3xx_hal_i2c.c ****       (+++) At reception end of current frame transfer, HAL_I2C_SlaveRxCpltCallback() is executed a
 129:Drivers/STM32F3xx_HAL_Driver/Src/stm32f3xx_hal_i2c.c ****            add his own code by customization of function pointer HAL_I2C_SlaveRxCpltCallback()
 130:Drivers/STM32F3xx_HAL_Driver/Src/stm32f3xx_hal_i2c.c ****       (++) In case of transfer Error, HAL_I2C_ErrorCallback() function is executed and user can
 131:Drivers/STM32F3xx_HAL_Driver/Src/stm32f3xx_hal_i2c.c ****            add his own code by customization of function pointer HAL_I2C_ErrorCallback()
 132:Drivers/STM32F3xx_HAL_Driver/Src/stm32f3xx_hal_i2c.c ****       (++) Abort a master I2C process communication with Interrupt using HAL_I2C_Master_Abort_IT()
 133:Drivers/STM32F3xx_HAL_Driver/Src/stm32f3xx_hal_i2c.c ****       (++) End of abort process, HAL_I2C_AbortCpltCallback() is executed and user can
 134:Drivers/STM32F3xx_HAL_Driver/Src/stm32f3xx_hal_i2c.c ****            add his own code by customization of function pointer HAL_I2C_AbortCpltCallback()
 135:Drivers/STM32F3xx_HAL_Driver/Src/stm32f3xx_hal_i2c.c ****       (++) Discard a slave I2C process communication using __HAL_I2C_GENERATE_NACK() macro.
ARM GAS  /tmp/ccy0jiyr.s 			page 4


 136:Drivers/STM32F3xx_HAL_Driver/Src/stm32f3xx_hal_i2c.c ****            This action will inform Master to generate a Stop condition to discard the communication
 137:Drivers/STM32F3xx_HAL_Driver/Src/stm32f3xx_hal_i2c.c **** 
 138:Drivers/STM32F3xx_HAL_Driver/Src/stm32f3xx_hal_i2c.c ****     *** Interrupt mode IO MEM operation ***
 139:Drivers/STM32F3xx_HAL_Driver/Src/stm32f3xx_hal_i2c.c ****     =======================================
 140:Drivers/STM32F3xx_HAL_Driver/Src/stm32f3xx_hal_i2c.c ****     [..]
 141:Drivers/STM32F3xx_HAL_Driver/Src/stm32f3xx_hal_i2c.c ****       (+) Write an amount of data in non-blocking mode with Interrupt to a specific memory address 
 142:Drivers/STM32F3xx_HAL_Driver/Src/stm32f3xx_hal_i2c.c ****           HAL_I2C_Mem_Write_IT()
 143:Drivers/STM32F3xx_HAL_Driver/Src/stm32f3xx_hal_i2c.c ****       (+) At Memory end of write transfer, HAL_I2C_MemTxCpltCallback() is executed and user can
 144:Drivers/STM32F3xx_HAL_Driver/Src/stm32f3xx_hal_i2c.c ****            add his own code by customization of function pointer HAL_I2C_MemTxCpltCallback()
 145:Drivers/STM32F3xx_HAL_Driver/Src/stm32f3xx_hal_i2c.c ****       (+) Read an amount of data in non-blocking mode with Interrupt from a specific memory address
 146:Drivers/STM32F3xx_HAL_Driver/Src/stm32f3xx_hal_i2c.c ****           HAL_I2C_Mem_Read_IT()
 147:Drivers/STM32F3xx_HAL_Driver/Src/stm32f3xx_hal_i2c.c ****       (+) At Memory end of read transfer, HAL_I2C_MemRxCpltCallback() is executed and user can
 148:Drivers/STM32F3xx_HAL_Driver/Src/stm32f3xx_hal_i2c.c ****            add his own code by customization of function pointer HAL_I2C_MemRxCpltCallback()
 149:Drivers/STM32F3xx_HAL_Driver/Src/stm32f3xx_hal_i2c.c ****       (+) In case of transfer Error, HAL_I2C_ErrorCallback() function is executed and user can
 150:Drivers/STM32F3xx_HAL_Driver/Src/stm32f3xx_hal_i2c.c ****            add his own code by customization of function pointer HAL_I2C_ErrorCallback()
 151:Drivers/STM32F3xx_HAL_Driver/Src/stm32f3xx_hal_i2c.c **** 
 152:Drivers/STM32F3xx_HAL_Driver/Src/stm32f3xx_hal_i2c.c ****     *** DMA mode IO operation ***
 153:Drivers/STM32F3xx_HAL_Driver/Src/stm32f3xx_hal_i2c.c ****     ==============================
 154:Drivers/STM32F3xx_HAL_Driver/Src/stm32f3xx_hal_i2c.c ****     [..]
 155:Drivers/STM32F3xx_HAL_Driver/Src/stm32f3xx_hal_i2c.c ****       (+) Transmit in master mode an amount of data in non-blocking mode (DMA) using
 156:Drivers/STM32F3xx_HAL_Driver/Src/stm32f3xx_hal_i2c.c ****           HAL_I2C_Master_Transmit_DMA()
 157:Drivers/STM32F3xx_HAL_Driver/Src/stm32f3xx_hal_i2c.c ****       (+) At transmission end of transfer, HAL_I2C_MasterTxCpltCallback() is executed and user can
 158:Drivers/STM32F3xx_HAL_Driver/Src/stm32f3xx_hal_i2c.c ****            add his own code by customization of function pointer HAL_I2C_MasterTxCpltCallback()
 159:Drivers/STM32F3xx_HAL_Driver/Src/stm32f3xx_hal_i2c.c ****       (+) Receive in master mode an amount of data in non-blocking mode (DMA) using
 160:Drivers/STM32F3xx_HAL_Driver/Src/stm32f3xx_hal_i2c.c ****           HAL_I2C_Master_Receive_DMA()
 161:Drivers/STM32F3xx_HAL_Driver/Src/stm32f3xx_hal_i2c.c ****       (+) At reception end of transfer, HAL_I2C_MasterRxCpltCallback() is executed and user can
 162:Drivers/STM32F3xx_HAL_Driver/Src/stm32f3xx_hal_i2c.c ****            add his own code by customization of function pointer HAL_I2C_MasterRxCpltCallback()
 163:Drivers/STM32F3xx_HAL_Driver/Src/stm32f3xx_hal_i2c.c ****       (+) Transmit in slave mode an amount of data in non-blocking mode (DMA) using
 164:Drivers/STM32F3xx_HAL_Driver/Src/stm32f3xx_hal_i2c.c ****           HAL_I2C_Slave_Transmit_DMA()
 165:Drivers/STM32F3xx_HAL_Driver/Src/stm32f3xx_hal_i2c.c ****       (+) At transmission end of transfer, HAL_I2C_SlaveTxCpltCallback() is executed and user can
 166:Drivers/STM32F3xx_HAL_Driver/Src/stm32f3xx_hal_i2c.c ****            add his own code by customization of function pointer HAL_I2C_SlaveTxCpltCallback()
 167:Drivers/STM32F3xx_HAL_Driver/Src/stm32f3xx_hal_i2c.c ****       (+) Receive in slave mode an amount of data in non-blocking mode (DMA) using
 168:Drivers/STM32F3xx_HAL_Driver/Src/stm32f3xx_hal_i2c.c ****           HAL_I2C_Slave_Receive_DMA()
 169:Drivers/STM32F3xx_HAL_Driver/Src/stm32f3xx_hal_i2c.c ****       (+) At reception end of transfer, HAL_I2C_SlaveRxCpltCallback() is executed and user can
 170:Drivers/STM32F3xx_HAL_Driver/Src/stm32f3xx_hal_i2c.c ****            add his own code by customization of function pointer HAL_I2C_SlaveRxCpltCallback()
 171:Drivers/STM32F3xx_HAL_Driver/Src/stm32f3xx_hal_i2c.c ****       (+) In case of transfer Error, HAL_I2C_ErrorCallback() function is executed and user can
 172:Drivers/STM32F3xx_HAL_Driver/Src/stm32f3xx_hal_i2c.c ****            add his own code by customization of function pointer HAL_I2C_ErrorCallback()
 173:Drivers/STM32F3xx_HAL_Driver/Src/stm32f3xx_hal_i2c.c ****       (+) Abort a master I2C process communication with Interrupt using HAL_I2C_Master_Abort_IT()
 174:Drivers/STM32F3xx_HAL_Driver/Src/stm32f3xx_hal_i2c.c ****       (+) End of abort process, HAL_I2C_AbortCpltCallback() is executed and user can
 175:Drivers/STM32F3xx_HAL_Driver/Src/stm32f3xx_hal_i2c.c ****            add his own code by customization of function pointer HAL_I2C_AbortCpltCallback()
 176:Drivers/STM32F3xx_HAL_Driver/Src/stm32f3xx_hal_i2c.c ****       (+) Discard a slave I2C process communication using __HAL_I2C_GENERATE_NACK() macro.
 177:Drivers/STM32F3xx_HAL_Driver/Src/stm32f3xx_hal_i2c.c ****            This action will inform Master to generate a Stop condition to discard the communication
 178:Drivers/STM32F3xx_HAL_Driver/Src/stm32f3xx_hal_i2c.c **** 
 179:Drivers/STM32F3xx_HAL_Driver/Src/stm32f3xx_hal_i2c.c ****     *** DMA mode IO MEM operation ***
 180:Drivers/STM32F3xx_HAL_Driver/Src/stm32f3xx_hal_i2c.c ****     =================================
 181:Drivers/STM32F3xx_HAL_Driver/Src/stm32f3xx_hal_i2c.c ****     [..]
 182:Drivers/STM32F3xx_HAL_Driver/Src/stm32f3xx_hal_i2c.c ****       (+) Write an amount of data in non-blocking mode with DMA to a specific memory address using
 183:Drivers/STM32F3xx_HAL_Driver/Src/stm32f3xx_hal_i2c.c ****           HAL_I2C_Mem_Write_DMA()
 184:Drivers/STM32F3xx_HAL_Driver/Src/stm32f3xx_hal_i2c.c ****       (+) At Memory end of write transfer, HAL_I2C_MemTxCpltCallback() is executed and user can
 185:Drivers/STM32F3xx_HAL_Driver/Src/stm32f3xx_hal_i2c.c ****            add his own code by customization of function pointer HAL_I2C_MemTxCpltCallback()
 186:Drivers/STM32F3xx_HAL_Driver/Src/stm32f3xx_hal_i2c.c ****       (+) Read an amount of data in non-blocking mode with DMA from a specific memory address using
 187:Drivers/STM32F3xx_HAL_Driver/Src/stm32f3xx_hal_i2c.c ****           HAL_I2C_Mem_Read_DMA()
 188:Drivers/STM32F3xx_HAL_Driver/Src/stm32f3xx_hal_i2c.c ****       (+) At Memory end of read transfer, HAL_I2C_MemRxCpltCallback() is executed and user can
 189:Drivers/STM32F3xx_HAL_Driver/Src/stm32f3xx_hal_i2c.c ****            add his own code by customization of function pointer HAL_I2C_MemRxCpltCallback()
 190:Drivers/STM32F3xx_HAL_Driver/Src/stm32f3xx_hal_i2c.c ****       (+) In case of transfer Error, HAL_I2C_ErrorCallback() function is executed and user can
 191:Drivers/STM32F3xx_HAL_Driver/Src/stm32f3xx_hal_i2c.c ****            add his own code by customization of function pointer HAL_I2C_ErrorCallback()
 192:Drivers/STM32F3xx_HAL_Driver/Src/stm32f3xx_hal_i2c.c **** 
ARM GAS  /tmp/ccy0jiyr.s 			page 5


 193:Drivers/STM32F3xx_HAL_Driver/Src/stm32f3xx_hal_i2c.c **** 
 194:Drivers/STM32F3xx_HAL_Driver/Src/stm32f3xx_hal_i2c.c ****      *** I2C HAL driver macros list ***
 195:Drivers/STM32F3xx_HAL_Driver/Src/stm32f3xx_hal_i2c.c ****      ==================================
 196:Drivers/STM32F3xx_HAL_Driver/Src/stm32f3xx_hal_i2c.c ****      [..]
 197:Drivers/STM32F3xx_HAL_Driver/Src/stm32f3xx_hal_i2c.c ****        Below the list of most used macros in I2C HAL driver.
 198:Drivers/STM32F3xx_HAL_Driver/Src/stm32f3xx_hal_i2c.c **** 
 199:Drivers/STM32F3xx_HAL_Driver/Src/stm32f3xx_hal_i2c.c ****       (+) __HAL_I2C_ENABLE: Enable the I2C peripheral
 200:Drivers/STM32F3xx_HAL_Driver/Src/stm32f3xx_hal_i2c.c ****       (+) __HAL_I2C_DISABLE: Disable the I2C peripheral
 201:Drivers/STM32F3xx_HAL_Driver/Src/stm32f3xx_hal_i2c.c ****       (+) __HAL_I2C_GENERATE_NACK: Generate a Non-Acknowledge I2C peripheral in Slave mode
 202:Drivers/STM32F3xx_HAL_Driver/Src/stm32f3xx_hal_i2c.c ****       (+) __HAL_I2C_GET_FLAG: Check whether the specified I2C flag is set or not
 203:Drivers/STM32F3xx_HAL_Driver/Src/stm32f3xx_hal_i2c.c ****       (+) __HAL_I2C_CLEAR_FLAG: Clear the specified I2C pending flag
 204:Drivers/STM32F3xx_HAL_Driver/Src/stm32f3xx_hal_i2c.c ****       (+) __HAL_I2C_ENABLE_IT: Enable the specified I2C interrupt
 205:Drivers/STM32F3xx_HAL_Driver/Src/stm32f3xx_hal_i2c.c ****       (+) __HAL_I2C_DISABLE_IT: Disable the specified I2C interrupt
 206:Drivers/STM32F3xx_HAL_Driver/Src/stm32f3xx_hal_i2c.c **** 
 207:Drivers/STM32F3xx_HAL_Driver/Src/stm32f3xx_hal_i2c.c ****      [..]
 208:Drivers/STM32F3xx_HAL_Driver/Src/stm32f3xx_hal_i2c.c ****        (@) You can refer to the I2C HAL driver header file for more useful macros
 209:Drivers/STM32F3xx_HAL_Driver/Src/stm32f3xx_hal_i2c.c **** 
 210:Drivers/STM32F3xx_HAL_Driver/Src/stm32f3xx_hal_i2c.c ****   @endverbatim
 211:Drivers/STM32F3xx_HAL_Driver/Src/stm32f3xx_hal_i2c.c ****   ******************************************************************************
 212:Drivers/STM32F3xx_HAL_Driver/Src/stm32f3xx_hal_i2c.c ****   * @attention
 213:Drivers/STM32F3xx_HAL_Driver/Src/stm32f3xx_hal_i2c.c ****   *
 214:Drivers/STM32F3xx_HAL_Driver/Src/stm32f3xx_hal_i2c.c ****   * <h2><center>&copy; COPYRIGHT(c) 2016 STMicroelectronics</center></h2>
 215:Drivers/STM32F3xx_HAL_Driver/Src/stm32f3xx_hal_i2c.c ****   *
 216:Drivers/STM32F3xx_HAL_Driver/Src/stm32f3xx_hal_i2c.c ****   * Redistribution and use in source and binary forms, with or without modification,
 217:Drivers/STM32F3xx_HAL_Driver/Src/stm32f3xx_hal_i2c.c ****   * are permitted provided that the following conditions are met:
 218:Drivers/STM32F3xx_HAL_Driver/Src/stm32f3xx_hal_i2c.c ****   *   1. Redistributions of source code must retain the above copyright notice,
 219:Drivers/STM32F3xx_HAL_Driver/Src/stm32f3xx_hal_i2c.c ****   *      this list of conditions and the following disclaimer.
 220:Drivers/STM32F3xx_HAL_Driver/Src/stm32f3xx_hal_i2c.c ****   *   2. Redistributions in binary form must reproduce the above copyright notice,
 221:Drivers/STM32F3xx_HAL_Driver/Src/stm32f3xx_hal_i2c.c ****   *      this list of conditions and the following disclaimer in the documentation
 222:Drivers/STM32F3xx_HAL_Driver/Src/stm32f3xx_hal_i2c.c ****   *      and/or other materials provided with the distribution.
 223:Drivers/STM32F3xx_HAL_Driver/Src/stm32f3xx_hal_i2c.c ****   *   3. Neither the name of STMicroelectronics nor the names of its contributors
 224:Drivers/STM32F3xx_HAL_Driver/Src/stm32f3xx_hal_i2c.c ****   *      may be used to endorse or promote products derived from this software
 225:Drivers/STM32F3xx_HAL_Driver/Src/stm32f3xx_hal_i2c.c ****   *      without specific prior written permission.
 226:Drivers/STM32F3xx_HAL_Driver/Src/stm32f3xx_hal_i2c.c ****   *
 227:Drivers/STM32F3xx_HAL_Driver/Src/stm32f3xx_hal_i2c.c ****   * THIS SOFTWARE IS PROVIDED BY THE COPYRIGHT HOLDERS AND CONTRIBUTORS "AS IS"
 228:Drivers/STM32F3xx_HAL_Driver/Src/stm32f3xx_hal_i2c.c ****   * AND ANY EXPRESS OR IMPLIED WARRANTIES, INCLUDING, BUT NOT LIMITED TO, THE
 229:Drivers/STM32F3xx_HAL_Driver/Src/stm32f3xx_hal_i2c.c ****   * IMPLIED WARRANTIES OF MERCHANTABILITY AND FITNESS FOR A PARTICULAR PURPOSE ARE
 230:Drivers/STM32F3xx_HAL_Driver/Src/stm32f3xx_hal_i2c.c ****   * DISCLAIMED. IN NO EVENT SHALL THE COPYRIGHT HOLDER OR CONTRIBUTORS BE LIABLE
 231:Drivers/STM32F3xx_HAL_Driver/Src/stm32f3xx_hal_i2c.c ****   * FOR ANY DIRECT, INDIRECT, INCIDENTAL, SPECIAL, EXEMPLARY, OR CONSEQUENTIAL
 232:Drivers/STM32F3xx_HAL_Driver/Src/stm32f3xx_hal_i2c.c ****   * DAMAGES (INCLUDING, BUT NOT LIMITED TO, PROCUREMENT OF SUBSTITUTE GOODS OR
 233:Drivers/STM32F3xx_HAL_Driver/Src/stm32f3xx_hal_i2c.c ****   * SERVICES; LOSS OF USE, DATA, OR PROFITS; OR BUSINESS INTERRUPTION) HOWEVER
 234:Drivers/STM32F3xx_HAL_Driver/Src/stm32f3xx_hal_i2c.c ****   * CAUSED AND ON ANY THEORY OF LIABILITY, WHETHER IN CONTRACT, STRICT LIABILITY,
 235:Drivers/STM32F3xx_HAL_Driver/Src/stm32f3xx_hal_i2c.c ****   * OR TORT (INCLUDING NEGLIGENCE OR OTHERWISE) ARISING IN ANY WAY OUT OF THE USE
 236:Drivers/STM32F3xx_HAL_Driver/Src/stm32f3xx_hal_i2c.c ****   * OF THIS SOFTWARE, EVEN IF ADVISED OF THE POSSIBILITY OF SUCH DAMAGE.
 237:Drivers/STM32F3xx_HAL_Driver/Src/stm32f3xx_hal_i2c.c ****   *
 238:Drivers/STM32F3xx_HAL_Driver/Src/stm32f3xx_hal_i2c.c ****   ******************************************************************************
 239:Drivers/STM32F3xx_HAL_Driver/Src/stm32f3xx_hal_i2c.c ****   */
 240:Drivers/STM32F3xx_HAL_Driver/Src/stm32f3xx_hal_i2c.c **** 
 241:Drivers/STM32F3xx_HAL_Driver/Src/stm32f3xx_hal_i2c.c **** /* Includes ------------------------------------------------------------------*/
 242:Drivers/STM32F3xx_HAL_Driver/Src/stm32f3xx_hal_i2c.c **** #include "stm32f3xx_hal.h"
 243:Drivers/STM32F3xx_HAL_Driver/Src/stm32f3xx_hal_i2c.c **** 
 244:Drivers/STM32F3xx_HAL_Driver/Src/stm32f3xx_hal_i2c.c **** /** @addtogroup STM32F3xx_HAL_Driver
 245:Drivers/STM32F3xx_HAL_Driver/Src/stm32f3xx_hal_i2c.c ****   * @{
 246:Drivers/STM32F3xx_HAL_Driver/Src/stm32f3xx_hal_i2c.c ****   */
 247:Drivers/STM32F3xx_HAL_Driver/Src/stm32f3xx_hal_i2c.c **** 
 248:Drivers/STM32F3xx_HAL_Driver/Src/stm32f3xx_hal_i2c.c **** /** @defgroup I2C I2C
 249:Drivers/STM32F3xx_HAL_Driver/Src/stm32f3xx_hal_i2c.c ****   * @brief I2C HAL module driver
ARM GAS  /tmp/ccy0jiyr.s 			page 6


 250:Drivers/STM32F3xx_HAL_Driver/Src/stm32f3xx_hal_i2c.c ****   * @{
 251:Drivers/STM32F3xx_HAL_Driver/Src/stm32f3xx_hal_i2c.c ****   */
 252:Drivers/STM32F3xx_HAL_Driver/Src/stm32f3xx_hal_i2c.c **** 
 253:Drivers/STM32F3xx_HAL_Driver/Src/stm32f3xx_hal_i2c.c **** #ifdef HAL_I2C_MODULE_ENABLED
 254:Drivers/STM32F3xx_HAL_Driver/Src/stm32f3xx_hal_i2c.c **** 
 255:Drivers/STM32F3xx_HAL_Driver/Src/stm32f3xx_hal_i2c.c **** /* Private typedef -----------------------------------------------------------*/
 256:Drivers/STM32F3xx_HAL_Driver/Src/stm32f3xx_hal_i2c.c **** /* Private define ------------------------------------------------------------*/
 257:Drivers/STM32F3xx_HAL_Driver/Src/stm32f3xx_hal_i2c.c **** 
 258:Drivers/STM32F3xx_HAL_Driver/Src/stm32f3xx_hal_i2c.c **** /** @defgroup I2C_Private_Define I2C Private Define
 259:Drivers/STM32F3xx_HAL_Driver/Src/stm32f3xx_hal_i2c.c ****   * @{
 260:Drivers/STM32F3xx_HAL_Driver/Src/stm32f3xx_hal_i2c.c ****   */
 261:Drivers/STM32F3xx_HAL_Driver/Src/stm32f3xx_hal_i2c.c **** #define TIMING_CLEAR_MASK   (0xF0FFFFFFU)  /*!< I2C TIMING clear register Mask */
 262:Drivers/STM32F3xx_HAL_Driver/Src/stm32f3xx_hal_i2c.c **** #define I2C_TIMEOUT_ADDR    (10000U)       /*!< 10 s  */
 263:Drivers/STM32F3xx_HAL_Driver/Src/stm32f3xx_hal_i2c.c **** #define I2C_TIMEOUT_BUSY    (25U)          /*!< 25 ms */
 264:Drivers/STM32F3xx_HAL_Driver/Src/stm32f3xx_hal_i2c.c **** #define I2C_TIMEOUT_DIR     (25U)          /*!< 25 ms */
 265:Drivers/STM32F3xx_HAL_Driver/Src/stm32f3xx_hal_i2c.c **** #define I2C_TIMEOUT_RXNE    (25U)          /*!< 25 ms */
 266:Drivers/STM32F3xx_HAL_Driver/Src/stm32f3xx_hal_i2c.c **** #define I2C_TIMEOUT_STOPF   (25U)          /*!< 25 ms */
 267:Drivers/STM32F3xx_HAL_Driver/Src/stm32f3xx_hal_i2c.c **** #define I2C_TIMEOUT_TC      (25U)          /*!< 25 ms */
 268:Drivers/STM32F3xx_HAL_Driver/Src/stm32f3xx_hal_i2c.c **** #define I2C_TIMEOUT_TCR     (25U)          /*!< 25 ms */
 269:Drivers/STM32F3xx_HAL_Driver/Src/stm32f3xx_hal_i2c.c **** #define I2C_TIMEOUT_TXIS    (25U)          /*!< 25 ms */
 270:Drivers/STM32F3xx_HAL_Driver/Src/stm32f3xx_hal_i2c.c **** #define I2C_TIMEOUT_FLAG    (25U)          /*!< 25 ms */
 271:Drivers/STM32F3xx_HAL_Driver/Src/stm32f3xx_hal_i2c.c **** 
 272:Drivers/STM32F3xx_HAL_Driver/Src/stm32f3xx_hal_i2c.c **** #define MAX_NBYTE_SIZE      255U
 273:Drivers/STM32F3xx_HAL_Driver/Src/stm32f3xx_hal_i2c.c **** #define SlaveAddr_SHIFT     7U
 274:Drivers/STM32F3xx_HAL_Driver/Src/stm32f3xx_hal_i2c.c **** #define SlaveAddr_MSK       0x06U
 275:Drivers/STM32F3xx_HAL_Driver/Src/stm32f3xx_hal_i2c.c **** 
 276:Drivers/STM32F3xx_HAL_Driver/Src/stm32f3xx_hal_i2c.c **** /* Private define for @ref PreviousState usage */
 277:Drivers/STM32F3xx_HAL_Driver/Src/stm32f3xx_hal_i2c.c **** #define I2C_STATE_MSK             ((uint32_t)((HAL_I2C_STATE_BUSY_TX | HAL_I2C_STATE_BUSY_RX) & (~(
 278:Drivers/STM32F3xx_HAL_Driver/Src/stm32f3xx_hal_i2c.c **** #define I2C_STATE_NONE            ((uint32_t)(HAL_I2C_MODE_NONE))                                  
 279:Drivers/STM32F3xx_HAL_Driver/Src/stm32f3xx_hal_i2c.c **** #define I2C_STATE_MASTER_BUSY_TX  ((uint32_t)((HAL_I2C_STATE_BUSY_TX & I2C_STATE_MSK) | HAL_I2C_MOD
 280:Drivers/STM32F3xx_HAL_Driver/Src/stm32f3xx_hal_i2c.c **** #define I2C_STATE_MASTER_BUSY_RX  ((uint32_t)((HAL_I2C_STATE_BUSY_RX & I2C_STATE_MSK) | HAL_I2C_MOD
 281:Drivers/STM32F3xx_HAL_Driver/Src/stm32f3xx_hal_i2c.c **** #define I2C_STATE_SLAVE_BUSY_TX   ((uint32_t)((HAL_I2C_STATE_BUSY_TX & I2C_STATE_MSK) | HAL_I2C_MOD
 282:Drivers/STM32F3xx_HAL_Driver/Src/stm32f3xx_hal_i2c.c **** #define I2C_STATE_SLAVE_BUSY_RX   ((uint32_t)((HAL_I2C_STATE_BUSY_RX & I2C_STATE_MSK) | HAL_I2C_MOD
 283:Drivers/STM32F3xx_HAL_Driver/Src/stm32f3xx_hal_i2c.c **** #define I2C_STATE_MEM_BUSY_TX     ((uint32_t)((HAL_I2C_STATE_BUSY_TX & I2C_STATE_MSK) | HAL_I2C_MOD
 284:Drivers/STM32F3xx_HAL_Driver/Src/stm32f3xx_hal_i2c.c **** #define I2C_STATE_MEM_BUSY_RX     ((uint32_t)((HAL_I2C_STATE_BUSY_RX & I2C_STATE_MSK) | HAL_I2C_MOD
 285:Drivers/STM32F3xx_HAL_Driver/Src/stm32f3xx_hal_i2c.c **** 
 286:Drivers/STM32F3xx_HAL_Driver/Src/stm32f3xx_hal_i2c.c **** 
 287:Drivers/STM32F3xx_HAL_Driver/Src/stm32f3xx_hal_i2c.c **** /* Private define to centralize the enable/disable of Interrupts */
 288:Drivers/STM32F3xx_HAL_Driver/Src/stm32f3xx_hal_i2c.c **** #define I2C_XFER_TX_IT          (0x00000001U)
 289:Drivers/STM32F3xx_HAL_Driver/Src/stm32f3xx_hal_i2c.c **** #define I2C_XFER_RX_IT          (0x00000002U)
 290:Drivers/STM32F3xx_HAL_Driver/Src/stm32f3xx_hal_i2c.c **** #define I2C_XFER_LISTEN_IT      (0x00000004U)
 291:Drivers/STM32F3xx_HAL_Driver/Src/stm32f3xx_hal_i2c.c **** 
 292:Drivers/STM32F3xx_HAL_Driver/Src/stm32f3xx_hal_i2c.c **** #define I2C_XFER_ERROR_IT       (0x00000011U)
 293:Drivers/STM32F3xx_HAL_Driver/Src/stm32f3xx_hal_i2c.c **** #define I2C_XFER_CPLT_IT        (0x00000012U)
 294:Drivers/STM32F3xx_HAL_Driver/Src/stm32f3xx_hal_i2c.c **** #define I2C_XFER_RELOAD_IT      (0x00000012U)
 295:Drivers/STM32F3xx_HAL_Driver/Src/stm32f3xx_hal_i2c.c **** 
 296:Drivers/STM32F3xx_HAL_Driver/Src/stm32f3xx_hal_i2c.c **** /* Private define Sequential Transfer Options default/reset value */
 297:Drivers/STM32F3xx_HAL_Driver/Src/stm32f3xx_hal_i2c.c **** #define I2C_NO_OPTION_FRAME     (0xFFFF0000U)
 298:Drivers/STM32F3xx_HAL_Driver/Src/stm32f3xx_hal_i2c.c **** /**
 299:Drivers/STM32F3xx_HAL_Driver/Src/stm32f3xx_hal_i2c.c ****   * @}
 300:Drivers/STM32F3xx_HAL_Driver/Src/stm32f3xx_hal_i2c.c ****   */
 301:Drivers/STM32F3xx_HAL_Driver/Src/stm32f3xx_hal_i2c.c **** 
 302:Drivers/STM32F3xx_HAL_Driver/Src/stm32f3xx_hal_i2c.c **** /* Private macro -------------------------------------------------------------*/
 303:Drivers/STM32F3xx_HAL_Driver/Src/stm32f3xx_hal_i2c.c **** #define I2C_GET_DMA_REMAIN_DATA(__HANDLE__) ((((__HANDLE__)->State) == HAL_I2C_STATE_BUSY_TX)   ? \
 304:Drivers/STM32F3xx_HAL_Driver/Src/stm32f3xx_hal_i2c.c ****                                             ((uint32_t)((__HANDLE__)->hdmatx->Instance->CNDTR)) : \
 305:Drivers/STM32F3xx_HAL_Driver/Src/stm32f3xx_hal_i2c.c ****                                             ((uint32_t)((__HANDLE__)->hdmarx->Instance->CNDTR)))
 306:Drivers/STM32F3xx_HAL_Driver/Src/stm32f3xx_hal_i2c.c **** 
ARM GAS  /tmp/ccy0jiyr.s 			page 7


 307:Drivers/STM32F3xx_HAL_Driver/Src/stm32f3xx_hal_i2c.c **** /* Private variables ---------------------------------------------------------*/
 308:Drivers/STM32F3xx_HAL_Driver/Src/stm32f3xx_hal_i2c.c **** /* Private function prototypes -----------------------------------------------*/
 309:Drivers/STM32F3xx_HAL_Driver/Src/stm32f3xx_hal_i2c.c **** 
 310:Drivers/STM32F3xx_HAL_Driver/Src/stm32f3xx_hal_i2c.c **** /** @defgroup I2C_Private_Functions I2C Private Functions
 311:Drivers/STM32F3xx_HAL_Driver/Src/stm32f3xx_hal_i2c.c ****   * @{
 312:Drivers/STM32F3xx_HAL_Driver/Src/stm32f3xx_hal_i2c.c ****   */
 313:Drivers/STM32F3xx_HAL_Driver/Src/stm32f3xx_hal_i2c.c **** /* Private functions to handle DMA transfer */
 314:Drivers/STM32F3xx_HAL_Driver/Src/stm32f3xx_hal_i2c.c **** static void I2C_DMAMasterTransmitCplt(DMA_HandleTypeDef *hdma);
 315:Drivers/STM32F3xx_HAL_Driver/Src/stm32f3xx_hal_i2c.c **** static void I2C_DMAMasterReceiveCplt(DMA_HandleTypeDef *hdma);
 316:Drivers/STM32F3xx_HAL_Driver/Src/stm32f3xx_hal_i2c.c **** static void I2C_DMASlaveTransmitCplt(DMA_HandleTypeDef *hdma);
 317:Drivers/STM32F3xx_HAL_Driver/Src/stm32f3xx_hal_i2c.c **** static void I2C_DMASlaveReceiveCplt(DMA_HandleTypeDef *hdma);
 318:Drivers/STM32F3xx_HAL_Driver/Src/stm32f3xx_hal_i2c.c **** static void I2C_DMAError(DMA_HandleTypeDef *hdma);
 319:Drivers/STM32F3xx_HAL_Driver/Src/stm32f3xx_hal_i2c.c **** static void I2C_DMAAbort(DMA_HandleTypeDef *hdma);
 320:Drivers/STM32F3xx_HAL_Driver/Src/stm32f3xx_hal_i2c.c **** 
 321:Drivers/STM32F3xx_HAL_Driver/Src/stm32f3xx_hal_i2c.c **** /* Private functions to handle IT transfer */
 322:Drivers/STM32F3xx_HAL_Driver/Src/stm32f3xx_hal_i2c.c **** static void I2C_ITAddrCplt(I2C_HandleTypeDef *hi2c, uint32_t ITFlags);
 323:Drivers/STM32F3xx_HAL_Driver/Src/stm32f3xx_hal_i2c.c **** static void I2C_ITMasterSequentialCplt(I2C_HandleTypeDef *hi2c);
 324:Drivers/STM32F3xx_HAL_Driver/Src/stm32f3xx_hal_i2c.c **** static void I2C_ITSlaveSequentialCplt(I2C_HandleTypeDef *hi2c);
 325:Drivers/STM32F3xx_HAL_Driver/Src/stm32f3xx_hal_i2c.c **** static void I2C_ITMasterCplt(I2C_HandleTypeDef *hi2c, uint32_t ITFlags);
 326:Drivers/STM32F3xx_HAL_Driver/Src/stm32f3xx_hal_i2c.c **** static void I2C_ITSlaveCplt(I2C_HandleTypeDef *hi2c, uint32_t ITFlags);
 327:Drivers/STM32F3xx_HAL_Driver/Src/stm32f3xx_hal_i2c.c **** static void I2C_ITListenCplt(I2C_HandleTypeDef *hi2c, uint32_t ITFlags);
 328:Drivers/STM32F3xx_HAL_Driver/Src/stm32f3xx_hal_i2c.c **** static void I2C_ITError(I2C_HandleTypeDef *hi2c, uint32_t ErrorCode);
 329:Drivers/STM32F3xx_HAL_Driver/Src/stm32f3xx_hal_i2c.c **** 
 330:Drivers/STM32F3xx_HAL_Driver/Src/stm32f3xx_hal_i2c.c **** /* Private functions to handle IT transfer */
 331:Drivers/STM32F3xx_HAL_Driver/Src/stm32f3xx_hal_i2c.c **** static HAL_StatusTypeDef I2C_RequestMemoryWrite(I2C_HandleTypeDef *hi2c, uint16_t DevAddress, uint1
 332:Drivers/STM32F3xx_HAL_Driver/Src/stm32f3xx_hal_i2c.c **** static HAL_StatusTypeDef I2C_RequestMemoryRead(I2C_HandleTypeDef *hi2c, uint16_t DevAddress, uint16
 333:Drivers/STM32F3xx_HAL_Driver/Src/stm32f3xx_hal_i2c.c **** 
 334:Drivers/STM32F3xx_HAL_Driver/Src/stm32f3xx_hal_i2c.c **** /* Private functions for I2C transfer IRQ handler */
 335:Drivers/STM32F3xx_HAL_Driver/Src/stm32f3xx_hal_i2c.c **** static HAL_StatusTypeDef I2C_Master_ISR_IT(struct __I2C_HandleTypeDef *hi2c, uint32_t ITFlags, uint
 336:Drivers/STM32F3xx_HAL_Driver/Src/stm32f3xx_hal_i2c.c **** static HAL_StatusTypeDef I2C_Slave_ISR_IT(struct __I2C_HandleTypeDef *hi2c, uint32_t ITFlags, uint3
 337:Drivers/STM32F3xx_HAL_Driver/Src/stm32f3xx_hal_i2c.c **** static HAL_StatusTypeDef I2C_Master_ISR_DMA(struct __I2C_HandleTypeDef *hi2c, uint32_t ITFlags, uin
 338:Drivers/STM32F3xx_HAL_Driver/Src/stm32f3xx_hal_i2c.c **** static HAL_StatusTypeDef I2C_Slave_ISR_DMA(struct __I2C_HandleTypeDef *hi2c, uint32_t ITFlags, uint
 339:Drivers/STM32F3xx_HAL_Driver/Src/stm32f3xx_hal_i2c.c **** 
 340:Drivers/STM32F3xx_HAL_Driver/Src/stm32f3xx_hal_i2c.c **** /* Private functions to handle flags during polling transfer */
 341:Drivers/STM32F3xx_HAL_Driver/Src/stm32f3xx_hal_i2c.c **** static HAL_StatusTypeDef I2C_WaitOnFlagUntilTimeout(I2C_HandleTypeDef *hi2c, uint32_t Flag, FlagSta
 342:Drivers/STM32F3xx_HAL_Driver/Src/stm32f3xx_hal_i2c.c **** static HAL_StatusTypeDef I2C_WaitOnTXISFlagUntilTimeout(I2C_HandleTypeDef *hi2c, uint32_t Timeout, 
 343:Drivers/STM32F3xx_HAL_Driver/Src/stm32f3xx_hal_i2c.c **** static HAL_StatusTypeDef I2C_WaitOnRXNEFlagUntilTimeout(I2C_HandleTypeDef *hi2c, uint32_t Timeout, 
 344:Drivers/STM32F3xx_HAL_Driver/Src/stm32f3xx_hal_i2c.c **** static HAL_StatusTypeDef I2C_WaitOnSTOPFlagUntilTimeout(I2C_HandleTypeDef *hi2c, uint32_t Timeout, 
 345:Drivers/STM32F3xx_HAL_Driver/Src/stm32f3xx_hal_i2c.c **** static HAL_StatusTypeDef I2C_IsAcknowledgeFailed(I2C_HandleTypeDef *hi2c, uint32_t Timeout, uint32_
 346:Drivers/STM32F3xx_HAL_Driver/Src/stm32f3xx_hal_i2c.c **** 
 347:Drivers/STM32F3xx_HAL_Driver/Src/stm32f3xx_hal_i2c.c **** /* Private functions to centralize the enable/disable of Interrupts */
 348:Drivers/STM32F3xx_HAL_Driver/Src/stm32f3xx_hal_i2c.c **** static HAL_StatusTypeDef I2C_Enable_IRQ(I2C_HandleTypeDef *hi2c, uint16_t InterruptRequest);
 349:Drivers/STM32F3xx_HAL_Driver/Src/stm32f3xx_hal_i2c.c **** static HAL_StatusTypeDef I2C_Disable_IRQ(I2C_HandleTypeDef *hi2c, uint16_t InterruptRequest);
 350:Drivers/STM32F3xx_HAL_Driver/Src/stm32f3xx_hal_i2c.c **** 
 351:Drivers/STM32F3xx_HAL_Driver/Src/stm32f3xx_hal_i2c.c **** /* Private functions to flush TXDR register */
 352:Drivers/STM32F3xx_HAL_Driver/Src/stm32f3xx_hal_i2c.c **** static void I2C_Flush_TXDR(I2C_HandleTypeDef *hi2c);
 353:Drivers/STM32F3xx_HAL_Driver/Src/stm32f3xx_hal_i2c.c **** 
 354:Drivers/STM32F3xx_HAL_Driver/Src/stm32f3xx_hal_i2c.c **** /* Private functions to handle  start, restart or stop a transfer */
 355:Drivers/STM32F3xx_HAL_Driver/Src/stm32f3xx_hal_i2c.c **** static void I2C_TransferConfig(I2C_HandleTypeDef *hi2c,  uint16_t DevAddress, uint8_t Size, uint32_
 356:Drivers/STM32F3xx_HAL_Driver/Src/stm32f3xx_hal_i2c.c **** /**
 357:Drivers/STM32F3xx_HAL_Driver/Src/stm32f3xx_hal_i2c.c ****   * @}
 358:Drivers/STM32F3xx_HAL_Driver/Src/stm32f3xx_hal_i2c.c ****   */
 359:Drivers/STM32F3xx_HAL_Driver/Src/stm32f3xx_hal_i2c.c **** 
 360:Drivers/STM32F3xx_HAL_Driver/Src/stm32f3xx_hal_i2c.c **** /* Exported functions --------------------------------------------------------*/
 361:Drivers/STM32F3xx_HAL_Driver/Src/stm32f3xx_hal_i2c.c **** 
 362:Drivers/STM32F3xx_HAL_Driver/Src/stm32f3xx_hal_i2c.c **** /** @defgroup I2C_Exported_Functions I2C Exported Functions
 363:Drivers/STM32F3xx_HAL_Driver/Src/stm32f3xx_hal_i2c.c ****   * @{
ARM GAS  /tmp/ccy0jiyr.s 			page 8


 364:Drivers/STM32F3xx_HAL_Driver/Src/stm32f3xx_hal_i2c.c ****   */
 365:Drivers/STM32F3xx_HAL_Driver/Src/stm32f3xx_hal_i2c.c **** 
 366:Drivers/STM32F3xx_HAL_Driver/Src/stm32f3xx_hal_i2c.c **** /** @defgroup I2C_Exported_Functions_Group1 Initialization and de-initialization functions
 367:Drivers/STM32F3xx_HAL_Driver/Src/stm32f3xx_hal_i2c.c ****  *  @brief    Initialization and Configuration functions
 368:Drivers/STM32F3xx_HAL_Driver/Src/stm32f3xx_hal_i2c.c ****  *
 369:Drivers/STM32F3xx_HAL_Driver/Src/stm32f3xx_hal_i2c.c **** @verbatim
 370:Drivers/STM32F3xx_HAL_Driver/Src/stm32f3xx_hal_i2c.c ****  ===============================================================================
 371:Drivers/STM32F3xx_HAL_Driver/Src/stm32f3xx_hal_i2c.c ****               ##### Initialization and de-initialization functions #####
 372:Drivers/STM32F3xx_HAL_Driver/Src/stm32f3xx_hal_i2c.c ****  ===============================================================================
 373:Drivers/STM32F3xx_HAL_Driver/Src/stm32f3xx_hal_i2c.c ****     [..]  This subsection provides a set of functions allowing to initialize and
 374:Drivers/STM32F3xx_HAL_Driver/Src/stm32f3xx_hal_i2c.c ****           deinitialize the I2Cx peripheral:
 375:Drivers/STM32F3xx_HAL_Driver/Src/stm32f3xx_hal_i2c.c **** 
 376:Drivers/STM32F3xx_HAL_Driver/Src/stm32f3xx_hal_i2c.c ****       (+) User must Implement HAL_I2C_MspInit() function in which he configures
 377:Drivers/STM32F3xx_HAL_Driver/Src/stm32f3xx_hal_i2c.c ****           all related peripherals resources (CLOCK, GPIO, DMA, IT and NVIC ).
 378:Drivers/STM32F3xx_HAL_Driver/Src/stm32f3xx_hal_i2c.c **** 
 379:Drivers/STM32F3xx_HAL_Driver/Src/stm32f3xx_hal_i2c.c ****       (+) Call the function HAL_I2C_Init() to configure the selected device with
 380:Drivers/STM32F3xx_HAL_Driver/Src/stm32f3xx_hal_i2c.c ****           the selected configuration:
 381:Drivers/STM32F3xx_HAL_Driver/Src/stm32f3xx_hal_i2c.c ****         (++) Clock Timing
 382:Drivers/STM32F3xx_HAL_Driver/Src/stm32f3xx_hal_i2c.c ****         (++) Own Address 1
 383:Drivers/STM32F3xx_HAL_Driver/Src/stm32f3xx_hal_i2c.c ****         (++) Addressing mode (Master, Slave)
 384:Drivers/STM32F3xx_HAL_Driver/Src/stm32f3xx_hal_i2c.c ****         (++) Dual Addressing mode
 385:Drivers/STM32F3xx_HAL_Driver/Src/stm32f3xx_hal_i2c.c ****         (++) Own Address 2
 386:Drivers/STM32F3xx_HAL_Driver/Src/stm32f3xx_hal_i2c.c ****         (++) Own Address 2 Mask
 387:Drivers/STM32F3xx_HAL_Driver/Src/stm32f3xx_hal_i2c.c ****         (++) General call mode
 388:Drivers/STM32F3xx_HAL_Driver/Src/stm32f3xx_hal_i2c.c ****         (++) Nostretch mode
 389:Drivers/STM32F3xx_HAL_Driver/Src/stm32f3xx_hal_i2c.c **** 
 390:Drivers/STM32F3xx_HAL_Driver/Src/stm32f3xx_hal_i2c.c ****       (+) Call the function HAL_I2C_DeInit() to restore the default configuration
 391:Drivers/STM32F3xx_HAL_Driver/Src/stm32f3xx_hal_i2c.c ****           of the selected I2Cx peripheral.
 392:Drivers/STM32F3xx_HAL_Driver/Src/stm32f3xx_hal_i2c.c **** 
 393:Drivers/STM32F3xx_HAL_Driver/Src/stm32f3xx_hal_i2c.c **** @endverbatim
 394:Drivers/STM32F3xx_HAL_Driver/Src/stm32f3xx_hal_i2c.c ****   * @{
 395:Drivers/STM32F3xx_HAL_Driver/Src/stm32f3xx_hal_i2c.c ****   */
 396:Drivers/STM32F3xx_HAL_Driver/Src/stm32f3xx_hal_i2c.c **** 
 397:Drivers/STM32F3xx_HAL_Driver/Src/stm32f3xx_hal_i2c.c **** /**
 398:Drivers/STM32F3xx_HAL_Driver/Src/stm32f3xx_hal_i2c.c ****   * @brief  Initializes the I2C according to the specified parameters
 399:Drivers/STM32F3xx_HAL_Driver/Src/stm32f3xx_hal_i2c.c ****   *         in the I2C_InitTypeDef and initialize the associated handle.
 400:Drivers/STM32F3xx_HAL_Driver/Src/stm32f3xx_hal_i2c.c ****   * @param  hi2c Pointer to a I2C_HandleTypeDef structure that contains
 401:Drivers/STM32F3xx_HAL_Driver/Src/stm32f3xx_hal_i2c.c ****   *                the configuration information for the specified I2C.
 402:Drivers/STM32F3xx_HAL_Driver/Src/stm32f3xx_hal_i2c.c ****   * @retval HAL status
 403:Drivers/STM32F3xx_HAL_Driver/Src/stm32f3xx_hal_i2c.c ****   */
 404:Drivers/STM32F3xx_HAL_Driver/Src/stm32f3xx_hal_i2c.c **** HAL_StatusTypeDef HAL_I2C_Init(I2C_HandleTypeDef *hi2c)
 405:Drivers/STM32F3xx_HAL_Driver/Src/stm32f3xx_hal_i2c.c **** {
  40              		.loc 1 405 0
  41              		.cfi_startproc
  42              		@ args = 0, pretend = 0, frame = 8
  43              		@ frame_needed = 1, uses_anonymous_args = 0
  44 0000 80B5     		push	{r7, lr}
  45              	.LCFI0:
  46              		.cfi_def_cfa_offset 8
  47              		.cfi_offset 7, -8
  48              		.cfi_offset 14, -4
  49 0002 82B0     		sub	sp, sp, #8
  50              	.LCFI1:
  51              		.cfi_def_cfa_offset 16
  52 0004 00AF     		add	r7, sp, #0
  53              	.LCFI2:
  54              		.cfi_def_cfa_register 7
ARM GAS  /tmp/ccy0jiyr.s 			page 9


  55 0006 7860     		str	r0, [r7, #4]
 406:Drivers/STM32F3xx_HAL_Driver/Src/stm32f3xx_hal_i2c.c ****   /* Check the I2C handle allocation */
 407:Drivers/STM32F3xx_HAL_Driver/Src/stm32f3xx_hal_i2c.c ****   if (hi2c == NULL)
  56              		.loc 1 407 0
  57 0008 7B68     		ldr	r3, [r7, #4]
  58 000a 002B     		cmp	r3, #0
  59 000c 01D1     		bne	.L2
 408:Drivers/STM32F3xx_HAL_Driver/Src/stm32f3xx_hal_i2c.c ****   {
 409:Drivers/STM32F3xx_HAL_Driver/Src/stm32f3xx_hal_i2c.c ****     return HAL_ERROR;
  60              		.loc 1 409 0
  61 000e 0123     		movs	r3, #1
  62 0010 81E0     		b	.L3
  63              	.L2:
 410:Drivers/STM32F3xx_HAL_Driver/Src/stm32f3xx_hal_i2c.c ****   }
 411:Drivers/STM32F3xx_HAL_Driver/Src/stm32f3xx_hal_i2c.c **** 
 412:Drivers/STM32F3xx_HAL_Driver/Src/stm32f3xx_hal_i2c.c ****   /* Check the parameters */
 413:Drivers/STM32F3xx_HAL_Driver/Src/stm32f3xx_hal_i2c.c ****   assert_param(IS_I2C_ALL_INSTANCE(hi2c->Instance));
 414:Drivers/STM32F3xx_HAL_Driver/Src/stm32f3xx_hal_i2c.c ****   assert_param(IS_I2C_OWN_ADDRESS1(hi2c->Init.OwnAddress1));
 415:Drivers/STM32F3xx_HAL_Driver/Src/stm32f3xx_hal_i2c.c ****   assert_param(IS_I2C_ADDRESSING_MODE(hi2c->Init.AddressingMode));
 416:Drivers/STM32F3xx_HAL_Driver/Src/stm32f3xx_hal_i2c.c ****   assert_param(IS_I2C_DUAL_ADDRESS(hi2c->Init.DualAddressMode));
 417:Drivers/STM32F3xx_HAL_Driver/Src/stm32f3xx_hal_i2c.c ****   assert_param(IS_I2C_OWN_ADDRESS2(hi2c->Init.OwnAddress2));
 418:Drivers/STM32F3xx_HAL_Driver/Src/stm32f3xx_hal_i2c.c ****   assert_param(IS_I2C_OWN_ADDRESS2_MASK(hi2c->Init.OwnAddress2Masks));
 419:Drivers/STM32F3xx_HAL_Driver/Src/stm32f3xx_hal_i2c.c ****   assert_param(IS_I2C_GENERAL_CALL(hi2c->Init.GeneralCallMode));
 420:Drivers/STM32F3xx_HAL_Driver/Src/stm32f3xx_hal_i2c.c ****   assert_param(IS_I2C_NO_STRETCH(hi2c->Init.NoStretchMode));
 421:Drivers/STM32F3xx_HAL_Driver/Src/stm32f3xx_hal_i2c.c **** 
 422:Drivers/STM32F3xx_HAL_Driver/Src/stm32f3xx_hal_i2c.c ****   if (hi2c->State == HAL_I2C_STATE_RESET)
  64              		.loc 1 422 0
  65 0012 7B68     		ldr	r3, [r7, #4]
  66 0014 93F84130 		ldrb	r3, [r3, #65]
  67 0018 DBB2     		uxtb	r3, r3
  68 001a 002B     		cmp	r3, #0
  69 001c 06D1     		bne	.L4
 423:Drivers/STM32F3xx_HAL_Driver/Src/stm32f3xx_hal_i2c.c ****   {
 424:Drivers/STM32F3xx_HAL_Driver/Src/stm32f3xx_hal_i2c.c ****     /* Allocate lock resource and initialize it */
 425:Drivers/STM32F3xx_HAL_Driver/Src/stm32f3xx_hal_i2c.c ****     hi2c->Lock = HAL_UNLOCKED;
  70              		.loc 1 425 0
  71 001e 7B68     		ldr	r3, [r7, #4]
  72 0020 0022     		movs	r2, #0
  73 0022 83F84020 		strb	r2, [r3, #64]
 426:Drivers/STM32F3xx_HAL_Driver/Src/stm32f3xx_hal_i2c.c **** 
 427:Drivers/STM32F3xx_HAL_Driver/Src/stm32f3xx_hal_i2c.c ****     /* Init the low level hardware : GPIO, CLOCK, CORTEX...etc */
 428:Drivers/STM32F3xx_HAL_Driver/Src/stm32f3xx_hal_i2c.c ****     HAL_I2C_MspInit(hi2c);
  74              		.loc 1 428 0
  75 0026 7868     		ldr	r0, [r7, #4]
  76 0028 FFF7FEFF 		bl	HAL_I2C_MspInit
  77              	.L4:
 429:Drivers/STM32F3xx_HAL_Driver/Src/stm32f3xx_hal_i2c.c ****   }
 430:Drivers/STM32F3xx_HAL_Driver/Src/stm32f3xx_hal_i2c.c **** 
 431:Drivers/STM32F3xx_HAL_Driver/Src/stm32f3xx_hal_i2c.c ****   hi2c->State = HAL_I2C_STATE_BUSY;
  78              		.loc 1 431 0
  79 002c 7B68     		ldr	r3, [r7, #4]
  80 002e 2422     		movs	r2, #36
  81 0030 83F84120 		strb	r2, [r3, #65]
 432:Drivers/STM32F3xx_HAL_Driver/Src/stm32f3xx_hal_i2c.c **** 
 433:Drivers/STM32F3xx_HAL_Driver/Src/stm32f3xx_hal_i2c.c ****   /* Disable the selected I2C peripheral */
 434:Drivers/STM32F3xx_HAL_Driver/Src/stm32f3xx_hal_i2c.c ****   __HAL_I2C_DISABLE(hi2c);
  82              		.loc 1 434 0
ARM GAS  /tmp/ccy0jiyr.s 			page 10


  83 0034 7B68     		ldr	r3, [r7, #4]
  84 0036 1B68     		ldr	r3, [r3]
  85 0038 1A68     		ldr	r2, [r3]
  86 003a 7B68     		ldr	r3, [r7, #4]
  87 003c 1B68     		ldr	r3, [r3]
  88 003e 22F00102 		bic	r2, r2, #1
  89 0042 1A60     		str	r2, [r3]
 435:Drivers/STM32F3xx_HAL_Driver/Src/stm32f3xx_hal_i2c.c **** 
 436:Drivers/STM32F3xx_HAL_Driver/Src/stm32f3xx_hal_i2c.c ****   /*---------------------------- I2Cx TIMINGR Configuration ------------------*/
 437:Drivers/STM32F3xx_HAL_Driver/Src/stm32f3xx_hal_i2c.c ****   /* Configure I2Cx: Frequency range */
 438:Drivers/STM32F3xx_HAL_Driver/Src/stm32f3xx_hal_i2c.c ****   hi2c->Instance->TIMINGR = hi2c->Init.Timing & TIMING_CLEAR_MASK;
  90              		.loc 1 438 0
  91 0044 7B68     		ldr	r3, [r7, #4]
  92 0046 5A68     		ldr	r2, [r3, #4]
  93 0048 7B68     		ldr	r3, [r7, #4]
  94 004a 1B68     		ldr	r3, [r3]
  95 004c 22F07062 		bic	r2, r2, #251658240
  96 0050 1A61     		str	r2, [r3, #16]
 439:Drivers/STM32F3xx_HAL_Driver/Src/stm32f3xx_hal_i2c.c **** 
 440:Drivers/STM32F3xx_HAL_Driver/Src/stm32f3xx_hal_i2c.c ****   /*---------------------------- I2Cx OAR1 Configuration ---------------------*/
 441:Drivers/STM32F3xx_HAL_Driver/Src/stm32f3xx_hal_i2c.c ****   /* Disable Own Address1 before set the Own Address1 configuration */
 442:Drivers/STM32F3xx_HAL_Driver/Src/stm32f3xx_hal_i2c.c ****   hi2c->Instance->OAR1 &= ~I2C_OAR1_OA1EN;
  97              		.loc 1 442 0
  98 0052 7B68     		ldr	r3, [r7, #4]
  99 0054 1B68     		ldr	r3, [r3]
 100 0056 9A68     		ldr	r2, [r3, #8]
 101 0058 7B68     		ldr	r3, [r7, #4]
 102 005a 1B68     		ldr	r3, [r3]
 103 005c 22F40042 		bic	r2, r2, #32768
 104 0060 9A60     		str	r2, [r3, #8]
 443:Drivers/STM32F3xx_HAL_Driver/Src/stm32f3xx_hal_i2c.c **** 
 444:Drivers/STM32F3xx_HAL_Driver/Src/stm32f3xx_hal_i2c.c ****   /* Configure I2Cx: Own Address1 and ack own address1 mode */
 445:Drivers/STM32F3xx_HAL_Driver/Src/stm32f3xx_hal_i2c.c ****   if (hi2c->Init.AddressingMode == I2C_ADDRESSINGMODE_7BIT)
 105              		.loc 1 445 0
 106 0062 7B68     		ldr	r3, [r7, #4]
 107 0064 DB68     		ldr	r3, [r3, #12]
 108 0066 012B     		cmp	r3, #1
 109 0068 07D1     		bne	.L5
 446:Drivers/STM32F3xx_HAL_Driver/Src/stm32f3xx_hal_i2c.c ****   {
 447:Drivers/STM32F3xx_HAL_Driver/Src/stm32f3xx_hal_i2c.c ****     hi2c->Instance->OAR1 = (I2C_OAR1_OA1EN | hi2c->Init.OwnAddress1);
 110              		.loc 1 447 0
 111 006a 7B68     		ldr	r3, [r7, #4]
 112 006c 9A68     		ldr	r2, [r3, #8]
 113 006e 7B68     		ldr	r3, [r7, #4]
 114 0070 1B68     		ldr	r3, [r3]
 115 0072 42F40042 		orr	r2, r2, #32768
 116 0076 9A60     		str	r2, [r3, #8]
 117 0078 06E0     		b	.L6
 118              	.L5:
 448:Drivers/STM32F3xx_HAL_Driver/Src/stm32f3xx_hal_i2c.c ****   }
 449:Drivers/STM32F3xx_HAL_Driver/Src/stm32f3xx_hal_i2c.c ****   else /* I2C_ADDRESSINGMODE_10BIT */
 450:Drivers/STM32F3xx_HAL_Driver/Src/stm32f3xx_hal_i2c.c ****   {
 451:Drivers/STM32F3xx_HAL_Driver/Src/stm32f3xx_hal_i2c.c ****     hi2c->Instance->OAR1 = (I2C_OAR1_OA1EN | I2C_OAR1_OA1MODE | hi2c->Init.OwnAddress1);
 119              		.loc 1 451 0
 120 007a 7B68     		ldr	r3, [r7, #4]
 121 007c 9A68     		ldr	r2, [r3, #8]
 122 007e 7B68     		ldr	r3, [r7, #4]
ARM GAS  /tmp/ccy0jiyr.s 			page 11


 123 0080 1B68     		ldr	r3, [r3]
 124 0082 42F40442 		orr	r2, r2, #33792
 125 0086 9A60     		str	r2, [r3, #8]
 126              	.L6:
 452:Drivers/STM32F3xx_HAL_Driver/Src/stm32f3xx_hal_i2c.c ****   }
 453:Drivers/STM32F3xx_HAL_Driver/Src/stm32f3xx_hal_i2c.c **** 
 454:Drivers/STM32F3xx_HAL_Driver/Src/stm32f3xx_hal_i2c.c ****   /*---------------------------- I2Cx CR2 Configuration ----------------------*/
 455:Drivers/STM32F3xx_HAL_Driver/Src/stm32f3xx_hal_i2c.c ****   /* Configure I2Cx: Addressing Master mode */
 456:Drivers/STM32F3xx_HAL_Driver/Src/stm32f3xx_hal_i2c.c ****   if (hi2c->Init.AddressingMode == I2C_ADDRESSINGMODE_10BIT)
 127              		.loc 1 456 0
 128 0088 7B68     		ldr	r3, [r7, #4]
 129 008a DB68     		ldr	r3, [r3, #12]
 130 008c 022B     		cmp	r3, #2
 131 008e 04D1     		bne	.L7
 457:Drivers/STM32F3xx_HAL_Driver/Src/stm32f3xx_hal_i2c.c ****   {
 458:Drivers/STM32F3xx_HAL_Driver/Src/stm32f3xx_hal_i2c.c ****     hi2c->Instance->CR2 = (I2C_CR2_ADD10);
 132              		.loc 1 458 0
 133 0090 7B68     		ldr	r3, [r7, #4]
 134 0092 1B68     		ldr	r3, [r3]
 135 0094 4FF40062 		mov	r2, #2048
 136 0098 5A60     		str	r2, [r3, #4]
 137              	.L7:
 459:Drivers/STM32F3xx_HAL_Driver/Src/stm32f3xx_hal_i2c.c ****   }
 460:Drivers/STM32F3xx_HAL_Driver/Src/stm32f3xx_hal_i2c.c ****   /* Enable the AUTOEND by default, and enable NACK (should be disable only during Slave process */
 461:Drivers/STM32F3xx_HAL_Driver/Src/stm32f3xx_hal_i2c.c ****   hi2c->Instance->CR2 |= (I2C_CR2_AUTOEND | I2C_CR2_NACK);
 138              		.loc 1 461 0
 139 009a 7B68     		ldr	r3, [r7, #4]
 140 009c 1B68     		ldr	r3, [r3]
 141 009e 5B68     		ldr	r3, [r3, #4]
 142 00a0 7A68     		ldr	r2, [r7, #4]
 143 00a2 1268     		ldr	r2, [r2]
 144 00a4 43F00073 		orr	r3, r3, #33554432
 145 00a8 43F40043 		orr	r3, r3, #32768
 146 00ac 5360     		str	r3, [r2, #4]
 462:Drivers/STM32F3xx_HAL_Driver/Src/stm32f3xx_hal_i2c.c **** 
 463:Drivers/STM32F3xx_HAL_Driver/Src/stm32f3xx_hal_i2c.c ****   /*---------------------------- I2Cx OAR2 Configuration ---------------------*/
 464:Drivers/STM32F3xx_HAL_Driver/Src/stm32f3xx_hal_i2c.c ****   /* Disable Own Address2 before set the Own Address2 configuration */
 465:Drivers/STM32F3xx_HAL_Driver/Src/stm32f3xx_hal_i2c.c ****   hi2c->Instance->OAR2 &= ~I2C_DUALADDRESS_ENABLE;
 147              		.loc 1 465 0
 148 00ae 7B68     		ldr	r3, [r7, #4]
 149 00b0 1B68     		ldr	r3, [r3]
 150 00b2 DA68     		ldr	r2, [r3, #12]
 151 00b4 7B68     		ldr	r3, [r7, #4]
 152 00b6 1B68     		ldr	r3, [r3]
 153 00b8 22F40042 		bic	r2, r2, #32768
 154 00bc DA60     		str	r2, [r3, #12]
 466:Drivers/STM32F3xx_HAL_Driver/Src/stm32f3xx_hal_i2c.c **** 
 467:Drivers/STM32F3xx_HAL_Driver/Src/stm32f3xx_hal_i2c.c ****   /* Configure I2Cx: Dual mode and Own Address2 */
 468:Drivers/STM32F3xx_HAL_Driver/Src/stm32f3xx_hal_i2c.c ****   hi2c->Instance->OAR2 = (hi2c->Init.DualAddressMode | hi2c->Init.OwnAddress2 | (hi2c->Init.OwnAddr
 155              		.loc 1 468 0
 156 00be 7B68     		ldr	r3, [r7, #4]
 157 00c0 1A69     		ldr	r2, [r3, #16]
 158 00c2 7B68     		ldr	r3, [r7, #4]
 159 00c4 5B69     		ldr	r3, [r3, #20]
 160 00c6 42EA0301 		orr	r1, r2, r3
 161 00ca 7B68     		ldr	r3, [r7, #4]
 162 00cc 9B69     		ldr	r3, [r3, #24]
ARM GAS  /tmp/ccy0jiyr.s 			page 12


 163 00ce 1A02     		lsls	r2, r3, #8
 164 00d0 7B68     		ldr	r3, [r7, #4]
 165 00d2 1B68     		ldr	r3, [r3]
 166 00d4 0A43     		orrs	r2, r2, r1
 167 00d6 DA60     		str	r2, [r3, #12]
 469:Drivers/STM32F3xx_HAL_Driver/Src/stm32f3xx_hal_i2c.c **** 
 470:Drivers/STM32F3xx_HAL_Driver/Src/stm32f3xx_hal_i2c.c ****   /*---------------------------- I2Cx CR1 Configuration ----------------------*/
 471:Drivers/STM32F3xx_HAL_Driver/Src/stm32f3xx_hal_i2c.c ****   /* Configure I2Cx: Generalcall and NoStretch mode */
 472:Drivers/STM32F3xx_HAL_Driver/Src/stm32f3xx_hal_i2c.c ****   hi2c->Instance->CR1 = (hi2c->Init.GeneralCallMode | hi2c->Init.NoStretchMode);
 168              		.loc 1 472 0
 169 00d8 7B68     		ldr	r3, [r7, #4]
 170 00da D969     		ldr	r1, [r3, #28]
 171 00dc 7B68     		ldr	r3, [r7, #4]
 172 00de 1A6A     		ldr	r2, [r3, #32]
 173 00e0 7B68     		ldr	r3, [r7, #4]
 174 00e2 1B68     		ldr	r3, [r3]
 175 00e4 0A43     		orrs	r2, r2, r1
 176 00e6 1A60     		str	r2, [r3]
 473:Drivers/STM32F3xx_HAL_Driver/Src/stm32f3xx_hal_i2c.c **** 
 474:Drivers/STM32F3xx_HAL_Driver/Src/stm32f3xx_hal_i2c.c ****   /* Enable the selected I2C peripheral */
 475:Drivers/STM32F3xx_HAL_Driver/Src/stm32f3xx_hal_i2c.c ****   __HAL_I2C_ENABLE(hi2c);
 177              		.loc 1 475 0
 178 00e8 7B68     		ldr	r3, [r7, #4]
 179 00ea 1B68     		ldr	r3, [r3]
 180 00ec 1A68     		ldr	r2, [r3]
 181 00ee 7B68     		ldr	r3, [r7, #4]
 182 00f0 1B68     		ldr	r3, [r3]
 183 00f2 42F00102 		orr	r2, r2, #1
 184 00f6 1A60     		str	r2, [r3]
 476:Drivers/STM32F3xx_HAL_Driver/Src/stm32f3xx_hal_i2c.c **** 
 477:Drivers/STM32F3xx_HAL_Driver/Src/stm32f3xx_hal_i2c.c ****   hi2c->ErrorCode = HAL_I2C_ERROR_NONE;
 185              		.loc 1 477 0
 186 00f8 7B68     		ldr	r3, [r7, #4]
 187 00fa 0022     		movs	r2, #0
 188 00fc 5A64     		str	r2, [r3, #68]
 478:Drivers/STM32F3xx_HAL_Driver/Src/stm32f3xx_hal_i2c.c ****   hi2c->State = HAL_I2C_STATE_READY;
 189              		.loc 1 478 0
 190 00fe 7B68     		ldr	r3, [r7, #4]
 191 0100 2022     		movs	r2, #32
 192 0102 83F84120 		strb	r2, [r3, #65]
 479:Drivers/STM32F3xx_HAL_Driver/Src/stm32f3xx_hal_i2c.c ****   hi2c->PreviousState = I2C_STATE_NONE;
 193              		.loc 1 479 0
 194 0106 7B68     		ldr	r3, [r7, #4]
 195 0108 0022     		movs	r2, #0
 196 010a 1A63     		str	r2, [r3, #48]
 480:Drivers/STM32F3xx_HAL_Driver/Src/stm32f3xx_hal_i2c.c ****   hi2c->Mode = HAL_I2C_MODE_NONE;
 197              		.loc 1 480 0
 198 010c 7B68     		ldr	r3, [r7, #4]
 199 010e 0022     		movs	r2, #0
 200 0110 83F84220 		strb	r2, [r3, #66]
 481:Drivers/STM32F3xx_HAL_Driver/Src/stm32f3xx_hal_i2c.c **** 
 482:Drivers/STM32F3xx_HAL_Driver/Src/stm32f3xx_hal_i2c.c ****   return HAL_OK;
 201              		.loc 1 482 0
 202 0114 0023     		movs	r3, #0
 203              	.L3:
 483:Drivers/STM32F3xx_HAL_Driver/Src/stm32f3xx_hal_i2c.c **** }
 204              		.loc 1 483 0
ARM GAS  /tmp/ccy0jiyr.s 			page 13


 205 0116 1846     		mov	r0, r3
 206 0118 0837     		adds	r7, r7, #8
 207              	.LCFI3:
 208              		.cfi_def_cfa_offset 8
 209 011a BD46     		mov	sp, r7
 210              	.LCFI4:
 211              		.cfi_def_cfa_register 13
 212              		@ sp needed
 213 011c 80BD     		pop	{r7, pc}
 214              		.cfi_endproc
 215              	.LFE695:
 217              		.section	.text.HAL_I2C_DeInit,"ax",%progbits
 218              		.align	1
 219              		.global	HAL_I2C_DeInit
 220              		.syntax unified
 221              		.thumb
 222              		.thumb_func
 223              		.fpu fpv4-sp-d16
 225              	HAL_I2C_DeInit:
 226              	.LFB696:
 484:Drivers/STM32F3xx_HAL_Driver/Src/stm32f3xx_hal_i2c.c **** 
 485:Drivers/STM32F3xx_HAL_Driver/Src/stm32f3xx_hal_i2c.c **** /**
 486:Drivers/STM32F3xx_HAL_Driver/Src/stm32f3xx_hal_i2c.c ****   * @brief  DeInitialize the I2C peripheral.
 487:Drivers/STM32F3xx_HAL_Driver/Src/stm32f3xx_hal_i2c.c ****   * @param  hi2c Pointer to a I2C_HandleTypeDef structure that contains
 488:Drivers/STM32F3xx_HAL_Driver/Src/stm32f3xx_hal_i2c.c ****   *                the configuration information for the specified I2C.
 489:Drivers/STM32F3xx_HAL_Driver/Src/stm32f3xx_hal_i2c.c ****   * @retval HAL status
 490:Drivers/STM32F3xx_HAL_Driver/Src/stm32f3xx_hal_i2c.c ****   */
 491:Drivers/STM32F3xx_HAL_Driver/Src/stm32f3xx_hal_i2c.c **** HAL_StatusTypeDef HAL_I2C_DeInit(I2C_HandleTypeDef *hi2c)
 492:Drivers/STM32F3xx_HAL_Driver/Src/stm32f3xx_hal_i2c.c **** {
 227              		.loc 1 492 0
 228              		.cfi_startproc
 229              		@ args = 0, pretend = 0, frame = 8
 230              		@ frame_needed = 1, uses_anonymous_args = 0
 231 0000 80B5     		push	{r7, lr}
 232              	.LCFI5:
 233              		.cfi_def_cfa_offset 8
 234              		.cfi_offset 7, -8
 235              		.cfi_offset 14, -4
 236 0002 82B0     		sub	sp, sp, #8
 237              	.LCFI6:
 238              		.cfi_def_cfa_offset 16
 239 0004 00AF     		add	r7, sp, #0
 240              	.LCFI7:
 241              		.cfi_def_cfa_register 7
 242 0006 7860     		str	r0, [r7, #4]
 493:Drivers/STM32F3xx_HAL_Driver/Src/stm32f3xx_hal_i2c.c ****   /* Check the I2C handle allocation */
 494:Drivers/STM32F3xx_HAL_Driver/Src/stm32f3xx_hal_i2c.c ****   if (hi2c == NULL)
 243              		.loc 1 494 0
 244 0008 7B68     		ldr	r3, [r7, #4]
 245 000a 002B     		cmp	r3, #0
 246 000c 01D1     		bne	.L9
 495:Drivers/STM32F3xx_HAL_Driver/Src/stm32f3xx_hal_i2c.c ****   {
 496:Drivers/STM32F3xx_HAL_Driver/Src/stm32f3xx_hal_i2c.c ****     return HAL_ERROR;
 247              		.loc 1 496 0
 248 000e 0123     		movs	r3, #1
 249 0010 21E0     		b	.L10
 250              	.L9:
ARM GAS  /tmp/ccy0jiyr.s 			page 14


 497:Drivers/STM32F3xx_HAL_Driver/Src/stm32f3xx_hal_i2c.c ****   }
 498:Drivers/STM32F3xx_HAL_Driver/Src/stm32f3xx_hal_i2c.c **** 
 499:Drivers/STM32F3xx_HAL_Driver/Src/stm32f3xx_hal_i2c.c ****   /* Check the parameters */
 500:Drivers/STM32F3xx_HAL_Driver/Src/stm32f3xx_hal_i2c.c ****   assert_param(IS_I2C_ALL_INSTANCE(hi2c->Instance));
 501:Drivers/STM32F3xx_HAL_Driver/Src/stm32f3xx_hal_i2c.c **** 
 502:Drivers/STM32F3xx_HAL_Driver/Src/stm32f3xx_hal_i2c.c ****   hi2c->State = HAL_I2C_STATE_BUSY;
 251              		.loc 1 502 0
 252 0012 7B68     		ldr	r3, [r7, #4]
 253 0014 2422     		movs	r2, #36
 254 0016 83F84120 		strb	r2, [r3, #65]
 503:Drivers/STM32F3xx_HAL_Driver/Src/stm32f3xx_hal_i2c.c **** 
 504:Drivers/STM32F3xx_HAL_Driver/Src/stm32f3xx_hal_i2c.c ****   /* Disable the I2C Peripheral Clock */
 505:Drivers/STM32F3xx_HAL_Driver/Src/stm32f3xx_hal_i2c.c ****   __HAL_I2C_DISABLE(hi2c);
 255              		.loc 1 505 0
 256 001a 7B68     		ldr	r3, [r7, #4]
 257 001c 1B68     		ldr	r3, [r3]
 258 001e 1A68     		ldr	r2, [r3]
 259 0020 7B68     		ldr	r3, [r7, #4]
 260 0022 1B68     		ldr	r3, [r3]
 261 0024 22F00102 		bic	r2, r2, #1
 262 0028 1A60     		str	r2, [r3]
 506:Drivers/STM32F3xx_HAL_Driver/Src/stm32f3xx_hal_i2c.c **** 
 507:Drivers/STM32F3xx_HAL_Driver/Src/stm32f3xx_hal_i2c.c ****   /* DeInit the low level hardware: GPIO, CLOCK, NVIC */
 508:Drivers/STM32F3xx_HAL_Driver/Src/stm32f3xx_hal_i2c.c ****   HAL_I2C_MspDeInit(hi2c);
 263              		.loc 1 508 0
 264 002a 7868     		ldr	r0, [r7, #4]
 265 002c FFF7FEFF 		bl	HAL_I2C_MspDeInit
 509:Drivers/STM32F3xx_HAL_Driver/Src/stm32f3xx_hal_i2c.c **** 
 510:Drivers/STM32F3xx_HAL_Driver/Src/stm32f3xx_hal_i2c.c ****   hi2c->ErrorCode = HAL_I2C_ERROR_NONE;
 266              		.loc 1 510 0
 267 0030 7B68     		ldr	r3, [r7, #4]
 268 0032 0022     		movs	r2, #0
 269 0034 5A64     		str	r2, [r3, #68]
 511:Drivers/STM32F3xx_HAL_Driver/Src/stm32f3xx_hal_i2c.c ****   hi2c->State = HAL_I2C_STATE_RESET;
 270              		.loc 1 511 0
 271 0036 7B68     		ldr	r3, [r7, #4]
 272 0038 0022     		movs	r2, #0
 273 003a 83F84120 		strb	r2, [r3, #65]
 512:Drivers/STM32F3xx_HAL_Driver/Src/stm32f3xx_hal_i2c.c ****   hi2c->PreviousState = I2C_STATE_NONE;
 274              		.loc 1 512 0
 275 003e 7B68     		ldr	r3, [r7, #4]
 276 0040 0022     		movs	r2, #0
 277 0042 1A63     		str	r2, [r3, #48]
 513:Drivers/STM32F3xx_HAL_Driver/Src/stm32f3xx_hal_i2c.c ****   hi2c->Mode = HAL_I2C_MODE_NONE;
 278              		.loc 1 513 0
 279 0044 7B68     		ldr	r3, [r7, #4]
 280 0046 0022     		movs	r2, #0
 281 0048 83F84220 		strb	r2, [r3, #66]
 514:Drivers/STM32F3xx_HAL_Driver/Src/stm32f3xx_hal_i2c.c **** 
 515:Drivers/STM32F3xx_HAL_Driver/Src/stm32f3xx_hal_i2c.c ****   /* Release Lock */
 516:Drivers/STM32F3xx_HAL_Driver/Src/stm32f3xx_hal_i2c.c ****   __HAL_UNLOCK(hi2c);
 282              		.loc 1 516 0
 283 004c 7B68     		ldr	r3, [r7, #4]
 284 004e 0022     		movs	r2, #0
 285 0050 83F84020 		strb	r2, [r3, #64]
 517:Drivers/STM32F3xx_HAL_Driver/Src/stm32f3xx_hal_i2c.c **** 
 518:Drivers/STM32F3xx_HAL_Driver/Src/stm32f3xx_hal_i2c.c ****   return HAL_OK;
ARM GAS  /tmp/ccy0jiyr.s 			page 15


 286              		.loc 1 518 0
 287 0054 0023     		movs	r3, #0
 288              	.L10:
 519:Drivers/STM32F3xx_HAL_Driver/Src/stm32f3xx_hal_i2c.c **** }
 289              		.loc 1 519 0
 290 0056 1846     		mov	r0, r3
 291 0058 0837     		adds	r7, r7, #8
 292              	.LCFI8:
 293              		.cfi_def_cfa_offset 8
 294 005a BD46     		mov	sp, r7
 295              	.LCFI9:
 296              		.cfi_def_cfa_register 13
 297              		@ sp needed
 298 005c 80BD     		pop	{r7, pc}
 299              		.cfi_endproc
 300              	.LFE696:
 302              		.section	.text.HAL_I2C_MspInit,"ax",%progbits
 303              		.align	1
 304              		.weak	HAL_I2C_MspInit
 305              		.syntax unified
 306              		.thumb
 307              		.thumb_func
 308              		.fpu fpv4-sp-d16
 310              	HAL_I2C_MspInit:
 311              	.LFB697:
 520:Drivers/STM32F3xx_HAL_Driver/Src/stm32f3xx_hal_i2c.c **** 
 521:Drivers/STM32F3xx_HAL_Driver/Src/stm32f3xx_hal_i2c.c **** /**
 522:Drivers/STM32F3xx_HAL_Driver/Src/stm32f3xx_hal_i2c.c ****   * @brief Initialize the I2C MSP.
 523:Drivers/STM32F3xx_HAL_Driver/Src/stm32f3xx_hal_i2c.c ****   * @param  hi2c Pointer to a I2C_HandleTypeDef structure that contains
 524:Drivers/STM32F3xx_HAL_Driver/Src/stm32f3xx_hal_i2c.c ****   *                the configuration information for the specified I2C.
 525:Drivers/STM32F3xx_HAL_Driver/Src/stm32f3xx_hal_i2c.c ****   * @retval None
 526:Drivers/STM32F3xx_HAL_Driver/Src/stm32f3xx_hal_i2c.c ****   */
 527:Drivers/STM32F3xx_HAL_Driver/Src/stm32f3xx_hal_i2c.c **** __weak void HAL_I2C_MspInit(I2C_HandleTypeDef *hi2c)
 528:Drivers/STM32F3xx_HAL_Driver/Src/stm32f3xx_hal_i2c.c **** {
 312              		.loc 1 528 0
 313              		.cfi_startproc
 314              		@ args = 0, pretend = 0, frame = 8
 315              		@ frame_needed = 1, uses_anonymous_args = 0
 316              		@ link register save eliminated.
 317 0000 80B4     		push	{r7}
 318              	.LCFI10:
 319              		.cfi_def_cfa_offset 4
 320              		.cfi_offset 7, -4
 321 0002 83B0     		sub	sp, sp, #12
 322              	.LCFI11:
 323              		.cfi_def_cfa_offset 16
 324 0004 00AF     		add	r7, sp, #0
 325              	.LCFI12:
 326              		.cfi_def_cfa_register 7
 327 0006 7860     		str	r0, [r7, #4]
 529:Drivers/STM32F3xx_HAL_Driver/Src/stm32f3xx_hal_i2c.c ****   /* Prevent unused argument(s) compilation warning */
 530:Drivers/STM32F3xx_HAL_Driver/Src/stm32f3xx_hal_i2c.c ****   UNUSED(hi2c);
 531:Drivers/STM32F3xx_HAL_Driver/Src/stm32f3xx_hal_i2c.c **** 
 532:Drivers/STM32F3xx_HAL_Driver/Src/stm32f3xx_hal_i2c.c ****   /* NOTE : This function should not be modified, when the callback is needed,
 533:Drivers/STM32F3xx_HAL_Driver/Src/stm32f3xx_hal_i2c.c ****             the HAL_I2C_MspInit could be implemented in the user file
 534:Drivers/STM32F3xx_HAL_Driver/Src/stm32f3xx_hal_i2c.c ****    */
 535:Drivers/STM32F3xx_HAL_Driver/Src/stm32f3xx_hal_i2c.c **** }
ARM GAS  /tmp/ccy0jiyr.s 			page 16


 328              		.loc 1 535 0
 329 0008 00BF     		nop
 330 000a 0C37     		adds	r7, r7, #12
 331              	.LCFI13:
 332              		.cfi_def_cfa_offset 4
 333 000c BD46     		mov	sp, r7
 334              	.LCFI14:
 335              		.cfi_def_cfa_register 13
 336              		@ sp needed
 337 000e 5DF8047B 		ldr	r7, [sp], #4
 338              	.LCFI15:
 339              		.cfi_restore 7
 340              		.cfi_def_cfa_offset 0
 341 0012 7047     		bx	lr
 342              		.cfi_endproc
 343              	.LFE697:
 345              		.section	.text.HAL_I2C_MspDeInit,"ax",%progbits
 346              		.align	1
 347              		.weak	HAL_I2C_MspDeInit
 348              		.syntax unified
 349              		.thumb
 350              		.thumb_func
 351              		.fpu fpv4-sp-d16
 353              	HAL_I2C_MspDeInit:
 354              	.LFB698:
 536:Drivers/STM32F3xx_HAL_Driver/Src/stm32f3xx_hal_i2c.c **** 
 537:Drivers/STM32F3xx_HAL_Driver/Src/stm32f3xx_hal_i2c.c **** /**
 538:Drivers/STM32F3xx_HAL_Driver/Src/stm32f3xx_hal_i2c.c ****   * @brief DeInitialize the I2C MSP.
 539:Drivers/STM32F3xx_HAL_Driver/Src/stm32f3xx_hal_i2c.c ****   * @param  hi2c Pointer to a I2C_HandleTypeDef structure that contains
 540:Drivers/STM32F3xx_HAL_Driver/Src/stm32f3xx_hal_i2c.c ****   *                the configuration information for the specified I2C.
 541:Drivers/STM32F3xx_HAL_Driver/Src/stm32f3xx_hal_i2c.c ****   * @retval None
 542:Drivers/STM32F3xx_HAL_Driver/Src/stm32f3xx_hal_i2c.c ****   */
 543:Drivers/STM32F3xx_HAL_Driver/Src/stm32f3xx_hal_i2c.c **** __weak void HAL_I2C_MspDeInit(I2C_HandleTypeDef *hi2c)
 544:Drivers/STM32F3xx_HAL_Driver/Src/stm32f3xx_hal_i2c.c **** {
 355              		.loc 1 544 0
 356              		.cfi_startproc
 357              		@ args = 0, pretend = 0, frame = 8
 358              		@ frame_needed = 1, uses_anonymous_args = 0
 359              		@ link register save eliminated.
 360 0000 80B4     		push	{r7}
 361              	.LCFI16:
 362              		.cfi_def_cfa_offset 4
 363              		.cfi_offset 7, -4
 364 0002 83B0     		sub	sp, sp, #12
 365              	.LCFI17:
 366              		.cfi_def_cfa_offset 16
 367 0004 00AF     		add	r7, sp, #0
 368              	.LCFI18:
 369              		.cfi_def_cfa_register 7
 370 0006 7860     		str	r0, [r7, #4]
 545:Drivers/STM32F3xx_HAL_Driver/Src/stm32f3xx_hal_i2c.c ****   /* Prevent unused argument(s) compilation warning */
 546:Drivers/STM32F3xx_HAL_Driver/Src/stm32f3xx_hal_i2c.c ****   UNUSED(hi2c);
 547:Drivers/STM32F3xx_HAL_Driver/Src/stm32f3xx_hal_i2c.c **** 
 548:Drivers/STM32F3xx_HAL_Driver/Src/stm32f3xx_hal_i2c.c ****   /* NOTE : This function should not be modified, when the callback is needed,
 549:Drivers/STM32F3xx_HAL_Driver/Src/stm32f3xx_hal_i2c.c ****             the HAL_I2C_MspDeInit could be implemented in the user file
 550:Drivers/STM32F3xx_HAL_Driver/Src/stm32f3xx_hal_i2c.c ****    */
 551:Drivers/STM32F3xx_HAL_Driver/Src/stm32f3xx_hal_i2c.c **** }
ARM GAS  /tmp/ccy0jiyr.s 			page 17


 371              		.loc 1 551 0
 372 0008 00BF     		nop
 373 000a 0C37     		adds	r7, r7, #12
 374              	.LCFI19:
 375              		.cfi_def_cfa_offset 4
 376 000c BD46     		mov	sp, r7
 377              	.LCFI20:
 378              		.cfi_def_cfa_register 13
 379              		@ sp needed
 380 000e 5DF8047B 		ldr	r7, [sp], #4
 381              	.LCFI21:
 382              		.cfi_restore 7
 383              		.cfi_def_cfa_offset 0
 384 0012 7047     		bx	lr
 385              		.cfi_endproc
 386              	.LFE698:
 388              		.section	.text.HAL_I2C_Master_Transmit,"ax",%progbits
 389              		.align	1
 390              		.global	HAL_I2C_Master_Transmit
 391              		.syntax unified
 392              		.thumb
 393              		.thumb_func
 394              		.fpu fpv4-sp-d16
 396              	HAL_I2C_Master_Transmit:
 397              	.LFB699:
 552:Drivers/STM32F3xx_HAL_Driver/Src/stm32f3xx_hal_i2c.c **** 
 553:Drivers/STM32F3xx_HAL_Driver/Src/stm32f3xx_hal_i2c.c **** /**
 554:Drivers/STM32F3xx_HAL_Driver/Src/stm32f3xx_hal_i2c.c ****   * @}
 555:Drivers/STM32F3xx_HAL_Driver/Src/stm32f3xx_hal_i2c.c ****   */
 556:Drivers/STM32F3xx_HAL_Driver/Src/stm32f3xx_hal_i2c.c **** 
 557:Drivers/STM32F3xx_HAL_Driver/Src/stm32f3xx_hal_i2c.c **** /** @defgroup I2C_Exported_Functions_Group2 Input and Output operation functions
 558:Drivers/STM32F3xx_HAL_Driver/Src/stm32f3xx_hal_i2c.c ****  *  @brief   Data transfers functions
 559:Drivers/STM32F3xx_HAL_Driver/Src/stm32f3xx_hal_i2c.c ****  *
 560:Drivers/STM32F3xx_HAL_Driver/Src/stm32f3xx_hal_i2c.c **** @verbatim
 561:Drivers/STM32F3xx_HAL_Driver/Src/stm32f3xx_hal_i2c.c ****  ===============================================================================
 562:Drivers/STM32F3xx_HAL_Driver/Src/stm32f3xx_hal_i2c.c ****                       ##### IO operation functions #####
 563:Drivers/STM32F3xx_HAL_Driver/Src/stm32f3xx_hal_i2c.c ****  ===============================================================================
 564:Drivers/STM32F3xx_HAL_Driver/Src/stm32f3xx_hal_i2c.c ****     [..]
 565:Drivers/STM32F3xx_HAL_Driver/Src/stm32f3xx_hal_i2c.c ****     This subsection provides a set of functions allowing to manage the I2C data
 566:Drivers/STM32F3xx_HAL_Driver/Src/stm32f3xx_hal_i2c.c ****     transfers.
 567:Drivers/STM32F3xx_HAL_Driver/Src/stm32f3xx_hal_i2c.c **** 
 568:Drivers/STM32F3xx_HAL_Driver/Src/stm32f3xx_hal_i2c.c ****     (#) There are two modes of transfer:
 569:Drivers/STM32F3xx_HAL_Driver/Src/stm32f3xx_hal_i2c.c ****        (++) Blocking mode : The communication is performed in the polling mode.
 570:Drivers/STM32F3xx_HAL_Driver/Src/stm32f3xx_hal_i2c.c ****             The status of all data processing is returned by the same function
 571:Drivers/STM32F3xx_HAL_Driver/Src/stm32f3xx_hal_i2c.c ****             after finishing transfer.
 572:Drivers/STM32F3xx_HAL_Driver/Src/stm32f3xx_hal_i2c.c ****        (++) No-Blocking mode : The communication is performed using Interrupts
 573:Drivers/STM32F3xx_HAL_Driver/Src/stm32f3xx_hal_i2c.c ****             or DMA. These functions return the status of the transfer startup.
 574:Drivers/STM32F3xx_HAL_Driver/Src/stm32f3xx_hal_i2c.c ****             The end of the data processing will be indicated through the
 575:Drivers/STM32F3xx_HAL_Driver/Src/stm32f3xx_hal_i2c.c ****             dedicated I2C IRQ when using Interrupt mode or the DMA IRQ when
 576:Drivers/STM32F3xx_HAL_Driver/Src/stm32f3xx_hal_i2c.c ****             using DMA mode.
 577:Drivers/STM32F3xx_HAL_Driver/Src/stm32f3xx_hal_i2c.c **** 
 578:Drivers/STM32F3xx_HAL_Driver/Src/stm32f3xx_hal_i2c.c ****     (#) Blocking mode functions are :
 579:Drivers/STM32F3xx_HAL_Driver/Src/stm32f3xx_hal_i2c.c ****         (++) HAL_I2C_Master_Transmit()
 580:Drivers/STM32F3xx_HAL_Driver/Src/stm32f3xx_hal_i2c.c ****         (++) HAL_I2C_Master_Receive()
 581:Drivers/STM32F3xx_HAL_Driver/Src/stm32f3xx_hal_i2c.c ****         (++) HAL_I2C_Slave_Transmit()
 582:Drivers/STM32F3xx_HAL_Driver/Src/stm32f3xx_hal_i2c.c ****         (++) HAL_I2C_Slave_Receive()
 583:Drivers/STM32F3xx_HAL_Driver/Src/stm32f3xx_hal_i2c.c ****         (++) HAL_I2C_Mem_Write()
ARM GAS  /tmp/ccy0jiyr.s 			page 18


 584:Drivers/STM32F3xx_HAL_Driver/Src/stm32f3xx_hal_i2c.c ****         (++) HAL_I2C_Mem_Read()
 585:Drivers/STM32F3xx_HAL_Driver/Src/stm32f3xx_hal_i2c.c ****         (++) HAL_I2C_IsDeviceReady()
 586:Drivers/STM32F3xx_HAL_Driver/Src/stm32f3xx_hal_i2c.c **** 
 587:Drivers/STM32F3xx_HAL_Driver/Src/stm32f3xx_hal_i2c.c ****     (#) No-Blocking mode functions with Interrupt are :
 588:Drivers/STM32F3xx_HAL_Driver/Src/stm32f3xx_hal_i2c.c ****         (++) HAL_I2C_Master_Transmit_IT()
 589:Drivers/STM32F3xx_HAL_Driver/Src/stm32f3xx_hal_i2c.c ****         (++) HAL_I2C_Master_Receive_IT()
 590:Drivers/STM32F3xx_HAL_Driver/Src/stm32f3xx_hal_i2c.c ****         (++) HAL_I2C_Slave_Transmit_IT()
 591:Drivers/STM32F3xx_HAL_Driver/Src/stm32f3xx_hal_i2c.c ****         (++) HAL_I2C_Slave_Receive_IT()
 592:Drivers/STM32F3xx_HAL_Driver/Src/stm32f3xx_hal_i2c.c ****         (++) HAL_I2C_Mem_Write_IT()
 593:Drivers/STM32F3xx_HAL_Driver/Src/stm32f3xx_hal_i2c.c ****         (++) HAL_I2C_Mem_Read_IT()
 594:Drivers/STM32F3xx_HAL_Driver/Src/stm32f3xx_hal_i2c.c **** 
 595:Drivers/STM32F3xx_HAL_Driver/Src/stm32f3xx_hal_i2c.c ****     (#) No-Blocking mode functions with DMA are :
 596:Drivers/STM32F3xx_HAL_Driver/Src/stm32f3xx_hal_i2c.c ****         (++) HAL_I2C_Master_Transmit_DMA()
 597:Drivers/STM32F3xx_HAL_Driver/Src/stm32f3xx_hal_i2c.c ****         (++) HAL_I2C_Master_Receive_DMA()
 598:Drivers/STM32F3xx_HAL_Driver/Src/stm32f3xx_hal_i2c.c ****         (++) HAL_I2C_Slave_Transmit_DMA()
 599:Drivers/STM32F3xx_HAL_Driver/Src/stm32f3xx_hal_i2c.c ****         (++) HAL_I2C_Slave_Receive_DMA()
 600:Drivers/STM32F3xx_HAL_Driver/Src/stm32f3xx_hal_i2c.c ****         (++) HAL_I2C_Mem_Write_DMA()
 601:Drivers/STM32F3xx_HAL_Driver/Src/stm32f3xx_hal_i2c.c ****         (++) HAL_I2C_Mem_Read_DMA()
 602:Drivers/STM32F3xx_HAL_Driver/Src/stm32f3xx_hal_i2c.c **** 
 603:Drivers/STM32F3xx_HAL_Driver/Src/stm32f3xx_hal_i2c.c ****     (#) A set of Transfer Complete Callbacks are provided in non Blocking mode:
 604:Drivers/STM32F3xx_HAL_Driver/Src/stm32f3xx_hal_i2c.c ****         (++) HAL_I2C_MemTxCpltCallback()
 605:Drivers/STM32F3xx_HAL_Driver/Src/stm32f3xx_hal_i2c.c ****         (++) HAL_I2C_MemRxCpltCallback()
 606:Drivers/STM32F3xx_HAL_Driver/Src/stm32f3xx_hal_i2c.c ****         (++) HAL_I2C_MasterTxCpltCallback()
 607:Drivers/STM32F3xx_HAL_Driver/Src/stm32f3xx_hal_i2c.c ****         (++) HAL_I2C_MasterRxCpltCallback()
 608:Drivers/STM32F3xx_HAL_Driver/Src/stm32f3xx_hal_i2c.c ****         (++) HAL_I2C_SlaveTxCpltCallback()
 609:Drivers/STM32F3xx_HAL_Driver/Src/stm32f3xx_hal_i2c.c ****         (++) HAL_I2C_SlaveRxCpltCallback()
 610:Drivers/STM32F3xx_HAL_Driver/Src/stm32f3xx_hal_i2c.c ****         (++) HAL_I2C_ErrorCallback()
 611:Drivers/STM32F3xx_HAL_Driver/Src/stm32f3xx_hal_i2c.c **** 
 612:Drivers/STM32F3xx_HAL_Driver/Src/stm32f3xx_hal_i2c.c **** @endverbatim
 613:Drivers/STM32F3xx_HAL_Driver/Src/stm32f3xx_hal_i2c.c ****   * @{
 614:Drivers/STM32F3xx_HAL_Driver/Src/stm32f3xx_hal_i2c.c ****   */
 615:Drivers/STM32F3xx_HAL_Driver/Src/stm32f3xx_hal_i2c.c **** 
 616:Drivers/STM32F3xx_HAL_Driver/Src/stm32f3xx_hal_i2c.c **** /**
 617:Drivers/STM32F3xx_HAL_Driver/Src/stm32f3xx_hal_i2c.c ****   * @brief  Transmits in master mode an amount of data in blocking mode.
 618:Drivers/STM32F3xx_HAL_Driver/Src/stm32f3xx_hal_i2c.c ****   * @param  hi2c Pointer to a I2C_HandleTypeDef structure that contains
 619:Drivers/STM32F3xx_HAL_Driver/Src/stm32f3xx_hal_i2c.c ****   *                the configuration information for the specified I2C.
 620:Drivers/STM32F3xx_HAL_Driver/Src/stm32f3xx_hal_i2c.c ****   * @param  DevAddress Target device address: The device 7 bits address value
 621:Drivers/STM32F3xx_HAL_Driver/Src/stm32f3xx_hal_i2c.c ****   *         in datasheet must be shift at right before call interface
 622:Drivers/STM32F3xx_HAL_Driver/Src/stm32f3xx_hal_i2c.c ****   * @param  pData Pointer to data buffer
 623:Drivers/STM32F3xx_HAL_Driver/Src/stm32f3xx_hal_i2c.c ****   * @param  Size Amount of data to be sent
 624:Drivers/STM32F3xx_HAL_Driver/Src/stm32f3xx_hal_i2c.c ****   * @param  Timeout Timeout duration
 625:Drivers/STM32F3xx_HAL_Driver/Src/stm32f3xx_hal_i2c.c ****   * @retval HAL status
 626:Drivers/STM32F3xx_HAL_Driver/Src/stm32f3xx_hal_i2c.c ****   */
 627:Drivers/STM32F3xx_HAL_Driver/Src/stm32f3xx_hal_i2c.c **** HAL_StatusTypeDef HAL_I2C_Master_Transmit(I2C_HandleTypeDef *hi2c, uint16_t DevAddress, uint8_t *pD
 628:Drivers/STM32F3xx_HAL_Driver/Src/stm32f3xx_hal_i2c.c **** {
 398              		.loc 1 628 0
 399              		.cfi_startproc
 400              		@ args = 4, pretend = 0, frame = 24
 401              		@ frame_needed = 1, uses_anonymous_args = 0
 402 0000 80B5     		push	{r7, lr}
 403              	.LCFI22:
 404              		.cfi_def_cfa_offset 8
 405              		.cfi_offset 7, -8
 406              		.cfi_offset 14, -4
 407 0002 88B0     		sub	sp, sp, #32
 408              	.LCFI23:
 409              		.cfi_def_cfa_offset 40
ARM GAS  /tmp/ccy0jiyr.s 			page 19


 410 0004 02AF     		add	r7, sp, #8
 411              	.LCFI24:
 412              		.cfi_def_cfa 7, 32
 413 0006 F860     		str	r0, [r7, #12]
 414 0008 7A60     		str	r2, [r7, #4]
 415 000a 1A46     		mov	r2, r3
 416 000c 0B46     		mov	r3, r1	@ movhi
 417 000e 7B81     		strh	r3, [r7, #10]	@ movhi
 418 0010 1346     		mov	r3, r2	@ movhi
 419 0012 3B81     		strh	r3, [r7, #8]	@ movhi
 629:Drivers/STM32F3xx_HAL_Driver/Src/stm32f3xx_hal_i2c.c ****   uint32_t tickstart = 0U;
 420              		.loc 1 629 0
 421 0014 0023     		movs	r3, #0
 422 0016 7B61     		str	r3, [r7, #20]
 630:Drivers/STM32F3xx_HAL_Driver/Src/stm32f3xx_hal_i2c.c **** 
 631:Drivers/STM32F3xx_HAL_Driver/Src/stm32f3xx_hal_i2c.c ****   if (hi2c->State == HAL_I2C_STATE_READY)
 423              		.loc 1 631 0
 424 0018 FB68     		ldr	r3, [r7, #12]
 425 001a 93F84130 		ldrb	r3, [r3, #65]
 426 001e DBB2     		uxtb	r3, r3
 427 0020 202B     		cmp	r3, #32
 428 0022 40F0E680 		bne	.L14
 632:Drivers/STM32F3xx_HAL_Driver/Src/stm32f3xx_hal_i2c.c ****   {
 633:Drivers/STM32F3xx_HAL_Driver/Src/stm32f3xx_hal_i2c.c ****     /* Process Locked */
 634:Drivers/STM32F3xx_HAL_Driver/Src/stm32f3xx_hal_i2c.c ****     __HAL_LOCK(hi2c);
 429              		.loc 1 634 0
 430 0026 FB68     		ldr	r3, [r7, #12]
 431 0028 93F84030 		ldrb	r3, [r3, #64]	@ zero_extendqisi2
 432 002c 012B     		cmp	r3, #1
 433 002e 01D1     		bne	.L15
 434              		.loc 1 634 0 is_stmt 0 discriminator 1
 435 0030 0223     		movs	r3, #2
 436 0032 DFE0     		b	.L16
 437              	.L15:
 438              		.loc 1 634 0 discriminator 2
 439 0034 FB68     		ldr	r3, [r7, #12]
 440 0036 0122     		movs	r2, #1
 441 0038 83F84020 		strb	r2, [r3, #64]
 635:Drivers/STM32F3xx_HAL_Driver/Src/stm32f3xx_hal_i2c.c **** 
 636:Drivers/STM32F3xx_HAL_Driver/Src/stm32f3xx_hal_i2c.c ****     /* Init tickstart for timeout management*/
 637:Drivers/STM32F3xx_HAL_Driver/Src/stm32f3xx_hal_i2c.c ****     tickstart = HAL_GetTick();
 442              		.loc 1 637 0 is_stmt 1 discriminator 2
 443 003c FFF7FEFF 		bl	HAL_GetTick
 444 0040 7861     		str	r0, [r7, #20]
 638:Drivers/STM32F3xx_HAL_Driver/Src/stm32f3xx_hal_i2c.c **** 
 639:Drivers/STM32F3xx_HAL_Driver/Src/stm32f3xx_hal_i2c.c ****     if (I2C_WaitOnFlagUntilTimeout(hi2c, I2C_FLAG_BUSY, SET, I2C_TIMEOUT_BUSY, tickstart) != HAL_OK
 445              		.loc 1 639 0 discriminator 2
 446 0042 7B69     		ldr	r3, [r7, #20]
 447 0044 0093     		str	r3, [sp]
 448 0046 1923     		movs	r3, #25
 449 0048 0122     		movs	r2, #1
 450 004a 4FF40041 		mov	r1, #32768
 451 004e F868     		ldr	r0, [r7, #12]
 452 0050 FFF7FEFF 		bl	I2C_WaitOnFlagUntilTimeout
 453 0054 0346     		mov	r3, r0
 454 0056 002B     		cmp	r3, #0
 455 0058 01D0     		beq	.L17
ARM GAS  /tmp/ccy0jiyr.s 			page 20


 640:Drivers/STM32F3xx_HAL_Driver/Src/stm32f3xx_hal_i2c.c ****     {
 641:Drivers/STM32F3xx_HAL_Driver/Src/stm32f3xx_hal_i2c.c ****       return HAL_TIMEOUT;
 456              		.loc 1 641 0
 457 005a 0323     		movs	r3, #3
 458 005c CAE0     		b	.L16
 459              	.L17:
 642:Drivers/STM32F3xx_HAL_Driver/Src/stm32f3xx_hal_i2c.c ****     }
 643:Drivers/STM32F3xx_HAL_Driver/Src/stm32f3xx_hal_i2c.c **** 
 644:Drivers/STM32F3xx_HAL_Driver/Src/stm32f3xx_hal_i2c.c ****     hi2c->State     = HAL_I2C_STATE_BUSY_TX;
 460              		.loc 1 644 0
 461 005e FB68     		ldr	r3, [r7, #12]
 462 0060 2122     		movs	r2, #33
 463 0062 83F84120 		strb	r2, [r3, #65]
 645:Drivers/STM32F3xx_HAL_Driver/Src/stm32f3xx_hal_i2c.c ****     hi2c->Mode      = HAL_I2C_MODE_MASTER;
 464              		.loc 1 645 0
 465 0066 FB68     		ldr	r3, [r7, #12]
 466 0068 1022     		movs	r2, #16
 467 006a 83F84220 		strb	r2, [r3, #66]
 646:Drivers/STM32F3xx_HAL_Driver/Src/stm32f3xx_hal_i2c.c ****     hi2c->ErrorCode = HAL_I2C_ERROR_NONE;
 468              		.loc 1 646 0
 469 006e FB68     		ldr	r3, [r7, #12]
 470 0070 0022     		movs	r2, #0
 471 0072 5A64     		str	r2, [r3, #68]
 647:Drivers/STM32F3xx_HAL_Driver/Src/stm32f3xx_hal_i2c.c **** 
 648:Drivers/STM32F3xx_HAL_Driver/Src/stm32f3xx_hal_i2c.c ****     /* Prepare transfer parameters */
 649:Drivers/STM32F3xx_HAL_Driver/Src/stm32f3xx_hal_i2c.c ****     hi2c->pBuffPtr  = pData;
 472              		.loc 1 649 0
 473 0074 FB68     		ldr	r3, [r7, #12]
 474 0076 7A68     		ldr	r2, [r7, #4]
 475 0078 5A62     		str	r2, [r3, #36]
 650:Drivers/STM32F3xx_HAL_Driver/Src/stm32f3xx_hal_i2c.c ****     hi2c->XferCount = Size;
 476              		.loc 1 650 0
 477 007a FB68     		ldr	r3, [r7, #12]
 478 007c 3A89     		ldrh	r2, [r7, #8]	@ movhi
 479 007e 5A85     		strh	r2, [r3, #42]	@ movhi
 651:Drivers/STM32F3xx_HAL_Driver/Src/stm32f3xx_hal_i2c.c ****     hi2c->XferISR   = NULL;
 480              		.loc 1 651 0
 481 0080 FB68     		ldr	r3, [r7, #12]
 482 0082 0022     		movs	r2, #0
 483 0084 5A63     		str	r2, [r3, #52]
 652:Drivers/STM32F3xx_HAL_Driver/Src/stm32f3xx_hal_i2c.c **** 
 653:Drivers/STM32F3xx_HAL_Driver/Src/stm32f3xx_hal_i2c.c ****     /* Send Slave Address */
 654:Drivers/STM32F3xx_HAL_Driver/Src/stm32f3xx_hal_i2c.c ****     /* Set NBYTES to write and reload if hi2c->XferCount > MAX_NBYTE_SIZE and generate RESTART */
 655:Drivers/STM32F3xx_HAL_Driver/Src/stm32f3xx_hal_i2c.c ****     if (hi2c->XferCount > MAX_NBYTE_SIZE)
 484              		.loc 1 655 0
 485 0086 FB68     		ldr	r3, [r7, #12]
 486 0088 5B8D     		ldrh	r3, [r3, #42]	@ movhi
 487 008a 9BB2     		uxth	r3, r3
 488 008c FF2B     		cmp	r3, #255
 489 008e 0FD9     		bls	.L18
 656:Drivers/STM32F3xx_HAL_Driver/Src/stm32f3xx_hal_i2c.c ****     {
 657:Drivers/STM32F3xx_HAL_Driver/Src/stm32f3xx_hal_i2c.c ****       hi2c->XferSize = MAX_NBYTE_SIZE;
 490              		.loc 1 657 0
 491 0090 FB68     		ldr	r3, [r7, #12]
 492 0092 FF22     		movs	r2, #255
 493 0094 1A85     		strh	r2, [r3, #40]	@ movhi
 658:Drivers/STM32F3xx_HAL_Driver/Src/stm32f3xx_hal_i2c.c ****       I2C_TransferConfig(hi2c, DevAddress, hi2c->XferSize, I2C_RELOAD_MODE, I2C_GENERATE_START_WRIT
ARM GAS  /tmp/ccy0jiyr.s 			page 21


 494              		.loc 1 658 0
 495 0096 FB68     		ldr	r3, [r7, #12]
 496 0098 1B8D     		ldrh	r3, [r3, #40]
 497 009a DAB2     		uxtb	r2, r3
 498 009c 7989     		ldrh	r1, [r7, #10]
 499 009e 4FF40053 		mov	r3, #8192
 500 00a2 0093     		str	r3, [sp]
 501 00a4 4FF08073 		mov	r3, #16777216
 502 00a8 F868     		ldr	r0, [r7, #12]
 503 00aa FFF7FEFF 		bl	I2C_TransferConfig
 504 00ae 71E0     		b	.L20
 505              	.L18:
 659:Drivers/STM32F3xx_HAL_Driver/Src/stm32f3xx_hal_i2c.c ****     }
 660:Drivers/STM32F3xx_HAL_Driver/Src/stm32f3xx_hal_i2c.c ****     else
 661:Drivers/STM32F3xx_HAL_Driver/Src/stm32f3xx_hal_i2c.c ****     {
 662:Drivers/STM32F3xx_HAL_Driver/Src/stm32f3xx_hal_i2c.c ****       hi2c->XferSize = hi2c->XferCount;
 506              		.loc 1 662 0
 507 00b0 FB68     		ldr	r3, [r7, #12]
 508 00b2 5B8D     		ldrh	r3, [r3, #42]	@ movhi
 509 00b4 9AB2     		uxth	r2, r3
 510 00b6 FB68     		ldr	r3, [r7, #12]
 511 00b8 1A85     		strh	r2, [r3, #40]	@ movhi
 663:Drivers/STM32F3xx_HAL_Driver/Src/stm32f3xx_hal_i2c.c ****       I2C_TransferConfig(hi2c, DevAddress, hi2c->XferSize, I2C_AUTOEND_MODE, I2C_GENERATE_START_WRI
 512              		.loc 1 663 0
 513 00ba FB68     		ldr	r3, [r7, #12]
 514 00bc 1B8D     		ldrh	r3, [r3, #40]
 515 00be DAB2     		uxtb	r2, r3
 516 00c0 7989     		ldrh	r1, [r7, #10]
 517 00c2 4FF40053 		mov	r3, #8192
 518 00c6 0093     		str	r3, [sp]
 519 00c8 4FF00073 		mov	r3, #33554432
 520 00cc F868     		ldr	r0, [r7, #12]
 521 00ce FFF7FEFF 		bl	I2C_TransferConfig
 664:Drivers/STM32F3xx_HAL_Driver/Src/stm32f3xx_hal_i2c.c ****     }
 665:Drivers/STM32F3xx_HAL_Driver/Src/stm32f3xx_hal_i2c.c **** 
 666:Drivers/STM32F3xx_HAL_Driver/Src/stm32f3xx_hal_i2c.c ****     while (hi2c->XferCount > 0U)
 522              		.loc 1 666 0
 523 00d2 5FE0     		b	.L20
 524              	.L25:
 667:Drivers/STM32F3xx_HAL_Driver/Src/stm32f3xx_hal_i2c.c ****     {
 668:Drivers/STM32F3xx_HAL_Driver/Src/stm32f3xx_hal_i2c.c ****       /* Wait until TXIS flag is set */
 669:Drivers/STM32F3xx_HAL_Driver/Src/stm32f3xx_hal_i2c.c ****       if (I2C_WaitOnTXISFlagUntilTimeout(hi2c, Timeout, tickstart) != HAL_OK)
 525              		.loc 1 669 0
 526 00d4 7A69     		ldr	r2, [r7, #20]
 527 00d6 396A     		ldr	r1, [r7, #32]
 528 00d8 F868     		ldr	r0, [r7, #12]
 529 00da FFF7FEFF 		bl	I2C_WaitOnTXISFlagUntilTimeout
 530 00de 0346     		mov	r3, r0
 531 00e0 002B     		cmp	r3, #0
 532 00e2 07D0     		beq	.L21
 670:Drivers/STM32F3xx_HAL_Driver/Src/stm32f3xx_hal_i2c.c ****       {
 671:Drivers/STM32F3xx_HAL_Driver/Src/stm32f3xx_hal_i2c.c ****         if (hi2c->ErrorCode == HAL_I2C_ERROR_AF)
 533              		.loc 1 671 0
 534 00e4 FB68     		ldr	r3, [r7, #12]
 535 00e6 5B6C     		ldr	r3, [r3, #68]
 536 00e8 042B     		cmp	r3, #4
 537 00ea 01D1     		bne	.L22
ARM GAS  /tmp/ccy0jiyr.s 			page 22


 672:Drivers/STM32F3xx_HAL_Driver/Src/stm32f3xx_hal_i2c.c ****         {
 673:Drivers/STM32F3xx_HAL_Driver/Src/stm32f3xx_hal_i2c.c ****           return HAL_ERROR;
 538              		.loc 1 673 0
 539 00ec 0123     		movs	r3, #1
 540 00ee 81E0     		b	.L16
 541              	.L22:
 674:Drivers/STM32F3xx_HAL_Driver/Src/stm32f3xx_hal_i2c.c ****         }
 675:Drivers/STM32F3xx_HAL_Driver/Src/stm32f3xx_hal_i2c.c ****         else
 676:Drivers/STM32F3xx_HAL_Driver/Src/stm32f3xx_hal_i2c.c ****         {
 677:Drivers/STM32F3xx_HAL_Driver/Src/stm32f3xx_hal_i2c.c ****           return HAL_TIMEOUT;
 542              		.loc 1 677 0
 543 00f0 0323     		movs	r3, #3
 544 00f2 7FE0     		b	.L16
 545              	.L21:
 678:Drivers/STM32F3xx_HAL_Driver/Src/stm32f3xx_hal_i2c.c ****         }
 679:Drivers/STM32F3xx_HAL_Driver/Src/stm32f3xx_hal_i2c.c ****       }
 680:Drivers/STM32F3xx_HAL_Driver/Src/stm32f3xx_hal_i2c.c ****       /* Write data to TXDR */
 681:Drivers/STM32F3xx_HAL_Driver/Src/stm32f3xx_hal_i2c.c ****       hi2c->Instance->TXDR = (*hi2c->pBuffPtr++);
 546              		.loc 1 681 0
 547 00f4 FB68     		ldr	r3, [r7, #12]
 548 00f6 5B6A     		ldr	r3, [r3, #36]
 549 00f8 591C     		adds	r1, r3, #1
 550 00fa FA68     		ldr	r2, [r7, #12]
 551 00fc 5162     		str	r1, [r2, #36]
 552 00fe 1A78     		ldrb	r2, [r3]	@ zero_extendqisi2
 553 0100 FB68     		ldr	r3, [r7, #12]
 554 0102 1B68     		ldr	r3, [r3]
 555 0104 9A62     		str	r2, [r3, #40]
 682:Drivers/STM32F3xx_HAL_Driver/Src/stm32f3xx_hal_i2c.c ****       hi2c->XferCount--;
 556              		.loc 1 682 0
 557 0106 FB68     		ldr	r3, [r7, #12]
 558 0108 5B8D     		ldrh	r3, [r3, #42]	@ movhi
 559 010a 9BB2     		uxth	r3, r3
 560 010c 013B     		subs	r3, r3, #1
 561 010e 9AB2     		uxth	r2, r3
 562 0110 FB68     		ldr	r3, [r7, #12]
 563 0112 5A85     		strh	r2, [r3, #42]	@ movhi
 683:Drivers/STM32F3xx_HAL_Driver/Src/stm32f3xx_hal_i2c.c ****       hi2c->XferSize--;
 564              		.loc 1 683 0
 565 0114 FB68     		ldr	r3, [r7, #12]
 566 0116 1B8D     		ldrh	r3, [r3, #40]
 567 0118 013B     		subs	r3, r3, #1
 568 011a 9AB2     		uxth	r2, r3
 569 011c FB68     		ldr	r3, [r7, #12]
 570 011e 1A85     		strh	r2, [r3, #40]	@ movhi
 684:Drivers/STM32F3xx_HAL_Driver/Src/stm32f3xx_hal_i2c.c **** 
 685:Drivers/STM32F3xx_HAL_Driver/Src/stm32f3xx_hal_i2c.c ****       if ((hi2c->XferSize == 0U) && (hi2c->XferCount != 0U))
 571              		.loc 1 685 0
 572 0120 FB68     		ldr	r3, [r7, #12]
 573 0122 1B8D     		ldrh	r3, [r3, #40]
 574 0124 002B     		cmp	r3, #0
 575 0126 35D1     		bne	.L20
 576              		.loc 1 685 0 is_stmt 0 discriminator 1
 577 0128 FB68     		ldr	r3, [r7, #12]
 578 012a 5B8D     		ldrh	r3, [r3, #42]	@ movhi
 579 012c 9BB2     		uxth	r3, r3
 580 012e 002B     		cmp	r3, #0
ARM GAS  /tmp/ccy0jiyr.s 			page 23


 581 0130 30D0     		beq	.L20
 686:Drivers/STM32F3xx_HAL_Driver/Src/stm32f3xx_hal_i2c.c ****       {
 687:Drivers/STM32F3xx_HAL_Driver/Src/stm32f3xx_hal_i2c.c ****         /* Wait until TCR flag is set */
 688:Drivers/STM32F3xx_HAL_Driver/Src/stm32f3xx_hal_i2c.c ****         if (I2C_WaitOnFlagUntilTimeout(hi2c, I2C_FLAG_TCR, RESET, Timeout, tickstart) != HAL_OK)
 582              		.loc 1 688 0 is_stmt 1
 583 0132 7B69     		ldr	r3, [r7, #20]
 584 0134 0093     		str	r3, [sp]
 585 0136 3B6A     		ldr	r3, [r7, #32]
 586 0138 0022     		movs	r2, #0
 587 013a 8021     		movs	r1, #128
 588 013c F868     		ldr	r0, [r7, #12]
 589 013e FFF7FEFF 		bl	I2C_WaitOnFlagUntilTimeout
 590 0142 0346     		mov	r3, r0
 591 0144 002B     		cmp	r3, #0
 592 0146 01D0     		beq	.L23
 689:Drivers/STM32F3xx_HAL_Driver/Src/stm32f3xx_hal_i2c.c ****         {
 690:Drivers/STM32F3xx_HAL_Driver/Src/stm32f3xx_hal_i2c.c ****           return HAL_TIMEOUT;
 593              		.loc 1 690 0
 594 0148 0323     		movs	r3, #3
 595 014a 53E0     		b	.L16
 596              	.L23:
 691:Drivers/STM32F3xx_HAL_Driver/Src/stm32f3xx_hal_i2c.c ****         }
 692:Drivers/STM32F3xx_HAL_Driver/Src/stm32f3xx_hal_i2c.c **** 
 693:Drivers/STM32F3xx_HAL_Driver/Src/stm32f3xx_hal_i2c.c ****         if (hi2c->XferCount > MAX_NBYTE_SIZE)
 597              		.loc 1 693 0
 598 014c FB68     		ldr	r3, [r7, #12]
 599 014e 5B8D     		ldrh	r3, [r3, #42]	@ movhi
 600 0150 9BB2     		uxth	r3, r3
 601 0152 FF2B     		cmp	r3, #255
 602 0154 0ED9     		bls	.L24
 694:Drivers/STM32F3xx_HAL_Driver/Src/stm32f3xx_hal_i2c.c ****         {
 695:Drivers/STM32F3xx_HAL_Driver/Src/stm32f3xx_hal_i2c.c ****           hi2c->XferSize = MAX_NBYTE_SIZE;
 603              		.loc 1 695 0
 604 0156 FB68     		ldr	r3, [r7, #12]
 605 0158 FF22     		movs	r2, #255
 606 015a 1A85     		strh	r2, [r3, #40]	@ movhi
 696:Drivers/STM32F3xx_HAL_Driver/Src/stm32f3xx_hal_i2c.c ****           I2C_TransferConfig(hi2c, DevAddress, hi2c->XferSize, I2C_RELOAD_MODE, I2C_NO_STARTSTOP);
 607              		.loc 1 696 0
 608 015c FB68     		ldr	r3, [r7, #12]
 609 015e 1B8D     		ldrh	r3, [r3, #40]
 610 0160 DAB2     		uxtb	r2, r3
 611 0162 7989     		ldrh	r1, [r7, #10]
 612 0164 0023     		movs	r3, #0
 613 0166 0093     		str	r3, [sp]
 614 0168 4FF08073 		mov	r3, #16777216
 615 016c F868     		ldr	r0, [r7, #12]
 616 016e FFF7FEFF 		bl	I2C_TransferConfig
 617 0172 0FE0     		b	.L20
 618              	.L24:
 697:Drivers/STM32F3xx_HAL_Driver/Src/stm32f3xx_hal_i2c.c ****         }
 698:Drivers/STM32F3xx_HAL_Driver/Src/stm32f3xx_hal_i2c.c ****         else
 699:Drivers/STM32F3xx_HAL_Driver/Src/stm32f3xx_hal_i2c.c ****         {
 700:Drivers/STM32F3xx_HAL_Driver/Src/stm32f3xx_hal_i2c.c ****           hi2c->XferSize = hi2c->XferCount;
 619              		.loc 1 700 0
 620 0174 FB68     		ldr	r3, [r7, #12]
 621 0176 5B8D     		ldrh	r3, [r3, #42]	@ movhi
 622 0178 9AB2     		uxth	r2, r3
ARM GAS  /tmp/ccy0jiyr.s 			page 24


 623 017a FB68     		ldr	r3, [r7, #12]
 624 017c 1A85     		strh	r2, [r3, #40]	@ movhi
 701:Drivers/STM32F3xx_HAL_Driver/Src/stm32f3xx_hal_i2c.c ****           I2C_TransferConfig(hi2c, DevAddress, hi2c->XferSize, I2C_AUTOEND_MODE, I2C_NO_STARTSTOP);
 625              		.loc 1 701 0
 626 017e FB68     		ldr	r3, [r7, #12]
 627 0180 1B8D     		ldrh	r3, [r3, #40]
 628 0182 DAB2     		uxtb	r2, r3
 629 0184 7989     		ldrh	r1, [r7, #10]
 630 0186 0023     		movs	r3, #0
 631 0188 0093     		str	r3, [sp]
 632 018a 4FF00073 		mov	r3, #33554432
 633 018e F868     		ldr	r0, [r7, #12]
 634 0190 FFF7FEFF 		bl	I2C_TransferConfig
 635              	.L20:
 666:Drivers/STM32F3xx_HAL_Driver/Src/stm32f3xx_hal_i2c.c ****     {
 636              		.loc 1 666 0
 637 0194 FB68     		ldr	r3, [r7, #12]
 638 0196 5B8D     		ldrh	r3, [r3, #42]	@ movhi
 639 0198 9BB2     		uxth	r3, r3
 640 019a 002B     		cmp	r3, #0
 641 019c 9AD1     		bne	.L25
 702:Drivers/STM32F3xx_HAL_Driver/Src/stm32f3xx_hal_i2c.c ****         }
 703:Drivers/STM32F3xx_HAL_Driver/Src/stm32f3xx_hal_i2c.c ****       }
 704:Drivers/STM32F3xx_HAL_Driver/Src/stm32f3xx_hal_i2c.c ****     }
 705:Drivers/STM32F3xx_HAL_Driver/Src/stm32f3xx_hal_i2c.c **** 
 706:Drivers/STM32F3xx_HAL_Driver/Src/stm32f3xx_hal_i2c.c ****     /* No need to Check TC flag, with AUTOEND mode the stop is automatically generated */
 707:Drivers/STM32F3xx_HAL_Driver/Src/stm32f3xx_hal_i2c.c ****     /* Wait until STOPF flag is set */
 708:Drivers/STM32F3xx_HAL_Driver/Src/stm32f3xx_hal_i2c.c ****     if (I2C_WaitOnSTOPFlagUntilTimeout(hi2c, Timeout, tickstart) != HAL_OK)
 642              		.loc 1 708 0
 643 019e 7A69     		ldr	r2, [r7, #20]
 644 01a0 396A     		ldr	r1, [r7, #32]
 645 01a2 F868     		ldr	r0, [r7, #12]
 646 01a4 FFF7FEFF 		bl	I2C_WaitOnSTOPFlagUntilTimeout
 647 01a8 0346     		mov	r3, r0
 648 01aa 002B     		cmp	r3, #0
 649 01ac 07D0     		beq	.L26
 709:Drivers/STM32F3xx_HAL_Driver/Src/stm32f3xx_hal_i2c.c ****     {
 710:Drivers/STM32F3xx_HAL_Driver/Src/stm32f3xx_hal_i2c.c ****       if (hi2c->ErrorCode == HAL_I2C_ERROR_AF)
 650              		.loc 1 710 0
 651 01ae FB68     		ldr	r3, [r7, #12]
 652 01b0 5B6C     		ldr	r3, [r3, #68]
 653 01b2 042B     		cmp	r3, #4
 654 01b4 01D1     		bne	.L27
 711:Drivers/STM32F3xx_HAL_Driver/Src/stm32f3xx_hal_i2c.c ****       {
 712:Drivers/STM32F3xx_HAL_Driver/Src/stm32f3xx_hal_i2c.c ****         return HAL_ERROR;
 655              		.loc 1 712 0
 656 01b6 0123     		movs	r3, #1
 657 01b8 1CE0     		b	.L16
 658              	.L27:
 713:Drivers/STM32F3xx_HAL_Driver/Src/stm32f3xx_hal_i2c.c ****       }
 714:Drivers/STM32F3xx_HAL_Driver/Src/stm32f3xx_hal_i2c.c ****       else
 715:Drivers/STM32F3xx_HAL_Driver/Src/stm32f3xx_hal_i2c.c ****       {
 716:Drivers/STM32F3xx_HAL_Driver/Src/stm32f3xx_hal_i2c.c ****         return HAL_TIMEOUT;
 659              		.loc 1 716 0
 660 01ba 0323     		movs	r3, #3
 661 01bc 1AE0     		b	.L16
 662              	.L26:
ARM GAS  /tmp/ccy0jiyr.s 			page 25


 717:Drivers/STM32F3xx_HAL_Driver/Src/stm32f3xx_hal_i2c.c ****       }
 718:Drivers/STM32F3xx_HAL_Driver/Src/stm32f3xx_hal_i2c.c ****     }
 719:Drivers/STM32F3xx_HAL_Driver/Src/stm32f3xx_hal_i2c.c **** 
 720:Drivers/STM32F3xx_HAL_Driver/Src/stm32f3xx_hal_i2c.c ****     /* Clear STOP Flag */
 721:Drivers/STM32F3xx_HAL_Driver/Src/stm32f3xx_hal_i2c.c ****     __HAL_I2C_CLEAR_FLAG(hi2c, I2C_FLAG_STOPF);
 663              		.loc 1 721 0
 664 01be FB68     		ldr	r3, [r7, #12]
 665 01c0 1B68     		ldr	r3, [r3]
 666 01c2 2022     		movs	r2, #32
 667 01c4 DA61     		str	r2, [r3, #28]
 722:Drivers/STM32F3xx_HAL_Driver/Src/stm32f3xx_hal_i2c.c **** 
 723:Drivers/STM32F3xx_HAL_Driver/Src/stm32f3xx_hal_i2c.c ****     /* Clear Configuration Register 2 */
 724:Drivers/STM32F3xx_HAL_Driver/Src/stm32f3xx_hal_i2c.c ****     I2C_RESET_CR2(hi2c);
 668              		.loc 1 724 0
 669 01c6 FB68     		ldr	r3, [r7, #12]
 670 01c8 1B68     		ldr	r3, [r3]
 671 01ca 5968     		ldr	r1, [r3, #4]
 672 01cc FB68     		ldr	r3, [r7, #12]
 673 01ce 1A68     		ldr	r2, [r3]
 674 01d0 0A4B     		ldr	r3, .L28
 675 01d2 0B40     		ands	r3, r3, r1
 676 01d4 5360     		str	r3, [r2, #4]
 725:Drivers/STM32F3xx_HAL_Driver/Src/stm32f3xx_hal_i2c.c **** 
 726:Drivers/STM32F3xx_HAL_Driver/Src/stm32f3xx_hal_i2c.c ****     hi2c->State = HAL_I2C_STATE_READY;
 677              		.loc 1 726 0
 678 01d6 FB68     		ldr	r3, [r7, #12]
 679 01d8 2022     		movs	r2, #32
 680 01da 83F84120 		strb	r2, [r3, #65]
 727:Drivers/STM32F3xx_HAL_Driver/Src/stm32f3xx_hal_i2c.c ****     hi2c->Mode  = HAL_I2C_MODE_NONE;
 681              		.loc 1 727 0
 682 01de FB68     		ldr	r3, [r7, #12]
 683 01e0 0022     		movs	r2, #0
 684 01e2 83F84220 		strb	r2, [r3, #66]
 728:Drivers/STM32F3xx_HAL_Driver/Src/stm32f3xx_hal_i2c.c **** 
 729:Drivers/STM32F3xx_HAL_Driver/Src/stm32f3xx_hal_i2c.c ****     /* Process Unlocked */
 730:Drivers/STM32F3xx_HAL_Driver/Src/stm32f3xx_hal_i2c.c ****     __HAL_UNLOCK(hi2c);
 685              		.loc 1 730 0
 686 01e6 FB68     		ldr	r3, [r7, #12]
 687 01e8 0022     		movs	r2, #0
 688 01ea 83F84020 		strb	r2, [r3, #64]
 731:Drivers/STM32F3xx_HAL_Driver/Src/stm32f3xx_hal_i2c.c **** 
 732:Drivers/STM32F3xx_HAL_Driver/Src/stm32f3xx_hal_i2c.c ****     return HAL_OK;
 689              		.loc 1 732 0
 690 01ee 0023     		movs	r3, #0
 691 01f0 00E0     		b	.L16
 692              	.L14:
 733:Drivers/STM32F3xx_HAL_Driver/Src/stm32f3xx_hal_i2c.c ****   }
 734:Drivers/STM32F3xx_HAL_Driver/Src/stm32f3xx_hal_i2c.c ****   else
 735:Drivers/STM32F3xx_HAL_Driver/Src/stm32f3xx_hal_i2c.c ****   {
 736:Drivers/STM32F3xx_HAL_Driver/Src/stm32f3xx_hal_i2c.c ****     return HAL_BUSY;
 693              		.loc 1 736 0
 694 01f2 0223     		movs	r3, #2
 695              	.L16:
 737:Drivers/STM32F3xx_HAL_Driver/Src/stm32f3xx_hal_i2c.c ****   }
 738:Drivers/STM32F3xx_HAL_Driver/Src/stm32f3xx_hal_i2c.c **** }
 696              		.loc 1 738 0
 697 01f4 1846     		mov	r0, r3
ARM GAS  /tmp/ccy0jiyr.s 			page 26


 698 01f6 1837     		adds	r7, r7, #24
 699              	.LCFI25:
 700              		.cfi_def_cfa_offset 8
 701 01f8 BD46     		mov	sp, r7
 702              	.LCFI26:
 703              		.cfi_def_cfa_register 13
 704              		@ sp needed
 705 01fa 80BD     		pop	{r7, pc}
 706              	.L29:
 707              		.align	2
 708              	.L28:
 709 01fc 00E800FE 		.word	-33495040
 710              		.cfi_endproc
 711              	.LFE699:
 713              		.section	.text.HAL_I2C_Master_Receive,"ax",%progbits
 714              		.align	1
 715              		.global	HAL_I2C_Master_Receive
 716              		.syntax unified
 717              		.thumb
 718              		.thumb_func
 719              		.fpu fpv4-sp-d16
 721              	HAL_I2C_Master_Receive:
 722              	.LFB700:
 739:Drivers/STM32F3xx_HAL_Driver/Src/stm32f3xx_hal_i2c.c **** 
 740:Drivers/STM32F3xx_HAL_Driver/Src/stm32f3xx_hal_i2c.c **** /**
 741:Drivers/STM32F3xx_HAL_Driver/Src/stm32f3xx_hal_i2c.c ****   * @brief  Receives in master mode an amount of data in blocking mode.
 742:Drivers/STM32F3xx_HAL_Driver/Src/stm32f3xx_hal_i2c.c ****   * @param  hi2c Pointer to a I2C_HandleTypeDef structure that contains
 743:Drivers/STM32F3xx_HAL_Driver/Src/stm32f3xx_hal_i2c.c ****   *                the configuration information for the specified I2C.
 744:Drivers/STM32F3xx_HAL_Driver/Src/stm32f3xx_hal_i2c.c ****   * @param  DevAddress Target device address: The device 7 bits address value
 745:Drivers/STM32F3xx_HAL_Driver/Src/stm32f3xx_hal_i2c.c ****   *         in datasheet must be shift at right before call interface
 746:Drivers/STM32F3xx_HAL_Driver/Src/stm32f3xx_hal_i2c.c ****   * @param  pData Pointer to data buffer
 747:Drivers/STM32F3xx_HAL_Driver/Src/stm32f3xx_hal_i2c.c ****   * @param  Size Amount of data to be sent
 748:Drivers/STM32F3xx_HAL_Driver/Src/stm32f3xx_hal_i2c.c ****   * @param  Timeout Timeout duration
 749:Drivers/STM32F3xx_HAL_Driver/Src/stm32f3xx_hal_i2c.c ****   * @retval HAL status
 750:Drivers/STM32F3xx_HAL_Driver/Src/stm32f3xx_hal_i2c.c ****   */
 751:Drivers/STM32F3xx_HAL_Driver/Src/stm32f3xx_hal_i2c.c **** HAL_StatusTypeDef HAL_I2C_Master_Receive(I2C_HandleTypeDef *hi2c, uint16_t DevAddress, uint8_t *pDa
 752:Drivers/STM32F3xx_HAL_Driver/Src/stm32f3xx_hal_i2c.c **** {
 723              		.loc 1 752 0
 724              		.cfi_startproc
 725              		@ args = 4, pretend = 0, frame = 24
 726              		@ frame_needed = 1, uses_anonymous_args = 0
 727 0000 80B5     		push	{r7, lr}
 728              	.LCFI27:
 729              		.cfi_def_cfa_offset 8
 730              		.cfi_offset 7, -8
 731              		.cfi_offset 14, -4
 732 0002 88B0     		sub	sp, sp, #32
 733              	.LCFI28:
 734              		.cfi_def_cfa_offset 40
 735 0004 02AF     		add	r7, sp, #8
 736              	.LCFI29:
 737              		.cfi_def_cfa 7, 32
 738 0006 F860     		str	r0, [r7, #12]
 739 0008 7A60     		str	r2, [r7, #4]
 740 000a 1A46     		mov	r2, r3
 741 000c 0B46     		mov	r3, r1	@ movhi
 742 000e 7B81     		strh	r3, [r7, #10]	@ movhi
ARM GAS  /tmp/ccy0jiyr.s 			page 27


 743 0010 1346     		mov	r3, r2	@ movhi
 744 0012 3B81     		strh	r3, [r7, #8]	@ movhi
 753:Drivers/STM32F3xx_HAL_Driver/Src/stm32f3xx_hal_i2c.c ****   uint32_t tickstart = 0U;
 745              		.loc 1 753 0
 746 0014 0023     		movs	r3, #0
 747 0016 7B61     		str	r3, [r7, #20]
 754:Drivers/STM32F3xx_HAL_Driver/Src/stm32f3xx_hal_i2c.c **** 
 755:Drivers/STM32F3xx_HAL_Driver/Src/stm32f3xx_hal_i2c.c ****   if (hi2c->State == HAL_I2C_STATE_READY)
 748              		.loc 1 755 0
 749 0018 FB68     		ldr	r3, [r7, #12]
 750 001a 93F84130 		ldrb	r3, [r3, #65]
 751 001e DBB2     		uxtb	r3, r3
 752 0020 202B     		cmp	r3, #32
 753 0022 40F0E780 		bne	.L31
 756:Drivers/STM32F3xx_HAL_Driver/Src/stm32f3xx_hal_i2c.c ****   {
 757:Drivers/STM32F3xx_HAL_Driver/Src/stm32f3xx_hal_i2c.c ****     /* Process Locked */
 758:Drivers/STM32F3xx_HAL_Driver/Src/stm32f3xx_hal_i2c.c ****     __HAL_LOCK(hi2c);
 754              		.loc 1 758 0
 755 0026 FB68     		ldr	r3, [r7, #12]
 756 0028 93F84030 		ldrb	r3, [r3, #64]	@ zero_extendqisi2
 757 002c 012B     		cmp	r3, #1
 758 002e 01D1     		bne	.L32
 759              		.loc 1 758 0 is_stmt 0 discriminator 1
 760 0030 0223     		movs	r3, #2
 761 0032 E0E0     		b	.L33
 762              	.L32:
 763              		.loc 1 758 0 discriminator 2
 764 0034 FB68     		ldr	r3, [r7, #12]
 765 0036 0122     		movs	r2, #1
 766 0038 83F84020 		strb	r2, [r3, #64]
 759:Drivers/STM32F3xx_HAL_Driver/Src/stm32f3xx_hal_i2c.c **** 
 760:Drivers/STM32F3xx_HAL_Driver/Src/stm32f3xx_hal_i2c.c ****     /* Init tickstart for timeout management*/
 761:Drivers/STM32F3xx_HAL_Driver/Src/stm32f3xx_hal_i2c.c ****     tickstart = HAL_GetTick();
 767              		.loc 1 761 0 is_stmt 1 discriminator 2
 768 003c FFF7FEFF 		bl	HAL_GetTick
 769 0040 7861     		str	r0, [r7, #20]
 762:Drivers/STM32F3xx_HAL_Driver/Src/stm32f3xx_hal_i2c.c **** 
 763:Drivers/STM32F3xx_HAL_Driver/Src/stm32f3xx_hal_i2c.c ****     if (I2C_WaitOnFlagUntilTimeout(hi2c, I2C_FLAG_BUSY, SET, I2C_TIMEOUT_BUSY, tickstart) != HAL_OK
 770              		.loc 1 763 0 discriminator 2
 771 0042 7B69     		ldr	r3, [r7, #20]
 772 0044 0093     		str	r3, [sp]
 773 0046 1923     		movs	r3, #25
 774 0048 0122     		movs	r2, #1
 775 004a 4FF40041 		mov	r1, #32768
 776 004e F868     		ldr	r0, [r7, #12]
 777 0050 FFF7FEFF 		bl	I2C_WaitOnFlagUntilTimeout
 778 0054 0346     		mov	r3, r0
 779 0056 002B     		cmp	r3, #0
 780 0058 01D0     		beq	.L34
 764:Drivers/STM32F3xx_HAL_Driver/Src/stm32f3xx_hal_i2c.c ****     {
 765:Drivers/STM32F3xx_HAL_Driver/Src/stm32f3xx_hal_i2c.c ****       return HAL_TIMEOUT;
 781              		.loc 1 765 0
 782 005a 0323     		movs	r3, #3
 783 005c CBE0     		b	.L33
 784              	.L34:
 766:Drivers/STM32F3xx_HAL_Driver/Src/stm32f3xx_hal_i2c.c ****     }
 767:Drivers/STM32F3xx_HAL_Driver/Src/stm32f3xx_hal_i2c.c **** 
ARM GAS  /tmp/ccy0jiyr.s 			page 28


 768:Drivers/STM32F3xx_HAL_Driver/Src/stm32f3xx_hal_i2c.c ****     hi2c->State     = HAL_I2C_STATE_BUSY_RX;
 785              		.loc 1 768 0
 786 005e FB68     		ldr	r3, [r7, #12]
 787 0060 2222     		movs	r2, #34
 788 0062 83F84120 		strb	r2, [r3, #65]
 769:Drivers/STM32F3xx_HAL_Driver/Src/stm32f3xx_hal_i2c.c ****     hi2c->Mode      = HAL_I2C_MODE_MASTER;
 789              		.loc 1 769 0
 790 0066 FB68     		ldr	r3, [r7, #12]
 791 0068 1022     		movs	r2, #16
 792 006a 83F84220 		strb	r2, [r3, #66]
 770:Drivers/STM32F3xx_HAL_Driver/Src/stm32f3xx_hal_i2c.c ****     hi2c->ErrorCode = HAL_I2C_ERROR_NONE;
 793              		.loc 1 770 0
 794 006e FB68     		ldr	r3, [r7, #12]
 795 0070 0022     		movs	r2, #0
 796 0072 5A64     		str	r2, [r3, #68]
 771:Drivers/STM32F3xx_HAL_Driver/Src/stm32f3xx_hal_i2c.c **** 
 772:Drivers/STM32F3xx_HAL_Driver/Src/stm32f3xx_hal_i2c.c ****     /* Prepare transfer parameters */
 773:Drivers/STM32F3xx_HAL_Driver/Src/stm32f3xx_hal_i2c.c ****     hi2c->pBuffPtr  = pData;
 797              		.loc 1 773 0
 798 0074 FB68     		ldr	r3, [r7, #12]
 799 0076 7A68     		ldr	r2, [r7, #4]
 800 0078 5A62     		str	r2, [r3, #36]
 774:Drivers/STM32F3xx_HAL_Driver/Src/stm32f3xx_hal_i2c.c ****     hi2c->XferCount = Size;
 801              		.loc 1 774 0
 802 007a FB68     		ldr	r3, [r7, #12]
 803 007c 3A89     		ldrh	r2, [r7, #8]	@ movhi
 804 007e 5A85     		strh	r2, [r3, #42]	@ movhi
 775:Drivers/STM32F3xx_HAL_Driver/Src/stm32f3xx_hal_i2c.c ****     hi2c->XferISR   = NULL;
 805              		.loc 1 775 0
 806 0080 FB68     		ldr	r3, [r7, #12]
 807 0082 0022     		movs	r2, #0
 808 0084 5A63     		str	r2, [r3, #52]
 776:Drivers/STM32F3xx_HAL_Driver/Src/stm32f3xx_hal_i2c.c **** 
 777:Drivers/STM32F3xx_HAL_Driver/Src/stm32f3xx_hal_i2c.c ****     /* Send Slave Address */
 778:Drivers/STM32F3xx_HAL_Driver/Src/stm32f3xx_hal_i2c.c ****     /* Set NBYTES to write and reload if hi2c->XferCount > MAX_NBYTE_SIZE and generate RESTART */
 779:Drivers/STM32F3xx_HAL_Driver/Src/stm32f3xx_hal_i2c.c ****     if (hi2c->XferCount > MAX_NBYTE_SIZE)
 809              		.loc 1 779 0
 810 0086 FB68     		ldr	r3, [r7, #12]
 811 0088 5B8D     		ldrh	r3, [r3, #42]	@ movhi
 812 008a 9BB2     		uxth	r3, r3
 813 008c FF2B     		cmp	r3, #255
 814 008e 0FD9     		bls	.L35
 780:Drivers/STM32F3xx_HAL_Driver/Src/stm32f3xx_hal_i2c.c ****     {
 781:Drivers/STM32F3xx_HAL_Driver/Src/stm32f3xx_hal_i2c.c ****       hi2c->XferSize = MAX_NBYTE_SIZE;
 815              		.loc 1 781 0
 816 0090 FB68     		ldr	r3, [r7, #12]
 817 0092 FF22     		movs	r2, #255
 818 0094 1A85     		strh	r2, [r3, #40]	@ movhi
 782:Drivers/STM32F3xx_HAL_Driver/Src/stm32f3xx_hal_i2c.c ****       I2C_TransferConfig(hi2c, DevAddress, hi2c->XferSize, I2C_RELOAD_MODE, I2C_GENERATE_START_READ
 819              		.loc 1 782 0
 820 0096 FB68     		ldr	r3, [r7, #12]
 821 0098 1B8D     		ldrh	r3, [r3, #40]
 822 009a DAB2     		uxtb	r2, r3
 823 009c 7989     		ldrh	r1, [r7, #10]
 824 009e 4FF41053 		mov	r3, #9216
 825 00a2 0093     		str	r3, [sp]
 826 00a4 4FF08073 		mov	r3, #16777216
ARM GAS  /tmp/ccy0jiyr.s 			page 29


 827 00a8 F868     		ldr	r0, [r7, #12]
 828 00aa FFF7FEFF 		bl	I2C_TransferConfig
 829 00ae 72E0     		b	.L37
 830              	.L35:
 783:Drivers/STM32F3xx_HAL_Driver/Src/stm32f3xx_hal_i2c.c ****     }
 784:Drivers/STM32F3xx_HAL_Driver/Src/stm32f3xx_hal_i2c.c ****     else
 785:Drivers/STM32F3xx_HAL_Driver/Src/stm32f3xx_hal_i2c.c ****     {
 786:Drivers/STM32F3xx_HAL_Driver/Src/stm32f3xx_hal_i2c.c ****       hi2c->XferSize = hi2c->XferCount;
 831              		.loc 1 786 0
 832 00b0 FB68     		ldr	r3, [r7, #12]
 833 00b2 5B8D     		ldrh	r3, [r3, #42]	@ movhi
 834 00b4 9AB2     		uxth	r2, r3
 835 00b6 FB68     		ldr	r3, [r7, #12]
 836 00b8 1A85     		strh	r2, [r3, #40]	@ movhi
 787:Drivers/STM32F3xx_HAL_Driver/Src/stm32f3xx_hal_i2c.c ****       I2C_TransferConfig(hi2c, DevAddress, hi2c->XferSize, I2C_AUTOEND_MODE, I2C_GENERATE_START_REA
 837              		.loc 1 787 0
 838 00ba FB68     		ldr	r3, [r7, #12]
 839 00bc 1B8D     		ldrh	r3, [r3, #40]
 840 00be DAB2     		uxtb	r2, r3
 841 00c0 7989     		ldrh	r1, [r7, #10]
 842 00c2 4FF41053 		mov	r3, #9216
 843 00c6 0093     		str	r3, [sp]
 844 00c8 4FF00073 		mov	r3, #33554432
 845 00cc F868     		ldr	r0, [r7, #12]
 846 00ce FFF7FEFF 		bl	I2C_TransferConfig
 788:Drivers/STM32F3xx_HAL_Driver/Src/stm32f3xx_hal_i2c.c ****     }
 789:Drivers/STM32F3xx_HAL_Driver/Src/stm32f3xx_hal_i2c.c **** 
 790:Drivers/STM32F3xx_HAL_Driver/Src/stm32f3xx_hal_i2c.c ****     while (hi2c->XferCount > 0U)
 847              		.loc 1 790 0
 848 00d2 60E0     		b	.L37
 849              	.L42:
 791:Drivers/STM32F3xx_HAL_Driver/Src/stm32f3xx_hal_i2c.c ****     {
 792:Drivers/STM32F3xx_HAL_Driver/Src/stm32f3xx_hal_i2c.c ****       /* Wait until RXNE flag is set */
 793:Drivers/STM32F3xx_HAL_Driver/Src/stm32f3xx_hal_i2c.c ****       if (I2C_WaitOnRXNEFlagUntilTimeout(hi2c, Timeout, tickstart) != HAL_OK)
 850              		.loc 1 793 0
 851 00d4 7A69     		ldr	r2, [r7, #20]
 852 00d6 396A     		ldr	r1, [r7, #32]
 853 00d8 F868     		ldr	r0, [r7, #12]
 854 00da FFF7FEFF 		bl	I2C_WaitOnRXNEFlagUntilTimeout
 855 00de 0346     		mov	r3, r0
 856 00e0 002B     		cmp	r3, #0
 857 00e2 07D0     		beq	.L38
 794:Drivers/STM32F3xx_HAL_Driver/Src/stm32f3xx_hal_i2c.c ****       {
 795:Drivers/STM32F3xx_HAL_Driver/Src/stm32f3xx_hal_i2c.c ****         if (hi2c->ErrorCode == HAL_I2C_ERROR_AF)
 858              		.loc 1 795 0
 859 00e4 FB68     		ldr	r3, [r7, #12]
 860 00e6 5B6C     		ldr	r3, [r3, #68]
 861 00e8 042B     		cmp	r3, #4
 862 00ea 01D1     		bne	.L39
 796:Drivers/STM32F3xx_HAL_Driver/Src/stm32f3xx_hal_i2c.c ****         {
 797:Drivers/STM32F3xx_HAL_Driver/Src/stm32f3xx_hal_i2c.c ****           return HAL_ERROR;
 863              		.loc 1 797 0
 864 00ec 0123     		movs	r3, #1
 865 00ee 82E0     		b	.L33
 866              	.L39:
 798:Drivers/STM32F3xx_HAL_Driver/Src/stm32f3xx_hal_i2c.c ****         }
 799:Drivers/STM32F3xx_HAL_Driver/Src/stm32f3xx_hal_i2c.c ****         else
ARM GAS  /tmp/ccy0jiyr.s 			page 30


 800:Drivers/STM32F3xx_HAL_Driver/Src/stm32f3xx_hal_i2c.c ****         {
 801:Drivers/STM32F3xx_HAL_Driver/Src/stm32f3xx_hal_i2c.c ****           return HAL_TIMEOUT;
 867              		.loc 1 801 0
 868 00f0 0323     		movs	r3, #3
 869 00f2 80E0     		b	.L33
 870              	.L38:
 802:Drivers/STM32F3xx_HAL_Driver/Src/stm32f3xx_hal_i2c.c ****         }
 803:Drivers/STM32F3xx_HAL_Driver/Src/stm32f3xx_hal_i2c.c ****       }
 804:Drivers/STM32F3xx_HAL_Driver/Src/stm32f3xx_hal_i2c.c **** 
 805:Drivers/STM32F3xx_HAL_Driver/Src/stm32f3xx_hal_i2c.c ****       /* Read data from RXDR */
 806:Drivers/STM32F3xx_HAL_Driver/Src/stm32f3xx_hal_i2c.c ****       (*hi2c->pBuffPtr++) = hi2c->Instance->RXDR;
 871              		.loc 1 806 0
 872 00f4 FB68     		ldr	r3, [r7, #12]
 873 00f6 1B68     		ldr	r3, [r3]
 874 00f8 586A     		ldr	r0, [r3, #36]
 875 00fa FB68     		ldr	r3, [r7, #12]
 876 00fc 5B6A     		ldr	r3, [r3, #36]
 877 00fe 591C     		adds	r1, r3, #1
 878 0100 FA68     		ldr	r2, [r7, #12]
 879 0102 5162     		str	r1, [r2, #36]
 880 0104 C2B2     		uxtb	r2, r0
 881 0106 1A70     		strb	r2, [r3]
 807:Drivers/STM32F3xx_HAL_Driver/Src/stm32f3xx_hal_i2c.c ****       hi2c->XferSize--;
 882              		.loc 1 807 0
 883 0108 FB68     		ldr	r3, [r7, #12]
 884 010a 1B8D     		ldrh	r3, [r3, #40]
 885 010c 013B     		subs	r3, r3, #1
 886 010e 9AB2     		uxth	r2, r3
 887 0110 FB68     		ldr	r3, [r7, #12]
 888 0112 1A85     		strh	r2, [r3, #40]	@ movhi
 808:Drivers/STM32F3xx_HAL_Driver/Src/stm32f3xx_hal_i2c.c ****       hi2c->XferCount--;
 889              		.loc 1 808 0
 890 0114 FB68     		ldr	r3, [r7, #12]
 891 0116 5B8D     		ldrh	r3, [r3, #42]	@ movhi
 892 0118 9BB2     		uxth	r3, r3
 893 011a 013B     		subs	r3, r3, #1
 894 011c 9AB2     		uxth	r2, r3
 895 011e FB68     		ldr	r3, [r7, #12]
 896 0120 5A85     		strh	r2, [r3, #42]	@ movhi
 809:Drivers/STM32F3xx_HAL_Driver/Src/stm32f3xx_hal_i2c.c **** 
 810:Drivers/STM32F3xx_HAL_Driver/Src/stm32f3xx_hal_i2c.c ****       if ((hi2c->XferSize == 0U) && (hi2c->XferCount != 0U))
 897              		.loc 1 810 0
 898 0122 FB68     		ldr	r3, [r7, #12]
 899 0124 1B8D     		ldrh	r3, [r3, #40]
 900 0126 002B     		cmp	r3, #0
 901 0128 35D1     		bne	.L37
 902              		.loc 1 810 0 is_stmt 0 discriminator 1
 903 012a FB68     		ldr	r3, [r7, #12]
 904 012c 5B8D     		ldrh	r3, [r3, #42]	@ movhi
 905 012e 9BB2     		uxth	r3, r3
 906 0130 002B     		cmp	r3, #0
 907 0132 30D0     		beq	.L37
 811:Drivers/STM32F3xx_HAL_Driver/Src/stm32f3xx_hal_i2c.c ****       {
 812:Drivers/STM32F3xx_HAL_Driver/Src/stm32f3xx_hal_i2c.c ****         /* Wait until TCR flag is set */
 813:Drivers/STM32F3xx_HAL_Driver/Src/stm32f3xx_hal_i2c.c ****         if (I2C_WaitOnFlagUntilTimeout(hi2c, I2C_FLAG_TCR, RESET, Timeout, tickstart) != HAL_OK)
 908              		.loc 1 813 0 is_stmt 1
 909 0134 7B69     		ldr	r3, [r7, #20]
ARM GAS  /tmp/ccy0jiyr.s 			page 31


 910 0136 0093     		str	r3, [sp]
 911 0138 3B6A     		ldr	r3, [r7, #32]
 912 013a 0022     		movs	r2, #0
 913 013c 8021     		movs	r1, #128
 914 013e F868     		ldr	r0, [r7, #12]
 915 0140 FFF7FEFF 		bl	I2C_WaitOnFlagUntilTimeout
 916 0144 0346     		mov	r3, r0
 917 0146 002B     		cmp	r3, #0
 918 0148 01D0     		beq	.L40
 814:Drivers/STM32F3xx_HAL_Driver/Src/stm32f3xx_hal_i2c.c ****         {
 815:Drivers/STM32F3xx_HAL_Driver/Src/stm32f3xx_hal_i2c.c ****           return HAL_TIMEOUT;
 919              		.loc 1 815 0
 920 014a 0323     		movs	r3, #3
 921 014c 53E0     		b	.L33
 922              	.L40:
 816:Drivers/STM32F3xx_HAL_Driver/Src/stm32f3xx_hal_i2c.c ****         }
 817:Drivers/STM32F3xx_HAL_Driver/Src/stm32f3xx_hal_i2c.c **** 
 818:Drivers/STM32F3xx_HAL_Driver/Src/stm32f3xx_hal_i2c.c ****         if (hi2c->XferCount > MAX_NBYTE_SIZE)
 923              		.loc 1 818 0
 924 014e FB68     		ldr	r3, [r7, #12]
 925 0150 5B8D     		ldrh	r3, [r3, #42]	@ movhi
 926 0152 9BB2     		uxth	r3, r3
 927 0154 FF2B     		cmp	r3, #255
 928 0156 0ED9     		bls	.L41
 819:Drivers/STM32F3xx_HAL_Driver/Src/stm32f3xx_hal_i2c.c ****         {
 820:Drivers/STM32F3xx_HAL_Driver/Src/stm32f3xx_hal_i2c.c ****           hi2c->XferSize = MAX_NBYTE_SIZE;
 929              		.loc 1 820 0
 930 0158 FB68     		ldr	r3, [r7, #12]
 931 015a FF22     		movs	r2, #255
 932 015c 1A85     		strh	r2, [r3, #40]	@ movhi
 821:Drivers/STM32F3xx_HAL_Driver/Src/stm32f3xx_hal_i2c.c ****           I2C_TransferConfig(hi2c, DevAddress, hi2c->XferSize, I2C_RELOAD_MODE, I2C_NO_STARTSTOP);
 933              		.loc 1 821 0
 934 015e FB68     		ldr	r3, [r7, #12]
 935 0160 1B8D     		ldrh	r3, [r3, #40]
 936 0162 DAB2     		uxtb	r2, r3
 937 0164 7989     		ldrh	r1, [r7, #10]
 938 0166 0023     		movs	r3, #0
 939 0168 0093     		str	r3, [sp]
 940 016a 4FF08073 		mov	r3, #16777216
 941 016e F868     		ldr	r0, [r7, #12]
 942 0170 FFF7FEFF 		bl	I2C_TransferConfig
 943 0174 0FE0     		b	.L37
 944              	.L41:
 822:Drivers/STM32F3xx_HAL_Driver/Src/stm32f3xx_hal_i2c.c ****         }
 823:Drivers/STM32F3xx_HAL_Driver/Src/stm32f3xx_hal_i2c.c ****         else
 824:Drivers/STM32F3xx_HAL_Driver/Src/stm32f3xx_hal_i2c.c ****         {
 825:Drivers/STM32F3xx_HAL_Driver/Src/stm32f3xx_hal_i2c.c ****           hi2c->XferSize = hi2c->XferCount;
 945              		.loc 1 825 0
 946 0176 FB68     		ldr	r3, [r7, #12]
 947 0178 5B8D     		ldrh	r3, [r3, #42]	@ movhi
 948 017a 9AB2     		uxth	r2, r3
 949 017c FB68     		ldr	r3, [r7, #12]
 950 017e 1A85     		strh	r2, [r3, #40]	@ movhi
 826:Drivers/STM32F3xx_HAL_Driver/Src/stm32f3xx_hal_i2c.c ****           I2C_TransferConfig(hi2c, DevAddress, hi2c->XferSize, I2C_AUTOEND_MODE, I2C_NO_STARTSTOP);
 951              		.loc 1 826 0
 952 0180 FB68     		ldr	r3, [r7, #12]
 953 0182 1B8D     		ldrh	r3, [r3, #40]
ARM GAS  /tmp/ccy0jiyr.s 			page 32


 954 0184 DAB2     		uxtb	r2, r3
 955 0186 7989     		ldrh	r1, [r7, #10]
 956 0188 0023     		movs	r3, #0
 957 018a 0093     		str	r3, [sp]
 958 018c 4FF00073 		mov	r3, #33554432
 959 0190 F868     		ldr	r0, [r7, #12]
 960 0192 FFF7FEFF 		bl	I2C_TransferConfig
 961              	.L37:
 790:Drivers/STM32F3xx_HAL_Driver/Src/stm32f3xx_hal_i2c.c ****     {
 962              		.loc 1 790 0
 963 0196 FB68     		ldr	r3, [r7, #12]
 964 0198 5B8D     		ldrh	r3, [r3, #42]	@ movhi
 965 019a 9BB2     		uxth	r3, r3
 966 019c 002B     		cmp	r3, #0
 967 019e 99D1     		bne	.L42
 827:Drivers/STM32F3xx_HAL_Driver/Src/stm32f3xx_hal_i2c.c ****         }
 828:Drivers/STM32F3xx_HAL_Driver/Src/stm32f3xx_hal_i2c.c ****       }
 829:Drivers/STM32F3xx_HAL_Driver/Src/stm32f3xx_hal_i2c.c ****     }
 830:Drivers/STM32F3xx_HAL_Driver/Src/stm32f3xx_hal_i2c.c **** 
 831:Drivers/STM32F3xx_HAL_Driver/Src/stm32f3xx_hal_i2c.c ****     /* No need to Check TC flag, with AUTOEND mode the stop is automatically generated */
 832:Drivers/STM32F3xx_HAL_Driver/Src/stm32f3xx_hal_i2c.c ****     /* Wait until STOPF flag is set */
 833:Drivers/STM32F3xx_HAL_Driver/Src/stm32f3xx_hal_i2c.c ****     if (I2C_WaitOnSTOPFlagUntilTimeout(hi2c, Timeout, tickstart) != HAL_OK)
 968              		.loc 1 833 0
 969 01a0 7A69     		ldr	r2, [r7, #20]
 970 01a2 396A     		ldr	r1, [r7, #32]
 971 01a4 F868     		ldr	r0, [r7, #12]
 972 01a6 FFF7FEFF 		bl	I2C_WaitOnSTOPFlagUntilTimeout
 973 01aa 0346     		mov	r3, r0
 974 01ac 002B     		cmp	r3, #0
 975 01ae 07D0     		beq	.L43
 834:Drivers/STM32F3xx_HAL_Driver/Src/stm32f3xx_hal_i2c.c ****     {
 835:Drivers/STM32F3xx_HAL_Driver/Src/stm32f3xx_hal_i2c.c ****       if (hi2c->ErrorCode == HAL_I2C_ERROR_AF)
 976              		.loc 1 835 0
 977 01b0 FB68     		ldr	r3, [r7, #12]
 978 01b2 5B6C     		ldr	r3, [r3, #68]
 979 01b4 042B     		cmp	r3, #4
 980 01b6 01D1     		bne	.L44
 836:Drivers/STM32F3xx_HAL_Driver/Src/stm32f3xx_hal_i2c.c ****       {
 837:Drivers/STM32F3xx_HAL_Driver/Src/stm32f3xx_hal_i2c.c ****         return HAL_ERROR;
 981              		.loc 1 837 0
 982 01b8 0123     		movs	r3, #1
 983 01ba 1CE0     		b	.L33
 984              	.L44:
 838:Drivers/STM32F3xx_HAL_Driver/Src/stm32f3xx_hal_i2c.c ****       }
 839:Drivers/STM32F3xx_HAL_Driver/Src/stm32f3xx_hal_i2c.c ****       else
 840:Drivers/STM32F3xx_HAL_Driver/Src/stm32f3xx_hal_i2c.c ****       {
 841:Drivers/STM32F3xx_HAL_Driver/Src/stm32f3xx_hal_i2c.c ****         return HAL_TIMEOUT;
 985              		.loc 1 841 0
 986 01bc 0323     		movs	r3, #3
 987 01be 1AE0     		b	.L33
 988              	.L43:
 842:Drivers/STM32F3xx_HAL_Driver/Src/stm32f3xx_hal_i2c.c ****       }
 843:Drivers/STM32F3xx_HAL_Driver/Src/stm32f3xx_hal_i2c.c ****     }
 844:Drivers/STM32F3xx_HAL_Driver/Src/stm32f3xx_hal_i2c.c **** 
 845:Drivers/STM32F3xx_HAL_Driver/Src/stm32f3xx_hal_i2c.c ****     /* Clear STOP Flag */
 846:Drivers/STM32F3xx_HAL_Driver/Src/stm32f3xx_hal_i2c.c ****     __HAL_I2C_CLEAR_FLAG(hi2c, I2C_FLAG_STOPF);
 989              		.loc 1 846 0
ARM GAS  /tmp/ccy0jiyr.s 			page 33


 990 01c0 FB68     		ldr	r3, [r7, #12]
 991 01c2 1B68     		ldr	r3, [r3]
 992 01c4 2022     		movs	r2, #32
 993 01c6 DA61     		str	r2, [r3, #28]
 847:Drivers/STM32F3xx_HAL_Driver/Src/stm32f3xx_hal_i2c.c **** 
 848:Drivers/STM32F3xx_HAL_Driver/Src/stm32f3xx_hal_i2c.c ****     /* Clear Configuration Register 2 */
 849:Drivers/STM32F3xx_HAL_Driver/Src/stm32f3xx_hal_i2c.c ****     I2C_RESET_CR2(hi2c);
 994              		.loc 1 849 0
 995 01c8 FB68     		ldr	r3, [r7, #12]
 996 01ca 1B68     		ldr	r3, [r3]
 997 01cc 5968     		ldr	r1, [r3, #4]
 998 01ce FB68     		ldr	r3, [r7, #12]
 999 01d0 1A68     		ldr	r2, [r3]
 1000 01d2 0B4B     		ldr	r3, .L45
 1001 01d4 0B40     		ands	r3, r3, r1
 1002 01d6 5360     		str	r3, [r2, #4]
 850:Drivers/STM32F3xx_HAL_Driver/Src/stm32f3xx_hal_i2c.c **** 
 851:Drivers/STM32F3xx_HAL_Driver/Src/stm32f3xx_hal_i2c.c ****     hi2c->State = HAL_I2C_STATE_READY;
 1003              		.loc 1 851 0
 1004 01d8 FB68     		ldr	r3, [r7, #12]
 1005 01da 2022     		movs	r2, #32
 1006 01dc 83F84120 		strb	r2, [r3, #65]
 852:Drivers/STM32F3xx_HAL_Driver/Src/stm32f3xx_hal_i2c.c ****     hi2c->Mode  = HAL_I2C_MODE_NONE;
 1007              		.loc 1 852 0
 1008 01e0 FB68     		ldr	r3, [r7, #12]
 1009 01e2 0022     		movs	r2, #0
 1010 01e4 83F84220 		strb	r2, [r3, #66]
 853:Drivers/STM32F3xx_HAL_Driver/Src/stm32f3xx_hal_i2c.c **** 
 854:Drivers/STM32F3xx_HAL_Driver/Src/stm32f3xx_hal_i2c.c ****     /* Process Unlocked */
 855:Drivers/STM32F3xx_HAL_Driver/Src/stm32f3xx_hal_i2c.c ****     __HAL_UNLOCK(hi2c);
 1011              		.loc 1 855 0
 1012 01e8 FB68     		ldr	r3, [r7, #12]
 1013 01ea 0022     		movs	r2, #0
 1014 01ec 83F84020 		strb	r2, [r3, #64]
 856:Drivers/STM32F3xx_HAL_Driver/Src/stm32f3xx_hal_i2c.c **** 
 857:Drivers/STM32F3xx_HAL_Driver/Src/stm32f3xx_hal_i2c.c ****     return HAL_OK;
 1015              		.loc 1 857 0
 1016 01f0 0023     		movs	r3, #0
 1017 01f2 00E0     		b	.L33
 1018              	.L31:
 858:Drivers/STM32F3xx_HAL_Driver/Src/stm32f3xx_hal_i2c.c ****   }
 859:Drivers/STM32F3xx_HAL_Driver/Src/stm32f3xx_hal_i2c.c ****   else
 860:Drivers/STM32F3xx_HAL_Driver/Src/stm32f3xx_hal_i2c.c ****   {
 861:Drivers/STM32F3xx_HAL_Driver/Src/stm32f3xx_hal_i2c.c ****     return HAL_BUSY;
 1019              		.loc 1 861 0
 1020 01f4 0223     		movs	r3, #2
 1021              	.L33:
 862:Drivers/STM32F3xx_HAL_Driver/Src/stm32f3xx_hal_i2c.c ****   }
 863:Drivers/STM32F3xx_HAL_Driver/Src/stm32f3xx_hal_i2c.c **** }
 1022              		.loc 1 863 0
 1023 01f6 1846     		mov	r0, r3
 1024 01f8 1837     		adds	r7, r7, #24
 1025              	.LCFI30:
 1026              		.cfi_def_cfa_offset 8
 1027 01fa BD46     		mov	sp, r7
 1028              	.LCFI31:
 1029              		.cfi_def_cfa_register 13
ARM GAS  /tmp/ccy0jiyr.s 			page 34


 1030              		@ sp needed
 1031 01fc 80BD     		pop	{r7, pc}
 1032              	.L46:
 1033 01fe 00BF     		.align	2
 1034              	.L45:
 1035 0200 00E800FE 		.word	-33495040
 1036              		.cfi_endproc
 1037              	.LFE700:
 1039              		.section	.text.HAL_I2C_Slave_Transmit,"ax",%progbits
 1040              		.align	1
 1041              		.global	HAL_I2C_Slave_Transmit
 1042              		.syntax unified
 1043              		.thumb
 1044              		.thumb_func
 1045              		.fpu fpv4-sp-d16
 1047              	HAL_I2C_Slave_Transmit:
 1048              	.LFB701:
 864:Drivers/STM32F3xx_HAL_Driver/Src/stm32f3xx_hal_i2c.c **** 
 865:Drivers/STM32F3xx_HAL_Driver/Src/stm32f3xx_hal_i2c.c **** /**
 866:Drivers/STM32F3xx_HAL_Driver/Src/stm32f3xx_hal_i2c.c ****   * @brief  Transmits in slave mode an amount of data in blocking mode.
 867:Drivers/STM32F3xx_HAL_Driver/Src/stm32f3xx_hal_i2c.c ****   * @param  hi2c Pointer to a I2C_HandleTypeDef structure that contains
 868:Drivers/STM32F3xx_HAL_Driver/Src/stm32f3xx_hal_i2c.c ****   *                the configuration information for the specified I2C.
 869:Drivers/STM32F3xx_HAL_Driver/Src/stm32f3xx_hal_i2c.c ****   * @param  pData Pointer to data buffer
 870:Drivers/STM32F3xx_HAL_Driver/Src/stm32f3xx_hal_i2c.c ****   * @param  Size Amount of data to be sent
 871:Drivers/STM32F3xx_HAL_Driver/Src/stm32f3xx_hal_i2c.c ****   * @param  Timeout Timeout duration
 872:Drivers/STM32F3xx_HAL_Driver/Src/stm32f3xx_hal_i2c.c ****   * @retval HAL status
 873:Drivers/STM32F3xx_HAL_Driver/Src/stm32f3xx_hal_i2c.c ****   */
 874:Drivers/STM32F3xx_HAL_Driver/Src/stm32f3xx_hal_i2c.c **** HAL_StatusTypeDef HAL_I2C_Slave_Transmit(I2C_HandleTypeDef *hi2c, uint8_t *pData, uint16_t Size, ui
 875:Drivers/STM32F3xx_HAL_Driver/Src/stm32f3xx_hal_i2c.c **** {
 1049              		.loc 1 875 0
 1050              		.cfi_startproc
 1051              		@ args = 0, pretend = 0, frame = 24
 1052              		@ frame_needed = 1, uses_anonymous_args = 0
 1053 0000 80B5     		push	{r7, lr}
 1054              	.LCFI32:
 1055              		.cfi_def_cfa_offset 8
 1056              		.cfi_offset 7, -8
 1057              		.cfi_offset 14, -4
 1058 0002 88B0     		sub	sp, sp, #32
 1059              	.LCFI33:
 1060              		.cfi_def_cfa_offset 40
 1061 0004 02AF     		add	r7, sp, #8
 1062              	.LCFI34:
 1063              		.cfi_def_cfa 7, 32
 1064 0006 F860     		str	r0, [r7, #12]
 1065 0008 B960     		str	r1, [r7, #8]
 1066 000a 3B60     		str	r3, [r7]
 1067 000c 1346     		mov	r3, r2	@ movhi
 1068 000e FB80     		strh	r3, [r7, #6]	@ movhi
 876:Drivers/STM32F3xx_HAL_Driver/Src/stm32f3xx_hal_i2c.c ****   uint32_t tickstart = 0U;
 1069              		.loc 1 876 0
 1070 0010 0023     		movs	r3, #0
 1071 0012 7B61     		str	r3, [r7, #20]
 877:Drivers/STM32F3xx_HAL_Driver/Src/stm32f3xx_hal_i2c.c **** 
 878:Drivers/STM32F3xx_HAL_Driver/Src/stm32f3xx_hal_i2c.c ****   if (hi2c->State == HAL_I2C_STATE_READY)
 1072              		.loc 1 878 0
 1073 0014 FB68     		ldr	r3, [r7, #12]
ARM GAS  /tmp/ccy0jiyr.s 			page 35


 1074 0016 93F84130 		ldrb	r3, [r3, #65]
 1075 001a DBB2     		uxtb	r3, r3
 1076 001c 202B     		cmp	r3, #32
 1077 001e 40F0F580 		bne	.L48
 879:Drivers/STM32F3xx_HAL_Driver/Src/stm32f3xx_hal_i2c.c ****   {
 880:Drivers/STM32F3xx_HAL_Driver/Src/stm32f3xx_hal_i2c.c ****     if ((pData == NULL) || (Size == 0U))
 1078              		.loc 1 880 0
 1079 0022 BB68     		ldr	r3, [r7, #8]
 1080 0024 002B     		cmp	r3, #0
 1081 0026 02D0     		beq	.L49
 1082              		.loc 1 880 0 is_stmt 0 discriminator 1
 1083 0028 FB88     		ldrh	r3, [r7, #6]
 1084 002a 002B     		cmp	r3, #0
 1085 002c 01D1     		bne	.L50
 1086              	.L49:
 881:Drivers/STM32F3xx_HAL_Driver/Src/stm32f3xx_hal_i2c.c ****     {
 882:Drivers/STM32F3xx_HAL_Driver/Src/stm32f3xx_hal_i2c.c ****       return  HAL_ERROR;
 1087              		.loc 1 882 0 is_stmt 1
 1088 002e 0123     		movs	r3, #1
 1089 0030 EDE0     		b	.L51
 1090              	.L50:
 883:Drivers/STM32F3xx_HAL_Driver/Src/stm32f3xx_hal_i2c.c ****     }
 884:Drivers/STM32F3xx_HAL_Driver/Src/stm32f3xx_hal_i2c.c ****     /* Process Locked */
 885:Drivers/STM32F3xx_HAL_Driver/Src/stm32f3xx_hal_i2c.c ****     __HAL_LOCK(hi2c);
 1091              		.loc 1 885 0
 1092 0032 FB68     		ldr	r3, [r7, #12]
 1093 0034 93F84030 		ldrb	r3, [r3, #64]	@ zero_extendqisi2
 1094 0038 012B     		cmp	r3, #1
 1095 003a 01D1     		bne	.L52
 1096              		.loc 1 885 0 is_stmt 0 discriminator 1
 1097 003c 0223     		movs	r3, #2
 1098 003e E6E0     		b	.L51
 1099              	.L52:
 1100              		.loc 1 885 0 discriminator 2
 1101 0040 FB68     		ldr	r3, [r7, #12]
 1102 0042 0122     		movs	r2, #1
 1103 0044 83F84020 		strb	r2, [r3, #64]
 886:Drivers/STM32F3xx_HAL_Driver/Src/stm32f3xx_hal_i2c.c **** 
 887:Drivers/STM32F3xx_HAL_Driver/Src/stm32f3xx_hal_i2c.c ****     /* Init tickstart for timeout management*/
 888:Drivers/STM32F3xx_HAL_Driver/Src/stm32f3xx_hal_i2c.c ****     tickstart = HAL_GetTick();
 1104              		.loc 1 888 0 is_stmt 1 discriminator 2
 1105 0048 FFF7FEFF 		bl	HAL_GetTick
 1106 004c 7861     		str	r0, [r7, #20]
 889:Drivers/STM32F3xx_HAL_Driver/Src/stm32f3xx_hal_i2c.c **** 
 890:Drivers/STM32F3xx_HAL_Driver/Src/stm32f3xx_hal_i2c.c ****     hi2c->State     = HAL_I2C_STATE_BUSY_TX;
 1107              		.loc 1 890 0 discriminator 2
 1108 004e FB68     		ldr	r3, [r7, #12]
 1109 0050 2122     		movs	r2, #33
 1110 0052 83F84120 		strb	r2, [r3, #65]
 891:Drivers/STM32F3xx_HAL_Driver/Src/stm32f3xx_hal_i2c.c ****     hi2c->Mode      = HAL_I2C_MODE_SLAVE;
 1111              		.loc 1 891 0 discriminator 2
 1112 0056 FB68     		ldr	r3, [r7, #12]
 1113 0058 2022     		movs	r2, #32
 1114 005a 83F84220 		strb	r2, [r3, #66]
 892:Drivers/STM32F3xx_HAL_Driver/Src/stm32f3xx_hal_i2c.c ****     hi2c->ErrorCode = HAL_I2C_ERROR_NONE;
 1115              		.loc 1 892 0 discriminator 2
 1116 005e FB68     		ldr	r3, [r7, #12]
ARM GAS  /tmp/ccy0jiyr.s 			page 36


 1117 0060 0022     		movs	r2, #0
 1118 0062 5A64     		str	r2, [r3, #68]
 893:Drivers/STM32F3xx_HAL_Driver/Src/stm32f3xx_hal_i2c.c **** 
 894:Drivers/STM32F3xx_HAL_Driver/Src/stm32f3xx_hal_i2c.c ****     /* Prepare transfer parameters */
 895:Drivers/STM32F3xx_HAL_Driver/Src/stm32f3xx_hal_i2c.c ****     hi2c->pBuffPtr  = pData;
 1119              		.loc 1 895 0 discriminator 2
 1120 0064 FB68     		ldr	r3, [r7, #12]
 1121 0066 BA68     		ldr	r2, [r7, #8]
 1122 0068 5A62     		str	r2, [r3, #36]
 896:Drivers/STM32F3xx_HAL_Driver/Src/stm32f3xx_hal_i2c.c ****     hi2c->XferCount = Size;
 1123              		.loc 1 896 0 discriminator 2
 1124 006a FB68     		ldr	r3, [r7, #12]
 1125 006c FA88     		ldrh	r2, [r7, #6]	@ movhi
 1126 006e 5A85     		strh	r2, [r3, #42]	@ movhi
 897:Drivers/STM32F3xx_HAL_Driver/Src/stm32f3xx_hal_i2c.c ****     hi2c->XferISR   = NULL;
 1127              		.loc 1 897 0 discriminator 2
 1128 0070 FB68     		ldr	r3, [r7, #12]
 1129 0072 0022     		movs	r2, #0
 1130 0074 5A63     		str	r2, [r3, #52]
 898:Drivers/STM32F3xx_HAL_Driver/Src/stm32f3xx_hal_i2c.c **** 
 899:Drivers/STM32F3xx_HAL_Driver/Src/stm32f3xx_hal_i2c.c ****     /* Enable Address Acknowledge */
 900:Drivers/STM32F3xx_HAL_Driver/Src/stm32f3xx_hal_i2c.c ****     hi2c->Instance->CR2 &= ~I2C_CR2_NACK;
 1131              		.loc 1 900 0 discriminator 2
 1132 0076 FB68     		ldr	r3, [r7, #12]
 1133 0078 1B68     		ldr	r3, [r3]
 1134 007a 5A68     		ldr	r2, [r3, #4]
 1135 007c FB68     		ldr	r3, [r7, #12]
 1136 007e 1B68     		ldr	r3, [r3]
 1137 0080 22F40042 		bic	r2, r2, #32768
 1138 0084 5A60     		str	r2, [r3, #4]
 901:Drivers/STM32F3xx_HAL_Driver/Src/stm32f3xx_hal_i2c.c **** 
 902:Drivers/STM32F3xx_HAL_Driver/Src/stm32f3xx_hal_i2c.c ****     /* Wait until ADDR flag is set */
 903:Drivers/STM32F3xx_HAL_Driver/Src/stm32f3xx_hal_i2c.c ****     if (I2C_WaitOnFlagUntilTimeout(hi2c, I2C_FLAG_ADDR, RESET, Timeout, tickstart) != HAL_OK)
 1139              		.loc 1 903 0 discriminator 2
 1140 0086 7B69     		ldr	r3, [r7, #20]
 1141 0088 0093     		str	r3, [sp]
 1142 008a 3B68     		ldr	r3, [r7]
 1143 008c 0022     		movs	r2, #0
 1144 008e 0821     		movs	r1, #8
 1145 0090 F868     		ldr	r0, [r7, #12]
 1146 0092 FFF7FEFF 		bl	I2C_WaitOnFlagUntilTimeout
 1147 0096 0346     		mov	r3, r0
 1148 0098 002B     		cmp	r3, #0
 1149 009a 09D0     		beq	.L53
 904:Drivers/STM32F3xx_HAL_Driver/Src/stm32f3xx_hal_i2c.c ****     {
 905:Drivers/STM32F3xx_HAL_Driver/Src/stm32f3xx_hal_i2c.c ****       /* Disable Address Acknowledge */
 906:Drivers/STM32F3xx_HAL_Driver/Src/stm32f3xx_hal_i2c.c ****       hi2c->Instance->CR2 |= I2C_CR2_NACK;
 1150              		.loc 1 906 0
 1151 009c FB68     		ldr	r3, [r7, #12]
 1152 009e 1B68     		ldr	r3, [r3]
 1153 00a0 5A68     		ldr	r2, [r3, #4]
 1154 00a2 FB68     		ldr	r3, [r7, #12]
 1155 00a4 1B68     		ldr	r3, [r3]
 1156 00a6 42F40042 		orr	r2, r2, #32768
 1157 00aa 5A60     		str	r2, [r3, #4]
 907:Drivers/STM32F3xx_HAL_Driver/Src/stm32f3xx_hal_i2c.c ****       return HAL_TIMEOUT;
 1158              		.loc 1 907 0
ARM GAS  /tmp/ccy0jiyr.s 			page 37


 1159 00ac 0323     		movs	r3, #3
 1160 00ae AEE0     		b	.L51
 1161              	.L53:
 908:Drivers/STM32F3xx_HAL_Driver/Src/stm32f3xx_hal_i2c.c ****     }
 909:Drivers/STM32F3xx_HAL_Driver/Src/stm32f3xx_hal_i2c.c **** 
 910:Drivers/STM32F3xx_HAL_Driver/Src/stm32f3xx_hal_i2c.c ****     /* Clear ADDR flag */
 911:Drivers/STM32F3xx_HAL_Driver/Src/stm32f3xx_hal_i2c.c ****     __HAL_I2C_CLEAR_FLAG(hi2c, I2C_FLAG_ADDR);
 1162              		.loc 1 911 0
 1163 00b0 FB68     		ldr	r3, [r7, #12]
 1164 00b2 1B68     		ldr	r3, [r3]
 1165 00b4 0822     		movs	r2, #8
 1166 00b6 DA61     		str	r2, [r3, #28]
 912:Drivers/STM32F3xx_HAL_Driver/Src/stm32f3xx_hal_i2c.c **** 
 913:Drivers/STM32F3xx_HAL_Driver/Src/stm32f3xx_hal_i2c.c ****     /* If 10bit addressing mode is selected */
 914:Drivers/STM32F3xx_HAL_Driver/Src/stm32f3xx_hal_i2c.c ****     if (hi2c->Init.AddressingMode == I2C_ADDRESSINGMODE_10BIT)
 1167              		.loc 1 914 0
 1168 00b8 FB68     		ldr	r3, [r7, #12]
 1169 00ba DB68     		ldr	r3, [r3, #12]
 1170 00bc 022B     		cmp	r3, #2
 1171 00be 18D1     		bne	.L54
 915:Drivers/STM32F3xx_HAL_Driver/Src/stm32f3xx_hal_i2c.c ****     {
 916:Drivers/STM32F3xx_HAL_Driver/Src/stm32f3xx_hal_i2c.c ****       /* Wait until ADDR flag is set */
 917:Drivers/STM32F3xx_HAL_Driver/Src/stm32f3xx_hal_i2c.c ****       if (I2C_WaitOnFlagUntilTimeout(hi2c, I2C_FLAG_ADDR, RESET, Timeout, tickstart) != HAL_OK)
 1172              		.loc 1 917 0
 1173 00c0 7B69     		ldr	r3, [r7, #20]
 1174 00c2 0093     		str	r3, [sp]
 1175 00c4 3B68     		ldr	r3, [r7]
 1176 00c6 0022     		movs	r2, #0
 1177 00c8 0821     		movs	r1, #8
 1178 00ca F868     		ldr	r0, [r7, #12]
 1179 00cc FFF7FEFF 		bl	I2C_WaitOnFlagUntilTimeout
 1180 00d0 0346     		mov	r3, r0
 1181 00d2 002B     		cmp	r3, #0
 1182 00d4 09D0     		beq	.L55
 918:Drivers/STM32F3xx_HAL_Driver/Src/stm32f3xx_hal_i2c.c ****       {
 919:Drivers/STM32F3xx_HAL_Driver/Src/stm32f3xx_hal_i2c.c ****         /* Disable Address Acknowledge */
 920:Drivers/STM32F3xx_HAL_Driver/Src/stm32f3xx_hal_i2c.c ****         hi2c->Instance->CR2 |= I2C_CR2_NACK;
 1183              		.loc 1 920 0
 1184 00d6 FB68     		ldr	r3, [r7, #12]
 1185 00d8 1B68     		ldr	r3, [r3]
 1186 00da 5A68     		ldr	r2, [r3, #4]
 1187 00dc FB68     		ldr	r3, [r7, #12]
 1188 00de 1B68     		ldr	r3, [r3]
 1189 00e0 42F40042 		orr	r2, r2, #32768
 1190 00e4 5A60     		str	r2, [r3, #4]
 921:Drivers/STM32F3xx_HAL_Driver/Src/stm32f3xx_hal_i2c.c ****         return HAL_TIMEOUT;
 1191              		.loc 1 921 0
 1192 00e6 0323     		movs	r3, #3
 1193 00e8 91E0     		b	.L51
 1194              	.L55:
 922:Drivers/STM32F3xx_HAL_Driver/Src/stm32f3xx_hal_i2c.c ****       }
 923:Drivers/STM32F3xx_HAL_Driver/Src/stm32f3xx_hal_i2c.c **** 
 924:Drivers/STM32F3xx_HAL_Driver/Src/stm32f3xx_hal_i2c.c ****       /* Clear ADDR flag */
 925:Drivers/STM32F3xx_HAL_Driver/Src/stm32f3xx_hal_i2c.c ****       __HAL_I2C_CLEAR_FLAG(hi2c, I2C_FLAG_ADDR);
 1195              		.loc 1 925 0
 1196 00ea FB68     		ldr	r3, [r7, #12]
 1197 00ec 1B68     		ldr	r3, [r3]
ARM GAS  /tmp/ccy0jiyr.s 			page 38


 1198 00ee 0822     		movs	r2, #8
 1199 00f0 DA61     		str	r2, [r3, #28]
 1200              	.L54:
 926:Drivers/STM32F3xx_HAL_Driver/Src/stm32f3xx_hal_i2c.c ****     }
 927:Drivers/STM32F3xx_HAL_Driver/Src/stm32f3xx_hal_i2c.c **** 
 928:Drivers/STM32F3xx_HAL_Driver/Src/stm32f3xx_hal_i2c.c ****     /* Wait until DIR flag is set Transmitter mode */
 929:Drivers/STM32F3xx_HAL_Driver/Src/stm32f3xx_hal_i2c.c ****     if (I2C_WaitOnFlagUntilTimeout(hi2c, I2C_FLAG_DIR, RESET, Timeout, tickstart) != HAL_OK)
 1201              		.loc 1 929 0
 1202 00f2 7B69     		ldr	r3, [r7, #20]
 1203 00f4 0093     		str	r3, [sp]
 1204 00f6 3B68     		ldr	r3, [r7]
 1205 00f8 0022     		movs	r2, #0
 1206 00fa 4FF48031 		mov	r1, #65536
 1207 00fe F868     		ldr	r0, [r7, #12]
 1208 0100 FFF7FEFF 		bl	I2C_WaitOnFlagUntilTimeout
 1209 0104 0346     		mov	r3, r0
 1210 0106 002B     		cmp	r3, #0
 1211 0108 31D0     		beq	.L57
 930:Drivers/STM32F3xx_HAL_Driver/Src/stm32f3xx_hal_i2c.c ****     {
 931:Drivers/STM32F3xx_HAL_Driver/Src/stm32f3xx_hal_i2c.c ****       /* Disable Address Acknowledge */
 932:Drivers/STM32F3xx_HAL_Driver/Src/stm32f3xx_hal_i2c.c ****       hi2c->Instance->CR2 |= I2C_CR2_NACK;
 1212              		.loc 1 932 0
 1213 010a FB68     		ldr	r3, [r7, #12]
 1214 010c 1B68     		ldr	r3, [r3]
 1215 010e 5A68     		ldr	r2, [r3, #4]
 1216 0110 FB68     		ldr	r3, [r7, #12]
 1217 0112 1B68     		ldr	r3, [r3]
 1218 0114 42F40042 		orr	r2, r2, #32768
 1219 0118 5A60     		str	r2, [r3, #4]
 933:Drivers/STM32F3xx_HAL_Driver/Src/stm32f3xx_hal_i2c.c ****       return HAL_TIMEOUT;
 1220              		.loc 1 933 0
 1221 011a 0323     		movs	r3, #3
 1222 011c 77E0     		b	.L51
 1223              	.L60:
 934:Drivers/STM32F3xx_HAL_Driver/Src/stm32f3xx_hal_i2c.c ****     }
 935:Drivers/STM32F3xx_HAL_Driver/Src/stm32f3xx_hal_i2c.c **** 
 936:Drivers/STM32F3xx_HAL_Driver/Src/stm32f3xx_hal_i2c.c ****     while (hi2c->XferCount > 0U)
 937:Drivers/STM32F3xx_HAL_Driver/Src/stm32f3xx_hal_i2c.c ****     {
 938:Drivers/STM32F3xx_HAL_Driver/Src/stm32f3xx_hal_i2c.c ****       /* Wait until TXIS flag is set */
 939:Drivers/STM32F3xx_HAL_Driver/Src/stm32f3xx_hal_i2c.c ****       if (I2C_WaitOnTXISFlagUntilTimeout(hi2c, Timeout, tickstart) != HAL_OK)
 1224              		.loc 1 939 0
 1225 011e 7A69     		ldr	r2, [r7, #20]
 1226 0120 3968     		ldr	r1, [r7]
 1227 0122 F868     		ldr	r0, [r7, #12]
 1228 0124 FFF7FEFF 		bl	I2C_WaitOnTXISFlagUntilTimeout
 1229 0128 0346     		mov	r3, r0
 1230 012a 002B     		cmp	r3, #0
 1231 012c 0FD0     		beq	.L58
 940:Drivers/STM32F3xx_HAL_Driver/Src/stm32f3xx_hal_i2c.c ****       {
 941:Drivers/STM32F3xx_HAL_Driver/Src/stm32f3xx_hal_i2c.c ****         /* Disable Address Acknowledge */
 942:Drivers/STM32F3xx_HAL_Driver/Src/stm32f3xx_hal_i2c.c ****         hi2c->Instance->CR2 |= I2C_CR2_NACK;
 1232              		.loc 1 942 0
 1233 012e FB68     		ldr	r3, [r7, #12]
 1234 0130 1B68     		ldr	r3, [r3]
 1235 0132 5A68     		ldr	r2, [r3, #4]
 1236 0134 FB68     		ldr	r3, [r7, #12]
 1237 0136 1B68     		ldr	r3, [r3]
ARM GAS  /tmp/ccy0jiyr.s 			page 39


 1238 0138 42F40042 		orr	r2, r2, #32768
 1239 013c 5A60     		str	r2, [r3, #4]
 943:Drivers/STM32F3xx_HAL_Driver/Src/stm32f3xx_hal_i2c.c **** 
 944:Drivers/STM32F3xx_HAL_Driver/Src/stm32f3xx_hal_i2c.c ****         if (hi2c->ErrorCode == HAL_I2C_ERROR_AF)
 1240              		.loc 1 944 0
 1241 013e FB68     		ldr	r3, [r7, #12]
 1242 0140 5B6C     		ldr	r3, [r3, #68]
 1243 0142 042B     		cmp	r3, #4
 1244 0144 01D1     		bne	.L59
 945:Drivers/STM32F3xx_HAL_Driver/Src/stm32f3xx_hal_i2c.c ****         {
 946:Drivers/STM32F3xx_HAL_Driver/Src/stm32f3xx_hal_i2c.c ****           return HAL_ERROR;
 1245              		.loc 1 946 0
 1246 0146 0123     		movs	r3, #1
 1247 0148 61E0     		b	.L51
 1248              	.L59:
 947:Drivers/STM32F3xx_HAL_Driver/Src/stm32f3xx_hal_i2c.c ****         }
 948:Drivers/STM32F3xx_HAL_Driver/Src/stm32f3xx_hal_i2c.c ****         else
 949:Drivers/STM32F3xx_HAL_Driver/Src/stm32f3xx_hal_i2c.c ****         {
 950:Drivers/STM32F3xx_HAL_Driver/Src/stm32f3xx_hal_i2c.c ****           return HAL_TIMEOUT;
 1249              		.loc 1 950 0
 1250 014a 0323     		movs	r3, #3
 1251 014c 5FE0     		b	.L51
 1252              	.L58:
 951:Drivers/STM32F3xx_HAL_Driver/Src/stm32f3xx_hal_i2c.c ****         }
 952:Drivers/STM32F3xx_HAL_Driver/Src/stm32f3xx_hal_i2c.c ****       }
 953:Drivers/STM32F3xx_HAL_Driver/Src/stm32f3xx_hal_i2c.c **** 
 954:Drivers/STM32F3xx_HAL_Driver/Src/stm32f3xx_hal_i2c.c ****       /* Write data to TXDR */
 955:Drivers/STM32F3xx_HAL_Driver/Src/stm32f3xx_hal_i2c.c ****       hi2c->Instance->TXDR = (*hi2c->pBuffPtr++);
 1253              		.loc 1 955 0
 1254 014e FB68     		ldr	r3, [r7, #12]
 1255 0150 5B6A     		ldr	r3, [r3, #36]
 1256 0152 591C     		adds	r1, r3, #1
 1257 0154 FA68     		ldr	r2, [r7, #12]
 1258 0156 5162     		str	r1, [r2, #36]
 1259 0158 1A78     		ldrb	r2, [r3]	@ zero_extendqisi2
 1260 015a FB68     		ldr	r3, [r7, #12]
 1261 015c 1B68     		ldr	r3, [r3]
 1262 015e 9A62     		str	r2, [r3, #40]
 956:Drivers/STM32F3xx_HAL_Driver/Src/stm32f3xx_hal_i2c.c ****       hi2c->XferCount--;
 1263              		.loc 1 956 0
 1264 0160 FB68     		ldr	r3, [r7, #12]
 1265 0162 5B8D     		ldrh	r3, [r3, #42]	@ movhi
 1266 0164 9BB2     		uxth	r3, r3
 1267 0166 013B     		subs	r3, r3, #1
 1268 0168 9AB2     		uxth	r2, r3
 1269 016a FB68     		ldr	r3, [r7, #12]
 1270 016c 5A85     		strh	r2, [r3, #42]	@ movhi
 1271              	.L57:
 936:Drivers/STM32F3xx_HAL_Driver/Src/stm32f3xx_hal_i2c.c ****     {
 1272              		.loc 1 936 0
 1273 016e FB68     		ldr	r3, [r7, #12]
 1274 0170 5B8D     		ldrh	r3, [r3, #42]	@ movhi
 1275 0172 9BB2     		uxth	r3, r3
 1276 0174 002B     		cmp	r3, #0
 1277 0176 D2D1     		bne	.L60
 957:Drivers/STM32F3xx_HAL_Driver/Src/stm32f3xx_hal_i2c.c ****     }
 958:Drivers/STM32F3xx_HAL_Driver/Src/stm32f3xx_hal_i2c.c **** 
ARM GAS  /tmp/ccy0jiyr.s 			page 40


 959:Drivers/STM32F3xx_HAL_Driver/Src/stm32f3xx_hal_i2c.c ****     /* Wait until STOP flag is set */
 960:Drivers/STM32F3xx_HAL_Driver/Src/stm32f3xx_hal_i2c.c ****     if (I2C_WaitOnSTOPFlagUntilTimeout(hi2c, Timeout, tickstart) != HAL_OK)
 1278              		.loc 1 960 0
 1279 0178 7A69     		ldr	r2, [r7, #20]
 1280 017a 3968     		ldr	r1, [r7]
 1281 017c F868     		ldr	r0, [r7, #12]
 1282 017e FFF7FEFF 		bl	I2C_WaitOnSTOPFlagUntilTimeout
 1283 0182 0346     		mov	r3, r0
 1284 0184 002B     		cmp	r3, #0
 1285 0186 11D0     		beq	.L61
 961:Drivers/STM32F3xx_HAL_Driver/Src/stm32f3xx_hal_i2c.c ****     {
 962:Drivers/STM32F3xx_HAL_Driver/Src/stm32f3xx_hal_i2c.c ****       /* Disable Address Acknowledge */
 963:Drivers/STM32F3xx_HAL_Driver/Src/stm32f3xx_hal_i2c.c ****       hi2c->Instance->CR2 |= I2C_CR2_NACK;
 1286              		.loc 1 963 0
 1287 0188 FB68     		ldr	r3, [r7, #12]
 1288 018a 1B68     		ldr	r3, [r3]
 1289 018c 5A68     		ldr	r2, [r3, #4]
 1290 018e FB68     		ldr	r3, [r7, #12]
 1291 0190 1B68     		ldr	r3, [r3]
 1292 0192 42F40042 		orr	r2, r2, #32768
 1293 0196 5A60     		str	r2, [r3, #4]
 964:Drivers/STM32F3xx_HAL_Driver/Src/stm32f3xx_hal_i2c.c **** 
 965:Drivers/STM32F3xx_HAL_Driver/Src/stm32f3xx_hal_i2c.c ****       if (hi2c->ErrorCode == HAL_I2C_ERROR_AF)
 1294              		.loc 1 965 0
 1295 0198 FB68     		ldr	r3, [r7, #12]
 1296 019a 5B6C     		ldr	r3, [r3, #68]
 1297 019c 042B     		cmp	r3, #4
 1298 019e 03D1     		bne	.L62
 966:Drivers/STM32F3xx_HAL_Driver/Src/stm32f3xx_hal_i2c.c ****       {
 967:Drivers/STM32F3xx_HAL_Driver/Src/stm32f3xx_hal_i2c.c ****         /* Normal use case for Transmitter mode */
 968:Drivers/STM32F3xx_HAL_Driver/Src/stm32f3xx_hal_i2c.c ****         /* A NACK is generated to confirm the end of transfer */
 969:Drivers/STM32F3xx_HAL_Driver/Src/stm32f3xx_hal_i2c.c ****         hi2c->ErrorCode = HAL_I2C_ERROR_NONE;
 1299              		.loc 1 969 0
 1300 01a0 FB68     		ldr	r3, [r7, #12]
 1301 01a2 0022     		movs	r2, #0
 1302 01a4 5A64     		str	r2, [r3, #68]
 1303 01a6 01E0     		b	.L61
 1304              	.L62:
 970:Drivers/STM32F3xx_HAL_Driver/Src/stm32f3xx_hal_i2c.c ****       }
 971:Drivers/STM32F3xx_HAL_Driver/Src/stm32f3xx_hal_i2c.c ****       else
 972:Drivers/STM32F3xx_HAL_Driver/Src/stm32f3xx_hal_i2c.c ****       {
 973:Drivers/STM32F3xx_HAL_Driver/Src/stm32f3xx_hal_i2c.c ****         return HAL_TIMEOUT;
 1305              		.loc 1 973 0
 1306 01a8 0323     		movs	r3, #3
 1307 01aa 30E0     		b	.L51
 1308              	.L61:
 974:Drivers/STM32F3xx_HAL_Driver/Src/stm32f3xx_hal_i2c.c ****       }
 975:Drivers/STM32F3xx_HAL_Driver/Src/stm32f3xx_hal_i2c.c ****     }
 976:Drivers/STM32F3xx_HAL_Driver/Src/stm32f3xx_hal_i2c.c **** 
 977:Drivers/STM32F3xx_HAL_Driver/Src/stm32f3xx_hal_i2c.c ****     /* Clear STOP flag */
 978:Drivers/STM32F3xx_HAL_Driver/Src/stm32f3xx_hal_i2c.c ****     __HAL_I2C_CLEAR_FLAG(hi2c, I2C_FLAG_STOPF);
 1309              		.loc 1 978 0
 1310 01ac FB68     		ldr	r3, [r7, #12]
 1311 01ae 1B68     		ldr	r3, [r3]
 1312 01b0 2022     		movs	r2, #32
 1313 01b2 DA61     		str	r2, [r3, #28]
 979:Drivers/STM32F3xx_HAL_Driver/Src/stm32f3xx_hal_i2c.c **** 
ARM GAS  /tmp/ccy0jiyr.s 			page 41


 980:Drivers/STM32F3xx_HAL_Driver/Src/stm32f3xx_hal_i2c.c ****     /* Wait until BUSY flag is reset */
 981:Drivers/STM32F3xx_HAL_Driver/Src/stm32f3xx_hal_i2c.c ****     if (I2C_WaitOnFlagUntilTimeout(hi2c, I2C_FLAG_BUSY, SET, Timeout, tickstart) != HAL_OK)
 1314              		.loc 1 981 0
 1315 01b4 7B69     		ldr	r3, [r7, #20]
 1316 01b6 0093     		str	r3, [sp]
 1317 01b8 3B68     		ldr	r3, [r7]
 1318 01ba 0122     		movs	r2, #1
 1319 01bc 4FF40041 		mov	r1, #32768
 1320 01c0 F868     		ldr	r0, [r7, #12]
 1321 01c2 FFF7FEFF 		bl	I2C_WaitOnFlagUntilTimeout
 1322 01c6 0346     		mov	r3, r0
 1323 01c8 002B     		cmp	r3, #0
 1324 01ca 09D0     		beq	.L63
 982:Drivers/STM32F3xx_HAL_Driver/Src/stm32f3xx_hal_i2c.c ****     {
 983:Drivers/STM32F3xx_HAL_Driver/Src/stm32f3xx_hal_i2c.c ****       /* Disable Address Acknowledge */
 984:Drivers/STM32F3xx_HAL_Driver/Src/stm32f3xx_hal_i2c.c ****       hi2c->Instance->CR2 |= I2C_CR2_NACK;
 1325              		.loc 1 984 0
 1326 01cc FB68     		ldr	r3, [r7, #12]
 1327 01ce 1B68     		ldr	r3, [r3]
 1328 01d0 5A68     		ldr	r2, [r3, #4]
 1329 01d2 FB68     		ldr	r3, [r7, #12]
 1330 01d4 1B68     		ldr	r3, [r3]
 1331 01d6 42F40042 		orr	r2, r2, #32768
 1332 01da 5A60     		str	r2, [r3, #4]
 985:Drivers/STM32F3xx_HAL_Driver/Src/stm32f3xx_hal_i2c.c ****       return HAL_TIMEOUT;
 1333              		.loc 1 985 0
 1334 01dc 0323     		movs	r3, #3
 1335 01de 16E0     		b	.L51
 1336              	.L63:
 986:Drivers/STM32F3xx_HAL_Driver/Src/stm32f3xx_hal_i2c.c ****     }
 987:Drivers/STM32F3xx_HAL_Driver/Src/stm32f3xx_hal_i2c.c **** 
 988:Drivers/STM32F3xx_HAL_Driver/Src/stm32f3xx_hal_i2c.c ****     /* Disable Address Acknowledge */
 989:Drivers/STM32F3xx_HAL_Driver/Src/stm32f3xx_hal_i2c.c ****     hi2c->Instance->CR2 |= I2C_CR2_NACK;
 1337              		.loc 1 989 0
 1338 01e0 FB68     		ldr	r3, [r7, #12]
 1339 01e2 1B68     		ldr	r3, [r3]
 1340 01e4 5A68     		ldr	r2, [r3, #4]
 1341 01e6 FB68     		ldr	r3, [r7, #12]
 1342 01e8 1B68     		ldr	r3, [r3]
 1343 01ea 42F40042 		orr	r2, r2, #32768
 1344 01ee 5A60     		str	r2, [r3, #4]
 990:Drivers/STM32F3xx_HAL_Driver/Src/stm32f3xx_hal_i2c.c **** 
 991:Drivers/STM32F3xx_HAL_Driver/Src/stm32f3xx_hal_i2c.c ****     hi2c->State = HAL_I2C_STATE_READY;
 1345              		.loc 1 991 0
 1346 01f0 FB68     		ldr	r3, [r7, #12]
 1347 01f2 2022     		movs	r2, #32
 1348 01f4 83F84120 		strb	r2, [r3, #65]
 992:Drivers/STM32F3xx_HAL_Driver/Src/stm32f3xx_hal_i2c.c ****     hi2c->Mode  = HAL_I2C_MODE_NONE;
 1349              		.loc 1 992 0
 1350 01f8 FB68     		ldr	r3, [r7, #12]
 1351 01fa 0022     		movs	r2, #0
 1352 01fc 83F84220 		strb	r2, [r3, #66]
 993:Drivers/STM32F3xx_HAL_Driver/Src/stm32f3xx_hal_i2c.c **** 
 994:Drivers/STM32F3xx_HAL_Driver/Src/stm32f3xx_hal_i2c.c ****     /* Process Unlocked */
 995:Drivers/STM32F3xx_HAL_Driver/Src/stm32f3xx_hal_i2c.c ****     __HAL_UNLOCK(hi2c);
 1353              		.loc 1 995 0
 1354 0200 FB68     		ldr	r3, [r7, #12]
ARM GAS  /tmp/ccy0jiyr.s 			page 42


 1355 0202 0022     		movs	r2, #0
 1356 0204 83F84020 		strb	r2, [r3, #64]
 996:Drivers/STM32F3xx_HAL_Driver/Src/stm32f3xx_hal_i2c.c **** 
 997:Drivers/STM32F3xx_HAL_Driver/Src/stm32f3xx_hal_i2c.c ****     return HAL_OK;
 1357              		.loc 1 997 0
 1358 0208 0023     		movs	r3, #0
 1359 020a 00E0     		b	.L51
 1360              	.L48:
 998:Drivers/STM32F3xx_HAL_Driver/Src/stm32f3xx_hal_i2c.c ****   }
 999:Drivers/STM32F3xx_HAL_Driver/Src/stm32f3xx_hal_i2c.c ****   else
1000:Drivers/STM32F3xx_HAL_Driver/Src/stm32f3xx_hal_i2c.c ****   {
1001:Drivers/STM32F3xx_HAL_Driver/Src/stm32f3xx_hal_i2c.c ****     return HAL_BUSY;
 1361              		.loc 1 1001 0
 1362 020c 0223     		movs	r3, #2
 1363              	.L51:
1002:Drivers/STM32F3xx_HAL_Driver/Src/stm32f3xx_hal_i2c.c ****   }
1003:Drivers/STM32F3xx_HAL_Driver/Src/stm32f3xx_hal_i2c.c **** }
 1364              		.loc 1 1003 0
 1365 020e 1846     		mov	r0, r3
 1366 0210 1837     		adds	r7, r7, #24
 1367              	.LCFI35:
 1368              		.cfi_def_cfa_offset 8
 1369 0212 BD46     		mov	sp, r7
 1370              	.LCFI36:
 1371              		.cfi_def_cfa_register 13
 1372              		@ sp needed
 1373 0214 80BD     		pop	{r7, pc}
 1374              		.cfi_endproc
 1375              	.LFE701:
 1377              		.section	.text.HAL_I2C_Slave_Receive,"ax",%progbits
 1378              		.align	1
 1379              		.global	HAL_I2C_Slave_Receive
 1380              		.syntax unified
 1381              		.thumb
 1382              		.thumb_func
 1383              		.fpu fpv4-sp-d16
 1385              	HAL_I2C_Slave_Receive:
 1386              	.LFB702:
1004:Drivers/STM32F3xx_HAL_Driver/Src/stm32f3xx_hal_i2c.c **** 
1005:Drivers/STM32F3xx_HAL_Driver/Src/stm32f3xx_hal_i2c.c **** /**
1006:Drivers/STM32F3xx_HAL_Driver/Src/stm32f3xx_hal_i2c.c ****   * @brief  Receive in slave mode an amount of data in blocking mode
1007:Drivers/STM32F3xx_HAL_Driver/Src/stm32f3xx_hal_i2c.c ****   * @param  hi2c Pointer to a I2C_HandleTypeDef structure that contains
1008:Drivers/STM32F3xx_HAL_Driver/Src/stm32f3xx_hal_i2c.c ****   *                the configuration information for the specified I2C.
1009:Drivers/STM32F3xx_HAL_Driver/Src/stm32f3xx_hal_i2c.c ****   * @param  pData Pointer to data buffer
1010:Drivers/STM32F3xx_HAL_Driver/Src/stm32f3xx_hal_i2c.c ****   * @param  Size Amount of data to be sent
1011:Drivers/STM32F3xx_HAL_Driver/Src/stm32f3xx_hal_i2c.c ****   * @param  Timeout Timeout duration
1012:Drivers/STM32F3xx_HAL_Driver/Src/stm32f3xx_hal_i2c.c ****   * @retval HAL status
1013:Drivers/STM32F3xx_HAL_Driver/Src/stm32f3xx_hal_i2c.c ****   */
1014:Drivers/STM32F3xx_HAL_Driver/Src/stm32f3xx_hal_i2c.c **** HAL_StatusTypeDef HAL_I2C_Slave_Receive(I2C_HandleTypeDef *hi2c, uint8_t *pData, uint16_t Size, uin
1015:Drivers/STM32F3xx_HAL_Driver/Src/stm32f3xx_hal_i2c.c **** {
 1387              		.loc 1 1015 0
 1388              		.cfi_startproc
 1389              		@ args = 0, pretend = 0, frame = 24
 1390              		@ frame_needed = 1, uses_anonymous_args = 0
 1391 0000 80B5     		push	{r7, lr}
 1392              	.LCFI37:
 1393              		.cfi_def_cfa_offset 8
ARM GAS  /tmp/ccy0jiyr.s 			page 43


 1394              		.cfi_offset 7, -8
 1395              		.cfi_offset 14, -4
 1396 0002 88B0     		sub	sp, sp, #32
 1397              	.LCFI38:
 1398              		.cfi_def_cfa_offset 40
 1399 0004 02AF     		add	r7, sp, #8
 1400              	.LCFI39:
 1401              		.cfi_def_cfa 7, 32
 1402 0006 F860     		str	r0, [r7, #12]
 1403 0008 B960     		str	r1, [r7, #8]
 1404 000a 3B60     		str	r3, [r7]
 1405 000c 1346     		mov	r3, r2	@ movhi
 1406 000e FB80     		strh	r3, [r7, #6]	@ movhi
1016:Drivers/STM32F3xx_HAL_Driver/Src/stm32f3xx_hal_i2c.c ****   uint32_t tickstart = 0U;
 1407              		.loc 1 1016 0
 1408 0010 0023     		movs	r3, #0
 1409 0012 7B61     		str	r3, [r7, #20]
1017:Drivers/STM32F3xx_HAL_Driver/Src/stm32f3xx_hal_i2c.c **** 
1018:Drivers/STM32F3xx_HAL_Driver/Src/stm32f3xx_hal_i2c.c ****   if (hi2c->State == HAL_I2C_STATE_READY)
 1410              		.loc 1 1018 0
 1411 0014 FB68     		ldr	r3, [r7, #12]
 1412 0016 93F84130 		ldrb	r3, [r3, #65]
 1413 001a DBB2     		uxtb	r3, r3
 1414 001c 202B     		cmp	r3, #32
 1415 001e 40F0EF80 		bne	.L65
1019:Drivers/STM32F3xx_HAL_Driver/Src/stm32f3xx_hal_i2c.c ****   {
1020:Drivers/STM32F3xx_HAL_Driver/Src/stm32f3xx_hal_i2c.c ****     if ((pData == NULL) || (Size == 0U))
 1416              		.loc 1 1020 0
 1417 0022 BB68     		ldr	r3, [r7, #8]
 1418 0024 002B     		cmp	r3, #0
 1419 0026 02D0     		beq	.L66
 1420              		.loc 1 1020 0 is_stmt 0 discriminator 1
 1421 0028 FB88     		ldrh	r3, [r7, #6]
 1422 002a 002B     		cmp	r3, #0
 1423 002c 01D1     		bne	.L67
 1424              	.L66:
1021:Drivers/STM32F3xx_HAL_Driver/Src/stm32f3xx_hal_i2c.c ****     {
1022:Drivers/STM32F3xx_HAL_Driver/Src/stm32f3xx_hal_i2c.c ****       return  HAL_ERROR;
 1425              		.loc 1 1022 0 is_stmt 1
 1426 002e 0123     		movs	r3, #1
 1427 0030 E7E0     		b	.L68
 1428              	.L67:
1023:Drivers/STM32F3xx_HAL_Driver/Src/stm32f3xx_hal_i2c.c ****     }
1024:Drivers/STM32F3xx_HAL_Driver/Src/stm32f3xx_hal_i2c.c ****     /* Process Locked */
1025:Drivers/STM32F3xx_HAL_Driver/Src/stm32f3xx_hal_i2c.c ****     __HAL_LOCK(hi2c);
 1429              		.loc 1 1025 0
 1430 0032 FB68     		ldr	r3, [r7, #12]
 1431 0034 93F84030 		ldrb	r3, [r3, #64]	@ zero_extendqisi2
 1432 0038 012B     		cmp	r3, #1
 1433 003a 01D1     		bne	.L69
 1434              		.loc 1 1025 0 is_stmt 0 discriminator 1
 1435 003c 0223     		movs	r3, #2
 1436 003e E0E0     		b	.L68
 1437              	.L69:
 1438              		.loc 1 1025 0 discriminator 2
 1439 0040 FB68     		ldr	r3, [r7, #12]
 1440 0042 0122     		movs	r2, #1
ARM GAS  /tmp/ccy0jiyr.s 			page 44


 1441 0044 83F84020 		strb	r2, [r3, #64]
1026:Drivers/STM32F3xx_HAL_Driver/Src/stm32f3xx_hal_i2c.c **** 
1027:Drivers/STM32F3xx_HAL_Driver/Src/stm32f3xx_hal_i2c.c ****     /* Init tickstart for timeout management*/
1028:Drivers/STM32F3xx_HAL_Driver/Src/stm32f3xx_hal_i2c.c ****     tickstart = HAL_GetTick();
 1442              		.loc 1 1028 0 is_stmt 1 discriminator 2
 1443 0048 FFF7FEFF 		bl	HAL_GetTick
 1444 004c 7861     		str	r0, [r7, #20]
1029:Drivers/STM32F3xx_HAL_Driver/Src/stm32f3xx_hal_i2c.c **** 
1030:Drivers/STM32F3xx_HAL_Driver/Src/stm32f3xx_hal_i2c.c ****     hi2c->State     = HAL_I2C_STATE_BUSY_RX;
 1445              		.loc 1 1030 0 discriminator 2
 1446 004e FB68     		ldr	r3, [r7, #12]
 1447 0050 2222     		movs	r2, #34
 1448 0052 83F84120 		strb	r2, [r3, #65]
1031:Drivers/STM32F3xx_HAL_Driver/Src/stm32f3xx_hal_i2c.c ****     hi2c->Mode      = HAL_I2C_MODE_SLAVE;
 1449              		.loc 1 1031 0 discriminator 2
 1450 0056 FB68     		ldr	r3, [r7, #12]
 1451 0058 2022     		movs	r2, #32
 1452 005a 83F84220 		strb	r2, [r3, #66]
1032:Drivers/STM32F3xx_HAL_Driver/Src/stm32f3xx_hal_i2c.c ****     hi2c->ErrorCode = HAL_I2C_ERROR_NONE;
 1453              		.loc 1 1032 0 discriminator 2
 1454 005e FB68     		ldr	r3, [r7, #12]
 1455 0060 0022     		movs	r2, #0
 1456 0062 5A64     		str	r2, [r3, #68]
1033:Drivers/STM32F3xx_HAL_Driver/Src/stm32f3xx_hal_i2c.c **** 
1034:Drivers/STM32F3xx_HAL_Driver/Src/stm32f3xx_hal_i2c.c ****     /* Prepare transfer parameters */
1035:Drivers/STM32F3xx_HAL_Driver/Src/stm32f3xx_hal_i2c.c ****     hi2c->pBuffPtr  = pData;
 1457              		.loc 1 1035 0 discriminator 2
 1458 0064 FB68     		ldr	r3, [r7, #12]
 1459 0066 BA68     		ldr	r2, [r7, #8]
 1460 0068 5A62     		str	r2, [r3, #36]
1036:Drivers/STM32F3xx_HAL_Driver/Src/stm32f3xx_hal_i2c.c ****     hi2c->XferCount = Size;
 1461              		.loc 1 1036 0 discriminator 2
 1462 006a FB68     		ldr	r3, [r7, #12]
 1463 006c FA88     		ldrh	r2, [r7, #6]	@ movhi
 1464 006e 5A85     		strh	r2, [r3, #42]	@ movhi
1037:Drivers/STM32F3xx_HAL_Driver/Src/stm32f3xx_hal_i2c.c ****     hi2c->XferISR   = NULL;
 1465              		.loc 1 1037 0 discriminator 2
 1466 0070 FB68     		ldr	r3, [r7, #12]
 1467 0072 0022     		movs	r2, #0
 1468 0074 5A63     		str	r2, [r3, #52]
1038:Drivers/STM32F3xx_HAL_Driver/Src/stm32f3xx_hal_i2c.c **** 
1039:Drivers/STM32F3xx_HAL_Driver/Src/stm32f3xx_hal_i2c.c ****     /* Enable Address Acknowledge */
1040:Drivers/STM32F3xx_HAL_Driver/Src/stm32f3xx_hal_i2c.c ****     hi2c->Instance->CR2 &= ~I2C_CR2_NACK;
 1469              		.loc 1 1040 0 discriminator 2
 1470 0076 FB68     		ldr	r3, [r7, #12]
 1471 0078 1B68     		ldr	r3, [r3]
 1472 007a 5A68     		ldr	r2, [r3, #4]
 1473 007c FB68     		ldr	r3, [r7, #12]
 1474 007e 1B68     		ldr	r3, [r3]
 1475 0080 22F40042 		bic	r2, r2, #32768
 1476 0084 5A60     		str	r2, [r3, #4]
1041:Drivers/STM32F3xx_HAL_Driver/Src/stm32f3xx_hal_i2c.c **** 
1042:Drivers/STM32F3xx_HAL_Driver/Src/stm32f3xx_hal_i2c.c ****     /* Wait until ADDR flag is set */
1043:Drivers/STM32F3xx_HAL_Driver/Src/stm32f3xx_hal_i2c.c ****     if (I2C_WaitOnFlagUntilTimeout(hi2c, I2C_FLAG_ADDR, RESET, Timeout, tickstart) != HAL_OK)
 1477              		.loc 1 1043 0 discriminator 2
 1478 0086 7B69     		ldr	r3, [r7, #20]
 1479 0088 0093     		str	r3, [sp]
ARM GAS  /tmp/ccy0jiyr.s 			page 45


 1480 008a 3B68     		ldr	r3, [r7]
 1481 008c 0022     		movs	r2, #0
 1482 008e 0821     		movs	r1, #8
 1483 0090 F868     		ldr	r0, [r7, #12]
 1484 0092 FFF7FEFF 		bl	I2C_WaitOnFlagUntilTimeout
 1485 0096 0346     		mov	r3, r0
 1486 0098 002B     		cmp	r3, #0
 1487 009a 09D0     		beq	.L70
1044:Drivers/STM32F3xx_HAL_Driver/Src/stm32f3xx_hal_i2c.c ****     {
1045:Drivers/STM32F3xx_HAL_Driver/Src/stm32f3xx_hal_i2c.c ****       /* Disable Address Acknowledge */
1046:Drivers/STM32F3xx_HAL_Driver/Src/stm32f3xx_hal_i2c.c ****       hi2c->Instance->CR2 |= I2C_CR2_NACK;
 1488              		.loc 1 1046 0
 1489 009c FB68     		ldr	r3, [r7, #12]
 1490 009e 1B68     		ldr	r3, [r3]
 1491 00a0 5A68     		ldr	r2, [r3, #4]
 1492 00a2 FB68     		ldr	r3, [r7, #12]
 1493 00a4 1B68     		ldr	r3, [r3]
 1494 00a6 42F40042 		orr	r2, r2, #32768
 1495 00aa 5A60     		str	r2, [r3, #4]
1047:Drivers/STM32F3xx_HAL_Driver/Src/stm32f3xx_hal_i2c.c ****       return HAL_TIMEOUT;
 1496              		.loc 1 1047 0
 1497 00ac 0323     		movs	r3, #3
 1498 00ae A8E0     		b	.L68
 1499              	.L70:
1048:Drivers/STM32F3xx_HAL_Driver/Src/stm32f3xx_hal_i2c.c ****     }
1049:Drivers/STM32F3xx_HAL_Driver/Src/stm32f3xx_hal_i2c.c **** 
1050:Drivers/STM32F3xx_HAL_Driver/Src/stm32f3xx_hal_i2c.c ****     /* Clear ADDR flag */
1051:Drivers/STM32F3xx_HAL_Driver/Src/stm32f3xx_hal_i2c.c ****     __HAL_I2C_CLEAR_FLAG(hi2c, I2C_FLAG_ADDR);
 1500              		.loc 1 1051 0
 1501 00b0 FB68     		ldr	r3, [r7, #12]
 1502 00b2 1B68     		ldr	r3, [r3]
 1503 00b4 0822     		movs	r2, #8
 1504 00b6 DA61     		str	r2, [r3, #28]
1052:Drivers/STM32F3xx_HAL_Driver/Src/stm32f3xx_hal_i2c.c **** 
1053:Drivers/STM32F3xx_HAL_Driver/Src/stm32f3xx_hal_i2c.c ****     /* Wait until DIR flag is reset Receiver mode */
1054:Drivers/STM32F3xx_HAL_Driver/Src/stm32f3xx_hal_i2c.c ****     if (I2C_WaitOnFlagUntilTimeout(hi2c, I2C_FLAG_DIR, SET, Timeout, tickstart) != HAL_OK)
 1505              		.loc 1 1054 0
 1506 00b8 7B69     		ldr	r3, [r7, #20]
 1507 00ba 0093     		str	r3, [sp]
 1508 00bc 3B68     		ldr	r3, [r7]
 1509 00be 0122     		movs	r2, #1
 1510 00c0 4FF48031 		mov	r1, #65536
 1511 00c4 F868     		ldr	r0, [r7, #12]
 1512 00c6 FFF7FEFF 		bl	I2C_WaitOnFlagUntilTimeout
 1513 00ca 0346     		mov	r3, r0
 1514 00cc 002B     		cmp	r3, #0
 1515 00ce 4AD0     		beq	.L72
1055:Drivers/STM32F3xx_HAL_Driver/Src/stm32f3xx_hal_i2c.c ****     {
1056:Drivers/STM32F3xx_HAL_Driver/Src/stm32f3xx_hal_i2c.c ****       /* Disable Address Acknowledge */
1057:Drivers/STM32F3xx_HAL_Driver/Src/stm32f3xx_hal_i2c.c ****       hi2c->Instance->CR2 |= I2C_CR2_NACK;
 1516              		.loc 1 1057 0
 1517 00d0 FB68     		ldr	r3, [r7, #12]
 1518 00d2 1B68     		ldr	r3, [r3]
 1519 00d4 5A68     		ldr	r2, [r3, #4]
 1520 00d6 FB68     		ldr	r3, [r7, #12]
 1521 00d8 1B68     		ldr	r3, [r3]
 1522 00da 42F40042 		orr	r2, r2, #32768
ARM GAS  /tmp/ccy0jiyr.s 			page 46


 1523 00de 5A60     		str	r2, [r3, #4]
1058:Drivers/STM32F3xx_HAL_Driver/Src/stm32f3xx_hal_i2c.c ****       return HAL_TIMEOUT;
 1524              		.loc 1 1058 0
 1525 00e0 0323     		movs	r3, #3
 1526 00e2 8EE0     		b	.L68
 1527              	.L76:
1059:Drivers/STM32F3xx_HAL_Driver/Src/stm32f3xx_hal_i2c.c ****     }
1060:Drivers/STM32F3xx_HAL_Driver/Src/stm32f3xx_hal_i2c.c **** 
1061:Drivers/STM32F3xx_HAL_Driver/Src/stm32f3xx_hal_i2c.c ****     while (hi2c->XferCount > 0U)
1062:Drivers/STM32F3xx_HAL_Driver/Src/stm32f3xx_hal_i2c.c ****     {
1063:Drivers/STM32F3xx_HAL_Driver/Src/stm32f3xx_hal_i2c.c ****       /* Wait until RXNE flag is set */
1064:Drivers/STM32F3xx_HAL_Driver/Src/stm32f3xx_hal_i2c.c ****       if (I2C_WaitOnRXNEFlagUntilTimeout(hi2c, Timeout, tickstart) != HAL_OK)
 1528              		.loc 1 1064 0
 1529 00e4 7A69     		ldr	r2, [r7, #20]
 1530 00e6 3968     		ldr	r1, [r7]
 1531 00e8 F868     		ldr	r0, [r7, #12]
 1532 00ea FFF7FEFF 		bl	I2C_WaitOnRXNEFlagUntilTimeout
 1533 00ee 0346     		mov	r3, r0
 1534 00f0 002B     		cmp	r3, #0
 1535 00f2 27D0     		beq	.L73
1065:Drivers/STM32F3xx_HAL_Driver/Src/stm32f3xx_hal_i2c.c ****       {
1066:Drivers/STM32F3xx_HAL_Driver/Src/stm32f3xx_hal_i2c.c ****         /* Disable Address Acknowledge */
1067:Drivers/STM32F3xx_HAL_Driver/Src/stm32f3xx_hal_i2c.c ****         hi2c->Instance->CR2 |= I2C_CR2_NACK;
 1536              		.loc 1 1067 0
 1537 00f4 FB68     		ldr	r3, [r7, #12]
 1538 00f6 1B68     		ldr	r3, [r3]
 1539 00f8 5A68     		ldr	r2, [r3, #4]
 1540 00fa FB68     		ldr	r3, [r7, #12]
 1541 00fc 1B68     		ldr	r3, [r3]
 1542 00fe 42F40042 		orr	r2, r2, #32768
 1543 0102 5A60     		str	r2, [r3, #4]
1068:Drivers/STM32F3xx_HAL_Driver/Src/stm32f3xx_hal_i2c.c **** 
1069:Drivers/STM32F3xx_HAL_Driver/Src/stm32f3xx_hal_i2c.c ****         /* Store Last receive data if any */
1070:Drivers/STM32F3xx_HAL_Driver/Src/stm32f3xx_hal_i2c.c ****         if (__HAL_I2C_GET_FLAG(hi2c, I2C_FLAG_RXNE) == SET)
 1544              		.loc 1 1070 0
 1545 0104 FB68     		ldr	r3, [r7, #12]
 1546 0106 1B68     		ldr	r3, [r3]
 1547 0108 9B69     		ldr	r3, [r3, #24]
 1548 010a 03F00403 		and	r3, r3, #4
 1549 010e 042B     		cmp	r3, #4
 1550 0110 10D1     		bne	.L74
1071:Drivers/STM32F3xx_HAL_Driver/Src/stm32f3xx_hal_i2c.c ****         {
1072:Drivers/STM32F3xx_HAL_Driver/Src/stm32f3xx_hal_i2c.c ****           /* Read data from RXDR */
1073:Drivers/STM32F3xx_HAL_Driver/Src/stm32f3xx_hal_i2c.c ****           (*hi2c->pBuffPtr++) = hi2c->Instance->RXDR;
 1551              		.loc 1 1073 0
 1552 0112 FB68     		ldr	r3, [r7, #12]
 1553 0114 1B68     		ldr	r3, [r3]
 1554 0116 586A     		ldr	r0, [r3, #36]
 1555 0118 FB68     		ldr	r3, [r7, #12]
 1556 011a 5B6A     		ldr	r3, [r3, #36]
 1557 011c 591C     		adds	r1, r3, #1
 1558 011e FA68     		ldr	r2, [r7, #12]
 1559 0120 5162     		str	r1, [r2, #36]
 1560 0122 C2B2     		uxtb	r2, r0
 1561 0124 1A70     		strb	r2, [r3]
1074:Drivers/STM32F3xx_HAL_Driver/Src/stm32f3xx_hal_i2c.c ****           hi2c->XferCount--;
 1562              		.loc 1 1074 0
ARM GAS  /tmp/ccy0jiyr.s 			page 47


 1563 0126 FB68     		ldr	r3, [r7, #12]
 1564 0128 5B8D     		ldrh	r3, [r3, #42]	@ movhi
 1565 012a 9BB2     		uxth	r3, r3
 1566 012c 013B     		subs	r3, r3, #1
 1567 012e 9AB2     		uxth	r2, r3
 1568 0130 FB68     		ldr	r3, [r7, #12]
 1569 0132 5A85     		strh	r2, [r3, #42]	@ movhi
 1570              	.L74:
1075:Drivers/STM32F3xx_HAL_Driver/Src/stm32f3xx_hal_i2c.c ****         }
1076:Drivers/STM32F3xx_HAL_Driver/Src/stm32f3xx_hal_i2c.c **** 
1077:Drivers/STM32F3xx_HAL_Driver/Src/stm32f3xx_hal_i2c.c ****         if (hi2c->ErrorCode == HAL_I2C_ERROR_TIMEOUT)
 1571              		.loc 1 1077 0
 1572 0134 FB68     		ldr	r3, [r7, #12]
 1573 0136 5B6C     		ldr	r3, [r3, #68]
 1574 0138 202B     		cmp	r3, #32
 1575 013a 01D1     		bne	.L75
1078:Drivers/STM32F3xx_HAL_Driver/Src/stm32f3xx_hal_i2c.c ****         {
1079:Drivers/STM32F3xx_HAL_Driver/Src/stm32f3xx_hal_i2c.c ****           return HAL_TIMEOUT;
 1576              		.loc 1 1079 0
 1577 013c 0323     		movs	r3, #3
 1578 013e 60E0     		b	.L68
 1579              	.L75:
1080:Drivers/STM32F3xx_HAL_Driver/Src/stm32f3xx_hal_i2c.c ****         }
1081:Drivers/STM32F3xx_HAL_Driver/Src/stm32f3xx_hal_i2c.c ****         else
1082:Drivers/STM32F3xx_HAL_Driver/Src/stm32f3xx_hal_i2c.c ****         {
1083:Drivers/STM32F3xx_HAL_Driver/Src/stm32f3xx_hal_i2c.c ****           return HAL_ERROR;
 1580              		.loc 1 1083 0
 1581 0140 0123     		movs	r3, #1
 1582 0142 5EE0     		b	.L68
 1583              	.L73:
1084:Drivers/STM32F3xx_HAL_Driver/Src/stm32f3xx_hal_i2c.c ****         }
1085:Drivers/STM32F3xx_HAL_Driver/Src/stm32f3xx_hal_i2c.c ****       }
1086:Drivers/STM32F3xx_HAL_Driver/Src/stm32f3xx_hal_i2c.c **** 
1087:Drivers/STM32F3xx_HAL_Driver/Src/stm32f3xx_hal_i2c.c ****       /* Read data from RXDR */
1088:Drivers/STM32F3xx_HAL_Driver/Src/stm32f3xx_hal_i2c.c ****       (*hi2c->pBuffPtr++) = hi2c->Instance->RXDR;
 1584              		.loc 1 1088 0
 1585 0144 FB68     		ldr	r3, [r7, #12]
 1586 0146 1B68     		ldr	r3, [r3]
 1587 0148 586A     		ldr	r0, [r3, #36]
 1588 014a FB68     		ldr	r3, [r7, #12]
 1589 014c 5B6A     		ldr	r3, [r3, #36]
 1590 014e 591C     		adds	r1, r3, #1
 1591 0150 FA68     		ldr	r2, [r7, #12]
 1592 0152 5162     		str	r1, [r2, #36]
 1593 0154 C2B2     		uxtb	r2, r0
 1594 0156 1A70     		strb	r2, [r3]
1089:Drivers/STM32F3xx_HAL_Driver/Src/stm32f3xx_hal_i2c.c ****       hi2c->XferCount--;
 1595              		.loc 1 1089 0
 1596 0158 FB68     		ldr	r3, [r7, #12]
 1597 015a 5B8D     		ldrh	r3, [r3, #42]	@ movhi
 1598 015c 9BB2     		uxth	r3, r3
 1599 015e 013B     		subs	r3, r3, #1
 1600 0160 9AB2     		uxth	r2, r3
 1601 0162 FB68     		ldr	r3, [r7, #12]
 1602 0164 5A85     		strh	r2, [r3, #42]	@ movhi
 1603              	.L72:
1061:Drivers/STM32F3xx_HAL_Driver/Src/stm32f3xx_hal_i2c.c ****     {
ARM GAS  /tmp/ccy0jiyr.s 			page 48


 1604              		.loc 1 1061 0
 1605 0166 FB68     		ldr	r3, [r7, #12]
 1606 0168 5B8D     		ldrh	r3, [r3, #42]	@ movhi
 1607 016a 9BB2     		uxth	r3, r3
 1608 016c 002B     		cmp	r3, #0
 1609 016e B9D1     		bne	.L76
1090:Drivers/STM32F3xx_HAL_Driver/Src/stm32f3xx_hal_i2c.c ****     }
1091:Drivers/STM32F3xx_HAL_Driver/Src/stm32f3xx_hal_i2c.c **** 
1092:Drivers/STM32F3xx_HAL_Driver/Src/stm32f3xx_hal_i2c.c ****     /* Wait until STOP flag is set */
1093:Drivers/STM32F3xx_HAL_Driver/Src/stm32f3xx_hal_i2c.c ****     if (I2C_WaitOnSTOPFlagUntilTimeout(hi2c, Timeout, tickstart) != HAL_OK)
 1610              		.loc 1 1093 0
 1611 0170 7A69     		ldr	r2, [r7, #20]
 1612 0172 3968     		ldr	r1, [r7]
 1613 0174 F868     		ldr	r0, [r7, #12]
 1614 0176 FFF7FEFF 		bl	I2C_WaitOnSTOPFlagUntilTimeout
 1615 017a 0346     		mov	r3, r0
 1616 017c 002B     		cmp	r3, #0
 1617 017e 0FD0     		beq	.L77
1094:Drivers/STM32F3xx_HAL_Driver/Src/stm32f3xx_hal_i2c.c ****     {
1095:Drivers/STM32F3xx_HAL_Driver/Src/stm32f3xx_hal_i2c.c ****       /* Disable Address Acknowledge */
1096:Drivers/STM32F3xx_HAL_Driver/Src/stm32f3xx_hal_i2c.c ****       hi2c->Instance->CR2 |= I2C_CR2_NACK;
 1618              		.loc 1 1096 0
 1619 0180 FB68     		ldr	r3, [r7, #12]
 1620 0182 1B68     		ldr	r3, [r3]
 1621 0184 5A68     		ldr	r2, [r3, #4]
 1622 0186 FB68     		ldr	r3, [r7, #12]
 1623 0188 1B68     		ldr	r3, [r3]
 1624 018a 42F40042 		orr	r2, r2, #32768
 1625 018e 5A60     		str	r2, [r3, #4]
1097:Drivers/STM32F3xx_HAL_Driver/Src/stm32f3xx_hal_i2c.c **** 
1098:Drivers/STM32F3xx_HAL_Driver/Src/stm32f3xx_hal_i2c.c ****       if (hi2c->ErrorCode == HAL_I2C_ERROR_AF)
 1626              		.loc 1 1098 0
 1627 0190 FB68     		ldr	r3, [r7, #12]
 1628 0192 5B6C     		ldr	r3, [r3, #68]
 1629 0194 042B     		cmp	r3, #4
 1630 0196 01D1     		bne	.L78
1099:Drivers/STM32F3xx_HAL_Driver/Src/stm32f3xx_hal_i2c.c ****       {
1100:Drivers/STM32F3xx_HAL_Driver/Src/stm32f3xx_hal_i2c.c ****         return HAL_ERROR;
 1631              		.loc 1 1100 0
 1632 0198 0123     		movs	r3, #1
 1633 019a 32E0     		b	.L68
 1634              	.L78:
1101:Drivers/STM32F3xx_HAL_Driver/Src/stm32f3xx_hal_i2c.c ****       }
1102:Drivers/STM32F3xx_HAL_Driver/Src/stm32f3xx_hal_i2c.c ****       else
1103:Drivers/STM32F3xx_HAL_Driver/Src/stm32f3xx_hal_i2c.c ****       {
1104:Drivers/STM32F3xx_HAL_Driver/Src/stm32f3xx_hal_i2c.c ****         return HAL_TIMEOUT;
 1635              		.loc 1 1104 0
 1636 019c 0323     		movs	r3, #3
 1637 019e 30E0     		b	.L68
 1638              	.L77:
1105:Drivers/STM32F3xx_HAL_Driver/Src/stm32f3xx_hal_i2c.c ****       }
1106:Drivers/STM32F3xx_HAL_Driver/Src/stm32f3xx_hal_i2c.c ****     }
1107:Drivers/STM32F3xx_HAL_Driver/Src/stm32f3xx_hal_i2c.c **** 
1108:Drivers/STM32F3xx_HAL_Driver/Src/stm32f3xx_hal_i2c.c ****     /* Clear STOP flag */
1109:Drivers/STM32F3xx_HAL_Driver/Src/stm32f3xx_hal_i2c.c ****     __HAL_I2C_CLEAR_FLAG(hi2c, I2C_FLAG_STOPF);
 1639              		.loc 1 1109 0
 1640 01a0 FB68     		ldr	r3, [r7, #12]
ARM GAS  /tmp/ccy0jiyr.s 			page 49


 1641 01a2 1B68     		ldr	r3, [r3]
 1642 01a4 2022     		movs	r2, #32
 1643 01a6 DA61     		str	r2, [r3, #28]
1110:Drivers/STM32F3xx_HAL_Driver/Src/stm32f3xx_hal_i2c.c **** 
1111:Drivers/STM32F3xx_HAL_Driver/Src/stm32f3xx_hal_i2c.c ****     /* Wait until BUSY flag is reset */
1112:Drivers/STM32F3xx_HAL_Driver/Src/stm32f3xx_hal_i2c.c ****     if (I2C_WaitOnFlagUntilTimeout(hi2c, I2C_FLAG_BUSY, SET, Timeout, tickstart) != HAL_OK)
 1644              		.loc 1 1112 0
 1645 01a8 7B69     		ldr	r3, [r7, #20]
 1646 01aa 0093     		str	r3, [sp]
 1647 01ac 3B68     		ldr	r3, [r7]
 1648 01ae 0122     		movs	r2, #1
 1649 01b0 4FF40041 		mov	r1, #32768
 1650 01b4 F868     		ldr	r0, [r7, #12]
 1651 01b6 FFF7FEFF 		bl	I2C_WaitOnFlagUntilTimeout
 1652 01ba 0346     		mov	r3, r0
 1653 01bc 002B     		cmp	r3, #0
 1654 01be 09D0     		beq	.L79
1113:Drivers/STM32F3xx_HAL_Driver/Src/stm32f3xx_hal_i2c.c ****     {
1114:Drivers/STM32F3xx_HAL_Driver/Src/stm32f3xx_hal_i2c.c ****       /* Disable Address Acknowledge */
1115:Drivers/STM32F3xx_HAL_Driver/Src/stm32f3xx_hal_i2c.c ****       hi2c->Instance->CR2 |= I2C_CR2_NACK;
 1655              		.loc 1 1115 0
 1656 01c0 FB68     		ldr	r3, [r7, #12]
 1657 01c2 1B68     		ldr	r3, [r3]
 1658 01c4 5A68     		ldr	r2, [r3, #4]
 1659 01c6 FB68     		ldr	r3, [r7, #12]
 1660 01c8 1B68     		ldr	r3, [r3]
 1661 01ca 42F40042 		orr	r2, r2, #32768
 1662 01ce 5A60     		str	r2, [r3, #4]
1116:Drivers/STM32F3xx_HAL_Driver/Src/stm32f3xx_hal_i2c.c ****       return HAL_TIMEOUT;
 1663              		.loc 1 1116 0
 1664 01d0 0323     		movs	r3, #3
 1665 01d2 16E0     		b	.L68
 1666              	.L79:
1117:Drivers/STM32F3xx_HAL_Driver/Src/stm32f3xx_hal_i2c.c ****     }
1118:Drivers/STM32F3xx_HAL_Driver/Src/stm32f3xx_hal_i2c.c **** 
1119:Drivers/STM32F3xx_HAL_Driver/Src/stm32f3xx_hal_i2c.c ****     /* Disable Address Acknowledge */
1120:Drivers/STM32F3xx_HAL_Driver/Src/stm32f3xx_hal_i2c.c ****     hi2c->Instance->CR2 |= I2C_CR2_NACK;
 1667              		.loc 1 1120 0
 1668 01d4 FB68     		ldr	r3, [r7, #12]
 1669 01d6 1B68     		ldr	r3, [r3]
 1670 01d8 5A68     		ldr	r2, [r3, #4]
 1671 01da FB68     		ldr	r3, [r7, #12]
 1672 01dc 1B68     		ldr	r3, [r3]
 1673 01de 42F40042 		orr	r2, r2, #32768
 1674 01e2 5A60     		str	r2, [r3, #4]
1121:Drivers/STM32F3xx_HAL_Driver/Src/stm32f3xx_hal_i2c.c **** 
1122:Drivers/STM32F3xx_HAL_Driver/Src/stm32f3xx_hal_i2c.c ****     hi2c->State = HAL_I2C_STATE_READY;
 1675              		.loc 1 1122 0
 1676 01e4 FB68     		ldr	r3, [r7, #12]
 1677 01e6 2022     		movs	r2, #32
 1678 01e8 83F84120 		strb	r2, [r3, #65]
1123:Drivers/STM32F3xx_HAL_Driver/Src/stm32f3xx_hal_i2c.c ****     hi2c->Mode  = HAL_I2C_MODE_NONE;
 1679              		.loc 1 1123 0
 1680 01ec FB68     		ldr	r3, [r7, #12]
 1681 01ee 0022     		movs	r2, #0
 1682 01f0 83F84220 		strb	r2, [r3, #66]
1124:Drivers/STM32F3xx_HAL_Driver/Src/stm32f3xx_hal_i2c.c **** 
ARM GAS  /tmp/ccy0jiyr.s 			page 50


1125:Drivers/STM32F3xx_HAL_Driver/Src/stm32f3xx_hal_i2c.c ****     /* Process Unlocked */
1126:Drivers/STM32F3xx_HAL_Driver/Src/stm32f3xx_hal_i2c.c ****     __HAL_UNLOCK(hi2c);
 1683              		.loc 1 1126 0
 1684 01f4 FB68     		ldr	r3, [r7, #12]
 1685 01f6 0022     		movs	r2, #0
 1686 01f8 83F84020 		strb	r2, [r3, #64]
1127:Drivers/STM32F3xx_HAL_Driver/Src/stm32f3xx_hal_i2c.c **** 
1128:Drivers/STM32F3xx_HAL_Driver/Src/stm32f3xx_hal_i2c.c ****     return HAL_OK;
 1687              		.loc 1 1128 0
 1688 01fc 0023     		movs	r3, #0
 1689 01fe 00E0     		b	.L68
 1690              	.L65:
1129:Drivers/STM32F3xx_HAL_Driver/Src/stm32f3xx_hal_i2c.c ****   }
1130:Drivers/STM32F3xx_HAL_Driver/Src/stm32f3xx_hal_i2c.c ****   else
1131:Drivers/STM32F3xx_HAL_Driver/Src/stm32f3xx_hal_i2c.c ****   {
1132:Drivers/STM32F3xx_HAL_Driver/Src/stm32f3xx_hal_i2c.c ****     return HAL_BUSY;
 1691              		.loc 1 1132 0
 1692 0200 0223     		movs	r3, #2
 1693              	.L68:
1133:Drivers/STM32F3xx_HAL_Driver/Src/stm32f3xx_hal_i2c.c ****   }
1134:Drivers/STM32F3xx_HAL_Driver/Src/stm32f3xx_hal_i2c.c **** }
 1694              		.loc 1 1134 0
 1695 0202 1846     		mov	r0, r3
 1696 0204 1837     		adds	r7, r7, #24
 1697              	.LCFI40:
 1698              		.cfi_def_cfa_offset 8
 1699 0206 BD46     		mov	sp, r7
 1700              	.LCFI41:
 1701              		.cfi_def_cfa_register 13
 1702              		@ sp needed
 1703 0208 80BD     		pop	{r7, pc}
 1704              		.cfi_endproc
 1705              	.LFE702:
 1707              		.section	.text.HAL_I2C_Master_Transmit_IT,"ax",%progbits
 1708              		.align	1
 1709              		.global	HAL_I2C_Master_Transmit_IT
 1710              		.syntax unified
 1711              		.thumb
 1712              		.thumb_func
 1713              		.fpu fpv4-sp-d16
 1715              	HAL_I2C_Master_Transmit_IT:
 1716              	.LFB703:
1135:Drivers/STM32F3xx_HAL_Driver/Src/stm32f3xx_hal_i2c.c **** 
1136:Drivers/STM32F3xx_HAL_Driver/Src/stm32f3xx_hal_i2c.c **** /**
1137:Drivers/STM32F3xx_HAL_Driver/Src/stm32f3xx_hal_i2c.c ****   * @brief  Transmit in master mode an amount of data in non-blocking mode with Interrupt
1138:Drivers/STM32F3xx_HAL_Driver/Src/stm32f3xx_hal_i2c.c ****   * @param  hi2c Pointer to a I2C_HandleTypeDef structure that contains
1139:Drivers/STM32F3xx_HAL_Driver/Src/stm32f3xx_hal_i2c.c ****   *                the configuration information for the specified I2C.
1140:Drivers/STM32F3xx_HAL_Driver/Src/stm32f3xx_hal_i2c.c ****   * @param  DevAddress Target device address: The device 7 bits address value
1141:Drivers/STM32F3xx_HAL_Driver/Src/stm32f3xx_hal_i2c.c ****   *         in datasheet must be shift at right before call interface
1142:Drivers/STM32F3xx_HAL_Driver/Src/stm32f3xx_hal_i2c.c ****   * @param  pData Pointer to data buffer
1143:Drivers/STM32F3xx_HAL_Driver/Src/stm32f3xx_hal_i2c.c ****   * @param  Size Amount of data to be sent
1144:Drivers/STM32F3xx_HAL_Driver/Src/stm32f3xx_hal_i2c.c ****   * @retval HAL status
1145:Drivers/STM32F3xx_HAL_Driver/Src/stm32f3xx_hal_i2c.c ****   */
1146:Drivers/STM32F3xx_HAL_Driver/Src/stm32f3xx_hal_i2c.c **** HAL_StatusTypeDef HAL_I2C_Master_Transmit_IT(I2C_HandleTypeDef *hi2c, uint16_t DevAddress, uint8_t 
1147:Drivers/STM32F3xx_HAL_Driver/Src/stm32f3xx_hal_i2c.c **** {
 1717              		.loc 1 1147 0
 1718              		.cfi_startproc
ARM GAS  /tmp/ccy0jiyr.s 			page 51


 1719              		@ args = 0, pretend = 0, frame = 24
 1720              		@ frame_needed = 1, uses_anonymous_args = 0
 1721 0000 80B5     		push	{r7, lr}
 1722              	.LCFI42:
 1723              		.cfi_def_cfa_offset 8
 1724              		.cfi_offset 7, -8
 1725              		.cfi_offset 14, -4
 1726 0002 88B0     		sub	sp, sp, #32
 1727              	.LCFI43:
 1728              		.cfi_def_cfa_offset 40
 1729 0004 02AF     		add	r7, sp, #8
 1730              	.LCFI44:
 1731              		.cfi_def_cfa 7, 32
 1732 0006 F860     		str	r0, [r7, #12]
 1733 0008 7A60     		str	r2, [r7, #4]
 1734 000a 1A46     		mov	r2, r3
 1735 000c 0B46     		mov	r3, r1	@ movhi
 1736 000e 7B81     		strh	r3, [r7, #10]	@ movhi
 1737 0010 1346     		mov	r3, r2	@ movhi
 1738 0012 3B81     		strh	r3, [r7, #8]	@ movhi
1148:Drivers/STM32F3xx_HAL_Driver/Src/stm32f3xx_hal_i2c.c ****   uint32_t xfermode = 0U;
 1739              		.loc 1 1148 0
 1740 0014 0023     		movs	r3, #0
 1741 0016 7B61     		str	r3, [r7, #20]
1149:Drivers/STM32F3xx_HAL_Driver/Src/stm32f3xx_hal_i2c.c **** 
1150:Drivers/STM32F3xx_HAL_Driver/Src/stm32f3xx_hal_i2c.c ****   if (hi2c->State == HAL_I2C_STATE_READY)
 1742              		.loc 1 1150 0
 1743 0018 FB68     		ldr	r3, [r7, #12]
 1744 001a 93F84130 		ldrb	r3, [r3, #65]
 1745 001e DBB2     		uxtb	r3, r3
 1746 0020 202B     		cmp	r3, #32
 1747 0022 54D1     		bne	.L81
1151:Drivers/STM32F3xx_HAL_Driver/Src/stm32f3xx_hal_i2c.c ****   {
1152:Drivers/STM32F3xx_HAL_Driver/Src/stm32f3xx_hal_i2c.c ****     if (__HAL_I2C_GET_FLAG(hi2c, I2C_FLAG_BUSY) == SET)
 1748              		.loc 1 1152 0
 1749 0024 FB68     		ldr	r3, [r7, #12]
 1750 0026 1B68     		ldr	r3, [r3]
 1751 0028 9B69     		ldr	r3, [r3, #24]
 1752 002a 03F40043 		and	r3, r3, #32768
 1753 002e B3F5004F 		cmp	r3, #32768
 1754 0032 01D1     		bne	.L82
1153:Drivers/STM32F3xx_HAL_Driver/Src/stm32f3xx_hal_i2c.c ****     {
1154:Drivers/STM32F3xx_HAL_Driver/Src/stm32f3xx_hal_i2c.c ****       return HAL_BUSY;
 1755              		.loc 1 1154 0
 1756 0034 0223     		movs	r3, #2
 1757 0036 4BE0     		b	.L83
 1758              	.L82:
1155:Drivers/STM32F3xx_HAL_Driver/Src/stm32f3xx_hal_i2c.c ****     }
1156:Drivers/STM32F3xx_HAL_Driver/Src/stm32f3xx_hal_i2c.c **** 
1157:Drivers/STM32F3xx_HAL_Driver/Src/stm32f3xx_hal_i2c.c ****     /* Process Locked */
1158:Drivers/STM32F3xx_HAL_Driver/Src/stm32f3xx_hal_i2c.c ****     __HAL_LOCK(hi2c);
 1759              		.loc 1 1158 0
 1760 0038 FB68     		ldr	r3, [r7, #12]
 1761 003a 93F84030 		ldrb	r3, [r3, #64]	@ zero_extendqisi2
 1762 003e 012B     		cmp	r3, #1
 1763 0040 01D1     		bne	.L84
 1764              		.loc 1 1158 0 is_stmt 0 discriminator 1
ARM GAS  /tmp/ccy0jiyr.s 			page 52


 1765 0042 0223     		movs	r3, #2
 1766 0044 44E0     		b	.L83
 1767              	.L84:
 1768              		.loc 1 1158 0 discriminator 2
 1769 0046 FB68     		ldr	r3, [r7, #12]
 1770 0048 0122     		movs	r2, #1
 1771 004a 83F84020 		strb	r2, [r3, #64]
1159:Drivers/STM32F3xx_HAL_Driver/Src/stm32f3xx_hal_i2c.c **** 
1160:Drivers/STM32F3xx_HAL_Driver/Src/stm32f3xx_hal_i2c.c ****     hi2c->State       = HAL_I2C_STATE_BUSY_TX;
 1772              		.loc 1 1160 0 is_stmt 1 discriminator 2
 1773 004e FB68     		ldr	r3, [r7, #12]
 1774 0050 2122     		movs	r2, #33
 1775 0052 83F84120 		strb	r2, [r3, #65]
1161:Drivers/STM32F3xx_HAL_Driver/Src/stm32f3xx_hal_i2c.c ****     hi2c->Mode        = HAL_I2C_MODE_MASTER;
 1776              		.loc 1 1161 0 discriminator 2
 1777 0056 FB68     		ldr	r3, [r7, #12]
 1778 0058 1022     		movs	r2, #16
 1779 005a 83F84220 		strb	r2, [r3, #66]
1162:Drivers/STM32F3xx_HAL_Driver/Src/stm32f3xx_hal_i2c.c ****     hi2c->ErrorCode   = HAL_I2C_ERROR_NONE;
 1780              		.loc 1 1162 0 discriminator 2
 1781 005e FB68     		ldr	r3, [r7, #12]
 1782 0060 0022     		movs	r2, #0
 1783 0062 5A64     		str	r2, [r3, #68]
1163:Drivers/STM32F3xx_HAL_Driver/Src/stm32f3xx_hal_i2c.c **** 
1164:Drivers/STM32F3xx_HAL_Driver/Src/stm32f3xx_hal_i2c.c ****     /* Prepare transfer parameters */
1165:Drivers/STM32F3xx_HAL_Driver/Src/stm32f3xx_hal_i2c.c ****     hi2c->pBuffPtr    = pData;
 1784              		.loc 1 1165 0 discriminator 2
 1785 0064 FB68     		ldr	r3, [r7, #12]
 1786 0066 7A68     		ldr	r2, [r7, #4]
 1787 0068 5A62     		str	r2, [r3, #36]
1166:Drivers/STM32F3xx_HAL_Driver/Src/stm32f3xx_hal_i2c.c ****     hi2c->XferCount   = Size;
 1788              		.loc 1 1166 0 discriminator 2
 1789 006a FB68     		ldr	r3, [r7, #12]
 1790 006c 3A89     		ldrh	r2, [r7, #8]	@ movhi
 1791 006e 5A85     		strh	r2, [r3, #42]	@ movhi
1167:Drivers/STM32F3xx_HAL_Driver/Src/stm32f3xx_hal_i2c.c ****     hi2c->XferOptions = I2C_NO_OPTION_FRAME;
 1792              		.loc 1 1167 0 discriminator 2
 1793 0070 FB68     		ldr	r3, [r7, #12]
 1794 0072 194A     		ldr	r2, .L87
 1795 0074 DA62     		str	r2, [r3, #44]
1168:Drivers/STM32F3xx_HAL_Driver/Src/stm32f3xx_hal_i2c.c ****     hi2c->XferISR     = I2C_Master_ISR_IT;
 1796              		.loc 1 1168 0 discriminator 2
 1797 0076 FB68     		ldr	r3, [r7, #12]
 1798 0078 184A     		ldr	r2, .L87+4
 1799 007a 5A63     		str	r2, [r3, #52]
1169:Drivers/STM32F3xx_HAL_Driver/Src/stm32f3xx_hal_i2c.c **** 
1170:Drivers/STM32F3xx_HAL_Driver/Src/stm32f3xx_hal_i2c.c ****     if (hi2c->XferCount > MAX_NBYTE_SIZE)
 1800              		.loc 1 1170 0 discriminator 2
 1801 007c FB68     		ldr	r3, [r7, #12]
 1802 007e 5B8D     		ldrh	r3, [r3, #42]	@ movhi
 1803 0080 9BB2     		uxth	r3, r3
 1804 0082 FF2B     		cmp	r3, #255
 1805 0084 06D9     		bls	.L85
1171:Drivers/STM32F3xx_HAL_Driver/Src/stm32f3xx_hal_i2c.c ****     {
1172:Drivers/STM32F3xx_HAL_Driver/Src/stm32f3xx_hal_i2c.c ****       hi2c->XferSize = MAX_NBYTE_SIZE;
 1806              		.loc 1 1172 0
 1807 0086 FB68     		ldr	r3, [r7, #12]
ARM GAS  /tmp/ccy0jiyr.s 			page 53


 1808 0088 FF22     		movs	r2, #255
 1809 008a 1A85     		strh	r2, [r3, #40]	@ movhi
1173:Drivers/STM32F3xx_HAL_Driver/Src/stm32f3xx_hal_i2c.c ****       xfermode = I2C_RELOAD_MODE;
 1810              		.loc 1 1173 0
 1811 008c 4FF08073 		mov	r3, #16777216
 1812 0090 7B61     		str	r3, [r7, #20]
 1813 0092 07E0     		b	.L86
 1814              	.L85:
1174:Drivers/STM32F3xx_HAL_Driver/Src/stm32f3xx_hal_i2c.c ****     }
1175:Drivers/STM32F3xx_HAL_Driver/Src/stm32f3xx_hal_i2c.c ****     else
1176:Drivers/STM32F3xx_HAL_Driver/Src/stm32f3xx_hal_i2c.c ****     {
1177:Drivers/STM32F3xx_HAL_Driver/Src/stm32f3xx_hal_i2c.c ****       hi2c->XferSize = hi2c->XferCount;
 1815              		.loc 1 1177 0
 1816 0094 FB68     		ldr	r3, [r7, #12]
 1817 0096 5B8D     		ldrh	r3, [r3, #42]	@ movhi
 1818 0098 9AB2     		uxth	r2, r3
 1819 009a FB68     		ldr	r3, [r7, #12]
 1820 009c 1A85     		strh	r2, [r3, #40]	@ movhi
1178:Drivers/STM32F3xx_HAL_Driver/Src/stm32f3xx_hal_i2c.c ****       xfermode = I2C_AUTOEND_MODE;
 1821              		.loc 1 1178 0
 1822 009e 4FF00073 		mov	r3, #33554432
 1823 00a2 7B61     		str	r3, [r7, #20]
 1824              	.L86:
1179:Drivers/STM32F3xx_HAL_Driver/Src/stm32f3xx_hal_i2c.c ****     }
1180:Drivers/STM32F3xx_HAL_Driver/Src/stm32f3xx_hal_i2c.c **** 
1181:Drivers/STM32F3xx_HAL_Driver/Src/stm32f3xx_hal_i2c.c ****     /* Send Slave Address */
1182:Drivers/STM32F3xx_HAL_Driver/Src/stm32f3xx_hal_i2c.c ****     /* Set NBYTES to write and reload if hi2c->XferCount > MAX_NBYTE_SIZE */
1183:Drivers/STM32F3xx_HAL_Driver/Src/stm32f3xx_hal_i2c.c ****     I2C_TransferConfig(hi2c, DevAddress, hi2c->XferSize, xfermode, I2C_GENERATE_START_WRITE);
 1825              		.loc 1 1183 0
 1826 00a4 FB68     		ldr	r3, [r7, #12]
 1827 00a6 1B8D     		ldrh	r3, [r3, #40]
 1828 00a8 DAB2     		uxtb	r2, r3
 1829 00aa 7989     		ldrh	r1, [r7, #10]
 1830 00ac 4FF40053 		mov	r3, #8192
 1831 00b0 0093     		str	r3, [sp]
 1832 00b2 7B69     		ldr	r3, [r7, #20]
 1833 00b4 F868     		ldr	r0, [r7, #12]
 1834 00b6 FFF7FEFF 		bl	I2C_TransferConfig
1184:Drivers/STM32F3xx_HAL_Driver/Src/stm32f3xx_hal_i2c.c **** 
1185:Drivers/STM32F3xx_HAL_Driver/Src/stm32f3xx_hal_i2c.c ****     /* Process Unlocked */
1186:Drivers/STM32F3xx_HAL_Driver/Src/stm32f3xx_hal_i2c.c ****     __HAL_UNLOCK(hi2c);
 1835              		.loc 1 1186 0
 1836 00ba FB68     		ldr	r3, [r7, #12]
 1837 00bc 0022     		movs	r2, #0
 1838 00be 83F84020 		strb	r2, [r3, #64]
1187:Drivers/STM32F3xx_HAL_Driver/Src/stm32f3xx_hal_i2c.c **** 
1188:Drivers/STM32F3xx_HAL_Driver/Src/stm32f3xx_hal_i2c.c ****     /* Note : The I2C interrupts must be enabled after unlocking current process
1189:Drivers/STM32F3xx_HAL_Driver/Src/stm32f3xx_hal_i2c.c ****               to avoid the risk of I2C interrupt handle execution before current
1190:Drivers/STM32F3xx_HAL_Driver/Src/stm32f3xx_hal_i2c.c ****               process unlock */
1191:Drivers/STM32F3xx_HAL_Driver/Src/stm32f3xx_hal_i2c.c **** 
1192:Drivers/STM32F3xx_HAL_Driver/Src/stm32f3xx_hal_i2c.c ****     /* Enable ERR, TC, STOP, NACK, TXI interrupt */
1193:Drivers/STM32F3xx_HAL_Driver/Src/stm32f3xx_hal_i2c.c ****     /* possible to enable all of these */
1194:Drivers/STM32F3xx_HAL_Driver/Src/stm32f3xx_hal_i2c.c ****     /* I2C_IT_ERRI | I2C_IT_TCI| I2C_IT_STOPI| I2C_IT_NACKI | I2C_IT_ADDRI | I2C_IT_RXI | I2C_IT_TX
1195:Drivers/STM32F3xx_HAL_Driver/Src/stm32f3xx_hal_i2c.c ****     I2C_Enable_IRQ(hi2c, I2C_XFER_TX_IT);
 1839              		.loc 1 1195 0
 1840 00c2 0121     		movs	r1, #1
 1841 00c4 F868     		ldr	r0, [r7, #12]
ARM GAS  /tmp/ccy0jiyr.s 			page 54


 1842 00c6 FFF7FEFF 		bl	I2C_Enable_IRQ
1196:Drivers/STM32F3xx_HAL_Driver/Src/stm32f3xx_hal_i2c.c **** 
1197:Drivers/STM32F3xx_HAL_Driver/Src/stm32f3xx_hal_i2c.c ****     return HAL_OK;
 1843              		.loc 1 1197 0
 1844 00ca 0023     		movs	r3, #0
 1845 00cc 00E0     		b	.L83
 1846              	.L81:
1198:Drivers/STM32F3xx_HAL_Driver/Src/stm32f3xx_hal_i2c.c ****   }
1199:Drivers/STM32F3xx_HAL_Driver/Src/stm32f3xx_hal_i2c.c ****   else
1200:Drivers/STM32F3xx_HAL_Driver/Src/stm32f3xx_hal_i2c.c ****   {
1201:Drivers/STM32F3xx_HAL_Driver/Src/stm32f3xx_hal_i2c.c ****     return HAL_BUSY;
 1847              		.loc 1 1201 0
 1848 00ce 0223     		movs	r3, #2
 1849              	.L83:
1202:Drivers/STM32F3xx_HAL_Driver/Src/stm32f3xx_hal_i2c.c ****   }
1203:Drivers/STM32F3xx_HAL_Driver/Src/stm32f3xx_hal_i2c.c **** }
 1850              		.loc 1 1203 0
 1851 00d0 1846     		mov	r0, r3
 1852 00d2 1837     		adds	r7, r7, #24
 1853              	.LCFI45:
 1854              		.cfi_def_cfa_offset 8
 1855 00d4 BD46     		mov	sp, r7
 1856              	.LCFI46:
 1857              		.cfi_def_cfa_register 13
 1858              		@ sp needed
 1859 00d6 80BD     		pop	{r7, pc}
 1860              	.L88:
 1861              		.align	2
 1862              	.L87:
 1863 00d8 0000FFFF 		.word	-65536
 1864 00dc 00000000 		.word	I2C_Master_ISR_IT
 1865              		.cfi_endproc
 1866              	.LFE703:
 1868              		.section	.text.HAL_I2C_Master_Receive_IT,"ax",%progbits
 1869              		.align	1
 1870              		.global	HAL_I2C_Master_Receive_IT
 1871              		.syntax unified
 1872              		.thumb
 1873              		.thumb_func
 1874              		.fpu fpv4-sp-d16
 1876              	HAL_I2C_Master_Receive_IT:
 1877              	.LFB704:
1204:Drivers/STM32F3xx_HAL_Driver/Src/stm32f3xx_hal_i2c.c **** 
1205:Drivers/STM32F3xx_HAL_Driver/Src/stm32f3xx_hal_i2c.c **** /**
1206:Drivers/STM32F3xx_HAL_Driver/Src/stm32f3xx_hal_i2c.c ****   * @brief  Receive in master mode an amount of data in non-blocking mode with Interrupt
1207:Drivers/STM32F3xx_HAL_Driver/Src/stm32f3xx_hal_i2c.c ****   * @param  hi2c Pointer to a I2C_HandleTypeDef structure that contains
1208:Drivers/STM32F3xx_HAL_Driver/Src/stm32f3xx_hal_i2c.c ****   *                the configuration information for the specified I2C.
1209:Drivers/STM32F3xx_HAL_Driver/Src/stm32f3xx_hal_i2c.c ****   * @param  DevAddress Target device address: The device 7 bits address value
1210:Drivers/STM32F3xx_HAL_Driver/Src/stm32f3xx_hal_i2c.c ****   *         in datasheet must be shift at right before call interface
1211:Drivers/STM32F3xx_HAL_Driver/Src/stm32f3xx_hal_i2c.c ****   * @param  pData Pointer to data buffer
1212:Drivers/STM32F3xx_HAL_Driver/Src/stm32f3xx_hal_i2c.c ****   * @param  Size Amount of data to be sent
1213:Drivers/STM32F3xx_HAL_Driver/Src/stm32f3xx_hal_i2c.c ****   * @retval HAL status
1214:Drivers/STM32F3xx_HAL_Driver/Src/stm32f3xx_hal_i2c.c ****   */
1215:Drivers/STM32F3xx_HAL_Driver/Src/stm32f3xx_hal_i2c.c **** HAL_StatusTypeDef HAL_I2C_Master_Receive_IT(I2C_HandleTypeDef *hi2c, uint16_t DevAddress, uint8_t *
1216:Drivers/STM32F3xx_HAL_Driver/Src/stm32f3xx_hal_i2c.c **** {
 1878              		.loc 1 1216 0
 1879              		.cfi_startproc
ARM GAS  /tmp/ccy0jiyr.s 			page 55


 1880              		@ args = 0, pretend = 0, frame = 24
 1881              		@ frame_needed = 1, uses_anonymous_args = 0
 1882 0000 80B5     		push	{r7, lr}
 1883              	.LCFI47:
 1884              		.cfi_def_cfa_offset 8
 1885              		.cfi_offset 7, -8
 1886              		.cfi_offset 14, -4
 1887 0002 88B0     		sub	sp, sp, #32
 1888              	.LCFI48:
 1889              		.cfi_def_cfa_offset 40
 1890 0004 02AF     		add	r7, sp, #8
 1891              	.LCFI49:
 1892              		.cfi_def_cfa 7, 32
 1893 0006 F860     		str	r0, [r7, #12]
 1894 0008 7A60     		str	r2, [r7, #4]
 1895 000a 1A46     		mov	r2, r3
 1896 000c 0B46     		mov	r3, r1	@ movhi
 1897 000e 7B81     		strh	r3, [r7, #10]	@ movhi
 1898 0010 1346     		mov	r3, r2	@ movhi
 1899 0012 3B81     		strh	r3, [r7, #8]	@ movhi
1217:Drivers/STM32F3xx_HAL_Driver/Src/stm32f3xx_hal_i2c.c ****   uint32_t xfermode = 0U;
 1900              		.loc 1 1217 0
 1901 0014 0023     		movs	r3, #0
 1902 0016 7B61     		str	r3, [r7, #20]
1218:Drivers/STM32F3xx_HAL_Driver/Src/stm32f3xx_hal_i2c.c **** 
1219:Drivers/STM32F3xx_HAL_Driver/Src/stm32f3xx_hal_i2c.c ****   if (hi2c->State == HAL_I2C_STATE_READY)
 1903              		.loc 1 1219 0
 1904 0018 FB68     		ldr	r3, [r7, #12]
 1905 001a 93F84130 		ldrb	r3, [r3, #65]
 1906 001e DBB2     		uxtb	r3, r3
 1907 0020 202B     		cmp	r3, #32
 1908 0022 54D1     		bne	.L90
1220:Drivers/STM32F3xx_HAL_Driver/Src/stm32f3xx_hal_i2c.c ****   {
1221:Drivers/STM32F3xx_HAL_Driver/Src/stm32f3xx_hal_i2c.c ****     if (__HAL_I2C_GET_FLAG(hi2c, I2C_FLAG_BUSY) == SET)
 1909              		.loc 1 1221 0
 1910 0024 FB68     		ldr	r3, [r7, #12]
 1911 0026 1B68     		ldr	r3, [r3]
 1912 0028 9B69     		ldr	r3, [r3, #24]
 1913 002a 03F40043 		and	r3, r3, #32768
 1914 002e B3F5004F 		cmp	r3, #32768
 1915 0032 01D1     		bne	.L91
1222:Drivers/STM32F3xx_HAL_Driver/Src/stm32f3xx_hal_i2c.c ****     {
1223:Drivers/STM32F3xx_HAL_Driver/Src/stm32f3xx_hal_i2c.c ****       return HAL_BUSY;
 1916              		.loc 1 1223 0
 1917 0034 0223     		movs	r3, #2
 1918 0036 4BE0     		b	.L92
 1919              	.L91:
1224:Drivers/STM32F3xx_HAL_Driver/Src/stm32f3xx_hal_i2c.c ****     }
1225:Drivers/STM32F3xx_HAL_Driver/Src/stm32f3xx_hal_i2c.c **** 
1226:Drivers/STM32F3xx_HAL_Driver/Src/stm32f3xx_hal_i2c.c ****     /* Process Locked */
1227:Drivers/STM32F3xx_HAL_Driver/Src/stm32f3xx_hal_i2c.c ****     __HAL_LOCK(hi2c);
 1920              		.loc 1 1227 0
 1921 0038 FB68     		ldr	r3, [r7, #12]
 1922 003a 93F84030 		ldrb	r3, [r3, #64]	@ zero_extendqisi2
 1923 003e 012B     		cmp	r3, #1
 1924 0040 01D1     		bne	.L93
 1925              		.loc 1 1227 0 is_stmt 0 discriminator 1
ARM GAS  /tmp/ccy0jiyr.s 			page 56


 1926 0042 0223     		movs	r3, #2
 1927 0044 44E0     		b	.L92
 1928              	.L93:
 1929              		.loc 1 1227 0 discriminator 2
 1930 0046 FB68     		ldr	r3, [r7, #12]
 1931 0048 0122     		movs	r2, #1
 1932 004a 83F84020 		strb	r2, [r3, #64]
1228:Drivers/STM32F3xx_HAL_Driver/Src/stm32f3xx_hal_i2c.c **** 
1229:Drivers/STM32F3xx_HAL_Driver/Src/stm32f3xx_hal_i2c.c ****     hi2c->State       = HAL_I2C_STATE_BUSY_RX;
 1933              		.loc 1 1229 0 is_stmt 1 discriminator 2
 1934 004e FB68     		ldr	r3, [r7, #12]
 1935 0050 2222     		movs	r2, #34
 1936 0052 83F84120 		strb	r2, [r3, #65]
1230:Drivers/STM32F3xx_HAL_Driver/Src/stm32f3xx_hal_i2c.c ****     hi2c->Mode        = HAL_I2C_MODE_MASTER;
 1937              		.loc 1 1230 0 discriminator 2
 1938 0056 FB68     		ldr	r3, [r7, #12]
 1939 0058 1022     		movs	r2, #16
 1940 005a 83F84220 		strb	r2, [r3, #66]
1231:Drivers/STM32F3xx_HAL_Driver/Src/stm32f3xx_hal_i2c.c ****     hi2c->ErrorCode   = HAL_I2C_ERROR_NONE;
 1941              		.loc 1 1231 0 discriminator 2
 1942 005e FB68     		ldr	r3, [r7, #12]
 1943 0060 0022     		movs	r2, #0
 1944 0062 5A64     		str	r2, [r3, #68]
1232:Drivers/STM32F3xx_HAL_Driver/Src/stm32f3xx_hal_i2c.c **** 
1233:Drivers/STM32F3xx_HAL_Driver/Src/stm32f3xx_hal_i2c.c ****     /* Prepare transfer parameters */
1234:Drivers/STM32F3xx_HAL_Driver/Src/stm32f3xx_hal_i2c.c ****     hi2c->pBuffPtr    = pData;
 1945              		.loc 1 1234 0 discriminator 2
 1946 0064 FB68     		ldr	r3, [r7, #12]
 1947 0066 7A68     		ldr	r2, [r7, #4]
 1948 0068 5A62     		str	r2, [r3, #36]
1235:Drivers/STM32F3xx_HAL_Driver/Src/stm32f3xx_hal_i2c.c ****     hi2c->XferCount   = Size;
 1949              		.loc 1 1235 0 discriminator 2
 1950 006a FB68     		ldr	r3, [r7, #12]
 1951 006c 3A89     		ldrh	r2, [r7, #8]	@ movhi
 1952 006e 5A85     		strh	r2, [r3, #42]	@ movhi
1236:Drivers/STM32F3xx_HAL_Driver/Src/stm32f3xx_hal_i2c.c ****     hi2c->XferOptions = I2C_NO_OPTION_FRAME;
 1953              		.loc 1 1236 0 discriminator 2
 1954 0070 FB68     		ldr	r3, [r7, #12]
 1955 0072 194A     		ldr	r2, .L96
 1956 0074 DA62     		str	r2, [r3, #44]
1237:Drivers/STM32F3xx_HAL_Driver/Src/stm32f3xx_hal_i2c.c ****     hi2c->XferISR     = I2C_Master_ISR_IT;
 1957              		.loc 1 1237 0 discriminator 2
 1958 0076 FB68     		ldr	r3, [r7, #12]
 1959 0078 184A     		ldr	r2, .L96+4
 1960 007a 5A63     		str	r2, [r3, #52]
1238:Drivers/STM32F3xx_HAL_Driver/Src/stm32f3xx_hal_i2c.c **** 
1239:Drivers/STM32F3xx_HAL_Driver/Src/stm32f3xx_hal_i2c.c ****     if (hi2c->XferCount > MAX_NBYTE_SIZE)
 1961              		.loc 1 1239 0 discriminator 2
 1962 007c FB68     		ldr	r3, [r7, #12]
 1963 007e 5B8D     		ldrh	r3, [r3, #42]	@ movhi
 1964 0080 9BB2     		uxth	r3, r3
 1965 0082 FF2B     		cmp	r3, #255
 1966 0084 06D9     		bls	.L94
1240:Drivers/STM32F3xx_HAL_Driver/Src/stm32f3xx_hal_i2c.c ****     {
1241:Drivers/STM32F3xx_HAL_Driver/Src/stm32f3xx_hal_i2c.c ****       hi2c->XferSize = MAX_NBYTE_SIZE;
 1967              		.loc 1 1241 0
 1968 0086 FB68     		ldr	r3, [r7, #12]
ARM GAS  /tmp/ccy0jiyr.s 			page 57


 1969 0088 FF22     		movs	r2, #255
 1970 008a 1A85     		strh	r2, [r3, #40]	@ movhi
1242:Drivers/STM32F3xx_HAL_Driver/Src/stm32f3xx_hal_i2c.c ****       xfermode = I2C_RELOAD_MODE;
 1971              		.loc 1 1242 0
 1972 008c 4FF08073 		mov	r3, #16777216
 1973 0090 7B61     		str	r3, [r7, #20]
 1974 0092 07E0     		b	.L95
 1975              	.L94:
1243:Drivers/STM32F3xx_HAL_Driver/Src/stm32f3xx_hal_i2c.c ****     }
1244:Drivers/STM32F3xx_HAL_Driver/Src/stm32f3xx_hal_i2c.c ****     else
1245:Drivers/STM32F3xx_HAL_Driver/Src/stm32f3xx_hal_i2c.c ****     {
1246:Drivers/STM32F3xx_HAL_Driver/Src/stm32f3xx_hal_i2c.c ****       hi2c->XferSize = hi2c->XferCount;
 1976              		.loc 1 1246 0
 1977 0094 FB68     		ldr	r3, [r7, #12]
 1978 0096 5B8D     		ldrh	r3, [r3, #42]	@ movhi
 1979 0098 9AB2     		uxth	r2, r3
 1980 009a FB68     		ldr	r3, [r7, #12]
 1981 009c 1A85     		strh	r2, [r3, #40]	@ movhi
1247:Drivers/STM32F3xx_HAL_Driver/Src/stm32f3xx_hal_i2c.c ****       xfermode = I2C_AUTOEND_MODE;
 1982              		.loc 1 1247 0
 1983 009e 4FF00073 		mov	r3, #33554432
 1984 00a2 7B61     		str	r3, [r7, #20]
 1985              	.L95:
1248:Drivers/STM32F3xx_HAL_Driver/Src/stm32f3xx_hal_i2c.c ****     }
1249:Drivers/STM32F3xx_HAL_Driver/Src/stm32f3xx_hal_i2c.c **** 
1250:Drivers/STM32F3xx_HAL_Driver/Src/stm32f3xx_hal_i2c.c ****     /* Send Slave Address */
1251:Drivers/STM32F3xx_HAL_Driver/Src/stm32f3xx_hal_i2c.c ****     /* Set NBYTES to write and reload if hi2c->XferCount > MAX_NBYTE_SIZE */
1252:Drivers/STM32F3xx_HAL_Driver/Src/stm32f3xx_hal_i2c.c ****     I2C_TransferConfig(hi2c, DevAddress, hi2c->XferSize, xfermode, I2C_GENERATE_START_READ);
 1986              		.loc 1 1252 0
 1987 00a4 FB68     		ldr	r3, [r7, #12]
 1988 00a6 1B8D     		ldrh	r3, [r3, #40]
 1989 00a8 DAB2     		uxtb	r2, r3
 1990 00aa 7989     		ldrh	r1, [r7, #10]
 1991 00ac 4FF41053 		mov	r3, #9216
 1992 00b0 0093     		str	r3, [sp]
 1993 00b2 7B69     		ldr	r3, [r7, #20]
 1994 00b4 F868     		ldr	r0, [r7, #12]
 1995 00b6 FFF7FEFF 		bl	I2C_TransferConfig
1253:Drivers/STM32F3xx_HAL_Driver/Src/stm32f3xx_hal_i2c.c **** 
1254:Drivers/STM32F3xx_HAL_Driver/Src/stm32f3xx_hal_i2c.c ****     /* Process Unlocked */
1255:Drivers/STM32F3xx_HAL_Driver/Src/stm32f3xx_hal_i2c.c ****     __HAL_UNLOCK(hi2c);
 1996              		.loc 1 1255 0
 1997 00ba FB68     		ldr	r3, [r7, #12]
 1998 00bc 0022     		movs	r2, #0
 1999 00be 83F84020 		strb	r2, [r3, #64]
1256:Drivers/STM32F3xx_HAL_Driver/Src/stm32f3xx_hal_i2c.c **** 
1257:Drivers/STM32F3xx_HAL_Driver/Src/stm32f3xx_hal_i2c.c ****     /* Note : The I2C interrupts must be enabled after unlocking current process
1258:Drivers/STM32F3xx_HAL_Driver/Src/stm32f3xx_hal_i2c.c ****               to avoid the risk of I2C interrupt handle execution before current
1259:Drivers/STM32F3xx_HAL_Driver/Src/stm32f3xx_hal_i2c.c ****               process unlock */
1260:Drivers/STM32F3xx_HAL_Driver/Src/stm32f3xx_hal_i2c.c **** 
1261:Drivers/STM32F3xx_HAL_Driver/Src/stm32f3xx_hal_i2c.c ****     /* Enable ERR, TC, STOP, NACK, RXI interrupt */
1262:Drivers/STM32F3xx_HAL_Driver/Src/stm32f3xx_hal_i2c.c ****     /* possible to enable all of these */
1263:Drivers/STM32F3xx_HAL_Driver/Src/stm32f3xx_hal_i2c.c ****     /* I2C_IT_ERRI | I2C_IT_TCI| I2C_IT_STOPI| I2C_IT_NACKI | I2C_IT_ADDRI | I2C_IT_RXI | I2C_IT_TX
1264:Drivers/STM32F3xx_HAL_Driver/Src/stm32f3xx_hal_i2c.c ****     I2C_Enable_IRQ(hi2c, I2C_XFER_RX_IT);
 2000              		.loc 1 1264 0
 2001 00c2 0221     		movs	r1, #2
 2002 00c4 F868     		ldr	r0, [r7, #12]
ARM GAS  /tmp/ccy0jiyr.s 			page 58


 2003 00c6 FFF7FEFF 		bl	I2C_Enable_IRQ
1265:Drivers/STM32F3xx_HAL_Driver/Src/stm32f3xx_hal_i2c.c **** 
1266:Drivers/STM32F3xx_HAL_Driver/Src/stm32f3xx_hal_i2c.c ****     return HAL_OK;
 2004              		.loc 1 1266 0
 2005 00ca 0023     		movs	r3, #0
 2006 00cc 00E0     		b	.L92
 2007              	.L90:
1267:Drivers/STM32F3xx_HAL_Driver/Src/stm32f3xx_hal_i2c.c ****   }
1268:Drivers/STM32F3xx_HAL_Driver/Src/stm32f3xx_hal_i2c.c ****   else
1269:Drivers/STM32F3xx_HAL_Driver/Src/stm32f3xx_hal_i2c.c ****   {
1270:Drivers/STM32F3xx_HAL_Driver/Src/stm32f3xx_hal_i2c.c ****     return HAL_BUSY;
 2008              		.loc 1 1270 0
 2009 00ce 0223     		movs	r3, #2
 2010              	.L92:
1271:Drivers/STM32F3xx_HAL_Driver/Src/stm32f3xx_hal_i2c.c ****   }
1272:Drivers/STM32F3xx_HAL_Driver/Src/stm32f3xx_hal_i2c.c **** }
 2011              		.loc 1 1272 0
 2012 00d0 1846     		mov	r0, r3
 2013 00d2 1837     		adds	r7, r7, #24
 2014              	.LCFI50:
 2015              		.cfi_def_cfa_offset 8
 2016 00d4 BD46     		mov	sp, r7
 2017              	.LCFI51:
 2018              		.cfi_def_cfa_register 13
 2019              		@ sp needed
 2020 00d6 80BD     		pop	{r7, pc}
 2021              	.L97:
 2022              		.align	2
 2023              	.L96:
 2024 00d8 0000FFFF 		.word	-65536
 2025 00dc 00000000 		.word	I2C_Master_ISR_IT
 2026              		.cfi_endproc
 2027              	.LFE704:
 2029              		.section	.text.HAL_I2C_Slave_Transmit_IT,"ax",%progbits
 2030              		.align	1
 2031              		.global	HAL_I2C_Slave_Transmit_IT
 2032              		.syntax unified
 2033              		.thumb
 2034              		.thumb_func
 2035              		.fpu fpv4-sp-d16
 2037              	HAL_I2C_Slave_Transmit_IT:
 2038              	.LFB705:
1273:Drivers/STM32F3xx_HAL_Driver/Src/stm32f3xx_hal_i2c.c **** 
1274:Drivers/STM32F3xx_HAL_Driver/Src/stm32f3xx_hal_i2c.c **** /**
1275:Drivers/STM32F3xx_HAL_Driver/Src/stm32f3xx_hal_i2c.c ****   * @brief  Transmit in slave mode an amount of data in non-blocking mode with Interrupt
1276:Drivers/STM32F3xx_HAL_Driver/Src/stm32f3xx_hal_i2c.c ****   * @param  hi2c Pointer to a I2C_HandleTypeDef structure that contains
1277:Drivers/STM32F3xx_HAL_Driver/Src/stm32f3xx_hal_i2c.c ****   *                the configuration information for the specified I2C.
1278:Drivers/STM32F3xx_HAL_Driver/Src/stm32f3xx_hal_i2c.c ****   * @param  pData Pointer to data buffer
1279:Drivers/STM32F3xx_HAL_Driver/Src/stm32f3xx_hal_i2c.c ****   * @param  Size Amount of data to be sent
1280:Drivers/STM32F3xx_HAL_Driver/Src/stm32f3xx_hal_i2c.c ****   * @retval HAL status
1281:Drivers/STM32F3xx_HAL_Driver/Src/stm32f3xx_hal_i2c.c ****   */
1282:Drivers/STM32F3xx_HAL_Driver/Src/stm32f3xx_hal_i2c.c **** HAL_StatusTypeDef HAL_I2C_Slave_Transmit_IT(I2C_HandleTypeDef *hi2c, uint8_t *pData, uint16_t Size)
1283:Drivers/STM32F3xx_HAL_Driver/Src/stm32f3xx_hal_i2c.c **** {
 2039              		.loc 1 1283 0
 2040              		.cfi_startproc
 2041              		@ args = 0, pretend = 0, frame = 16
 2042              		@ frame_needed = 1, uses_anonymous_args = 0
ARM GAS  /tmp/ccy0jiyr.s 			page 59


 2043 0000 80B5     		push	{r7, lr}
 2044              	.LCFI52:
 2045              		.cfi_def_cfa_offset 8
 2046              		.cfi_offset 7, -8
 2047              		.cfi_offset 14, -4
 2048 0002 84B0     		sub	sp, sp, #16
 2049              	.LCFI53:
 2050              		.cfi_def_cfa_offset 24
 2051 0004 00AF     		add	r7, sp, #0
 2052              	.LCFI54:
 2053              		.cfi_def_cfa_register 7
 2054 0006 F860     		str	r0, [r7, #12]
 2055 0008 B960     		str	r1, [r7, #8]
 2056 000a 1346     		mov	r3, r2
 2057 000c FB80     		strh	r3, [r7, #6]	@ movhi
1284:Drivers/STM32F3xx_HAL_Driver/Src/stm32f3xx_hal_i2c.c ****   if (hi2c->State == HAL_I2C_STATE_READY)
 2058              		.loc 1 1284 0
 2059 000e FB68     		ldr	r3, [r7, #12]
 2060 0010 93F84130 		ldrb	r3, [r3, #65]
 2061 0014 DBB2     		uxtb	r3, r3
 2062 0016 202B     		cmp	r3, #32
 2063 0018 38D1     		bne	.L99
1285:Drivers/STM32F3xx_HAL_Driver/Src/stm32f3xx_hal_i2c.c ****   {
1286:Drivers/STM32F3xx_HAL_Driver/Src/stm32f3xx_hal_i2c.c ****     /* Process Locked */
1287:Drivers/STM32F3xx_HAL_Driver/Src/stm32f3xx_hal_i2c.c ****     __HAL_LOCK(hi2c);
 2064              		.loc 1 1287 0
 2065 001a FB68     		ldr	r3, [r7, #12]
 2066 001c 93F84030 		ldrb	r3, [r3, #64]	@ zero_extendqisi2
 2067 0020 012B     		cmp	r3, #1
 2068 0022 01D1     		bne	.L100
 2069              		.loc 1 1287 0 is_stmt 0 discriminator 1
 2070 0024 0223     		movs	r3, #2
 2071 0026 32E0     		b	.L101
 2072              	.L100:
 2073              		.loc 1 1287 0 discriminator 2
 2074 0028 FB68     		ldr	r3, [r7, #12]
 2075 002a 0122     		movs	r2, #1
 2076 002c 83F84020 		strb	r2, [r3, #64]
1288:Drivers/STM32F3xx_HAL_Driver/Src/stm32f3xx_hal_i2c.c **** 
1289:Drivers/STM32F3xx_HAL_Driver/Src/stm32f3xx_hal_i2c.c ****     hi2c->State       = HAL_I2C_STATE_BUSY_TX;
 2077              		.loc 1 1289 0 is_stmt 1 discriminator 2
 2078 0030 FB68     		ldr	r3, [r7, #12]
 2079 0032 2122     		movs	r2, #33
 2080 0034 83F84120 		strb	r2, [r3, #65]
1290:Drivers/STM32F3xx_HAL_Driver/Src/stm32f3xx_hal_i2c.c ****     hi2c->Mode        = HAL_I2C_MODE_SLAVE;
 2081              		.loc 1 1290 0 discriminator 2
 2082 0038 FB68     		ldr	r3, [r7, #12]
 2083 003a 2022     		movs	r2, #32
 2084 003c 83F84220 		strb	r2, [r3, #66]
1291:Drivers/STM32F3xx_HAL_Driver/Src/stm32f3xx_hal_i2c.c ****     hi2c->ErrorCode   = HAL_I2C_ERROR_NONE;
 2085              		.loc 1 1291 0 discriminator 2
 2086 0040 FB68     		ldr	r3, [r7, #12]
 2087 0042 0022     		movs	r2, #0
 2088 0044 5A64     		str	r2, [r3, #68]
1292:Drivers/STM32F3xx_HAL_Driver/Src/stm32f3xx_hal_i2c.c **** 
1293:Drivers/STM32F3xx_HAL_Driver/Src/stm32f3xx_hal_i2c.c ****     /* Enable Address Acknowledge */
1294:Drivers/STM32F3xx_HAL_Driver/Src/stm32f3xx_hal_i2c.c ****     hi2c->Instance->CR2 &= ~I2C_CR2_NACK;
ARM GAS  /tmp/ccy0jiyr.s 			page 60


 2089              		.loc 1 1294 0 discriminator 2
 2090 0046 FB68     		ldr	r3, [r7, #12]
 2091 0048 1B68     		ldr	r3, [r3]
 2092 004a 5A68     		ldr	r2, [r3, #4]
 2093 004c FB68     		ldr	r3, [r7, #12]
 2094 004e 1B68     		ldr	r3, [r3]
 2095 0050 22F40042 		bic	r2, r2, #32768
 2096 0054 5A60     		str	r2, [r3, #4]
1295:Drivers/STM32F3xx_HAL_Driver/Src/stm32f3xx_hal_i2c.c **** 
1296:Drivers/STM32F3xx_HAL_Driver/Src/stm32f3xx_hal_i2c.c ****     /* Prepare transfer parameters */
1297:Drivers/STM32F3xx_HAL_Driver/Src/stm32f3xx_hal_i2c.c ****     hi2c->pBuffPtr    = pData;
 2097              		.loc 1 1297 0 discriminator 2
 2098 0056 FB68     		ldr	r3, [r7, #12]
 2099 0058 BA68     		ldr	r2, [r7, #8]
 2100 005a 5A62     		str	r2, [r3, #36]
1298:Drivers/STM32F3xx_HAL_Driver/Src/stm32f3xx_hal_i2c.c ****     hi2c->XferCount   = Size;
 2101              		.loc 1 1298 0 discriminator 2
 2102 005c FB68     		ldr	r3, [r7, #12]
 2103 005e FA88     		ldrh	r2, [r7, #6]	@ movhi
 2104 0060 5A85     		strh	r2, [r3, #42]	@ movhi
1299:Drivers/STM32F3xx_HAL_Driver/Src/stm32f3xx_hal_i2c.c ****     hi2c->XferSize    = hi2c->XferCount;
 2105              		.loc 1 1299 0 discriminator 2
 2106 0062 FB68     		ldr	r3, [r7, #12]
 2107 0064 5B8D     		ldrh	r3, [r3, #42]	@ movhi
 2108 0066 9AB2     		uxth	r2, r3
 2109 0068 FB68     		ldr	r3, [r7, #12]
 2110 006a 1A85     		strh	r2, [r3, #40]	@ movhi
1300:Drivers/STM32F3xx_HAL_Driver/Src/stm32f3xx_hal_i2c.c ****     hi2c->XferOptions = I2C_NO_OPTION_FRAME;
 2111              		.loc 1 1300 0 discriminator 2
 2112 006c FB68     		ldr	r3, [r7, #12]
 2113 006e 0A4A     		ldr	r2, .L102
 2114 0070 DA62     		str	r2, [r3, #44]
1301:Drivers/STM32F3xx_HAL_Driver/Src/stm32f3xx_hal_i2c.c ****     hi2c->XferISR     = I2C_Slave_ISR_IT;
 2115              		.loc 1 1301 0 discriminator 2
 2116 0072 FB68     		ldr	r3, [r7, #12]
 2117 0074 094A     		ldr	r2, .L102+4
 2118 0076 5A63     		str	r2, [r3, #52]
1302:Drivers/STM32F3xx_HAL_Driver/Src/stm32f3xx_hal_i2c.c **** 
1303:Drivers/STM32F3xx_HAL_Driver/Src/stm32f3xx_hal_i2c.c ****     /* Process Unlocked */
1304:Drivers/STM32F3xx_HAL_Driver/Src/stm32f3xx_hal_i2c.c ****     __HAL_UNLOCK(hi2c);
 2119              		.loc 1 1304 0 discriminator 2
 2120 0078 FB68     		ldr	r3, [r7, #12]
 2121 007a 0022     		movs	r2, #0
 2122 007c 83F84020 		strb	r2, [r3, #64]
1305:Drivers/STM32F3xx_HAL_Driver/Src/stm32f3xx_hal_i2c.c **** 
1306:Drivers/STM32F3xx_HAL_Driver/Src/stm32f3xx_hal_i2c.c ****     /* Note : The I2C interrupts must be enabled after unlocking current process
1307:Drivers/STM32F3xx_HAL_Driver/Src/stm32f3xx_hal_i2c.c ****               to avoid the risk of I2C interrupt handle execution before current
1308:Drivers/STM32F3xx_HAL_Driver/Src/stm32f3xx_hal_i2c.c ****               process unlock */
1309:Drivers/STM32F3xx_HAL_Driver/Src/stm32f3xx_hal_i2c.c **** 
1310:Drivers/STM32F3xx_HAL_Driver/Src/stm32f3xx_hal_i2c.c ****     /* Enable ERR, TC, STOP, NACK, TXI interrupt */
1311:Drivers/STM32F3xx_HAL_Driver/Src/stm32f3xx_hal_i2c.c ****     /* possible to enable all of these */
1312:Drivers/STM32F3xx_HAL_Driver/Src/stm32f3xx_hal_i2c.c ****     /* I2C_IT_ERRI | I2C_IT_TCI| I2C_IT_STOPI| I2C_IT_NACKI | I2C_IT_ADDRI | I2C_IT_RXI | I2C_IT_TX
1313:Drivers/STM32F3xx_HAL_Driver/Src/stm32f3xx_hal_i2c.c ****     I2C_Enable_IRQ(hi2c, I2C_XFER_TX_IT | I2C_XFER_LISTEN_IT);
 2123              		.loc 1 1313 0 discriminator 2
 2124 0080 0521     		movs	r1, #5
 2125 0082 F868     		ldr	r0, [r7, #12]
 2126 0084 FFF7FEFF 		bl	I2C_Enable_IRQ
ARM GAS  /tmp/ccy0jiyr.s 			page 61


1314:Drivers/STM32F3xx_HAL_Driver/Src/stm32f3xx_hal_i2c.c **** 
1315:Drivers/STM32F3xx_HAL_Driver/Src/stm32f3xx_hal_i2c.c ****     return HAL_OK;
 2127              		.loc 1 1315 0 discriminator 2
 2128 0088 0023     		movs	r3, #0
 2129 008a 00E0     		b	.L101
 2130              	.L99:
1316:Drivers/STM32F3xx_HAL_Driver/Src/stm32f3xx_hal_i2c.c ****   }
1317:Drivers/STM32F3xx_HAL_Driver/Src/stm32f3xx_hal_i2c.c ****   else
1318:Drivers/STM32F3xx_HAL_Driver/Src/stm32f3xx_hal_i2c.c ****   {
1319:Drivers/STM32F3xx_HAL_Driver/Src/stm32f3xx_hal_i2c.c ****     return HAL_BUSY;
 2131              		.loc 1 1319 0
 2132 008c 0223     		movs	r3, #2
 2133              	.L101:
1320:Drivers/STM32F3xx_HAL_Driver/Src/stm32f3xx_hal_i2c.c ****   }
1321:Drivers/STM32F3xx_HAL_Driver/Src/stm32f3xx_hal_i2c.c **** }
 2134              		.loc 1 1321 0
 2135 008e 1846     		mov	r0, r3
 2136 0090 1037     		adds	r7, r7, #16
 2137              	.LCFI55:
 2138              		.cfi_def_cfa_offset 8
 2139 0092 BD46     		mov	sp, r7
 2140              	.LCFI56:
 2141              		.cfi_def_cfa_register 13
 2142              		@ sp needed
 2143 0094 80BD     		pop	{r7, pc}
 2144              	.L103:
 2145 0096 00BF     		.align	2
 2146              	.L102:
 2147 0098 0000FFFF 		.word	-65536
 2148 009c 00000000 		.word	I2C_Slave_ISR_IT
 2149              		.cfi_endproc
 2150              	.LFE705:
 2152              		.section	.text.HAL_I2C_Slave_Receive_IT,"ax",%progbits
 2153              		.align	1
 2154              		.global	HAL_I2C_Slave_Receive_IT
 2155              		.syntax unified
 2156              		.thumb
 2157              		.thumb_func
 2158              		.fpu fpv4-sp-d16
 2160              	HAL_I2C_Slave_Receive_IT:
 2161              	.LFB706:
1322:Drivers/STM32F3xx_HAL_Driver/Src/stm32f3xx_hal_i2c.c **** 
1323:Drivers/STM32F3xx_HAL_Driver/Src/stm32f3xx_hal_i2c.c **** /**
1324:Drivers/STM32F3xx_HAL_Driver/Src/stm32f3xx_hal_i2c.c ****   * @brief  Receive in slave mode an amount of data in non-blocking mode with Interrupt
1325:Drivers/STM32F3xx_HAL_Driver/Src/stm32f3xx_hal_i2c.c ****   * @param  hi2c Pointer to a I2C_HandleTypeDef structure that contains
1326:Drivers/STM32F3xx_HAL_Driver/Src/stm32f3xx_hal_i2c.c ****   *                the configuration information for the specified I2C.
1327:Drivers/STM32F3xx_HAL_Driver/Src/stm32f3xx_hal_i2c.c ****   * @param  pData Pointer to data buffer
1328:Drivers/STM32F3xx_HAL_Driver/Src/stm32f3xx_hal_i2c.c ****   * @param  Size Amount of data to be sent
1329:Drivers/STM32F3xx_HAL_Driver/Src/stm32f3xx_hal_i2c.c ****   * @retval HAL status
1330:Drivers/STM32F3xx_HAL_Driver/Src/stm32f3xx_hal_i2c.c ****   */
1331:Drivers/STM32F3xx_HAL_Driver/Src/stm32f3xx_hal_i2c.c **** HAL_StatusTypeDef HAL_I2C_Slave_Receive_IT(I2C_HandleTypeDef *hi2c, uint8_t *pData, uint16_t Size)
1332:Drivers/STM32F3xx_HAL_Driver/Src/stm32f3xx_hal_i2c.c **** {
 2162              		.loc 1 1332 0
 2163              		.cfi_startproc
 2164              		@ args = 0, pretend = 0, frame = 16
 2165              		@ frame_needed = 1, uses_anonymous_args = 0
 2166 0000 80B5     		push	{r7, lr}
ARM GAS  /tmp/ccy0jiyr.s 			page 62


 2167              	.LCFI57:
 2168              		.cfi_def_cfa_offset 8
 2169              		.cfi_offset 7, -8
 2170              		.cfi_offset 14, -4
 2171 0002 84B0     		sub	sp, sp, #16
 2172              	.LCFI58:
 2173              		.cfi_def_cfa_offset 24
 2174 0004 00AF     		add	r7, sp, #0
 2175              	.LCFI59:
 2176              		.cfi_def_cfa_register 7
 2177 0006 F860     		str	r0, [r7, #12]
 2178 0008 B960     		str	r1, [r7, #8]
 2179 000a 1346     		mov	r3, r2
 2180 000c FB80     		strh	r3, [r7, #6]	@ movhi
1333:Drivers/STM32F3xx_HAL_Driver/Src/stm32f3xx_hal_i2c.c ****   if (hi2c->State == HAL_I2C_STATE_READY)
 2181              		.loc 1 1333 0
 2182 000e FB68     		ldr	r3, [r7, #12]
 2183 0010 93F84130 		ldrb	r3, [r3, #65]
 2184 0014 DBB2     		uxtb	r3, r3
 2185 0016 202B     		cmp	r3, #32
 2186 0018 38D1     		bne	.L105
1334:Drivers/STM32F3xx_HAL_Driver/Src/stm32f3xx_hal_i2c.c ****   {
1335:Drivers/STM32F3xx_HAL_Driver/Src/stm32f3xx_hal_i2c.c ****     /* Process Locked */
1336:Drivers/STM32F3xx_HAL_Driver/Src/stm32f3xx_hal_i2c.c ****     __HAL_LOCK(hi2c);
 2187              		.loc 1 1336 0
 2188 001a FB68     		ldr	r3, [r7, #12]
 2189 001c 93F84030 		ldrb	r3, [r3, #64]	@ zero_extendqisi2
 2190 0020 012B     		cmp	r3, #1
 2191 0022 01D1     		bne	.L106
 2192              		.loc 1 1336 0 is_stmt 0 discriminator 1
 2193 0024 0223     		movs	r3, #2
 2194 0026 32E0     		b	.L107
 2195              	.L106:
 2196              		.loc 1 1336 0 discriminator 2
 2197 0028 FB68     		ldr	r3, [r7, #12]
 2198 002a 0122     		movs	r2, #1
 2199 002c 83F84020 		strb	r2, [r3, #64]
1337:Drivers/STM32F3xx_HAL_Driver/Src/stm32f3xx_hal_i2c.c **** 
1338:Drivers/STM32F3xx_HAL_Driver/Src/stm32f3xx_hal_i2c.c ****     hi2c->State       = HAL_I2C_STATE_BUSY_RX;
 2200              		.loc 1 1338 0 is_stmt 1 discriminator 2
 2201 0030 FB68     		ldr	r3, [r7, #12]
 2202 0032 2222     		movs	r2, #34
 2203 0034 83F84120 		strb	r2, [r3, #65]
1339:Drivers/STM32F3xx_HAL_Driver/Src/stm32f3xx_hal_i2c.c ****     hi2c->Mode        = HAL_I2C_MODE_SLAVE;
 2204              		.loc 1 1339 0 discriminator 2
 2205 0038 FB68     		ldr	r3, [r7, #12]
 2206 003a 2022     		movs	r2, #32
 2207 003c 83F84220 		strb	r2, [r3, #66]
1340:Drivers/STM32F3xx_HAL_Driver/Src/stm32f3xx_hal_i2c.c ****     hi2c->ErrorCode   = HAL_I2C_ERROR_NONE;
 2208              		.loc 1 1340 0 discriminator 2
 2209 0040 FB68     		ldr	r3, [r7, #12]
 2210 0042 0022     		movs	r2, #0
 2211 0044 5A64     		str	r2, [r3, #68]
1341:Drivers/STM32F3xx_HAL_Driver/Src/stm32f3xx_hal_i2c.c **** 
1342:Drivers/STM32F3xx_HAL_Driver/Src/stm32f3xx_hal_i2c.c ****     /* Enable Address Acknowledge */
1343:Drivers/STM32F3xx_HAL_Driver/Src/stm32f3xx_hal_i2c.c ****     hi2c->Instance->CR2 &= ~I2C_CR2_NACK;
 2212              		.loc 1 1343 0 discriminator 2
ARM GAS  /tmp/ccy0jiyr.s 			page 63


 2213 0046 FB68     		ldr	r3, [r7, #12]
 2214 0048 1B68     		ldr	r3, [r3]
 2215 004a 5A68     		ldr	r2, [r3, #4]
 2216 004c FB68     		ldr	r3, [r7, #12]
 2217 004e 1B68     		ldr	r3, [r3]
 2218 0050 22F40042 		bic	r2, r2, #32768
 2219 0054 5A60     		str	r2, [r3, #4]
1344:Drivers/STM32F3xx_HAL_Driver/Src/stm32f3xx_hal_i2c.c **** 
1345:Drivers/STM32F3xx_HAL_Driver/Src/stm32f3xx_hal_i2c.c ****     /* Prepare transfer parameters */
1346:Drivers/STM32F3xx_HAL_Driver/Src/stm32f3xx_hal_i2c.c ****     hi2c->pBuffPtr    = pData;
 2220              		.loc 1 1346 0 discriminator 2
 2221 0056 FB68     		ldr	r3, [r7, #12]
 2222 0058 BA68     		ldr	r2, [r7, #8]
 2223 005a 5A62     		str	r2, [r3, #36]
1347:Drivers/STM32F3xx_HAL_Driver/Src/stm32f3xx_hal_i2c.c ****     hi2c->XferCount   = Size;
 2224              		.loc 1 1347 0 discriminator 2
 2225 005c FB68     		ldr	r3, [r7, #12]
 2226 005e FA88     		ldrh	r2, [r7, #6]	@ movhi
 2227 0060 5A85     		strh	r2, [r3, #42]	@ movhi
1348:Drivers/STM32F3xx_HAL_Driver/Src/stm32f3xx_hal_i2c.c ****     hi2c->XferSize    = hi2c->XferCount;
 2228              		.loc 1 1348 0 discriminator 2
 2229 0062 FB68     		ldr	r3, [r7, #12]
 2230 0064 5B8D     		ldrh	r3, [r3, #42]	@ movhi
 2231 0066 9AB2     		uxth	r2, r3
 2232 0068 FB68     		ldr	r3, [r7, #12]
 2233 006a 1A85     		strh	r2, [r3, #40]	@ movhi
1349:Drivers/STM32F3xx_HAL_Driver/Src/stm32f3xx_hal_i2c.c ****     hi2c->XferOptions = I2C_NO_OPTION_FRAME;
 2234              		.loc 1 1349 0 discriminator 2
 2235 006c FB68     		ldr	r3, [r7, #12]
 2236 006e 0A4A     		ldr	r2, .L108
 2237 0070 DA62     		str	r2, [r3, #44]
1350:Drivers/STM32F3xx_HAL_Driver/Src/stm32f3xx_hal_i2c.c ****     hi2c->XferISR     = I2C_Slave_ISR_IT;
 2238              		.loc 1 1350 0 discriminator 2
 2239 0072 FB68     		ldr	r3, [r7, #12]
 2240 0074 094A     		ldr	r2, .L108+4
 2241 0076 5A63     		str	r2, [r3, #52]
1351:Drivers/STM32F3xx_HAL_Driver/Src/stm32f3xx_hal_i2c.c **** 
1352:Drivers/STM32F3xx_HAL_Driver/Src/stm32f3xx_hal_i2c.c ****     /* Process Unlocked */
1353:Drivers/STM32F3xx_HAL_Driver/Src/stm32f3xx_hal_i2c.c ****     __HAL_UNLOCK(hi2c);
 2242              		.loc 1 1353 0 discriminator 2
 2243 0078 FB68     		ldr	r3, [r7, #12]
 2244 007a 0022     		movs	r2, #0
 2245 007c 83F84020 		strb	r2, [r3, #64]
1354:Drivers/STM32F3xx_HAL_Driver/Src/stm32f3xx_hal_i2c.c **** 
1355:Drivers/STM32F3xx_HAL_Driver/Src/stm32f3xx_hal_i2c.c ****     /* Note : The I2C interrupts must be enabled after unlocking current process
1356:Drivers/STM32F3xx_HAL_Driver/Src/stm32f3xx_hal_i2c.c ****               to avoid the risk of I2C interrupt handle execution before current
1357:Drivers/STM32F3xx_HAL_Driver/Src/stm32f3xx_hal_i2c.c ****               process unlock */
1358:Drivers/STM32F3xx_HAL_Driver/Src/stm32f3xx_hal_i2c.c **** 
1359:Drivers/STM32F3xx_HAL_Driver/Src/stm32f3xx_hal_i2c.c ****     /* Enable ERR, TC, STOP, NACK, RXI interrupt */
1360:Drivers/STM32F3xx_HAL_Driver/Src/stm32f3xx_hal_i2c.c ****     /* possible to enable all of these */
1361:Drivers/STM32F3xx_HAL_Driver/Src/stm32f3xx_hal_i2c.c ****     /* I2C_IT_ERRI | I2C_IT_TCI| I2C_IT_STOPI| I2C_IT_NACKI | I2C_IT_ADDRI | I2C_IT_RXI | I2C_IT_TX
1362:Drivers/STM32F3xx_HAL_Driver/Src/stm32f3xx_hal_i2c.c ****     I2C_Enable_IRQ(hi2c, I2C_XFER_RX_IT | I2C_XFER_LISTEN_IT);
 2246              		.loc 1 1362 0 discriminator 2
 2247 0080 0621     		movs	r1, #6
 2248 0082 F868     		ldr	r0, [r7, #12]
 2249 0084 FFF7FEFF 		bl	I2C_Enable_IRQ
1363:Drivers/STM32F3xx_HAL_Driver/Src/stm32f3xx_hal_i2c.c **** 
ARM GAS  /tmp/ccy0jiyr.s 			page 64


1364:Drivers/STM32F3xx_HAL_Driver/Src/stm32f3xx_hal_i2c.c ****     return HAL_OK;
 2250              		.loc 1 1364 0 discriminator 2
 2251 0088 0023     		movs	r3, #0
 2252 008a 00E0     		b	.L107
 2253              	.L105:
1365:Drivers/STM32F3xx_HAL_Driver/Src/stm32f3xx_hal_i2c.c ****   }
1366:Drivers/STM32F3xx_HAL_Driver/Src/stm32f3xx_hal_i2c.c ****   else
1367:Drivers/STM32F3xx_HAL_Driver/Src/stm32f3xx_hal_i2c.c ****   {
1368:Drivers/STM32F3xx_HAL_Driver/Src/stm32f3xx_hal_i2c.c ****     return HAL_BUSY;
 2254              		.loc 1 1368 0
 2255 008c 0223     		movs	r3, #2
 2256              	.L107:
1369:Drivers/STM32F3xx_HAL_Driver/Src/stm32f3xx_hal_i2c.c ****   }
1370:Drivers/STM32F3xx_HAL_Driver/Src/stm32f3xx_hal_i2c.c **** }
 2257              		.loc 1 1370 0
 2258 008e 1846     		mov	r0, r3
 2259 0090 1037     		adds	r7, r7, #16
 2260              	.LCFI60:
 2261              		.cfi_def_cfa_offset 8
 2262 0092 BD46     		mov	sp, r7
 2263              	.LCFI61:
 2264              		.cfi_def_cfa_register 13
 2265              		@ sp needed
 2266 0094 80BD     		pop	{r7, pc}
 2267              	.L109:
 2268 0096 00BF     		.align	2
 2269              	.L108:
 2270 0098 0000FFFF 		.word	-65536
 2271 009c 00000000 		.word	I2C_Slave_ISR_IT
 2272              		.cfi_endproc
 2273              	.LFE706:
 2275              		.section	.text.HAL_I2C_Master_Transmit_DMA,"ax",%progbits
 2276              		.align	1
 2277              		.global	HAL_I2C_Master_Transmit_DMA
 2278              		.syntax unified
 2279              		.thumb
 2280              		.thumb_func
 2281              		.fpu fpv4-sp-d16
 2283              	HAL_I2C_Master_Transmit_DMA:
 2284              	.LFB707:
1371:Drivers/STM32F3xx_HAL_Driver/Src/stm32f3xx_hal_i2c.c **** 
1372:Drivers/STM32F3xx_HAL_Driver/Src/stm32f3xx_hal_i2c.c **** /**
1373:Drivers/STM32F3xx_HAL_Driver/Src/stm32f3xx_hal_i2c.c ****   * @brief  Transmit in master mode an amount of data in non-blocking mode with DMA
1374:Drivers/STM32F3xx_HAL_Driver/Src/stm32f3xx_hal_i2c.c ****   * @param  hi2c Pointer to a I2C_HandleTypeDef structure that contains
1375:Drivers/STM32F3xx_HAL_Driver/Src/stm32f3xx_hal_i2c.c ****   *                the configuration information for the specified I2C.
1376:Drivers/STM32F3xx_HAL_Driver/Src/stm32f3xx_hal_i2c.c ****   * @param  DevAddress Target device address: The device 7 bits address value
1377:Drivers/STM32F3xx_HAL_Driver/Src/stm32f3xx_hal_i2c.c ****   *         in datasheet must be shift at right before call interface
1378:Drivers/STM32F3xx_HAL_Driver/Src/stm32f3xx_hal_i2c.c ****   * @param  pData Pointer to data buffer
1379:Drivers/STM32F3xx_HAL_Driver/Src/stm32f3xx_hal_i2c.c ****   * @param  Size Amount of data to be sent
1380:Drivers/STM32F3xx_HAL_Driver/Src/stm32f3xx_hal_i2c.c ****   * @retval HAL status
1381:Drivers/STM32F3xx_HAL_Driver/Src/stm32f3xx_hal_i2c.c ****   */
1382:Drivers/STM32F3xx_HAL_Driver/Src/stm32f3xx_hal_i2c.c **** HAL_StatusTypeDef HAL_I2C_Master_Transmit_DMA(I2C_HandleTypeDef *hi2c, uint16_t DevAddress, uint8_t
1383:Drivers/STM32F3xx_HAL_Driver/Src/stm32f3xx_hal_i2c.c **** {
 2285              		.loc 1 1383 0
 2286              		.cfi_startproc
 2287              		@ args = 0, pretend = 0, frame = 24
 2288              		@ frame_needed = 1, uses_anonymous_args = 0
ARM GAS  /tmp/ccy0jiyr.s 			page 65


 2289 0000 80B5     		push	{r7, lr}
 2290              	.LCFI62:
 2291              		.cfi_def_cfa_offset 8
 2292              		.cfi_offset 7, -8
 2293              		.cfi_offset 14, -4
 2294 0002 88B0     		sub	sp, sp, #32
 2295              	.LCFI63:
 2296              		.cfi_def_cfa_offset 40
 2297 0004 02AF     		add	r7, sp, #8
 2298              	.LCFI64:
 2299              		.cfi_def_cfa 7, 32
 2300 0006 F860     		str	r0, [r7, #12]
 2301 0008 7A60     		str	r2, [r7, #4]
 2302 000a 1A46     		mov	r2, r3
 2303 000c 0B46     		mov	r3, r1	@ movhi
 2304 000e 7B81     		strh	r3, [r7, #10]	@ movhi
 2305 0010 1346     		mov	r3, r2	@ movhi
 2306 0012 3B81     		strh	r3, [r7, #8]	@ movhi
1384:Drivers/STM32F3xx_HAL_Driver/Src/stm32f3xx_hal_i2c.c ****   uint32_t xfermode = 0U;
 2307              		.loc 1 1384 0
 2308 0014 0023     		movs	r3, #0
 2309 0016 7B61     		str	r3, [r7, #20]
1385:Drivers/STM32F3xx_HAL_Driver/Src/stm32f3xx_hal_i2c.c **** 
1386:Drivers/STM32F3xx_HAL_Driver/Src/stm32f3xx_hal_i2c.c ****   if (hi2c->State == HAL_I2C_STATE_READY)
 2310              		.loc 1 1386 0
 2311 0018 FB68     		ldr	r3, [r7, #12]
 2312 001a 93F84130 		ldrb	r3, [r3, #65]
 2313 001e DBB2     		uxtb	r3, r3
 2314 0020 202B     		cmp	r3, #32
 2315 0022 40F09D80 		bne	.L111
1387:Drivers/STM32F3xx_HAL_Driver/Src/stm32f3xx_hal_i2c.c ****   {
1388:Drivers/STM32F3xx_HAL_Driver/Src/stm32f3xx_hal_i2c.c ****     if (__HAL_I2C_GET_FLAG(hi2c, I2C_FLAG_BUSY) == SET)
 2316              		.loc 1 1388 0
 2317 0026 FB68     		ldr	r3, [r7, #12]
 2318 0028 1B68     		ldr	r3, [r3]
 2319 002a 9B69     		ldr	r3, [r3, #24]
 2320 002c 03F40043 		and	r3, r3, #32768
 2321 0030 B3F5004F 		cmp	r3, #32768
 2322 0034 01D1     		bne	.L112
1389:Drivers/STM32F3xx_HAL_Driver/Src/stm32f3xx_hal_i2c.c ****     {
1390:Drivers/STM32F3xx_HAL_Driver/Src/stm32f3xx_hal_i2c.c ****       return HAL_BUSY;
 2323              		.loc 1 1390 0
 2324 0036 0223     		movs	r3, #2
 2325 0038 93E0     		b	.L113
 2326              	.L112:
1391:Drivers/STM32F3xx_HAL_Driver/Src/stm32f3xx_hal_i2c.c ****     }
1392:Drivers/STM32F3xx_HAL_Driver/Src/stm32f3xx_hal_i2c.c **** 
1393:Drivers/STM32F3xx_HAL_Driver/Src/stm32f3xx_hal_i2c.c ****     /* Process Locked */
1394:Drivers/STM32F3xx_HAL_Driver/Src/stm32f3xx_hal_i2c.c ****     __HAL_LOCK(hi2c);
 2327              		.loc 1 1394 0
 2328 003a FB68     		ldr	r3, [r7, #12]
 2329 003c 93F84030 		ldrb	r3, [r3, #64]	@ zero_extendqisi2
 2330 0040 012B     		cmp	r3, #1
 2331 0042 01D1     		bne	.L114
 2332              		.loc 1 1394 0 is_stmt 0 discriminator 1
 2333 0044 0223     		movs	r3, #2
 2334 0046 8CE0     		b	.L113
ARM GAS  /tmp/ccy0jiyr.s 			page 66


 2335              	.L114:
 2336              		.loc 1 1394 0 discriminator 2
 2337 0048 FB68     		ldr	r3, [r7, #12]
 2338 004a 0122     		movs	r2, #1
 2339 004c 83F84020 		strb	r2, [r3, #64]
1395:Drivers/STM32F3xx_HAL_Driver/Src/stm32f3xx_hal_i2c.c **** 
1396:Drivers/STM32F3xx_HAL_Driver/Src/stm32f3xx_hal_i2c.c ****     hi2c->State       = HAL_I2C_STATE_BUSY_TX;
 2340              		.loc 1 1396 0 is_stmt 1 discriminator 2
 2341 0050 FB68     		ldr	r3, [r7, #12]
 2342 0052 2122     		movs	r2, #33
 2343 0054 83F84120 		strb	r2, [r3, #65]
1397:Drivers/STM32F3xx_HAL_Driver/Src/stm32f3xx_hal_i2c.c ****     hi2c->Mode        = HAL_I2C_MODE_MASTER;
 2344              		.loc 1 1397 0 discriminator 2
 2345 0058 FB68     		ldr	r3, [r7, #12]
 2346 005a 1022     		movs	r2, #16
 2347 005c 83F84220 		strb	r2, [r3, #66]
1398:Drivers/STM32F3xx_HAL_Driver/Src/stm32f3xx_hal_i2c.c ****     hi2c->ErrorCode   = HAL_I2C_ERROR_NONE;
 2348              		.loc 1 1398 0 discriminator 2
 2349 0060 FB68     		ldr	r3, [r7, #12]
 2350 0062 0022     		movs	r2, #0
 2351 0064 5A64     		str	r2, [r3, #68]
1399:Drivers/STM32F3xx_HAL_Driver/Src/stm32f3xx_hal_i2c.c **** 
1400:Drivers/STM32F3xx_HAL_Driver/Src/stm32f3xx_hal_i2c.c ****     /* Prepare transfer parameters */
1401:Drivers/STM32F3xx_HAL_Driver/Src/stm32f3xx_hal_i2c.c ****     hi2c->pBuffPtr    = pData;
 2352              		.loc 1 1401 0 discriminator 2
 2353 0066 FB68     		ldr	r3, [r7, #12]
 2354 0068 7A68     		ldr	r2, [r7, #4]
 2355 006a 5A62     		str	r2, [r3, #36]
1402:Drivers/STM32F3xx_HAL_Driver/Src/stm32f3xx_hal_i2c.c ****     hi2c->XferCount   = Size;
 2356              		.loc 1 1402 0 discriminator 2
 2357 006c FB68     		ldr	r3, [r7, #12]
 2358 006e 3A89     		ldrh	r2, [r7, #8]	@ movhi
 2359 0070 5A85     		strh	r2, [r3, #42]	@ movhi
1403:Drivers/STM32F3xx_HAL_Driver/Src/stm32f3xx_hal_i2c.c ****     hi2c->XferOptions = I2C_NO_OPTION_FRAME;
 2360              		.loc 1 1403 0 discriminator 2
 2361 0072 FB68     		ldr	r3, [r7, #12]
 2362 0074 3D4A     		ldr	r2, .L119
 2363 0076 DA62     		str	r2, [r3, #44]
1404:Drivers/STM32F3xx_HAL_Driver/Src/stm32f3xx_hal_i2c.c ****     hi2c->XferISR     = I2C_Master_ISR_DMA;
 2364              		.loc 1 1404 0 discriminator 2
 2365 0078 FB68     		ldr	r3, [r7, #12]
 2366 007a 3D4A     		ldr	r2, .L119+4
 2367 007c 5A63     		str	r2, [r3, #52]
1405:Drivers/STM32F3xx_HAL_Driver/Src/stm32f3xx_hal_i2c.c **** 
1406:Drivers/STM32F3xx_HAL_Driver/Src/stm32f3xx_hal_i2c.c ****     if (hi2c->XferCount > MAX_NBYTE_SIZE)
 2368              		.loc 1 1406 0 discriminator 2
 2369 007e FB68     		ldr	r3, [r7, #12]
 2370 0080 5B8D     		ldrh	r3, [r3, #42]	@ movhi
 2371 0082 9BB2     		uxth	r3, r3
 2372 0084 FF2B     		cmp	r3, #255
 2373 0086 06D9     		bls	.L115
1407:Drivers/STM32F3xx_HAL_Driver/Src/stm32f3xx_hal_i2c.c ****     {
1408:Drivers/STM32F3xx_HAL_Driver/Src/stm32f3xx_hal_i2c.c ****       hi2c->XferSize = MAX_NBYTE_SIZE;
 2374              		.loc 1 1408 0
 2375 0088 FB68     		ldr	r3, [r7, #12]
 2376 008a FF22     		movs	r2, #255
 2377 008c 1A85     		strh	r2, [r3, #40]	@ movhi
ARM GAS  /tmp/ccy0jiyr.s 			page 67


1409:Drivers/STM32F3xx_HAL_Driver/Src/stm32f3xx_hal_i2c.c ****       xfermode = I2C_RELOAD_MODE;
 2378              		.loc 1 1409 0
 2379 008e 4FF08073 		mov	r3, #16777216
 2380 0092 7B61     		str	r3, [r7, #20]
 2381 0094 07E0     		b	.L116
 2382              	.L115:
1410:Drivers/STM32F3xx_HAL_Driver/Src/stm32f3xx_hal_i2c.c ****     }
1411:Drivers/STM32F3xx_HAL_Driver/Src/stm32f3xx_hal_i2c.c ****     else
1412:Drivers/STM32F3xx_HAL_Driver/Src/stm32f3xx_hal_i2c.c ****     {
1413:Drivers/STM32F3xx_HAL_Driver/Src/stm32f3xx_hal_i2c.c ****       hi2c->XferSize = hi2c->XferCount;
 2383              		.loc 1 1413 0
 2384 0096 FB68     		ldr	r3, [r7, #12]
 2385 0098 5B8D     		ldrh	r3, [r3, #42]	@ movhi
 2386 009a 9AB2     		uxth	r2, r3
 2387 009c FB68     		ldr	r3, [r7, #12]
 2388 009e 1A85     		strh	r2, [r3, #40]	@ movhi
1414:Drivers/STM32F3xx_HAL_Driver/Src/stm32f3xx_hal_i2c.c ****       xfermode = I2C_AUTOEND_MODE;
 2389              		.loc 1 1414 0
 2390 00a0 4FF00073 		mov	r3, #33554432
 2391 00a4 7B61     		str	r3, [r7, #20]
 2392              	.L116:
1415:Drivers/STM32F3xx_HAL_Driver/Src/stm32f3xx_hal_i2c.c ****     }
1416:Drivers/STM32F3xx_HAL_Driver/Src/stm32f3xx_hal_i2c.c **** 
1417:Drivers/STM32F3xx_HAL_Driver/Src/stm32f3xx_hal_i2c.c ****     if (hi2c->XferSize > 0U)
 2393              		.loc 1 1417 0
 2394 00a6 FB68     		ldr	r3, [r7, #12]
 2395 00a8 1B8D     		ldrh	r3, [r3, #40]
 2396 00aa 002B     		cmp	r3, #0
 2397 00ac 3FD0     		beq	.L117
1418:Drivers/STM32F3xx_HAL_Driver/Src/stm32f3xx_hal_i2c.c ****     {
1419:Drivers/STM32F3xx_HAL_Driver/Src/stm32f3xx_hal_i2c.c ****       /* Set the I2C DMA transfer complete callback */
1420:Drivers/STM32F3xx_HAL_Driver/Src/stm32f3xx_hal_i2c.c ****       hi2c->hdmatx->XferCpltCallback = I2C_DMAMasterTransmitCplt;
 2398              		.loc 1 1420 0
 2399 00ae FB68     		ldr	r3, [r7, #12]
 2400 00b0 9B6B     		ldr	r3, [r3, #56]
 2401 00b2 304A     		ldr	r2, .L119+8
 2402 00b4 9A62     		str	r2, [r3, #40]
1421:Drivers/STM32F3xx_HAL_Driver/Src/stm32f3xx_hal_i2c.c **** 
1422:Drivers/STM32F3xx_HAL_Driver/Src/stm32f3xx_hal_i2c.c ****       /* Set the DMA error callback */
1423:Drivers/STM32F3xx_HAL_Driver/Src/stm32f3xx_hal_i2c.c ****       hi2c->hdmatx->XferErrorCallback = I2C_DMAError;
 2403              		.loc 1 1423 0
 2404 00b6 FB68     		ldr	r3, [r7, #12]
 2405 00b8 9B6B     		ldr	r3, [r3, #56]
 2406 00ba 2F4A     		ldr	r2, .L119+12
 2407 00bc 1A63     		str	r2, [r3, #48]
1424:Drivers/STM32F3xx_HAL_Driver/Src/stm32f3xx_hal_i2c.c **** 
1425:Drivers/STM32F3xx_HAL_Driver/Src/stm32f3xx_hal_i2c.c ****       /* Set the unused DMA callbacks to NULL */
1426:Drivers/STM32F3xx_HAL_Driver/Src/stm32f3xx_hal_i2c.c ****       hi2c->hdmatx->XferHalfCpltCallback = NULL;
 2408              		.loc 1 1426 0
 2409 00be FB68     		ldr	r3, [r7, #12]
 2410 00c0 9B6B     		ldr	r3, [r3, #56]
 2411 00c2 0022     		movs	r2, #0
 2412 00c4 DA62     		str	r2, [r3, #44]
1427:Drivers/STM32F3xx_HAL_Driver/Src/stm32f3xx_hal_i2c.c ****       hi2c->hdmatx->XferAbortCallback = NULL;
 2413              		.loc 1 1427 0
 2414 00c6 FB68     		ldr	r3, [r7, #12]
 2415 00c8 9B6B     		ldr	r3, [r3, #56]
ARM GAS  /tmp/ccy0jiyr.s 			page 68


 2416 00ca 0022     		movs	r2, #0
 2417 00cc 5A63     		str	r2, [r3, #52]
1428:Drivers/STM32F3xx_HAL_Driver/Src/stm32f3xx_hal_i2c.c **** 
1429:Drivers/STM32F3xx_HAL_Driver/Src/stm32f3xx_hal_i2c.c ****       /* Enable the DMA channel */
1430:Drivers/STM32F3xx_HAL_Driver/Src/stm32f3xx_hal_i2c.c ****       HAL_DMA_Start_IT(hi2c->hdmatx, (uint32_t)pData, (uint32_t)&hi2c->Instance->TXDR, hi2c->XferSi
 2418              		.loc 1 1430 0
 2419 00ce FB68     		ldr	r3, [r7, #12]
 2420 00d0 986B     		ldr	r0, [r3, #56]
 2421 00d2 7968     		ldr	r1, [r7, #4]
 2422 00d4 FB68     		ldr	r3, [r7, #12]
 2423 00d6 1B68     		ldr	r3, [r3]
 2424 00d8 2833     		adds	r3, r3, #40
 2425 00da 1A46     		mov	r2, r3
 2426 00dc FB68     		ldr	r3, [r7, #12]
 2427 00de 1B8D     		ldrh	r3, [r3, #40]
 2428 00e0 FFF7FEFF 		bl	HAL_DMA_Start_IT
1431:Drivers/STM32F3xx_HAL_Driver/Src/stm32f3xx_hal_i2c.c **** 
1432:Drivers/STM32F3xx_HAL_Driver/Src/stm32f3xx_hal_i2c.c ****       /* Send Slave Address */
1433:Drivers/STM32F3xx_HAL_Driver/Src/stm32f3xx_hal_i2c.c ****       /* Set NBYTES to write and reload if hi2c->XferCount > MAX_NBYTE_SIZE and generate RESTART */
1434:Drivers/STM32F3xx_HAL_Driver/Src/stm32f3xx_hal_i2c.c ****       I2C_TransferConfig(hi2c, DevAddress, hi2c->XferSize, xfermode, I2C_GENERATE_START_WRITE);
 2429              		.loc 1 1434 0
 2430 00e4 FB68     		ldr	r3, [r7, #12]
 2431 00e6 1B8D     		ldrh	r3, [r3, #40]
 2432 00e8 DAB2     		uxtb	r2, r3
 2433 00ea 7989     		ldrh	r1, [r7, #10]
 2434 00ec 4FF40053 		mov	r3, #8192
 2435 00f0 0093     		str	r3, [sp]
 2436 00f2 7B69     		ldr	r3, [r7, #20]
 2437 00f4 F868     		ldr	r0, [r7, #12]
 2438 00f6 FFF7FEFF 		bl	I2C_TransferConfig
1435:Drivers/STM32F3xx_HAL_Driver/Src/stm32f3xx_hal_i2c.c **** 
1436:Drivers/STM32F3xx_HAL_Driver/Src/stm32f3xx_hal_i2c.c ****       /* Update XferCount value */
1437:Drivers/STM32F3xx_HAL_Driver/Src/stm32f3xx_hal_i2c.c ****       hi2c->XferCount -= hi2c->XferSize;
 2439              		.loc 1 1437 0
 2440 00fa FB68     		ldr	r3, [r7, #12]
 2441 00fc 5B8D     		ldrh	r3, [r3, #42]	@ movhi
 2442 00fe 9AB2     		uxth	r2, r3
 2443 0100 FB68     		ldr	r3, [r7, #12]
 2444 0102 1B8D     		ldrh	r3, [r3, #40]
 2445 0104 D31A     		subs	r3, r2, r3
 2446 0106 9AB2     		uxth	r2, r3
 2447 0108 FB68     		ldr	r3, [r7, #12]
 2448 010a 5A85     		strh	r2, [r3, #42]	@ movhi
1438:Drivers/STM32F3xx_HAL_Driver/Src/stm32f3xx_hal_i2c.c **** 
1439:Drivers/STM32F3xx_HAL_Driver/Src/stm32f3xx_hal_i2c.c ****       /* Process Unlocked */
1440:Drivers/STM32F3xx_HAL_Driver/Src/stm32f3xx_hal_i2c.c ****       __HAL_UNLOCK(hi2c);
 2449              		.loc 1 1440 0
 2450 010c FB68     		ldr	r3, [r7, #12]
 2451 010e 0022     		movs	r2, #0
 2452 0110 83F84020 		strb	r2, [r3, #64]
1441:Drivers/STM32F3xx_HAL_Driver/Src/stm32f3xx_hal_i2c.c **** 
1442:Drivers/STM32F3xx_HAL_Driver/Src/stm32f3xx_hal_i2c.c ****       /* Note : The I2C interrupts must be enabled after unlocking current process
1443:Drivers/STM32F3xx_HAL_Driver/Src/stm32f3xx_hal_i2c.c ****                 to avoid the risk of I2C interrupt handle execution before current
1444:Drivers/STM32F3xx_HAL_Driver/Src/stm32f3xx_hal_i2c.c ****                 process unlock */
1445:Drivers/STM32F3xx_HAL_Driver/Src/stm32f3xx_hal_i2c.c ****       /* Enable ERR and NACK interrupts */
1446:Drivers/STM32F3xx_HAL_Driver/Src/stm32f3xx_hal_i2c.c ****       I2C_Enable_IRQ(hi2c, I2C_XFER_ERROR_IT);
 2453              		.loc 1 1446 0
ARM GAS  /tmp/ccy0jiyr.s 			page 69


 2454 0114 1121     		movs	r1, #17
 2455 0116 F868     		ldr	r0, [r7, #12]
 2456 0118 FFF7FEFF 		bl	I2C_Enable_IRQ
1447:Drivers/STM32F3xx_HAL_Driver/Src/stm32f3xx_hal_i2c.c **** 
1448:Drivers/STM32F3xx_HAL_Driver/Src/stm32f3xx_hal_i2c.c ****       /* Enable DMA Request */
1449:Drivers/STM32F3xx_HAL_Driver/Src/stm32f3xx_hal_i2c.c ****       hi2c->Instance->CR1 |= I2C_CR1_TXDMAEN;
 2457              		.loc 1 1449 0
 2458 011c FB68     		ldr	r3, [r7, #12]
 2459 011e 1B68     		ldr	r3, [r3]
 2460 0120 1A68     		ldr	r2, [r3]
 2461 0122 FB68     		ldr	r3, [r7, #12]
 2462 0124 1B68     		ldr	r3, [r3]
 2463 0126 42F48042 		orr	r2, r2, #16384
 2464 012a 1A60     		str	r2, [r3]
 2465 012c 16E0     		b	.L118
 2466              	.L117:
1450:Drivers/STM32F3xx_HAL_Driver/Src/stm32f3xx_hal_i2c.c ****     }
1451:Drivers/STM32F3xx_HAL_Driver/Src/stm32f3xx_hal_i2c.c ****     else
1452:Drivers/STM32F3xx_HAL_Driver/Src/stm32f3xx_hal_i2c.c ****     {
1453:Drivers/STM32F3xx_HAL_Driver/Src/stm32f3xx_hal_i2c.c ****       /* Update Transfer ISR function pointer */
1454:Drivers/STM32F3xx_HAL_Driver/Src/stm32f3xx_hal_i2c.c ****       hi2c->XferISR = I2C_Master_ISR_IT;
 2467              		.loc 1 1454 0
 2468 012e FB68     		ldr	r3, [r7, #12]
 2469 0130 124A     		ldr	r2, .L119+16
 2470 0132 5A63     		str	r2, [r3, #52]
1455:Drivers/STM32F3xx_HAL_Driver/Src/stm32f3xx_hal_i2c.c **** 
1456:Drivers/STM32F3xx_HAL_Driver/Src/stm32f3xx_hal_i2c.c ****       /* Send Slave Address */
1457:Drivers/STM32F3xx_HAL_Driver/Src/stm32f3xx_hal_i2c.c ****       /* Set NBYTES to write and generate START condition */
1458:Drivers/STM32F3xx_HAL_Driver/Src/stm32f3xx_hal_i2c.c ****       I2C_TransferConfig(hi2c, DevAddress, hi2c->XferSize, I2C_AUTOEND_MODE, I2C_GENERATE_START_WRI
 2471              		.loc 1 1458 0
 2472 0134 FB68     		ldr	r3, [r7, #12]
 2473 0136 1B8D     		ldrh	r3, [r3, #40]
 2474 0138 DAB2     		uxtb	r2, r3
 2475 013a 7989     		ldrh	r1, [r7, #10]
 2476 013c 4FF40053 		mov	r3, #8192
 2477 0140 0093     		str	r3, [sp]
 2478 0142 4FF00073 		mov	r3, #33554432
 2479 0146 F868     		ldr	r0, [r7, #12]
 2480 0148 FFF7FEFF 		bl	I2C_TransferConfig
1459:Drivers/STM32F3xx_HAL_Driver/Src/stm32f3xx_hal_i2c.c **** 
1460:Drivers/STM32F3xx_HAL_Driver/Src/stm32f3xx_hal_i2c.c ****       /* Process Unlocked */
1461:Drivers/STM32F3xx_HAL_Driver/Src/stm32f3xx_hal_i2c.c ****       __HAL_UNLOCK(hi2c);
 2481              		.loc 1 1461 0
 2482 014c FB68     		ldr	r3, [r7, #12]
 2483 014e 0022     		movs	r2, #0
 2484 0150 83F84020 		strb	r2, [r3, #64]
1462:Drivers/STM32F3xx_HAL_Driver/Src/stm32f3xx_hal_i2c.c **** 
1463:Drivers/STM32F3xx_HAL_Driver/Src/stm32f3xx_hal_i2c.c ****       /* Note : The I2C interrupts must be enabled after unlocking current process
1464:Drivers/STM32F3xx_HAL_Driver/Src/stm32f3xx_hal_i2c.c ****                 to avoid the risk of I2C interrupt handle execution before current
1465:Drivers/STM32F3xx_HAL_Driver/Src/stm32f3xx_hal_i2c.c ****                 process unlock */
1466:Drivers/STM32F3xx_HAL_Driver/Src/stm32f3xx_hal_i2c.c ****       /* Enable ERR, TC, STOP, NACK, TXI interrupt */
1467:Drivers/STM32F3xx_HAL_Driver/Src/stm32f3xx_hal_i2c.c ****       /* possible to enable all of these */
1468:Drivers/STM32F3xx_HAL_Driver/Src/stm32f3xx_hal_i2c.c ****       /* I2C_IT_ERRI | I2C_IT_TCI| I2C_IT_STOPI| I2C_IT_NACKI | I2C_IT_ADDRI | I2C_IT_RXI | I2C_IT_
1469:Drivers/STM32F3xx_HAL_Driver/Src/stm32f3xx_hal_i2c.c ****       I2C_Enable_IRQ(hi2c, I2C_XFER_TX_IT);
 2485              		.loc 1 1469 0
 2486 0154 0121     		movs	r1, #1
 2487 0156 F868     		ldr	r0, [r7, #12]
ARM GAS  /tmp/ccy0jiyr.s 			page 70


 2488 0158 FFF7FEFF 		bl	I2C_Enable_IRQ
 2489              	.L118:
1470:Drivers/STM32F3xx_HAL_Driver/Src/stm32f3xx_hal_i2c.c ****     }
1471:Drivers/STM32F3xx_HAL_Driver/Src/stm32f3xx_hal_i2c.c **** 
1472:Drivers/STM32F3xx_HAL_Driver/Src/stm32f3xx_hal_i2c.c ****     return HAL_OK;
 2490              		.loc 1 1472 0
 2491 015c 0023     		movs	r3, #0
 2492 015e 00E0     		b	.L113
 2493              	.L111:
1473:Drivers/STM32F3xx_HAL_Driver/Src/stm32f3xx_hal_i2c.c ****   }
1474:Drivers/STM32F3xx_HAL_Driver/Src/stm32f3xx_hal_i2c.c ****   else
1475:Drivers/STM32F3xx_HAL_Driver/Src/stm32f3xx_hal_i2c.c ****   {
1476:Drivers/STM32F3xx_HAL_Driver/Src/stm32f3xx_hal_i2c.c ****     return HAL_BUSY;
 2494              		.loc 1 1476 0
 2495 0160 0223     		movs	r3, #2
 2496              	.L113:
1477:Drivers/STM32F3xx_HAL_Driver/Src/stm32f3xx_hal_i2c.c ****   }
1478:Drivers/STM32F3xx_HAL_Driver/Src/stm32f3xx_hal_i2c.c **** }
 2497              		.loc 1 1478 0
 2498 0162 1846     		mov	r0, r3
 2499 0164 1837     		adds	r7, r7, #24
 2500              	.LCFI65:
 2501              		.cfi_def_cfa_offset 8
 2502 0166 BD46     		mov	sp, r7
 2503              	.LCFI66:
 2504              		.cfi_def_cfa_register 13
 2505              		@ sp needed
 2506 0168 80BD     		pop	{r7, pc}
 2507              	.L120:
 2508 016a 00BF     		.align	2
 2509              	.L119:
 2510 016c 0000FFFF 		.word	-65536
 2511 0170 00000000 		.word	I2C_Master_ISR_DMA
 2512 0174 00000000 		.word	I2C_DMAMasterTransmitCplt
 2513 0178 00000000 		.word	I2C_DMAError
 2514 017c 00000000 		.word	I2C_Master_ISR_IT
 2515              		.cfi_endproc
 2516              	.LFE707:
 2518              		.section	.text.HAL_I2C_Master_Receive_DMA,"ax",%progbits
 2519              		.align	1
 2520              		.global	HAL_I2C_Master_Receive_DMA
 2521              		.syntax unified
 2522              		.thumb
 2523              		.thumb_func
 2524              		.fpu fpv4-sp-d16
 2526              	HAL_I2C_Master_Receive_DMA:
 2527              	.LFB708:
1479:Drivers/STM32F3xx_HAL_Driver/Src/stm32f3xx_hal_i2c.c **** 
1480:Drivers/STM32F3xx_HAL_Driver/Src/stm32f3xx_hal_i2c.c **** /**
1481:Drivers/STM32F3xx_HAL_Driver/Src/stm32f3xx_hal_i2c.c ****   * @brief  Receive in master mode an amount of data in non-blocking mode with DMA
1482:Drivers/STM32F3xx_HAL_Driver/Src/stm32f3xx_hal_i2c.c ****   * @param  hi2c Pointer to a I2C_HandleTypeDef structure that contains
1483:Drivers/STM32F3xx_HAL_Driver/Src/stm32f3xx_hal_i2c.c ****   *                the configuration information for the specified I2C.
1484:Drivers/STM32F3xx_HAL_Driver/Src/stm32f3xx_hal_i2c.c ****   * @param  DevAddress Target device address: The device 7 bits address value
1485:Drivers/STM32F3xx_HAL_Driver/Src/stm32f3xx_hal_i2c.c ****   *         in datasheet must be shift at right before call interface
1486:Drivers/STM32F3xx_HAL_Driver/Src/stm32f3xx_hal_i2c.c ****   * @param  pData Pointer to data buffer
1487:Drivers/STM32F3xx_HAL_Driver/Src/stm32f3xx_hal_i2c.c ****   * @param  Size Amount of data to be sent
1488:Drivers/STM32F3xx_HAL_Driver/Src/stm32f3xx_hal_i2c.c ****   * @retval HAL status
ARM GAS  /tmp/ccy0jiyr.s 			page 71


1489:Drivers/STM32F3xx_HAL_Driver/Src/stm32f3xx_hal_i2c.c ****   */
1490:Drivers/STM32F3xx_HAL_Driver/Src/stm32f3xx_hal_i2c.c **** HAL_StatusTypeDef HAL_I2C_Master_Receive_DMA(I2C_HandleTypeDef *hi2c, uint16_t DevAddress, uint8_t 
1491:Drivers/STM32F3xx_HAL_Driver/Src/stm32f3xx_hal_i2c.c **** {
 2528              		.loc 1 1491 0
 2529              		.cfi_startproc
 2530              		@ args = 0, pretend = 0, frame = 24
 2531              		@ frame_needed = 1, uses_anonymous_args = 0
 2532 0000 80B5     		push	{r7, lr}
 2533              	.LCFI67:
 2534              		.cfi_def_cfa_offset 8
 2535              		.cfi_offset 7, -8
 2536              		.cfi_offset 14, -4
 2537 0002 88B0     		sub	sp, sp, #32
 2538              	.LCFI68:
 2539              		.cfi_def_cfa_offset 40
 2540 0004 02AF     		add	r7, sp, #8
 2541              	.LCFI69:
 2542              		.cfi_def_cfa 7, 32
 2543 0006 F860     		str	r0, [r7, #12]
 2544 0008 7A60     		str	r2, [r7, #4]
 2545 000a 1A46     		mov	r2, r3
 2546 000c 0B46     		mov	r3, r1	@ movhi
 2547 000e 7B81     		strh	r3, [r7, #10]	@ movhi
 2548 0010 1346     		mov	r3, r2	@ movhi
 2549 0012 3B81     		strh	r3, [r7, #8]	@ movhi
1492:Drivers/STM32F3xx_HAL_Driver/Src/stm32f3xx_hal_i2c.c ****   uint32_t xfermode = 0U;
 2550              		.loc 1 1492 0
 2551 0014 0023     		movs	r3, #0
 2552 0016 7B61     		str	r3, [r7, #20]
1493:Drivers/STM32F3xx_HAL_Driver/Src/stm32f3xx_hal_i2c.c **** 
1494:Drivers/STM32F3xx_HAL_Driver/Src/stm32f3xx_hal_i2c.c ****   if (hi2c->State == HAL_I2C_STATE_READY)
 2553              		.loc 1 1494 0
 2554 0018 FB68     		ldr	r3, [r7, #12]
 2555 001a 93F84130 		ldrb	r3, [r3, #65]
 2556 001e DBB2     		uxtb	r3, r3
 2557 0020 202B     		cmp	r3, #32
 2558 0022 40F09D80 		bne	.L122
1495:Drivers/STM32F3xx_HAL_Driver/Src/stm32f3xx_hal_i2c.c ****   {
1496:Drivers/STM32F3xx_HAL_Driver/Src/stm32f3xx_hal_i2c.c ****     if (__HAL_I2C_GET_FLAG(hi2c, I2C_FLAG_BUSY) == SET)
 2559              		.loc 1 1496 0
 2560 0026 FB68     		ldr	r3, [r7, #12]
 2561 0028 1B68     		ldr	r3, [r3]
 2562 002a 9B69     		ldr	r3, [r3, #24]
 2563 002c 03F40043 		and	r3, r3, #32768
 2564 0030 B3F5004F 		cmp	r3, #32768
 2565 0034 01D1     		bne	.L123
1497:Drivers/STM32F3xx_HAL_Driver/Src/stm32f3xx_hal_i2c.c ****     {
1498:Drivers/STM32F3xx_HAL_Driver/Src/stm32f3xx_hal_i2c.c ****       return HAL_BUSY;
 2566              		.loc 1 1498 0
 2567 0036 0223     		movs	r3, #2
 2568 0038 93E0     		b	.L124
 2569              	.L123:
1499:Drivers/STM32F3xx_HAL_Driver/Src/stm32f3xx_hal_i2c.c ****     }
1500:Drivers/STM32F3xx_HAL_Driver/Src/stm32f3xx_hal_i2c.c **** 
1501:Drivers/STM32F3xx_HAL_Driver/Src/stm32f3xx_hal_i2c.c ****     /* Process Locked */
1502:Drivers/STM32F3xx_HAL_Driver/Src/stm32f3xx_hal_i2c.c ****     __HAL_LOCK(hi2c);
 2570              		.loc 1 1502 0
ARM GAS  /tmp/ccy0jiyr.s 			page 72


 2571 003a FB68     		ldr	r3, [r7, #12]
 2572 003c 93F84030 		ldrb	r3, [r3, #64]	@ zero_extendqisi2
 2573 0040 012B     		cmp	r3, #1
 2574 0042 01D1     		bne	.L125
 2575              		.loc 1 1502 0 is_stmt 0 discriminator 1
 2576 0044 0223     		movs	r3, #2
 2577 0046 8CE0     		b	.L124
 2578              	.L125:
 2579              		.loc 1 1502 0 discriminator 2
 2580 0048 FB68     		ldr	r3, [r7, #12]
 2581 004a 0122     		movs	r2, #1
 2582 004c 83F84020 		strb	r2, [r3, #64]
1503:Drivers/STM32F3xx_HAL_Driver/Src/stm32f3xx_hal_i2c.c **** 
1504:Drivers/STM32F3xx_HAL_Driver/Src/stm32f3xx_hal_i2c.c ****     hi2c->State       = HAL_I2C_STATE_BUSY_RX;
 2583              		.loc 1 1504 0 is_stmt 1 discriminator 2
 2584 0050 FB68     		ldr	r3, [r7, #12]
 2585 0052 2222     		movs	r2, #34
 2586 0054 83F84120 		strb	r2, [r3, #65]
1505:Drivers/STM32F3xx_HAL_Driver/Src/stm32f3xx_hal_i2c.c ****     hi2c->Mode        = HAL_I2C_MODE_MASTER;
 2587              		.loc 1 1505 0 discriminator 2
 2588 0058 FB68     		ldr	r3, [r7, #12]
 2589 005a 1022     		movs	r2, #16
 2590 005c 83F84220 		strb	r2, [r3, #66]
1506:Drivers/STM32F3xx_HAL_Driver/Src/stm32f3xx_hal_i2c.c ****     hi2c->ErrorCode   = HAL_I2C_ERROR_NONE;
 2591              		.loc 1 1506 0 discriminator 2
 2592 0060 FB68     		ldr	r3, [r7, #12]
 2593 0062 0022     		movs	r2, #0
 2594 0064 5A64     		str	r2, [r3, #68]
1507:Drivers/STM32F3xx_HAL_Driver/Src/stm32f3xx_hal_i2c.c **** 
1508:Drivers/STM32F3xx_HAL_Driver/Src/stm32f3xx_hal_i2c.c ****     /* Prepare transfer parameters */
1509:Drivers/STM32F3xx_HAL_Driver/Src/stm32f3xx_hal_i2c.c ****     hi2c->pBuffPtr    = pData;
 2595              		.loc 1 1509 0 discriminator 2
 2596 0066 FB68     		ldr	r3, [r7, #12]
 2597 0068 7A68     		ldr	r2, [r7, #4]
 2598 006a 5A62     		str	r2, [r3, #36]
1510:Drivers/STM32F3xx_HAL_Driver/Src/stm32f3xx_hal_i2c.c ****     hi2c->XferCount   = Size;
 2599              		.loc 1 1510 0 discriminator 2
 2600 006c FB68     		ldr	r3, [r7, #12]
 2601 006e 3A89     		ldrh	r2, [r7, #8]	@ movhi
 2602 0070 5A85     		strh	r2, [r3, #42]	@ movhi
1511:Drivers/STM32F3xx_HAL_Driver/Src/stm32f3xx_hal_i2c.c ****     hi2c->XferOptions = I2C_NO_OPTION_FRAME;
 2603              		.loc 1 1511 0 discriminator 2
 2604 0072 FB68     		ldr	r3, [r7, #12]
 2605 0074 3D4A     		ldr	r2, .L130
 2606 0076 DA62     		str	r2, [r3, #44]
1512:Drivers/STM32F3xx_HAL_Driver/Src/stm32f3xx_hal_i2c.c ****     hi2c->XferISR     = I2C_Master_ISR_DMA;
 2607              		.loc 1 1512 0 discriminator 2
 2608 0078 FB68     		ldr	r3, [r7, #12]
 2609 007a 3D4A     		ldr	r2, .L130+4
 2610 007c 5A63     		str	r2, [r3, #52]
1513:Drivers/STM32F3xx_HAL_Driver/Src/stm32f3xx_hal_i2c.c **** 
1514:Drivers/STM32F3xx_HAL_Driver/Src/stm32f3xx_hal_i2c.c ****     if (hi2c->XferCount > MAX_NBYTE_SIZE)
 2611              		.loc 1 1514 0 discriminator 2
 2612 007e FB68     		ldr	r3, [r7, #12]
 2613 0080 5B8D     		ldrh	r3, [r3, #42]	@ movhi
 2614 0082 9BB2     		uxth	r3, r3
 2615 0084 FF2B     		cmp	r3, #255
ARM GAS  /tmp/ccy0jiyr.s 			page 73


 2616 0086 06D9     		bls	.L126
1515:Drivers/STM32F3xx_HAL_Driver/Src/stm32f3xx_hal_i2c.c ****     {
1516:Drivers/STM32F3xx_HAL_Driver/Src/stm32f3xx_hal_i2c.c ****       hi2c->XferSize = MAX_NBYTE_SIZE;
 2617              		.loc 1 1516 0
 2618 0088 FB68     		ldr	r3, [r7, #12]
 2619 008a FF22     		movs	r2, #255
 2620 008c 1A85     		strh	r2, [r3, #40]	@ movhi
1517:Drivers/STM32F3xx_HAL_Driver/Src/stm32f3xx_hal_i2c.c ****       xfermode = I2C_RELOAD_MODE;
 2621              		.loc 1 1517 0
 2622 008e 4FF08073 		mov	r3, #16777216
 2623 0092 7B61     		str	r3, [r7, #20]
 2624 0094 07E0     		b	.L127
 2625              	.L126:
1518:Drivers/STM32F3xx_HAL_Driver/Src/stm32f3xx_hal_i2c.c ****     }
1519:Drivers/STM32F3xx_HAL_Driver/Src/stm32f3xx_hal_i2c.c ****     else
1520:Drivers/STM32F3xx_HAL_Driver/Src/stm32f3xx_hal_i2c.c ****     {
1521:Drivers/STM32F3xx_HAL_Driver/Src/stm32f3xx_hal_i2c.c ****       hi2c->XferSize = hi2c->XferCount;
 2626              		.loc 1 1521 0
 2627 0096 FB68     		ldr	r3, [r7, #12]
 2628 0098 5B8D     		ldrh	r3, [r3, #42]	@ movhi
 2629 009a 9AB2     		uxth	r2, r3
 2630 009c FB68     		ldr	r3, [r7, #12]
 2631 009e 1A85     		strh	r2, [r3, #40]	@ movhi
1522:Drivers/STM32F3xx_HAL_Driver/Src/stm32f3xx_hal_i2c.c ****       xfermode = I2C_AUTOEND_MODE;
 2632              		.loc 1 1522 0
 2633 00a0 4FF00073 		mov	r3, #33554432
 2634 00a4 7B61     		str	r3, [r7, #20]
 2635              	.L127:
1523:Drivers/STM32F3xx_HAL_Driver/Src/stm32f3xx_hal_i2c.c ****     }
1524:Drivers/STM32F3xx_HAL_Driver/Src/stm32f3xx_hal_i2c.c **** 
1525:Drivers/STM32F3xx_HAL_Driver/Src/stm32f3xx_hal_i2c.c ****     if (hi2c->XferSize > 0U)
 2636              		.loc 1 1525 0
 2637 00a6 FB68     		ldr	r3, [r7, #12]
 2638 00a8 1B8D     		ldrh	r3, [r3, #40]
 2639 00aa 002B     		cmp	r3, #0
 2640 00ac 3FD0     		beq	.L128
1526:Drivers/STM32F3xx_HAL_Driver/Src/stm32f3xx_hal_i2c.c ****     {
1527:Drivers/STM32F3xx_HAL_Driver/Src/stm32f3xx_hal_i2c.c ****       /* Set the I2C DMA transfer complete callback */
1528:Drivers/STM32F3xx_HAL_Driver/Src/stm32f3xx_hal_i2c.c ****       hi2c->hdmarx->XferCpltCallback = I2C_DMAMasterReceiveCplt;
 2641              		.loc 1 1528 0
 2642 00ae FB68     		ldr	r3, [r7, #12]
 2643 00b0 DB6B     		ldr	r3, [r3, #60]
 2644 00b2 304A     		ldr	r2, .L130+8
 2645 00b4 9A62     		str	r2, [r3, #40]
1529:Drivers/STM32F3xx_HAL_Driver/Src/stm32f3xx_hal_i2c.c **** 
1530:Drivers/STM32F3xx_HAL_Driver/Src/stm32f3xx_hal_i2c.c ****       /* Set the DMA error callback */
1531:Drivers/STM32F3xx_HAL_Driver/Src/stm32f3xx_hal_i2c.c ****       hi2c->hdmarx->XferErrorCallback = I2C_DMAError;
 2646              		.loc 1 1531 0
 2647 00b6 FB68     		ldr	r3, [r7, #12]
 2648 00b8 DB6B     		ldr	r3, [r3, #60]
 2649 00ba 2F4A     		ldr	r2, .L130+12
 2650 00bc 1A63     		str	r2, [r3, #48]
1532:Drivers/STM32F3xx_HAL_Driver/Src/stm32f3xx_hal_i2c.c **** 
1533:Drivers/STM32F3xx_HAL_Driver/Src/stm32f3xx_hal_i2c.c ****       /* Set the unused DMA callbacks to NULL */
1534:Drivers/STM32F3xx_HAL_Driver/Src/stm32f3xx_hal_i2c.c ****       hi2c->hdmarx->XferHalfCpltCallback = NULL;
 2651              		.loc 1 1534 0
 2652 00be FB68     		ldr	r3, [r7, #12]
ARM GAS  /tmp/ccy0jiyr.s 			page 74


 2653 00c0 DB6B     		ldr	r3, [r3, #60]
 2654 00c2 0022     		movs	r2, #0
 2655 00c4 DA62     		str	r2, [r3, #44]
1535:Drivers/STM32F3xx_HAL_Driver/Src/stm32f3xx_hal_i2c.c ****       hi2c->hdmarx->XferAbortCallback = NULL;
 2656              		.loc 1 1535 0
 2657 00c6 FB68     		ldr	r3, [r7, #12]
 2658 00c8 DB6B     		ldr	r3, [r3, #60]
 2659 00ca 0022     		movs	r2, #0
 2660 00cc 5A63     		str	r2, [r3, #52]
1536:Drivers/STM32F3xx_HAL_Driver/Src/stm32f3xx_hal_i2c.c **** 
1537:Drivers/STM32F3xx_HAL_Driver/Src/stm32f3xx_hal_i2c.c ****       /* Enable the DMA channel */
1538:Drivers/STM32F3xx_HAL_Driver/Src/stm32f3xx_hal_i2c.c ****       HAL_DMA_Start_IT(hi2c->hdmarx, (uint32_t)&hi2c->Instance->RXDR, (uint32_t)pData, hi2c->XferSi
 2661              		.loc 1 1538 0
 2662 00ce FB68     		ldr	r3, [r7, #12]
 2663 00d0 D86B     		ldr	r0, [r3, #60]
 2664 00d2 FB68     		ldr	r3, [r7, #12]
 2665 00d4 1B68     		ldr	r3, [r3]
 2666 00d6 2433     		adds	r3, r3, #36
 2667 00d8 1946     		mov	r1, r3
 2668 00da 7A68     		ldr	r2, [r7, #4]
 2669 00dc FB68     		ldr	r3, [r7, #12]
 2670 00de 1B8D     		ldrh	r3, [r3, #40]
 2671 00e0 FFF7FEFF 		bl	HAL_DMA_Start_IT
1539:Drivers/STM32F3xx_HAL_Driver/Src/stm32f3xx_hal_i2c.c **** 
1540:Drivers/STM32F3xx_HAL_Driver/Src/stm32f3xx_hal_i2c.c ****       /* Send Slave Address */
1541:Drivers/STM32F3xx_HAL_Driver/Src/stm32f3xx_hal_i2c.c ****       /* Set NBYTES to read and reload if hi2c->XferCount > MAX_NBYTE_SIZE and generate RESTART */
1542:Drivers/STM32F3xx_HAL_Driver/Src/stm32f3xx_hal_i2c.c ****       I2C_TransferConfig(hi2c, DevAddress, hi2c->XferSize, xfermode, I2C_GENERATE_START_READ);
 2672              		.loc 1 1542 0
 2673 00e4 FB68     		ldr	r3, [r7, #12]
 2674 00e6 1B8D     		ldrh	r3, [r3, #40]
 2675 00e8 DAB2     		uxtb	r2, r3
 2676 00ea 7989     		ldrh	r1, [r7, #10]
 2677 00ec 4FF41053 		mov	r3, #9216
 2678 00f0 0093     		str	r3, [sp]
 2679 00f2 7B69     		ldr	r3, [r7, #20]
 2680 00f4 F868     		ldr	r0, [r7, #12]
 2681 00f6 FFF7FEFF 		bl	I2C_TransferConfig
1543:Drivers/STM32F3xx_HAL_Driver/Src/stm32f3xx_hal_i2c.c **** 
1544:Drivers/STM32F3xx_HAL_Driver/Src/stm32f3xx_hal_i2c.c ****       /* Update XferCount value */
1545:Drivers/STM32F3xx_HAL_Driver/Src/stm32f3xx_hal_i2c.c ****       hi2c->XferCount -= hi2c->XferSize;
 2682              		.loc 1 1545 0
 2683 00fa FB68     		ldr	r3, [r7, #12]
 2684 00fc 5B8D     		ldrh	r3, [r3, #42]	@ movhi
 2685 00fe 9AB2     		uxth	r2, r3
 2686 0100 FB68     		ldr	r3, [r7, #12]
 2687 0102 1B8D     		ldrh	r3, [r3, #40]
 2688 0104 D31A     		subs	r3, r2, r3
 2689 0106 9AB2     		uxth	r2, r3
 2690 0108 FB68     		ldr	r3, [r7, #12]
 2691 010a 5A85     		strh	r2, [r3, #42]	@ movhi
1546:Drivers/STM32F3xx_HAL_Driver/Src/stm32f3xx_hal_i2c.c **** 
1547:Drivers/STM32F3xx_HAL_Driver/Src/stm32f3xx_hal_i2c.c ****       /* Process Unlocked */
1548:Drivers/STM32F3xx_HAL_Driver/Src/stm32f3xx_hal_i2c.c ****       __HAL_UNLOCK(hi2c);
 2692              		.loc 1 1548 0
 2693 010c FB68     		ldr	r3, [r7, #12]
 2694 010e 0022     		movs	r2, #0
 2695 0110 83F84020 		strb	r2, [r3, #64]
ARM GAS  /tmp/ccy0jiyr.s 			page 75


1549:Drivers/STM32F3xx_HAL_Driver/Src/stm32f3xx_hal_i2c.c **** 
1550:Drivers/STM32F3xx_HAL_Driver/Src/stm32f3xx_hal_i2c.c ****       /* Note : The I2C interrupts must be enabled after unlocking current process
1551:Drivers/STM32F3xx_HAL_Driver/Src/stm32f3xx_hal_i2c.c ****                 to avoid the risk of I2C interrupt handle execution before current
1552:Drivers/STM32F3xx_HAL_Driver/Src/stm32f3xx_hal_i2c.c ****                 process unlock */
1553:Drivers/STM32F3xx_HAL_Driver/Src/stm32f3xx_hal_i2c.c ****       /* Enable ERR and NACK interrupts */
1554:Drivers/STM32F3xx_HAL_Driver/Src/stm32f3xx_hal_i2c.c ****       I2C_Enable_IRQ(hi2c, I2C_XFER_ERROR_IT);
 2696              		.loc 1 1554 0
 2697 0114 1121     		movs	r1, #17
 2698 0116 F868     		ldr	r0, [r7, #12]
 2699 0118 FFF7FEFF 		bl	I2C_Enable_IRQ
1555:Drivers/STM32F3xx_HAL_Driver/Src/stm32f3xx_hal_i2c.c **** 
1556:Drivers/STM32F3xx_HAL_Driver/Src/stm32f3xx_hal_i2c.c ****       /* Enable DMA Request */
1557:Drivers/STM32F3xx_HAL_Driver/Src/stm32f3xx_hal_i2c.c ****       hi2c->Instance->CR1 |= I2C_CR1_RXDMAEN;
 2700              		.loc 1 1557 0
 2701 011c FB68     		ldr	r3, [r7, #12]
 2702 011e 1B68     		ldr	r3, [r3]
 2703 0120 1A68     		ldr	r2, [r3]
 2704 0122 FB68     		ldr	r3, [r7, #12]
 2705 0124 1B68     		ldr	r3, [r3]
 2706 0126 42F40042 		orr	r2, r2, #32768
 2707 012a 1A60     		str	r2, [r3]
 2708 012c 16E0     		b	.L129
 2709              	.L128:
1558:Drivers/STM32F3xx_HAL_Driver/Src/stm32f3xx_hal_i2c.c ****     }
1559:Drivers/STM32F3xx_HAL_Driver/Src/stm32f3xx_hal_i2c.c ****     else
1560:Drivers/STM32F3xx_HAL_Driver/Src/stm32f3xx_hal_i2c.c ****     {
1561:Drivers/STM32F3xx_HAL_Driver/Src/stm32f3xx_hal_i2c.c ****       /* Update Transfer ISR function pointer */
1562:Drivers/STM32F3xx_HAL_Driver/Src/stm32f3xx_hal_i2c.c ****       hi2c->XferISR = I2C_Master_ISR_IT;
 2710              		.loc 1 1562 0
 2711 012e FB68     		ldr	r3, [r7, #12]
 2712 0130 124A     		ldr	r2, .L130+16
 2713 0132 5A63     		str	r2, [r3, #52]
1563:Drivers/STM32F3xx_HAL_Driver/Src/stm32f3xx_hal_i2c.c **** 
1564:Drivers/STM32F3xx_HAL_Driver/Src/stm32f3xx_hal_i2c.c ****       /* Send Slave Address */
1565:Drivers/STM32F3xx_HAL_Driver/Src/stm32f3xx_hal_i2c.c ****       /* Set NBYTES to read and generate START condition */
1566:Drivers/STM32F3xx_HAL_Driver/Src/stm32f3xx_hal_i2c.c ****       I2C_TransferConfig(hi2c, DevAddress, hi2c->XferSize, I2C_AUTOEND_MODE, I2C_GENERATE_START_REA
 2714              		.loc 1 1566 0
 2715 0134 FB68     		ldr	r3, [r7, #12]
 2716 0136 1B8D     		ldrh	r3, [r3, #40]
 2717 0138 DAB2     		uxtb	r2, r3
 2718 013a 7989     		ldrh	r1, [r7, #10]
 2719 013c 4FF41053 		mov	r3, #9216
 2720 0140 0093     		str	r3, [sp]
 2721 0142 4FF00073 		mov	r3, #33554432
 2722 0146 F868     		ldr	r0, [r7, #12]
 2723 0148 FFF7FEFF 		bl	I2C_TransferConfig
1567:Drivers/STM32F3xx_HAL_Driver/Src/stm32f3xx_hal_i2c.c **** 
1568:Drivers/STM32F3xx_HAL_Driver/Src/stm32f3xx_hal_i2c.c ****       /* Process Unlocked */
1569:Drivers/STM32F3xx_HAL_Driver/Src/stm32f3xx_hal_i2c.c ****       __HAL_UNLOCK(hi2c);
 2724              		.loc 1 1569 0
 2725 014c FB68     		ldr	r3, [r7, #12]
 2726 014e 0022     		movs	r2, #0
 2727 0150 83F84020 		strb	r2, [r3, #64]
1570:Drivers/STM32F3xx_HAL_Driver/Src/stm32f3xx_hal_i2c.c **** 
1571:Drivers/STM32F3xx_HAL_Driver/Src/stm32f3xx_hal_i2c.c ****       /* Note : The I2C interrupts must be enabled after unlocking current process
1572:Drivers/STM32F3xx_HAL_Driver/Src/stm32f3xx_hal_i2c.c ****                 to avoid the risk of I2C interrupt handle execution before current
1573:Drivers/STM32F3xx_HAL_Driver/Src/stm32f3xx_hal_i2c.c ****                 process unlock */
ARM GAS  /tmp/ccy0jiyr.s 			page 76


1574:Drivers/STM32F3xx_HAL_Driver/Src/stm32f3xx_hal_i2c.c ****       /* Enable ERR, TC, STOP, NACK, TXI interrupt */
1575:Drivers/STM32F3xx_HAL_Driver/Src/stm32f3xx_hal_i2c.c ****       /* possible to enable all of these */
1576:Drivers/STM32F3xx_HAL_Driver/Src/stm32f3xx_hal_i2c.c ****       /* I2C_IT_ERRI | I2C_IT_TCI| I2C_IT_STOPI| I2C_IT_NACKI | I2C_IT_ADDRI | I2C_IT_RXI | I2C_IT_
1577:Drivers/STM32F3xx_HAL_Driver/Src/stm32f3xx_hal_i2c.c ****       I2C_Enable_IRQ(hi2c, I2C_XFER_TX_IT);
 2728              		.loc 1 1577 0
 2729 0154 0121     		movs	r1, #1
 2730 0156 F868     		ldr	r0, [r7, #12]
 2731 0158 FFF7FEFF 		bl	I2C_Enable_IRQ
 2732              	.L129:
1578:Drivers/STM32F3xx_HAL_Driver/Src/stm32f3xx_hal_i2c.c ****     }
1579:Drivers/STM32F3xx_HAL_Driver/Src/stm32f3xx_hal_i2c.c ****     return HAL_OK;
 2733              		.loc 1 1579 0
 2734 015c 0023     		movs	r3, #0
 2735 015e 00E0     		b	.L124
 2736              	.L122:
1580:Drivers/STM32F3xx_HAL_Driver/Src/stm32f3xx_hal_i2c.c ****   }
1581:Drivers/STM32F3xx_HAL_Driver/Src/stm32f3xx_hal_i2c.c ****   else
1582:Drivers/STM32F3xx_HAL_Driver/Src/stm32f3xx_hal_i2c.c ****   {
1583:Drivers/STM32F3xx_HAL_Driver/Src/stm32f3xx_hal_i2c.c ****     return HAL_BUSY;
 2737              		.loc 1 1583 0
 2738 0160 0223     		movs	r3, #2
 2739              	.L124:
1584:Drivers/STM32F3xx_HAL_Driver/Src/stm32f3xx_hal_i2c.c ****   }
1585:Drivers/STM32F3xx_HAL_Driver/Src/stm32f3xx_hal_i2c.c **** }
 2740              		.loc 1 1585 0
 2741 0162 1846     		mov	r0, r3
 2742 0164 1837     		adds	r7, r7, #24
 2743              	.LCFI70:
 2744              		.cfi_def_cfa_offset 8
 2745 0166 BD46     		mov	sp, r7
 2746              	.LCFI71:
 2747              		.cfi_def_cfa_register 13
 2748              		@ sp needed
 2749 0168 80BD     		pop	{r7, pc}
 2750              	.L131:
 2751 016a 00BF     		.align	2
 2752              	.L130:
 2753 016c 0000FFFF 		.word	-65536
 2754 0170 00000000 		.word	I2C_Master_ISR_DMA
 2755 0174 00000000 		.word	I2C_DMAMasterReceiveCplt
 2756 0178 00000000 		.word	I2C_DMAError
 2757 017c 00000000 		.word	I2C_Master_ISR_IT
 2758              		.cfi_endproc
 2759              	.LFE708:
 2761              		.section	.text.HAL_I2C_Slave_Transmit_DMA,"ax",%progbits
 2762              		.align	1
 2763              		.global	HAL_I2C_Slave_Transmit_DMA
 2764              		.syntax unified
 2765              		.thumb
 2766              		.thumb_func
 2767              		.fpu fpv4-sp-d16
 2769              	HAL_I2C_Slave_Transmit_DMA:
 2770              	.LFB709:
1586:Drivers/STM32F3xx_HAL_Driver/Src/stm32f3xx_hal_i2c.c **** 
1587:Drivers/STM32F3xx_HAL_Driver/Src/stm32f3xx_hal_i2c.c **** /**
1588:Drivers/STM32F3xx_HAL_Driver/Src/stm32f3xx_hal_i2c.c ****   * @brief  Transmit in slave mode an amount of data in non-blocking mode with DMA
1589:Drivers/STM32F3xx_HAL_Driver/Src/stm32f3xx_hal_i2c.c ****   * @param  hi2c Pointer to a I2C_HandleTypeDef structure that contains
ARM GAS  /tmp/ccy0jiyr.s 			page 77


1590:Drivers/STM32F3xx_HAL_Driver/Src/stm32f3xx_hal_i2c.c ****   *                the configuration information for the specified I2C.
1591:Drivers/STM32F3xx_HAL_Driver/Src/stm32f3xx_hal_i2c.c ****   * @param  pData Pointer to data buffer
1592:Drivers/STM32F3xx_HAL_Driver/Src/stm32f3xx_hal_i2c.c ****   * @param  Size Amount of data to be sent
1593:Drivers/STM32F3xx_HAL_Driver/Src/stm32f3xx_hal_i2c.c ****   * @retval HAL status
1594:Drivers/STM32F3xx_HAL_Driver/Src/stm32f3xx_hal_i2c.c ****   */
1595:Drivers/STM32F3xx_HAL_Driver/Src/stm32f3xx_hal_i2c.c **** HAL_StatusTypeDef HAL_I2C_Slave_Transmit_DMA(I2C_HandleTypeDef *hi2c, uint8_t *pData, uint16_t Size
1596:Drivers/STM32F3xx_HAL_Driver/Src/stm32f3xx_hal_i2c.c **** {
 2771              		.loc 1 1596 0
 2772              		.cfi_startproc
 2773              		@ args = 0, pretend = 0, frame = 16
 2774              		@ frame_needed = 1, uses_anonymous_args = 0
 2775 0000 80B5     		push	{r7, lr}
 2776              	.LCFI72:
 2777              		.cfi_def_cfa_offset 8
 2778              		.cfi_offset 7, -8
 2779              		.cfi_offset 14, -4
 2780 0002 84B0     		sub	sp, sp, #16
 2781              	.LCFI73:
 2782              		.cfi_def_cfa_offset 24
 2783 0004 00AF     		add	r7, sp, #0
 2784              	.LCFI74:
 2785              		.cfi_def_cfa_register 7
 2786 0006 F860     		str	r0, [r7, #12]
 2787 0008 B960     		str	r1, [r7, #8]
 2788 000a 1346     		mov	r3, r2
 2789 000c FB80     		strh	r3, [r7, #6]	@ movhi
1597:Drivers/STM32F3xx_HAL_Driver/Src/stm32f3xx_hal_i2c.c ****   if (hi2c->State == HAL_I2C_STATE_READY)
 2790              		.loc 1 1597 0
 2791 000e FB68     		ldr	r3, [r7, #12]
 2792 0010 93F84130 		ldrb	r3, [r3, #65]
 2793 0014 DBB2     		uxtb	r3, r3
 2794 0016 202B     		cmp	r3, #32
 2795 0018 63D1     		bne	.L133
1598:Drivers/STM32F3xx_HAL_Driver/Src/stm32f3xx_hal_i2c.c ****   {
1599:Drivers/STM32F3xx_HAL_Driver/Src/stm32f3xx_hal_i2c.c ****     if ((pData == NULL) || (Size == 0U))
 2796              		.loc 1 1599 0
 2797 001a BB68     		ldr	r3, [r7, #8]
 2798 001c 002B     		cmp	r3, #0
 2799 001e 02D0     		beq	.L134
 2800              		.loc 1 1599 0 is_stmt 0 discriminator 1
 2801 0020 FB88     		ldrh	r3, [r7, #6]
 2802 0022 002B     		cmp	r3, #0
 2803 0024 01D1     		bne	.L135
 2804              	.L134:
1600:Drivers/STM32F3xx_HAL_Driver/Src/stm32f3xx_hal_i2c.c ****     {
1601:Drivers/STM32F3xx_HAL_Driver/Src/stm32f3xx_hal_i2c.c ****       return  HAL_ERROR;
 2805              		.loc 1 1601 0 is_stmt 1
 2806 0026 0123     		movs	r3, #1
 2807 0028 5CE0     		b	.L136
 2808              	.L135:
1602:Drivers/STM32F3xx_HAL_Driver/Src/stm32f3xx_hal_i2c.c ****     }
1603:Drivers/STM32F3xx_HAL_Driver/Src/stm32f3xx_hal_i2c.c ****     /* Process Locked */
1604:Drivers/STM32F3xx_HAL_Driver/Src/stm32f3xx_hal_i2c.c ****     __HAL_LOCK(hi2c);
 2809              		.loc 1 1604 0
 2810 002a FB68     		ldr	r3, [r7, #12]
 2811 002c 93F84030 		ldrb	r3, [r3, #64]	@ zero_extendqisi2
 2812 0030 012B     		cmp	r3, #1
ARM GAS  /tmp/ccy0jiyr.s 			page 78


 2813 0032 01D1     		bne	.L137
 2814              		.loc 1 1604 0 is_stmt 0 discriminator 1
 2815 0034 0223     		movs	r3, #2
 2816 0036 55E0     		b	.L136
 2817              	.L137:
 2818              		.loc 1 1604 0 discriminator 2
 2819 0038 FB68     		ldr	r3, [r7, #12]
 2820 003a 0122     		movs	r2, #1
 2821 003c 83F84020 		strb	r2, [r3, #64]
1605:Drivers/STM32F3xx_HAL_Driver/Src/stm32f3xx_hal_i2c.c **** 
1606:Drivers/STM32F3xx_HAL_Driver/Src/stm32f3xx_hal_i2c.c ****     hi2c->State       = HAL_I2C_STATE_BUSY_TX;
 2822              		.loc 1 1606 0 is_stmt 1 discriminator 2
 2823 0040 FB68     		ldr	r3, [r7, #12]
 2824 0042 2122     		movs	r2, #33
 2825 0044 83F84120 		strb	r2, [r3, #65]
1607:Drivers/STM32F3xx_HAL_Driver/Src/stm32f3xx_hal_i2c.c ****     hi2c->Mode        = HAL_I2C_MODE_SLAVE;
 2826              		.loc 1 1607 0 discriminator 2
 2827 0048 FB68     		ldr	r3, [r7, #12]
 2828 004a 2022     		movs	r2, #32
 2829 004c 83F84220 		strb	r2, [r3, #66]
1608:Drivers/STM32F3xx_HAL_Driver/Src/stm32f3xx_hal_i2c.c ****     hi2c->ErrorCode   = HAL_I2C_ERROR_NONE;
 2830              		.loc 1 1608 0 discriminator 2
 2831 0050 FB68     		ldr	r3, [r7, #12]
 2832 0052 0022     		movs	r2, #0
 2833 0054 5A64     		str	r2, [r3, #68]
1609:Drivers/STM32F3xx_HAL_Driver/Src/stm32f3xx_hal_i2c.c **** 
1610:Drivers/STM32F3xx_HAL_Driver/Src/stm32f3xx_hal_i2c.c ****     /* Prepare transfer parameters */
1611:Drivers/STM32F3xx_HAL_Driver/Src/stm32f3xx_hal_i2c.c ****     hi2c->pBuffPtr    = pData;
 2834              		.loc 1 1611 0 discriminator 2
 2835 0056 FB68     		ldr	r3, [r7, #12]
 2836 0058 BA68     		ldr	r2, [r7, #8]
 2837 005a 5A62     		str	r2, [r3, #36]
1612:Drivers/STM32F3xx_HAL_Driver/Src/stm32f3xx_hal_i2c.c ****     hi2c->XferCount   = Size;
 2838              		.loc 1 1612 0 discriminator 2
 2839 005c FB68     		ldr	r3, [r7, #12]
 2840 005e FA88     		ldrh	r2, [r7, #6]	@ movhi
 2841 0060 5A85     		strh	r2, [r3, #42]	@ movhi
1613:Drivers/STM32F3xx_HAL_Driver/Src/stm32f3xx_hal_i2c.c ****     hi2c->XferSize    = hi2c->XferCount;
 2842              		.loc 1 1613 0 discriminator 2
 2843 0062 FB68     		ldr	r3, [r7, #12]
 2844 0064 5B8D     		ldrh	r3, [r3, #42]	@ movhi
 2845 0066 9AB2     		uxth	r2, r3
 2846 0068 FB68     		ldr	r3, [r7, #12]
 2847 006a 1A85     		strh	r2, [r3, #40]	@ movhi
1614:Drivers/STM32F3xx_HAL_Driver/Src/stm32f3xx_hal_i2c.c ****     hi2c->XferOptions = I2C_NO_OPTION_FRAME;
 2848              		.loc 1 1614 0 discriminator 2
 2849 006c FB68     		ldr	r3, [r7, #12]
 2850 006e 1F4A     		ldr	r2, .L138
 2851 0070 DA62     		str	r2, [r3, #44]
1615:Drivers/STM32F3xx_HAL_Driver/Src/stm32f3xx_hal_i2c.c ****     hi2c->XferISR     = I2C_Slave_ISR_DMA;
 2852              		.loc 1 1615 0 discriminator 2
 2853 0072 FB68     		ldr	r3, [r7, #12]
 2854 0074 1E4A     		ldr	r2, .L138+4
 2855 0076 5A63     		str	r2, [r3, #52]
1616:Drivers/STM32F3xx_HAL_Driver/Src/stm32f3xx_hal_i2c.c **** 
1617:Drivers/STM32F3xx_HAL_Driver/Src/stm32f3xx_hal_i2c.c ****     /* Set the I2C DMA transfer complete callback */
1618:Drivers/STM32F3xx_HAL_Driver/Src/stm32f3xx_hal_i2c.c ****     hi2c->hdmatx->XferCpltCallback = I2C_DMASlaveTransmitCplt;
ARM GAS  /tmp/ccy0jiyr.s 			page 79


 2856              		.loc 1 1618 0 discriminator 2
 2857 0078 FB68     		ldr	r3, [r7, #12]
 2858 007a 9B6B     		ldr	r3, [r3, #56]
 2859 007c 1D4A     		ldr	r2, .L138+8
 2860 007e 9A62     		str	r2, [r3, #40]
1619:Drivers/STM32F3xx_HAL_Driver/Src/stm32f3xx_hal_i2c.c **** 
1620:Drivers/STM32F3xx_HAL_Driver/Src/stm32f3xx_hal_i2c.c ****     /* Set the DMA error callback */
1621:Drivers/STM32F3xx_HAL_Driver/Src/stm32f3xx_hal_i2c.c ****     hi2c->hdmatx->XferErrorCallback = I2C_DMAError;
 2861              		.loc 1 1621 0 discriminator 2
 2862 0080 FB68     		ldr	r3, [r7, #12]
 2863 0082 9B6B     		ldr	r3, [r3, #56]
 2864 0084 1C4A     		ldr	r2, .L138+12
 2865 0086 1A63     		str	r2, [r3, #48]
1622:Drivers/STM32F3xx_HAL_Driver/Src/stm32f3xx_hal_i2c.c **** 
1623:Drivers/STM32F3xx_HAL_Driver/Src/stm32f3xx_hal_i2c.c ****     /* Set the unused DMA callbacks to NULL */
1624:Drivers/STM32F3xx_HAL_Driver/Src/stm32f3xx_hal_i2c.c ****     hi2c->hdmatx->XferHalfCpltCallback = NULL;
 2866              		.loc 1 1624 0 discriminator 2
 2867 0088 FB68     		ldr	r3, [r7, #12]
 2868 008a 9B6B     		ldr	r3, [r3, #56]
 2869 008c 0022     		movs	r2, #0
 2870 008e DA62     		str	r2, [r3, #44]
1625:Drivers/STM32F3xx_HAL_Driver/Src/stm32f3xx_hal_i2c.c ****     hi2c->hdmatx->XferAbortCallback = NULL;
 2871              		.loc 1 1625 0 discriminator 2
 2872 0090 FB68     		ldr	r3, [r7, #12]
 2873 0092 9B6B     		ldr	r3, [r3, #56]
 2874 0094 0022     		movs	r2, #0
 2875 0096 5A63     		str	r2, [r3, #52]
1626:Drivers/STM32F3xx_HAL_Driver/Src/stm32f3xx_hal_i2c.c **** 
1627:Drivers/STM32F3xx_HAL_Driver/Src/stm32f3xx_hal_i2c.c ****     /* Enable the DMA channel */
1628:Drivers/STM32F3xx_HAL_Driver/Src/stm32f3xx_hal_i2c.c ****     HAL_DMA_Start_IT(hi2c->hdmatx, (uint32_t)pData, (uint32_t)&hi2c->Instance->TXDR, hi2c->XferSize
 2876              		.loc 1 1628 0 discriminator 2
 2877 0098 FB68     		ldr	r3, [r7, #12]
 2878 009a 986B     		ldr	r0, [r3, #56]
 2879 009c B968     		ldr	r1, [r7, #8]
 2880 009e FB68     		ldr	r3, [r7, #12]
 2881 00a0 1B68     		ldr	r3, [r3]
 2882 00a2 2833     		adds	r3, r3, #40
 2883 00a4 1A46     		mov	r2, r3
 2884 00a6 FB68     		ldr	r3, [r7, #12]
 2885 00a8 1B8D     		ldrh	r3, [r3, #40]
 2886 00aa FFF7FEFF 		bl	HAL_DMA_Start_IT
1629:Drivers/STM32F3xx_HAL_Driver/Src/stm32f3xx_hal_i2c.c **** 
1630:Drivers/STM32F3xx_HAL_Driver/Src/stm32f3xx_hal_i2c.c ****     /* Enable Address Acknowledge */
1631:Drivers/STM32F3xx_HAL_Driver/Src/stm32f3xx_hal_i2c.c ****     hi2c->Instance->CR2 &= ~I2C_CR2_NACK;
 2887              		.loc 1 1631 0 discriminator 2
 2888 00ae FB68     		ldr	r3, [r7, #12]
 2889 00b0 1B68     		ldr	r3, [r3]
 2890 00b2 5A68     		ldr	r2, [r3, #4]
 2891 00b4 FB68     		ldr	r3, [r7, #12]
 2892 00b6 1B68     		ldr	r3, [r3]
 2893 00b8 22F40042 		bic	r2, r2, #32768
 2894 00bc 5A60     		str	r2, [r3, #4]
1632:Drivers/STM32F3xx_HAL_Driver/Src/stm32f3xx_hal_i2c.c **** 
1633:Drivers/STM32F3xx_HAL_Driver/Src/stm32f3xx_hal_i2c.c ****     /* Process Unlocked */
1634:Drivers/STM32F3xx_HAL_Driver/Src/stm32f3xx_hal_i2c.c ****     __HAL_UNLOCK(hi2c);
 2895              		.loc 1 1634 0 discriminator 2
 2896 00be FB68     		ldr	r3, [r7, #12]
ARM GAS  /tmp/ccy0jiyr.s 			page 80


 2897 00c0 0022     		movs	r2, #0
 2898 00c2 83F84020 		strb	r2, [r3, #64]
1635:Drivers/STM32F3xx_HAL_Driver/Src/stm32f3xx_hal_i2c.c **** 
1636:Drivers/STM32F3xx_HAL_Driver/Src/stm32f3xx_hal_i2c.c ****     /* Note : The I2C interrupts must be enabled after unlocking current process
1637:Drivers/STM32F3xx_HAL_Driver/Src/stm32f3xx_hal_i2c.c ****               to avoid the risk of I2C interrupt handle execution before current
1638:Drivers/STM32F3xx_HAL_Driver/Src/stm32f3xx_hal_i2c.c ****               process unlock */
1639:Drivers/STM32F3xx_HAL_Driver/Src/stm32f3xx_hal_i2c.c ****     /* Enable ERR, STOP, NACK, ADDR interrupts */
1640:Drivers/STM32F3xx_HAL_Driver/Src/stm32f3xx_hal_i2c.c ****     I2C_Enable_IRQ(hi2c, I2C_XFER_LISTEN_IT);
 2899              		.loc 1 1640 0 discriminator 2
 2900 00c6 0421     		movs	r1, #4
 2901 00c8 F868     		ldr	r0, [r7, #12]
 2902 00ca FFF7FEFF 		bl	I2C_Enable_IRQ
1641:Drivers/STM32F3xx_HAL_Driver/Src/stm32f3xx_hal_i2c.c **** 
1642:Drivers/STM32F3xx_HAL_Driver/Src/stm32f3xx_hal_i2c.c ****     /* Enable DMA Request */
1643:Drivers/STM32F3xx_HAL_Driver/Src/stm32f3xx_hal_i2c.c ****     hi2c->Instance->CR1 |= I2C_CR1_TXDMAEN;
 2903              		.loc 1 1643 0 discriminator 2
 2904 00ce FB68     		ldr	r3, [r7, #12]
 2905 00d0 1B68     		ldr	r3, [r3]
 2906 00d2 1A68     		ldr	r2, [r3]
 2907 00d4 FB68     		ldr	r3, [r7, #12]
 2908 00d6 1B68     		ldr	r3, [r3]
 2909 00d8 42F48042 		orr	r2, r2, #16384
 2910 00dc 1A60     		str	r2, [r3]
1644:Drivers/STM32F3xx_HAL_Driver/Src/stm32f3xx_hal_i2c.c **** 
1645:Drivers/STM32F3xx_HAL_Driver/Src/stm32f3xx_hal_i2c.c ****     return HAL_OK;
 2911              		.loc 1 1645 0 discriminator 2
 2912 00de 0023     		movs	r3, #0
 2913 00e0 00E0     		b	.L136
 2914              	.L133:
1646:Drivers/STM32F3xx_HAL_Driver/Src/stm32f3xx_hal_i2c.c ****   }
1647:Drivers/STM32F3xx_HAL_Driver/Src/stm32f3xx_hal_i2c.c ****   else
1648:Drivers/STM32F3xx_HAL_Driver/Src/stm32f3xx_hal_i2c.c ****   {
1649:Drivers/STM32F3xx_HAL_Driver/Src/stm32f3xx_hal_i2c.c ****     return HAL_BUSY;
 2915              		.loc 1 1649 0
 2916 00e2 0223     		movs	r3, #2
 2917              	.L136:
1650:Drivers/STM32F3xx_HAL_Driver/Src/stm32f3xx_hal_i2c.c ****   }
1651:Drivers/STM32F3xx_HAL_Driver/Src/stm32f3xx_hal_i2c.c **** }
 2918              		.loc 1 1651 0
 2919 00e4 1846     		mov	r0, r3
 2920 00e6 1037     		adds	r7, r7, #16
 2921              	.LCFI75:
 2922              		.cfi_def_cfa_offset 8
 2923 00e8 BD46     		mov	sp, r7
 2924              	.LCFI76:
 2925              		.cfi_def_cfa_register 13
 2926              		@ sp needed
 2927 00ea 80BD     		pop	{r7, pc}
 2928              	.L139:
 2929              		.align	2
 2930              	.L138:
 2931 00ec 0000FFFF 		.word	-65536
 2932 00f0 00000000 		.word	I2C_Slave_ISR_DMA
 2933 00f4 00000000 		.word	I2C_DMASlaveTransmitCplt
 2934 00f8 00000000 		.word	I2C_DMAError
 2935              		.cfi_endproc
 2936              	.LFE709:
ARM GAS  /tmp/ccy0jiyr.s 			page 81


 2938              		.section	.text.HAL_I2C_Slave_Receive_DMA,"ax",%progbits
 2939              		.align	1
 2940              		.global	HAL_I2C_Slave_Receive_DMA
 2941              		.syntax unified
 2942              		.thumb
 2943              		.thumb_func
 2944              		.fpu fpv4-sp-d16
 2946              	HAL_I2C_Slave_Receive_DMA:
 2947              	.LFB710:
1652:Drivers/STM32F3xx_HAL_Driver/Src/stm32f3xx_hal_i2c.c **** 
1653:Drivers/STM32F3xx_HAL_Driver/Src/stm32f3xx_hal_i2c.c **** /**
1654:Drivers/STM32F3xx_HAL_Driver/Src/stm32f3xx_hal_i2c.c ****   * @brief  Receive in slave mode an amount of data in non-blocking mode with DMA
1655:Drivers/STM32F3xx_HAL_Driver/Src/stm32f3xx_hal_i2c.c ****   * @param  hi2c Pointer to a I2C_HandleTypeDef structure that contains
1656:Drivers/STM32F3xx_HAL_Driver/Src/stm32f3xx_hal_i2c.c ****   *                the configuration information for the specified I2C.
1657:Drivers/STM32F3xx_HAL_Driver/Src/stm32f3xx_hal_i2c.c ****   * @param  pData Pointer to data buffer
1658:Drivers/STM32F3xx_HAL_Driver/Src/stm32f3xx_hal_i2c.c ****   * @param  Size Amount of data to be sent
1659:Drivers/STM32F3xx_HAL_Driver/Src/stm32f3xx_hal_i2c.c ****   * @retval HAL status
1660:Drivers/STM32F3xx_HAL_Driver/Src/stm32f3xx_hal_i2c.c ****   */
1661:Drivers/STM32F3xx_HAL_Driver/Src/stm32f3xx_hal_i2c.c **** HAL_StatusTypeDef HAL_I2C_Slave_Receive_DMA(I2C_HandleTypeDef *hi2c, uint8_t *pData, uint16_t Size)
1662:Drivers/STM32F3xx_HAL_Driver/Src/stm32f3xx_hal_i2c.c **** {
 2948              		.loc 1 1662 0
 2949              		.cfi_startproc
 2950              		@ args = 0, pretend = 0, frame = 16
 2951              		@ frame_needed = 1, uses_anonymous_args = 0
 2952 0000 80B5     		push	{r7, lr}
 2953              	.LCFI77:
 2954              		.cfi_def_cfa_offset 8
 2955              		.cfi_offset 7, -8
 2956              		.cfi_offset 14, -4
 2957 0002 84B0     		sub	sp, sp, #16
 2958              	.LCFI78:
 2959              		.cfi_def_cfa_offset 24
 2960 0004 00AF     		add	r7, sp, #0
 2961              	.LCFI79:
 2962              		.cfi_def_cfa_register 7
 2963 0006 F860     		str	r0, [r7, #12]
 2964 0008 B960     		str	r1, [r7, #8]
 2965 000a 1346     		mov	r3, r2
 2966 000c FB80     		strh	r3, [r7, #6]	@ movhi
1663:Drivers/STM32F3xx_HAL_Driver/Src/stm32f3xx_hal_i2c.c ****   if (hi2c->State == HAL_I2C_STATE_READY)
 2967              		.loc 1 1663 0
 2968 000e FB68     		ldr	r3, [r7, #12]
 2969 0010 93F84130 		ldrb	r3, [r3, #65]
 2970 0014 DBB2     		uxtb	r3, r3
 2971 0016 202B     		cmp	r3, #32
 2972 0018 63D1     		bne	.L141
1664:Drivers/STM32F3xx_HAL_Driver/Src/stm32f3xx_hal_i2c.c ****   {
1665:Drivers/STM32F3xx_HAL_Driver/Src/stm32f3xx_hal_i2c.c ****     if ((pData == NULL) || (Size == 0U))
 2973              		.loc 1 1665 0
 2974 001a BB68     		ldr	r3, [r7, #8]
 2975 001c 002B     		cmp	r3, #0
 2976 001e 02D0     		beq	.L142
 2977              		.loc 1 1665 0 is_stmt 0 discriminator 1
 2978 0020 FB88     		ldrh	r3, [r7, #6]
 2979 0022 002B     		cmp	r3, #0
 2980 0024 01D1     		bne	.L143
 2981              	.L142:
ARM GAS  /tmp/ccy0jiyr.s 			page 82


1666:Drivers/STM32F3xx_HAL_Driver/Src/stm32f3xx_hal_i2c.c ****     {
1667:Drivers/STM32F3xx_HAL_Driver/Src/stm32f3xx_hal_i2c.c ****       return  HAL_ERROR;
 2982              		.loc 1 1667 0 is_stmt 1
 2983 0026 0123     		movs	r3, #1
 2984 0028 5CE0     		b	.L144
 2985              	.L143:
1668:Drivers/STM32F3xx_HAL_Driver/Src/stm32f3xx_hal_i2c.c ****     }
1669:Drivers/STM32F3xx_HAL_Driver/Src/stm32f3xx_hal_i2c.c ****     /* Process Locked */
1670:Drivers/STM32F3xx_HAL_Driver/Src/stm32f3xx_hal_i2c.c ****     __HAL_LOCK(hi2c);
 2986              		.loc 1 1670 0
 2987 002a FB68     		ldr	r3, [r7, #12]
 2988 002c 93F84030 		ldrb	r3, [r3, #64]	@ zero_extendqisi2
 2989 0030 012B     		cmp	r3, #1
 2990 0032 01D1     		bne	.L145
 2991              		.loc 1 1670 0 is_stmt 0 discriminator 1
 2992 0034 0223     		movs	r3, #2
 2993 0036 55E0     		b	.L144
 2994              	.L145:
 2995              		.loc 1 1670 0 discriminator 2
 2996 0038 FB68     		ldr	r3, [r7, #12]
 2997 003a 0122     		movs	r2, #1
 2998 003c 83F84020 		strb	r2, [r3, #64]
1671:Drivers/STM32F3xx_HAL_Driver/Src/stm32f3xx_hal_i2c.c **** 
1672:Drivers/STM32F3xx_HAL_Driver/Src/stm32f3xx_hal_i2c.c ****     hi2c->State       = HAL_I2C_STATE_BUSY_RX;
 2999              		.loc 1 1672 0 is_stmt 1 discriminator 2
 3000 0040 FB68     		ldr	r3, [r7, #12]
 3001 0042 2222     		movs	r2, #34
 3002 0044 83F84120 		strb	r2, [r3, #65]
1673:Drivers/STM32F3xx_HAL_Driver/Src/stm32f3xx_hal_i2c.c ****     hi2c->Mode        = HAL_I2C_MODE_SLAVE;
 3003              		.loc 1 1673 0 discriminator 2
 3004 0048 FB68     		ldr	r3, [r7, #12]
 3005 004a 2022     		movs	r2, #32
 3006 004c 83F84220 		strb	r2, [r3, #66]
1674:Drivers/STM32F3xx_HAL_Driver/Src/stm32f3xx_hal_i2c.c ****     hi2c->ErrorCode   = HAL_I2C_ERROR_NONE;
 3007              		.loc 1 1674 0 discriminator 2
 3008 0050 FB68     		ldr	r3, [r7, #12]
 3009 0052 0022     		movs	r2, #0
 3010 0054 5A64     		str	r2, [r3, #68]
1675:Drivers/STM32F3xx_HAL_Driver/Src/stm32f3xx_hal_i2c.c **** 
1676:Drivers/STM32F3xx_HAL_Driver/Src/stm32f3xx_hal_i2c.c ****     /* Prepare transfer parameters */
1677:Drivers/STM32F3xx_HAL_Driver/Src/stm32f3xx_hal_i2c.c ****     hi2c->pBuffPtr    = pData;
 3011              		.loc 1 1677 0 discriminator 2
 3012 0056 FB68     		ldr	r3, [r7, #12]
 3013 0058 BA68     		ldr	r2, [r7, #8]
 3014 005a 5A62     		str	r2, [r3, #36]
1678:Drivers/STM32F3xx_HAL_Driver/Src/stm32f3xx_hal_i2c.c ****     hi2c->XferCount   = Size;
 3015              		.loc 1 1678 0 discriminator 2
 3016 005c FB68     		ldr	r3, [r7, #12]
 3017 005e FA88     		ldrh	r2, [r7, #6]	@ movhi
 3018 0060 5A85     		strh	r2, [r3, #42]	@ movhi
1679:Drivers/STM32F3xx_HAL_Driver/Src/stm32f3xx_hal_i2c.c ****     hi2c->XferSize    = hi2c->XferCount;
 3019              		.loc 1 1679 0 discriminator 2
 3020 0062 FB68     		ldr	r3, [r7, #12]
 3021 0064 5B8D     		ldrh	r3, [r3, #42]	@ movhi
 3022 0066 9AB2     		uxth	r2, r3
 3023 0068 FB68     		ldr	r3, [r7, #12]
 3024 006a 1A85     		strh	r2, [r3, #40]	@ movhi
ARM GAS  /tmp/ccy0jiyr.s 			page 83


1680:Drivers/STM32F3xx_HAL_Driver/Src/stm32f3xx_hal_i2c.c ****     hi2c->XferOptions = I2C_NO_OPTION_FRAME;
 3025              		.loc 1 1680 0 discriminator 2
 3026 006c FB68     		ldr	r3, [r7, #12]
 3027 006e 1F4A     		ldr	r2, .L146
 3028 0070 DA62     		str	r2, [r3, #44]
1681:Drivers/STM32F3xx_HAL_Driver/Src/stm32f3xx_hal_i2c.c ****     hi2c->XferISR     = I2C_Slave_ISR_DMA;
 3029              		.loc 1 1681 0 discriminator 2
 3030 0072 FB68     		ldr	r3, [r7, #12]
 3031 0074 1E4A     		ldr	r2, .L146+4
 3032 0076 5A63     		str	r2, [r3, #52]
1682:Drivers/STM32F3xx_HAL_Driver/Src/stm32f3xx_hal_i2c.c **** 
1683:Drivers/STM32F3xx_HAL_Driver/Src/stm32f3xx_hal_i2c.c ****     /* Set the I2C DMA transfer complete callback */
1684:Drivers/STM32F3xx_HAL_Driver/Src/stm32f3xx_hal_i2c.c ****     hi2c->hdmarx->XferCpltCallback = I2C_DMASlaveReceiveCplt;
 3033              		.loc 1 1684 0 discriminator 2
 3034 0078 FB68     		ldr	r3, [r7, #12]
 3035 007a DB6B     		ldr	r3, [r3, #60]
 3036 007c 1D4A     		ldr	r2, .L146+8
 3037 007e 9A62     		str	r2, [r3, #40]
1685:Drivers/STM32F3xx_HAL_Driver/Src/stm32f3xx_hal_i2c.c **** 
1686:Drivers/STM32F3xx_HAL_Driver/Src/stm32f3xx_hal_i2c.c ****     /* Set the DMA error callback */
1687:Drivers/STM32F3xx_HAL_Driver/Src/stm32f3xx_hal_i2c.c ****     hi2c->hdmarx->XferErrorCallback = I2C_DMAError;
 3038              		.loc 1 1687 0 discriminator 2
 3039 0080 FB68     		ldr	r3, [r7, #12]
 3040 0082 DB6B     		ldr	r3, [r3, #60]
 3041 0084 1C4A     		ldr	r2, .L146+12
 3042 0086 1A63     		str	r2, [r3, #48]
1688:Drivers/STM32F3xx_HAL_Driver/Src/stm32f3xx_hal_i2c.c **** 
1689:Drivers/STM32F3xx_HAL_Driver/Src/stm32f3xx_hal_i2c.c ****     /* Set the unused DMA callbacks to NULL */
1690:Drivers/STM32F3xx_HAL_Driver/Src/stm32f3xx_hal_i2c.c ****     hi2c->hdmarx->XferHalfCpltCallback = NULL;
 3043              		.loc 1 1690 0 discriminator 2
 3044 0088 FB68     		ldr	r3, [r7, #12]
 3045 008a DB6B     		ldr	r3, [r3, #60]
 3046 008c 0022     		movs	r2, #0
 3047 008e DA62     		str	r2, [r3, #44]
1691:Drivers/STM32F3xx_HAL_Driver/Src/stm32f3xx_hal_i2c.c ****     hi2c->hdmarx->XferAbortCallback = NULL;
 3048              		.loc 1 1691 0 discriminator 2
 3049 0090 FB68     		ldr	r3, [r7, #12]
 3050 0092 DB6B     		ldr	r3, [r3, #60]
 3051 0094 0022     		movs	r2, #0
 3052 0096 5A63     		str	r2, [r3, #52]
1692:Drivers/STM32F3xx_HAL_Driver/Src/stm32f3xx_hal_i2c.c **** 
1693:Drivers/STM32F3xx_HAL_Driver/Src/stm32f3xx_hal_i2c.c ****     /* Enable the DMA channel */
1694:Drivers/STM32F3xx_HAL_Driver/Src/stm32f3xx_hal_i2c.c ****     HAL_DMA_Start_IT(hi2c->hdmarx, (uint32_t)&hi2c->Instance->RXDR, (uint32_t)pData, hi2c->XferSize
 3053              		.loc 1 1694 0 discriminator 2
 3054 0098 FB68     		ldr	r3, [r7, #12]
 3055 009a D86B     		ldr	r0, [r3, #60]
 3056 009c FB68     		ldr	r3, [r7, #12]
 3057 009e 1B68     		ldr	r3, [r3]
 3058 00a0 2433     		adds	r3, r3, #36
 3059 00a2 1946     		mov	r1, r3
 3060 00a4 BA68     		ldr	r2, [r7, #8]
 3061 00a6 FB68     		ldr	r3, [r7, #12]
 3062 00a8 1B8D     		ldrh	r3, [r3, #40]
 3063 00aa FFF7FEFF 		bl	HAL_DMA_Start_IT
1695:Drivers/STM32F3xx_HAL_Driver/Src/stm32f3xx_hal_i2c.c **** 
1696:Drivers/STM32F3xx_HAL_Driver/Src/stm32f3xx_hal_i2c.c ****     /* Enable Address Acknowledge */
1697:Drivers/STM32F3xx_HAL_Driver/Src/stm32f3xx_hal_i2c.c ****     hi2c->Instance->CR2 &= ~I2C_CR2_NACK;
ARM GAS  /tmp/ccy0jiyr.s 			page 84


 3064              		.loc 1 1697 0 discriminator 2
 3065 00ae FB68     		ldr	r3, [r7, #12]
 3066 00b0 1B68     		ldr	r3, [r3]
 3067 00b2 5A68     		ldr	r2, [r3, #4]
 3068 00b4 FB68     		ldr	r3, [r7, #12]
 3069 00b6 1B68     		ldr	r3, [r3]
 3070 00b8 22F40042 		bic	r2, r2, #32768
 3071 00bc 5A60     		str	r2, [r3, #4]
1698:Drivers/STM32F3xx_HAL_Driver/Src/stm32f3xx_hal_i2c.c **** 
1699:Drivers/STM32F3xx_HAL_Driver/Src/stm32f3xx_hal_i2c.c ****     /* Process Unlocked */
1700:Drivers/STM32F3xx_HAL_Driver/Src/stm32f3xx_hal_i2c.c ****     __HAL_UNLOCK(hi2c);
 3072              		.loc 1 1700 0 discriminator 2
 3073 00be FB68     		ldr	r3, [r7, #12]
 3074 00c0 0022     		movs	r2, #0
 3075 00c2 83F84020 		strb	r2, [r3, #64]
1701:Drivers/STM32F3xx_HAL_Driver/Src/stm32f3xx_hal_i2c.c **** 
1702:Drivers/STM32F3xx_HAL_Driver/Src/stm32f3xx_hal_i2c.c ****     /* Note : The I2C interrupts must be enabled after unlocking current process
1703:Drivers/STM32F3xx_HAL_Driver/Src/stm32f3xx_hal_i2c.c ****               to avoid the risk of I2C interrupt handle execution before current
1704:Drivers/STM32F3xx_HAL_Driver/Src/stm32f3xx_hal_i2c.c ****               process unlock */
1705:Drivers/STM32F3xx_HAL_Driver/Src/stm32f3xx_hal_i2c.c ****     /* Enable ERR, STOP, NACK, ADDR interrupts */
1706:Drivers/STM32F3xx_HAL_Driver/Src/stm32f3xx_hal_i2c.c ****     I2C_Enable_IRQ(hi2c, I2C_XFER_LISTEN_IT);
 3076              		.loc 1 1706 0 discriminator 2
 3077 00c6 0421     		movs	r1, #4
 3078 00c8 F868     		ldr	r0, [r7, #12]
 3079 00ca FFF7FEFF 		bl	I2C_Enable_IRQ
1707:Drivers/STM32F3xx_HAL_Driver/Src/stm32f3xx_hal_i2c.c **** 
1708:Drivers/STM32F3xx_HAL_Driver/Src/stm32f3xx_hal_i2c.c ****     /* Enable DMA Request */
1709:Drivers/STM32F3xx_HAL_Driver/Src/stm32f3xx_hal_i2c.c ****     hi2c->Instance->CR1 |= I2C_CR1_RXDMAEN;
 3080              		.loc 1 1709 0 discriminator 2
 3081 00ce FB68     		ldr	r3, [r7, #12]
 3082 00d0 1B68     		ldr	r3, [r3]
 3083 00d2 1A68     		ldr	r2, [r3]
 3084 00d4 FB68     		ldr	r3, [r7, #12]
 3085 00d6 1B68     		ldr	r3, [r3]
 3086 00d8 42F40042 		orr	r2, r2, #32768
 3087 00dc 1A60     		str	r2, [r3]
1710:Drivers/STM32F3xx_HAL_Driver/Src/stm32f3xx_hal_i2c.c **** 
1711:Drivers/STM32F3xx_HAL_Driver/Src/stm32f3xx_hal_i2c.c ****     return HAL_OK;
 3088              		.loc 1 1711 0 discriminator 2
 3089 00de 0023     		movs	r3, #0
 3090 00e0 00E0     		b	.L144
 3091              	.L141:
1712:Drivers/STM32F3xx_HAL_Driver/Src/stm32f3xx_hal_i2c.c ****   }
1713:Drivers/STM32F3xx_HAL_Driver/Src/stm32f3xx_hal_i2c.c ****   else
1714:Drivers/STM32F3xx_HAL_Driver/Src/stm32f3xx_hal_i2c.c ****   {
1715:Drivers/STM32F3xx_HAL_Driver/Src/stm32f3xx_hal_i2c.c ****     return HAL_BUSY;
 3092              		.loc 1 1715 0
 3093 00e2 0223     		movs	r3, #2
 3094              	.L144:
1716:Drivers/STM32F3xx_HAL_Driver/Src/stm32f3xx_hal_i2c.c ****   }
1717:Drivers/STM32F3xx_HAL_Driver/Src/stm32f3xx_hal_i2c.c **** }
 3095              		.loc 1 1717 0
 3096 00e4 1846     		mov	r0, r3
 3097 00e6 1037     		adds	r7, r7, #16
 3098              	.LCFI80:
 3099              		.cfi_def_cfa_offset 8
 3100 00e8 BD46     		mov	sp, r7
ARM GAS  /tmp/ccy0jiyr.s 			page 85


 3101              	.LCFI81:
 3102              		.cfi_def_cfa_register 13
 3103              		@ sp needed
 3104 00ea 80BD     		pop	{r7, pc}
 3105              	.L147:
 3106              		.align	2
 3107              	.L146:
 3108 00ec 0000FFFF 		.word	-65536
 3109 00f0 00000000 		.word	I2C_Slave_ISR_DMA
 3110 00f4 00000000 		.word	I2C_DMASlaveReceiveCplt
 3111 00f8 00000000 		.word	I2C_DMAError
 3112              		.cfi_endproc
 3113              	.LFE710:
 3115              		.section	.text.HAL_I2C_Mem_Write,"ax",%progbits
 3116              		.align	1
 3117              		.global	HAL_I2C_Mem_Write
 3118              		.syntax unified
 3119              		.thumb
 3120              		.thumb_func
 3121              		.fpu fpv4-sp-d16
 3123              	HAL_I2C_Mem_Write:
 3124              	.LFB711:
1718:Drivers/STM32F3xx_HAL_Driver/Src/stm32f3xx_hal_i2c.c **** /**
1719:Drivers/STM32F3xx_HAL_Driver/Src/stm32f3xx_hal_i2c.c ****   * @brief  Write an amount of data in blocking mode to a specific memory address
1720:Drivers/STM32F3xx_HAL_Driver/Src/stm32f3xx_hal_i2c.c ****   * @param  hi2c Pointer to a I2C_HandleTypeDef structure that contains
1721:Drivers/STM32F3xx_HAL_Driver/Src/stm32f3xx_hal_i2c.c ****   *                the configuration information for the specified I2C.
1722:Drivers/STM32F3xx_HAL_Driver/Src/stm32f3xx_hal_i2c.c ****   * @param  DevAddress Target device address: The device 7 bits address value
1723:Drivers/STM32F3xx_HAL_Driver/Src/stm32f3xx_hal_i2c.c ****   *         in datasheet must be shift at right before call interface
1724:Drivers/STM32F3xx_HAL_Driver/Src/stm32f3xx_hal_i2c.c ****   * @param  MemAddress Internal memory address
1725:Drivers/STM32F3xx_HAL_Driver/Src/stm32f3xx_hal_i2c.c ****   * @param  MemAddSize Size of internal memory address
1726:Drivers/STM32F3xx_HAL_Driver/Src/stm32f3xx_hal_i2c.c ****   * @param  pData Pointer to data buffer
1727:Drivers/STM32F3xx_HAL_Driver/Src/stm32f3xx_hal_i2c.c ****   * @param  Size Amount of data to be sent
1728:Drivers/STM32F3xx_HAL_Driver/Src/stm32f3xx_hal_i2c.c ****   * @param  Timeout Timeout duration
1729:Drivers/STM32F3xx_HAL_Driver/Src/stm32f3xx_hal_i2c.c ****   * @retval HAL status
1730:Drivers/STM32F3xx_HAL_Driver/Src/stm32f3xx_hal_i2c.c ****   */
1731:Drivers/STM32F3xx_HAL_Driver/Src/stm32f3xx_hal_i2c.c **** HAL_StatusTypeDef HAL_I2C_Mem_Write(I2C_HandleTypeDef *hi2c, uint16_t DevAddress, uint16_t MemAddre
1732:Drivers/STM32F3xx_HAL_Driver/Src/stm32f3xx_hal_i2c.c **** {
 3125              		.loc 1 1732 0
 3126              		.cfi_startproc
 3127              		@ args = 12, pretend = 0, frame = 24
 3128              		@ frame_needed = 1, uses_anonymous_args = 0
 3129 0000 80B5     		push	{r7, lr}
 3130              	.LCFI82:
 3131              		.cfi_def_cfa_offset 8
 3132              		.cfi_offset 7, -8
 3133              		.cfi_offset 14, -4
 3134 0002 88B0     		sub	sp, sp, #32
 3135              	.LCFI83:
 3136              		.cfi_def_cfa_offset 40
 3137 0004 02AF     		add	r7, sp, #8
 3138              	.LCFI84:
 3139              		.cfi_def_cfa 7, 32
 3140 0006 F860     		str	r0, [r7, #12]
 3141 0008 0846     		mov	r0, r1
 3142 000a 1146     		mov	r1, r2
 3143 000c 1A46     		mov	r2, r3
 3144 000e 0346     		mov	r3, r0	@ movhi
ARM GAS  /tmp/ccy0jiyr.s 			page 86


 3145 0010 7B81     		strh	r3, [r7, #10]	@ movhi
 3146 0012 0B46     		mov	r3, r1	@ movhi
 3147 0014 3B81     		strh	r3, [r7, #8]	@ movhi
 3148 0016 1346     		mov	r3, r2	@ movhi
 3149 0018 FB80     		strh	r3, [r7, #6]	@ movhi
1733:Drivers/STM32F3xx_HAL_Driver/Src/stm32f3xx_hal_i2c.c ****   uint32_t tickstart = 0U;
 3150              		.loc 1 1733 0
 3151 001a 0023     		movs	r3, #0
 3152 001c 7B61     		str	r3, [r7, #20]
1734:Drivers/STM32F3xx_HAL_Driver/Src/stm32f3xx_hal_i2c.c **** 
1735:Drivers/STM32F3xx_HAL_Driver/Src/stm32f3xx_hal_i2c.c ****   /* Check the parameters */
1736:Drivers/STM32F3xx_HAL_Driver/Src/stm32f3xx_hal_i2c.c ****   assert_param(IS_I2C_MEMADD_SIZE(MemAddSize));
1737:Drivers/STM32F3xx_HAL_Driver/Src/stm32f3xx_hal_i2c.c **** 
1738:Drivers/STM32F3xx_HAL_Driver/Src/stm32f3xx_hal_i2c.c ****   if (hi2c->State == HAL_I2C_STATE_READY)
 3153              		.loc 1 1738 0
 3154 001e FB68     		ldr	r3, [r7, #12]
 3155 0020 93F84130 		ldrb	r3, [r3, #65]
 3156 0024 DBB2     		uxtb	r3, r3
 3157 0026 202B     		cmp	r3, #32
 3158 0028 40F00981 		bne	.L149
1739:Drivers/STM32F3xx_HAL_Driver/Src/stm32f3xx_hal_i2c.c ****   {
1740:Drivers/STM32F3xx_HAL_Driver/Src/stm32f3xx_hal_i2c.c ****     if ((pData == NULL) || (Size == 0U))
 3159              		.loc 1 1740 0
 3160 002c 3B6A     		ldr	r3, [r7, #32]
 3161 002e 002B     		cmp	r3, #0
 3162 0030 02D0     		beq	.L150
 3163              		.loc 1 1740 0 is_stmt 0 discriminator 1
 3164 0032 BB8C     		ldrh	r3, [r7, #36]
 3165 0034 002B     		cmp	r3, #0
 3166 0036 01D1     		bne	.L151
 3167              	.L150:
1741:Drivers/STM32F3xx_HAL_Driver/Src/stm32f3xx_hal_i2c.c ****     {
1742:Drivers/STM32F3xx_HAL_Driver/Src/stm32f3xx_hal_i2c.c ****       return  HAL_ERROR;
 3168              		.loc 1 1742 0 is_stmt 1
 3169 0038 0123     		movs	r3, #1
 3170 003a 01E1     		b	.L152
 3171              	.L151:
1743:Drivers/STM32F3xx_HAL_Driver/Src/stm32f3xx_hal_i2c.c ****     }
1744:Drivers/STM32F3xx_HAL_Driver/Src/stm32f3xx_hal_i2c.c **** 
1745:Drivers/STM32F3xx_HAL_Driver/Src/stm32f3xx_hal_i2c.c ****     /* Process Locked */
1746:Drivers/STM32F3xx_HAL_Driver/Src/stm32f3xx_hal_i2c.c ****     __HAL_LOCK(hi2c);
 3172              		.loc 1 1746 0
 3173 003c FB68     		ldr	r3, [r7, #12]
 3174 003e 93F84030 		ldrb	r3, [r3, #64]	@ zero_extendqisi2
 3175 0042 012B     		cmp	r3, #1
 3176 0044 01D1     		bne	.L153
 3177              		.loc 1 1746 0 is_stmt 0 discriminator 1
 3178 0046 0223     		movs	r3, #2
 3179 0048 FAE0     		b	.L152
 3180              	.L153:
 3181              		.loc 1 1746 0 discriminator 2
 3182 004a FB68     		ldr	r3, [r7, #12]
 3183 004c 0122     		movs	r2, #1
 3184 004e 83F84020 		strb	r2, [r3, #64]
1747:Drivers/STM32F3xx_HAL_Driver/Src/stm32f3xx_hal_i2c.c **** 
1748:Drivers/STM32F3xx_HAL_Driver/Src/stm32f3xx_hal_i2c.c ****     /* Init tickstart for timeout management*/
1749:Drivers/STM32F3xx_HAL_Driver/Src/stm32f3xx_hal_i2c.c ****     tickstart = HAL_GetTick();
ARM GAS  /tmp/ccy0jiyr.s 			page 87


 3185              		.loc 1 1749 0 is_stmt 1 discriminator 2
 3186 0052 FFF7FEFF 		bl	HAL_GetTick
 3187 0056 7861     		str	r0, [r7, #20]
1750:Drivers/STM32F3xx_HAL_Driver/Src/stm32f3xx_hal_i2c.c **** 
1751:Drivers/STM32F3xx_HAL_Driver/Src/stm32f3xx_hal_i2c.c ****     if (I2C_WaitOnFlagUntilTimeout(hi2c, I2C_FLAG_BUSY, SET, I2C_TIMEOUT_BUSY, tickstart) != HAL_OK
 3188              		.loc 1 1751 0 discriminator 2
 3189 0058 7B69     		ldr	r3, [r7, #20]
 3190 005a 0093     		str	r3, [sp]
 3191 005c 1923     		movs	r3, #25
 3192 005e 0122     		movs	r2, #1
 3193 0060 4FF40041 		mov	r1, #32768
 3194 0064 F868     		ldr	r0, [r7, #12]
 3195 0066 FFF7FEFF 		bl	I2C_WaitOnFlagUntilTimeout
 3196 006a 0346     		mov	r3, r0
 3197 006c 002B     		cmp	r3, #0
 3198 006e 01D0     		beq	.L154
1752:Drivers/STM32F3xx_HAL_Driver/Src/stm32f3xx_hal_i2c.c ****     {
1753:Drivers/STM32F3xx_HAL_Driver/Src/stm32f3xx_hal_i2c.c ****       return HAL_TIMEOUT;
 3199              		.loc 1 1753 0
 3200 0070 0323     		movs	r3, #3
 3201 0072 E5E0     		b	.L152
 3202              	.L154:
1754:Drivers/STM32F3xx_HAL_Driver/Src/stm32f3xx_hal_i2c.c ****     }
1755:Drivers/STM32F3xx_HAL_Driver/Src/stm32f3xx_hal_i2c.c **** 
1756:Drivers/STM32F3xx_HAL_Driver/Src/stm32f3xx_hal_i2c.c ****     hi2c->State     = HAL_I2C_STATE_BUSY_TX;
 3203              		.loc 1 1756 0
 3204 0074 FB68     		ldr	r3, [r7, #12]
 3205 0076 2122     		movs	r2, #33
 3206 0078 83F84120 		strb	r2, [r3, #65]
1757:Drivers/STM32F3xx_HAL_Driver/Src/stm32f3xx_hal_i2c.c ****     hi2c->Mode      = HAL_I2C_MODE_MEM;
 3207              		.loc 1 1757 0
 3208 007c FB68     		ldr	r3, [r7, #12]
 3209 007e 4022     		movs	r2, #64
 3210 0080 83F84220 		strb	r2, [r3, #66]
1758:Drivers/STM32F3xx_HAL_Driver/Src/stm32f3xx_hal_i2c.c ****     hi2c->ErrorCode = HAL_I2C_ERROR_NONE;
 3211              		.loc 1 1758 0
 3212 0084 FB68     		ldr	r3, [r7, #12]
 3213 0086 0022     		movs	r2, #0
 3214 0088 5A64     		str	r2, [r3, #68]
1759:Drivers/STM32F3xx_HAL_Driver/Src/stm32f3xx_hal_i2c.c **** 
1760:Drivers/STM32F3xx_HAL_Driver/Src/stm32f3xx_hal_i2c.c ****     /* Prepare transfer parameters */
1761:Drivers/STM32F3xx_HAL_Driver/Src/stm32f3xx_hal_i2c.c ****     hi2c->pBuffPtr  = pData;
 3215              		.loc 1 1761 0
 3216 008a FB68     		ldr	r3, [r7, #12]
 3217 008c 3A6A     		ldr	r2, [r7, #32]
 3218 008e 5A62     		str	r2, [r3, #36]
1762:Drivers/STM32F3xx_HAL_Driver/Src/stm32f3xx_hal_i2c.c ****     hi2c->XferCount = Size;
 3219              		.loc 1 1762 0
 3220 0090 FB68     		ldr	r3, [r7, #12]
 3221 0092 BA8C     		ldrh	r2, [r7, #36]	@ movhi
 3222 0094 5A85     		strh	r2, [r3, #42]	@ movhi
1763:Drivers/STM32F3xx_HAL_Driver/Src/stm32f3xx_hal_i2c.c ****     hi2c->XferISR   = NULL;
 3223              		.loc 1 1763 0
 3224 0096 FB68     		ldr	r3, [r7, #12]
 3225 0098 0022     		movs	r2, #0
 3226 009a 5A63     		str	r2, [r3, #52]
1764:Drivers/STM32F3xx_HAL_Driver/Src/stm32f3xx_hal_i2c.c **** 
ARM GAS  /tmp/ccy0jiyr.s 			page 88


1765:Drivers/STM32F3xx_HAL_Driver/Src/stm32f3xx_hal_i2c.c ****     /* Send Slave Address and Memory Address */
1766:Drivers/STM32F3xx_HAL_Driver/Src/stm32f3xx_hal_i2c.c ****     if (I2C_RequestMemoryWrite(hi2c, DevAddress, MemAddress, MemAddSize, Timeout, tickstart) != HAL
 3227              		.loc 1 1766 0
 3228 009c F888     		ldrh	r0, [r7, #6]
 3229 009e 3A89     		ldrh	r2, [r7, #8]
 3230 00a0 7989     		ldrh	r1, [r7, #10]
 3231 00a2 7B69     		ldr	r3, [r7, #20]
 3232 00a4 0193     		str	r3, [sp, #4]
 3233 00a6 BB6A     		ldr	r3, [r7, #40]
 3234 00a8 0093     		str	r3, [sp]
 3235 00aa 0346     		mov	r3, r0
 3236 00ac F868     		ldr	r0, [r7, #12]
 3237 00ae FFF7FEFF 		bl	I2C_RequestMemoryWrite
 3238 00b2 0346     		mov	r3, r0
 3239 00b4 002B     		cmp	r3, #0
 3240 00b6 0FD0     		beq	.L155
1767:Drivers/STM32F3xx_HAL_Driver/Src/stm32f3xx_hal_i2c.c ****     {
1768:Drivers/STM32F3xx_HAL_Driver/Src/stm32f3xx_hal_i2c.c ****       if (hi2c->ErrorCode == HAL_I2C_ERROR_AF)
 3241              		.loc 1 1768 0
 3242 00b8 FB68     		ldr	r3, [r7, #12]
 3243 00ba 5B6C     		ldr	r3, [r3, #68]
 3244 00bc 042B     		cmp	r3, #4
 3245 00be 05D1     		bne	.L156
1769:Drivers/STM32F3xx_HAL_Driver/Src/stm32f3xx_hal_i2c.c ****       {
1770:Drivers/STM32F3xx_HAL_Driver/Src/stm32f3xx_hal_i2c.c ****         /* Process Unlocked */
1771:Drivers/STM32F3xx_HAL_Driver/Src/stm32f3xx_hal_i2c.c ****         __HAL_UNLOCK(hi2c);
 3246              		.loc 1 1771 0
 3247 00c0 FB68     		ldr	r3, [r7, #12]
 3248 00c2 0022     		movs	r2, #0
 3249 00c4 83F84020 		strb	r2, [r3, #64]
1772:Drivers/STM32F3xx_HAL_Driver/Src/stm32f3xx_hal_i2c.c ****         return HAL_ERROR;
 3250              		.loc 1 1772 0
 3251 00c8 0123     		movs	r3, #1
 3252 00ca B9E0     		b	.L152
 3253              	.L156:
1773:Drivers/STM32F3xx_HAL_Driver/Src/stm32f3xx_hal_i2c.c ****       }
1774:Drivers/STM32F3xx_HAL_Driver/Src/stm32f3xx_hal_i2c.c ****       else
1775:Drivers/STM32F3xx_HAL_Driver/Src/stm32f3xx_hal_i2c.c ****       {
1776:Drivers/STM32F3xx_HAL_Driver/Src/stm32f3xx_hal_i2c.c ****         /* Process Unlocked */
1777:Drivers/STM32F3xx_HAL_Driver/Src/stm32f3xx_hal_i2c.c ****         __HAL_UNLOCK(hi2c);
 3254              		.loc 1 1777 0
 3255 00cc FB68     		ldr	r3, [r7, #12]
 3256 00ce 0022     		movs	r2, #0
 3257 00d0 83F84020 		strb	r2, [r3, #64]
1778:Drivers/STM32F3xx_HAL_Driver/Src/stm32f3xx_hal_i2c.c ****         return HAL_TIMEOUT;
 3258              		.loc 1 1778 0
 3259 00d4 0323     		movs	r3, #3
 3260 00d6 B3E0     		b	.L152
 3261              	.L155:
1779:Drivers/STM32F3xx_HAL_Driver/Src/stm32f3xx_hal_i2c.c ****       }
1780:Drivers/STM32F3xx_HAL_Driver/Src/stm32f3xx_hal_i2c.c ****     }
1781:Drivers/STM32F3xx_HAL_Driver/Src/stm32f3xx_hal_i2c.c **** 
1782:Drivers/STM32F3xx_HAL_Driver/Src/stm32f3xx_hal_i2c.c ****     /* Set NBYTES to write and reload if hi2c->XferCount > MAX_NBYTE_SIZE */
1783:Drivers/STM32F3xx_HAL_Driver/Src/stm32f3xx_hal_i2c.c ****     if (hi2c->XferCount > MAX_NBYTE_SIZE)
 3262              		.loc 1 1783 0
 3263 00d8 FB68     		ldr	r3, [r7, #12]
 3264 00da 5B8D     		ldrh	r3, [r3, #42]	@ movhi
ARM GAS  /tmp/ccy0jiyr.s 			page 89


 3265 00dc 9BB2     		uxth	r3, r3
 3266 00de FF2B     		cmp	r3, #255
 3267 00e0 0ED9     		bls	.L157
1784:Drivers/STM32F3xx_HAL_Driver/Src/stm32f3xx_hal_i2c.c ****     {
1785:Drivers/STM32F3xx_HAL_Driver/Src/stm32f3xx_hal_i2c.c ****       hi2c->XferSize = MAX_NBYTE_SIZE;
 3268              		.loc 1 1785 0
 3269 00e2 FB68     		ldr	r3, [r7, #12]
 3270 00e4 FF22     		movs	r2, #255
 3271 00e6 1A85     		strh	r2, [r3, #40]	@ movhi
1786:Drivers/STM32F3xx_HAL_Driver/Src/stm32f3xx_hal_i2c.c ****       I2C_TransferConfig(hi2c, DevAddress, hi2c->XferSize, I2C_RELOAD_MODE, I2C_NO_STARTSTOP);
 3272              		.loc 1 1786 0
 3273 00e8 FB68     		ldr	r3, [r7, #12]
 3274 00ea 1B8D     		ldrh	r3, [r3, #40]
 3275 00ec DAB2     		uxtb	r2, r3
 3276 00ee 7989     		ldrh	r1, [r7, #10]
 3277 00f0 0023     		movs	r3, #0
 3278 00f2 0093     		str	r3, [sp]
 3279 00f4 4FF08073 		mov	r3, #16777216
 3280 00f8 F868     		ldr	r0, [r7, #12]
 3281 00fa FFF7FEFF 		bl	I2C_TransferConfig
 3282 00fe 0FE0     		b	.L164
 3283              	.L157:
1787:Drivers/STM32F3xx_HAL_Driver/Src/stm32f3xx_hal_i2c.c ****     }
1788:Drivers/STM32F3xx_HAL_Driver/Src/stm32f3xx_hal_i2c.c ****     else
1789:Drivers/STM32F3xx_HAL_Driver/Src/stm32f3xx_hal_i2c.c ****     {
1790:Drivers/STM32F3xx_HAL_Driver/Src/stm32f3xx_hal_i2c.c ****       hi2c->XferSize = hi2c->XferCount;
 3284              		.loc 1 1790 0
 3285 0100 FB68     		ldr	r3, [r7, #12]
 3286 0102 5B8D     		ldrh	r3, [r3, #42]	@ movhi
 3287 0104 9AB2     		uxth	r2, r3
 3288 0106 FB68     		ldr	r3, [r7, #12]
 3289 0108 1A85     		strh	r2, [r3, #40]	@ movhi
1791:Drivers/STM32F3xx_HAL_Driver/Src/stm32f3xx_hal_i2c.c ****       I2C_TransferConfig(hi2c, DevAddress, hi2c->XferSize, I2C_AUTOEND_MODE, I2C_NO_STARTSTOP);
 3290              		.loc 1 1791 0
 3291 010a FB68     		ldr	r3, [r7, #12]
 3292 010c 1B8D     		ldrh	r3, [r3, #40]
 3293 010e DAB2     		uxtb	r2, r3
 3294 0110 7989     		ldrh	r1, [r7, #10]
 3295 0112 0023     		movs	r3, #0
 3296 0114 0093     		str	r3, [sp]
 3297 0116 4FF00073 		mov	r3, #33554432
 3298 011a F868     		ldr	r0, [r7, #12]
 3299 011c FFF7FEFF 		bl	I2C_TransferConfig
 3300              	.L164:
1792:Drivers/STM32F3xx_HAL_Driver/Src/stm32f3xx_hal_i2c.c ****     }
1793:Drivers/STM32F3xx_HAL_Driver/Src/stm32f3xx_hal_i2c.c **** 
1794:Drivers/STM32F3xx_HAL_Driver/Src/stm32f3xx_hal_i2c.c ****     do
1795:Drivers/STM32F3xx_HAL_Driver/Src/stm32f3xx_hal_i2c.c ****     {
1796:Drivers/STM32F3xx_HAL_Driver/Src/stm32f3xx_hal_i2c.c ****       /* Wait until TXIS flag is set */
1797:Drivers/STM32F3xx_HAL_Driver/Src/stm32f3xx_hal_i2c.c ****       if (I2C_WaitOnTXISFlagUntilTimeout(hi2c, Timeout, tickstart) != HAL_OK)
 3301              		.loc 1 1797 0
 3302 0120 7A69     		ldr	r2, [r7, #20]
 3303 0122 B96A     		ldr	r1, [r7, #40]
 3304 0124 F868     		ldr	r0, [r7, #12]
 3305 0126 FFF7FEFF 		bl	I2C_WaitOnTXISFlagUntilTimeout
 3306 012a 0346     		mov	r3, r0
 3307 012c 002B     		cmp	r3, #0
ARM GAS  /tmp/ccy0jiyr.s 			page 90


 3308 012e 07D0     		beq	.L159
1798:Drivers/STM32F3xx_HAL_Driver/Src/stm32f3xx_hal_i2c.c ****       {
1799:Drivers/STM32F3xx_HAL_Driver/Src/stm32f3xx_hal_i2c.c ****         if (hi2c->ErrorCode == HAL_I2C_ERROR_AF)
 3309              		.loc 1 1799 0
 3310 0130 FB68     		ldr	r3, [r7, #12]
 3311 0132 5B6C     		ldr	r3, [r3, #68]
 3312 0134 042B     		cmp	r3, #4
 3313 0136 01D1     		bne	.L160
1800:Drivers/STM32F3xx_HAL_Driver/Src/stm32f3xx_hal_i2c.c ****         {
1801:Drivers/STM32F3xx_HAL_Driver/Src/stm32f3xx_hal_i2c.c ****           return HAL_ERROR;
 3314              		.loc 1 1801 0
 3315 0138 0123     		movs	r3, #1
 3316 013a 81E0     		b	.L152
 3317              	.L160:
1802:Drivers/STM32F3xx_HAL_Driver/Src/stm32f3xx_hal_i2c.c ****         }
1803:Drivers/STM32F3xx_HAL_Driver/Src/stm32f3xx_hal_i2c.c ****         else
1804:Drivers/STM32F3xx_HAL_Driver/Src/stm32f3xx_hal_i2c.c ****         {
1805:Drivers/STM32F3xx_HAL_Driver/Src/stm32f3xx_hal_i2c.c ****           return HAL_TIMEOUT;
 3318              		.loc 1 1805 0
 3319 013c 0323     		movs	r3, #3
 3320 013e 7FE0     		b	.L152
 3321              	.L159:
1806:Drivers/STM32F3xx_HAL_Driver/Src/stm32f3xx_hal_i2c.c ****         }
1807:Drivers/STM32F3xx_HAL_Driver/Src/stm32f3xx_hal_i2c.c ****       }
1808:Drivers/STM32F3xx_HAL_Driver/Src/stm32f3xx_hal_i2c.c **** 
1809:Drivers/STM32F3xx_HAL_Driver/Src/stm32f3xx_hal_i2c.c ****       /* Write data to TXDR */
1810:Drivers/STM32F3xx_HAL_Driver/Src/stm32f3xx_hal_i2c.c ****       hi2c->Instance->TXDR = (*hi2c->pBuffPtr++);
 3322              		.loc 1 1810 0
 3323 0140 FB68     		ldr	r3, [r7, #12]
 3324 0142 5B6A     		ldr	r3, [r3, #36]
 3325 0144 591C     		adds	r1, r3, #1
 3326 0146 FA68     		ldr	r2, [r7, #12]
 3327 0148 5162     		str	r1, [r2, #36]
 3328 014a 1A78     		ldrb	r2, [r3]	@ zero_extendqisi2
 3329 014c FB68     		ldr	r3, [r7, #12]
 3330 014e 1B68     		ldr	r3, [r3]
 3331 0150 9A62     		str	r2, [r3, #40]
1811:Drivers/STM32F3xx_HAL_Driver/Src/stm32f3xx_hal_i2c.c ****       hi2c->XferCount--;
 3332              		.loc 1 1811 0
 3333 0152 FB68     		ldr	r3, [r7, #12]
 3334 0154 5B8D     		ldrh	r3, [r3, #42]	@ movhi
 3335 0156 9BB2     		uxth	r3, r3
 3336 0158 013B     		subs	r3, r3, #1
 3337 015a 9AB2     		uxth	r2, r3
 3338 015c FB68     		ldr	r3, [r7, #12]
 3339 015e 5A85     		strh	r2, [r3, #42]	@ movhi
1812:Drivers/STM32F3xx_HAL_Driver/Src/stm32f3xx_hal_i2c.c ****       hi2c->XferSize--;
 3340              		.loc 1 1812 0
 3341 0160 FB68     		ldr	r3, [r7, #12]
 3342 0162 1B8D     		ldrh	r3, [r3, #40]
 3343 0164 013B     		subs	r3, r3, #1
 3344 0166 9AB2     		uxth	r2, r3
 3345 0168 FB68     		ldr	r3, [r7, #12]
 3346 016a 1A85     		strh	r2, [r3, #40]	@ movhi
1813:Drivers/STM32F3xx_HAL_Driver/Src/stm32f3xx_hal_i2c.c **** 
1814:Drivers/STM32F3xx_HAL_Driver/Src/stm32f3xx_hal_i2c.c ****       if ((hi2c->XferSize == 0U) && (hi2c->XferCount != 0U))
 3347              		.loc 1 1814 0
ARM GAS  /tmp/ccy0jiyr.s 			page 91


 3348 016c FB68     		ldr	r3, [r7, #12]
 3349 016e 1B8D     		ldrh	r3, [r3, #40]
 3350 0170 002B     		cmp	r3, #0
 3351 0172 35D1     		bne	.L161
 3352              		.loc 1 1814 0 is_stmt 0 discriminator 1
 3353 0174 FB68     		ldr	r3, [r7, #12]
 3354 0176 5B8D     		ldrh	r3, [r3, #42]	@ movhi
 3355 0178 9BB2     		uxth	r3, r3
 3356 017a 002B     		cmp	r3, #0
 3357 017c 30D0     		beq	.L161
1815:Drivers/STM32F3xx_HAL_Driver/Src/stm32f3xx_hal_i2c.c ****       {
1816:Drivers/STM32F3xx_HAL_Driver/Src/stm32f3xx_hal_i2c.c ****         /* Wait until TCR flag is set */
1817:Drivers/STM32F3xx_HAL_Driver/Src/stm32f3xx_hal_i2c.c ****         if (I2C_WaitOnFlagUntilTimeout(hi2c, I2C_FLAG_TCR, RESET, Timeout, tickstart) != HAL_OK)
 3358              		.loc 1 1817 0 is_stmt 1
 3359 017e 7B69     		ldr	r3, [r7, #20]
 3360 0180 0093     		str	r3, [sp]
 3361 0182 BB6A     		ldr	r3, [r7, #40]
 3362 0184 0022     		movs	r2, #0
 3363 0186 8021     		movs	r1, #128
 3364 0188 F868     		ldr	r0, [r7, #12]
 3365 018a FFF7FEFF 		bl	I2C_WaitOnFlagUntilTimeout
 3366 018e 0346     		mov	r3, r0
 3367 0190 002B     		cmp	r3, #0
 3368 0192 01D0     		beq	.L162
1818:Drivers/STM32F3xx_HAL_Driver/Src/stm32f3xx_hal_i2c.c ****         {
1819:Drivers/STM32F3xx_HAL_Driver/Src/stm32f3xx_hal_i2c.c ****           return HAL_TIMEOUT;
 3369              		.loc 1 1819 0
 3370 0194 0323     		movs	r3, #3
 3371 0196 53E0     		b	.L152
 3372              	.L162:
1820:Drivers/STM32F3xx_HAL_Driver/Src/stm32f3xx_hal_i2c.c ****         }
1821:Drivers/STM32F3xx_HAL_Driver/Src/stm32f3xx_hal_i2c.c **** 
1822:Drivers/STM32F3xx_HAL_Driver/Src/stm32f3xx_hal_i2c.c ****         if (hi2c->XferCount > MAX_NBYTE_SIZE)
 3373              		.loc 1 1822 0
 3374 0198 FB68     		ldr	r3, [r7, #12]
 3375 019a 5B8D     		ldrh	r3, [r3, #42]	@ movhi
 3376 019c 9BB2     		uxth	r3, r3
 3377 019e FF2B     		cmp	r3, #255
 3378 01a0 0ED9     		bls	.L163
1823:Drivers/STM32F3xx_HAL_Driver/Src/stm32f3xx_hal_i2c.c ****         {
1824:Drivers/STM32F3xx_HAL_Driver/Src/stm32f3xx_hal_i2c.c ****           hi2c->XferSize = MAX_NBYTE_SIZE;
 3379              		.loc 1 1824 0
 3380 01a2 FB68     		ldr	r3, [r7, #12]
 3381 01a4 FF22     		movs	r2, #255
 3382 01a6 1A85     		strh	r2, [r3, #40]	@ movhi
1825:Drivers/STM32F3xx_HAL_Driver/Src/stm32f3xx_hal_i2c.c ****           I2C_TransferConfig(hi2c, DevAddress, hi2c->XferSize, I2C_RELOAD_MODE, I2C_NO_STARTSTOP);
 3383              		.loc 1 1825 0
 3384 01a8 FB68     		ldr	r3, [r7, #12]
 3385 01aa 1B8D     		ldrh	r3, [r3, #40]
 3386 01ac DAB2     		uxtb	r2, r3
 3387 01ae 7989     		ldrh	r1, [r7, #10]
 3388 01b0 0023     		movs	r3, #0
 3389 01b2 0093     		str	r3, [sp]
 3390 01b4 4FF08073 		mov	r3, #16777216
 3391 01b8 F868     		ldr	r0, [r7, #12]
 3392 01ba FFF7FEFF 		bl	I2C_TransferConfig
 3393 01be 0FE0     		b	.L161
ARM GAS  /tmp/ccy0jiyr.s 			page 92


 3394              	.L163:
1826:Drivers/STM32F3xx_HAL_Driver/Src/stm32f3xx_hal_i2c.c ****         }
1827:Drivers/STM32F3xx_HAL_Driver/Src/stm32f3xx_hal_i2c.c ****         else
1828:Drivers/STM32F3xx_HAL_Driver/Src/stm32f3xx_hal_i2c.c ****         {
1829:Drivers/STM32F3xx_HAL_Driver/Src/stm32f3xx_hal_i2c.c ****           hi2c->XferSize = hi2c->XferCount;
 3395              		.loc 1 1829 0
 3396 01c0 FB68     		ldr	r3, [r7, #12]
 3397 01c2 5B8D     		ldrh	r3, [r3, #42]	@ movhi
 3398 01c4 9AB2     		uxth	r2, r3
 3399 01c6 FB68     		ldr	r3, [r7, #12]
 3400 01c8 1A85     		strh	r2, [r3, #40]	@ movhi
1830:Drivers/STM32F3xx_HAL_Driver/Src/stm32f3xx_hal_i2c.c ****           I2C_TransferConfig(hi2c, DevAddress, hi2c->XferSize, I2C_AUTOEND_MODE, I2C_NO_STARTSTOP);
 3401              		.loc 1 1830 0
 3402 01ca FB68     		ldr	r3, [r7, #12]
 3403 01cc 1B8D     		ldrh	r3, [r3, #40]
 3404 01ce DAB2     		uxtb	r2, r3
 3405 01d0 7989     		ldrh	r1, [r7, #10]
 3406 01d2 0023     		movs	r3, #0
 3407 01d4 0093     		str	r3, [sp]
 3408 01d6 4FF00073 		mov	r3, #33554432
 3409 01da F868     		ldr	r0, [r7, #12]
 3410 01dc FFF7FEFF 		bl	I2C_TransferConfig
 3411              	.L161:
1831:Drivers/STM32F3xx_HAL_Driver/Src/stm32f3xx_hal_i2c.c ****         }
1832:Drivers/STM32F3xx_HAL_Driver/Src/stm32f3xx_hal_i2c.c ****       }
1833:Drivers/STM32F3xx_HAL_Driver/Src/stm32f3xx_hal_i2c.c **** 
1834:Drivers/STM32F3xx_HAL_Driver/Src/stm32f3xx_hal_i2c.c ****     }
1835:Drivers/STM32F3xx_HAL_Driver/Src/stm32f3xx_hal_i2c.c ****     while (hi2c->XferCount > 0U);
 3412              		.loc 1 1835 0
 3413 01e0 FB68     		ldr	r3, [r7, #12]
 3414 01e2 5B8D     		ldrh	r3, [r3, #42]	@ movhi
 3415 01e4 9BB2     		uxth	r3, r3
 3416 01e6 002B     		cmp	r3, #0
 3417 01e8 9AD1     		bne	.L164
1836:Drivers/STM32F3xx_HAL_Driver/Src/stm32f3xx_hal_i2c.c **** 
1837:Drivers/STM32F3xx_HAL_Driver/Src/stm32f3xx_hal_i2c.c ****     /* No need to Check TC flag, with AUTOEND mode the stop is automatically generated */
1838:Drivers/STM32F3xx_HAL_Driver/Src/stm32f3xx_hal_i2c.c ****     /* Wait until STOPF flag is reset */
1839:Drivers/STM32F3xx_HAL_Driver/Src/stm32f3xx_hal_i2c.c ****     if (I2C_WaitOnSTOPFlagUntilTimeout(hi2c, Timeout, tickstart) != HAL_OK)
 3418              		.loc 1 1839 0
 3419 01ea 7A69     		ldr	r2, [r7, #20]
 3420 01ec B96A     		ldr	r1, [r7, #40]
 3421 01ee F868     		ldr	r0, [r7, #12]
 3422 01f0 FFF7FEFF 		bl	I2C_WaitOnSTOPFlagUntilTimeout
 3423 01f4 0346     		mov	r3, r0
 3424 01f6 002B     		cmp	r3, #0
 3425 01f8 07D0     		beq	.L165
1840:Drivers/STM32F3xx_HAL_Driver/Src/stm32f3xx_hal_i2c.c ****     {
1841:Drivers/STM32F3xx_HAL_Driver/Src/stm32f3xx_hal_i2c.c ****       if (hi2c->ErrorCode == HAL_I2C_ERROR_AF)
 3426              		.loc 1 1841 0
 3427 01fa FB68     		ldr	r3, [r7, #12]
 3428 01fc 5B6C     		ldr	r3, [r3, #68]
 3429 01fe 042B     		cmp	r3, #4
 3430 0200 01D1     		bne	.L166
1842:Drivers/STM32F3xx_HAL_Driver/Src/stm32f3xx_hal_i2c.c ****       {
1843:Drivers/STM32F3xx_HAL_Driver/Src/stm32f3xx_hal_i2c.c ****         return HAL_ERROR;
 3431              		.loc 1 1843 0
 3432 0202 0123     		movs	r3, #1
ARM GAS  /tmp/ccy0jiyr.s 			page 93


 3433 0204 1CE0     		b	.L152
 3434              	.L166:
1844:Drivers/STM32F3xx_HAL_Driver/Src/stm32f3xx_hal_i2c.c ****       }
1845:Drivers/STM32F3xx_HAL_Driver/Src/stm32f3xx_hal_i2c.c ****       else
1846:Drivers/STM32F3xx_HAL_Driver/Src/stm32f3xx_hal_i2c.c ****       {
1847:Drivers/STM32F3xx_HAL_Driver/Src/stm32f3xx_hal_i2c.c ****         return HAL_TIMEOUT;
 3435              		.loc 1 1847 0
 3436 0206 0323     		movs	r3, #3
 3437 0208 1AE0     		b	.L152
 3438              	.L165:
1848:Drivers/STM32F3xx_HAL_Driver/Src/stm32f3xx_hal_i2c.c ****       }
1849:Drivers/STM32F3xx_HAL_Driver/Src/stm32f3xx_hal_i2c.c ****     }
1850:Drivers/STM32F3xx_HAL_Driver/Src/stm32f3xx_hal_i2c.c **** 
1851:Drivers/STM32F3xx_HAL_Driver/Src/stm32f3xx_hal_i2c.c ****     /* Clear STOP Flag */
1852:Drivers/STM32F3xx_HAL_Driver/Src/stm32f3xx_hal_i2c.c ****     __HAL_I2C_CLEAR_FLAG(hi2c, I2C_FLAG_STOPF);
 3439              		.loc 1 1852 0
 3440 020a FB68     		ldr	r3, [r7, #12]
 3441 020c 1B68     		ldr	r3, [r3]
 3442 020e 2022     		movs	r2, #32
 3443 0210 DA61     		str	r2, [r3, #28]
1853:Drivers/STM32F3xx_HAL_Driver/Src/stm32f3xx_hal_i2c.c **** 
1854:Drivers/STM32F3xx_HAL_Driver/Src/stm32f3xx_hal_i2c.c ****     /* Clear Configuration Register 2 */
1855:Drivers/STM32F3xx_HAL_Driver/Src/stm32f3xx_hal_i2c.c ****     I2C_RESET_CR2(hi2c);
 3444              		.loc 1 1855 0
 3445 0212 FB68     		ldr	r3, [r7, #12]
 3446 0214 1B68     		ldr	r3, [r3]
 3447 0216 5968     		ldr	r1, [r3, #4]
 3448 0218 FB68     		ldr	r3, [r7, #12]
 3449 021a 1A68     		ldr	r2, [r3]
 3450 021c 0A4B     		ldr	r3, .L167
 3451 021e 0B40     		ands	r3, r3, r1
 3452 0220 5360     		str	r3, [r2, #4]
1856:Drivers/STM32F3xx_HAL_Driver/Src/stm32f3xx_hal_i2c.c **** 
1857:Drivers/STM32F3xx_HAL_Driver/Src/stm32f3xx_hal_i2c.c ****     hi2c->State = HAL_I2C_STATE_READY;
 3453              		.loc 1 1857 0
 3454 0222 FB68     		ldr	r3, [r7, #12]
 3455 0224 2022     		movs	r2, #32
 3456 0226 83F84120 		strb	r2, [r3, #65]
1858:Drivers/STM32F3xx_HAL_Driver/Src/stm32f3xx_hal_i2c.c ****     hi2c->Mode  = HAL_I2C_MODE_NONE;
 3457              		.loc 1 1858 0
 3458 022a FB68     		ldr	r3, [r7, #12]
 3459 022c 0022     		movs	r2, #0
 3460 022e 83F84220 		strb	r2, [r3, #66]
1859:Drivers/STM32F3xx_HAL_Driver/Src/stm32f3xx_hal_i2c.c **** 
1860:Drivers/STM32F3xx_HAL_Driver/Src/stm32f3xx_hal_i2c.c ****     /* Process Unlocked */
1861:Drivers/STM32F3xx_HAL_Driver/Src/stm32f3xx_hal_i2c.c ****     __HAL_UNLOCK(hi2c);
 3461              		.loc 1 1861 0
 3462 0232 FB68     		ldr	r3, [r7, #12]
 3463 0234 0022     		movs	r2, #0
 3464 0236 83F84020 		strb	r2, [r3, #64]
1862:Drivers/STM32F3xx_HAL_Driver/Src/stm32f3xx_hal_i2c.c **** 
1863:Drivers/STM32F3xx_HAL_Driver/Src/stm32f3xx_hal_i2c.c ****     return HAL_OK;
 3465              		.loc 1 1863 0
 3466 023a 0023     		movs	r3, #0
 3467 023c 00E0     		b	.L152
 3468              	.L149:
1864:Drivers/STM32F3xx_HAL_Driver/Src/stm32f3xx_hal_i2c.c ****   }
ARM GAS  /tmp/ccy0jiyr.s 			page 94


1865:Drivers/STM32F3xx_HAL_Driver/Src/stm32f3xx_hal_i2c.c ****   else
1866:Drivers/STM32F3xx_HAL_Driver/Src/stm32f3xx_hal_i2c.c ****   {
1867:Drivers/STM32F3xx_HAL_Driver/Src/stm32f3xx_hal_i2c.c ****     return HAL_BUSY;
 3469              		.loc 1 1867 0
 3470 023e 0223     		movs	r3, #2
 3471              	.L152:
1868:Drivers/STM32F3xx_HAL_Driver/Src/stm32f3xx_hal_i2c.c ****   }
1869:Drivers/STM32F3xx_HAL_Driver/Src/stm32f3xx_hal_i2c.c **** }
 3472              		.loc 1 1869 0
 3473 0240 1846     		mov	r0, r3
 3474 0242 1837     		adds	r7, r7, #24
 3475              	.LCFI85:
 3476              		.cfi_def_cfa_offset 8
 3477 0244 BD46     		mov	sp, r7
 3478              	.LCFI86:
 3479              		.cfi_def_cfa_register 13
 3480              		@ sp needed
 3481 0246 80BD     		pop	{r7, pc}
 3482              	.L168:
 3483              		.align	2
 3484              	.L167:
 3485 0248 00E800FE 		.word	-33495040
 3486              		.cfi_endproc
 3487              	.LFE711:
 3489              		.section	.text.HAL_I2C_Mem_Read,"ax",%progbits
 3490              		.align	1
 3491              		.global	HAL_I2C_Mem_Read
 3492              		.syntax unified
 3493              		.thumb
 3494              		.thumb_func
 3495              		.fpu fpv4-sp-d16
 3497              	HAL_I2C_Mem_Read:
 3498              	.LFB712:
1870:Drivers/STM32F3xx_HAL_Driver/Src/stm32f3xx_hal_i2c.c **** 
1871:Drivers/STM32F3xx_HAL_Driver/Src/stm32f3xx_hal_i2c.c **** /**
1872:Drivers/STM32F3xx_HAL_Driver/Src/stm32f3xx_hal_i2c.c ****   * @brief  Read an amount of data in blocking mode from a specific memory address
1873:Drivers/STM32F3xx_HAL_Driver/Src/stm32f3xx_hal_i2c.c ****   * @param  hi2c Pointer to a I2C_HandleTypeDef structure that contains
1874:Drivers/STM32F3xx_HAL_Driver/Src/stm32f3xx_hal_i2c.c ****   *                the configuration information for the specified I2C.
1875:Drivers/STM32F3xx_HAL_Driver/Src/stm32f3xx_hal_i2c.c ****   * @param  DevAddress Target device address: The device 7 bits address value
1876:Drivers/STM32F3xx_HAL_Driver/Src/stm32f3xx_hal_i2c.c ****   *         in datasheet must be shift at right before call interface
1877:Drivers/STM32F3xx_HAL_Driver/Src/stm32f3xx_hal_i2c.c ****   * @param  MemAddress Internal memory address
1878:Drivers/STM32F3xx_HAL_Driver/Src/stm32f3xx_hal_i2c.c ****   * @param  MemAddSize Size of internal memory address
1879:Drivers/STM32F3xx_HAL_Driver/Src/stm32f3xx_hal_i2c.c ****   * @param  pData Pointer to data buffer
1880:Drivers/STM32F3xx_HAL_Driver/Src/stm32f3xx_hal_i2c.c ****   * @param  Size Amount of data to be sent
1881:Drivers/STM32F3xx_HAL_Driver/Src/stm32f3xx_hal_i2c.c ****   * @param  Timeout Timeout duration
1882:Drivers/STM32F3xx_HAL_Driver/Src/stm32f3xx_hal_i2c.c ****   * @retval HAL status
1883:Drivers/STM32F3xx_HAL_Driver/Src/stm32f3xx_hal_i2c.c ****   */
1884:Drivers/STM32F3xx_HAL_Driver/Src/stm32f3xx_hal_i2c.c **** HAL_StatusTypeDef HAL_I2C_Mem_Read(I2C_HandleTypeDef *hi2c, uint16_t DevAddress, uint16_t MemAddres
1885:Drivers/STM32F3xx_HAL_Driver/Src/stm32f3xx_hal_i2c.c **** {
 3499              		.loc 1 1885 0
 3500              		.cfi_startproc
 3501              		@ args = 12, pretend = 0, frame = 24
 3502              		@ frame_needed = 1, uses_anonymous_args = 0
 3503 0000 80B5     		push	{r7, lr}
 3504              	.LCFI87:
 3505              		.cfi_def_cfa_offset 8
 3506              		.cfi_offset 7, -8
ARM GAS  /tmp/ccy0jiyr.s 			page 95


 3507              		.cfi_offset 14, -4
 3508 0002 88B0     		sub	sp, sp, #32
 3509              	.LCFI88:
 3510              		.cfi_def_cfa_offset 40
 3511 0004 02AF     		add	r7, sp, #8
 3512              	.LCFI89:
 3513              		.cfi_def_cfa 7, 32
 3514 0006 F860     		str	r0, [r7, #12]
 3515 0008 0846     		mov	r0, r1
 3516 000a 1146     		mov	r1, r2
 3517 000c 1A46     		mov	r2, r3
 3518 000e 0346     		mov	r3, r0	@ movhi
 3519 0010 7B81     		strh	r3, [r7, #10]	@ movhi
 3520 0012 0B46     		mov	r3, r1	@ movhi
 3521 0014 3B81     		strh	r3, [r7, #8]	@ movhi
 3522 0016 1346     		mov	r3, r2	@ movhi
 3523 0018 FB80     		strh	r3, [r7, #6]	@ movhi
1886:Drivers/STM32F3xx_HAL_Driver/Src/stm32f3xx_hal_i2c.c ****   uint32_t tickstart = 0U;
 3524              		.loc 1 1886 0
 3525 001a 0023     		movs	r3, #0
 3526 001c 7B61     		str	r3, [r7, #20]
1887:Drivers/STM32F3xx_HAL_Driver/Src/stm32f3xx_hal_i2c.c **** 
1888:Drivers/STM32F3xx_HAL_Driver/Src/stm32f3xx_hal_i2c.c ****   /* Check the parameters */
1889:Drivers/STM32F3xx_HAL_Driver/Src/stm32f3xx_hal_i2c.c ****   assert_param(IS_I2C_MEMADD_SIZE(MemAddSize));
1890:Drivers/STM32F3xx_HAL_Driver/Src/stm32f3xx_hal_i2c.c **** 
1891:Drivers/STM32F3xx_HAL_Driver/Src/stm32f3xx_hal_i2c.c ****   if (hi2c->State == HAL_I2C_STATE_READY)
 3527              		.loc 1 1891 0
 3528 001e FB68     		ldr	r3, [r7, #12]
 3529 0020 93F84130 		ldrb	r3, [r3, #65]
 3530 0024 DBB2     		uxtb	r3, r3
 3531 0026 202B     		cmp	r3, #32
 3532 0028 40F00981 		bne	.L170
1892:Drivers/STM32F3xx_HAL_Driver/Src/stm32f3xx_hal_i2c.c ****   {
1893:Drivers/STM32F3xx_HAL_Driver/Src/stm32f3xx_hal_i2c.c ****     if ((pData == NULL) || (Size == 0U))
 3533              		.loc 1 1893 0
 3534 002c 3B6A     		ldr	r3, [r7, #32]
 3535 002e 002B     		cmp	r3, #0
 3536 0030 02D0     		beq	.L171
 3537              		.loc 1 1893 0 is_stmt 0 discriminator 1
 3538 0032 BB8C     		ldrh	r3, [r7, #36]
 3539 0034 002B     		cmp	r3, #0
 3540 0036 01D1     		bne	.L172
 3541              	.L171:
1894:Drivers/STM32F3xx_HAL_Driver/Src/stm32f3xx_hal_i2c.c ****     {
1895:Drivers/STM32F3xx_HAL_Driver/Src/stm32f3xx_hal_i2c.c ****       return  HAL_ERROR;
 3542              		.loc 1 1895 0 is_stmt 1
 3543 0038 0123     		movs	r3, #1
 3544 003a 01E1     		b	.L173
 3545              	.L172:
1896:Drivers/STM32F3xx_HAL_Driver/Src/stm32f3xx_hal_i2c.c ****     }
1897:Drivers/STM32F3xx_HAL_Driver/Src/stm32f3xx_hal_i2c.c **** 
1898:Drivers/STM32F3xx_HAL_Driver/Src/stm32f3xx_hal_i2c.c ****     /* Process Locked */
1899:Drivers/STM32F3xx_HAL_Driver/Src/stm32f3xx_hal_i2c.c ****     __HAL_LOCK(hi2c);
 3546              		.loc 1 1899 0
 3547 003c FB68     		ldr	r3, [r7, #12]
 3548 003e 93F84030 		ldrb	r3, [r3, #64]	@ zero_extendqisi2
 3549 0042 012B     		cmp	r3, #1
ARM GAS  /tmp/ccy0jiyr.s 			page 96


 3550 0044 01D1     		bne	.L174
 3551              		.loc 1 1899 0 is_stmt 0 discriminator 1
 3552 0046 0223     		movs	r3, #2
 3553 0048 FAE0     		b	.L173
 3554              	.L174:
 3555              		.loc 1 1899 0 discriminator 2
 3556 004a FB68     		ldr	r3, [r7, #12]
 3557 004c 0122     		movs	r2, #1
 3558 004e 83F84020 		strb	r2, [r3, #64]
1900:Drivers/STM32F3xx_HAL_Driver/Src/stm32f3xx_hal_i2c.c **** 
1901:Drivers/STM32F3xx_HAL_Driver/Src/stm32f3xx_hal_i2c.c ****     /* Init tickstart for timeout management*/
1902:Drivers/STM32F3xx_HAL_Driver/Src/stm32f3xx_hal_i2c.c ****     tickstart = HAL_GetTick();
 3559              		.loc 1 1902 0 is_stmt 1 discriminator 2
 3560 0052 FFF7FEFF 		bl	HAL_GetTick
 3561 0056 7861     		str	r0, [r7, #20]
1903:Drivers/STM32F3xx_HAL_Driver/Src/stm32f3xx_hal_i2c.c **** 
1904:Drivers/STM32F3xx_HAL_Driver/Src/stm32f3xx_hal_i2c.c ****     if (I2C_WaitOnFlagUntilTimeout(hi2c, I2C_FLAG_BUSY, SET, I2C_TIMEOUT_BUSY, tickstart) != HAL_OK
 3562              		.loc 1 1904 0 discriminator 2
 3563 0058 7B69     		ldr	r3, [r7, #20]
 3564 005a 0093     		str	r3, [sp]
 3565 005c 1923     		movs	r3, #25
 3566 005e 0122     		movs	r2, #1
 3567 0060 4FF40041 		mov	r1, #32768
 3568 0064 F868     		ldr	r0, [r7, #12]
 3569 0066 FFF7FEFF 		bl	I2C_WaitOnFlagUntilTimeout
 3570 006a 0346     		mov	r3, r0
 3571 006c 002B     		cmp	r3, #0
 3572 006e 01D0     		beq	.L175
1905:Drivers/STM32F3xx_HAL_Driver/Src/stm32f3xx_hal_i2c.c ****     {
1906:Drivers/STM32F3xx_HAL_Driver/Src/stm32f3xx_hal_i2c.c ****       return HAL_TIMEOUT;
 3573              		.loc 1 1906 0
 3574 0070 0323     		movs	r3, #3
 3575 0072 E5E0     		b	.L173
 3576              	.L175:
1907:Drivers/STM32F3xx_HAL_Driver/Src/stm32f3xx_hal_i2c.c ****     }
1908:Drivers/STM32F3xx_HAL_Driver/Src/stm32f3xx_hal_i2c.c **** 
1909:Drivers/STM32F3xx_HAL_Driver/Src/stm32f3xx_hal_i2c.c ****     hi2c->State     = HAL_I2C_STATE_BUSY_RX;
 3577              		.loc 1 1909 0
 3578 0074 FB68     		ldr	r3, [r7, #12]
 3579 0076 2222     		movs	r2, #34
 3580 0078 83F84120 		strb	r2, [r3, #65]
1910:Drivers/STM32F3xx_HAL_Driver/Src/stm32f3xx_hal_i2c.c ****     hi2c->Mode      = HAL_I2C_MODE_MEM;
 3581              		.loc 1 1910 0
 3582 007c FB68     		ldr	r3, [r7, #12]
 3583 007e 4022     		movs	r2, #64
 3584 0080 83F84220 		strb	r2, [r3, #66]
1911:Drivers/STM32F3xx_HAL_Driver/Src/stm32f3xx_hal_i2c.c ****     hi2c->ErrorCode = HAL_I2C_ERROR_NONE;
 3585              		.loc 1 1911 0
 3586 0084 FB68     		ldr	r3, [r7, #12]
 3587 0086 0022     		movs	r2, #0
 3588 0088 5A64     		str	r2, [r3, #68]
1912:Drivers/STM32F3xx_HAL_Driver/Src/stm32f3xx_hal_i2c.c **** 
1913:Drivers/STM32F3xx_HAL_Driver/Src/stm32f3xx_hal_i2c.c ****     /* Prepare transfer parameters */
1914:Drivers/STM32F3xx_HAL_Driver/Src/stm32f3xx_hal_i2c.c ****     hi2c->pBuffPtr  = pData;
 3589              		.loc 1 1914 0
 3590 008a FB68     		ldr	r3, [r7, #12]
 3591 008c 3A6A     		ldr	r2, [r7, #32]
ARM GAS  /tmp/ccy0jiyr.s 			page 97


 3592 008e 5A62     		str	r2, [r3, #36]
1915:Drivers/STM32F3xx_HAL_Driver/Src/stm32f3xx_hal_i2c.c ****     hi2c->XferCount = Size;
 3593              		.loc 1 1915 0
 3594 0090 FB68     		ldr	r3, [r7, #12]
 3595 0092 BA8C     		ldrh	r2, [r7, #36]	@ movhi
 3596 0094 5A85     		strh	r2, [r3, #42]	@ movhi
1916:Drivers/STM32F3xx_HAL_Driver/Src/stm32f3xx_hal_i2c.c ****     hi2c->XferISR   = NULL;
 3597              		.loc 1 1916 0
 3598 0096 FB68     		ldr	r3, [r7, #12]
 3599 0098 0022     		movs	r2, #0
 3600 009a 5A63     		str	r2, [r3, #52]
1917:Drivers/STM32F3xx_HAL_Driver/Src/stm32f3xx_hal_i2c.c **** 
1918:Drivers/STM32F3xx_HAL_Driver/Src/stm32f3xx_hal_i2c.c ****     /* Send Slave Address and Memory Address */
1919:Drivers/STM32F3xx_HAL_Driver/Src/stm32f3xx_hal_i2c.c ****     if (I2C_RequestMemoryRead(hi2c, DevAddress, MemAddress, MemAddSize, Timeout, tickstart) != HAL_
 3601              		.loc 1 1919 0
 3602 009c F888     		ldrh	r0, [r7, #6]
 3603 009e 3A89     		ldrh	r2, [r7, #8]
 3604 00a0 7989     		ldrh	r1, [r7, #10]
 3605 00a2 7B69     		ldr	r3, [r7, #20]
 3606 00a4 0193     		str	r3, [sp, #4]
 3607 00a6 BB6A     		ldr	r3, [r7, #40]
 3608 00a8 0093     		str	r3, [sp]
 3609 00aa 0346     		mov	r3, r0
 3610 00ac F868     		ldr	r0, [r7, #12]
 3611 00ae FFF7FEFF 		bl	I2C_RequestMemoryRead
 3612 00b2 0346     		mov	r3, r0
 3613 00b4 002B     		cmp	r3, #0
 3614 00b6 0FD0     		beq	.L176
1920:Drivers/STM32F3xx_HAL_Driver/Src/stm32f3xx_hal_i2c.c ****     {
1921:Drivers/STM32F3xx_HAL_Driver/Src/stm32f3xx_hal_i2c.c ****       if (hi2c->ErrorCode == HAL_I2C_ERROR_AF)
 3615              		.loc 1 1921 0
 3616 00b8 FB68     		ldr	r3, [r7, #12]
 3617 00ba 5B6C     		ldr	r3, [r3, #68]
 3618 00bc 042B     		cmp	r3, #4
 3619 00be 05D1     		bne	.L177
1922:Drivers/STM32F3xx_HAL_Driver/Src/stm32f3xx_hal_i2c.c ****       {
1923:Drivers/STM32F3xx_HAL_Driver/Src/stm32f3xx_hal_i2c.c ****         /* Process Unlocked */
1924:Drivers/STM32F3xx_HAL_Driver/Src/stm32f3xx_hal_i2c.c ****         __HAL_UNLOCK(hi2c);
 3620              		.loc 1 1924 0
 3621 00c0 FB68     		ldr	r3, [r7, #12]
 3622 00c2 0022     		movs	r2, #0
 3623 00c4 83F84020 		strb	r2, [r3, #64]
1925:Drivers/STM32F3xx_HAL_Driver/Src/stm32f3xx_hal_i2c.c ****         return HAL_ERROR;
 3624              		.loc 1 1925 0
 3625 00c8 0123     		movs	r3, #1
 3626 00ca B9E0     		b	.L173
 3627              	.L177:
1926:Drivers/STM32F3xx_HAL_Driver/Src/stm32f3xx_hal_i2c.c ****       }
1927:Drivers/STM32F3xx_HAL_Driver/Src/stm32f3xx_hal_i2c.c ****       else
1928:Drivers/STM32F3xx_HAL_Driver/Src/stm32f3xx_hal_i2c.c ****       {
1929:Drivers/STM32F3xx_HAL_Driver/Src/stm32f3xx_hal_i2c.c ****         /* Process Unlocked */
1930:Drivers/STM32F3xx_HAL_Driver/Src/stm32f3xx_hal_i2c.c ****         __HAL_UNLOCK(hi2c);
 3628              		.loc 1 1930 0
 3629 00cc FB68     		ldr	r3, [r7, #12]
 3630 00ce 0022     		movs	r2, #0
 3631 00d0 83F84020 		strb	r2, [r3, #64]
1931:Drivers/STM32F3xx_HAL_Driver/Src/stm32f3xx_hal_i2c.c ****         return HAL_TIMEOUT;
ARM GAS  /tmp/ccy0jiyr.s 			page 98


 3632              		.loc 1 1931 0
 3633 00d4 0323     		movs	r3, #3
 3634 00d6 B3E0     		b	.L173
 3635              	.L176:
1932:Drivers/STM32F3xx_HAL_Driver/Src/stm32f3xx_hal_i2c.c ****       }
1933:Drivers/STM32F3xx_HAL_Driver/Src/stm32f3xx_hal_i2c.c ****     }
1934:Drivers/STM32F3xx_HAL_Driver/Src/stm32f3xx_hal_i2c.c **** 
1935:Drivers/STM32F3xx_HAL_Driver/Src/stm32f3xx_hal_i2c.c ****     /* Send Slave Address */
1936:Drivers/STM32F3xx_HAL_Driver/Src/stm32f3xx_hal_i2c.c ****     /* Set NBYTES to write and reload if hi2c->XferCount > MAX_NBYTE_SIZE and generate RESTART */
1937:Drivers/STM32F3xx_HAL_Driver/Src/stm32f3xx_hal_i2c.c ****     if (hi2c->XferCount > MAX_NBYTE_SIZE)
 3636              		.loc 1 1937 0
 3637 00d8 FB68     		ldr	r3, [r7, #12]
 3638 00da 5B8D     		ldrh	r3, [r3, #42]	@ movhi
 3639 00dc 9BB2     		uxth	r3, r3
 3640 00de FF2B     		cmp	r3, #255
 3641 00e0 0FD9     		bls	.L178
1938:Drivers/STM32F3xx_HAL_Driver/Src/stm32f3xx_hal_i2c.c ****     {
1939:Drivers/STM32F3xx_HAL_Driver/Src/stm32f3xx_hal_i2c.c ****       hi2c->XferSize = MAX_NBYTE_SIZE;
 3642              		.loc 1 1939 0
 3643 00e2 FB68     		ldr	r3, [r7, #12]
 3644 00e4 FF22     		movs	r2, #255
 3645 00e6 1A85     		strh	r2, [r3, #40]	@ movhi
1940:Drivers/STM32F3xx_HAL_Driver/Src/stm32f3xx_hal_i2c.c ****       I2C_TransferConfig(hi2c, DevAddress, hi2c->XferSize, I2C_RELOAD_MODE, I2C_GENERATE_START_READ
 3646              		.loc 1 1940 0
 3647 00e8 FB68     		ldr	r3, [r7, #12]
 3648 00ea 1B8D     		ldrh	r3, [r3, #40]
 3649 00ec DAB2     		uxtb	r2, r3
 3650 00ee 7989     		ldrh	r1, [r7, #10]
 3651 00f0 4FF41053 		mov	r3, #9216
 3652 00f4 0093     		str	r3, [sp]
 3653 00f6 4FF08073 		mov	r3, #16777216
 3654 00fa F868     		ldr	r0, [r7, #12]
 3655 00fc FFF7FEFF 		bl	I2C_TransferConfig
 3656 0100 10E0     		b	.L184
 3657              	.L178:
1941:Drivers/STM32F3xx_HAL_Driver/Src/stm32f3xx_hal_i2c.c ****     }
1942:Drivers/STM32F3xx_HAL_Driver/Src/stm32f3xx_hal_i2c.c ****     else
1943:Drivers/STM32F3xx_HAL_Driver/Src/stm32f3xx_hal_i2c.c ****     {
1944:Drivers/STM32F3xx_HAL_Driver/Src/stm32f3xx_hal_i2c.c ****       hi2c->XferSize = hi2c->XferCount;
 3658              		.loc 1 1944 0
 3659 0102 FB68     		ldr	r3, [r7, #12]
 3660 0104 5B8D     		ldrh	r3, [r3, #42]	@ movhi
 3661 0106 9AB2     		uxth	r2, r3
 3662 0108 FB68     		ldr	r3, [r7, #12]
 3663 010a 1A85     		strh	r2, [r3, #40]	@ movhi
1945:Drivers/STM32F3xx_HAL_Driver/Src/stm32f3xx_hal_i2c.c ****       I2C_TransferConfig(hi2c, DevAddress, hi2c->XferSize, I2C_AUTOEND_MODE, I2C_GENERATE_START_REA
 3664              		.loc 1 1945 0
 3665 010c FB68     		ldr	r3, [r7, #12]
 3666 010e 1B8D     		ldrh	r3, [r3, #40]
 3667 0110 DAB2     		uxtb	r2, r3
 3668 0112 7989     		ldrh	r1, [r7, #10]
 3669 0114 4FF41053 		mov	r3, #9216
 3670 0118 0093     		str	r3, [sp]
 3671 011a 4FF00073 		mov	r3, #33554432
 3672 011e F868     		ldr	r0, [r7, #12]
 3673 0120 FFF7FEFF 		bl	I2C_TransferConfig
 3674              	.L184:
ARM GAS  /tmp/ccy0jiyr.s 			page 99


1946:Drivers/STM32F3xx_HAL_Driver/Src/stm32f3xx_hal_i2c.c ****     }
1947:Drivers/STM32F3xx_HAL_Driver/Src/stm32f3xx_hal_i2c.c **** 
1948:Drivers/STM32F3xx_HAL_Driver/Src/stm32f3xx_hal_i2c.c ****     do
1949:Drivers/STM32F3xx_HAL_Driver/Src/stm32f3xx_hal_i2c.c ****     {
1950:Drivers/STM32F3xx_HAL_Driver/Src/stm32f3xx_hal_i2c.c ****       /* Wait until RXNE flag is set */
1951:Drivers/STM32F3xx_HAL_Driver/Src/stm32f3xx_hal_i2c.c ****       if (I2C_WaitOnFlagUntilTimeout(hi2c, I2C_FLAG_RXNE, RESET, Timeout, tickstart) != HAL_OK)
 3675              		.loc 1 1951 0
 3676 0124 7B69     		ldr	r3, [r7, #20]
 3677 0126 0093     		str	r3, [sp]
 3678 0128 BB6A     		ldr	r3, [r7, #40]
 3679 012a 0022     		movs	r2, #0
 3680 012c 0421     		movs	r1, #4
 3681 012e F868     		ldr	r0, [r7, #12]
 3682 0130 FFF7FEFF 		bl	I2C_WaitOnFlagUntilTimeout
 3683 0134 0346     		mov	r3, r0
 3684 0136 002B     		cmp	r3, #0
 3685 0138 01D0     		beq	.L180
1952:Drivers/STM32F3xx_HAL_Driver/Src/stm32f3xx_hal_i2c.c ****       {
1953:Drivers/STM32F3xx_HAL_Driver/Src/stm32f3xx_hal_i2c.c ****         return HAL_TIMEOUT;
 3686              		.loc 1 1953 0
 3687 013a 0323     		movs	r3, #3
 3688 013c 80E0     		b	.L173
 3689              	.L180:
1954:Drivers/STM32F3xx_HAL_Driver/Src/stm32f3xx_hal_i2c.c ****       }
1955:Drivers/STM32F3xx_HAL_Driver/Src/stm32f3xx_hal_i2c.c **** 
1956:Drivers/STM32F3xx_HAL_Driver/Src/stm32f3xx_hal_i2c.c ****       /* Read data from RXDR */
1957:Drivers/STM32F3xx_HAL_Driver/Src/stm32f3xx_hal_i2c.c ****       (*hi2c->pBuffPtr++) = hi2c->Instance->RXDR;
 3690              		.loc 1 1957 0
 3691 013e FB68     		ldr	r3, [r7, #12]
 3692 0140 1B68     		ldr	r3, [r3]
 3693 0142 586A     		ldr	r0, [r3, #36]
 3694 0144 FB68     		ldr	r3, [r7, #12]
 3695 0146 5B6A     		ldr	r3, [r3, #36]
 3696 0148 591C     		adds	r1, r3, #1
 3697 014a FA68     		ldr	r2, [r7, #12]
 3698 014c 5162     		str	r1, [r2, #36]
 3699 014e C2B2     		uxtb	r2, r0
 3700 0150 1A70     		strb	r2, [r3]
1958:Drivers/STM32F3xx_HAL_Driver/Src/stm32f3xx_hal_i2c.c ****       hi2c->XferSize--;
 3701              		.loc 1 1958 0
 3702 0152 FB68     		ldr	r3, [r7, #12]
 3703 0154 1B8D     		ldrh	r3, [r3, #40]
 3704 0156 013B     		subs	r3, r3, #1
 3705 0158 9AB2     		uxth	r2, r3
 3706 015a FB68     		ldr	r3, [r7, #12]
 3707 015c 1A85     		strh	r2, [r3, #40]	@ movhi
1959:Drivers/STM32F3xx_HAL_Driver/Src/stm32f3xx_hal_i2c.c ****       hi2c->XferCount--;
 3708              		.loc 1 1959 0
 3709 015e FB68     		ldr	r3, [r7, #12]
 3710 0160 5B8D     		ldrh	r3, [r3, #42]	@ movhi
 3711 0162 9BB2     		uxth	r3, r3
 3712 0164 013B     		subs	r3, r3, #1
 3713 0166 9AB2     		uxth	r2, r3
 3714 0168 FB68     		ldr	r3, [r7, #12]
 3715 016a 5A85     		strh	r2, [r3, #42]	@ movhi
1960:Drivers/STM32F3xx_HAL_Driver/Src/stm32f3xx_hal_i2c.c **** 
1961:Drivers/STM32F3xx_HAL_Driver/Src/stm32f3xx_hal_i2c.c ****       if ((hi2c->XferSize == 0U) && (hi2c->XferCount != 0U))
ARM GAS  /tmp/ccy0jiyr.s 			page 100


 3716              		.loc 1 1961 0
 3717 016c FB68     		ldr	r3, [r7, #12]
 3718 016e 1B8D     		ldrh	r3, [r3, #40]
 3719 0170 002B     		cmp	r3, #0
 3720 0172 35D1     		bne	.L181
 3721              		.loc 1 1961 0 is_stmt 0 discriminator 1
 3722 0174 FB68     		ldr	r3, [r7, #12]
 3723 0176 5B8D     		ldrh	r3, [r3, #42]	@ movhi
 3724 0178 9BB2     		uxth	r3, r3
 3725 017a 002B     		cmp	r3, #0
 3726 017c 30D0     		beq	.L181
1962:Drivers/STM32F3xx_HAL_Driver/Src/stm32f3xx_hal_i2c.c ****       {
1963:Drivers/STM32F3xx_HAL_Driver/Src/stm32f3xx_hal_i2c.c ****         /* Wait until TCR flag is set */
1964:Drivers/STM32F3xx_HAL_Driver/Src/stm32f3xx_hal_i2c.c ****         if (I2C_WaitOnFlagUntilTimeout(hi2c, I2C_FLAG_TCR, RESET, Timeout, tickstart) != HAL_OK)
 3727              		.loc 1 1964 0 is_stmt 1
 3728 017e 7B69     		ldr	r3, [r7, #20]
 3729 0180 0093     		str	r3, [sp]
 3730 0182 BB6A     		ldr	r3, [r7, #40]
 3731 0184 0022     		movs	r2, #0
 3732 0186 8021     		movs	r1, #128
 3733 0188 F868     		ldr	r0, [r7, #12]
 3734 018a FFF7FEFF 		bl	I2C_WaitOnFlagUntilTimeout
 3735 018e 0346     		mov	r3, r0
 3736 0190 002B     		cmp	r3, #0
 3737 0192 01D0     		beq	.L182
1965:Drivers/STM32F3xx_HAL_Driver/Src/stm32f3xx_hal_i2c.c ****         {
1966:Drivers/STM32F3xx_HAL_Driver/Src/stm32f3xx_hal_i2c.c ****           return HAL_TIMEOUT;
 3738              		.loc 1 1966 0
 3739 0194 0323     		movs	r3, #3
 3740 0196 53E0     		b	.L173
 3741              	.L182:
1967:Drivers/STM32F3xx_HAL_Driver/Src/stm32f3xx_hal_i2c.c ****         }
1968:Drivers/STM32F3xx_HAL_Driver/Src/stm32f3xx_hal_i2c.c **** 
1969:Drivers/STM32F3xx_HAL_Driver/Src/stm32f3xx_hal_i2c.c ****         if (hi2c->XferCount > MAX_NBYTE_SIZE)
 3742              		.loc 1 1969 0
 3743 0198 FB68     		ldr	r3, [r7, #12]
 3744 019a 5B8D     		ldrh	r3, [r3, #42]	@ movhi
 3745 019c 9BB2     		uxth	r3, r3
 3746 019e FF2B     		cmp	r3, #255
 3747 01a0 0ED9     		bls	.L183
1970:Drivers/STM32F3xx_HAL_Driver/Src/stm32f3xx_hal_i2c.c ****         {
1971:Drivers/STM32F3xx_HAL_Driver/Src/stm32f3xx_hal_i2c.c ****           hi2c->XferSize = MAX_NBYTE_SIZE;
 3748              		.loc 1 1971 0
 3749 01a2 FB68     		ldr	r3, [r7, #12]
 3750 01a4 FF22     		movs	r2, #255
 3751 01a6 1A85     		strh	r2, [r3, #40]	@ movhi
1972:Drivers/STM32F3xx_HAL_Driver/Src/stm32f3xx_hal_i2c.c ****           I2C_TransferConfig(hi2c, DevAddress, hi2c->XferSize, I2C_RELOAD_MODE, I2C_NO_STARTSTOP);
 3752              		.loc 1 1972 0
 3753 01a8 FB68     		ldr	r3, [r7, #12]
 3754 01aa 1B8D     		ldrh	r3, [r3, #40]
 3755 01ac DAB2     		uxtb	r2, r3
 3756 01ae 7989     		ldrh	r1, [r7, #10]
 3757 01b0 0023     		movs	r3, #0
 3758 01b2 0093     		str	r3, [sp]
 3759 01b4 4FF08073 		mov	r3, #16777216
 3760 01b8 F868     		ldr	r0, [r7, #12]
 3761 01ba FFF7FEFF 		bl	I2C_TransferConfig
ARM GAS  /tmp/ccy0jiyr.s 			page 101


 3762 01be 0FE0     		b	.L181
 3763              	.L183:
1973:Drivers/STM32F3xx_HAL_Driver/Src/stm32f3xx_hal_i2c.c ****         }
1974:Drivers/STM32F3xx_HAL_Driver/Src/stm32f3xx_hal_i2c.c ****         else
1975:Drivers/STM32F3xx_HAL_Driver/Src/stm32f3xx_hal_i2c.c ****         {
1976:Drivers/STM32F3xx_HAL_Driver/Src/stm32f3xx_hal_i2c.c ****           hi2c->XferSize = hi2c->XferCount;
 3764              		.loc 1 1976 0
 3765 01c0 FB68     		ldr	r3, [r7, #12]
 3766 01c2 5B8D     		ldrh	r3, [r3, #42]	@ movhi
 3767 01c4 9AB2     		uxth	r2, r3
 3768 01c6 FB68     		ldr	r3, [r7, #12]
 3769 01c8 1A85     		strh	r2, [r3, #40]	@ movhi
1977:Drivers/STM32F3xx_HAL_Driver/Src/stm32f3xx_hal_i2c.c ****           I2C_TransferConfig(hi2c, DevAddress, hi2c->XferSize, I2C_AUTOEND_MODE, I2C_NO_STARTSTOP);
 3770              		.loc 1 1977 0
 3771 01ca FB68     		ldr	r3, [r7, #12]
 3772 01cc 1B8D     		ldrh	r3, [r3, #40]
 3773 01ce DAB2     		uxtb	r2, r3
 3774 01d0 7989     		ldrh	r1, [r7, #10]
 3775 01d2 0023     		movs	r3, #0
 3776 01d4 0093     		str	r3, [sp]
 3777 01d6 4FF00073 		mov	r3, #33554432
 3778 01da F868     		ldr	r0, [r7, #12]
 3779 01dc FFF7FEFF 		bl	I2C_TransferConfig
 3780              	.L181:
1978:Drivers/STM32F3xx_HAL_Driver/Src/stm32f3xx_hal_i2c.c ****         }
1979:Drivers/STM32F3xx_HAL_Driver/Src/stm32f3xx_hal_i2c.c ****       }
1980:Drivers/STM32F3xx_HAL_Driver/Src/stm32f3xx_hal_i2c.c ****     }
1981:Drivers/STM32F3xx_HAL_Driver/Src/stm32f3xx_hal_i2c.c ****     while (hi2c->XferCount > 0U);
 3781              		.loc 1 1981 0
 3782 01e0 FB68     		ldr	r3, [r7, #12]
 3783 01e2 5B8D     		ldrh	r3, [r3, #42]	@ movhi
 3784 01e4 9BB2     		uxth	r3, r3
 3785 01e6 002B     		cmp	r3, #0
 3786 01e8 9CD1     		bne	.L184
1982:Drivers/STM32F3xx_HAL_Driver/Src/stm32f3xx_hal_i2c.c **** 
1983:Drivers/STM32F3xx_HAL_Driver/Src/stm32f3xx_hal_i2c.c ****     /* No need to Check TC flag, with AUTOEND mode the stop is automatically generated */
1984:Drivers/STM32F3xx_HAL_Driver/Src/stm32f3xx_hal_i2c.c ****     /* Wait until STOPF flag is reset */
1985:Drivers/STM32F3xx_HAL_Driver/Src/stm32f3xx_hal_i2c.c ****     if (I2C_WaitOnSTOPFlagUntilTimeout(hi2c, Timeout, tickstart) != HAL_OK)
 3787              		.loc 1 1985 0
 3788 01ea 7A69     		ldr	r2, [r7, #20]
 3789 01ec B96A     		ldr	r1, [r7, #40]
 3790 01ee F868     		ldr	r0, [r7, #12]
 3791 01f0 FFF7FEFF 		bl	I2C_WaitOnSTOPFlagUntilTimeout
 3792 01f4 0346     		mov	r3, r0
 3793 01f6 002B     		cmp	r3, #0
 3794 01f8 07D0     		beq	.L185
1986:Drivers/STM32F3xx_HAL_Driver/Src/stm32f3xx_hal_i2c.c ****     {
1987:Drivers/STM32F3xx_HAL_Driver/Src/stm32f3xx_hal_i2c.c ****       if (hi2c->ErrorCode == HAL_I2C_ERROR_AF)
 3795              		.loc 1 1987 0
 3796 01fa FB68     		ldr	r3, [r7, #12]
 3797 01fc 5B6C     		ldr	r3, [r3, #68]
 3798 01fe 042B     		cmp	r3, #4
 3799 0200 01D1     		bne	.L186
1988:Drivers/STM32F3xx_HAL_Driver/Src/stm32f3xx_hal_i2c.c ****       {
1989:Drivers/STM32F3xx_HAL_Driver/Src/stm32f3xx_hal_i2c.c ****         return HAL_ERROR;
 3800              		.loc 1 1989 0
 3801 0202 0123     		movs	r3, #1
ARM GAS  /tmp/ccy0jiyr.s 			page 102


 3802 0204 1CE0     		b	.L173
 3803              	.L186:
1990:Drivers/STM32F3xx_HAL_Driver/Src/stm32f3xx_hal_i2c.c ****       }
1991:Drivers/STM32F3xx_HAL_Driver/Src/stm32f3xx_hal_i2c.c ****       else
1992:Drivers/STM32F3xx_HAL_Driver/Src/stm32f3xx_hal_i2c.c ****       {
1993:Drivers/STM32F3xx_HAL_Driver/Src/stm32f3xx_hal_i2c.c ****         return HAL_TIMEOUT;
 3804              		.loc 1 1993 0
 3805 0206 0323     		movs	r3, #3
 3806 0208 1AE0     		b	.L173
 3807              	.L185:
1994:Drivers/STM32F3xx_HAL_Driver/Src/stm32f3xx_hal_i2c.c ****       }
1995:Drivers/STM32F3xx_HAL_Driver/Src/stm32f3xx_hal_i2c.c ****     }
1996:Drivers/STM32F3xx_HAL_Driver/Src/stm32f3xx_hal_i2c.c **** 
1997:Drivers/STM32F3xx_HAL_Driver/Src/stm32f3xx_hal_i2c.c ****     /* Clear STOP Flag */
1998:Drivers/STM32F3xx_HAL_Driver/Src/stm32f3xx_hal_i2c.c ****     __HAL_I2C_CLEAR_FLAG(hi2c, I2C_FLAG_STOPF);
 3808              		.loc 1 1998 0
 3809 020a FB68     		ldr	r3, [r7, #12]
 3810 020c 1B68     		ldr	r3, [r3]
 3811 020e 2022     		movs	r2, #32
 3812 0210 DA61     		str	r2, [r3, #28]
1999:Drivers/STM32F3xx_HAL_Driver/Src/stm32f3xx_hal_i2c.c **** 
2000:Drivers/STM32F3xx_HAL_Driver/Src/stm32f3xx_hal_i2c.c ****     /* Clear Configuration Register 2 */
2001:Drivers/STM32F3xx_HAL_Driver/Src/stm32f3xx_hal_i2c.c ****     I2C_RESET_CR2(hi2c);
 3813              		.loc 1 2001 0
 3814 0212 FB68     		ldr	r3, [r7, #12]
 3815 0214 1B68     		ldr	r3, [r3]
 3816 0216 5968     		ldr	r1, [r3, #4]
 3817 0218 FB68     		ldr	r3, [r7, #12]
 3818 021a 1A68     		ldr	r2, [r3]
 3819 021c 0A4B     		ldr	r3, .L187
 3820 021e 0B40     		ands	r3, r3, r1
 3821 0220 5360     		str	r3, [r2, #4]
2002:Drivers/STM32F3xx_HAL_Driver/Src/stm32f3xx_hal_i2c.c **** 
2003:Drivers/STM32F3xx_HAL_Driver/Src/stm32f3xx_hal_i2c.c ****     hi2c->State = HAL_I2C_STATE_READY;
 3822              		.loc 1 2003 0
 3823 0222 FB68     		ldr	r3, [r7, #12]
 3824 0224 2022     		movs	r2, #32
 3825 0226 83F84120 		strb	r2, [r3, #65]
2004:Drivers/STM32F3xx_HAL_Driver/Src/stm32f3xx_hal_i2c.c ****     hi2c->Mode  = HAL_I2C_MODE_NONE;
 3826              		.loc 1 2004 0
 3827 022a FB68     		ldr	r3, [r7, #12]
 3828 022c 0022     		movs	r2, #0
 3829 022e 83F84220 		strb	r2, [r3, #66]
2005:Drivers/STM32F3xx_HAL_Driver/Src/stm32f3xx_hal_i2c.c **** 
2006:Drivers/STM32F3xx_HAL_Driver/Src/stm32f3xx_hal_i2c.c ****     /* Process Unlocked */
2007:Drivers/STM32F3xx_HAL_Driver/Src/stm32f3xx_hal_i2c.c ****     __HAL_UNLOCK(hi2c);
 3830              		.loc 1 2007 0
 3831 0232 FB68     		ldr	r3, [r7, #12]
 3832 0234 0022     		movs	r2, #0
 3833 0236 83F84020 		strb	r2, [r3, #64]
2008:Drivers/STM32F3xx_HAL_Driver/Src/stm32f3xx_hal_i2c.c **** 
2009:Drivers/STM32F3xx_HAL_Driver/Src/stm32f3xx_hal_i2c.c ****     return HAL_OK;
 3834              		.loc 1 2009 0
 3835 023a 0023     		movs	r3, #0
 3836 023c 00E0     		b	.L173
 3837              	.L170:
2010:Drivers/STM32F3xx_HAL_Driver/Src/stm32f3xx_hal_i2c.c ****   }
ARM GAS  /tmp/ccy0jiyr.s 			page 103


2011:Drivers/STM32F3xx_HAL_Driver/Src/stm32f3xx_hal_i2c.c ****   else
2012:Drivers/STM32F3xx_HAL_Driver/Src/stm32f3xx_hal_i2c.c ****   {
2013:Drivers/STM32F3xx_HAL_Driver/Src/stm32f3xx_hal_i2c.c ****     return HAL_BUSY;
 3838              		.loc 1 2013 0
 3839 023e 0223     		movs	r3, #2
 3840              	.L173:
2014:Drivers/STM32F3xx_HAL_Driver/Src/stm32f3xx_hal_i2c.c ****   }
2015:Drivers/STM32F3xx_HAL_Driver/Src/stm32f3xx_hal_i2c.c **** }
 3841              		.loc 1 2015 0
 3842 0240 1846     		mov	r0, r3
 3843 0242 1837     		adds	r7, r7, #24
 3844              	.LCFI90:
 3845              		.cfi_def_cfa_offset 8
 3846 0244 BD46     		mov	sp, r7
 3847              	.LCFI91:
 3848              		.cfi_def_cfa_register 13
 3849              		@ sp needed
 3850 0246 80BD     		pop	{r7, pc}
 3851              	.L188:
 3852              		.align	2
 3853              	.L187:
 3854 0248 00E800FE 		.word	-33495040
 3855              		.cfi_endproc
 3856              	.LFE712:
 3858              		.section	.text.HAL_I2C_Mem_Write_IT,"ax",%progbits
 3859              		.align	1
 3860              		.global	HAL_I2C_Mem_Write_IT
 3861              		.syntax unified
 3862              		.thumb
 3863              		.thumb_func
 3864              		.fpu fpv4-sp-d16
 3866              	HAL_I2C_Mem_Write_IT:
 3867              	.LFB713:
2016:Drivers/STM32F3xx_HAL_Driver/Src/stm32f3xx_hal_i2c.c **** /**
2017:Drivers/STM32F3xx_HAL_Driver/Src/stm32f3xx_hal_i2c.c ****   * @brief  Write an amount of data in non-blocking mode with Interrupt to a specific memory addres
2018:Drivers/STM32F3xx_HAL_Driver/Src/stm32f3xx_hal_i2c.c ****   * @param  hi2c Pointer to a I2C_HandleTypeDef structure that contains
2019:Drivers/STM32F3xx_HAL_Driver/Src/stm32f3xx_hal_i2c.c ****   *                the configuration information for the specified I2C.
2020:Drivers/STM32F3xx_HAL_Driver/Src/stm32f3xx_hal_i2c.c ****   * @param  DevAddress Target device address: The device 7 bits address value
2021:Drivers/STM32F3xx_HAL_Driver/Src/stm32f3xx_hal_i2c.c ****   *         in datasheet must be shift at right before call interface
2022:Drivers/STM32F3xx_HAL_Driver/Src/stm32f3xx_hal_i2c.c ****   * @param  MemAddress Internal memory address
2023:Drivers/STM32F3xx_HAL_Driver/Src/stm32f3xx_hal_i2c.c ****   * @param  MemAddSize Size of internal memory address
2024:Drivers/STM32F3xx_HAL_Driver/Src/stm32f3xx_hal_i2c.c ****   * @param  pData Pointer to data buffer
2025:Drivers/STM32F3xx_HAL_Driver/Src/stm32f3xx_hal_i2c.c ****   * @param  Size Amount of data to be sent
2026:Drivers/STM32F3xx_HAL_Driver/Src/stm32f3xx_hal_i2c.c ****   * @retval HAL status
2027:Drivers/STM32F3xx_HAL_Driver/Src/stm32f3xx_hal_i2c.c ****   */
2028:Drivers/STM32F3xx_HAL_Driver/Src/stm32f3xx_hal_i2c.c **** HAL_StatusTypeDef HAL_I2C_Mem_Write_IT(I2C_HandleTypeDef *hi2c, uint16_t DevAddress, uint16_t MemAd
2029:Drivers/STM32F3xx_HAL_Driver/Src/stm32f3xx_hal_i2c.c **** {
 3868              		.loc 1 2029 0
 3869              		.cfi_startproc
 3870              		@ args = 8, pretend = 0, frame = 24
 3871              		@ frame_needed = 1, uses_anonymous_args = 0
 3872 0000 80B5     		push	{r7, lr}
 3873              	.LCFI92:
 3874              		.cfi_def_cfa_offset 8
 3875              		.cfi_offset 7, -8
 3876              		.cfi_offset 14, -4
 3877 0002 88B0     		sub	sp, sp, #32
ARM GAS  /tmp/ccy0jiyr.s 			page 104


 3878              	.LCFI93:
 3879              		.cfi_def_cfa_offset 40
 3880 0004 02AF     		add	r7, sp, #8
 3881              	.LCFI94:
 3882              		.cfi_def_cfa 7, 32
 3883 0006 F860     		str	r0, [r7, #12]
 3884 0008 0846     		mov	r0, r1
 3885 000a 1146     		mov	r1, r2
 3886 000c 1A46     		mov	r2, r3
 3887 000e 0346     		mov	r3, r0	@ movhi
 3888 0010 7B81     		strh	r3, [r7, #10]	@ movhi
 3889 0012 0B46     		mov	r3, r1	@ movhi
 3890 0014 3B81     		strh	r3, [r7, #8]	@ movhi
 3891 0016 1346     		mov	r3, r2	@ movhi
 3892 0018 FB80     		strh	r3, [r7, #6]	@ movhi
2030:Drivers/STM32F3xx_HAL_Driver/Src/stm32f3xx_hal_i2c.c ****   uint32_t tickstart = 0U;
 3893              		.loc 1 2030 0
 3894 001a 0023     		movs	r3, #0
 3895 001c 3B61     		str	r3, [r7, #16]
2031:Drivers/STM32F3xx_HAL_Driver/Src/stm32f3xx_hal_i2c.c ****   uint32_t xfermode = 0U;
 3896              		.loc 1 2031 0
 3897 001e 0023     		movs	r3, #0
 3898 0020 7B61     		str	r3, [r7, #20]
2032:Drivers/STM32F3xx_HAL_Driver/Src/stm32f3xx_hal_i2c.c **** 
2033:Drivers/STM32F3xx_HAL_Driver/Src/stm32f3xx_hal_i2c.c ****   /* Check the parameters */
2034:Drivers/STM32F3xx_HAL_Driver/Src/stm32f3xx_hal_i2c.c ****   assert_param(IS_I2C_MEMADD_SIZE(MemAddSize));
2035:Drivers/STM32F3xx_HAL_Driver/Src/stm32f3xx_hal_i2c.c **** 
2036:Drivers/STM32F3xx_HAL_Driver/Src/stm32f3xx_hal_i2c.c ****   if (hi2c->State == HAL_I2C_STATE_READY)
 3899              		.loc 1 2036 0
 3900 0022 FB68     		ldr	r3, [r7, #12]
 3901 0024 93F84130 		ldrb	r3, [r3, #65]
 3902 0028 DBB2     		uxtb	r3, r3
 3903 002a 202B     		cmp	r3, #32
 3904 002c 7CD1     		bne	.L190
2037:Drivers/STM32F3xx_HAL_Driver/Src/stm32f3xx_hal_i2c.c ****   {
2038:Drivers/STM32F3xx_HAL_Driver/Src/stm32f3xx_hal_i2c.c ****     if ((pData == NULL) || (Size == 0U))
 3905              		.loc 1 2038 0
 3906 002e 3B6A     		ldr	r3, [r7, #32]
 3907 0030 002B     		cmp	r3, #0
 3908 0032 02D0     		beq	.L191
 3909              		.loc 1 2038 0 is_stmt 0 discriminator 1
 3910 0034 BB8C     		ldrh	r3, [r7, #36]
 3911 0036 002B     		cmp	r3, #0
 3912 0038 01D1     		bne	.L192
 3913              	.L191:
2039:Drivers/STM32F3xx_HAL_Driver/Src/stm32f3xx_hal_i2c.c ****     {
2040:Drivers/STM32F3xx_HAL_Driver/Src/stm32f3xx_hal_i2c.c ****       return  HAL_ERROR;
 3914              		.loc 1 2040 0 is_stmt 1
 3915 003a 0123     		movs	r3, #1
 3916 003c 75E0     		b	.L193
 3917              	.L192:
2041:Drivers/STM32F3xx_HAL_Driver/Src/stm32f3xx_hal_i2c.c ****     }
2042:Drivers/STM32F3xx_HAL_Driver/Src/stm32f3xx_hal_i2c.c **** 
2043:Drivers/STM32F3xx_HAL_Driver/Src/stm32f3xx_hal_i2c.c ****     if (__HAL_I2C_GET_FLAG(hi2c, I2C_FLAG_BUSY) == SET)
 3918              		.loc 1 2043 0
 3919 003e FB68     		ldr	r3, [r7, #12]
 3920 0040 1B68     		ldr	r3, [r3]
ARM GAS  /tmp/ccy0jiyr.s 			page 105


 3921 0042 9B69     		ldr	r3, [r3, #24]
 3922 0044 03F40043 		and	r3, r3, #32768
 3923 0048 B3F5004F 		cmp	r3, #32768
 3924 004c 01D1     		bne	.L194
2044:Drivers/STM32F3xx_HAL_Driver/Src/stm32f3xx_hal_i2c.c ****     {
2045:Drivers/STM32F3xx_HAL_Driver/Src/stm32f3xx_hal_i2c.c ****       return HAL_BUSY;
 3925              		.loc 1 2045 0
 3926 004e 0223     		movs	r3, #2
 3927 0050 6BE0     		b	.L193
 3928              	.L194:
2046:Drivers/STM32F3xx_HAL_Driver/Src/stm32f3xx_hal_i2c.c ****     }
2047:Drivers/STM32F3xx_HAL_Driver/Src/stm32f3xx_hal_i2c.c **** 
2048:Drivers/STM32F3xx_HAL_Driver/Src/stm32f3xx_hal_i2c.c ****     /* Process Locked */
2049:Drivers/STM32F3xx_HAL_Driver/Src/stm32f3xx_hal_i2c.c ****     __HAL_LOCK(hi2c);
 3929              		.loc 1 2049 0
 3930 0052 FB68     		ldr	r3, [r7, #12]
 3931 0054 93F84030 		ldrb	r3, [r3, #64]	@ zero_extendqisi2
 3932 0058 012B     		cmp	r3, #1
 3933 005a 01D1     		bne	.L195
 3934              		.loc 1 2049 0 is_stmt 0 discriminator 1
 3935 005c 0223     		movs	r3, #2
 3936 005e 64E0     		b	.L193
 3937              	.L195:
 3938              		.loc 1 2049 0 discriminator 2
 3939 0060 FB68     		ldr	r3, [r7, #12]
 3940 0062 0122     		movs	r2, #1
 3941 0064 83F84020 		strb	r2, [r3, #64]
2050:Drivers/STM32F3xx_HAL_Driver/Src/stm32f3xx_hal_i2c.c **** 
2051:Drivers/STM32F3xx_HAL_Driver/Src/stm32f3xx_hal_i2c.c ****     /* Init tickstart for timeout management*/
2052:Drivers/STM32F3xx_HAL_Driver/Src/stm32f3xx_hal_i2c.c ****     tickstart = HAL_GetTick();
 3942              		.loc 1 2052 0 is_stmt 1 discriminator 2
 3943 0068 FFF7FEFF 		bl	HAL_GetTick
 3944 006c 3861     		str	r0, [r7, #16]
2053:Drivers/STM32F3xx_HAL_Driver/Src/stm32f3xx_hal_i2c.c **** 
2054:Drivers/STM32F3xx_HAL_Driver/Src/stm32f3xx_hal_i2c.c ****     hi2c->State       = HAL_I2C_STATE_BUSY_TX;
 3945              		.loc 1 2054 0 discriminator 2
 3946 006e FB68     		ldr	r3, [r7, #12]
 3947 0070 2122     		movs	r2, #33
 3948 0072 83F84120 		strb	r2, [r3, #65]
2055:Drivers/STM32F3xx_HAL_Driver/Src/stm32f3xx_hal_i2c.c ****     hi2c->Mode        = HAL_I2C_MODE_MEM;
 3949              		.loc 1 2055 0 discriminator 2
 3950 0076 FB68     		ldr	r3, [r7, #12]
 3951 0078 4022     		movs	r2, #64
 3952 007a 83F84220 		strb	r2, [r3, #66]
2056:Drivers/STM32F3xx_HAL_Driver/Src/stm32f3xx_hal_i2c.c ****     hi2c->ErrorCode   = HAL_I2C_ERROR_NONE;
 3953              		.loc 1 2056 0 discriminator 2
 3954 007e FB68     		ldr	r3, [r7, #12]
 3955 0080 0022     		movs	r2, #0
 3956 0082 5A64     		str	r2, [r3, #68]
2057:Drivers/STM32F3xx_HAL_Driver/Src/stm32f3xx_hal_i2c.c **** 
2058:Drivers/STM32F3xx_HAL_Driver/Src/stm32f3xx_hal_i2c.c ****     /* Prepare transfer parameters */
2059:Drivers/STM32F3xx_HAL_Driver/Src/stm32f3xx_hal_i2c.c ****     hi2c->pBuffPtr    = pData;
 3957              		.loc 1 2059 0 discriminator 2
 3958 0084 FB68     		ldr	r3, [r7, #12]
 3959 0086 3A6A     		ldr	r2, [r7, #32]
 3960 0088 5A62     		str	r2, [r3, #36]
2060:Drivers/STM32F3xx_HAL_Driver/Src/stm32f3xx_hal_i2c.c ****     hi2c->XferCount   = Size;
ARM GAS  /tmp/ccy0jiyr.s 			page 106


 3961              		.loc 1 2060 0 discriminator 2
 3962 008a FB68     		ldr	r3, [r7, #12]
 3963 008c BA8C     		ldrh	r2, [r7, #36]	@ movhi
 3964 008e 5A85     		strh	r2, [r3, #42]	@ movhi
2061:Drivers/STM32F3xx_HAL_Driver/Src/stm32f3xx_hal_i2c.c ****     hi2c->XferOptions = I2C_NO_OPTION_FRAME;
 3965              		.loc 1 2061 0 discriminator 2
 3966 0090 FB68     		ldr	r3, [r7, #12]
 3967 0092 284A     		ldr	r2, .L200
 3968 0094 DA62     		str	r2, [r3, #44]
2062:Drivers/STM32F3xx_HAL_Driver/Src/stm32f3xx_hal_i2c.c ****     hi2c->XferISR     = I2C_Master_ISR_IT;
 3969              		.loc 1 2062 0 discriminator 2
 3970 0096 FB68     		ldr	r3, [r7, #12]
 3971 0098 274A     		ldr	r2, .L200+4
 3972 009a 5A63     		str	r2, [r3, #52]
2063:Drivers/STM32F3xx_HAL_Driver/Src/stm32f3xx_hal_i2c.c **** 
2064:Drivers/STM32F3xx_HAL_Driver/Src/stm32f3xx_hal_i2c.c ****     if (hi2c->XferCount > MAX_NBYTE_SIZE)
 3973              		.loc 1 2064 0 discriminator 2
 3974 009c FB68     		ldr	r3, [r7, #12]
 3975 009e 5B8D     		ldrh	r3, [r3, #42]	@ movhi
 3976 00a0 9BB2     		uxth	r3, r3
 3977 00a2 FF2B     		cmp	r3, #255
 3978 00a4 06D9     		bls	.L196
2065:Drivers/STM32F3xx_HAL_Driver/Src/stm32f3xx_hal_i2c.c ****     {
2066:Drivers/STM32F3xx_HAL_Driver/Src/stm32f3xx_hal_i2c.c ****       hi2c->XferSize = MAX_NBYTE_SIZE;
 3979              		.loc 1 2066 0
 3980 00a6 FB68     		ldr	r3, [r7, #12]
 3981 00a8 FF22     		movs	r2, #255
 3982 00aa 1A85     		strh	r2, [r3, #40]	@ movhi
2067:Drivers/STM32F3xx_HAL_Driver/Src/stm32f3xx_hal_i2c.c ****       xfermode = I2C_RELOAD_MODE;
 3983              		.loc 1 2067 0
 3984 00ac 4FF08073 		mov	r3, #16777216
 3985 00b0 7B61     		str	r3, [r7, #20]
 3986 00b2 07E0     		b	.L197
 3987              	.L196:
2068:Drivers/STM32F3xx_HAL_Driver/Src/stm32f3xx_hal_i2c.c ****     }
2069:Drivers/STM32F3xx_HAL_Driver/Src/stm32f3xx_hal_i2c.c ****     else
2070:Drivers/STM32F3xx_HAL_Driver/Src/stm32f3xx_hal_i2c.c ****     {
2071:Drivers/STM32F3xx_HAL_Driver/Src/stm32f3xx_hal_i2c.c ****       hi2c->XferSize = hi2c->XferCount;
 3988              		.loc 1 2071 0
 3989 00b4 FB68     		ldr	r3, [r7, #12]
 3990 00b6 5B8D     		ldrh	r3, [r3, #42]	@ movhi
 3991 00b8 9AB2     		uxth	r2, r3
 3992 00ba FB68     		ldr	r3, [r7, #12]
 3993 00bc 1A85     		strh	r2, [r3, #40]	@ movhi
2072:Drivers/STM32F3xx_HAL_Driver/Src/stm32f3xx_hal_i2c.c ****       xfermode = I2C_AUTOEND_MODE;
 3994              		.loc 1 2072 0
 3995 00be 4FF00073 		mov	r3, #33554432
 3996 00c2 7B61     		str	r3, [r7, #20]
 3997              	.L197:
2073:Drivers/STM32F3xx_HAL_Driver/Src/stm32f3xx_hal_i2c.c ****     }
2074:Drivers/STM32F3xx_HAL_Driver/Src/stm32f3xx_hal_i2c.c **** 
2075:Drivers/STM32F3xx_HAL_Driver/Src/stm32f3xx_hal_i2c.c ****     /* Send Slave Address and Memory Address */
2076:Drivers/STM32F3xx_HAL_Driver/Src/stm32f3xx_hal_i2c.c ****     if (I2C_RequestMemoryWrite(hi2c, DevAddress, MemAddress, MemAddSize, I2C_TIMEOUT_FLAG, tickstar
 3998              		.loc 1 2076 0
 3999 00c4 F888     		ldrh	r0, [r7, #6]
 4000 00c6 3A89     		ldrh	r2, [r7, #8]
 4001 00c8 7989     		ldrh	r1, [r7, #10]
ARM GAS  /tmp/ccy0jiyr.s 			page 107


 4002 00ca 3B69     		ldr	r3, [r7, #16]
 4003 00cc 0193     		str	r3, [sp, #4]
 4004 00ce 1923     		movs	r3, #25
 4005 00d0 0093     		str	r3, [sp]
 4006 00d2 0346     		mov	r3, r0
 4007 00d4 F868     		ldr	r0, [r7, #12]
 4008 00d6 FFF7FEFF 		bl	I2C_RequestMemoryWrite
 4009 00da 0346     		mov	r3, r0
 4010 00dc 002B     		cmp	r3, #0
 4011 00de 0FD0     		beq	.L198
2077:Drivers/STM32F3xx_HAL_Driver/Src/stm32f3xx_hal_i2c.c ****     {
2078:Drivers/STM32F3xx_HAL_Driver/Src/stm32f3xx_hal_i2c.c ****       if (hi2c->ErrorCode == HAL_I2C_ERROR_AF)
 4012              		.loc 1 2078 0
 4013 00e0 FB68     		ldr	r3, [r7, #12]
 4014 00e2 5B6C     		ldr	r3, [r3, #68]
 4015 00e4 042B     		cmp	r3, #4
 4016 00e6 05D1     		bne	.L199
2079:Drivers/STM32F3xx_HAL_Driver/Src/stm32f3xx_hal_i2c.c ****       {
2080:Drivers/STM32F3xx_HAL_Driver/Src/stm32f3xx_hal_i2c.c ****         /* Process Unlocked */
2081:Drivers/STM32F3xx_HAL_Driver/Src/stm32f3xx_hal_i2c.c ****         __HAL_UNLOCK(hi2c);
 4017              		.loc 1 2081 0
 4018 00e8 FB68     		ldr	r3, [r7, #12]
 4019 00ea 0022     		movs	r2, #0
 4020 00ec 83F84020 		strb	r2, [r3, #64]
2082:Drivers/STM32F3xx_HAL_Driver/Src/stm32f3xx_hal_i2c.c ****         return HAL_ERROR;
 4021              		.loc 1 2082 0
 4022 00f0 0123     		movs	r3, #1
 4023 00f2 1AE0     		b	.L193
 4024              	.L199:
2083:Drivers/STM32F3xx_HAL_Driver/Src/stm32f3xx_hal_i2c.c ****       }
2084:Drivers/STM32F3xx_HAL_Driver/Src/stm32f3xx_hal_i2c.c ****       else
2085:Drivers/STM32F3xx_HAL_Driver/Src/stm32f3xx_hal_i2c.c ****       {
2086:Drivers/STM32F3xx_HAL_Driver/Src/stm32f3xx_hal_i2c.c ****         /* Process Unlocked */
2087:Drivers/STM32F3xx_HAL_Driver/Src/stm32f3xx_hal_i2c.c ****         __HAL_UNLOCK(hi2c);
 4025              		.loc 1 2087 0
 4026 00f4 FB68     		ldr	r3, [r7, #12]
 4027 00f6 0022     		movs	r2, #0
 4028 00f8 83F84020 		strb	r2, [r3, #64]
2088:Drivers/STM32F3xx_HAL_Driver/Src/stm32f3xx_hal_i2c.c ****         return HAL_TIMEOUT;
 4029              		.loc 1 2088 0
 4030 00fc 0323     		movs	r3, #3
 4031 00fe 14E0     		b	.L193
 4032              	.L198:
2089:Drivers/STM32F3xx_HAL_Driver/Src/stm32f3xx_hal_i2c.c ****       }
2090:Drivers/STM32F3xx_HAL_Driver/Src/stm32f3xx_hal_i2c.c ****     }
2091:Drivers/STM32F3xx_HAL_Driver/Src/stm32f3xx_hal_i2c.c **** 
2092:Drivers/STM32F3xx_HAL_Driver/Src/stm32f3xx_hal_i2c.c ****     /* Set NBYTES to write and reload if hi2c->XferCount > MAX_NBYTE_SIZE and generate RESTART */
2093:Drivers/STM32F3xx_HAL_Driver/Src/stm32f3xx_hal_i2c.c ****     I2C_TransferConfig(hi2c, DevAddress, hi2c->XferSize, xfermode, I2C_NO_STARTSTOP);
 4033              		.loc 1 2093 0
 4034 0100 FB68     		ldr	r3, [r7, #12]
 4035 0102 1B8D     		ldrh	r3, [r3, #40]
 4036 0104 DAB2     		uxtb	r2, r3
 4037 0106 7989     		ldrh	r1, [r7, #10]
 4038 0108 0023     		movs	r3, #0
 4039 010a 0093     		str	r3, [sp]
 4040 010c 7B69     		ldr	r3, [r7, #20]
 4041 010e F868     		ldr	r0, [r7, #12]
ARM GAS  /tmp/ccy0jiyr.s 			page 108


 4042 0110 FFF7FEFF 		bl	I2C_TransferConfig
2094:Drivers/STM32F3xx_HAL_Driver/Src/stm32f3xx_hal_i2c.c **** 
2095:Drivers/STM32F3xx_HAL_Driver/Src/stm32f3xx_hal_i2c.c ****     /* Process Unlocked */
2096:Drivers/STM32F3xx_HAL_Driver/Src/stm32f3xx_hal_i2c.c ****     __HAL_UNLOCK(hi2c);
 4043              		.loc 1 2096 0
 4044 0114 FB68     		ldr	r3, [r7, #12]
 4045 0116 0022     		movs	r2, #0
 4046 0118 83F84020 		strb	r2, [r3, #64]
2097:Drivers/STM32F3xx_HAL_Driver/Src/stm32f3xx_hal_i2c.c **** 
2098:Drivers/STM32F3xx_HAL_Driver/Src/stm32f3xx_hal_i2c.c ****     /* Note : The I2C interrupts must be enabled after unlocking current process
2099:Drivers/STM32F3xx_HAL_Driver/Src/stm32f3xx_hal_i2c.c ****               to avoid the risk of I2C interrupt handle execution before current
2100:Drivers/STM32F3xx_HAL_Driver/Src/stm32f3xx_hal_i2c.c ****               process unlock */
2101:Drivers/STM32F3xx_HAL_Driver/Src/stm32f3xx_hal_i2c.c **** 
2102:Drivers/STM32F3xx_HAL_Driver/Src/stm32f3xx_hal_i2c.c ****     /* Enable ERR, TC, STOP, NACK, TXI interrupt */
2103:Drivers/STM32F3xx_HAL_Driver/Src/stm32f3xx_hal_i2c.c ****     /* possible to enable all of these */
2104:Drivers/STM32F3xx_HAL_Driver/Src/stm32f3xx_hal_i2c.c ****     /* I2C_IT_ERRI | I2C_IT_TCI| I2C_IT_STOPI| I2C_IT_NACKI | I2C_IT_ADDRI | I2C_IT_RXI | I2C_IT_TX
2105:Drivers/STM32F3xx_HAL_Driver/Src/stm32f3xx_hal_i2c.c ****     I2C_Enable_IRQ(hi2c, I2C_XFER_TX_IT);
 4047              		.loc 1 2105 0
 4048 011c 0121     		movs	r1, #1
 4049 011e F868     		ldr	r0, [r7, #12]
 4050 0120 FFF7FEFF 		bl	I2C_Enable_IRQ
2106:Drivers/STM32F3xx_HAL_Driver/Src/stm32f3xx_hal_i2c.c **** 
2107:Drivers/STM32F3xx_HAL_Driver/Src/stm32f3xx_hal_i2c.c ****     return HAL_OK;
 4051              		.loc 1 2107 0
 4052 0124 0023     		movs	r3, #0
 4053 0126 00E0     		b	.L193
 4054              	.L190:
2108:Drivers/STM32F3xx_HAL_Driver/Src/stm32f3xx_hal_i2c.c ****   }
2109:Drivers/STM32F3xx_HAL_Driver/Src/stm32f3xx_hal_i2c.c ****   else
2110:Drivers/STM32F3xx_HAL_Driver/Src/stm32f3xx_hal_i2c.c ****   {
2111:Drivers/STM32F3xx_HAL_Driver/Src/stm32f3xx_hal_i2c.c ****     return HAL_BUSY;
 4055              		.loc 1 2111 0
 4056 0128 0223     		movs	r3, #2
 4057              	.L193:
2112:Drivers/STM32F3xx_HAL_Driver/Src/stm32f3xx_hal_i2c.c ****   }
2113:Drivers/STM32F3xx_HAL_Driver/Src/stm32f3xx_hal_i2c.c **** }
 4058              		.loc 1 2113 0
 4059 012a 1846     		mov	r0, r3
 4060 012c 1837     		adds	r7, r7, #24
 4061              	.LCFI95:
 4062              		.cfi_def_cfa_offset 8
 4063 012e BD46     		mov	sp, r7
 4064              	.LCFI96:
 4065              		.cfi_def_cfa_register 13
 4066              		@ sp needed
 4067 0130 80BD     		pop	{r7, pc}
 4068              	.L201:
 4069 0132 00BF     		.align	2
 4070              	.L200:
 4071 0134 0000FFFF 		.word	-65536
 4072 0138 00000000 		.word	I2C_Master_ISR_IT
 4073              		.cfi_endproc
 4074              	.LFE713:
 4076              		.section	.text.HAL_I2C_Mem_Read_IT,"ax",%progbits
 4077              		.align	1
 4078              		.global	HAL_I2C_Mem_Read_IT
 4079              		.syntax unified
ARM GAS  /tmp/ccy0jiyr.s 			page 109


 4080              		.thumb
 4081              		.thumb_func
 4082              		.fpu fpv4-sp-d16
 4084              	HAL_I2C_Mem_Read_IT:
 4085              	.LFB714:
2114:Drivers/STM32F3xx_HAL_Driver/Src/stm32f3xx_hal_i2c.c **** 
2115:Drivers/STM32F3xx_HAL_Driver/Src/stm32f3xx_hal_i2c.c **** /**
2116:Drivers/STM32F3xx_HAL_Driver/Src/stm32f3xx_hal_i2c.c ****   * @brief  Read an amount of data in non-blocking mode with Interrupt from a specific memory addre
2117:Drivers/STM32F3xx_HAL_Driver/Src/stm32f3xx_hal_i2c.c ****   * @param  hi2c Pointer to a I2C_HandleTypeDef structure that contains
2118:Drivers/STM32F3xx_HAL_Driver/Src/stm32f3xx_hal_i2c.c ****   *                the configuration information for the specified I2C.
2119:Drivers/STM32F3xx_HAL_Driver/Src/stm32f3xx_hal_i2c.c ****   * @param  DevAddress Target device address: The device 7 bits address value
2120:Drivers/STM32F3xx_HAL_Driver/Src/stm32f3xx_hal_i2c.c ****   *         in datasheet must be shift at right before call interface
2121:Drivers/STM32F3xx_HAL_Driver/Src/stm32f3xx_hal_i2c.c ****   * @param  MemAddress Internal memory address
2122:Drivers/STM32F3xx_HAL_Driver/Src/stm32f3xx_hal_i2c.c ****   * @param  MemAddSize Size of internal memory address
2123:Drivers/STM32F3xx_HAL_Driver/Src/stm32f3xx_hal_i2c.c ****   * @param  pData Pointer to data buffer
2124:Drivers/STM32F3xx_HAL_Driver/Src/stm32f3xx_hal_i2c.c ****   * @param  Size Amount of data to be sent
2125:Drivers/STM32F3xx_HAL_Driver/Src/stm32f3xx_hal_i2c.c ****   * @retval HAL status
2126:Drivers/STM32F3xx_HAL_Driver/Src/stm32f3xx_hal_i2c.c ****   */
2127:Drivers/STM32F3xx_HAL_Driver/Src/stm32f3xx_hal_i2c.c **** HAL_StatusTypeDef HAL_I2C_Mem_Read_IT(I2C_HandleTypeDef *hi2c, uint16_t DevAddress, uint16_t MemAdd
2128:Drivers/STM32F3xx_HAL_Driver/Src/stm32f3xx_hal_i2c.c **** {
 4086              		.loc 1 2128 0
 4087              		.cfi_startproc
 4088              		@ args = 8, pretend = 0, frame = 24
 4089              		@ frame_needed = 1, uses_anonymous_args = 0
 4090 0000 80B5     		push	{r7, lr}
 4091              	.LCFI97:
 4092              		.cfi_def_cfa_offset 8
 4093              		.cfi_offset 7, -8
 4094              		.cfi_offset 14, -4
 4095 0002 88B0     		sub	sp, sp, #32
 4096              	.LCFI98:
 4097              		.cfi_def_cfa_offset 40
 4098 0004 02AF     		add	r7, sp, #8
 4099              	.LCFI99:
 4100              		.cfi_def_cfa 7, 32
 4101 0006 F860     		str	r0, [r7, #12]
 4102 0008 0846     		mov	r0, r1
 4103 000a 1146     		mov	r1, r2
 4104 000c 1A46     		mov	r2, r3
 4105 000e 0346     		mov	r3, r0	@ movhi
 4106 0010 7B81     		strh	r3, [r7, #10]	@ movhi
 4107 0012 0B46     		mov	r3, r1	@ movhi
 4108 0014 3B81     		strh	r3, [r7, #8]	@ movhi
 4109 0016 1346     		mov	r3, r2	@ movhi
 4110 0018 FB80     		strh	r3, [r7, #6]	@ movhi
2129:Drivers/STM32F3xx_HAL_Driver/Src/stm32f3xx_hal_i2c.c ****   uint32_t tickstart = 0U;
 4111              		.loc 1 2129 0
 4112 001a 0023     		movs	r3, #0
 4113 001c 3B61     		str	r3, [r7, #16]
2130:Drivers/STM32F3xx_HAL_Driver/Src/stm32f3xx_hal_i2c.c ****   uint32_t xfermode = 0U;
 4114              		.loc 1 2130 0
 4115 001e 0023     		movs	r3, #0
 4116 0020 7B61     		str	r3, [r7, #20]
2131:Drivers/STM32F3xx_HAL_Driver/Src/stm32f3xx_hal_i2c.c **** 
2132:Drivers/STM32F3xx_HAL_Driver/Src/stm32f3xx_hal_i2c.c ****   /* Check the parameters */
2133:Drivers/STM32F3xx_HAL_Driver/Src/stm32f3xx_hal_i2c.c ****   assert_param(IS_I2C_MEMADD_SIZE(MemAddSize));
2134:Drivers/STM32F3xx_HAL_Driver/Src/stm32f3xx_hal_i2c.c **** 
ARM GAS  /tmp/ccy0jiyr.s 			page 110


2135:Drivers/STM32F3xx_HAL_Driver/Src/stm32f3xx_hal_i2c.c ****   if (hi2c->State == HAL_I2C_STATE_READY)
 4117              		.loc 1 2135 0
 4118 0022 FB68     		ldr	r3, [r7, #12]
 4119 0024 93F84130 		ldrb	r3, [r3, #65]
 4120 0028 DBB2     		uxtb	r3, r3
 4121 002a 202B     		cmp	r3, #32
 4122 002c 7DD1     		bne	.L203
2136:Drivers/STM32F3xx_HAL_Driver/Src/stm32f3xx_hal_i2c.c ****   {
2137:Drivers/STM32F3xx_HAL_Driver/Src/stm32f3xx_hal_i2c.c ****     if ((pData == NULL) || (Size == 0U))
 4123              		.loc 1 2137 0
 4124 002e 3B6A     		ldr	r3, [r7, #32]
 4125 0030 002B     		cmp	r3, #0
 4126 0032 02D0     		beq	.L204
 4127              		.loc 1 2137 0 is_stmt 0 discriminator 1
 4128 0034 BB8C     		ldrh	r3, [r7, #36]
 4129 0036 002B     		cmp	r3, #0
 4130 0038 01D1     		bne	.L205
 4131              	.L204:
2138:Drivers/STM32F3xx_HAL_Driver/Src/stm32f3xx_hal_i2c.c ****     {
2139:Drivers/STM32F3xx_HAL_Driver/Src/stm32f3xx_hal_i2c.c ****       return  HAL_ERROR;
 4132              		.loc 1 2139 0 is_stmt 1
 4133 003a 0123     		movs	r3, #1
 4134 003c 76E0     		b	.L206
 4135              	.L205:
2140:Drivers/STM32F3xx_HAL_Driver/Src/stm32f3xx_hal_i2c.c ****     }
2141:Drivers/STM32F3xx_HAL_Driver/Src/stm32f3xx_hal_i2c.c **** 
2142:Drivers/STM32F3xx_HAL_Driver/Src/stm32f3xx_hal_i2c.c ****     if (__HAL_I2C_GET_FLAG(hi2c, I2C_FLAG_BUSY) == SET)
 4136              		.loc 1 2142 0
 4137 003e FB68     		ldr	r3, [r7, #12]
 4138 0040 1B68     		ldr	r3, [r3]
 4139 0042 9B69     		ldr	r3, [r3, #24]
 4140 0044 03F40043 		and	r3, r3, #32768
 4141 0048 B3F5004F 		cmp	r3, #32768
 4142 004c 01D1     		bne	.L207
2143:Drivers/STM32F3xx_HAL_Driver/Src/stm32f3xx_hal_i2c.c ****     {
2144:Drivers/STM32F3xx_HAL_Driver/Src/stm32f3xx_hal_i2c.c ****       return HAL_BUSY;
 4143              		.loc 1 2144 0
 4144 004e 0223     		movs	r3, #2
 4145 0050 6CE0     		b	.L206
 4146              	.L207:
2145:Drivers/STM32F3xx_HAL_Driver/Src/stm32f3xx_hal_i2c.c ****     }
2146:Drivers/STM32F3xx_HAL_Driver/Src/stm32f3xx_hal_i2c.c **** 
2147:Drivers/STM32F3xx_HAL_Driver/Src/stm32f3xx_hal_i2c.c ****     /* Process Locked */
2148:Drivers/STM32F3xx_HAL_Driver/Src/stm32f3xx_hal_i2c.c ****     __HAL_LOCK(hi2c);
 4147              		.loc 1 2148 0
 4148 0052 FB68     		ldr	r3, [r7, #12]
 4149 0054 93F84030 		ldrb	r3, [r3, #64]	@ zero_extendqisi2
 4150 0058 012B     		cmp	r3, #1
 4151 005a 01D1     		bne	.L208
 4152              		.loc 1 2148 0 is_stmt 0 discriminator 1
 4153 005c 0223     		movs	r3, #2
 4154 005e 65E0     		b	.L206
 4155              	.L208:
 4156              		.loc 1 2148 0 discriminator 2
 4157 0060 FB68     		ldr	r3, [r7, #12]
 4158 0062 0122     		movs	r2, #1
 4159 0064 83F84020 		strb	r2, [r3, #64]
ARM GAS  /tmp/ccy0jiyr.s 			page 111


2149:Drivers/STM32F3xx_HAL_Driver/Src/stm32f3xx_hal_i2c.c **** 
2150:Drivers/STM32F3xx_HAL_Driver/Src/stm32f3xx_hal_i2c.c ****     /* Init tickstart for timeout management*/
2151:Drivers/STM32F3xx_HAL_Driver/Src/stm32f3xx_hal_i2c.c ****     tickstart = HAL_GetTick();
 4160              		.loc 1 2151 0 is_stmt 1 discriminator 2
 4161 0068 FFF7FEFF 		bl	HAL_GetTick
 4162 006c 3861     		str	r0, [r7, #16]
2152:Drivers/STM32F3xx_HAL_Driver/Src/stm32f3xx_hal_i2c.c **** 
2153:Drivers/STM32F3xx_HAL_Driver/Src/stm32f3xx_hal_i2c.c ****     hi2c->State       = HAL_I2C_STATE_BUSY_RX;
 4163              		.loc 1 2153 0 discriminator 2
 4164 006e FB68     		ldr	r3, [r7, #12]
 4165 0070 2222     		movs	r2, #34
 4166 0072 83F84120 		strb	r2, [r3, #65]
2154:Drivers/STM32F3xx_HAL_Driver/Src/stm32f3xx_hal_i2c.c ****     hi2c->Mode        = HAL_I2C_MODE_MEM;
 4167              		.loc 1 2154 0 discriminator 2
 4168 0076 FB68     		ldr	r3, [r7, #12]
 4169 0078 4022     		movs	r2, #64
 4170 007a 83F84220 		strb	r2, [r3, #66]
2155:Drivers/STM32F3xx_HAL_Driver/Src/stm32f3xx_hal_i2c.c ****     hi2c->ErrorCode   = HAL_I2C_ERROR_NONE;
 4171              		.loc 1 2155 0 discriminator 2
 4172 007e FB68     		ldr	r3, [r7, #12]
 4173 0080 0022     		movs	r2, #0
 4174 0082 5A64     		str	r2, [r3, #68]
2156:Drivers/STM32F3xx_HAL_Driver/Src/stm32f3xx_hal_i2c.c **** 
2157:Drivers/STM32F3xx_HAL_Driver/Src/stm32f3xx_hal_i2c.c ****     /* Prepare transfer parameters */
2158:Drivers/STM32F3xx_HAL_Driver/Src/stm32f3xx_hal_i2c.c ****     hi2c->pBuffPtr    = pData;
 4175              		.loc 1 2158 0 discriminator 2
 4176 0084 FB68     		ldr	r3, [r7, #12]
 4177 0086 3A6A     		ldr	r2, [r7, #32]
 4178 0088 5A62     		str	r2, [r3, #36]
2159:Drivers/STM32F3xx_HAL_Driver/Src/stm32f3xx_hal_i2c.c ****     hi2c->XferCount   = Size;
 4179              		.loc 1 2159 0 discriminator 2
 4180 008a FB68     		ldr	r3, [r7, #12]
 4181 008c BA8C     		ldrh	r2, [r7, #36]	@ movhi
 4182 008e 5A85     		strh	r2, [r3, #42]	@ movhi
2160:Drivers/STM32F3xx_HAL_Driver/Src/stm32f3xx_hal_i2c.c ****     hi2c->XferOptions = I2C_NO_OPTION_FRAME;
 4183              		.loc 1 2160 0 discriminator 2
 4184 0090 FB68     		ldr	r3, [r7, #12]
 4185 0092 284A     		ldr	r2, .L213
 4186 0094 DA62     		str	r2, [r3, #44]
2161:Drivers/STM32F3xx_HAL_Driver/Src/stm32f3xx_hal_i2c.c ****     hi2c->XferISR     = I2C_Master_ISR_IT;
 4187              		.loc 1 2161 0 discriminator 2
 4188 0096 FB68     		ldr	r3, [r7, #12]
 4189 0098 274A     		ldr	r2, .L213+4
 4190 009a 5A63     		str	r2, [r3, #52]
2162:Drivers/STM32F3xx_HAL_Driver/Src/stm32f3xx_hal_i2c.c **** 
2163:Drivers/STM32F3xx_HAL_Driver/Src/stm32f3xx_hal_i2c.c ****     if (hi2c->XferCount > MAX_NBYTE_SIZE)
 4191              		.loc 1 2163 0 discriminator 2
 4192 009c FB68     		ldr	r3, [r7, #12]
 4193 009e 5B8D     		ldrh	r3, [r3, #42]	@ movhi
 4194 00a0 9BB2     		uxth	r3, r3
 4195 00a2 FF2B     		cmp	r3, #255
 4196 00a4 06D9     		bls	.L209
2164:Drivers/STM32F3xx_HAL_Driver/Src/stm32f3xx_hal_i2c.c ****     {
2165:Drivers/STM32F3xx_HAL_Driver/Src/stm32f3xx_hal_i2c.c ****       hi2c->XferSize = MAX_NBYTE_SIZE;
 4197              		.loc 1 2165 0
 4198 00a6 FB68     		ldr	r3, [r7, #12]
 4199 00a8 FF22     		movs	r2, #255
ARM GAS  /tmp/ccy0jiyr.s 			page 112


 4200 00aa 1A85     		strh	r2, [r3, #40]	@ movhi
2166:Drivers/STM32F3xx_HAL_Driver/Src/stm32f3xx_hal_i2c.c ****       xfermode = I2C_RELOAD_MODE;
 4201              		.loc 1 2166 0
 4202 00ac 4FF08073 		mov	r3, #16777216
 4203 00b0 7B61     		str	r3, [r7, #20]
 4204 00b2 07E0     		b	.L210
 4205              	.L209:
2167:Drivers/STM32F3xx_HAL_Driver/Src/stm32f3xx_hal_i2c.c ****     }
2168:Drivers/STM32F3xx_HAL_Driver/Src/stm32f3xx_hal_i2c.c ****     else
2169:Drivers/STM32F3xx_HAL_Driver/Src/stm32f3xx_hal_i2c.c ****     {
2170:Drivers/STM32F3xx_HAL_Driver/Src/stm32f3xx_hal_i2c.c ****       hi2c->XferSize = hi2c->XferCount;
 4206              		.loc 1 2170 0
 4207 00b4 FB68     		ldr	r3, [r7, #12]
 4208 00b6 5B8D     		ldrh	r3, [r3, #42]	@ movhi
 4209 00b8 9AB2     		uxth	r2, r3
 4210 00ba FB68     		ldr	r3, [r7, #12]
 4211 00bc 1A85     		strh	r2, [r3, #40]	@ movhi
2171:Drivers/STM32F3xx_HAL_Driver/Src/stm32f3xx_hal_i2c.c ****       xfermode = I2C_AUTOEND_MODE;
 4212              		.loc 1 2171 0
 4213 00be 4FF00073 		mov	r3, #33554432
 4214 00c2 7B61     		str	r3, [r7, #20]
 4215              	.L210:
2172:Drivers/STM32F3xx_HAL_Driver/Src/stm32f3xx_hal_i2c.c ****     }
2173:Drivers/STM32F3xx_HAL_Driver/Src/stm32f3xx_hal_i2c.c **** 
2174:Drivers/STM32F3xx_HAL_Driver/Src/stm32f3xx_hal_i2c.c ****     /* Send Slave Address and Memory Address */
2175:Drivers/STM32F3xx_HAL_Driver/Src/stm32f3xx_hal_i2c.c ****     if (I2C_RequestMemoryRead(hi2c, DevAddress, MemAddress, MemAddSize, I2C_TIMEOUT_FLAG, tickstart
 4216              		.loc 1 2175 0
 4217 00c4 F888     		ldrh	r0, [r7, #6]
 4218 00c6 3A89     		ldrh	r2, [r7, #8]
 4219 00c8 7989     		ldrh	r1, [r7, #10]
 4220 00ca 3B69     		ldr	r3, [r7, #16]
 4221 00cc 0193     		str	r3, [sp, #4]
 4222 00ce 1923     		movs	r3, #25
 4223 00d0 0093     		str	r3, [sp]
 4224 00d2 0346     		mov	r3, r0
 4225 00d4 F868     		ldr	r0, [r7, #12]
 4226 00d6 FFF7FEFF 		bl	I2C_RequestMemoryRead
 4227 00da 0346     		mov	r3, r0
 4228 00dc 002B     		cmp	r3, #0
 4229 00de 0FD0     		beq	.L211
2176:Drivers/STM32F3xx_HAL_Driver/Src/stm32f3xx_hal_i2c.c ****     {
2177:Drivers/STM32F3xx_HAL_Driver/Src/stm32f3xx_hal_i2c.c ****       if (hi2c->ErrorCode == HAL_I2C_ERROR_AF)
 4230              		.loc 1 2177 0
 4231 00e0 FB68     		ldr	r3, [r7, #12]
 4232 00e2 5B6C     		ldr	r3, [r3, #68]
 4233 00e4 042B     		cmp	r3, #4
 4234 00e6 05D1     		bne	.L212
2178:Drivers/STM32F3xx_HAL_Driver/Src/stm32f3xx_hal_i2c.c ****       {
2179:Drivers/STM32F3xx_HAL_Driver/Src/stm32f3xx_hal_i2c.c ****         /* Process Unlocked */
2180:Drivers/STM32F3xx_HAL_Driver/Src/stm32f3xx_hal_i2c.c ****         __HAL_UNLOCK(hi2c);
 4235              		.loc 1 2180 0
 4236 00e8 FB68     		ldr	r3, [r7, #12]
 4237 00ea 0022     		movs	r2, #0
 4238 00ec 83F84020 		strb	r2, [r3, #64]
2181:Drivers/STM32F3xx_HAL_Driver/Src/stm32f3xx_hal_i2c.c ****         return HAL_ERROR;
 4239              		.loc 1 2181 0
 4240 00f0 0123     		movs	r3, #1
ARM GAS  /tmp/ccy0jiyr.s 			page 113


 4241 00f2 1BE0     		b	.L206
 4242              	.L212:
2182:Drivers/STM32F3xx_HAL_Driver/Src/stm32f3xx_hal_i2c.c ****       }
2183:Drivers/STM32F3xx_HAL_Driver/Src/stm32f3xx_hal_i2c.c ****       else
2184:Drivers/STM32F3xx_HAL_Driver/Src/stm32f3xx_hal_i2c.c ****       {
2185:Drivers/STM32F3xx_HAL_Driver/Src/stm32f3xx_hal_i2c.c ****         /* Process Unlocked */
2186:Drivers/STM32F3xx_HAL_Driver/Src/stm32f3xx_hal_i2c.c ****         __HAL_UNLOCK(hi2c);
 4243              		.loc 1 2186 0
 4244 00f4 FB68     		ldr	r3, [r7, #12]
 4245 00f6 0022     		movs	r2, #0
 4246 00f8 83F84020 		strb	r2, [r3, #64]
2187:Drivers/STM32F3xx_HAL_Driver/Src/stm32f3xx_hal_i2c.c ****         return HAL_TIMEOUT;
 4247              		.loc 1 2187 0
 4248 00fc 0323     		movs	r3, #3
 4249 00fe 15E0     		b	.L206
 4250              	.L211:
2188:Drivers/STM32F3xx_HAL_Driver/Src/stm32f3xx_hal_i2c.c ****       }
2189:Drivers/STM32F3xx_HAL_Driver/Src/stm32f3xx_hal_i2c.c ****     }
2190:Drivers/STM32F3xx_HAL_Driver/Src/stm32f3xx_hal_i2c.c **** 
2191:Drivers/STM32F3xx_HAL_Driver/Src/stm32f3xx_hal_i2c.c ****     /* Set NBYTES to write and reload if hi2c->XferCount > MAX_NBYTE_SIZE and generate RESTART */
2192:Drivers/STM32F3xx_HAL_Driver/Src/stm32f3xx_hal_i2c.c ****     I2C_TransferConfig(hi2c, DevAddress, hi2c->XferSize, xfermode, I2C_GENERATE_START_READ);
 4251              		.loc 1 2192 0
 4252 0100 FB68     		ldr	r3, [r7, #12]
 4253 0102 1B8D     		ldrh	r3, [r3, #40]
 4254 0104 DAB2     		uxtb	r2, r3
 4255 0106 7989     		ldrh	r1, [r7, #10]
 4256 0108 4FF41053 		mov	r3, #9216
 4257 010c 0093     		str	r3, [sp]
 4258 010e 7B69     		ldr	r3, [r7, #20]
 4259 0110 F868     		ldr	r0, [r7, #12]
 4260 0112 FFF7FEFF 		bl	I2C_TransferConfig
2193:Drivers/STM32F3xx_HAL_Driver/Src/stm32f3xx_hal_i2c.c **** 
2194:Drivers/STM32F3xx_HAL_Driver/Src/stm32f3xx_hal_i2c.c ****     /* Process Unlocked */
2195:Drivers/STM32F3xx_HAL_Driver/Src/stm32f3xx_hal_i2c.c ****     __HAL_UNLOCK(hi2c);
 4261              		.loc 1 2195 0
 4262 0116 FB68     		ldr	r3, [r7, #12]
 4263 0118 0022     		movs	r2, #0
 4264 011a 83F84020 		strb	r2, [r3, #64]
2196:Drivers/STM32F3xx_HAL_Driver/Src/stm32f3xx_hal_i2c.c **** 
2197:Drivers/STM32F3xx_HAL_Driver/Src/stm32f3xx_hal_i2c.c ****     /* Note : The I2C interrupts must be enabled after unlocking current process
2198:Drivers/STM32F3xx_HAL_Driver/Src/stm32f3xx_hal_i2c.c ****               to avoid the risk of I2C interrupt handle execution before current
2199:Drivers/STM32F3xx_HAL_Driver/Src/stm32f3xx_hal_i2c.c ****               process unlock */
2200:Drivers/STM32F3xx_HAL_Driver/Src/stm32f3xx_hal_i2c.c **** 
2201:Drivers/STM32F3xx_HAL_Driver/Src/stm32f3xx_hal_i2c.c ****     /* Enable ERR, TC, STOP, NACK, RXI interrupt */
2202:Drivers/STM32F3xx_HAL_Driver/Src/stm32f3xx_hal_i2c.c ****     /* possible to enable all of these */
2203:Drivers/STM32F3xx_HAL_Driver/Src/stm32f3xx_hal_i2c.c ****     /* I2C_IT_ERRI | I2C_IT_TCI| I2C_IT_STOPI| I2C_IT_NACKI | I2C_IT_ADDRI | I2C_IT_RXI | I2C_IT_TX
2204:Drivers/STM32F3xx_HAL_Driver/Src/stm32f3xx_hal_i2c.c ****     I2C_Enable_IRQ(hi2c, I2C_XFER_RX_IT);
 4265              		.loc 1 2204 0
 4266 011e 0221     		movs	r1, #2
 4267 0120 F868     		ldr	r0, [r7, #12]
 4268 0122 FFF7FEFF 		bl	I2C_Enable_IRQ
2205:Drivers/STM32F3xx_HAL_Driver/Src/stm32f3xx_hal_i2c.c **** 
2206:Drivers/STM32F3xx_HAL_Driver/Src/stm32f3xx_hal_i2c.c ****     return HAL_OK;
 4269              		.loc 1 2206 0
 4270 0126 0023     		movs	r3, #0
 4271 0128 00E0     		b	.L206
 4272              	.L203:
ARM GAS  /tmp/ccy0jiyr.s 			page 114


2207:Drivers/STM32F3xx_HAL_Driver/Src/stm32f3xx_hal_i2c.c ****   }
2208:Drivers/STM32F3xx_HAL_Driver/Src/stm32f3xx_hal_i2c.c ****   else
2209:Drivers/STM32F3xx_HAL_Driver/Src/stm32f3xx_hal_i2c.c ****   {
2210:Drivers/STM32F3xx_HAL_Driver/Src/stm32f3xx_hal_i2c.c ****     return HAL_BUSY;
 4273              		.loc 1 2210 0
 4274 012a 0223     		movs	r3, #2
 4275              	.L206:
2211:Drivers/STM32F3xx_HAL_Driver/Src/stm32f3xx_hal_i2c.c ****   }
2212:Drivers/STM32F3xx_HAL_Driver/Src/stm32f3xx_hal_i2c.c **** }
 4276              		.loc 1 2212 0
 4277 012c 1846     		mov	r0, r3
 4278 012e 1837     		adds	r7, r7, #24
 4279              	.LCFI100:
 4280              		.cfi_def_cfa_offset 8
 4281 0130 BD46     		mov	sp, r7
 4282              	.LCFI101:
 4283              		.cfi_def_cfa_register 13
 4284              		@ sp needed
 4285 0132 80BD     		pop	{r7, pc}
 4286              	.L214:
 4287              		.align	2
 4288              	.L213:
 4289 0134 0000FFFF 		.word	-65536
 4290 0138 00000000 		.word	I2C_Master_ISR_IT
 4291              		.cfi_endproc
 4292              	.LFE714:
 4294              		.section	.text.HAL_I2C_Mem_Write_DMA,"ax",%progbits
 4295              		.align	1
 4296              		.global	HAL_I2C_Mem_Write_DMA
 4297              		.syntax unified
 4298              		.thumb
 4299              		.thumb_func
 4300              		.fpu fpv4-sp-d16
 4302              	HAL_I2C_Mem_Write_DMA:
 4303              	.LFB715:
2213:Drivers/STM32F3xx_HAL_Driver/Src/stm32f3xx_hal_i2c.c **** /**
2214:Drivers/STM32F3xx_HAL_Driver/Src/stm32f3xx_hal_i2c.c ****   * @brief  Write an amount of data in non-blocking mode with DMA to a specific memory address
2215:Drivers/STM32F3xx_HAL_Driver/Src/stm32f3xx_hal_i2c.c ****   * @param  hi2c Pointer to a I2C_HandleTypeDef structure that contains
2216:Drivers/STM32F3xx_HAL_Driver/Src/stm32f3xx_hal_i2c.c ****   *                the configuration information for the specified I2C.
2217:Drivers/STM32F3xx_HAL_Driver/Src/stm32f3xx_hal_i2c.c ****   * @param  DevAddress Target device address: The device 7 bits address value
2218:Drivers/STM32F3xx_HAL_Driver/Src/stm32f3xx_hal_i2c.c ****   *         in datasheet must be shift at right before call interface
2219:Drivers/STM32F3xx_HAL_Driver/Src/stm32f3xx_hal_i2c.c ****   * @param  MemAddress Internal memory address
2220:Drivers/STM32F3xx_HAL_Driver/Src/stm32f3xx_hal_i2c.c ****   * @param  MemAddSize Size of internal memory address
2221:Drivers/STM32F3xx_HAL_Driver/Src/stm32f3xx_hal_i2c.c ****   * @param  pData Pointer to data buffer
2222:Drivers/STM32F3xx_HAL_Driver/Src/stm32f3xx_hal_i2c.c ****   * @param  Size Amount of data to be sent
2223:Drivers/STM32F3xx_HAL_Driver/Src/stm32f3xx_hal_i2c.c ****   * @retval HAL status
2224:Drivers/STM32F3xx_HAL_Driver/Src/stm32f3xx_hal_i2c.c ****   */
2225:Drivers/STM32F3xx_HAL_Driver/Src/stm32f3xx_hal_i2c.c **** HAL_StatusTypeDef HAL_I2C_Mem_Write_DMA(I2C_HandleTypeDef *hi2c, uint16_t DevAddress, uint16_t MemA
2226:Drivers/STM32F3xx_HAL_Driver/Src/stm32f3xx_hal_i2c.c **** {
 4304              		.loc 1 2226 0
 4305              		.cfi_startproc
 4306              		@ args = 8, pretend = 0, frame = 24
 4307              		@ frame_needed = 1, uses_anonymous_args = 0
 4308 0000 80B5     		push	{r7, lr}
 4309              	.LCFI102:
 4310              		.cfi_def_cfa_offset 8
 4311              		.cfi_offset 7, -8
ARM GAS  /tmp/ccy0jiyr.s 			page 115


 4312              		.cfi_offset 14, -4
 4313 0002 88B0     		sub	sp, sp, #32
 4314              	.LCFI103:
 4315              		.cfi_def_cfa_offset 40
 4316 0004 02AF     		add	r7, sp, #8
 4317              	.LCFI104:
 4318              		.cfi_def_cfa 7, 32
 4319 0006 F860     		str	r0, [r7, #12]
 4320 0008 0846     		mov	r0, r1
 4321 000a 1146     		mov	r1, r2
 4322 000c 1A46     		mov	r2, r3
 4323 000e 0346     		mov	r3, r0	@ movhi
 4324 0010 7B81     		strh	r3, [r7, #10]	@ movhi
 4325 0012 0B46     		mov	r3, r1	@ movhi
 4326 0014 3B81     		strh	r3, [r7, #8]	@ movhi
 4327 0016 1346     		mov	r3, r2	@ movhi
 4328 0018 FB80     		strh	r3, [r7, #6]	@ movhi
2227:Drivers/STM32F3xx_HAL_Driver/Src/stm32f3xx_hal_i2c.c ****   uint32_t tickstart = 0U;
 4329              		.loc 1 2227 0
 4330 001a 0023     		movs	r3, #0
 4331 001c 3B61     		str	r3, [r7, #16]
2228:Drivers/STM32F3xx_HAL_Driver/Src/stm32f3xx_hal_i2c.c ****   uint32_t xfermode = 0U;
 4332              		.loc 1 2228 0
 4333 001e 0023     		movs	r3, #0
 4334 0020 7B61     		str	r3, [r7, #20]
2229:Drivers/STM32F3xx_HAL_Driver/Src/stm32f3xx_hal_i2c.c **** 
2230:Drivers/STM32F3xx_HAL_Driver/Src/stm32f3xx_hal_i2c.c ****   /* Check the parameters */
2231:Drivers/STM32F3xx_HAL_Driver/Src/stm32f3xx_hal_i2c.c ****   assert_param(IS_I2C_MEMADD_SIZE(MemAddSize));
2232:Drivers/STM32F3xx_HAL_Driver/Src/stm32f3xx_hal_i2c.c **** 
2233:Drivers/STM32F3xx_HAL_Driver/Src/stm32f3xx_hal_i2c.c ****   if (hi2c->State == HAL_I2C_STATE_READY)
 4335              		.loc 1 2233 0
 4336 0022 FB68     		ldr	r3, [r7, #12]
 4337 0024 93F84130 		ldrb	r3, [r3, #65]
 4338 0028 DBB2     		uxtb	r3, r3
 4339 002a 202B     		cmp	r3, #32
 4340 002c 40F0A980 		bne	.L216
2234:Drivers/STM32F3xx_HAL_Driver/Src/stm32f3xx_hal_i2c.c ****   {
2235:Drivers/STM32F3xx_HAL_Driver/Src/stm32f3xx_hal_i2c.c ****     if ((pData == NULL) || (Size == 0U))
 4341              		.loc 1 2235 0
 4342 0030 3B6A     		ldr	r3, [r7, #32]
 4343 0032 002B     		cmp	r3, #0
 4344 0034 02D0     		beq	.L217
 4345              		.loc 1 2235 0 is_stmt 0 discriminator 1
 4346 0036 BB8C     		ldrh	r3, [r7, #36]
 4347 0038 002B     		cmp	r3, #0
 4348 003a 01D1     		bne	.L218
 4349              	.L217:
2236:Drivers/STM32F3xx_HAL_Driver/Src/stm32f3xx_hal_i2c.c ****     {
2237:Drivers/STM32F3xx_HAL_Driver/Src/stm32f3xx_hal_i2c.c ****       return  HAL_ERROR;
 4350              		.loc 1 2237 0 is_stmt 1
 4351 003c 0123     		movs	r3, #1
 4352 003e A1E0     		b	.L219
 4353              	.L218:
2238:Drivers/STM32F3xx_HAL_Driver/Src/stm32f3xx_hal_i2c.c ****     }
2239:Drivers/STM32F3xx_HAL_Driver/Src/stm32f3xx_hal_i2c.c **** 
2240:Drivers/STM32F3xx_HAL_Driver/Src/stm32f3xx_hal_i2c.c ****     if (__HAL_I2C_GET_FLAG(hi2c, I2C_FLAG_BUSY) == SET)
 4354              		.loc 1 2240 0
ARM GAS  /tmp/ccy0jiyr.s 			page 116


 4355 0040 FB68     		ldr	r3, [r7, #12]
 4356 0042 1B68     		ldr	r3, [r3]
 4357 0044 9B69     		ldr	r3, [r3, #24]
 4358 0046 03F40043 		and	r3, r3, #32768
 4359 004a B3F5004F 		cmp	r3, #32768
 4360 004e 01D1     		bne	.L220
2241:Drivers/STM32F3xx_HAL_Driver/Src/stm32f3xx_hal_i2c.c ****     {
2242:Drivers/STM32F3xx_HAL_Driver/Src/stm32f3xx_hal_i2c.c ****       return HAL_BUSY;
 4361              		.loc 1 2242 0
 4362 0050 0223     		movs	r3, #2
 4363 0052 97E0     		b	.L219
 4364              	.L220:
2243:Drivers/STM32F3xx_HAL_Driver/Src/stm32f3xx_hal_i2c.c ****     }
2244:Drivers/STM32F3xx_HAL_Driver/Src/stm32f3xx_hal_i2c.c **** 
2245:Drivers/STM32F3xx_HAL_Driver/Src/stm32f3xx_hal_i2c.c ****     /* Process Locked */
2246:Drivers/STM32F3xx_HAL_Driver/Src/stm32f3xx_hal_i2c.c ****     __HAL_LOCK(hi2c);
 4365              		.loc 1 2246 0
 4366 0054 FB68     		ldr	r3, [r7, #12]
 4367 0056 93F84030 		ldrb	r3, [r3, #64]	@ zero_extendqisi2
 4368 005a 012B     		cmp	r3, #1
 4369 005c 01D1     		bne	.L221
 4370              		.loc 1 2246 0 is_stmt 0 discriminator 1
 4371 005e 0223     		movs	r3, #2
 4372 0060 90E0     		b	.L219
 4373              	.L221:
 4374              		.loc 1 2246 0 discriminator 2
 4375 0062 FB68     		ldr	r3, [r7, #12]
 4376 0064 0122     		movs	r2, #1
 4377 0066 83F84020 		strb	r2, [r3, #64]
2247:Drivers/STM32F3xx_HAL_Driver/Src/stm32f3xx_hal_i2c.c **** 
2248:Drivers/STM32F3xx_HAL_Driver/Src/stm32f3xx_hal_i2c.c ****     /* Init tickstart for timeout management*/
2249:Drivers/STM32F3xx_HAL_Driver/Src/stm32f3xx_hal_i2c.c ****     tickstart = HAL_GetTick();
 4378              		.loc 1 2249 0 is_stmt 1 discriminator 2
 4379 006a FFF7FEFF 		bl	HAL_GetTick
 4380 006e 3861     		str	r0, [r7, #16]
2250:Drivers/STM32F3xx_HAL_Driver/Src/stm32f3xx_hal_i2c.c **** 
2251:Drivers/STM32F3xx_HAL_Driver/Src/stm32f3xx_hal_i2c.c ****     hi2c->State       = HAL_I2C_STATE_BUSY_TX;
 4381              		.loc 1 2251 0 discriminator 2
 4382 0070 FB68     		ldr	r3, [r7, #12]
 4383 0072 2122     		movs	r2, #33
 4384 0074 83F84120 		strb	r2, [r3, #65]
2252:Drivers/STM32F3xx_HAL_Driver/Src/stm32f3xx_hal_i2c.c ****     hi2c->Mode        = HAL_I2C_MODE_MEM;
 4385              		.loc 1 2252 0 discriminator 2
 4386 0078 FB68     		ldr	r3, [r7, #12]
 4387 007a 4022     		movs	r2, #64
 4388 007c 83F84220 		strb	r2, [r3, #66]
2253:Drivers/STM32F3xx_HAL_Driver/Src/stm32f3xx_hal_i2c.c ****     hi2c->ErrorCode   = HAL_I2C_ERROR_NONE;
 4389              		.loc 1 2253 0 discriminator 2
 4390 0080 FB68     		ldr	r3, [r7, #12]
 4391 0082 0022     		movs	r2, #0
 4392 0084 5A64     		str	r2, [r3, #68]
2254:Drivers/STM32F3xx_HAL_Driver/Src/stm32f3xx_hal_i2c.c **** 
2255:Drivers/STM32F3xx_HAL_Driver/Src/stm32f3xx_hal_i2c.c ****     /* Prepare transfer parameters */
2256:Drivers/STM32F3xx_HAL_Driver/Src/stm32f3xx_hal_i2c.c ****     hi2c->pBuffPtr    = pData;
 4393              		.loc 1 2256 0 discriminator 2
 4394 0086 FB68     		ldr	r3, [r7, #12]
 4395 0088 3A6A     		ldr	r2, [r7, #32]
ARM GAS  /tmp/ccy0jiyr.s 			page 117


 4396 008a 5A62     		str	r2, [r3, #36]
2257:Drivers/STM32F3xx_HAL_Driver/Src/stm32f3xx_hal_i2c.c ****     hi2c->XferCount   = Size;
 4397              		.loc 1 2257 0 discriminator 2
 4398 008c FB68     		ldr	r3, [r7, #12]
 4399 008e BA8C     		ldrh	r2, [r7, #36]	@ movhi
 4400 0090 5A85     		strh	r2, [r3, #42]	@ movhi
2258:Drivers/STM32F3xx_HAL_Driver/Src/stm32f3xx_hal_i2c.c ****     hi2c->XferOptions = I2C_NO_OPTION_FRAME;
 4401              		.loc 1 2258 0 discriminator 2
 4402 0092 FB68     		ldr	r3, [r7, #12]
 4403 0094 3D4A     		ldr	r2, .L226
 4404 0096 DA62     		str	r2, [r3, #44]
2259:Drivers/STM32F3xx_HAL_Driver/Src/stm32f3xx_hal_i2c.c ****     hi2c->XferISR     = I2C_Master_ISR_DMA;
 4405              		.loc 1 2259 0 discriminator 2
 4406 0098 FB68     		ldr	r3, [r7, #12]
 4407 009a 3D4A     		ldr	r2, .L226+4
 4408 009c 5A63     		str	r2, [r3, #52]
2260:Drivers/STM32F3xx_HAL_Driver/Src/stm32f3xx_hal_i2c.c **** 
2261:Drivers/STM32F3xx_HAL_Driver/Src/stm32f3xx_hal_i2c.c ****     if (hi2c->XferCount > MAX_NBYTE_SIZE)
 4409              		.loc 1 2261 0 discriminator 2
 4410 009e FB68     		ldr	r3, [r7, #12]
 4411 00a0 5B8D     		ldrh	r3, [r3, #42]	@ movhi
 4412 00a2 9BB2     		uxth	r3, r3
 4413 00a4 FF2B     		cmp	r3, #255
 4414 00a6 06D9     		bls	.L222
2262:Drivers/STM32F3xx_HAL_Driver/Src/stm32f3xx_hal_i2c.c ****     {
2263:Drivers/STM32F3xx_HAL_Driver/Src/stm32f3xx_hal_i2c.c ****       hi2c->XferSize = MAX_NBYTE_SIZE;
 4415              		.loc 1 2263 0
 4416 00a8 FB68     		ldr	r3, [r7, #12]
 4417 00aa FF22     		movs	r2, #255
 4418 00ac 1A85     		strh	r2, [r3, #40]	@ movhi
2264:Drivers/STM32F3xx_HAL_Driver/Src/stm32f3xx_hal_i2c.c ****       xfermode = I2C_RELOAD_MODE;
 4419              		.loc 1 2264 0
 4420 00ae 4FF08073 		mov	r3, #16777216
 4421 00b2 7B61     		str	r3, [r7, #20]
 4422 00b4 07E0     		b	.L223
 4423              	.L222:
2265:Drivers/STM32F3xx_HAL_Driver/Src/stm32f3xx_hal_i2c.c ****     }
2266:Drivers/STM32F3xx_HAL_Driver/Src/stm32f3xx_hal_i2c.c ****     else
2267:Drivers/STM32F3xx_HAL_Driver/Src/stm32f3xx_hal_i2c.c ****     {
2268:Drivers/STM32F3xx_HAL_Driver/Src/stm32f3xx_hal_i2c.c ****       hi2c->XferSize = hi2c->XferCount;
 4424              		.loc 1 2268 0
 4425 00b6 FB68     		ldr	r3, [r7, #12]
 4426 00b8 5B8D     		ldrh	r3, [r3, #42]	@ movhi
 4427 00ba 9AB2     		uxth	r2, r3
 4428 00bc FB68     		ldr	r3, [r7, #12]
 4429 00be 1A85     		strh	r2, [r3, #40]	@ movhi
2269:Drivers/STM32F3xx_HAL_Driver/Src/stm32f3xx_hal_i2c.c ****       xfermode = I2C_AUTOEND_MODE;
 4430              		.loc 1 2269 0
 4431 00c0 4FF00073 		mov	r3, #33554432
 4432 00c4 7B61     		str	r3, [r7, #20]
 4433              	.L223:
2270:Drivers/STM32F3xx_HAL_Driver/Src/stm32f3xx_hal_i2c.c ****     }
2271:Drivers/STM32F3xx_HAL_Driver/Src/stm32f3xx_hal_i2c.c **** 
2272:Drivers/STM32F3xx_HAL_Driver/Src/stm32f3xx_hal_i2c.c ****     /* Send Slave Address and Memory Address */
2273:Drivers/STM32F3xx_HAL_Driver/Src/stm32f3xx_hal_i2c.c ****     if (I2C_RequestMemoryWrite(hi2c, DevAddress, MemAddress, MemAddSize, I2C_TIMEOUT_FLAG, tickstar
 4434              		.loc 1 2273 0
 4435 00c6 F888     		ldrh	r0, [r7, #6]
ARM GAS  /tmp/ccy0jiyr.s 			page 118


 4436 00c8 3A89     		ldrh	r2, [r7, #8]
 4437 00ca 7989     		ldrh	r1, [r7, #10]
 4438 00cc 3B69     		ldr	r3, [r7, #16]
 4439 00ce 0193     		str	r3, [sp, #4]
 4440 00d0 1923     		movs	r3, #25
 4441 00d2 0093     		str	r3, [sp]
 4442 00d4 0346     		mov	r3, r0
 4443 00d6 F868     		ldr	r0, [r7, #12]
 4444 00d8 FFF7FEFF 		bl	I2C_RequestMemoryWrite
 4445 00dc 0346     		mov	r3, r0
 4446 00de 002B     		cmp	r3, #0
 4447 00e0 0FD0     		beq	.L224
2274:Drivers/STM32F3xx_HAL_Driver/Src/stm32f3xx_hal_i2c.c ****     {
2275:Drivers/STM32F3xx_HAL_Driver/Src/stm32f3xx_hal_i2c.c ****       if (hi2c->ErrorCode == HAL_I2C_ERROR_AF)
 4448              		.loc 1 2275 0
 4449 00e2 FB68     		ldr	r3, [r7, #12]
 4450 00e4 5B6C     		ldr	r3, [r3, #68]
 4451 00e6 042B     		cmp	r3, #4
 4452 00e8 05D1     		bne	.L225
2276:Drivers/STM32F3xx_HAL_Driver/Src/stm32f3xx_hal_i2c.c ****       {
2277:Drivers/STM32F3xx_HAL_Driver/Src/stm32f3xx_hal_i2c.c ****         /* Process Unlocked */
2278:Drivers/STM32F3xx_HAL_Driver/Src/stm32f3xx_hal_i2c.c ****         __HAL_UNLOCK(hi2c);
 4453              		.loc 1 2278 0
 4454 00ea FB68     		ldr	r3, [r7, #12]
 4455 00ec 0022     		movs	r2, #0
 4456 00ee 83F84020 		strb	r2, [r3, #64]
2279:Drivers/STM32F3xx_HAL_Driver/Src/stm32f3xx_hal_i2c.c ****         return HAL_ERROR;
 4457              		.loc 1 2279 0
 4458 00f2 0123     		movs	r3, #1
 4459 00f4 46E0     		b	.L219
 4460              	.L225:
2280:Drivers/STM32F3xx_HAL_Driver/Src/stm32f3xx_hal_i2c.c ****       }
2281:Drivers/STM32F3xx_HAL_Driver/Src/stm32f3xx_hal_i2c.c ****       else
2282:Drivers/STM32F3xx_HAL_Driver/Src/stm32f3xx_hal_i2c.c ****       {
2283:Drivers/STM32F3xx_HAL_Driver/Src/stm32f3xx_hal_i2c.c ****         /* Process Unlocked */
2284:Drivers/STM32F3xx_HAL_Driver/Src/stm32f3xx_hal_i2c.c ****         __HAL_UNLOCK(hi2c);
 4461              		.loc 1 2284 0
 4462 00f6 FB68     		ldr	r3, [r7, #12]
 4463 00f8 0022     		movs	r2, #0
 4464 00fa 83F84020 		strb	r2, [r3, #64]
2285:Drivers/STM32F3xx_HAL_Driver/Src/stm32f3xx_hal_i2c.c ****         return HAL_TIMEOUT;
 4465              		.loc 1 2285 0
 4466 00fe 0323     		movs	r3, #3
 4467 0100 40E0     		b	.L219
 4468              	.L224:
2286:Drivers/STM32F3xx_HAL_Driver/Src/stm32f3xx_hal_i2c.c ****       }
2287:Drivers/STM32F3xx_HAL_Driver/Src/stm32f3xx_hal_i2c.c ****     }
2288:Drivers/STM32F3xx_HAL_Driver/Src/stm32f3xx_hal_i2c.c **** 
2289:Drivers/STM32F3xx_HAL_Driver/Src/stm32f3xx_hal_i2c.c ****     /* Set the I2C DMA transfer complete callback */
2290:Drivers/STM32F3xx_HAL_Driver/Src/stm32f3xx_hal_i2c.c ****     hi2c->hdmatx->XferCpltCallback = I2C_DMAMasterTransmitCplt;
 4469              		.loc 1 2290 0
 4470 0102 FB68     		ldr	r3, [r7, #12]
 4471 0104 9B6B     		ldr	r3, [r3, #56]
 4472 0106 234A     		ldr	r2, .L226+8
 4473 0108 9A62     		str	r2, [r3, #40]
2291:Drivers/STM32F3xx_HAL_Driver/Src/stm32f3xx_hal_i2c.c **** 
2292:Drivers/STM32F3xx_HAL_Driver/Src/stm32f3xx_hal_i2c.c ****     /* Set the DMA error callback */
ARM GAS  /tmp/ccy0jiyr.s 			page 119


2293:Drivers/STM32F3xx_HAL_Driver/Src/stm32f3xx_hal_i2c.c ****     hi2c->hdmatx->XferErrorCallback = I2C_DMAError;
 4474              		.loc 1 2293 0
 4475 010a FB68     		ldr	r3, [r7, #12]
 4476 010c 9B6B     		ldr	r3, [r3, #56]
 4477 010e 224A     		ldr	r2, .L226+12
 4478 0110 1A63     		str	r2, [r3, #48]
2294:Drivers/STM32F3xx_HAL_Driver/Src/stm32f3xx_hal_i2c.c **** 
2295:Drivers/STM32F3xx_HAL_Driver/Src/stm32f3xx_hal_i2c.c ****     /* Set the unused DMA callbacks to NULL */
2296:Drivers/STM32F3xx_HAL_Driver/Src/stm32f3xx_hal_i2c.c ****     hi2c->hdmatx->XferHalfCpltCallback = NULL;
 4479              		.loc 1 2296 0
 4480 0112 FB68     		ldr	r3, [r7, #12]
 4481 0114 9B6B     		ldr	r3, [r3, #56]
 4482 0116 0022     		movs	r2, #0
 4483 0118 DA62     		str	r2, [r3, #44]
2297:Drivers/STM32F3xx_HAL_Driver/Src/stm32f3xx_hal_i2c.c ****     hi2c->hdmatx->XferAbortCallback = NULL;
 4484              		.loc 1 2297 0
 4485 011a FB68     		ldr	r3, [r7, #12]
 4486 011c 9B6B     		ldr	r3, [r3, #56]
 4487 011e 0022     		movs	r2, #0
 4488 0120 5A63     		str	r2, [r3, #52]
2298:Drivers/STM32F3xx_HAL_Driver/Src/stm32f3xx_hal_i2c.c **** 
2299:Drivers/STM32F3xx_HAL_Driver/Src/stm32f3xx_hal_i2c.c ****     /* Enable the DMA channel */
2300:Drivers/STM32F3xx_HAL_Driver/Src/stm32f3xx_hal_i2c.c ****     HAL_DMA_Start_IT(hi2c->hdmatx, (uint32_t)pData, (uint32_t)&hi2c->Instance->TXDR, hi2c->XferSize
 4489              		.loc 1 2300 0
 4490 0122 FB68     		ldr	r3, [r7, #12]
 4491 0124 986B     		ldr	r0, [r3, #56]
 4492 0126 396A     		ldr	r1, [r7, #32]
 4493 0128 FB68     		ldr	r3, [r7, #12]
 4494 012a 1B68     		ldr	r3, [r3]
 4495 012c 2833     		adds	r3, r3, #40
 4496 012e 1A46     		mov	r2, r3
 4497 0130 FB68     		ldr	r3, [r7, #12]
 4498 0132 1B8D     		ldrh	r3, [r3, #40]
 4499 0134 FFF7FEFF 		bl	HAL_DMA_Start_IT
2301:Drivers/STM32F3xx_HAL_Driver/Src/stm32f3xx_hal_i2c.c **** 
2302:Drivers/STM32F3xx_HAL_Driver/Src/stm32f3xx_hal_i2c.c ****     /* Send Slave Address */
2303:Drivers/STM32F3xx_HAL_Driver/Src/stm32f3xx_hal_i2c.c ****     /* Set NBYTES to write and reload if hi2c->XferCount > MAX_NBYTE_SIZE and generate RESTART */
2304:Drivers/STM32F3xx_HAL_Driver/Src/stm32f3xx_hal_i2c.c ****     I2C_TransferConfig(hi2c, DevAddress, hi2c->XferSize, xfermode, I2C_NO_STARTSTOP);
 4500              		.loc 1 2304 0
 4501 0138 FB68     		ldr	r3, [r7, #12]
 4502 013a 1B8D     		ldrh	r3, [r3, #40]
 4503 013c DAB2     		uxtb	r2, r3
 4504 013e 7989     		ldrh	r1, [r7, #10]
 4505 0140 0023     		movs	r3, #0
 4506 0142 0093     		str	r3, [sp]
 4507 0144 7B69     		ldr	r3, [r7, #20]
 4508 0146 F868     		ldr	r0, [r7, #12]
 4509 0148 FFF7FEFF 		bl	I2C_TransferConfig
2305:Drivers/STM32F3xx_HAL_Driver/Src/stm32f3xx_hal_i2c.c **** 
2306:Drivers/STM32F3xx_HAL_Driver/Src/stm32f3xx_hal_i2c.c ****     /* Update XferCount value */
2307:Drivers/STM32F3xx_HAL_Driver/Src/stm32f3xx_hal_i2c.c ****     hi2c->XferCount -= hi2c->XferSize;
 4510              		.loc 1 2307 0
 4511 014c FB68     		ldr	r3, [r7, #12]
 4512 014e 5B8D     		ldrh	r3, [r3, #42]	@ movhi
 4513 0150 9AB2     		uxth	r2, r3
 4514 0152 FB68     		ldr	r3, [r7, #12]
 4515 0154 1B8D     		ldrh	r3, [r3, #40]
ARM GAS  /tmp/ccy0jiyr.s 			page 120


 4516 0156 D31A     		subs	r3, r2, r3
 4517 0158 9AB2     		uxth	r2, r3
 4518 015a FB68     		ldr	r3, [r7, #12]
 4519 015c 5A85     		strh	r2, [r3, #42]	@ movhi
2308:Drivers/STM32F3xx_HAL_Driver/Src/stm32f3xx_hal_i2c.c **** 
2309:Drivers/STM32F3xx_HAL_Driver/Src/stm32f3xx_hal_i2c.c ****     /* Process Unlocked */
2310:Drivers/STM32F3xx_HAL_Driver/Src/stm32f3xx_hal_i2c.c ****     __HAL_UNLOCK(hi2c);
 4520              		.loc 1 2310 0
 4521 015e FB68     		ldr	r3, [r7, #12]
 4522 0160 0022     		movs	r2, #0
 4523 0162 83F84020 		strb	r2, [r3, #64]
2311:Drivers/STM32F3xx_HAL_Driver/Src/stm32f3xx_hal_i2c.c **** 
2312:Drivers/STM32F3xx_HAL_Driver/Src/stm32f3xx_hal_i2c.c ****     /* Note : The I2C interrupts must be enabled after unlocking current process
2313:Drivers/STM32F3xx_HAL_Driver/Src/stm32f3xx_hal_i2c.c ****               to avoid the risk of I2C interrupt handle execution before current
2314:Drivers/STM32F3xx_HAL_Driver/Src/stm32f3xx_hal_i2c.c ****               process unlock */
2315:Drivers/STM32F3xx_HAL_Driver/Src/stm32f3xx_hal_i2c.c ****     /* Enable ERR and NACK interrupts */
2316:Drivers/STM32F3xx_HAL_Driver/Src/stm32f3xx_hal_i2c.c ****     I2C_Enable_IRQ(hi2c, I2C_XFER_ERROR_IT);
 4524              		.loc 1 2316 0
 4525 0166 1121     		movs	r1, #17
 4526 0168 F868     		ldr	r0, [r7, #12]
 4527 016a FFF7FEFF 		bl	I2C_Enable_IRQ
2317:Drivers/STM32F3xx_HAL_Driver/Src/stm32f3xx_hal_i2c.c **** 
2318:Drivers/STM32F3xx_HAL_Driver/Src/stm32f3xx_hal_i2c.c ****     /* Enable DMA Request */
2319:Drivers/STM32F3xx_HAL_Driver/Src/stm32f3xx_hal_i2c.c ****     hi2c->Instance->CR1 |= I2C_CR1_TXDMAEN;
 4528              		.loc 1 2319 0
 4529 016e FB68     		ldr	r3, [r7, #12]
 4530 0170 1B68     		ldr	r3, [r3]
 4531 0172 1A68     		ldr	r2, [r3]
 4532 0174 FB68     		ldr	r3, [r7, #12]
 4533 0176 1B68     		ldr	r3, [r3]
 4534 0178 42F48042 		orr	r2, r2, #16384
 4535 017c 1A60     		str	r2, [r3]
2320:Drivers/STM32F3xx_HAL_Driver/Src/stm32f3xx_hal_i2c.c **** 
2321:Drivers/STM32F3xx_HAL_Driver/Src/stm32f3xx_hal_i2c.c ****     return HAL_OK;
 4536              		.loc 1 2321 0
 4537 017e 0023     		movs	r3, #0
 4538 0180 00E0     		b	.L219
 4539              	.L216:
2322:Drivers/STM32F3xx_HAL_Driver/Src/stm32f3xx_hal_i2c.c ****   }
2323:Drivers/STM32F3xx_HAL_Driver/Src/stm32f3xx_hal_i2c.c ****   else
2324:Drivers/STM32F3xx_HAL_Driver/Src/stm32f3xx_hal_i2c.c ****   {
2325:Drivers/STM32F3xx_HAL_Driver/Src/stm32f3xx_hal_i2c.c ****     return HAL_BUSY;
 4540              		.loc 1 2325 0
 4541 0182 0223     		movs	r3, #2
 4542              	.L219:
2326:Drivers/STM32F3xx_HAL_Driver/Src/stm32f3xx_hal_i2c.c ****   }
2327:Drivers/STM32F3xx_HAL_Driver/Src/stm32f3xx_hal_i2c.c **** }
 4543              		.loc 1 2327 0
 4544 0184 1846     		mov	r0, r3
 4545 0186 1837     		adds	r7, r7, #24
 4546              	.LCFI105:
 4547              		.cfi_def_cfa_offset 8
 4548 0188 BD46     		mov	sp, r7
 4549              	.LCFI106:
 4550              		.cfi_def_cfa_register 13
 4551              		@ sp needed
 4552 018a 80BD     		pop	{r7, pc}
ARM GAS  /tmp/ccy0jiyr.s 			page 121


 4553              	.L227:
 4554              		.align	2
 4555              	.L226:
 4556 018c 0000FFFF 		.word	-65536
 4557 0190 00000000 		.word	I2C_Master_ISR_DMA
 4558 0194 00000000 		.word	I2C_DMAMasterTransmitCplt
 4559 0198 00000000 		.word	I2C_DMAError
 4560              		.cfi_endproc
 4561              	.LFE715:
 4563              		.section	.text.HAL_I2C_Mem_Read_DMA,"ax",%progbits
 4564              		.align	1
 4565              		.global	HAL_I2C_Mem_Read_DMA
 4566              		.syntax unified
 4567              		.thumb
 4568              		.thumb_func
 4569              		.fpu fpv4-sp-d16
 4571              	HAL_I2C_Mem_Read_DMA:
 4572              	.LFB716:
2328:Drivers/STM32F3xx_HAL_Driver/Src/stm32f3xx_hal_i2c.c **** 
2329:Drivers/STM32F3xx_HAL_Driver/Src/stm32f3xx_hal_i2c.c **** /**
2330:Drivers/STM32F3xx_HAL_Driver/Src/stm32f3xx_hal_i2c.c ****   * @brief  Reads an amount of data in non-blocking mode with DMA from a specific memory address.
2331:Drivers/STM32F3xx_HAL_Driver/Src/stm32f3xx_hal_i2c.c ****   * @param  hi2c Pointer to a I2C_HandleTypeDef structure that contains
2332:Drivers/STM32F3xx_HAL_Driver/Src/stm32f3xx_hal_i2c.c ****   *                the configuration information for the specified I2C.
2333:Drivers/STM32F3xx_HAL_Driver/Src/stm32f3xx_hal_i2c.c ****   * @param  DevAddress Target device address: The device 7 bits address value
2334:Drivers/STM32F3xx_HAL_Driver/Src/stm32f3xx_hal_i2c.c ****   *         in datasheet must be shift at right before call interface
2335:Drivers/STM32F3xx_HAL_Driver/Src/stm32f3xx_hal_i2c.c ****   * @param  MemAddress Internal memory address
2336:Drivers/STM32F3xx_HAL_Driver/Src/stm32f3xx_hal_i2c.c ****   * @param  MemAddSize Size of internal memory address
2337:Drivers/STM32F3xx_HAL_Driver/Src/stm32f3xx_hal_i2c.c ****   * @param  pData Pointer to data buffer
2338:Drivers/STM32F3xx_HAL_Driver/Src/stm32f3xx_hal_i2c.c ****   * @param  Size Amount of data to be read
2339:Drivers/STM32F3xx_HAL_Driver/Src/stm32f3xx_hal_i2c.c ****   * @retval HAL status
2340:Drivers/STM32F3xx_HAL_Driver/Src/stm32f3xx_hal_i2c.c ****   */
2341:Drivers/STM32F3xx_HAL_Driver/Src/stm32f3xx_hal_i2c.c **** HAL_StatusTypeDef HAL_I2C_Mem_Read_DMA(I2C_HandleTypeDef *hi2c, uint16_t DevAddress, uint16_t MemAd
2342:Drivers/STM32F3xx_HAL_Driver/Src/stm32f3xx_hal_i2c.c **** {
 4573              		.loc 1 2342 0
 4574              		.cfi_startproc
 4575              		@ args = 8, pretend = 0, frame = 24
 4576              		@ frame_needed = 1, uses_anonymous_args = 0
 4577 0000 80B5     		push	{r7, lr}
 4578              	.LCFI107:
 4579              		.cfi_def_cfa_offset 8
 4580              		.cfi_offset 7, -8
 4581              		.cfi_offset 14, -4
 4582 0002 88B0     		sub	sp, sp, #32
 4583              	.LCFI108:
 4584              		.cfi_def_cfa_offset 40
 4585 0004 02AF     		add	r7, sp, #8
 4586              	.LCFI109:
 4587              		.cfi_def_cfa 7, 32
 4588 0006 F860     		str	r0, [r7, #12]
 4589 0008 0846     		mov	r0, r1
 4590 000a 1146     		mov	r1, r2
 4591 000c 1A46     		mov	r2, r3
 4592 000e 0346     		mov	r3, r0	@ movhi
 4593 0010 7B81     		strh	r3, [r7, #10]	@ movhi
 4594 0012 0B46     		mov	r3, r1	@ movhi
 4595 0014 3B81     		strh	r3, [r7, #8]	@ movhi
 4596 0016 1346     		mov	r3, r2	@ movhi
ARM GAS  /tmp/ccy0jiyr.s 			page 122


 4597 0018 FB80     		strh	r3, [r7, #6]	@ movhi
2343:Drivers/STM32F3xx_HAL_Driver/Src/stm32f3xx_hal_i2c.c ****   uint32_t tickstart = 0U;
 4598              		.loc 1 2343 0
 4599 001a 0023     		movs	r3, #0
 4600 001c 3B61     		str	r3, [r7, #16]
2344:Drivers/STM32F3xx_HAL_Driver/Src/stm32f3xx_hal_i2c.c ****   uint32_t xfermode = 0U;
 4601              		.loc 1 2344 0
 4602 001e 0023     		movs	r3, #0
 4603 0020 7B61     		str	r3, [r7, #20]
2345:Drivers/STM32F3xx_HAL_Driver/Src/stm32f3xx_hal_i2c.c **** 
2346:Drivers/STM32F3xx_HAL_Driver/Src/stm32f3xx_hal_i2c.c ****   /* Check the parameters */
2347:Drivers/STM32F3xx_HAL_Driver/Src/stm32f3xx_hal_i2c.c ****   assert_param(IS_I2C_MEMADD_SIZE(MemAddSize));
2348:Drivers/STM32F3xx_HAL_Driver/Src/stm32f3xx_hal_i2c.c **** 
2349:Drivers/STM32F3xx_HAL_Driver/Src/stm32f3xx_hal_i2c.c ****   if (hi2c->State == HAL_I2C_STATE_READY)
 4604              		.loc 1 2349 0
 4605 0022 FB68     		ldr	r3, [r7, #12]
 4606 0024 93F84130 		ldrb	r3, [r3, #65]
 4607 0028 DBB2     		uxtb	r3, r3
 4608 002a 202B     		cmp	r3, #32
 4609 002c 40F0AA80 		bne	.L229
2350:Drivers/STM32F3xx_HAL_Driver/Src/stm32f3xx_hal_i2c.c ****   {
2351:Drivers/STM32F3xx_HAL_Driver/Src/stm32f3xx_hal_i2c.c ****     if ((pData == NULL) || (Size == 0U))
 4610              		.loc 1 2351 0
 4611 0030 3B6A     		ldr	r3, [r7, #32]
 4612 0032 002B     		cmp	r3, #0
 4613 0034 02D0     		beq	.L230
 4614              		.loc 1 2351 0 is_stmt 0 discriminator 1
 4615 0036 BB8C     		ldrh	r3, [r7, #36]
 4616 0038 002B     		cmp	r3, #0
 4617 003a 01D1     		bne	.L231
 4618              	.L230:
2352:Drivers/STM32F3xx_HAL_Driver/Src/stm32f3xx_hal_i2c.c ****     {
2353:Drivers/STM32F3xx_HAL_Driver/Src/stm32f3xx_hal_i2c.c ****       return  HAL_ERROR;
 4619              		.loc 1 2353 0 is_stmt 1
 4620 003c 0123     		movs	r3, #1
 4621 003e A2E0     		b	.L232
 4622              	.L231:
2354:Drivers/STM32F3xx_HAL_Driver/Src/stm32f3xx_hal_i2c.c ****     }
2355:Drivers/STM32F3xx_HAL_Driver/Src/stm32f3xx_hal_i2c.c **** 
2356:Drivers/STM32F3xx_HAL_Driver/Src/stm32f3xx_hal_i2c.c ****     if (__HAL_I2C_GET_FLAG(hi2c, I2C_FLAG_BUSY) == SET)
 4623              		.loc 1 2356 0
 4624 0040 FB68     		ldr	r3, [r7, #12]
 4625 0042 1B68     		ldr	r3, [r3]
 4626 0044 9B69     		ldr	r3, [r3, #24]
 4627 0046 03F40043 		and	r3, r3, #32768
 4628 004a B3F5004F 		cmp	r3, #32768
 4629 004e 01D1     		bne	.L233
2357:Drivers/STM32F3xx_HAL_Driver/Src/stm32f3xx_hal_i2c.c ****     {
2358:Drivers/STM32F3xx_HAL_Driver/Src/stm32f3xx_hal_i2c.c ****       return HAL_BUSY;
 4630              		.loc 1 2358 0
 4631 0050 0223     		movs	r3, #2
 4632 0052 98E0     		b	.L232
 4633              	.L233:
2359:Drivers/STM32F3xx_HAL_Driver/Src/stm32f3xx_hal_i2c.c ****     }
2360:Drivers/STM32F3xx_HAL_Driver/Src/stm32f3xx_hal_i2c.c **** 
2361:Drivers/STM32F3xx_HAL_Driver/Src/stm32f3xx_hal_i2c.c ****     /* Process Locked */
2362:Drivers/STM32F3xx_HAL_Driver/Src/stm32f3xx_hal_i2c.c ****     __HAL_LOCK(hi2c);
ARM GAS  /tmp/ccy0jiyr.s 			page 123


 4634              		.loc 1 2362 0
 4635 0054 FB68     		ldr	r3, [r7, #12]
 4636 0056 93F84030 		ldrb	r3, [r3, #64]	@ zero_extendqisi2
 4637 005a 012B     		cmp	r3, #1
 4638 005c 01D1     		bne	.L234
 4639              		.loc 1 2362 0 is_stmt 0 discriminator 1
 4640 005e 0223     		movs	r3, #2
 4641 0060 91E0     		b	.L232
 4642              	.L234:
 4643              		.loc 1 2362 0 discriminator 2
 4644 0062 FB68     		ldr	r3, [r7, #12]
 4645 0064 0122     		movs	r2, #1
 4646 0066 83F84020 		strb	r2, [r3, #64]
2363:Drivers/STM32F3xx_HAL_Driver/Src/stm32f3xx_hal_i2c.c **** 
2364:Drivers/STM32F3xx_HAL_Driver/Src/stm32f3xx_hal_i2c.c ****     /* Init tickstart for timeout management*/
2365:Drivers/STM32F3xx_HAL_Driver/Src/stm32f3xx_hal_i2c.c ****     tickstart = HAL_GetTick();
 4647              		.loc 1 2365 0 is_stmt 1 discriminator 2
 4648 006a FFF7FEFF 		bl	HAL_GetTick
 4649 006e 3861     		str	r0, [r7, #16]
2366:Drivers/STM32F3xx_HAL_Driver/Src/stm32f3xx_hal_i2c.c **** 
2367:Drivers/STM32F3xx_HAL_Driver/Src/stm32f3xx_hal_i2c.c ****     hi2c->State       = HAL_I2C_STATE_BUSY_RX;
 4650              		.loc 1 2367 0 discriminator 2
 4651 0070 FB68     		ldr	r3, [r7, #12]
 4652 0072 2222     		movs	r2, #34
 4653 0074 83F84120 		strb	r2, [r3, #65]
2368:Drivers/STM32F3xx_HAL_Driver/Src/stm32f3xx_hal_i2c.c ****     hi2c->Mode        = HAL_I2C_MODE_MEM;
 4654              		.loc 1 2368 0 discriminator 2
 4655 0078 FB68     		ldr	r3, [r7, #12]
 4656 007a 4022     		movs	r2, #64
 4657 007c 83F84220 		strb	r2, [r3, #66]
2369:Drivers/STM32F3xx_HAL_Driver/Src/stm32f3xx_hal_i2c.c ****     hi2c->ErrorCode   = HAL_I2C_ERROR_NONE;
 4658              		.loc 1 2369 0 discriminator 2
 4659 0080 FB68     		ldr	r3, [r7, #12]
 4660 0082 0022     		movs	r2, #0
 4661 0084 5A64     		str	r2, [r3, #68]
2370:Drivers/STM32F3xx_HAL_Driver/Src/stm32f3xx_hal_i2c.c **** 
2371:Drivers/STM32F3xx_HAL_Driver/Src/stm32f3xx_hal_i2c.c ****     /* Prepare transfer parameters */
2372:Drivers/STM32F3xx_HAL_Driver/Src/stm32f3xx_hal_i2c.c ****     hi2c->pBuffPtr    = pData;
 4662              		.loc 1 2372 0 discriminator 2
 4663 0086 FB68     		ldr	r3, [r7, #12]
 4664 0088 3A6A     		ldr	r2, [r7, #32]
 4665 008a 5A62     		str	r2, [r3, #36]
2373:Drivers/STM32F3xx_HAL_Driver/Src/stm32f3xx_hal_i2c.c ****     hi2c->XferCount   = Size;
 4666              		.loc 1 2373 0 discriminator 2
 4667 008c FB68     		ldr	r3, [r7, #12]
 4668 008e BA8C     		ldrh	r2, [r7, #36]	@ movhi
 4669 0090 5A85     		strh	r2, [r3, #42]	@ movhi
2374:Drivers/STM32F3xx_HAL_Driver/Src/stm32f3xx_hal_i2c.c ****     hi2c->XferOptions = I2C_NO_OPTION_FRAME;
 4670              		.loc 1 2374 0 discriminator 2
 4671 0092 FB68     		ldr	r3, [r7, #12]
 4672 0094 3E4A     		ldr	r2, .L239
 4673 0096 DA62     		str	r2, [r3, #44]
2375:Drivers/STM32F3xx_HAL_Driver/Src/stm32f3xx_hal_i2c.c ****     hi2c->XferISR     = I2C_Master_ISR_DMA;
 4674              		.loc 1 2375 0 discriminator 2
 4675 0098 FB68     		ldr	r3, [r7, #12]
 4676 009a 3E4A     		ldr	r2, .L239+4
 4677 009c 5A63     		str	r2, [r3, #52]
ARM GAS  /tmp/ccy0jiyr.s 			page 124


2376:Drivers/STM32F3xx_HAL_Driver/Src/stm32f3xx_hal_i2c.c **** 
2377:Drivers/STM32F3xx_HAL_Driver/Src/stm32f3xx_hal_i2c.c ****     if (hi2c->XferCount > MAX_NBYTE_SIZE)
 4678              		.loc 1 2377 0 discriminator 2
 4679 009e FB68     		ldr	r3, [r7, #12]
 4680 00a0 5B8D     		ldrh	r3, [r3, #42]	@ movhi
 4681 00a2 9BB2     		uxth	r3, r3
 4682 00a4 FF2B     		cmp	r3, #255
 4683 00a6 06D9     		bls	.L235
2378:Drivers/STM32F3xx_HAL_Driver/Src/stm32f3xx_hal_i2c.c ****     {
2379:Drivers/STM32F3xx_HAL_Driver/Src/stm32f3xx_hal_i2c.c ****       hi2c->XferSize = MAX_NBYTE_SIZE;
 4684              		.loc 1 2379 0
 4685 00a8 FB68     		ldr	r3, [r7, #12]
 4686 00aa FF22     		movs	r2, #255
 4687 00ac 1A85     		strh	r2, [r3, #40]	@ movhi
2380:Drivers/STM32F3xx_HAL_Driver/Src/stm32f3xx_hal_i2c.c ****       xfermode = I2C_RELOAD_MODE;
 4688              		.loc 1 2380 0
 4689 00ae 4FF08073 		mov	r3, #16777216
 4690 00b2 7B61     		str	r3, [r7, #20]
 4691 00b4 07E0     		b	.L236
 4692              	.L235:
2381:Drivers/STM32F3xx_HAL_Driver/Src/stm32f3xx_hal_i2c.c ****     }
2382:Drivers/STM32F3xx_HAL_Driver/Src/stm32f3xx_hal_i2c.c ****     else
2383:Drivers/STM32F3xx_HAL_Driver/Src/stm32f3xx_hal_i2c.c ****     {
2384:Drivers/STM32F3xx_HAL_Driver/Src/stm32f3xx_hal_i2c.c ****       hi2c->XferSize = hi2c->XferCount;
 4693              		.loc 1 2384 0
 4694 00b6 FB68     		ldr	r3, [r7, #12]
 4695 00b8 5B8D     		ldrh	r3, [r3, #42]	@ movhi
 4696 00ba 9AB2     		uxth	r2, r3
 4697 00bc FB68     		ldr	r3, [r7, #12]
 4698 00be 1A85     		strh	r2, [r3, #40]	@ movhi
2385:Drivers/STM32F3xx_HAL_Driver/Src/stm32f3xx_hal_i2c.c ****       xfermode = I2C_AUTOEND_MODE;
 4699              		.loc 1 2385 0
 4700 00c0 4FF00073 		mov	r3, #33554432
 4701 00c4 7B61     		str	r3, [r7, #20]
 4702              	.L236:
2386:Drivers/STM32F3xx_HAL_Driver/Src/stm32f3xx_hal_i2c.c ****     }
2387:Drivers/STM32F3xx_HAL_Driver/Src/stm32f3xx_hal_i2c.c **** 
2388:Drivers/STM32F3xx_HAL_Driver/Src/stm32f3xx_hal_i2c.c ****     /* Send Slave Address and Memory Address */
2389:Drivers/STM32F3xx_HAL_Driver/Src/stm32f3xx_hal_i2c.c ****     if (I2C_RequestMemoryRead(hi2c, DevAddress, MemAddress, MemAddSize, I2C_TIMEOUT_FLAG, tickstart
 4703              		.loc 1 2389 0
 4704 00c6 F888     		ldrh	r0, [r7, #6]
 4705 00c8 3A89     		ldrh	r2, [r7, #8]
 4706 00ca 7989     		ldrh	r1, [r7, #10]
 4707 00cc 3B69     		ldr	r3, [r7, #16]
 4708 00ce 0193     		str	r3, [sp, #4]
 4709 00d0 1923     		movs	r3, #25
 4710 00d2 0093     		str	r3, [sp]
 4711 00d4 0346     		mov	r3, r0
 4712 00d6 F868     		ldr	r0, [r7, #12]
 4713 00d8 FFF7FEFF 		bl	I2C_RequestMemoryRead
 4714 00dc 0346     		mov	r3, r0
 4715 00de 002B     		cmp	r3, #0
 4716 00e0 0FD0     		beq	.L237
2390:Drivers/STM32F3xx_HAL_Driver/Src/stm32f3xx_hal_i2c.c ****     {
2391:Drivers/STM32F3xx_HAL_Driver/Src/stm32f3xx_hal_i2c.c ****       if (hi2c->ErrorCode == HAL_I2C_ERROR_AF)
 4717              		.loc 1 2391 0
 4718 00e2 FB68     		ldr	r3, [r7, #12]
ARM GAS  /tmp/ccy0jiyr.s 			page 125


 4719 00e4 5B6C     		ldr	r3, [r3, #68]
 4720 00e6 042B     		cmp	r3, #4
 4721 00e8 05D1     		bne	.L238
2392:Drivers/STM32F3xx_HAL_Driver/Src/stm32f3xx_hal_i2c.c ****       {
2393:Drivers/STM32F3xx_HAL_Driver/Src/stm32f3xx_hal_i2c.c ****         /* Process Unlocked */
2394:Drivers/STM32F3xx_HAL_Driver/Src/stm32f3xx_hal_i2c.c ****         __HAL_UNLOCK(hi2c);
 4722              		.loc 1 2394 0
 4723 00ea FB68     		ldr	r3, [r7, #12]
 4724 00ec 0022     		movs	r2, #0
 4725 00ee 83F84020 		strb	r2, [r3, #64]
2395:Drivers/STM32F3xx_HAL_Driver/Src/stm32f3xx_hal_i2c.c ****         return HAL_ERROR;
 4726              		.loc 1 2395 0
 4727 00f2 0123     		movs	r3, #1
 4728 00f4 47E0     		b	.L232
 4729              	.L238:
2396:Drivers/STM32F3xx_HAL_Driver/Src/stm32f3xx_hal_i2c.c ****       }
2397:Drivers/STM32F3xx_HAL_Driver/Src/stm32f3xx_hal_i2c.c ****       else
2398:Drivers/STM32F3xx_HAL_Driver/Src/stm32f3xx_hal_i2c.c ****       {
2399:Drivers/STM32F3xx_HAL_Driver/Src/stm32f3xx_hal_i2c.c ****         /* Process Unlocked */
2400:Drivers/STM32F3xx_HAL_Driver/Src/stm32f3xx_hal_i2c.c ****         __HAL_UNLOCK(hi2c);
 4730              		.loc 1 2400 0
 4731 00f6 FB68     		ldr	r3, [r7, #12]
 4732 00f8 0022     		movs	r2, #0
 4733 00fa 83F84020 		strb	r2, [r3, #64]
2401:Drivers/STM32F3xx_HAL_Driver/Src/stm32f3xx_hal_i2c.c ****         return HAL_TIMEOUT;
 4734              		.loc 1 2401 0
 4735 00fe 0323     		movs	r3, #3
 4736 0100 41E0     		b	.L232
 4737              	.L237:
2402:Drivers/STM32F3xx_HAL_Driver/Src/stm32f3xx_hal_i2c.c ****       }
2403:Drivers/STM32F3xx_HAL_Driver/Src/stm32f3xx_hal_i2c.c ****     }
2404:Drivers/STM32F3xx_HAL_Driver/Src/stm32f3xx_hal_i2c.c **** 
2405:Drivers/STM32F3xx_HAL_Driver/Src/stm32f3xx_hal_i2c.c ****     /* Set the I2C DMA transfer complete callback */
2406:Drivers/STM32F3xx_HAL_Driver/Src/stm32f3xx_hal_i2c.c ****     hi2c->hdmarx->XferCpltCallback = I2C_DMAMasterReceiveCplt;
 4738              		.loc 1 2406 0
 4739 0102 FB68     		ldr	r3, [r7, #12]
 4740 0104 DB6B     		ldr	r3, [r3, #60]
 4741 0106 244A     		ldr	r2, .L239+8
 4742 0108 9A62     		str	r2, [r3, #40]
2407:Drivers/STM32F3xx_HAL_Driver/Src/stm32f3xx_hal_i2c.c **** 
2408:Drivers/STM32F3xx_HAL_Driver/Src/stm32f3xx_hal_i2c.c ****     /* Set the DMA error callback */
2409:Drivers/STM32F3xx_HAL_Driver/Src/stm32f3xx_hal_i2c.c ****     hi2c->hdmarx->XferErrorCallback = I2C_DMAError;
 4743              		.loc 1 2409 0
 4744 010a FB68     		ldr	r3, [r7, #12]
 4745 010c DB6B     		ldr	r3, [r3, #60]
 4746 010e 234A     		ldr	r2, .L239+12
 4747 0110 1A63     		str	r2, [r3, #48]
2410:Drivers/STM32F3xx_HAL_Driver/Src/stm32f3xx_hal_i2c.c **** 
2411:Drivers/STM32F3xx_HAL_Driver/Src/stm32f3xx_hal_i2c.c ****     /* Set the unused DMA callbacks to NULL */
2412:Drivers/STM32F3xx_HAL_Driver/Src/stm32f3xx_hal_i2c.c ****     hi2c->hdmarx->XferHalfCpltCallback = NULL;
 4748              		.loc 1 2412 0
 4749 0112 FB68     		ldr	r3, [r7, #12]
 4750 0114 DB6B     		ldr	r3, [r3, #60]
 4751 0116 0022     		movs	r2, #0
 4752 0118 DA62     		str	r2, [r3, #44]
2413:Drivers/STM32F3xx_HAL_Driver/Src/stm32f3xx_hal_i2c.c ****     hi2c->hdmarx->XferAbortCallback = NULL;
 4753              		.loc 1 2413 0
ARM GAS  /tmp/ccy0jiyr.s 			page 126


 4754 011a FB68     		ldr	r3, [r7, #12]
 4755 011c DB6B     		ldr	r3, [r3, #60]
 4756 011e 0022     		movs	r2, #0
 4757 0120 5A63     		str	r2, [r3, #52]
2414:Drivers/STM32F3xx_HAL_Driver/Src/stm32f3xx_hal_i2c.c **** 
2415:Drivers/STM32F3xx_HAL_Driver/Src/stm32f3xx_hal_i2c.c ****     /* Enable the DMA channel */
2416:Drivers/STM32F3xx_HAL_Driver/Src/stm32f3xx_hal_i2c.c ****     HAL_DMA_Start_IT(hi2c->hdmarx, (uint32_t)&hi2c->Instance->RXDR, (uint32_t)pData, hi2c->XferSize
 4758              		.loc 1 2416 0
 4759 0122 FB68     		ldr	r3, [r7, #12]
 4760 0124 D86B     		ldr	r0, [r3, #60]
 4761 0126 FB68     		ldr	r3, [r7, #12]
 4762 0128 1B68     		ldr	r3, [r3]
 4763 012a 2433     		adds	r3, r3, #36
 4764 012c 1946     		mov	r1, r3
 4765 012e 3A6A     		ldr	r2, [r7, #32]
 4766 0130 FB68     		ldr	r3, [r7, #12]
 4767 0132 1B8D     		ldrh	r3, [r3, #40]
 4768 0134 FFF7FEFF 		bl	HAL_DMA_Start_IT
2417:Drivers/STM32F3xx_HAL_Driver/Src/stm32f3xx_hal_i2c.c **** 
2418:Drivers/STM32F3xx_HAL_Driver/Src/stm32f3xx_hal_i2c.c ****     /* Set NBYTES to write and reload if hi2c->XferCount > MAX_NBYTE_SIZE and generate RESTART */
2419:Drivers/STM32F3xx_HAL_Driver/Src/stm32f3xx_hal_i2c.c ****     I2C_TransferConfig(hi2c, DevAddress, hi2c->XferSize, xfermode, I2C_GENERATE_START_READ);
 4769              		.loc 1 2419 0
 4770 0138 FB68     		ldr	r3, [r7, #12]
 4771 013a 1B8D     		ldrh	r3, [r3, #40]
 4772 013c DAB2     		uxtb	r2, r3
 4773 013e 7989     		ldrh	r1, [r7, #10]
 4774 0140 4FF41053 		mov	r3, #9216
 4775 0144 0093     		str	r3, [sp]
 4776 0146 7B69     		ldr	r3, [r7, #20]
 4777 0148 F868     		ldr	r0, [r7, #12]
 4778 014a FFF7FEFF 		bl	I2C_TransferConfig
2420:Drivers/STM32F3xx_HAL_Driver/Src/stm32f3xx_hal_i2c.c **** 
2421:Drivers/STM32F3xx_HAL_Driver/Src/stm32f3xx_hal_i2c.c ****     /* Update XferCount value */
2422:Drivers/STM32F3xx_HAL_Driver/Src/stm32f3xx_hal_i2c.c ****     hi2c->XferCount -= hi2c->XferSize;
 4779              		.loc 1 2422 0
 4780 014e FB68     		ldr	r3, [r7, #12]
 4781 0150 5B8D     		ldrh	r3, [r3, #42]	@ movhi
 4782 0152 9AB2     		uxth	r2, r3
 4783 0154 FB68     		ldr	r3, [r7, #12]
 4784 0156 1B8D     		ldrh	r3, [r3, #40]
 4785 0158 D31A     		subs	r3, r2, r3
 4786 015a 9AB2     		uxth	r2, r3
 4787 015c FB68     		ldr	r3, [r7, #12]
 4788 015e 5A85     		strh	r2, [r3, #42]	@ movhi
2423:Drivers/STM32F3xx_HAL_Driver/Src/stm32f3xx_hal_i2c.c **** 
2424:Drivers/STM32F3xx_HAL_Driver/Src/stm32f3xx_hal_i2c.c ****     /* Process Unlocked */
2425:Drivers/STM32F3xx_HAL_Driver/Src/stm32f3xx_hal_i2c.c ****     __HAL_UNLOCK(hi2c);
 4789              		.loc 1 2425 0
 4790 0160 FB68     		ldr	r3, [r7, #12]
 4791 0162 0022     		movs	r2, #0
 4792 0164 83F84020 		strb	r2, [r3, #64]
2426:Drivers/STM32F3xx_HAL_Driver/Src/stm32f3xx_hal_i2c.c **** 
2427:Drivers/STM32F3xx_HAL_Driver/Src/stm32f3xx_hal_i2c.c ****     /* Enable DMA Request */
2428:Drivers/STM32F3xx_HAL_Driver/Src/stm32f3xx_hal_i2c.c ****     hi2c->Instance->CR1 |= I2C_CR1_RXDMAEN;
 4793              		.loc 1 2428 0
 4794 0168 FB68     		ldr	r3, [r7, #12]
 4795 016a 1B68     		ldr	r3, [r3]
ARM GAS  /tmp/ccy0jiyr.s 			page 127


 4796 016c 1A68     		ldr	r2, [r3]
 4797 016e FB68     		ldr	r3, [r7, #12]
 4798 0170 1B68     		ldr	r3, [r3]
 4799 0172 42F40042 		orr	r2, r2, #32768
 4800 0176 1A60     		str	r2, [r3]
2429:Drivers/STM32F3xx_HAL_Driver/Src/stm32f3xx_hal_i2c.c **** 
2430:Drivers/STM32F3xx_HAL_Driver/Src/stm32f3xx_hal_i2c.c ****     /* Note : The I2C interrupts must be enabled after unlocking current process
2431:Drivers/STM32F3xx_HAL_Driver/Src/stm32f3xx_hal_i2c.c ****               to avoid the risk of I2C interrupt handle execution before current
2432:Drivers/STM32F3xx_HAL_Driver/Src/stm32f3xx_hal_i2c.c ****               process unlock */
2433:Drivers/STM32F3xx_HAL_Driver/Src/stm32f3xx_hal_i2c.c ****     /* Enable ERR and NACK interrupts */
2434:Drivers/STM32F3xx_HAL_Driver/Src/stm32f3xx_hal_i2c.c ****     I2C_Enable_IRQ(hi2c, I2C_XFER_ERROR_IT);
 4801              		.loc 1 2434 0
 4802 0178 1121     		movs	r1, #17
 4803 017a F868     		ldr	r0, [r7, #12]
 4804 017c FFF7FEFF 		bl	I2C_Enable_IRQ
2435:Drivers/STM32F3xx_HAL_Driver/Src/stm32f3xx_hal_i2c.c **** 
2436:Drivers/STM32F3xx_HAL_Driver/Src/stm32f3xx_hal_i2c.c ****     return HAL_OK;
 4805              		.loc 1 2436 0
 4806 0180 0023     		movs	r3, #0
 4807 0182 00E0     		b	.L232
 4808              	.L229:
2437:Drivers/STM32F3xx_HAL_Driver/Src/stm32f3xx_hal_i2c.c ****   }
2438:Drivers/STM32F3xx_HAL_Driver/Src/stm32f3xx_hal_i2c.c ****   else
2439:Drivers/STM32F3xx_HAL_Driver/Src/stm32f3xx_hal_i2c.c ****   {
2440:Drivers/STM32F3xx_HAL_Driver/Src/stm32f3xx_hal_i2c.c ****     return HAL_BUSY;
 4809              		.loc 1 2440 0
 4810 0184 0223     		movs	r3, #2
 4811              	.L232:
2441:Drivers/STM32F3xx_HAL_Driver/Src/stm32f3xx_hal_i2c.c ****   }
2442:Drivers/STM32F3xx_HAL_Driver/Src/stm32f3xx_hal_i2c.c **** }
 4812              		.loc 1 2442 0
 4813 0186 1846     		mov	r0, r3
 4814 0188 1837     		adds	r7, r7, #24
 4815              	.LCFI110:
 4816              		.cfi_def_cfa_offset 8
 4817 018a BD46     		mov	sp, r7
 4818              	.LCFI111:
 4819              		.cfi_def_cfa_register 13
 4820              		@ sp needed
 4821 018c 80BD     		pop	{r7, pc}
 4822              	.L240:
 4823 018e 00BF     		.align	2
 4824              	.L239:
 4825 0190 0000FFFF 		.word	-65536
 4826 0194 00000000 		.word	I2C_Master_ISR_DMA
 4827 0198 00000000 		.word	I2C_DMAMasterReceiveCplt
 4828 019c 00000000 		.word	I2C_DMAError
 4829              		.cfi_endproc
 4830              	.LFE716:
 4832              		.section	.text.HAL_I2C_IsDeviceReady,"ax",%progbits
 4833              		.align	1
 4834              		.global	HAL_I2C_IsDeviceReady
 4835              		.syntax unified
 4836              		.thumb
 4837              		.thumb_func
 4838              		.fpu fpv4-sp-d16
 4840              	HAL_I2C_IsDeviceReady:
ARM GAS  /tmp/ccy0jiyr.s 			page 128


 4841              	.LFB717:
2443:Drivers/STM32F3xx_HAL_Driver/Src/stm32f3xx_hal_i2c.c **** 
2444:Drivers/STM32F3xx_HAL_Driver/Src/stm32f3xx_hal_i2c.c **** /**
2445:Drivers/STM32F3xx_HAL_Driver/Src/stm32f3xx_hal_i2c.c ****   * @brief  Checks if target device is ready for communication.
2446:Drivers/STM32F3xx_HAL_Driver/Src/stm32f3xx_hal_i2c.c ****   * @note   This function is used with Memory devices
2447:Drivers/STM32F3xx_HAL_Driver/Src/stm32f3xx_hal_i2c.c ****   * @param  hi2c Pointer to a I2C_HandleTypeDef structure that contains
2448:Drivers/STM32F3xx_HAL_Driver/Src/stm32f3xx_hal_i2c.c ****   *                the configuration information for the specified I2C.
2449:Drivers/STM32F3xx_HAL_Driver/Src/stm32f3xx_hal_i2c.c ****   * @param  DevAddress Target device address: The device 7 bits address value
2450:Drivers/STM32F3xx_HAL_Driver/Src/stm32f3xx_hal_i2c.c ****   *         in datasheet must be shift at right before call interface
2451:Drivers/STM32F3xx_HAL_Driver/Src/stm32f3xx_hal_i2c.c ****   * @param  Trials Number of trials
2452:Drivers/STM32F3xx_HAL_Driver/Src/stm32f3xx_hal_i2c.c ****   * @param  Timeout Timeout duration
2453:Drivers/STM32F3xx_HAL_Driver/Src/stm32f3xx_hal_i2c.c ****   * @retval HAL status
2454:Drivers/STM32F3xx_HAL_Driver/Src/stm32f3xx_hal_i2c.c ****   */
2455:Drivers/STM32F3xx_HAL_Driver/Src/stm32f3xx_hal_i2c.c **** HAL_StatusTypeDef HAL_I2C_IsDeviceReady(I2C_HandleTypeDef *hi2c, uint16_t DevAddress, uint32_t Tria
2456:Drivers/STM32F3xx_HAL_Driver/Src/stm32f3xx_hal_i2c.c **** {
 4842              		.loc 1 2456 0
 4843              		.cfi_startproc
 4844              		@ args = 0, pretend = 0, frame = 24
 4845              		@ frame_needed = 1, uses_anonymous_args = 0
 4846 0000 80B5     		push	{r7, lr}
 4847              	.LCFI112:
 4848              		.cfi_def_cfa_offset 8
 4849              		.cfi_offset 7, -8
 4850              		.cfi_offset 14, -4
 4851 0002 88B0     		sub	sp, sp, #32
 4852              	.LCFI113:
 4853              		.cfi_def_cfa_offset 40
 4854 0004 02AF     		add	r7, sp, #8
 4855              	.LCFI114:
 4856              		.cfi_def_cfa 7, 32
 4857 0006 F860     		str	r0, [r7, #12]
 4858 0008 7A60     		str	r2, [r7, #4]
 4859 000a 3B60     		str	r3, [r7]
 4860 000c 0B46     		mov	r3, r1	@ movhi
 4861 000e 7B81     		strh	r3, [r7, #10]	@ movhi
2457:Drivers/STM32F3xx_HAL_Driver/Src/stm32f3xx_hal_i2c.c ****   uint32_t tickstart = 0U;
 4862              		.loc 1 2457 0
 4863 0010 0023     		movs	r3, #0
 4864 0012 7B61     		str	r3, [r7, #20]
2458:Drivers/STM32F3xx_HAL_Driver/Src/stm32f3xx_hal_i2c.c **** 
2459:Drivers/STM32F3xx_HAL_Driver/Src/stm32f3xx_hal_i2c.c ****   __IO uint32_t I2C_Trials = 0U;
 4865              		.loc 1 2459 0
 4866 0014 0023     		movs	r3, #0
 4867 0016 3B61     		str	r3, [r7, #16]
2460:Drivers/STM32F3xx_HAL_Driver/Src/stm32f3xx_hal_i2c.c **** 
2461:Drivers/STM32F3xx_HAL_Driver/Src/stm32f3xx_hal_i2c.c ****   if (hi2c->State == HAL_I2C_STATE_READY)
 4868              		.loc 1 2461 0
 4869 0018 FB68     		ldr	r3, [r7, #12]
 4870 001a 93F84130 		ldrb	r3, [r3, #65]
 4871 001e DBB2     		uxtb	r3, r3
 4872 0020 202B     		cmp	r3, #32
 4873 0022 40F0C680 		bne	.L242
2462:Drivers/STM32F3xx_HAL_Driver/Src/stm32f3xx_hal_i2c.c ****   {
2463:Drivers/STM32F3xx_HAL_Driver/Src/stm32f3xx_hal_i2c.c ****     if (__HAL_I2C_GET_FLAG(hi2c, I2C_FLAG_BUSY) == SET)
 4874              		.loc 1 2463 0
 4875 0026 FB68     		ldr	r3, [r7, #12]
 4876 0028 1B68     		ldr	r3, [r3]
ARM GAS  /tmp/ccy0jiyr.s 			page 129


 4877 002a 9B69     		ldr	r3, [r3, #24]
 4878 002c 03F40043 		and	r3, r3, #32768
 4879 0030 B3F5004F 		cmp	r3, #32768
 4880 0034 01D1     		bne	.L243
2464:Drivers/STM32F3xx_HAL_Driver/Src/stm32f3xx_hal_i2c.c ****     {
2465:Drivers/STM32F3xx_HAL_Driver/Src/stm32f3xx_hal_i2c.c ****       return HAL_BUSY;
 4881              		.loc 1 2465 0
 4882 0036 0223     		movs	r3, #2
 4883 0038 BCE0     		b	.L244
 4884              	.L243:
2466:Drivers/STM32F3xx_HAL_Driver/Src/stm32f3xx_hal_i2c.c ****     }
2467:Drivers/STM32F3xx_HAL_Driver/Src/stm32f3xx_hal_i2c.c **** 
2468:Drivers/STM32F3xx_HAL_Driver/Src/stm32f3xx_hal_i2c.c ****     /* Process Locked */
2469:Drivers/STM32F3xx_HAL_Driver/Src/stm32f3xx_hal_i2c.c ****     __HAL_LOCK(hi2c);
 4885              		.loc 1 2469 0
 4886 003a FB68     		ldr	r3, [r7, #12]
 4887 003c 93F84030 		ldrb	r3, [r3, #64]	@ zero_extendqisi2
 4888 0040 012B     		cmp	r3, #1
 4889 0042 01D1     		bne	.L245
 4890              		.loc 1 2469 0 is_stmt 0 discriminator 1
 4891 0044 0223     		movs	r3, #2
 4892 0046 B5E0     		b	.L244
 4893              	.L245:
 4894              		.loc 1 2469 0 discriminator 2
 4895 0048 FB68     		ldr	r3, [r7, #12]
 4896 004a 0122     		movs	r2, #1
 4897 004c 83F84020 		strb	r2, [r3, #64]
2470:Drivers/STM32F3xx_HAL_Driver/Src/stm32f3xx_hal_i2c.c **** 
2471:Drivers/STM32F3xx_HAL_Driver/Src/stm32f3xx_hal_i2c.c ****     hi2c->State = HAL_I2C_STATE_BUSY;
 4898              		.loc 1 2471 0 is_stmt 1 discriminator 2
 4899 0050 FB68     		ldr	r3, [r7, #12]
 4900 0052 2422     		movs	r2, #36
 4901 0054 83F84120 		strb	r2, [r3, #65]
2472:Drivers/STM32F3xx_HAL_Driver/Src/stm32f3xx_hal_i2c.c ****     hi2c->ErrorCode = HAL_I2C_ERROR_NONE;
 4902              		.loc 1 2472 0 discriminator 2
 4903 0058 FB68     		ldr	r3, [r7, #12]
 4904 005a 0022     		movs	r2, #0
 4905 005c 5A64     		str	r2, [r3, #68]
 4906              	.L257:
2473:Drivers/STM32F3xx_HAL_Driver/Src/stm32f3xx_hal_i2c.c **** 
2474:Drivers/STM32F3xx_HAL_Driver/Src/stm32f3xx_hal_i2c.c ****     do
2475:Drivers/STM32F3xx_HAL_Driver/Src/stm32f3xx_hal_i2c.c ****     {
2476:Drivers/STM32F3xx_HAL_Driver/Src/stm32f3xx_hal_i2c.c ****       /* Generate Start */
2477:Drivers/STM32F3xx_HAL_Driver/Src/stm32f3xx_hal_i2c.c ****       hi2c->Instance->CR2 = I2C_GENERATE_START(hi2c->Init.AddressingMode, DevAddress);
 4907              		.loc 1 2477 0
 4908 005e FB68     		ldr	r3, [r7, #12]
 4909 0060 DB68     		ldr	r3, [r3, #12]
 4910 0062 012B     		cmp	r3, #1
 4911 0064 07D1     		bne	.L246
 4912              		.loc 1 2477 0 is_stmt 0 discriminator 1
 4913 0066 7B89     		ldrh	r3, [r7, #10]
 4914 0068 C3F30903 		ubfx	r3, r3, #0, #10
 4915 006c 43F00073 		orr	r3, r3, #33554432
 4916 0070 43F40053 		orr	r3, r3, #8192
 4917 0074 04E0     		b	.L247
 4918              	.L246:
 4919              		.loc 1 2477 0 discriminator 2
ARM GAS  /tmp/ccy0jiyr.s 			page 130


 4920 0076 7B89     		ldrh	r3, [r7, #10]
 4921 0078 C3F30903 		ubfx	r3, r3, #0, #10
 4922 007c 43F42053 		orr	r3, r3, #10240
 4923              	.L247:
 4924              		.loc 1 2477 0 discriminator 4
 4925 0080 FA68     		ldr	r2, [r7, #12]
 4926 0082 1268     		ldr	r2, [r2]
 4927 0084 5360     		str	r3, [r2, #4]
2478:Drivers/STM32F3xx_HAL_Driver/Src/stm32f3xx_hal_i2c.c **** 
2479:Drivers/STM32F3xx_HAL_Driver/Src/stm32f3xx_hal_i2c.c ****       /* No need to Check TC flag, with AUTOEND mode the stop is automatically generated */
2480:Drivers/STM32F3xx_HAL_Driver/Src/stm32f3xx_hal_i2c.c ****       /* Wait until STOPF flag is set or a NACK flag is set*/
2481:Drivers/STM32F3xx_HAL_Driver/Src/stm32f3xx_hal_i2c.c ****       tickstart = HAL_GetTick();
 4928              		.loc 1 2481 0 is_stmt 1 discriminator 4
 4929 0086 FFF7FEFF 		bl	HAL_GetTick
 4930 008a 7861     		str	r0, [r7, #20]
2482:Drivers/STM32F3xx_HAL_Driver/Src/stm32f3xx_hal_i2c.c ****       while ((__HAL_I2C_GET_FLAG(hi2c, I2C_FLAG_STOPF) == RESET) && (__HAL_I2C_GET_FLAG(hi2c, I2C_F
 4931              		.loc 1 2482 0 discriminator 4
 4932 008c 18E0     		b	.L248
 4933              	.L251:
2483:Drivers/STM32F3xx_HAL_Driver/Src/stm32f3xx_hal_i2c.c ****       {
2484:Drivers/STM32F3xx_HAL_Driver/Src/stm32f3xx_hal_i2c.c ****         if (Timeout != HAL_MAX_DELAY)
 4934              		.loc 1 2484 0
 4935 008e 3B68     		ldr	r3, [r7]
 4936 0090 B3F1FF3F 		cmp	r3, #-1
 4937 0094 14D0     		beq	.L248
2485:Drivers/STM32F3xx_HAL_Driver/Src/stm32f3xx_hal_i2c.c ****         {
2486:Drivers/STM32F3xx_HAL_Driver/Src/stm32f3xx_hal_i2c.c ****           if ((Timeout == 0U) || ((HAL_GetTick() - tickstart) > Timeout))
 4938              		.loc 1 2486 0
 4939 0096 3B68     		ldr	r3, [r7]
 4940 0098 002B     		cmp	r3, #0
 4941 009a 07D0     		beq	.L249
 4942              		.loc 1 2486 0 is_stmt 0 discriminator 1
 4943 009c FFF7FEFF 		bl	HAL_GetTick
 4944 00a0 0246     		mov	r2, r0
 4945 00a2 7B69     		ldr	r3, [r7, #20]
 4946 00a4 D31A     		subs	r3, r2, r3
 4947 00a6 3A68     		ldr	r2, [r7]
 4948 00a8 9A42     		cmp	r2, r3
 4949 00aa 09D2     		bcs	.L248
 4950              	.L249:
2487:Drivers/STM32F3xx_HAL_Driver/Src/stm32f3xx_hal_i2c.c ****           {
2488:Drivers/STM32F3xx_HAL_Driver/Src/stm32f3xx_hal_i2c.c ****             /* Device is ready */
2489:Drivers/STM32F3xx_HAL_Driver/Src/stm32f3xx_hal_i2c.c ****             hi2c->State = HAL_I2C_STATE_READY;
 4951              		.loc 1 2489 0 is_stmt 1
 4952 00ac FB68     		ldr	r3, [r7, #12]
 4953 00ae 2022     		movs	r2, #32
 4954 00b0 83F84120 		strb	r2, [r3, #65]
2490:Drivers/STM32F3xx_HAL_Driver/Src/stm32f3xx_hal_i2c.c ****             /* Process Unlocked */
2491:Drivers/STM32F3xx_HAL_Driver/Src/stm32f3xx_hal_i2c.c ****             __HAL_UNLOCK(hi2c);
 4955              		.loc 1 2491 0
 4956 00b4 FB68     		ldr	r3, [r7, #12]
 4957 00b6 0022     		movs	r2, #0
 4958 00b8 83F84020 		strb	r2, [r3, #64]
2492:Drivers/STM32F3xx_HAL_Driver/Src/stm32f3xx_hal_i2c.c ****             return HAL_TIMEOUT;
 4959              		.loc 1 2492 0
 4960 00bc 0323     		movs	r3, #3
 4961 00be 79E0     		b	.L244
ARM GAS  /tmp/ccy0jiyr.s 			page 131


 4962              	.L248:
2482:Drivers/STM32F3xx_HAL_Driver/Src/stm32f3xx_hal_i2c.c ****       {
 4963              		.loc 1 2482 0
 4964 00c0 FB68     		ldr	r3, [r7, #12]
 4965 00c2 1B68     		ldr	r3, [r3]
 4966 00c4 9B69     		ldr	r3, [r3, #24]
 4967 00c6 03F02003 		and	r3, r3, #32
 4968 00ca 202B     		cmp	r3, #32
 4969 00cc 0CD0     		beq	.L250
2482:Drivers/STM32F3xx_HAL_Driver/Src/stm32f3xx_hal_i2c.c ****       {
 4970              		.loc 1 2482 0 is_stmt 0 discriminator 1
 4971 00ce FB68     		ldr	r3, [r7, #12]
 4972 00d0 1B68     		ldr	r3, [r3]
 4973 00d2 9B69     		ldr	r3, [r3, #24]
 4974 00d4 03F01003 		and	r3, r3, #16
 4975 00d8 102B     		cmp	r3, #16
 4976 00da 05D0     		beq	.L250
2482:Drivers/STM32F3xx_HAL_Driver/Src/stm32f3xx_hal_i2c.c ****       {
 4977              		.loc 1 2482 0 discriminator 2
 4978 00dc FB68     		ldr	r3, [r7, #12]
 4979 00de 93F84130 		ldrb	r3, [r3, #65]
 4980 00e2 DBB2     		uxtb	r3, r3
 4981 00e4 A02B     		cmp	r3, #160
 4982 00e6 D2D1     		bne	.L251
 4983              	.L250:
2493:Drivers/STM32F3xx_HAL_Driver/Src/stm32f3xx_hal_i2c.c ****           }
2494:Drivers/STM32F3xx_HAL_Driver/Src/stm32f3xx_hal_i2c.c ****         }
2495:Drivers/STM32F3xx_HAL_Driver/Src/stm32f3xx_hal_i2c.c ****       }
2496:Drivers/STM32F3xx_HAL_Driver/Src/stm32f3xx_hal_i2c.c **** 
2497:Drivers/STM32F3xx_HAL_Driver/Src/stm32f3xx_hal_i2c.c ****       /* Check if the NACKF flag has not been set */
2498:Drivers/STM32F3xx_HAL_Driver/Src/stm32f3xx_hal_i2c.c ****       if (__HAL_I2C_GET_FLAG(hi2c, I2C_FLAG_AF) == RESET)
 4984              		.loc 1 2498 0 is_stmt 1
 4985 00e8 FB68     		ldr	r3, [r7, #12]
 4986 00ea 1B68     		ldr	r3, [r3]
 4987 00ec 9B69     		ldr	r3, [r3, #24]
 4988 00ee 03F01003 		and	r3, r3, #16
 4989 00f2 102B     		cmp	r3, #16
 4990 00f4 1AD0     		beq	.L252
2499:Drivers/STM32F3xx_HAL_Driver/Src/stm32f3xx_hal_i2c.c ****       {
2500:Drivers/STM32F3xx_HAL_Driver/Src/stm32f3xx_hal_i2c.c ****         /* Wait until STOPF flag is reset */
2501:Drivers/STM32F3xx_HAL_Driver/Src/stm32f3xx_hal_i2c.c ****         if (I2C_WaitOnFlagUntilTimeout(hi2c, I2C_FLAG_STOPF, RESET, Timeout, tickstart) != HAL_OK)
 4991              		.loc 1 2501 0
 4992 00f6 7B69     		ldr	r3, [r7, #20]
 4993 00f8 0093     		str	r3, [sp]
 4994 00fa 3B68     		ldr	r3, [r7]
 4995 00fc 0022     		movs	r2, #0
 4996 00fe 2021     		movs	r1, #32
 4997 0100 F868     		ldr	r0, [r7, #12]
 4998 0102 FFF7FEFF 		bl	I2C_WaitOnFlagUntilTimeout
 4999 0106 0346     		mov	r3, r0
 5000 0108 002B     		cmp	r3, #0
 5001 010a 01D0     		beq	.L253
2502:Drivers/STM32F3xx_HAL_Driver/Src/stm32f3xx_hal_i2c.c ****         {
2503:Drivers/STM32F3xx_HAL_Driver/Src/stm32f3xx_hal_i2c.c ****           return HAL_TIMEOUT;
 5002              		.loc 1 2503 0
 5003 010c 0323     		movs	r3, #3
 5004 010e 51E0     		b	.L244
ARM GAS  /tmp/ccy0jiyr.s 			page 132


 5005              	.L253:
2504:Drivers/STM32F3xx_HAL_Driver/Src/stm32f3xx_hal_i2c.c ****         }
2505:Drivers/STM32F3xx_HAL_Driver/Src/stm32f3xx_hal_i2c.c **** 
2506:Drivers/STM32F3xx_HAL_Driver/Src/stm32f3xx_hal_i2c.c ****         /* Clear STOP Flag */
2507:Drivers/STM32F3xx_HAL_Driver/Src/stm32f3xx_hal_i2c.c ****         __HAL_I2C_CLEAR_FLAG(hi2c, I2C_FLAG_STOPF);
 5006              		.loc 1 2507 0
 5007 0110 FB68     		ldr	r3, [r7, #12]
 5008 0112 1B68     		ldr	r3, [r3]
 5009 0114 2022     		movs	r2, #32
 5010 0116 DA61     		str	r2, [r3, #28]
2508:Drivers/STM32F3xx_HAL_Driver/Src/stm32f3xx_hal_i2c.c **** 
2509:Drivers/STM32F3xx_HAL_Driver/Src/stm32f3xx_hal_i2c.c ****         /* Device is ready */
2510:Drivers/STM32F3xx_HAL_Driver/Src/stm32f3xx_hal_i2c.c ****         hi2c->State = HAL_I2C_STATE_READY;
 5011              		.loc 1 2510 0
 5012 0118 FB68     		ldr	r3, [r7, #12]
 5013 011a 2022     		movs	r2, #32
 5014 011c 83F84120 		strb	r2, [r3, #65]
2511:Drivers/STM32F3xx_HAL_Driver/Src/stm32f3xx_hal_i2c.c **** 
2512:Drivers/STM32F3xx_HAL_Driver/Src/stm32f3xx_hal_i2c.c ****         /* Process Unlocked */
2513:Drivers/STM32F3xx_HAL_Driver/Src/stm32f3xx_hal_i2c.c ****         __HAL_UNLOCK(hi2c);
 5015              		.loc 1 2513 0
 5016 0120 FB68     		ldr	r3, [r7, #12]
 5017 0122 0022     		movs	r2, #0
 5018 0124 83F84020 		strb	r2, [r3, #64]
2514:Drivers/STM32F3xx_HAL_Driver/Src/stm32f3xx_hal_i2c.c **** 
2515:Drivers/STM32F3xx_HAL_Driver/Src/stm32f3xx_hal_i2c.c ****         return HAL_OK;
 5019              		.loc 1 2515 0
 5020 0128 0023     		movs	r3, #0
 5021 012a 43E0     		b	.L244
 5022              	.L252:
2516:Drivers/STM32F3xx_HAL_Driver/Src/stm32f3xx_hal_i2c.c ****       }
2517:Drivers/STM32F3xx_HAL_Driver/Src/stm32f3xx_hal_i2c.c ****       else
2518:Drivers/STM32F3xx_HAL_Driver/Src/stm32f3xx_hal_i2c.c ****       {
2519:Drivers/STM32F3xx_HAL_Driver/Src/stm32f3xx_hal_i2c.c ****         /* Wait until STOPF flag is reset */
2520:Drivers/STM32F3xx_HAL_Driver/Src/stm32f3xx_hal_i2c.c ****         if (I2C_WaitOnFlagUntilTimeout(hi2c, I2C_FLAG_STOPF, RESET, Timeout, tickstart) != HAL_OK)
 5023              		.loc 1 2520 0
 5024 012c 7B69     		ldr	r3, [r7, #20]
 5025 012e 0093     		str	r3, [sp]
 5026 0130 3B68     		ldr	r3, [r7]
 5027 0132 0022     		movs	r2, #0
 5028 0134 2021     		movs	r1, #32
 5029 0136 F868     		ldr	r0, [r7, #12]
 5030 0138 FFF7FEFF 		bl	I2C_WaitOnFlagUntilTimeout
 5031 013c 0346     		mov	r3, r0
 5032 013e 002B     		cmp	r3, #0
 5033 0140 01D0     		beq	.L254
2521:Drivers/STM32F3xx_HAL_Driver/Src/stm32f3xx_hal_i2c.c ****         {
2522:Drivers/STM32F3xx_HAL_Driver/Src/stm32f3xx_hal_i2c.c ****           return HAL_TIMEOUT;
 5034              		.loc 1 2522 0
 5035 0142 0323     		movs	r3, #3
 5036 0144 36E0     		b	.L244
 5037              	.L254:
2523:Drivers/STM32F3xx_HAL_Driver/Src/stm32f3xx_hal_i2c.c ****         }
2524:Drivers/STM32F3xx_HAL_Driver/Src/stm32f3xx_hal_i2c.c **** 
2525:Drivers/STM32F3xx_HAL_Driver/Src/stm32f3xx_hal_i2c.c ****         /* Clear NACK Flag */
2526:Drivers/STM32F3xx_HAL_Driver/Src/stm32f3xx_hal_i2c.c ****         __HAL_I2C_CLEAR_FLAG(hi2c, I2C_FLAG_AF);
 5038              		.loc 1 2526 0
ARM GAS  /tmp/ccy0jiyr.s 			page 133


 5039 0146 FB68     		ldr	r3, [r7, #12]
 5040 0148 1B68     		ldr	r3, [r3]
 5041 014a 1022     		movs	r2, #16
 5042 014c DA61     		str	r2, [r3, #28]
2527:Drivers/STM32F3xx_HAL_Driver/Src/stm32f3xx_hal_i2c.c **** 
2528:Drivers/STM32F3xx_HAL_Driver/Src/stm32f3xx_hal_i2c.c ****         /* Clear STOP Flag, auto generated with autoend*/
2529:Drivers/STM32F3xx_HAL_Driver/Src/stm32f3xx_hal_i2c.c ****         __HAL_I2C_CLEAR_FLAG(hi2c, I2C_FLAG_STOPF);
 5043              		.loc 1 2529 0
 5044 014e FB68     		ldr	r3, [r7, #12]
 5045 0150 1B68     		ldr	r3, [r3]
 5046 0152 2022     		movs	r2, #32
 5047 0154 DA61     		str	r2, [r3, #28]
2530:Drivers/STM32F3xx_HAL_Driver/Src/stm32f3xx_hal_i2c.c ****       }
2531:Drivers/STM32F3xx_HAL_Driver/Src/stm32f3xx_hal_i2c.c **** 
2532:Drivers/STM32F3xx_HAL_Driver/Src/stm32f3xx_hal_i2c.c ****       /* Check if the maximum allowed number of trials has been reached */
2533:Drivers/STM32F3xx_HAL_Driver/Src/stm32f3xx_hal_i2c.c ****       if (I2C_Trials++ == Trials)
 5048              		.loc 1 2533 0
 5049 0156 3B69     		ldr	r3, [r7, #16]
 5050 0158 5A1C     		adds	r2, r3, #1
 5051 015a 3A61     		str	r2, [r7, #16]
 5052 015c 7A68     		ldr	r2, [r7, #4]
 5053 015e 9A42     		cmp	r2, r3
 5054 0160 18D1     		bne	.L255
2534:Drivers/STM32F3xx_HAL_Driver/Src/stm32f3xx_hal_i2c.c ****       {
2535:Drivers/STM32F3xx_HAL_Driver/Src/stm32f3xx_hal_i2c.c ****         /* Generate Stop */
2536:Drivers/STM32F3xx_HAL_Driver/Src/stm32f3xx_hal_i2c.c ****         hi2c->Instance->CR2 |= I2C_CR2_STOP;
 5055              		.loc 1 2536 0
 5056 0162 FB68     		ldr	r3, [r7, #12]
 5057 0164 1B68     		ldr	r3, [r3]
 5058 0166 5A68     		ldr	r2, [r3, #4]
 5059 0168 FB68     		ldr	r3, [r7, #12]
 5060 016a 1B68     		ldr	r3, [r3]
 5061 016c 42F48042 		orr	r2, r2, #16384
 5062 0170 5A60     		str	r2, [r3, #4]
2537:Drivers/STM32F3xx_HAL_Driver/Src/stm32f3xx_hal_i2c.c **** 
2538:Drivers/STM32F3xx_HAL_Driver/Src/stm32f3xx_hal_i2c.c ****         /* Wait until STOPF flag is reset */
2539:Drivers/STM32F3xx_HAL_Driver/Src/stm32f3xx_hal_i2c.c ****         if (I2C_WaitOnFlagUntilTimeout(hi2c, I2C_FLAG_STOPF, RESET, Timeout, tickstart) != HAL_OK)
 5063              		.loc 1 2539 0
 5064 0172 7B69     		ldr	r3, [r7, #20]
 5065 0174 0093     		str	r3, [sp]
 5066 0176 3B68     		ldr	r3, [r7]
 5067 0178 0022     		movs	r2, #0
 5068 017a 2021     		movs	r1, #32
 5069 017c F868     		ldr	r0, [r7, #12]
 5070 017e FFF7FEFF 		bl	I2C_WaitOnFlagUntilTimeout
 5071 0182 0346     		mov	r3, r0
 5072 0184 002B     		cmp	r3, #0
 5073 0186 01D0     		beq	.L256
2540:Drivers/STM32F3xx_HAL_Driver/Src/stm32f3xx_hal_i2c.c ****         {
2541:Drivers/STM32F3xx_HAL_Driver/Src/stm32f3xx_hal_i2c.c ****           return HAL_TIMEOUT;
 5074              		.loc 1 2541 0
 5075 0188 0323     		movs	r3, #3
 5076 018a 13E0     		b	.L244
 5077              	.L256:
2542:Drivers/STM32F3xx_HAL_Driver/Src/stm32f3xx_hal_i2c.c ****         }
2543:Drivers/STM32F3xx_HAL_Driver/Src/stm32f3xx_hal_i2c.c **** 
2544:Drivers/STM32F3xx_HAL_Driver/Src/stm32f3xx_hal_i2c.c ****         /* Clear STOP Flag */
ARM GAS  /tmp/ccy0jiyr.s 			page 134


2545:Drivers/STM32F3xx_HAL_Driver/Src/stm32f3xx_hal_i2c.c ****         __HAL_I2C_CLEAR_FLAG(hi2c, I2C_FLAG_STOPF);
 5078              		.loc 1 2545 0
 5079 018c FB68     		ldr	r3, [r7, #12]
 5080 018e 1B68     		ldr	r3, [r3]
 5081 0190 2022     		movs	r2, #32
 5082 0192 DA61     		str	r2, [r3, #28]
 5083              	.L255:
2546:Drivers/STM32F3xx_HAL_Driver/Src/stm32f3xx_hal_i2c.c ****       }
2547:Drivers/STM32F3xx_HAL_Driver/Src/stm32f3xx_hal_i2c.c ****     }
2548:Drivers/STM32F3xx_HAL_Driver/Src/stm32f3xx_hal_i2c.c ****     while (I2C_Trials < Trials);
 5084              		.loc 1 2548 0
 5085 0194 3B69     		ldr	r3, [r7, #16]
 5086 0196 7A68     		ldr	r2, [r7, #4]
 5087 0198 9A42     		cmp	r2, r3
 5088 019a 3FF660AF 		bhi	.L257
2549:Drivers/STM32F3xx_HAL_Driver/Src/stm32f3xx_hal_i2c.c **** 
2550:Drivers/STM32F3xx_HAL_Driver/Src/stm32f3xx_hal_i2c.c ****     hi2c->State = HAL_I2C_STATE_READY;
 5089              		.loc 1 2550 0
 5090 019e FB68     		ldr	r3, [r7, #12]
 5091 01a0 2022     		movs	r2, #32
 5092 01a2 83F84120 		strb	r2, [r3, #65]
2551:Drivers/STM32F3xx_HAL_Driver/Src/stm32f3xx_hal_i2c.c **** 
2552:Drivers/STM32F3xx_HAL_Driver/Src/stm32f3xx_hal_i2c.c ****     /* Process Unlocked */
2553:Drivers/STM32F3xx_HAL_Driver/Src/stm32f3xx_hal_i2c.c ****     __HAL_UNLOCK(hi2c);
 5093              		.loc 1 2553 0
 5094 01a6 FB68     		ldr	r3, [r7, #12]
 5095 01a8 0022     		movs	r2, #0
 5096 01aa 83F84020 		strb	r2, [r3, #64]
2554:Drivers/STM32F3xx_HAL_Driver/Src/stm32f3xx_hal_i2c.c **** 
2555:Drivers/STM32F3xx_HAL_Driver/Src/stm32f3xx_hal_i2c.c ****     return HAL_TIMEOUT;
 5097              		.loc 1 2555 0
 5098 01ae 0323     		movs	r3, #3
 5099 01b0 00E0     		b	.L244
 5100              	.L242:
2556:Drivers/STM32F3xx_HAL_Driver/Src/stm32f3xx_hal_i2c.c ****   }
2557:Drivers/STM32F3xx_HAL_Driver/Src/stm32f3xx_hal_i2c.c ****   else
2558:Drivers/STM32F3xx_HAL_Driver/Src/stm32f3xx_hal_i2c.c ****   {
2559:Drivers/STM32F3xx_HAL_Driver/Src/stm32f3xx_hal_i2c.c ****     return HAL_BUSY;
 5101              		.loc 1 2559 0
 5102 01b2 0223     		movs	r3, #2
 5103              	.L244:
2560:Drivers/STM32F3xx_HAL_Driver/Src/stm32f3xx_hal_i2c.c ****   }
2561:Drivers/STM32F3xx_HAL_Driver/Src/stm32f3xx_hal_i2c.c **** }
 5104              		.loc 1 2561 0
 5105 01b4 1846     		mov	r0, r3
 5106 01b6 1837     		adds	r7, r7, #24
 5107              	.LCFI115:
 5108              		.cfi_def_cfa_offset 8
 5109 01b8 BD46     		mov	sp, r7
 5110              	.LCFI116:
 5111              		.cfi_def_cfa_register 13
 5112              		@ sp needed
 5113 01ba 80BD     		pop	{r7, pc}
 5114              		.cfi_endproc
 5115              	.LFE717:
 5117              		.section	.text.HAL_I2C_Master_Sequential_Transmit_IT,"ax",%progbits
 5118              		.align	1
ARM GAS  /tmp/ccy0jiyr.s 			page 135


 5119              		.global	HAL_I2C_Master_Sequential_Transmit_IT
 5120              		.syntax unified
 5121              		.thumb
 5122              		.thumb_func
 5123              		.fpu fpv4-sp-d16
 5125              	HAL_I2C_Master_Sequential_Transmit_IT:
 5126              	.LFB718:
2562:Drivers/STM32F3xx_HAL_Driver/Src/stm32f3xx_hal_i2c.c **** 
2563:Drivers/STM32F3xx_HAL_Driver/Src/stm32f3xx_hal_i2c.c **** /**
2564:Drivers/STM32F3xx_HAL_Driver/Src/stm32f3xx_hal_i2c.c ****   * @brief  Sequential transmit in master I2C mode an amount of data in non-blocking mode with Inte
2565:Drivers/STM32F3xx_HAL_Driver/Src/stm32f3xx_hal_i2c.c ****   * @note   This interface allow to manage repeated start condition when a direction change during 
2566:Drivers/STM32F3xx_HAL_Driver/Src/stm32f3xx_hal_i2c.c ****   * @param  hi2c Pointer to a I2C_HandleTypeDef structure that contains
2567:Drivers/STM32F3xx_HAL_Driver/Src/stm32f3xx_hal_i2c.c ****   *                the configuration information for the specified I2C.
2568:Drivers/STM32F3xx_HAL_Driver/Src/stm32f3xx_hal_i2c.c ****   * @param  DevAddress Target device address: The device 7 bits address value
2569:Drivers/STM32F3xx_HAL_Driver/Src/stm32f3xx_hal_i2c.c ****   *         in datasheet must be shift at right before call interface
2570:Drivers/STM32F3xx_HAL_Driver/Src/stm32f3xx_hal_i2c.c ****   * @param  pData Pointer to data buffer
2571:Drivers/STM32F3xx_HAL_Driver/Src/stm32f3xx_hal_i2c.c ****   * @param  Size Amount of data to be sent
2572:Drivers/STM32F3xx_HAL_Driver/Src/stm32f3xx_hal_i2c.c ****   * @param  XferOptions Options of Transfer, value of @ref I2C_XFEROPTIONS
2573:Drivers/STM32F3xx_HAL_Driver/Src/stm32f3xx_hal_i2c.c ****   * @retval HAL status
2574:Drivers/STM32F3xx_HAL_Driver/Src/stm32f3xx_hal_i2c.c ****   */
2575:Drivers/STM32F3xx_HAL_Driver/Src/stm32f3xx_hal_i2c.c **** HAL_StatusTypeDef HAL_I2C_Master_Sequential_Transmit_IT(I2C_HandleTypeDef *hi2c, uint16_t DevAddres
2576:Drivers/STM32F3xx_HAL_Driver/Src/stm32f3xx_hal_i2c.c **** {
 5127              		.loc 1 2576 0
 5128              		.cfi_startproc
 5129              		@ args = 4, pretend = 0, frame = 24
 5130              		@ frame_needed = 1, uses_anonymous_args = 0
 5131 0000 80B5     		push	{r7, lr}
 5132              	.LCFI117:
 5133              		.cfi_def_cfa_offset 8
 5134              		.cfi_offset 7, -8
 5135              		.cfi_offset 14, -4
 5136 0002 88B0     		sub	sp, sp, #32
 5137              	.LCFI118:
 5138              		.cfi_def_cfa_offset 40
 5139 0004 02AF     		add	r7, sp, #8
 5140              	.LCFI119:
 5141              		.cfi_def_cfa 7, 32
 5142 0006 F860     		str	r0, [r7, #12]
 5143 0008 7A60     		str	r2, [r7, #4]
 5144 000a 1A46     		mov	r2, r3
 5145 000c 0B46     		mov	r3, r1	@ movhi
 5146 000e 7B81     		strh	r3, [r7, #10]	@ movhi
 5147 0010 1346     		mov	r3, r2	@ movhi
 5148 0012 3B81     		strh	r3, [r7, #8]	@ movhi
2577:Drivers/STM32F3xx_HAL_Driver/Src/stm32f3xx_hal_i2c.c ****   uint32_t xfermode = 0U;
 5149              		.loc 1 2577 0
 5150 0014 0023     		movs	r3, #0
 5151 0016 7B61     		str	r3, [r7, #20]
2578:Drivers/STM32F3xx_HAL_Driver/Src/stm32f3xx_hal_i2c.c ****   uint32_t xferrequest = I2C_GENERATE_START_WRITE;
 5152              		.loc 1 2578 0
 5153 0018 4FF40053 		mov	r3, #8192
 5154 001c 3B61     		str	r3, [r7, #16]
2579:Drivers/STM32F3xx_HAL_Driver/Src/stm32f3xx_hal_i2c.c **** 
2580:Drivers/STM32F3xx_HAL_Driver/Src/stm32f3xx_hal_i2c.c ****   /* Check the parameters */
2581:Drivers/STM32F3xx_HAL_Driver/Src/stm32f3xx_hal_i2c.c ****   assert_param(IS_I2C_TRANSFER_OPTIONS_REQUEST(XferOptions));
2582:Drivers/STM32F3xx_HAL_Driver/Src/stm32f3xx_hal_i2c.c **** 
2583:Drivers/STM32F3xx_HAL_Driver/Src/stm32f3xx_hal_i2c.c ****   if (hi2c->State == HAL_I2C_STATE_READY)
ARM GAS  /tmp/ccy0jiyr.s 			page 136


 5155              		.loc 1 2583 0
 5156 001e FB68     		ldr	r3, [r7, #12]
 5157 0020 93F84130 		ldrb	r3, [r3, #65]
 5158 0024 DBB2     		uxtb	r3, r3
 5159 0026 202B     		cmp	r3, #32
 5160 0028 4FD1     		bne	.L259
2584:Drivers/STM32F3xx_HAL_Driver/Src/stm32f3xx_hal_i2c.c ****   {
2585:Drivers/STM32F3xx_HAL_Driver/Src/stm32f3xx_hal_i2c.c ****     /* Process Locked */
2586:Drivers/STM32F3xx_HAL_Driver/Src/stm32f3xx_hal_i2c.c ****     __HAL_LOCK(hi2c);
 5161              		.loc 1 2586 0
 5162 002a FB68     		ldr	r3, [r7, #12]
 5163 002c 93F84030 		ldrb	r3, [r3, #64]	@ zero_extendqisi2
 5164 0030 012B     		cmp	r3, #1
 5165 0032 01D1     		bne	.L260
 5166              		.loc 1 2586 0 is_stmt 0 discriminator 1
 5167 0034 0223     		movs	r3, #2
 5168 0036 49E0     		b	.L261
 5169              	.L260:
 5170              		.loc 1 2586 0 discriminator 2
 5171 0038 FB68     		ldr	r3, [r7, #12]
 5172 003a 0122     		movs	r2, #1
 5173 003c 83F84020 		strb	r2, [r3, #64]
2587:Drivers/STM32F3xx_HAL_Driver/Src/stm32f3xx_hal_i2c.c **** 
2588:Drivers/STM32F3xx_HAL_Driver/Src/stm32f3xx_hal_i2c.c ****     hi2c->State     = HAL_I2C_STATE_BUSY_TX;
 5174              		.loc 1 2588 0 is_stmt 1 discriminator 2
 5175 0040 FB68     		ldr	r3, [r7, #12]
 5176 0042 2122     		movs	r2, #33
 5177 0044 83F84120 		strb	r2, [r3, #65]
2589:Drivers/STM32F3xx_HAL_Driver/Src/stm32f3xx_hal_i2c.c ****     hi2c->Mode      = HAL_I2C_MODE_MASTER;
 5178              		.loc 1 2589 0 discriminator 2
 5179 0048 FB68     		ldr	r3, [r7, #12]
 5180 004a 1022     		movs	r2, #16
 5181 004c 83F84220 		strb	r2, [r3, #66]
2590:Drivers/STM32F3xx_HAL_Driver/Src/stm32f3xx_hal_i2c.c ****     hi2c->ErrorCode = HAL_I2C_ERROR_NONE;
 5182              		.loc 1 2590 0 discriminator 2
 5183 0050 FB68     		ldr	r3, [r7, #12]
 5184 0052 0022     		movs	r2, #0
 5185 0054 5A64     		str	r2, [r3, #68]
2591:Drivers/STM32F3xx_HAL_Driver/Src/stm32f3xx_hal_i2c.c **** 
2592:Drivers/STM32F3xx_HAL_Driver/Src/stm32f3xx_hal_i2c.c ****     /* Prepare transfer parameters */
2593:Drivers/STM32F3xx_HAL_Driver/Src/stm32f3xx_hal_i2c.c ****     hi2c->pBuffPtr    = pData;
 5186              		.loc 1 2593 0 discriminator 2
 5187 0056 FB68     		ldr	r3, [r7, #12]
 5188 0058 7A68     		ldr	r2, [r7, #4]
 5189 005a 5A62     		str	r2, [r3, #36]
2594:Drivers/STM32F3xx_HAL_Driver/Src/stm32f3xx_hal_i2c.c ****     hi2c->XferCount   = Size;
 5190              		.loc 1 2594 0 discriminator 2
 5191 005c FB68     		ldr	r3, [r7, #12]
 5192 005e 3A89     		ldrh	r2, [r7, #8]	@ movhi
 5193 0060 5A85     		strh	r2, [r3, #42]	@ movhi
2595:Drivers/STM32F3xx_HAL_Driver/Src/stm32f3xx_hal_i2c.c ****     hi2c->XferOptions = XferOptions;
 5194              		.loc 1 2595 0 discriminator 2
 5195 0062 FB68     		ldr	r3, [r7, #12]
 5196 0064 3A6A     		ldr	r2, [r7, #32]
 5197 0066 DA62     		str	r2, [r3, #44]
2596:Drivers/STM32F3xx_HAL_Driver/Src/stm32f3xx_hal_i2c.c ****     hi2c->XferISR     = I2C_Master_ISR_IT;
 5198              		.loc 1 2596 0 discriminator 2
ARM GAS  /tmp/ccy0jiyr.s 			page 137


 5199 0068 FB68     		ldr	r3, [r7, #12]
 5200 006a 1A4A     		ldr	r2, .L265
 5201 006c 5A63     		str	r2, [r3, #52]
2597:Drivers/STM32F3xx_HAL_Driver/Src/stm32f3xx_hal_i2c.c **** 
2598:Drivers/STM32F3xx_HAL_Driver/Src/stm32f3xx_hal_i2c.c ****     /* If size > MAX_NBYTE_SIZE, use reload mode */
2599:Drivers/STM32F3xx_HAL_Driver/Src/stm32f3xx_hal_i2c.c ****     if (hi2c->XferCount > MAX_NBYTE_SIZE)
 5202              		.loc 1 2599 0 discriminator 2
 5203 006e FB68     		ldr	r3, [r7, #12]
 5204 0070 5B8D     		ldrh	r3, [r3, #42]	@ movhi
 5205 0072 9BB2     		uxth	r3, r3
 5206 0074 FF2B     		cmp	r3, #255
 5207 0076 06D9     		bls	.L262
2600:Drivers/STM32F3xx_HAL_Driver/Src/stm32f3xx_hal_i2c.c ****     {
2601:Drivers/STM32F3xx_HAL_Driver/Src/stm32f3xx_hal_i2c.c ****       hi2c->XferSize = MAX_NBYTE_SIZE;
 5208              		.loc 1 2601 0
 5209 0078 FB68     		ldr	r3, [r7, #12]
 5210 007a FF22     		movs	r2, #255
 5211 007c 1A85     		strh	r2, [r3, #40]	@ movhi
2602:Drivers/STM32F3xx_HAL_Driver/Src/stm32f3xx_hal_i2c.c ****       xfermode = I2C_RELOAD_MODE;
 5212              		.loc 1 2602 0
 5213 007e 4FF08073 		mov	r3, #16777216
 5214 0082 7B61     		str	r3, [r7, #20]
 5215 0084 07E0     		b	.L263
 5216              	.L262:
2603:Drivers/STM32F3xx_HAL_Driver/Src/stm32f3xx_hal_i2c.c ****     }
2604:Drivers/STM32F3xx_HAL_Driver/Src/stm32f3xx_hal_i2c.c ****     else
2605:Drivers/STM32F3xx_HAL_Driver/Src/stm32f3xx_hal_i2c.c ****     {
2606:Drivers/STM32F3xx_HAL_Driver/Src/stm32f3xx_hal_i2c.c ****       hi2c->XferSize = hi2c->XferCount;
 5217              		.loc 1 2606 0
 5218 0086 FB68     		ldr	r3, [r7, #12]
 5219 0088 5B8D     		ldrh	r3, [r3, #42]	@ movhi
 5220 008a 9AB2     		uxth	r2, r3
 5221 008c FB68     		ldr	r3, [r7, #12]
 5222 008e 1A85     		strh	r2, [r3, #40]	@ movhi
2607:Drivers/STM32F3xx_HAL_Driver/Src/stm32f3xx_hal_i2c.c ****       xfermode = hi2c->XferOptions;
 5223              		.loc 1 2607 0
 5224 0090 FB68     		ldr	r3, [r7, #12]
 5225 0092 DB6A     		ldr	r3, [r3, #44]
 5226 0094 7B61     		str	r3, [r7, #20]
 5227              	.L263:
2608:Drivers/STM32F3xx_HAL_Driver/Src/stm32f3xx_hal_i2c.c ****     }
2609:Drivers/STM32F3xx_HAL_Driver/Src/stm32f3xx_hal_i2c.c **** 
2610:Drivers/STM32F3xx_HAL_Driver/Src/stm32f3xx_hal_i2c.c ****     /* If transfer direction not change, do not generate Restart Condition */
2611:Drivers/STM32F3xx_HAL_Driver/Src/stm32f3xx_hal_i2c.c ****     /* Mean Previous state is same as current state */
2612:Drivers/STM32F3xx_HAL_Driver/Src/stm32f3xx_hal_i2c.c ****     if (hi2c->PreviousState == I2C_STATE_MASTER_BUSY_TX)
 5228              		.loc 1 2612 0
 5229 0096 FB68     		ldr	r3, [r7, #12]
 5230 0098 1B6B     		ldr	r3, [r3, #48]
 5231 009a 112B     		cmp	r3, #17
 5232 009c 01D1     		bne	.L264
2613:Drivers/STM32F3xx_HAL_Driver/Src/stm32f3xx_hal_i2c.c ****     {
2614:Drivers/STM32F3xx_HAL_Driver/Src/stm32f3xx_hal_i2c.c ****       xferrequest = I2C_NO_STARTSTOP;
 5233              		.loc 1 2614 0
 5234 009e 0023     		movs	r3, #0
 5235 00a0 3B61     		str	r3, [r7, #16]
 5236              	.L264:
2615:Drivers/STM32F3xx_HAL_Driver/Src/stm32f3xx_hal_i2c.c ****     }
ARM GAS  /tmp/ccy0jiyr.s 			page 138


2616:Drivers/STM32F3xx_HAL_Driver/Src/stm32f3xx_hal_i2c.c **** 
2617:Drivers/STM32F3xx_HAL_Driver/Src/stm32f3xx_hal_i2c.c ****     /* Send Slave Address and set NBYTES to write */
2618:Drivers/STM32F3xx_HAL_Driver/Src/stm32f3xx_hal_i2c.c ****     I2C_TransferConfig(hi2c, DevAddress, hi2c->XferSize, xfermode, xferrequest);
 5237              		.loc 1 2618 0
 5238 00a2 FB68     		ldr	r3, [r7, #12]
 5239 00a4 1B8D     		ldrh	r3, [r3, #40]
 5240 00a6 DAB2     		uxtb	r2, r3
 5241 00a8 7989     		ldrh	r1, [r7, #10]
 5242 00aa 3B69     		ldr	r3, [r7, #16]
 5243 00ac 0093     		str	r3, [sp]
 5244 00ae 7B69     		ldr	r3, [r7, #20]
 5245 00b0 F868     		ldr	r0, [r7, #12]
 5246 00b2 FFF7FEFF 		bl	I2C_TransferConfig
2619:Drivers/STM32F3xx_HAL_Driver/Src/stm32f3xx_hal_i2c.c **** 
2620:Drivers/STM32F3xx_HAL_Driver/Src/stm32f3xx_hal_i2c.c ****     /* Process Unlocked */
2621:Drivers/STM32F3xx_HAL_Driver/Src/stm32f3xx_hal_i2c.c ****     __HAL_UNLOCK(hi2c);
 5247              		.loc 1 2621 0
 5248 00b6 FB68     		ldr	r3, [r7, #12]
 5249 00b8 0022     		movs	r2, #0
 5250 00ba 83F84020 		strb	r2, [r3, #64]
2622:Drivers/STM32F3xx_HAL_Driver/Src/stm32f3xx_hal_i2c.c **** 
2623:Drivers/STM32F3xx_HAL_Driver/Src/stm32f3xx_hal_i2c.c ****     /* Note : The I2C interrupts must be enabled after unlocking current process
2624:Drivers/STM32F3xx_HAL_Driver/Src/stm32f3xx_hal_i2c.c ****               to avoid the risk of I2C interrupt handle execution before current
2625:Drivers/STM32F3xx_HAL_Driver/Src/stm32f3xx_hal_i2c.c ****               process unlock */
2626:Drivers/STM32F3xx_HAL_Driver/Src/stm32f3xx_hal_i2c.c ****     I2C_Enable_IRQ(hi2c, I2C_XFER_TX_IT);
 5251              		.loc 1 2626 0
 5252 00be 0121     		movs	r1, #1
 5253 00c0 F868     		ldr	r0, [r7, #12]
 5254 00c2 FFF7FEFF 		bl	I2C_Enable_IRQ
2627:Drivers/STM32F3xx_HAL_Driver/Src/stm32f3xx_hal_i2c.c **** 
2628:Drivers/STM32F3xx_HAL_Driver/Src/stm32f3xx_hal_i2c.c ****     return HAL_OK;
 5255              		.loc 1 2628 0
 5256 00c6 0023     		movs	r3, #0
 5257 00c8 00E0     		b	.L261
 5258              	.L259:
2629:Drivers/STM32F3xx_HAL_Driver/Src/stm32f3xx_hal_i2c.c ****   }
2630:Drivers/STM32F3xx_HAL_Driver/Src/stm32f3xx_hal_i2c.c ****   else
2631:Drivers/STM32F3xx_HAL_Driver/Src/stm32f3xx_hal_i2c.c ****   {
2632:Drivers/STM32F3xx_HAL_Driver/Src/stm32f3xx_hal_i2c.c ****     return HAL_BUSY;
 5259              		.loc 1 2632 0
 5260 00ca 0223     		movs	r3, #2
 5261              	.L261:
2633:Drivers/STM32F3xx_HAL_Driver/Src/stm32f3xx_hal_i2c.c ****   }
2634:Drivers/STM32F3xx_HAL_Driver/Src/stm32f3xx_hal_i2c.c **** }
 5262              		.loc 1 2634 0
 5263 00cc 1846     		mov	r0, r3
 5264 00ce 1837     		adds	r7, r7, #24
 5265              	.LCFI120:
 5266              		.cfi_def_cfa_offset 8
 5267 00d0 BD46     		mov	sp, r7
 5268              	.LCFI121:
 5269              		.cfi_def_cfa_register 13
 5270              		@ sp needed
 5271 00d2 80BD     		pop	{r7, pc}
 5272              	.L266:
 5273              		.align	2
 5274              	.L265:
ARM GAS  /tmp/ccy0jiyr.s 			page 139


 5275 00d4 00000000 		.word	I2C_Master_ISR_IT
 5276              		.cfi_endproc
 5277              	.LFE718:
 5279              		.section	.text.HAL_I2C_Master_Sequential_Receive_IT,"ax",%progbits
 5280              		.align	1
 5281              		.global	HAL_I2C_Master_Sequential_Receive_IT
 5282              		.syntax unified
 5283              		.thumb
 5284              		.thumb_func
 5285              		.fpu fpv4-sp-d16
 5287              	HAL_I2C_Master_Sequential_Receive_IT:
 5288              	.LFB719:
2635:Drivers/STM32F3xx_HAL_Driver/Src/stm32f3xx_hal_i2c.c **** 
2636:Drivers/STM32F3xx_HAL_Driver/Src/stm32f3xx_hal_i2c.c **** /**
2637:Drivers/STM32F3xx_HAL_Driver/Src/stm32f3xx_hal_i2c.c ****   * @brief  Sequential receive in master I2C mode an amount of data in non-blocking mode with Inter
2638:Drivers/STM32F3xx_HAL_Driver/Src/stm32f3xx_hal_i2c.c ****   * @note   This interface allow to manage repeated start condition when a direction change during 
2639:Drivers/STM32F3xx_HAL_Driver/Src/stm32f3xx_hal_i2c.c ****   * @param  hi2c Pointer to a I2C_HandleTypeDef structure that contains
2640:Drivers/STM32F3xx_HAL_Driver/Src/stm32f3xx_hal_i2c.c ****   *                the configuration information for the specified I2C.
2641:Drivers/STM32F3xx_HAL_Driver/Src/stm32f3xx_hal_i2c.c ****   * @param  DevAddress Target device address: The device 7 bits address value
2642:Drivers/STM32F3xx_HAL_Driver/Src/stm32f3xx_hal_i2c.c ****   *         in datasheet must be shift at right before call interface
2643:Drivers/STM32F3xx_HAL_Driver/Src/stm32f3xx_hal_i2c.c ****   * @param  pData Pointer to data buffer
2644:Drivers/STM32F3xx_HAL_Driver/Src/stm32f3xx_hal_i2c.c ****   * @param  Size Amount of data to be sent
2645:Drivers/STM32F3xx_HAL_Driver/Src/stm32f3xx_hal_i2c.c ****   * @param  XferOptions Options of Transfer, value of @ref I2C_XFEROPTIONS
2646:Drivers/STM32F3xx_HAL_Driver/Src/stm32f3xx_hal_i2c.c ****   * @retval HAL status
2647:Drivers/STM32F3xx_HAL_Driver/Src/stm32f3xx_hal_i2c.c ****   */
2648:Drivers/STM32F3xx_HAL_Driver/Src/stm32f3xx_hal_i2c.c **** HAL_StatusTypeDef HAL_I2C_Master_Sequential_Receive_IT(I2C_HandleTypeDef *hi2c, uint16_t DevAddress
2649:Drivers/STM32F3xx_HAL_Driver/Src/stm32f3xx_hal_i2c.c **** {
 5289              		.loc 1 2649 0
 5290              		.cfi_startproc
 5291              		@ args = 4, pretend = 0, frame = 24
 5292              		@ frame_needed = 1, uses_anonymous_args = 0
 5293 0000 80B5     		push	{r7, lr}
 5294              	.LCFI122:
 5295              		.cfi_def_cfa_offset 8
 5296              		.cfi_offset 7, -8
 5297              		.cfi_offset 14, -4
 5298 0002 88B0     		sub	sp, sp, #32
 5299              	.LCFI123:
 5300              		.cfi_def_cfa_offset 40
 5301 0004 02AF     		add	r7, sp, #8
 5302              	.LCFI124:
 5303              		.cfi_def_cfa 7, 32
 5304 0006 F860     		str	r0, [r7, #12]
 5305 0008 7A60     		str	r2, [r7, #4]
 5306 000a 1A46     		mov	r2, r3
 5307 000c 0B46     		mov	r3, r1	@ movhi
 5308 000e 7B81     		strh	r3, [r7, #10]	@ movhi
 5309 0010 1346     		mov	r3, r2	@ movhi
 5310 0012 3B81     		strh	r3, [r7, #8]	@ movhi
2650:Drivers/STM32F3xx_HAL_Driver/Src/stm32f3xx_hal_i2c.c ****   uint32_t xfermode = 0U;
 5311              		.loc 1 2650 0
 5312 0014 0023     		movs	r3, #0
 5313 0016 7B61     		str	r3, [r7, #20]
2651:Drivers/STM32F3xx_HAL_Driver/Src/stm32f3xx_hal_i2c.c ****   uint32_t xferrequest = I2C_GENERATE_START_READ;
 5314              		.loc 1 2651 0
 5315 0018 4FF41053 		mov	r3, #9216
 5316 001c 3B61     		str	r3, [r7, #16]
ARM GAS  /tmp/ccy0jiyr.s 			page 140


2652:Drivers/STM32F3xx_HAL_Driver/Src/stm32f3xx_hal_i2c.c **** 
2653:Drivers/STM32F3xx_HAL_Driver/Src/stm32f3xx_hal_i2c.c ****   /* Check the parameters */
2654:Drivers/STM32F3xx_HAL_Driver/Src/stm32f3xx_hal_i2c.c ****   assert_param(IS_I2C_TRANSFER_OPTIONS_REQUEST(XferOptions));
2655:Drivers/STM32F3xx_HAL_Driver/Src/stm32f3xx_hal_i2c.c **** 
2656:Drivers/STM32F3xx_HAL_Driver/Src/stm32f3xx_hal_i2c.c ****   if (hi2c->State == HAL_I2C_STATE_READY)
 5317              		.loc 1 2656 0
 5318 001e FB68     		ldr	r3, [r7, #12]
 5319 0020 93F84130 		ldrb	r3, [r3, #65]
 5320 0024 DBB2     		uxtb	r3, r3
 5321 0026 202B     		cmp	r3, #32
 5322 0028 4FD1     		bne	.L268
2657:Drivers/STM32F3xx_HAL_Driver/Src/stm32f3xx_hal_i2c.c ****   {
2658:Drivers/STM32F3xx_HAL_Driver/Src/stm32f3xx_hal_i2c.c ****     /* Process Locked */
2659:Drivers/STM32F3xx_HAL_Driver/Src/stm32f3xx_hal_i2c.c ****     __HAL_LOCK(hi2c);
 5323              		.loc 1 2659 0
 5324 002a FB68     		ldr	r3, [r7, #12]
 5325 002c 93F84030 		ldrb	r3, [r3, #64]	@ zero_extendqisi2
 5326 0030 012B     		cmp	r3, #1
 5327 0032 01D1     		bne	.L269
 5328              		.loc 1 2659 0 is_stmt 0 discriminator 1
 5329 0034 0223     		movs	r3, #2
 5330 0036 49E0     		b	.L270
 5331              	.L269:
 5332              		.loc 1 2659 0 discriminator 2
 5333 0038 FB68     		ldr	r3, [r7, #12]
 5334 003a 0122     		movs	r2, #1
 5335 003c 83F84020 		strb	r2, [r3, #64]
2660:Drivers/STM32F3xx_HAL_Driver/Src/stm32f3xx_hal_i2c.c **** 
2661:Drivers/STM32F3xx_HAL_Driver/Src/stm32f3xx_hal_i2c.c ****     hi2c->State     = HAL_I2C_STATE_BUSY_RX;
 5336              		.loc 1 2661 0 is_stmt 1 discriminator 2
 5337 0040 FB68     		ldr	r3, [r7, #12]
 5338 0042 2222     		movs	r2, #34
 5339 0044 83F84120 		strb	r2, [r3, #65]
2662:Drivers/STM32F3xx_HAL_Driver/Src/stm32f3xx_hal_i2c.c ****     hi2c->Mode      = HAL_I2C_MODE_MASTER;
 5340              		.loc 1 2662 0 discriminator 2
 5341 0048 FB68     		ldr	r3, [r7, #12]
 5342 004a 1022     		movs	r2, #16
 5343 004c 83F84220 		strb	r2, [r3, #66]
2663:Drivers/STM32F3xx_HAL_Driver/Src/stm32f3xx_hal_i2c.c ****     hi2c->ErrorCode = HAL_I2C_ERROR_NONE;
 5344              		.loc 1 2663 0 discriminator 2
 5345 0050 FB68     		ldr	r3, [r7, #12]
 5346 0052 0022     		movs	r2, #0
 5347 0054 5A64     		str	r2, [r3, #68]
2664:Drivers/STM32F3xx_HAL_Driver/Src/stm32f3xx_hal_i2c.c **** 
2665:Drivers/STM32F3xx_HAL_Driver/Src/stm32f3xx_hal_i2c.c ****     /* Prepare transfer parameters */
2666:Drivers/STM32F3xx_HAL_Driver/Src/stm32f3xx_hal_i2c.c ****     hi2c->pBuffPtr    = pData;
 5348              		.loc 1 2666 0 discriminator 2
 5349 0056 FB68     		ldr	r3, [r7, #12]
 5350 0058 7A68     		ldr	r2, [r7, #4]
 5351 005a 5A62     		str	r2, [r3, #36]
2667:Drivers/STM32F3xx_HAL_Driver/Src/stm32f3xx_hal_i2c.c ****     hi2c->XferCount   = Size;
 5352              		.loc 1 2667 0 discriminator 2
 5353 005c FB68     		ldr	r3, [r7, #12]
 5354 005e 3A89     		ldrh	r2, [r7, #8]	@ movhi
 5355 0060 5A85     		strh	r2, [r3, #42]	@ movhi
2668:Drivers/STM32F3xx_HAL_Driver/Src/stm32f3xx_hal_i2c.c ****     hi2c->XferOptions = XferOptions;
 5356              		.loc 1 2668 0 discriminator 2
ARM GAS  /tmp/ccy0jiyr.s 			page 141


 5357 0062 FB68     		ldr	r3, [r7, #12]
 5358 0064 3A6A     		ldr	r2, [r7, #32]
 5359 0066 DA62     		str	r2, [r3, #44]
2669:Drivers/STM32F3xx_HAL_Driver/Src/stm32f3xx_hal_i2c.c ****     hi2c->XferISR     = I2C_Master_ISR_IT;
 5360              		.loc 1 2669 0 discriminator 2
 5361 0068 FB68     		ldr	r3, [r7, #12]
 5362 006a 1A4A     		ldr	r2, .L274
 5363 006c 5A63     		str	r2, [r3, #52]
2670:Drivers/STM32F3xx_HAL_Driver/Src/stm32f3xx_hal_i2c.c **** 
2671:Drivers/STM32F3xx_HAL_Driver/Src/stm32f3xx_hal_i2c.c ****     /* If hi2c->XferCount > MAX_NBYTE_SIZE, use reload mode */
2672:Drivers/STM32F3xx_HAL_Driver/Src/stm32f3xx_hal_i2c.c ****     if (hi2c->XferCount > MAX_NBYTE_SIZE)
 5364              		.loc 1 2672 0 discriminator 2
 5365 006e FB68     		ldr	r3, [r7, #12]
 5366 0070 5B8D     		ldrh	r3, [r3, #42]	@ movhi
 5367 0072 9BB2     		uxth	r3, r3
 5368 0074 FF2B     		cmp	r3, #255
 5369 0076 06D9     		bls	.L271
2673:Drivers/STM32F3xx_HAL_Driver/Src/stm32f3xx_hal_i2c.c ****     {
2674:Drivers/STM32F3xx_HAL_Driver/Src/stm32f3xx_hal_i2c.c ****       hi2c->XferSize = MAX_NBYTE_SIZE;
 5370              		.loc 1 2674 0
 5371 0078 FB68     		ldr	r3, [r7, #12]
 5372 007a FF22     		movs	r2, #255
 5373 007c 1A85     		strh	r2, [r3, #40]	@ movhi
2675:Drivers/STM32F3xx_HAL_Driver/Src/stm32f3xx_hal_i2c.c ****       xfermode = I2C_RELOAD_MODE;
 5374              		.loc 1 2675 0
 5375 007e 4FF08073 		mov	r3, #16777216
 5376 0082 7B61     		str	r3, [r7, #20]
 5377 0084 07E0     		b	.L272
 5378              	.L271:
2676:Drivers/STM32F3xx_HAL_Driver/Src/stm32f3xx_hal_i2c.c ****     }
2677:Drivers/STM32F3xx_HAL_Driver/Src/stm32f3xx_hal_i2c.c ****     else
2678:Drivers/STM32F3xx_HAL_Driver/Src/stm32f3xx_hal_i2c.c ****     {
2679:Drivers/STM32F3xx_HAL_Driver/Src/stm32f3xx_hal_i2c.c ****       hi2c->XferSize = hi2c->XferCount;
 5379              		.loc 1 2679 0
 5380 0086 FB68     		ldr	r3, [r7, #12]
 5381 0088 5B8D     		ldrh	r3, [r3, #42]	@ movhi
 5382 008a 9AB2     		uxth	r2, r3
 5383 008c FB68     		ldr	r3, [r7, #12]
 5384 008e 1A85     		strh	r2, [r3, #40]	@ movhi
2680:Drivers/STM32F3xx_HAL_Driver/Src/stm32f3xx_hal_i2c.c ****       xfermode = hi2c->XferOptions;
 5385              		.loc 1 2680 0
 5386 0090 FB68     		ldr	r3, [r7, #12]
 5387 0092 DB6A     		ldr	r3, [r3, #44]
 5388 0094 7B61     		str	r3, [r7, #20]
 5389              	.L272:
2681:Drivers/STM32F3xx_HAL_Driver/Src/stm32f3xx_hal_i2c.c ****     }
2682:Drivers/STM32F3xx_HAL_Driver/Src/stm32f3xx_hal_i2c.c **** 
2683:Drivers/STM32F3xx_HAL_Driver/Src/stm32f3xx_hal_i2c.c ****     /* If transfer direction not change, do not generate Restart Condition */
2684:Drivers/STM32F3xx_HAL_Driver/Src/stm32f3xx_hal_i2c.c ****     /* Mean Previous state is same as current state */
2685:Drivers/STM32F3xx_HAL_Driver/Src/stm32f3xx_hal_i2c.c ****     if (hi2c->PreviousState == I2C_STATE_MASTER_BUSY_RX)
 5390              		.loc 1 2685 0
 5391 0096 FB68     		ldr	r3, [r7, #12]
 5392 0098 1B6B     		ldr	r3, [r3, #48]
 5393 009a 122B     		cmp	r3, #18
 5394 009c 01D1     		bne	.L273
2686:Drivers/STM32F3xx_HAL_Driver/Src/stm32f3xx_hal_i2c.c ****     {
2687:Drivers/STM32F3xx_HAL_Driver/Src/stm32f3xx_hal_i2c.c ****       xferrequest = I2C_NO_STARTSTOP;
ARM GAS  /tmp/ccy0jiyr.s 			page 142


 5395              		.loc 1 2687 0
 5396 009e 0023     		movs	r3, #0
 5397 00a0 3B61     		str	r3, [r7, #16]
 5398              	.L273:
2688:Drivers/STM32F3xx_HAL_Driver/Src/stm32f3xx_hal_i2c.c ****     }
2689:Drivers/STM32F3xx_HAL_Driver/Src/stm32f3xx_hal_i2c.c **** 
2690:Drivers/STM32F3xx_HAL_Driver/Src/stm32f3xx_hal_i2c.c ****     /* Send Slave Address and set NBYTES to read */
2691:Drivers/STM32F3xx_HAL_Driver/Src/stm32f3xx_hal_i2c.c ****     I2C_TransferConfig(hi2c, DevAddress, hi2c->XferSize, xfermode, xferrequest);
 5399              		.loc 1 2691 0
 5400 00a2 FB68     		ldr	r3, [r7, #12]
 5401 00a4 1B8D     		ldrh	r3, [r3, #40]
 5402 00a6 DAB2     		uxtb	r2, r3
 5403 00a8 7989     		ldrh	r1, [r7, #10]
 5404 00aa 3B69     		ldr	r3, [r7, #16]
 5405 00ac 0093     		str	r3, [sp]
 5406 00ae 7B69     		ldr	r3, [r7, #20]
 5407 00b0 F868     		ldr	r0, [r7, #12]
 5408 00b2 FFF7FEFF 		bl	I2C_TransferConfig
2692:Drivers/STM32F3xx_HAL_Driver/Src/stm32f3xx_hal_i2c.c **** 
2693:Drivers/STM32F3xx_HAL_Driver/Src/stm32f3xx_hal_i2c.c ****     /* Process Unlocked */
2694:Drivers/STM32F3xx_HAL_Driver/Src/stm32f3xx_hal_i2c.c ****     __HAL_UNLOCK(hi2c);
 5409              		.loc 1 2694 0
 5410 00b6 FB68     		ldr	r3, [r7, #12]
 5411 00b8 0022     		movs	r2, #0
 5412 00ba 83F84020 		strb	r2, [r3, #64]
2695:Drivers/STM32F3xx_HAL_Driver/Src/stm32f3xx_hal_i2c.c **** 
2696:Drivers/STM32F3xx_HAL_Driver/Src/stm32f3xx_hal_i2c.c ****     /* Note : The I2C interrupts must be enabled after unlocking current process
2697:Drivers/STM32F3xx_HAL_Driver/Src/stm32f3xx_hal_i2c.c ****               to avoid the risk of I2C interrupt handle execution before current
2698:Drivers/STM32F3xx_HAL_Driver/Src/stm32f3xx_hal_i2c.c ****               process unlock */
2699:Drivers/STM32F3xx_HAL_Driver/Src/stm32f3xx_hal_i2c.c ****     I2C_Enable_IRQ(hi2c, I2C_XFER_RX_IT);
 5413              		.loc 1 2699 0
 5414 00be 0221     		movs	r1, #2
 5415 00c0 F868     		ldr	r0, [r7, #12]
 5416 00c2 FFF7FEFF 		bl	I2C_Enable_IRQ
2700:Drivers/STM32F3xx_HAL_Driver/Src/stm32f3xx_hal_i2c.c **** 
2701:Drivers/STM32F3xx_HAL_Driver/Src/stm32f3xx_hal_i2c.c ****     return HAL_OK;
 5417              		.loc 1 2701 0
 5418 00c6 0023     		movs	r3, #0
 5419 00c8 00E0     		b	.L270
 5420              	.L268:
2702:Drivers/STM32F3xx_HAL_Driver/Src/stm32f3xx_hal_i2c.c ****   }
2703:Drivers/STM32F3xx_HAL_Driver/Src/stm32f3xx_hal_i2c.c ****   else
2704:Drivers/STM32F3xx_HAL_Driver/Src/stm32f3xx_hal_i2c.c ****   {
2705:Drivers/STM32F3xx_HAL_Driver/Src/stm32f3xx_hal_i2c.c ****     return HAL_BUSY;
 5421              		.loc 1 2705 0
 5422 00ca 0223     		movs	r3, #2
 5423              	.L270:
2706:Drivers/STM32F3xx_HAL_Driver/Src/stm32f3xx_hal_i2c.c ****   }
2707:Drivers/STM32F3xx_HAL_Driver/Src/stm32f3xx_hal_i2c.c **** }
 5424              		.loc 1 2707 0
 5425 00cc 1846     		mov	r0, r3
 5426 00ce 1837     		adds	r7, r7, #24
 5427              	.LCFI125:
 5428              		.cfi_def_cfa_offset 8
 5429 00d0 BD46     		mov	sp, r7
 5430              	.LCFI126:
 5431              		.cfi_def_cfa_register 13
ARM GAS  /tmp/ccy0jiyr.s 			page 143


 5432              		@ sp needed
 5433 00d2 80BD     		pop	{r7, pc}
 5434              	.L275:
 5435              		.align	2
 5436              	.L274:
 5437 00d4 00000000 		.word	I2C_Master_ISR_IT
 5438              		.cfi_endproc
 5439              	.LFE719:
 5441              		.section	.text.HAL_I2C_Slave_Sequential_Transmit_IT,"ax",%progbits
 5442              		.align	1
 5443              		.global	HAL_I2C_Slave_Sequential_Transmit_IT
 5444              		.syntax unified
 5445              		.thumb
 5446              		.thumb_func
 5447              		.fpu fpv4-sp-d16
 5449              	HAL_I2C_Slave_Sequential_Transmit_IT:
 5450              	.LFB720:
2708:Drivers/STM32F3xx_HAL_Driver/Src/stm32f3xx_hal_i2c.c **** 
2709:Drivers/STM32F3xx_HAL_Driver/Src/stm32f3xx_hal_i2c.c **** /**
2710:Drivers/STM32F3xx_HAL_Driver/Src/stm32f3xx_hal_i2c.c ****   * @brief  Sequential transmit in slave/device I2C mode an amount of data in non-blocking mode wit
2711:Drivers/STM32F3xx_HAL_Driver/Src/stm32f3xx_hal_i2c.c ****   * @note   This interface allow to manage repeated start condition when a direction change during 
2712:Drivers/STM32F3xx_HAL_Driver/Src/stm32f3xx_hal_i2c.c ****   * @param  hi2c Pointer to a I2C_HandleTypeDef structure that contains
2713:Drivers/STM32F3xx_HAL_Driver/Src/stm32f3xx_hal_i2c.c ****   *                the configuration information for the specified I2C.
2714:Drivers/STM32F3xx_HAL_Driver/Src/stm32f3xx_hal_i2c.c ****   * @param  pData Pointer to data buffer
2715:Drivers/STM32F3xx_HAL_Driver/Src/stm32f3xx_hal_i2c.c ****   * @param  Size Amount of data to be sent
2716:Drivers/STM32F3xx_HAL_Driver/Src/stm32f3xx_hal_i2c.c ****   * @param  XferOptions Options of Transfer, value of @ref I2C_XFEROPTIONS
2717:Drivers/STM32F3xx_HAL_Driver/Src/stm32f3xx_hal_i2c.c ****   * @retval HAL status
2718:Drivers/STM32F3xx_HAL_Driver/Src/stm32f3xx_hal_i2c.c ****   */
2719:Drivers/STM32F3xx_HAL_Driver/Src/stm32f3xx_hal_i2c.c **** HAL_StatusTypeDef HAL_I2C_Slave_Sequential_Transmit_IT(I2C_HandleTypeDef *hi2c, uint8_t *pData, uin
2720:Drivers/STM32F3xx_HAL_Driver/Src/stm32f3xx_hal_i2c.c **** {
 5451              		.loc 1 2720 0
 5452              		.cfi_startproc
 5453              		@ args = 0, pretend = 0, frame = 16
 5454              		@ frame_needed = 1, uses_anonymous_args = 0
 5455 0000 80B5     		push	{r7, lr}
 5456              	.LCFI127:
 5457              		.cfi_def_cfa_offset 8
 5458              		.cfi_offset 7, -8
 5459              		.cfi_offset 14, -4
 5460 0002 84B0     		sub	sp, sp, #16
 5461              	.LCFI128:
 5462              		.cfi_def_cfa_offset 24
 5463 0004 00AF     		add	r7, sp, #0
 5464              	.LCFI129:
 5465              		.cfi_def_cfa_register 7
 5466 0006 F860     		str	r0, [r7, #12]
 5467 0008 B960     		str	r1, [r7, #8]
 5468 000a 3B60     		str	r3, [r7]
 5469 000c 1346     		mov	r3, r2	@ movhi
 5470 000e FB80     		strh	r3, [r7, #6]	@ movhi
2721:Drivers/STM32F3xx_HAL_Driver/Src/stm32f3xx_hal_i2c.c ****   /* Check the parameters */
2722:Drivers/STM32F3xx_HAL_Driver/Src/stm32f3xx_hal_i2c.c ****   assert_param(IS_I2C_TRANSFER_OPTIONS_REQUEST(XferOptions));
2723:Drivers/STM32F3xx_HAL_Driver/Src/stm32f3xx_hal_i2c.c **** 
2724:Drivers/STM32F3xx_HAL_Driver/Src/stm32f3xx_hal_i2c.c ****   if ((hi2c->State & HAL_I2C_STATE_LISTEN) == HAL_I2C_STATE_LISTEN)
 5471              		.loc 1 2724 0
 5472 0010 FB68     		ldr	r3, [r7, #12]
 5473 0012 93F84130 		ldrb	r3, [r3, #65]
ARM GAS  /tmp/ccy0jiyr.s 			page 144


 5474 0016 DBB2     		uxtb	r3, r3
 5475 0018 03F02803 		and	r3, r3, #40
 5476 001c 282B     		cmp	r3, #40
 5477 001e 5AD1     		bne	.L277
2725:Drivers/STM32F3xx_HAL_Driver/Src/stm32f3xx_hal_i2c.c ****   {
2726:Drivers/STM32F3xx_HAL_Driver/Src/stm32f3xx_hal_i2c.c ****     if ((pData == NULL) || (Size == 0U))
 5478              		.loc 1 2726 0
 5479 0020 BB68     		ldr	r3, [r7, #8]
 5480 0022 002B     		cmp	r3, #0
 5481 0024 02D0     		beq	.L278
 5482              		.loc 1 2726 0 is_stmt 0 discriminator 1
 5483 0026 FB88     		ldrh	r3, [r7, #6]
 5484 0028 002B     		cmp	r3, #0
 5485 002a 01D1     		bne	.L279
 5486              	.L278:
2727:Drivers/STM32F3xx_HAL_Driver/Src/stm32f3xx_hal_i2c.c ****     {
2728:Drivers/STM32F3xx_HAL_Driver/Src/stm32f3xx_hal_i2c.c ****       return  HAL_ERROR;
 5487              		.loc 1 2728 0 is_stmt 1
 5488 002c 0123     		movs	r3, #1
 5489 002e 53E0     		b	.L280
 5490              	.L279:
2729:Drivers/STM32F3xx_HAL_Driver/Src/stm32f3xx_hal_i2c.c ****     }
2730:Drivers/STM32F3xx_HAL_Driver/Src/stm32f3xx_hal_i2c.c **** 
2731:Drivers/STM32F3xx_HAL_Driver/Src/stm32f3xx_hal_i2c.c ****     /* Disable Interrupts, to prevent preemption during treatment in case of multicall */
2732:Drivers/STM32F3xx_HAL_Driver/Src/stm32f3xx_hal_i2c.c ****     I2C_Disable_IRQ(hi2c, I2C_XFER_LISTEN_IT | I2C_XFER_TX_IT);
 5491              		.loc 1 2732 0
 5492 0030 0521     		movs	r1, #5
 5493 0032 F868     		ldr	r0, [r7, #12]
 5494 0034 FFF7FEFF 		bl	I2C_Disable_IRQ
2733:Drivers/STM32F3xx_HAL_Driver/Src/stm32f3xx_hal_i2c.c **** 
2734:Drivers/STM32F3xx_HAL_Driver/Src/stm32f3xx_hal_i2c.c ****     /* Process Locked */
2735:Drivers/STM32F3xx_HAL_Driver/Src/stm32f3xx_hal_i2c.c ****     __HAL_LOCK(hi2c);
 5495              		.loc 1 2735 0
 5496 0038 FB68     		ldr	r3, [r7, #12]
 5497 003a 93F84030 		ldrb	r3, [r3, #64]	@ zero_extendqisi2
 5498 003e 012B     		cmp	r3, #1
 5499 0040 01D1     		bne	.L281
 5500              		.loc 1 2735 0 is_stmt 0 discriminator 1
 5501 0042 0223     		movs	r3, #2
 5502 0044 48E0     		b	.L280
 5503              	.L281:
 5504              		.loc 1 2735 0 discriminator 2
 5505 0046 FB68     		ldr	r3, [r7, #12]
 5506 0048 0122     		movs	r2, #1
 5507 004a 83F84020 		strb	r2, [r3, #64]
2736:Drivers/STM32F3xx_HAL_Driver/Src/stm32f3xx_hal_i2c.c **** 
2737:Drivers/STM32F3xx_HAL_Driver/Src/stm32f3xx_hal_i2c.c ****     /* I2C cannot manage full duplex exchange so disable previous IT enabled if any */
2738:Drivers/STM32F3xx_HAL_Driver/Src/stm32f3xx_hal_i2c.c ****     /* and then toggle the HAL slave RX state to TX state */
2739:Drivers/STM32F3xx_HAL_Driver/Src/stm32f3xx_hal_i2c.c ****     if (hi2c->State == HAL_I2C_STATE_BUSY_RX_LISTEN)
 5508              		.loc 1 2739 0 is_stmt 1 discriminator 2
 5509 004e FB68     		ldr	r3, [r7, #12]
 5510 0050 93F84130 		ldrb	r3, [r3, #65]
 5511 0054 DBB2     		uxtb	r3, r3
 5512 0056 2A2B     		cmp	r3, #42
 5513 0058 03D1     		bne	.L282
2740:Drivers/STM32F3xx_HAL_Driver/Src/stm32f3xx_hal_i2c.c ****     {
2741:Drivers/STM32F3xx_HAL_Driver/Src/stm32f3xx_hal_i2c.c ****       /* Disable associated Interrupts */
ARM GAS  /tmp/ccy0jiyr.s 			page 145


2742:Drivers/STM32F3xx_HAL_Driver/Src/stm32f3xx_hal_i2c.c ****       I2C_Disable_IRQ(hi2c, I2C_XFER_RX_IT);
 5514              		.loc 1 2742 0
 5515 005a 0221     		movs	r1, #2
 5516 005c F868     		ldr	r0, [r7, #12]
 5517 005e FFF7FEFF 		bl	I2C_Disable_IRQ
 5518              	.L282:
2743:Drivers/STM32F3xx_HAL_Driver/Src/stm32f3xx_hal_i2c.c ****     }
2744:Drivers/STM32F3xx_HAL_Driver/Src/stm32f3xx_hal_i2c.c **** 
2745:Drivers/STM32F3xx_HAL_Driver/Src/stm32f3xx_hal_i2c.c ****     hi2c->State     = HAL_I2C_STATE_BUSY_TX_LISTEN;
 5519              		.loc 1 2745 0
 5520 0062 FB68     		ldr	r3, [r7, #12]
 5521 0064 2922     		movs	r2, #41
 5522 0066 83F84120 		strb	r2, [r3, #65]
2746:Drivers/STM32F3xx_HAL_Driver/Src/stm32f3xx_hal_i2c.c ****     hi2c->Mode      = HAL_I2C_MODE_SLAVE;
 5523              		.loc 1 2746 0
 5524 006a FB68     		ldr	r3, [r7, #12]
 5525 006c 2022     		movs	r2, #32
 5526 006e 83F84220 		strb	r2, [r3, #66]
2747:Drivers/STM32F3xx_HAL_Driver/Src/stm32f3xx_hal_i2c.c ****     hi2c->ErrorCode = HAL_I2C_ERROR_NONE;
 5527              		.loc 1 2747 0
 5528 0072 FB68     		ldr	r3, [r7, #12]
 5529 0074 0022     		movs	r2, #0
 5530 0076 5A64     		str	r2, [r3, #68]
2748:Drivers/STM32F3xx_HAL_Driver/Src/stm32f3xx_hal_i2c.c **** 
2749:Drivers/STM32F3xx_HAL_Driver/Src/stm32f3xx_hal_i2c.c ****     /* Enable Address Acknowledge */
2750:Drivers/STM32F3xx_HAL_Driver/Src/stm32f3xx_hal_i2c.c ****     hi2c->Instance->CR2 &= ~I2C_CR2_NACK;
 5531              		.loc 1 2750 0
 5532 0078 FB68     		ldr	r3, [r7, #12]
 5533 007a 1B68     		ldr	r3, [r3]
 5534 007c 5A68     		ldr	r2, [r3, #4]
 5535 007e FB68     		ldr	r3, [r7, #12]
 5536 0080 1B68     		ldr	r3, [r3]
 5537 0082 22F40042 		bic	r2, r2, #32768
 5538 0086 5A60     		str	r2, [r3, #4]
2751:Drivers/STM32F3xx_HAL_Driver/Src/stm32f3xx_hal_i2c.c **** 
2752:Drivers/STM32F3xx_HAL_Driver/Src/stm32f3xx_hal_i2c.c ****     /* Prepare transfer parameters */
2753:Drivers/STM32F3xx_HAL_Driver/Src/stm32f3xx_hal_i2c.c ****     hi2c->pBuffPtr    = pData;
 5539              		.loc 1 2753 0
 5540 0088 FB68     		ldr	r3, [r7, #12]
 5541 008a BA68     		ldr	r2, [r7, #8]
 5542 008c 5A62     		str	r2, [r3, #36]
2754:Drivers/STM32F3xx_HAL_Driver/Src/stm32f3xx_hal_i2c.c ****     hi2c->XferCount   = Size;
 5543              		.loc 1 2754 0
 5544 008e FB68     		ldr	r3, [r7, #12]
 5545 0090 FA88     		ldrh	r2, [r7, #6]	@ movhi
 5546 0092 5A85     		strh	r2, [r3, #42]	@ movhi
2755:Drivers/STM32F3xx_HAL_Driver/Src/stm32f3xx_hal_i2c.c ****     hi2c->XferSize    = hi2c->XferCount;
 5547              		.loc 1 2755 0
 5548 0094 FB68     		ldr	r3, [r7, #12]
 5549 0096 5B8D     		ldrh	r3, [r3, #42]	@ movhi
 5550 0098 9AB2     		uxth	r2, r3
 5551 009a FB68     		ldr	r3, [r7, #12]
 5552 009c 1A85     		strh	r2, [r3, #40]	@ movhi
2756:Drivers/STM32F3xx_HAL_Driver/Src/stm32f3xx_hal_i2c.c ****     hi2c->XferOptions = XferOptions;
 5553              		.loc 1 2756 0
 5554 009e FB68     		ldr	r3, [r7, #12]
 5555 00a0 3A68     		ldr	r2, [r7]
ARM GAS  /tmp/ccy0jiyr.s 			page 146


 5556 00a2 DA62     		str	r2, [r3, #44]
2757:Drivers/STM32F3xx_HAL_Driver/Src/stm32f3xx_hal_i2c.c ****     hi2c->XferISR     = I2C_Slave_ISR_IT;
 5557              		.loc 1 2757 0
 5558 00a4 FB68     		ldr	r3, [r7, #12]
 5559 00a6 0E4A     		ldr	r2, .L284
 5560 00a8 5A63     		str	r2, [r3, #52]
2758:Drivers/STM32F3xx_HAL_Driver/Src/stm32f3xx_hal_i2c.c **** 
2759:Drivers/STM32F3xx_HAL_Driver/Src/stm32f3xx_hal_i2c.c ****     if (I2C_GET_DIR(hi2c) == I2C_DIRECTION_RECEIVE)
 5561              		.loc 1 2759 0
 5562 00aa FB68     		ldr	r3, [r7, #12]
 5563 00ac 1B68     		ldr	r3, [r3]
 5564 00ae 9B69     		ldr	r3, [r3, #24]
 5565 00b0 1B0C     		lsrs	r3, r3, #16
 5566 00b2 03F00103 		and	r3, r3, #1
 5567 00b6 012B     		cmp	r3, #1
 5568 00b8 03D1     		bne	.L283
2760:Drivers/STM32F3xx_HAL_Driver/Src/stm32f3xx_hal_i2c.c ****     {
2761:Drivers/STM32F3xx_HAL_Driver/Src/stm32f3xx_hal_i2c.c ****       /* Clear ADDR flag after prepare the transfer parameters */
2762:Drivers/STM32F3xx_HAL_Driver/Src/stm32f3xx_hal_i2c.c ****       /* This action will generate an acknowledge to the Master */
2763:Drivers/STM32F3xx_HAL_Driver/Src/stm32f3xx_hal_i2c.c ****       __HAL_I2C_CLEAR_FLAG(hi2c, I2C_FLAG_ADDR);
 5569              		.loc 1 2763 0
 5570 00ba FB68     		ldr	r3, [r7, #12]
 5571 00bc 1B68     		ldr	r3, [r3]
 5572 00be 0822     		movs	r2, #8
 5573 00c0 DA61     		str	r2, [r3, #28]
 5574              	.L283:
2764:Drivers/STM32F3xx_HAL_Driver/Src/stm32f3xx_hal_i2c.c ****     }
2765:Drivers/STM32F3xx_HAL_Driver/Src/stm32f3xx_hal_i2c.c **** 
2766:Drivers/STM32F3xx_HAL_Driver/Src/stm32f3xx_hal_i2c.c ****     /* Process Unlocked */
2767:Drivers/STM32F3xx_HAL_Driver/Src/stm32f3xx_hal_i2c.c ****     __HAL_UNLOCK(hi2c);
 5575              		.loc 1 2767 0
 5576 00c2 FB68     		ldr	r3, [r7, #12]
 5577 00c4 0022     		movs	r2, #0
 5578 00c6 83F84020 		strb	r2, [r3, #64]
2768:Drivers/STM32F3xx_HAL_Driver/Src/stm32f3xx_hal_i2c.c **** 
2769:Drivers/STM32F3xx_HAL_Driver/Src/stm32f3xx_hal_i2c.c ****     /* Note : The I2C interrupts must be enabled after unlocking current process
2770:Drivers/STM32F3xx_HAL_Driver/Src/stm32f3xx_hal_i2c.c ****     to avoid the risk of I2C interrupt handle execution before current
2771:Drivers/STM32F3xx_HAL_Driver/Src/stm32f3xx_hal_i2c.c ****     process unlock */
2772:Drivers/STM32F3xx_HAL_Driver/Src/stm32f3xx_hal_i2c.c ****     /* REnable ADDR interrupt */
2773:Drivers/STM32F3xx_HAL_Driver/Src/stm32f3xx_hal_i2c.c ****     I2C_Enable_IRQ(hi2c, I2C_XFER_TX_IT | I2C_XFER_LISTEN_IT);
 5579              		.loc 1 2773 0
 5580 00ca 0521     		movs	r1, #5
 5581 00cc F868     		ldr	r0, [r7, #12]
 5582 00ce FFF7FEFF 		bl	I2C_Enable_IRQ
2774:Drivers/STM32F3xx_HAL_Driver/Src/stm32f3xx_hal_i2c.c **** 
2775:Drivers/STM32F3xx_HAL_Driver/Src/stm32f3xx_hal_i2c.c ****     return HAL_OK;
 5583              		.loc 1 2775 0
 5584 00d2 0023     		movs	r3, #0
 5585 00d4 00E0     		b	.L280
 5586              	.L277:
2776:Drivers/STM32F3xx_HAL_Driver/Src/stm32f3xx_hal_i2c.c ****   }
2777:Drivers/STM32F3xx_HAL_Driver/Src/stm32f3xx_hal_i2c.c ****   else
2778:Drivers/STM32F3xx_HAL_Driver/Src/stm32f3xx_hal_i2c.c ****   {
2779:Drivers/STM32F3xx_HAL_Driver/Src/stm32f3xx_hal_i2c.c ****     return HAL_ERROR;
 5587              		.loc 1 2779 0
 5588 00d6 0123     		movs	r3, #1
 5589              	.L280:
ARM GAS  /tmp/ccy0jiyr.s 			page 147


2780:Drivers/STM32F3xx_HAL_Driver/Src/stm32f3xx_hal_i2c.c ****   }
2781:Drivers/STM32F3xx_HAL_Driver/Src/stm32f3xx_hal_i2c.c **** }
 5590              		.loc 1 2781 0
 5591 00d8 1846     		mov	r0, r3
 5592 00da 1037     		adds	r7, r7, #16
 5593              	.LCFI130:
 5594              		.cfi_def_cfa_offset 8
 5595 00dc BD46     		mov	sp, r7
 5596              	.LCFI131:
 5597              		.cfi_def_cfa_register 13
 5598              		@ sp needed
 5599 00de 80BD     		pop	{r7, pc}
 5600              	.L285:
 5601              		.align	2
 5602              	.L284:
 5603 00e0 00000000 		.word	I2C_Slave_ISR_IT
 5604              		.cfi_endproc
 5605              	.LFE720:
 5607              		.section	.text.HAL_I2C_Slave_Sequential_Receive_IT,"ax",%progbits
 5608              		.align	1
 5609              		.global	HAL_I2C_Slave_Sequential_Receive_IT
 5610              		.syntax unified
 5611              		.thumb
 5612              		.thumb_func
 5613              		.fpu fpv4-sp-d16
 5615              	HAL_I2C_Slave_Sequential_Receive_IT:
 5616              	.LFB721:
2782:Drivers/STM32F3xx_HAL_Driver/Src/stm32f3xx_hal_i2c.c **** 
2783:Drivers/STM32F3xx_HAL_Driver/Src/stm32f3xx_hal_i2c.c **** /**
2784:Drivers/STM32F3xx_HAL_Driver/Src/stm32f3xx_hal_i2c.c ****   * @brief  Sequential receive in slave/device I2C mode an amount of data in non-blocking mode with
2785:Drivers/STM32F3xx_HAL_Driver/Src/stm32f3xx_hal_i2c.c ****   * @note   This interface allow to manage repeated start condition when a direction change during 
2786:Drivers/STM32F3xx_HAL_Driver/Src/stm32f3xx_hal_i2c.c ****   * @param  hi2c Pointer to a I2C_HandleTypeDef structure that contains
2787:Drivers/STM32F3xx_HAL_Driver/Src/stm32f3xx_hal_i2c.c ****   *                the configuration information for the specified I2C.
2788:Drivers/STM32F3xx_HAL_Driver/Src/stm32f3xx_hal_i2c.c ****   * @param  pData Pointer to data buffer
2789:Drivers/STM32F3xx_HAL_Driver/Src/stm32f3xx_hal_i2c.c ****   * @param  Size Amount of data to be sent
2790:Drivers/STM32F3xx_HAL_Driver/Src/stm32f3xx_hal_i2c.c ****   * @param  XferOptions Options of Transfer, value of @ref I2C_XFEROPTIONS
2791:Drivers/STM32F3xx_HAL_Driver/Src/stm32f3xx_hal_i2c.c ****   * @retval HAL status
2792:Drivers/STM32F3xx_HAL_Driver/Src/stm32f3xx_hal_i2c.c ****   */
2793:Drivers/STM32F3xx_HAL_Driver/Src/stm32f3xx_hal_i2c.c **** HAL_StatusTypeDef HAL_I2C_Slave_Sequential_Receive_IT(I2C_HandleTypeDef *hi2c, uint8_t *pData, uint
2794:Drivers/STM32F3xx_HAL_Driver/Src/stm32f3xx_hal_i2c.c **** {
 5617              		.loc 1 2794 0
 5618              		.cfi_startproc
 5619              		@ args = 0, pretend = 0, frame = 16
 5620              		@ frame_needed = 1, uses_anonymous_args = 0
 5621 0000 80B5     		push	{r7, lr}
 5622              	.LCFI132:
 5623              		.cfi_def_cfa_offset 8
 5624              		.cfi_offset 7, -8
 5625              		.cfi_offset 14, -4
 5626 0002 84B0     		sub	sp, sp, #16
 5627              	.LCFI133:
 5628              		.cfi_def_cfa_offset 24
 5629 0004 00AF     		add	r7, sp, #0
 5630              	.LCFI134:
 5631              		.cfi_def_cfa_register 7
 5632 0006 F860     		str	r0, [r7, #12]
 5633 0008 B960     		str	r1, [r7, #8]
ARM GAS  /tmp/ccy0jiyr.s 			page 148


 5634 000a 3B60     		str	r3, [r7]
 5635 000c 1346     		mov	r3, r2	@ movhi
 5636 000e FB80     		strh	r3, [r7, #6]	@ movhi
2795:Drivers/STM32F3xx_HAL_Driver/Src/stm32f3xx_hal_i2c.c ****   /* Check the parameters */
2796:Drivers/STM32F3xx_HAL_Driver/Src/stm32f3xx_hal_i2c.c ****   assert_param(IS_I2C_TRANSFER_OPTIONS_REQUEST(XferOptions));
2797:Drivers/STM32F3xx_HAL_Driver/Src/stm32f3xx_hal_i2c.c **** 
2798:Drivers/STM32F3xx_HAL_Driver/Src/stm32f3xx_hal_i2c.c ****   if ((hi2c->State & HAL_I2C_STATE_LISTEN) == HAL_I2C_STATE_LISTEN)
 5637              		.loc 1 2798 0
 5638 0010 FB68     		ldr	r3, [r7, #12]
 5639 0012 93F84130 		ldrb	r3, [r3, #65]
 5640 0016 DBB2     		uxtb	r3, r3
 5641 0018 03F02803 		and	r3, r3, #40
 5642 001c 282B     		cmp	r3, #40
 5643 001e 59D1     		bne	.L287
2799:Drivers/STM32F3xx_HAL_Driver/Src/stm32f3xx_hal_i2c.c ****   {
2800:Drivers/STM32F3xx_HAL_Driver/Src/stm32f3xx_hal_i2c.c ****     if ((pData == NULL) || (Size == 0U))
 5644              		.loc 1 2800 0
 5645 0020 BB68     		ldr	r3, [r7, #8]
 5646 0022 002B     		cmp	r3, #0
 5647 0024 02D0     		beq	.L288
 5648              		.loc 1 2800 0 is_stmt 0 discriminator 1
 5649 0026 FB88     		ldrh	r3, [r7, #6]
 5650 0028 002B     		cmp	r3, #0
 5651 002a 01D1     		bne	.L289
 5652              	.L288:
2801:Drivers/STM32F3xx_HAL_Driver/Src/stm32f3xx_hal_i2c.c ****     {
2802:Drivers/STM32F3xx_HAL_Driver/Src/stm32f3xx_hal_i2c.c ****       return  HAL_ERROR;
 5653              		.loc 1 2802 0 is_stmt 1
 5654 002c 0123     		movs	r3, #1
 5655 002e 52E0     		b	.L290
 5656              	.L289:
2803:Drivers/STM32F3xx_HAL_Driver/Src/stm32f3xx_hal_i2c.c ****     }
2804:Drivers/STM32F3xx_HAL_Driver/Src/stm32f3xx_hal_i2c.c **** 
2805:Drivers/STM32F3xx_HAL_Driver/Src/stm32f3xx_hal_i2c.c ****     /* Disable Interrupts, to prevent preemption during treatment in case of multicall */
2806:Drivers/STM32F3xx_HAL_Driver/Src/stm32f3xx_hal_i2c.c ****     I2C_Disable_IRQ(hi2c, I2C_XFER_LISTEN_IT | I2C_XFER_RX_IT);
 5657              		.loc 1 2806 0
 5658 0030 0621     		movs	r1, #6
 5659 0032 F868     		ldr	r0, [r7, #12]
 5660 0034 FFF7FEFF 		bl	I2C_Disable_IRQ
2807:Drivers/STM32F3xx_HAL_Driver/Src/stm32f3xx_hal_i2c.c **** 
2808:Drivers/STM32F3xx_HAL_Driver/Src/stm32f3xx_hal_i2c.c ****     /* Process Locked */
2809:Drivers/STM32F3xx_HAL_Driver/Src/stm32f3xx_hal_i2c.c ****     __HAL_LOCK(hi2c);
 5661              		.loc 1 2809 0
 5662 0038 FB68     		ldr	r3, [r7, #12]
 5663 003a 93F84030 		ldrb	r3, [r3, #64]	@ zero_extendqisi2
 5664 003e 012B     		cmp	r3, #1
 5665 0040 01D1     		bne	.L291
 5666              		.loc 1 2809 0 is_stmt 0 discriminator 1
 5667 0042 0223     		movs	r3, #2
 5668 0044 47E0     		b	.L290
 5669              	.L291:
 5670              		.loc 1 2809 0 discriminator 2
 5671 0046 FB68     		ldr	r3, [r7, #12]
 5672 0048 0122     		movs	r2, #1
 5673 004a 83F84020 		strb	r2, [r3, #64]
2810:Drivers/STM32F3xx_HAL_Driver/Src/stm32f3xx_hal_i2c.c **** 
2811:Drivers/STM32F3xx_HAL_Driver/Src/stm32f3xx_hal_i2c.c ****     /* I2C cannot manage full duplex exchange so disable previous IT enabled if any */
ARM GAS  /tmp/ccy0jiyr.s 			page 149


2812:Drivers/STM32F3xx_HAL_Driver/Src/stm32f3xx_hal_i2c.c ****     /* and then toggle the HAL slave TX state to RX state */
2813:Drivers/STM32F3xx_HAL_Driver/Src/stm32f3xx_hal_i2c.c ****     if (hi2c->State == HAL_I2C_STATE_BUSY_TX_LISTEN)
 5674              		.loc 1 2813 0 is_stmt 1 discriminator 2
 5675 004e FB68     		ldr	r3, [r7, #12]
 5676 0050 93F84130 		ldrb	r3, [r3, #65]
 5677 0054 DBB2     		uxtb	r3, r3
 5678 0056 292B     		cmp	r3, #41
 5679 0058 03D1     		bne	.L292
2814:Drivers/STM32F3xx_HAL_Driver/Src/stm32f3xx_hal_i2c.c ****     {
2815:Drivers/STM32F3xx_HAL_Driver/Src/stm32f3xx_hal_i2c.c ****       /* Disable associated Interrupts */
2816:Drivers/STM32F3xx_HAL_Driver/Src/stm32f3xx_hal_i2c.c ****       I2C_Disable_IRQ(hi2c, I2C_XFER_TX_IT);
 5680              		.loc 1 2816 0
 5681 005a 0121     		movs	r1, #1
 5682 005c F868     		ldr	r0, [r7, #12]
 5683 005e FFF7FEFF 		bl	I2C_Disable_IRQ
 5684              	.L292:
2817:Drivers/STM32F3xx_HAL_Driver/Src/stm32f3xx_hal_i2c.c ****     }
2818:Drivers/STM32F3xx_HAL_Driver/Src/stm32f3xx_hal_i2c.c **** 
2819:Drivers/STM32F3xx_HAL_Driver/Src/stm32f3xx_hal_i2c.c ****     hi2c->State     = HAL_I2C_STATE_BUSY_RX_LISTEN;
 5685              		.loc 1 2819 0
 5686 0062 FB68     		ldr	r3, [r7, #12]
 5687 0064 2A22     		movs	r2, #42
 5688 0066 83F84120 		strb	r2, [r3, #65]
2820:Drivers/STM32F3xx_HAL_Driver/Src/stm32f3xx_hal_i2c.c ****     hi2c->Mode      = HAL_I2C_MODE_SLAVE;
 5689              		.loc 1 2820 0
 5690 006a FB68     		ldr	r3, [r7, #12]
 5691 006c 2022     		movs	r2, #32
 5692 006e 83F84220 		strb	r2, [r3, #66]
2821:Drivers/STM32F3xx_HAL_Driver/Src/stm32f3xx_hal_i2c.c ****     hi2c->ErrorCode = HAL_I2C_ERROR_NONE;
 5693              		.loc 1 2821 0
 5694 0072 FB68     		ldr	r3, [r7, #12]
 5695 0074 0022     		movs	r2, #0
 5696 0076 5A64     		str	r2, [r3, #68]
2822:Drivers/STM32F3xx_HAL_Driver/Src/stm32f3xx_hal_i2c.c **** 
2823:Drivers/STM32F3xx_HAL_Driver/Src/stm32f3xx_hal_i2c.c ****     /* Enable Address Acknowledge */
2824:Drivers/STM32F3xx_HAL_Driver/Src/stm32f3xx_hal_i2c.c ****     hi2c->Instance->CR2 &= ~I2C_CR2_NACK;
 5697              		.loc 1 2824 0
 5698 0078 FB68     		ldr	r3, [r7, #12]
 5699 007a 1B68     		ldr	r3, [r3]
 5700 007c 5A68     		ldr	r2, [r3, #4]
 5701 007e FB68     		ldr	r3, [r7, #12]
 5702 0080 1B68     		ldr	r3, [r3]
 5703 0082 22F40042 		bic	r2, r2, #32768
 5704 0086 5A60     		str	r2, [r3, #4]
2825:Drivers/STM32F3xx_HAL_Driver/Src/stm32f3xx_hal_i2c.c **** 
2826:Drivers/STM32F3xx_HAL_Driver/Src/stm32f3xx_hal_i2c.c ****     /* Prepare transfer parameters */
2827:Drivers/STM32F3xx_HAL_Driver/Src/stm32f3xx_hal_i2c.c ****     hi2c->pBuffPtr    = pData;
 5705              		.loc 1 2827 0
 5706 0088 FB68     		ldr	r3, [r7, #12]
 5707 008a BA68     		ldr	r2, [r7, #8]
 5708 008c 5A62     		str	r2, [r3, #36]
2828:Drivers/STM32F3xx_HAL_Driver/Src/stm32f3xx_hal_i2c.c ****     hi2c->XferCount   = Size;
 5709              		.loc 1 2828 0
 5710 008e FB68     		ldr	r3, [r7, #12]
 5711 0090 FA88     		ldrh	r2, [r7, #6]	@ movhi
 5712 0092 5A85     		strh	r2, [r3, #42]	@ movhi
2829:Drivers/STM32F3xx_HAL_Driver/Src/stm32f3xx_hal_i2c.c ****     hi2c->XferSize    = hi2c->XferCount;
ARM GAS  /tmp/ccy0jiyr.s 			page 150


 5713              		.loc 1 2829 0
 5714 0094 FB68     		ldr	r3, [r7, #12]
 5715 0096 5B8D     		ldrh	r3, [r3, #42]	@ movhi
 5716 0098 9AB2     		uxth	r2, r3
 5717 009a FB68     		ldr	r3, [r7, #12]
 5718 009c 1A85     		strh	r2, [r3, #40]	@ movhi
2830:Drivers/STM32F3xx_HAL_Driver/Src/stm32f3xx_hal_i2c.c ****     hi2c->XferOptions = XferOptions;
 5719              		.loc 1 2830 0
 5720 009e FB68     		ldr	r3, [r7, #12]
 5721 00a0 3A68     		ldr	r2, [r7]
 5722 00a2 DA62     		str	r2, [r3, #44]
2831:Drivers/STM32F3xx_HAL_Driver/Src/stm32f3xx_hal_i2c.c ****     hi2c->XferISR     = I2C_Slave_ISR_IT;
 5723              		.loc 1 2831 0
 5724 00a4 FB68     		ldr	r3, [r7, #12]
 5725 00a6 0E4A     		ldr	r2, .L294
 5726 00a8 5A63     		str	r2, [r3, #52]
2832:Drivers/STM32F3xx_HAL_Driver/Src/stm32f3xx_hal_i2c.c **** 
2833:Drivers/STM32F3xx_HAL_Driver/Src/stm32f3xx_hal_i2c.c ****     if (I2C_GET_DIR(hi2c) == I2C_DIRECTION_TRANSMIT)
 5727              		.loc 1 2833 0
 5728 00aa FB68     		ldr	r3, [r7, #12]
 5729 00ac 1B68     		ldr	r3, [r3]
 5730 00ae 9B69     		ldr	r3, [r3, #24]
 5731 00b0 03F48033 		and	r3, r3, #65536
 5732 00b4 002B     		cmp	r3, #0
 5733 00b6 03D1     		bne	.L293
2834:Drivers/STM32F3xx_HAL_Driver/Src/stm32f3xx_hal_i2c.c ****     {
2835:Drivers/STM32F3xx_HAL_Driver/Src/stm32f3xx_hal_i2c.c ****       /* Clear ADDR flag after prepare the transfer parameters */
2836:Drivers/STM32F3xx_HAL_Driver/Src/stm32f3xx_hal_i2c.c ****       /* This action will generate an acknowledge to the Master */
2837:Drivers/STM32F3xx_HAL_Driver/Src/stm32f3xx_hal_i2c.c ****       __HAL_I2C_CLEAR_FLAG(hi2c, I2C_FLAG_ADDR);
 5734              		.loc 1 2837 0
 5735 00b8 FB68     		ldr	r3, [r7, #12]
 5736 00ba 1B68     		ldr	r3, [r3]
 5737 00bc 0822     		movs	r2, #8
 5738 00be DA61     		str	r2, [r3, #28]
 5739              	.L293:
2838:Drivers/STM32F3xx_HAL_Driver/Src/stm32f3xx_hal_i2c.c ****     }
2839:Drivers/STM32F3xx_HAL_Driver/Src/stm32f3xx_hal_i2c.c **** 
2840:Drivers/STM32F3xx_HAL_Driver/Src/stm32f3xx_hal_i2c.c ****     /* Process Unlocked */
2841:Drivers/STM32F3xx_HAL_Driver/Src/stm32f3xx_hal_i2c.c ****     __HAL_UNLOCK(hi2c);
 5740              		.loc 1 2841 0
 5741 00c0 FB68     		ldr	r3, [r7, #12]
 5742 00c2 0022     		movs	r2, #0
 5743 00c4 83F84020 		strb	r2, [r3, #64]
2842:Drivers/STM32F3xx_HAL_Driver/Src/stm32f3xx_hal_i2c.c **** 
2843:Drivers/STM32F3xx_HAL_Driver/Src/stm32f3xx_hal_i2c.c ****     /* Note : The I2C interrupts must be enabled after unlocking current process
2844:Drivers/STM32F3xx_HAL_Driver/Src/stm32f3xx_hal_i2c.c ****     to avoid the risk of I2C interrupt handle execution before current
2845:Drivers/STM32F3xx_HAL_Driver/Src/stm32f3xx_hal_i2c.c ****     process unlock */
2846:Drivers/STM32F3xx_HAL_Driver/Src/stm32f3xx_hal_i2c.c ****     /* REnable ADDR interrupt */
2847:Drivers/STM32F3xx_HAL_Driver/Src/stm32f3xx_hal_i2c.c ****     I2C_Enable_IRQ(hi2c, I2C_XFER_RX_IT | I2C_XFER_LISTEN_IT);
 5744              		.loc 1 2847 0
 5745 00c8 0621     		movs	r1, #6
 5746 00ca F868     		ldr	r0, [r7, #12]
 5747 00cc FFF7FEFF 		bl	I2C_Enable_IRQ
2848:Drivers/STM32F3xx_HAL_Driver/Src/stm32f3xx_hal_i2c.c **** 
2849:Drivers/STM32F3xx_HAL_Driver/Src/stm32f3xx_hal_i2c.c ****     return HAL_OK;
 5748              		.loc 1 2849 0
 5749 00d0 0023     		movs	r3, #0
ARM GAS  /tmp/ccy0jiyr.s 			page 151


 5750 00d2 00E0     		b	.L290
 5751              	.L287:
2850:Drivers/STM32F3xx_HAL_Driver/Src/stm32f3xx_hal_i2c.c ****   }
2851:Drivers/STM32F3xx_HAL_Driver/Src/stm32f3xx_hal_i2c.c ****   else
2852:Drivers/STM32F3xx_HAL_Driver/Src/stm32f3xx_hal_i2c.c ****   {
2853:Drivers/STM32F3xx_HAL_Driver/Src/stm32f3xx_hal_i2c.c ****     return HAL_ERROR;
 5752              		.loc 1 2853 0
 5753 00d4 0123     		movs	r3, #1
 5754              	.L290:
2854:Drivers/STM32F3xx_HAL_Driver/Src/stm32f3xx_hal_i2c.c ****   }
2855:Drivers/STM32F3xx_HAL_Driver/Src/stm32f3xx_hal_i2c.c **** }
 5755              		.loc 1 2855 0
 5756 00d6 1846     		mov	r0, r3
 5757 00d8 1037     		adds	r7, r7, #16
 5758              	.LCFI135:
 5759              		.cfi_def_cfa_offset 8
 5760 00da BD46     		mov	sp, r7
 5761              	.LCFI136:
 5762              		.cfi_def_cfa_register 13
 5763              		@ sp needed
 5764 00dc 80BD     		pop	{r7, pc}
 5765              	.L295:
 5766 00de 00BF     		.align	2
 5767              	.L294:
 5768 00e0 00000000 		.word	I2C_Slave_ISR_IT
 5769              		.cfi_endproc
 5770              	.LFE721:
 5772              		.section	.text.HAL_I2C_EnableListen_IT,"ax",%progbits
 5773              		.align	1
 5774              		.global	HAL_I2C_EnableListen_IT
 5775              		.syntax unified
 5776              		.thumb
 5777              		.thumb_func
 5778              		.fpu fpv4-sp-d16
 5780              	HAL_I2C_EnableListen_IT:
 5781              	.LFB722:
2856:Drivers/STM32F3xx_HAL_Driver/Src/stm32f3xx_hal_i2c.c **** 
2857:Drivers/STM32F3xx_HAL_Driver/Src/stm32f3xx_hal_i2c.c **** /**
2858:Drivers/STM32F3xx_HAL_Driver/Src/stm32f3xx_hal_i2c.c ****   * @brief  Enable the Address listen mode with Interrupt.
2859:Drivers/STM32F3xx_HAL_Driver/Src/stm32f3xx_hal_i2c.c ****   * @param  hi2c Pointer to a I2C_HandleTypeDef structure that contains
2860:Drivers/STM32F3xx_HAL_Driver/Src/stm32f3xx_hal_i2c.c ****   *                the configuration information for the specified I2C.
2861:Drivers/STM32F3xx_HAL_Driver/Src/stm32f3xx_hal_i2c.c ****   * @retval HAL status
2862:Drivers/STM32F3xx_HAL_Driver/Src/stm32f3xx_hal_i2c.c ****   */
2863:Drivers/STM32F3xx_HAL_Driver/Src/stm32f3xx_hal_i2c.c **** HAL_StatusTypeDef HAL_I2C_EnableListen_IT(I2C_HandleTypeDef *hi2c)
2864:Drivers/STM32F3xx_HAL_Driver/Src/stm32f3xx_hal_i2c.c **** {
 5782              		.loc 1 2864 0
 5783              		.cfi_startproc
 5784              		@ args = 0, pretend = 0, frame = 8
 5785              		@ frame_needed = 1, uses_anonymous_args = 0
 5786 0000 80B5     		push	{r7, lr}
 5787              	.LCFI137:
 5788              		.cfi_def_cfa_offset 8
 5789              		.cfi_offset 7, -8
 5790              		.cfi_offset 14, -4
 5791 0002 82B0     		sub	sp, sp, #8
 5792              	.LCFI138:
 5793              		.cfi_def_cfa_offset 16
ARM GAS  /tmp/ccy0jiyr.s 			page 152


 5794 0004 00AF     		add	r7, sp, #0
 5795              	.LCFI139:
 5796              		.cfi_def_cfa_register 7
 5797 0006 7860     		str	r0, [r7, #4]
2865:Drivers/STM32F3xx_HAL_Driver/Src/stm32f3xx_hal_i2c.c ****   if (hi2c->State == HAL_I2C_STATE_READY)
 5798              		.loc 1 2865 0
 5799 0008 7B68     		ldr	r3, [r7, #4]
 5800 000a 93F84130 		ldrb	r3, [r3, #65]
 5801 000e DBB2     		uxtb	r3, r3
 5802 0010 202B     		cmp	r3, #32
 5803 0012 0CD1     		bne	.L297
2866:Drivers/STM32F3xx_HAL_Driver/Src/stm32f3xx_hal_i2c.c ****   {
2867:Drivers/STM32F3xx_HAL_Driver/Src/stm32f3xx_hal_i2c.c ****     hi2c->State = HAL_I2C_STATE_LISTEN;
 5804              		.loc 1 2867 0
 5805 0014 7B68     		ldr	r3, [r7, #4]
 5806 0016 2822     		movs	r2, #40
 5807 0018 83F84120 		strb	r2, [r3, #65]
2868:Drivers/STM32F3xx_HAL_Driver/Src/stm32f3xx_hal_i2c.c ****     hi2c->XferISR = I2C_Slave_ISR_IT;
 5808              		.loc 1 2868 0
 5809 001c 7B68     		ldr	r3, [r7, #4]
 5810 001e 064A     		ldr	r2, .L299
 5811 0020 5A63     		str	r2, [r3, #52]
2869:Drivers/STM32F3xx_HAL_Driver/Src/stm32f3xx_hal_i2c.c **** 
2870:Drivers/STM32F3xx_HAL_Driver/Src/stm32f3xx_hal_i2c.c ****     /* Enable the Address Match interrupt */
2871:Drivers/STM32F3xx_HAL_Driver/Src/stm32f3xx_hal_i2c.c ****     I2C_Enable_IRQ(hi2c, I2C_XFER_LISTEN_IT);
 5812              		.loc 1 2871 0
 5813 0022 0421     		movs	r1, #4
 5814 0024 7868     		ldr	r0, [r7, #4]
 5815 0026 FFF7FEFF 		bl	I2C_Enable_IRQ
2872:Drivers/STM32F3xx_HAL_Driver/Src/stm32f3xx_hal_i2c.c **** 
2873:Drivers/STM32F3xx_HAL_Driver/Src/stm32f3xx_hal_i2c.c ****     return HAL_OK;
 5816              		.loc 1 2873 0
 5817 002a 0023     		movs	r3, #0
 5818 002c 00E0     		b	.L298
 5819              	.L297:
2874:Drivers/STM32F3xx_HAL_Driver/Src/stm32f3xx_hal_i2c.c ****   }
2875:Drivers/STM32F3xx_HAL_Driver/Src/stm32f3xx_hal_i2c.c ****   else
2876:Drivers/STM32F3xx_HAL_Driver/Src/stm32f3xx_hal_i2c.c ****   {
2877:Drivers/STM32F3xx_HAL_Driver/Src/stm32f3xx_hal_i2c.c ****     return HAL_BUSY;
 5820              		.loc 1 2877 0
 5821 002e 0223     		movs	r3, #2
 5822              	.L298:
2878:Drivers/STM32F3xx_HAL_Driver/Src/stm32f3xx_hal_i2c.c ****   }
2879:Drivers/STM32F3xx_HAL_Driver/Src/stm32f3xx_hal_i2c.c **** }
 5823              		.loc 1 2879 0
 5824 0030 1846     		mov	r0, r3
 5825 0032 0837     		adds	r7, r7, #8
 5826              	.LCFI140:
 5827              		.cfi_def_cfa_offset 8
 5828 0034 BD46     		mov	sp, r7
 5829              	.LCFI141:
 5830              		.cfi_def_cfa_register 13
 5831              		@ sp needed
 5832 0036 80BD     		pop	{r7, pc}
 5833              	.L300:
 5834              		.align	2
 5835              	.L299:
ARM GAS  /tmp/ccy0jiyr.s 			page 153


 5836 0038 00000000 		.word	I2C_Slave_ISR_IT
 5837              		.cfi_endproc
 5838              	.LFE722:
 5840              		.section	.text.HAL_I2C_DisableListen_IT,"ax",%progbits
 5841              		.align	1
 5842              		.global	HAL_I2C_DisableListen_IT
 5843              		.syntax unified
 5844              		.thumb
 5845              		.thumb_func
 5846              		.fpu fpv4-sp-d16
 5848              	HAL_I2C_DisableListen_IT:
 5849              	.LFB723:
2880:Drivers/STM32F3xx_HAL_Driver/Src/stm32f3xx_hal_i2c.c **** 
2881:Drivers/STM32F3xx_HAL_Driver/Src/stm32f3xx_hal_i2c.c **** /**
2882:Drivers/STM32F3xx_HAL_Driver/Src/stm32f3xx_hal_i2c.c ****   * @brief  Disable the Address listen mode with Interrupt.
2883:Drivers/STM32F3xx_HAL_Driver/Src/stm32f3xx_hal_i2c.c ****   * @param  hi2c Pointer to a I2C_HandleTypeDef structure that contains
2884:Drivers/STM32F3xx_HAL_Driver/Src/stm32f3xx_hal_i2c.c ****   *                the configuration information for the specified I2C
2885:Drivers/STM32F3xx_HAL_Driver/Src/stm32f3xx_hal_i2c.c ****   * @retval HAL status
2886:Drivers/STM32F3xx_HAL_Driver/Src/stm32f3xx_hal_i2c.c ****   */
2887:Drivers/STM32F3xx_HAL_Driver/Src/stm32f3xx_hal_i2c.c **** HAL_StatusTypeDef HAL_I2C_DisableListen_IT(I2C_HandleTypeDef *hi2c)
2888:Drivers/STM32F3xx_HAL_Driver/Src/stm32f3xx_hal_i2c.c **** {
 5850              		.loc 1 2888 0
 5851              		.cfi_startproc
 5852              		@ args = 0, pretend = 0, frame = 16
 5853              		@ frame_needed = 1, uses_anonymous_args = 0
 5854 0000 80B5     		push	{r7, lr}
 5855              	.LCFI142:
 5856              		.cfi_def_cfa_offset 8
 5857              		.cfi_offset 7, -8
 5858              		.cfi_offset 14, -4
 5859 0002 84B0     		sub	sp, sp, #16
 5860              	.LCFI143:
 5861              		.cfi_def_cfa_offset 24
 5862 0004 00AF     		add	r7, sp, #0
 5863              	.LCFI144:
 5864              		.cfi_def_cfa_register 7
 5865 0006 7860     		str	r0, [r7, #4]
2889:Drivers/STM32F3xx_HAL_Driver/Src/stm32f3xx_hal_i2c.c ****   /* Declaration of tmp to prevent undefined behavior of volatile usage */
2890:Drivers/STM32F3xx_HAL_Driver/Src/stm32f3xx_hal_i2c.c ****   uint32_t tmp;
2891:Drivers/STM32F3xx_HAL_Driver/Src/stm32f3xx_hal_i2c.c **** 
2892:Drivers/STM32F3xx_HAL_Driver/Src/stm32f3xx_hal_i2c.c ****   /* Disable Address listen mode only if a transfer is not ongoing */
2893:Drivers/STM32F3xx_HAL_Driver/Src/stm32f3xx_hal_i2c.c ****   if (hi2c->State == HAL_I2C_STATE_LISTEN)
 5866              		.loc 1 2893 0
 5867 0008 7B68     		ldr	r3, [r7, #4]
 5868 000a 93F84130 		ldrb	r3, [r3, #65]
 5869 000e DBB2     		uxtb	r3, r3
 5870 0010 282B     		cmp	r3, #40
 5871 0012 20D1     		bne	.L302
2894:Drivers/STM32F3xx_HAL_Driver/Src/stm32f3xx_hal_i2c.c ****   {
2895:Drivers/STM32F3xx_HAL_Driver/Src/stm32f3xx_hal_i2c.c ****     tmp = (uint32_t)(hi2c->State) & I2C_STATE_MSK;
 5872              		.loc 1 2895 0
 5873 0014 7B68     		ldr	r3, [r7, #4]
 5874 0016 93F84130 		ldrb	r3, [r3, #65]
 5875 001a DBB2     		uxtb	r3, r3
 5876 001c 03F00303 		and	r3, r3, #3
 5877 0020 FB60     		str	r3, [r7, #12]
2896:Drivers/STM32F3xx_HAL_Driver/Src/stm32f3xx_hal_i2c.c ****     hi2c->PreviousState = tmp | (uint32_t)(hi2c->Mode);
ARM GAS  /tmp/ccy0jiyr.s 			page 154


 5878              		.loc 1 2896 0
 5879 0022 7B68     		ldr	r3, [r7, #4]
 5880 0024 93F84230 		ldrb	r3, [r3, #66]
 5881 0028 DBB2     		uxtb	r3, r3
 5882 002a 1A46     		mov	r2, r3
 5883 002c FB68     		ldr	r3, [r7, #12]
 5884 002e 1A43     		orrs	r2, r2, r3
 5885 0030 7B68     		ldr	r3, [r7, #4]
 5886 0032 1A63     		str	r2, [r3, #48]
2897:Drivers/STM32F3xx_HAL_Driver/Src/stm32f3xx_hal_i2c.c ****     hi2c->State = HAL_I2C_STATE_READY;
 5887              		.loc 1 2897 0
 5888 0034 7B68     		ldr	r3, [r7, #4]
 5889 0036 2022     		movs	r2, #32
 5890 0038 83F84120 		strb	r2, [r3, #65]
2898:Drivers/STM32F3xx_HAL_Driver/Src/stm32f3xx_hal_i2c.c ****     hi2c->Mode = HAL_I2C_MODE_NONE;
 5891              		.loc 1 2898 0
 5892 003c 7B68     		ldr	r3, [r7, #4]
 5893 003e 0022     		movs	r2, #0
 5894 0040 83F84220 		strb	r2, [r3, #66]
2899:Drivers/STM32F3xx_HAL_Driver/Src/stm32f3xx_hal_i2c.c ****     hi2c->XferISR = NULL;
 5895              		.loc 1 2899 0
 5896 0044 7B68     		ldr	r3, [r7, #4]
 5897 0046 0022     		movs	r2, #0
 5898 0048 5A63     		str	r2, [r3, #52]
2900:Drivers/STM32F3xx_HAL_Driver/Src/stm32f3xx_hal_i2c.c **** 
2901:Drivers/STM32F3xx_HAL_Driver/Src/stm32f3xx_hal_i2c.c ****     /* Disable the Address Match interrupt */
2902:Drivers/STM32F3xx_HAL_Driver/Src/stm32f3xx_hal_i2c.c ****     I2C_Disable_IRQ(hi2c, I2C_XFER_LISTEN_IT);
 5899              		.loc 1 2902 0
 5900 004a 0421     		movs	r1, #4
 5901 004c 7868     		ldr	r0, [r7, #4]
 5902 004e FFF7FEFF 		bl	I2C_Disable_IRQ
2903:Drivers/STM32F3xx_HAL_Driver/Src/stm32f3xx_hal_i2c.c **** 
2904:Drivers/STM32F3xx_HAL_Driver/Src/stm32f3xx_hal_i2c.c ****     return HAL_OK;
 5903              		.loc 1 2904 0
 5904 0052 0023     		movs	r3, #0
 5905 0054 00E0     		b	.L303
 5906              	.L302:
2905:Drivers/STM32F3xx_HAL_Driver/Src/stm32f3xx_hal_i2c.c ****   }
2906:Drivers/STM32F3xx_HAL_Driver/Src/stm32f3xx_hal_i2c.c ****   else
2907:Drivers/STM32F3xx_HAL_Driver/Src/stm32f3xx_hal_i2c.c ****   {
2908:Drivers/STM32F3xx_HAL_Driver/Src/stm32f3xx_hal_i2c.c ****     return HAL_BUSY;
 5907              		.loc 1 2908 0
 5908 0056 0223     		movs	r3, #2
 5909              	.L303:
2909:Drivers/STM32F3xx_HAL_Driver/Src/stm32f3xx_hal_i2c.c ****   }
2910:Drivers/STM32F3xx_HAL_Driver/Src/stm32f3xx_hal_i2c.c **** }
 5910              		.loc 1 2910 0
 5911 0058 1846     		mov	r0, r3
 5912 005a 1037     		adds	r7, r7, #16
 5913              	.LCFI145:
 5914              		.cfi_def_cfa_offset 8
 5915 005c BD46     		mov	sp, r7
 5916              	.LCFI146:
 5917              		.cfi_def_cfa_register 13
 5918              		@ sp needed
 5919 005e 80BD     		pop	{r7, pc}
 5920              		.cfi_endproc
ARM GAS  /tmp/ccy0jiyr.s 			page 155


 5921              	.LFE723:
 5923              		.section	.text.HAL_I2C_Master_Abort_IT,"ax",%progbits
 5924              		.align	1
 5925              		.global	HAL_I2C_Master_Abort_IT
 5926              		.syntax unified
 5927              		.thumb
 5928              		.thumb_func
 5929              		.fpu fpv4-sp-d16
 5931              	HAL_I2C_Master_Abort_IT:
 5932              	.LFB724:
2911:Drivers/STM32F3xx_HAL_Driver/Src/stm32f3xx_hal_i2c.c **** 
2912:Drivers/STM32F3xx_HAL_Driver/Src/stm32f3xx_hal_i2c.c **** /**
2913:Drivers/STM32F3xx_HAL_Driver/Src/stm32f3xx_hal_i2c.c ****   * @brief  Abort a master I2C IT or DMA process communication with Interrupt.
2914:Drivers/STM32F3xx_HAL_Driver/Src/stm32f3xx_hal_i2c.c ****   * @param  hi2c Pointer to a I2C_HandleTypeDef structure that contains
2915:Drivers/STM32F3xx_HAL_Driver/Src/stm32f3xx_hal_i2c.c ****   *                the configuration information for the specified I2C.
2916:Drivers/STM32F3xx_HAL_Driver/Src/stm32f3xx_hal_i2c.c ****   * @param  DevAddress Target device address: The device 7 bits address value
2917:Drivers/STM32F3xx_HAL_Driver/Src/stm32f3xx_hal_i2c.c ****   *         in datasheet must be shift at right before call interface
2918:Drivers/STM32F3xx_HAL_Driver/Src/stm32f3xx_hal_i2c.c ****   * @retval HAL status
2919:Drivers/STM32F3xx_HAL_Driver/Src/stm32f3xx_hal_i2c.c ****   */
2920:Drivers/STM32F3xx_HAL_Driver/Src/stm32f3xx_hal_i2c.c **** HAL_StatusTypeDef HAL_I2C_Master_Abort_IT(I2C_HandleTypeDef *hi2c, uint16_t DevAddress)
2921:Drivers/STM32F3xx_HAL_Driver/Src/stm32f3xx_hal_i2c.c **** {
 5933              		.loc 1 2921 0
 5934              		.cfi_startproc
 5935              		@ args = 0, pretend = 0, frame = 8
 5936              		@ frame_needed = 1, uses_anonymous_args = 0
 5937 0000 80B5     		push	{r7, lr}
 5938              	.LCFI147:
 5939              		.cfi_def_cfa_offset 8
 5940              		.cfi_offset 7, -8
 5941              		.cfi_offset 14, -4
 5942 0002 84B0     		sub	sp, sp, #16
 5943              	.LCFI148:
 5944              		.cfi_def_cfa_offset 24
 5945 0004 02AF     		add	r7, sp, #8
 5946              	.LCFI149:
 5947              		.cfi_def_cfa 7, 16
 5948 0006 7860     		str	r0, [r7, #4]
 5949 0008 0B46     		mov	r3, r1
 5950 000a 7B80     		strh	r3, [r7, #2]	@ movhi
2922:Drivers/STM32F3xx_HAL_Driver/Src/stm32f3xx_hal_i2c.c ****   if (hi2c->Mode == HAL_I2C_MODE_MASTER)
 5951              		.loc 1 2922 0
 5952 000c 7B68     		ldr	r3, [r7, #4]
 5953 000e 93F84230 		ldrb	r3, [r3, #66]
 5954 0012 DBB2     		uxtb	r3, r3
 5955 0014 102B     		cmp	r3, #16
 5956 0016 2AD1     		bne	.L305
2923:Drivers/STM32F3xx_HAL_Driver/Src/stm32f3xx_hal_i2c.c ****   {
2924:Drivers/STM32F3xx_HAL_Driver/Src/stm32f3xx_hal_i2c.c ****     /* Process Locked */
2925:Drivers/STM32F3xx_HAL_Driver/Src/stm32f3xx_hal_i2c.c ****     __HAL_LOCK(hi2c);
 5957              		.loc 1 2925 0
 5958 0018 7B68     		ldr	r3, [r7, #4]
 5959 001a 93F84030 		ldrb	r3, [r3, #64]	@ zero_extendqisi2
 5960 001e 012B     		cmp	r3, #1
 5961 0020 01D1     		bne	.L306
 5962              		.loc 1 2925 0 is_stmt 0 discriminator 1
 5963 0022 0223     		movs	r3, #2
 5964 0024 24E0     		b	.L307
ARM GAS  /tmp/ccy0jiyr.s 			page 156


 5965              	.L306:
 5966              		.loc 1 2925 0 discriminator 2
 5967 0026 7B68     		ldr	r3, [r7, #4]
 5968 0028 0122     		movs	r2, #1
 5969 002a 83F84020 		strb	r2, [r3, #64]
2926:Drivers/STM32F3xx_HAL_Driver/Src/stm32f3xx_hal_i2c.c **** 
2927:Drivers/STM32F3xx_HAL_Driver/Src/stm32f3xx_hal_i2c.c ****     /* Disable Interrupts */
2928:Drivers/STM32F3xx_HAL_Driver/Src/stm32f3xx_hal_i2c.c ****     I2C_Disable_IRQ(hi2c, I2C_XFER_RX_IT);
 5970              		.loc 1 2928 0 is_stmt 1 discriminator 2
 5971 002e 0221     		movs	r1, #2
 5972 0030 7868     		ldr	r0, [r7, #4]
 5973 0032 FFF7FEFF 		bl	I2C_Disable_IRQ
2929:Drivers/STM32F3xx_HAL_Driver/Src/stm32f3xx_hal_i2c.c ****     I2C_Disable_IRQ(hi2c, I2C_XFER_TX_IT);
 5974              		.loc 1 2929 0 discriminator 2
 5975 0036 0121     		movs	r1, #1
 5976 0038 7868     		ldr	r0, [r7, #4]
 5977 003a FFF7FEFF 		bl	I2C_Disable_IRQ
2930:Drivers/STM32F3xx_HAL_Driver/Src/stm32f3xx_hal_i2c.c **** 
2931:Drivers/STM32F3xx_HAL_Driver/Src/stm32f3xx_hal_i2c.c ****     /* Set State at HAL_I2C_STATE_ABORT */
2932:Drivers/STM32F3xx_HAL_Driver/Src/stm32f3xx_hal_i2c.c ****     hi2c->State = HAL_I2C_STATE_ABORT;
 5978              		.loc 1 2932 0 discriminator 2
 5979 003e 7B68     		ldr	r3, [r7, #4]
 5980 0040 6022     		movs	r2, #96
 5981 0042 83F84120 		strb	r2, [r3, #65]
2933:Drivers/STM32F3xx_HAL_Driver/Src/stm32f3xx_hal_i2c.c **** 
2934:Drivers/STM32F3xx_HAL_Driver/Src/stm32f3xx_hal_i2c.c ****     /* Set NBYTES to 1 to generate a dummy read on I2C peripheral */
2935:Drivers/STM32F3xx_HAL_Driver/Src/stm32f3xx_hal_i2c.c ****     /* Set AUTOEND mode, this will generate a NACK then STOP condition to abort the current transfe
2936:Drivers/STM32F3xx_HAL_Driver/Src/stm32f3xx_hal_i2c.c ****     I2C_TransferConfig(hi2c, DevAddress, 1, I2C_AUTOEND_MODE, I2C_GENERATE_STOP);
 5982              		.loc 1 2936 0 discriminator 2
 5983 0046 7988     		ldrh	r1, [r7, #2]
 5984 0048 4FF48043 		mov	r3, #16384
 5985 004c 0093     		str	r3, [sp]
 5986 004e 4FF00073 		mov	r3, #33554432
 5987 0052 0122     		movs	r2, #1
 5988 0054 7868     		ldr	r0, [r7, #4]
 5989 0056 FFF7FEFF 		bl	I2C_TransferConfig
2937:Drivers/STM32F3xx_HAL_Driver/Src/stm32f3xx_hal_i2c.c **** 
2938:Drivers/STM32F3xx_HAL_Driver/Src/stm32f3xx_hal_i2c.c ****     /* Process Unlocked */
2939:Drivers/STM32F3xx_HAL_Driver/Src/stm32f3xx_hal_i2c.c ****     __HAL_UNLOCK(hi2c);
 5990              		.loc 1 2939 0 discriminator 2
 5991 005a 7B68     		ldr	r3, [r7, #4]
 5992 005c 0022     		movs	r2, #0
 5993 005e 83F84020 		strb	r2, [r3, #64]
2940:Drivers/STM32F3xx_HAL_Driver/Src/stm32f3xx_hal_i2c.c **** 
2941:Drivers/STM32F3xx_HAL_Driver/Src/stm32f3xx_hal_i2c.c ****     /* Note : The I2C interrupts must be enabled after unlocking current process
2942:Drivers/STM32F3xx_HAL_Driver/Src/stm32f3xx_hal_i2c.c ****               to avoid the risk of I2C interrupt handle execution before current
2943:Drivers/STM32F3xx_HAL_Driver/Src/stm32f3xx_hal_i2c.c ****               process unlock */
2944:Drivers/STM32F3xx_HAL_Driver/Src/stm32f3xx_hal_i2c.c ****     I2C_Enable_IRQ(hi2c, I2C_XFER_CPLT_IT);
 5994              		.loc 1 2944 0 discriminator 2
 5995 0062 1221     		movs	r1, #18
 5996 0064 7868     		ldr	r0, [r7, #4]
 5997 0066 FFF7FEFF 		bl	I2C_Enable_IRQ
2945:Drivers/STM32F3xx_HAL_Driver/Src/stm32f3xx_hal_i2c.c **** 
2946:Drivers/STM32F3xx_HAL_Driver/Src/stm32f3xx_hal_i2c.c ****     return HAL_OK;
 5998              		.loc 1 2946 0 discriminator 2
 5999 006a 0023     		movs	r3, #0
 6000 006c 00E0     		b	.L307
ARM GAS  /tmp/ccy0jiyr.s 			page 157


 6001              	.L305:
2947:Drivers/STM32F3xx_HAL_Driver/Src/stm32f3xx_hal_i2c.c ****   }
2948:Drivers/STM32F3xx_HAL_Driver/Src/stm32f3xx_hal_i2c.c ****   else
2949:Drivers/STM32F3xx_HAL_Driver/Src/stm32f3xx_hal_i2c.c ****   {
2950:Drivers/STM32F3xx_HAL_Driver/Src/stm32f3xx_hal_i2c.c ****     /* Wrong usage of abort function */
2951:Drivers/STM32F3xx_HAL_Driver/Src/stm32f3xx_hal_i2c.c ****     /* This function should be used only in case of abort monitored by master device */
2952:Drivers/STM32F3xx_HAL_Driver/Src/stm32f3xx_hal_i2c.c ****     return HAL_ERROR;
 6002              		.loc 1 2952 0
 6003 006e 0123     		movs	r3, #1
 6004              	.L307:
2953:Drivers/STM32F3xx_HAL_Driver/Src/stm32f3xx_hal_i2c.c ****   }
2954:Drivers/STM32F3xx_HAL_Driver/Src/stm32f3xx_hal_i2c.c **** }
 6005              		.loc 1 2954 0
 6006 0070 1846     		mov	r0, r3
 6007 0072 0837     		adds	r7, r7, #8
 6008              	.LCFI150:
 6009              		.cfi_def_cfa_offset 8
 6010 0074 BD46     		mov	sp, r7
 6011              	.LCFI151:
 6012              		.cfi_def_cfa_register 13
 6013              		@ sp needed
 6014 0076 80BD     		pop	{r7, pc}
 6015              		.cfi_endproc
 6016              	.LFE724:
 6018              		.section	.text.HAL_I2C_EV_IRQHandler,"ax",%progbits
 6019              		.align	1
 6020              		.global	HAL_I2C_EV_IRQHandler
 6021              		.syntax unified
 6022              		.thumb
 6023              		.thumb_func
 6024              		.fpu fpv4-sp-d16
 6026              	HAL_I2C_EV_IRQHandler:
 6027              	.LFB725:
2955:Drivers/STM32F3xx_HAL_Driver/Src/stm32f3xx_hal_i2c.c **** 
2956:Drivers/STM32F3xx_HAL_Driver/Src/stm32f3xx_hal_i2c.c **** /**
2957:Drivers/STM32F3xx_HAL_Driver/Src/stm32f3xx_hal_i2c.c ****   * @}
2958:Drivers/STM32F3xx_HAL_Driver/Src/stm32f3xx_hal_i2c.c ****   */
2959:Drivers/STM32F3xx_HAL_Driver/Src/stm32f3xx_hal_i2c.c **** 
2960:Drivers/STM32F3xx_HAL_Driver/Src/stm32f3xx_hal_i2c.c **** /** @defgroup I2C_IRQ_Handler_and_Callbacks IRQ Handler and Callbacks
2961:Drivers/STM32F3xx_HAL_Driver/Src/stm32f3xx_hal_i2c.c ****  * @{
2962:Drivers/STM32F3xx_HAL_Driver/Src/stm32f3xx_hal_i2c.c ****  */
2963:Drivers/STM32F3xx_HAL_Driver/Src/stm32f3xx_hal_i2c.c **** 
2964:Drivers/STM32F3xx_HAL_Driver/Src/stm32f3xx_hal_i2c.c **** /**
2965:Drivers/STM32F3xx_HAL_Driver/Src/stm32f3xx_hal_i2c.c ****   * @brief  This function handles I2C event interrupt request.
2966:Drivers/STM32F3xx_HAL_Driver/Src/stm32f3xx_hal_i2c.c ****   * @param  hi2c Pointer to a I2C_HandleTypeDef structure that contains
2967:Drivers/STM32F3xx_HAL_Driver/Src/stm32f3xx_hal_i2c.c ****   *                the configuration information for the specified I2C.
2968:Drivers/STM32F3xx_HAL_Driver/Src/stm32f3xx_hal_i2c.c ****   * @retval None
2969:Drivers/STM32F3xx_HAL_Driver/Src/stm32f3xx_hal_i2c.c ****   */
2970:Drivers/STM32F3xx_HAL_Driver/Src/stm32f3xx_hal_i2c.c **** void HAL_I2C_EV_IRQHandler(I2C_HandleTypeDef *hi2c)
2971:Drivers/STM32F3xx_HAL_Driver/Src/stm32f3xx_hal_i2c.c **** {
 6028              		.loc 1 2971 0
 6029              		.cfi_startproc
 6030              		@ args = 0, pretend = 0, frame = 16
 6031              		@ frame_needed = 1, uses_anonymous_args = 0
 6032 0000 80B5     		push	{r7, lr}
 6033              	.LCFI152:
 6034              		.cfi_def_cfa_offset 8
ARM GAS  /tmp/ccy0jiyr.s 			page 158


 6035              		.cfi_offset 7, -8
 6036              		.cfi_offset 14, -4
 6037 0002 84B0     		sub	sp, sp, #16
 6038              	.LCFI153:
 6039              		.cfi_def_cfa_offset 24
 6040 0004 00AF     		add	r7, sp, #0
 6041              	.LCFI154:
 6042              		.cfi_def_cfa_register 7
 6043 0006 7860     		str	r0, [r7, #4]
2972:Drivers/STM32F3xx_HAL_Driver/Src/stm32f3xx_hal_i2c.c ****   /* Get current IT Flags and IT sources value */
2973:Drivers/STM32F3xx_HAL_Driver/Src/stm32f3xx_hal_i2c.c ****   uint32_t itflags   = READ_REG(hi2c->Instance->ISR);
 6044              		.loc 1 2973 0
 6045 0008 7B68     		ldr	r3, [r7, #4]
 6046 000a 1B68     		ldr	r3, [r3]
 6047 000c 9B69     		ldr	r3, [r3, #24]
 6048 000e FB60     		str	r3, [r7, #12]
2974:Drivers/STM32F3xx_HAL_Driver/Src/stm32f3xx_hal_i2c.c ****   uint32_t itsources = READ_REG(hi2c->Instance->CR1);
 6049              		.loc 1 2974 0
 6050 0010 7B68     		ldr	r3, [r7, #4]
 6051 0012 1B68     		ldr	r3, [r3]
 6052 0014 1B68     		ldr	r3, [r3]
 6053 0016 BB60     		str	r3, [r7, #8]
2975:Drivers/STM32F3xx_HAL_Driver/Src/stm32f3xx_hal_i2c.c **** 
2976:Drivers/STM32F3xx_HAL_Driver/Src/stm32f3xx_hal_i2c.c ****   /* I2C events treatment -------------------------------------*/
2977:Drivers/STM32F3xx_HAL_Driver/Src/stm32f3xx_hal_i2c.c ****   if (hi2c->XferISR != NULL)
 6054              		.loc 1 2977 0
 6055 0018 7B68     		ldr	r3, [r7, #4]
 6056 001a 5B6B     		ldr	r3, [r3, #52]
 6057 001c 002B     		cmp	r3, #0
 6058 001e 05D0     		beq	.L310
2978:Drivers/STM32F3xx_HAL_Driver/Src/stm32f3xx_hal_i2c.c ****   {
2979:Drivers/STM32F3xx_HAL_Driver/Src/stm32f3xx_hal_i2c.c ****     hi2c->XferISR(hi2c, itflags, itsources);
 6059              		.loc 1 2979 0
 6060 0020 7B68     		ldr	r3, [r7, #4]
 6061 0022 5B6B     		ldr	r3, [r3, #52]
 6062 0024 BA68     		ldr	r2, [r7, #8]
 6063 0026 F968     		ldr	r1, [r7, #12]
 6064 0028 7868     		ldr	r0, [r7, #4]
 6065 002a 9847     		blx	r3
 6066              	.LVL0:
 6067              	.L310:
2980:Drivers/STM32F3xx_HAL_Driver/Src/stm32f3xx_hal_i2c.c ****   }
2981:Drivers/STM32F3xx_HAL_Driver/Src/stm32f3xx_hal_i2c.c **** }
 6068              		.loc 1 2981 0
 6069 002c 00BF     		nop
 6070 002e 1037     		adds	r7, r7, #16
 6071              	.LCFI155:
 6072              		.cfi_def_cfa_offset 8
 6073 0030 BD46     		mov	sp, r7
 6074              	.LCFI156:
 6075              		.cfi_def_cfa_register 13
 6076              		@ sp needed
 6077 0032 80BD     		pop	{r7, pc}
 6078              		.cfi_endproc
 6079              	.LFE725:
 6081              		.section	.text.HAL_I2C_ER_IRQHandler,"ax",%progbits
 6082              		.align	1
ARM GAS  /tmp/ccy0jiyr.s 			page 159


 6083              		.global	HAL_I2C_ER_IRQHandler
 6084              		.syntax unified
 6085              		.thumb
 6086              		.thumb_func
 6087              		.fpu fpv4-sp-d16
 6089              	HAL_I2C_ER_IRQHandler:
 6090              	.LFB726:
2982:Drivers/STM32F3xx_HAL_Driver/Src/stm32f3xx_hal_i2c.c **** 
2983:Drivers/STM32F3xx_HAL_Driver/Src/stm32f3xx_hal_i2c.c **** /**
2984:Drivers/STM32F3xx_HAL_Driver/Src/stm32f3xx_hal_i2c.c ****   * @brief  This function handles I2C error interrupt request.
2985:Drivers/STM32F3xx_HAL_Driver/Src/stm32f3xx_hal_i2c.c ****   * @param  hi2c Pointer to a I2C_HandleTypeDef structure that contains
2986:Drivers/STM32F3xx_HAL_Driver/Src/stm32f3xx_hal_i2c.c ****   *                the configuration information for the specified I2C.
2987:Drivers/STM32F3xx_HAL_Driver/Src/stm32f3xx_hal_i2c.c ****   * @retval None
2988:Drivers/STM32F3xx_HAL_Driver/Src/stm32f3xx_hal_i2c.c ****   */
2989:Drivers/STM32F3xx_HAL_Driver/Src/stm32f3xx_hal_i2c.c **** void HAL_I2C_ER_IRQHandler(I2C_HandleTypeDef *hi2c)
2990:Drivers/STM32F3xx_HAL_Driver/Src/stm32f3xx_hal_i2c.c **** {
 6091              		.loc 1 2990 0
 6092              		.cfi_startproc
 6093              		@ args = 0, pretend = 0, frame = 16
 6094              		@ frame_needed = 1, uses_anonymous_args = 0
 6095 0000 80B5     		push	{r7, lr}
 6096              	.LCFI157:
 6097              		.cfi_def_cfa_offset 8
 6098              		.cfi_offset 7, -8
 6099              		.cfi_offset 14, -4
 6100 0002 84B0     		sub	sp, sp, #16
 6101              	.LCFI158:
 6102              		.cfi_def_cfa_offset 24
 6103 0004 00AF     		add	r7, sp, #0
 6104              	.LCFI159:
 6105              		.cfi_def_cfa_register 7
 6106 0006 7860     		str	r0, [r7, #4]
2991:Drivers/STM32F3xx_HAL_Driver/Src/stm32f3xx_hal_i2c.c ****   uint32_t itflags   = READ_REG(hi2c->Instance->ISR);
 6107              		.loc 1 2991 0
 6108 0008 7B68     		ldr	r3, [r7, #4]
 6109 000a 1B68     		ldr	r3, [r3]
 6110 000c 9B69     		ldr	r3, [r3, #24]
 6111 000e FB60     		str	r3, [r7, #12]
2992:Drivers/STM32F3xx_HAL_Driver/Src/stm32f3xx_hal_i2c.c ****   uint32_t itsources = READ_REG(hi2c->Instance->CR1);
 6112              		.loc 1 2992 0
 6113 0010 7B68     		ldr	r3, [r7, #4]
 6114 0012 1B68     		ldr	r3, [r3]
 6115 0014 1B68     		ldr	r3, [r3]
 6116 0016 BB60     		str	r3, [r7, #8]
2993:Drivers/STM32F3xx_HAL_Driver/Src/stm32f3xx_hal_i2c.c **** 
2994:Drivers/STM32F3xx_HAL_Driver/Src/stm32f3xx_hal_i2c.c ****   /* I2C Bus error interrupt occurred ------------------------------------*/
2995:Drivers/STM32F3xx_HAL_Driver/Src/stm32f3xx_hal_i2c.c ****   if (((itflags & I2C_FLAG_BERR) != RESET) && ((itsources & I2C_IT_ERRI) != RESET))
 6117              		.loc 1 2995 0
 6118 0018 FB68     		ldr	r3, [r7, #12]
 6119 001a 03F48073 		and	r3, r3, #256
 6120 001e 002B     		cmp	r3, #0
 6121 0020 0FD0     		beq	.L312
 6122              		.loc 1 2995 0 is_stmt 0 discriminator 1
 6123 0022 BB68     		ldr	r3, [r7, #8]
 6124 0024 03F08003 		and	r3, r3, #128
 6125 0028 002B     		cmp	r3, #0
 6126 002a 0AD0     		beq	.L312
ARM GAS  /tmp/ccy0jiyr.s 			page 160


2996:Drivers/STM32F3xx_HAL_Driver/Src/stm32f3xx_hal_i2c.c ****   {
2997:Drivers/STM32F3xx_HAL_Driver/Src/stm32f3xx_hal_i2c.c ****     hi2c->ErrorCode |= HAL_I2C_ERROR_BERR;
 6127              		.loc 1 2997 0 is_stmt 1
 6128 002c 7B68     		ldr	r3, [r7, #4]
 6129 002e 5B6C     		ldr	r3, [r3, #68]
 6130 0030 43F00102 		orr	r2, r3, #1
 6131 0034 7B68     		ldr	r3, [r7, #4]
 6132 0036 5A64     		str	r2, [r3, #68]
2998:Drivers/STM32F3xx_HAL_Driver/Src/stm32f3xx_hal_i2c.c **** 
2999:Drivers/STM32F3xx_HAL_Driver/Src/stm32f3xx_hal_i2c.c ****     /* Clear BERR flag */
3000:Drivers/STM32F3xx_HAL_Driver/Src/stm32f3xx_hal_i2c.c ****     __HAL_I2C_CLEAR_FLAG(hi2c, I2C_FLAG_BERR);
 6133              		.loc 1 3000 0
 6134 0038 7B68     		ldr	r3, [r7, #4]
 6135 003a 1B68     		ldr	r3, [r3]
 6136 003c 4FF48072 		mov	r2, #256
 6137 0040 DA61     		str	r2, [r3, #28]
 6138              	.L312:
3001:Drivers/STM32F3xx_HAL_Driver/Src/stm32f3xx_hal_i2c.c ****   }
3002:Drivers/STM32F3xx_HAL_Driver/Src/stm32f3xx_hal_i2c.c **** 
3003:Drivers/STM32F3xx_HAL_Driver/Src/stm32f3xx_hal_i2c.c ****   /* I2C Over-Run/Under-Run interrupt occurred ----------------------------------------*/
3004:Drivers/STM32F3xx_HAL_Driver/Src/stm32f3xx_hal_i2c.c ****   if (((itflags & I2C_FLAG_OVR) != RESET) && ((itsources & I2C_IT_ERRI) != RESET))
 6139              		.loc 1 3004 0
 6140 0042 FB68     		ldr	r3, [r7, #12]
 6141 0044 03F48063 		and	r3, r3, #1024
 6142 0048 002B     		cmp	r3, #0
 6143 004a 0FD0     		beq	.L313
 6144              		.loc 1 3004 0 is_stmt 0 discriminator 1
 6145 004c BB68     		ldr	r3, [r7, #8]
 6146 004e 03F08003 		and	r3, r3, #128
 6147 0052 002B     		cmp	r3, #0
 6148 0054 0AD0     		beq	.L313
3005:Drivers/STM32F3xx_HAL_Driver/Src/stm32f3xx_hal_i2c.c ****   {
3006:Drivers/STM32F3xx_HAL_Driver/Src/stm32f3xx_hal_i2c.c ****     hi2c->ErrorCode |= HAL_I2C_ERROR_OVR;
 6149              		.loc 1 3006 0 is_stmt 1
 6150 0056 7B68     		ldr	r3, [r7, #4]
 6151 0058 5B6C     		ldr	r3, [r3, #68]
 6152 005a 43F00802 		orr	r2, r3, #8
 6153 005e 7B68     		ldr	r3, [r7, #4]
 6154 0060 5A64     		str	r2, [r3, #68]
3007:Drivers/STM32F3xx_HAL_Driver/Src/stm32f3xx_hal_i2c.c **** 
3008:Drivers/STM32F3xx_HAL_Driver/Src/stm32f3xx_hal_i2c.c ****     /* Clear OVR flag */
3009:Drivers/STM32F3xx_HAL_Driver/Src/stm32f3xx_hal_i2c.c ****     __HAL_I2C_CLEAR_FLAG(hi2c, I2C_FLAG_OVR);
 6155              		.loc 1 3009 0
 6156 0062 7B68     		ldr	r3, [r7, #4]
 6157 0064 1B68     		ldr	r3, [r3]
 6158 0066 4FF48062 		mov	r2, #1024
 6159 006a DA61     		str	r2, [r3, #28]
 6160              	.L313:
3010:Drivers/STM32F3xx_HAL_Driver/Src/stm32f3xx_hal_i2c.c ****   }
3011:Drivers/STM32F3xx_HAL_Driver/Src/stm32f3xx_hal_i2c.c **** 
3012:Drivers/STM32F3xx_HAL_Driver/Src/stm32f3xx_hal_i2c.c ****   /* I2C Arbitration Loss error interrupt occurred -------------------------------------*/
3013:Drivers/STM32F3xx_HAL_Driver/Src/stm32f3xx_hal_i2c.c ****   if (((itflags & I2C_FLAG_ARLO) != RESET) && ((itsources & I2C_IT_ERRI) != RESET))
 6161              		.loc 1 3013 0
 6162 006c FB68     		ldr	r3, [r7, #12]
 6163 006e 03F40073 		and	r3, r3, #512
 6164 0072 002B     		cmp	r3, #0
 6165 0074 0FD0     		beq	.L314
ARM GAS  /tmp/ccy0jiyr.s 			page 161


 6166              		.loc 1 3013 0 is_stmt 0 discriminator 1
 6167 0076 BB68     		ldr	r3, [r7, #8]
 6168 0078 03F08003 		and	r3, r3, #128
 6169 007c 002B     		cmp	r3, #0
 6170 007e 0AD0     		beq	.L314
3014:Drivers/STM32F3xx_HAL_Driver/Src/stm32f3xx_hal_i2c.c ****   {
3015:Drivers/STM32F3xx_HAL_Driver/Src/stm32f3xx_hal_i2c.c ****     hi2c->ErrorCode |= HAL_I2C_ERROR_ARLO;
 6171              		.loc 1 3015 0 is_stmt 1
 6172 0080 7B68     		ldr	r3, [r7, #4]
 6173 0082 5B6C     		ldr	r3, [r3, #68]
 6174 0084 43F00202 		orr	r2, r3, #2
 6175 0088 7B68     		ldr	r3, [r7, #4]
 6176 008a 5A64     		str	r2, [r3, #68]
3016:Drivers/STM32F3xx_HAL_Driver/Src/stm32f3xx_hal_i2c.c **** 
3017:Drivers/STM32F3xx_HAL_Driver/Src/stm32f3xx_hal_i2c.c ****     /* Clear ARLO flag */
3018:Drivers/STM32F3xx_HAL_Driver/Src/stm32f3xx_hal_i2c.c ****     __HAL_I2C_CLEAR_FLAG(hi2c, I2C_FLAG_ARLO);
 6177              		.loc 1 3018 0
 6178 008c 7B68     		ldr	r3, [r7, #4]
 6179 008e 1B68     		ldr	r3, [r3]
 6180 0090 4FF40072 		mov	r2, #512
 6181 0094 DA61     		str	r2, [r3, #28]
 6182              	.L314:
3019:Drivers/STM32F3xx_HAL_Driver/Src/stm32f3xx_hal_i2c.c ****   }
3020:Drivers/STM32F3xx_HAL_Driver/Src/stm32f3xx_hal_i2c.c **** 
3021:Drivers/STM32F3xx_HAL_Driver/Src/stm32f3xx_hal_i2c.c ****   /* Call the Error Callback in case of Error detected */
3022:Drivers/STM32F3xx_HAL_Driver/Src/stm32f3xx_hal_i2c.c ****   if ((hi2c->ErrorCode & (HAL_I2C_ERROR_BERR | HAL_I2C_ERROR_OVR | HAL_I2C_ERROR_ARLO)) !=  HAL_I2C
 6183              		.loc 1 3022 0
 6184 0096 7B68     		ldr	r3, [r7, #4]
 6185 0098 5B6C     		ldr	r3, [r3, #68]
 6186 009a 03F00B03 		and	r3, r3, #11
 6187 009e 002B     		cmp	r3, #0
 6188 00a0 05D0     		beq	.L316
3023:Drivers/STM32F3xx_HAL_Driver/Src/stm32f3xx_hal_i2c.c ****   {
3024:Drivers/STM32F3xx_HAL_Driver/Src/stm32f3xx_hal_i2c.c ****     I2C_ITError(hi2c, hi2c->ErrorCode);
 6189              		.loc 1 3024 0
 6190 00a2 7B68     		ldr	r3, [r7, #4]
 6191 00a4 5B6C     		ldr	r3, [r3, #68]
 6192 00a6 1946     		mov	r1, r3
 6193 00a8 7868     		ldr	r0, [r7, #4]
 6194 00aa FFF7FEFF 		bl	I2C_ITError
 6195              	.L316:
3025:Drivers/STM32F3xx_HAL_Driver/Src/stm32f3xx_hal_i2c.c ****   }
3026:Drivers/STM32F3xx_HAL_Driver/Src/stm32f3xx_hal_i2c.c **** }
 6196              		.loc 1 3026 0
 6197 00ae 00BF     		nop
 6198 00b0 1037     		adds	r7, r7, #16
 6199              	.LCFI160:
 6200              		.cfi_def_cfa_offset 8
 6201 00b2 BD46     		mov	sp, r7
 6202              	.LCFI161:
 6203              		.cfi_def_cfa_register 13
 6204              		@ sp needed
 6205 00b4 80BD     		pop	{r7, pc}
 6206              		.cfi_endproc
 6207              	.LFE726:
 6209              		.section	.text.HAL_I2C_MasterTxCpltCallback,"ax",%progbits
 6210              		.align	1
ARM GAS  /tmp/ccy0jiyr.s 			page 162


 6211              		.weak	HAL_I2C_MasterTxCpltCallback
 6212              		.syntax unified
 6213              		.thumb
 6214              		.thumb_func
 6215              		.fpu fpv4-sp-d16
 6217              	HAL_I2C_MasterTxCpltCallback:
 6218              	.LFB727:
3027:Drivers/STM32F3xx_HAL_Driver/Src/stm32f3xx_hal_i2c.c **** 
3028:Drivers/STM32F3xx_HAL_Driver/Src/stm32f3xx_hal_i2c.c **** /**
3029:Drivers/STM32F3xx_HAL_Driver/Src/stm32f3xx_hal_i2c.c ****   * @brief  Master Tx Transfer completed callback.
3030:Drivers/STM32F3xx_HAL_Driver/Src/stm32f3xx_hal_i2c.c ****   * @param  hi2c Pointer to a I2C_HandleTypeDef structure that contains
3031:Drivers/STM32F3xx_HAL_Driver/Src/stm32f3xx_hal_i2c.c ****   *                the configuration information for the specified I2C.
3032:Drivers/STM32F3xx_HAL_Driver/Src/stm32f3xx_hal_i2c.c ****   * @retval None
3033:Drivers/STM32F3xx_HAL_Driver/Src/stm32f3xx_hal_i2c.c ****   */
3034:Drivers/STM32F3xx_HAL_Driver/Src/stm32f3xx_hal_i2c.c **** __weak void HAL_I2C_MasterTxCpltCallback(I2C_HandleTypeDef *hi2c)
3035:Drivers/STM32F3xx_HAL_Driver/Src/stm32f3xx_hal_i2c.c **** {
 6219              		.loc 1 3035 0
 6220              		.cfi_startproc
 6221              		@ args = 0, pretend = 0, frame = 8
 6222              		@ frame_needed = 1, uses_anonymous_args = 0
 6223              		@ link register save eliminated.
 6224 0000 80B4     		push	{r7}
 6225              	.LCFI162:
 6226              		.cfi_def_cfa_offset 4
 6227              		.cfi_offset 7, -4
 6228 0002 83B0     		sub	sp, sp, #12
 6229              	.LCFI163:
 6230              		.cfi_def_cfa_offset 16
 6231 0004 00AF     		add	r7, sp, #0
 6232              	.LCFI164:
 6233              		.cfi_def_cfa_register 7
 6234 0006 7860     		str	r0, [r7, #4]
3036:Drivers/STM32F3xx_HAL_Driver/Src/stm32f3xx_hal_i2c.c ****   /* Prevent unused argument(s) compilation warning */
3037:Drivers/STM32F3xx_HAL_Driver/Src/stm32f3xx_hal_i2c.c ****   UNUSED(hi2c);
3038:Drivers/STM32F3xx_HAL_Driver/Src/stm32f3xx_hal_i2c.c **** 
3039:Drivers/STM32F3xx_HAL_Driver/Src/stm32f3xx_hal_i2c.c ****   /* NOTE : This function should not be modified, when the callback is needed,
3040:Drivers/STM32F3xx_HAL_Driver/Src/stm32f3xx_hal_i2c.c ****             the HAL_I2C_MasterTxCpltCallback could be implemented in the user file
3041:Drivers/STM32F3xx_HAL_Driver/Src/stm32f3xx_hal_i2c.c ****    */
3042:Drivers/STM32F3xx_HAL_Driver/Src/stm32f3xx_hal_i2c.c **** }
 6235              		.loc 1 3042 0
 6236 0008 00BF     		nop
 6237 000a 0C37     		adds	r7, r7, #12
 6238              	.LCFI165:
 6239              		.cfi_def_cfa_offset 4
 6240 000c BD46     		mov	sp, r7
 6241              	.LCFI166:
 6242              		.cfi_def_cfa_register 13
 6243              		@ sp needed
 6244 000e 5DF8047B 		ldr	r7, [sp], #4
 6245              	.LCFI167:
 6246              		.cfi_restore 7
 6247              		.cfi_def_cfa_offset 0
 6248 0012 7047     		bx	lr
 6249              		.cfi_endproc
 6250              	.LFE727:
 6252              		.section	.text.HAL_I2C_MasterRxCpltCallback,"ax",%progbits
 6253              		.align	1
ARM GAS  /tmp/ccy0jiyr.s 			page 163


 6254              		.weak	HAL_I2C_MasterRxCpltCallback
 6255              		.syntax unified
 6256              		.thumb
 6257              		.thumb_func
 6258              		.fpu fpv4-sp-d16
 6260              	HAL_I2C_MasterRxCpltCallback:
 6261              	.LFB728:
3043:Drivers/STM32F3xx_HAL_Driver/Src/stm32f3xx_hal_i2c.c **** 
3044:Drivers/STM32F3xx_HAL_Driver/Src/stm32f3xx_hal_i2c.c **** /**
3045:Drivers/STM32F3xx_HAL_Driver/Src/stm32f3xx_hal_i2c.c ****   * @brief  Master Rx Transfer completed callback.
3046:Drivers/STM32F3xx_HAL_Driver/Src/stm32f3xx_hal_i2c.c ****   * @param  hi2c Pointer to a I2C_HandleTypeDef structure that contains
3047:Drivers/STM32F3xx_HAL_Driver/Src/stm32f3xx_hal_i2c.c ****   *                the configuration information for the specified I2C.
3048:Drivers/STM32F3xx_HAL_Driver/Src/stm32f3xx_hal_i2c.c ****   * @retval None
3049:Drivers/STM32F3xx_HAL_Driver/Src/stm32f3xx_hal_i2c.c ****   */
3050:Drivers/STM32F3xx_HAL_Driver/Src/stm32f3xx_hal_i2c.c **** __weak void HAL_I2C_MasterRxCpltCallback(I2C_HandleTypeDef *hi2c)
3051:Drivers/STM32F3xx_HAL_Driver/Src/stm32f3xx_hal_i2c.c **** {
 6262              		.loc 1 3051 0
 6263              		.cfi_startproc
 6264              		@ args = 0, pretend = 0, frame = 8
 6265              		@ frame_needed = 1, uses_anonymous_args = 0
 6266              		@ link register save eliminated.
 6267 0000 80B4     		push	{r7}
 6268              	.LCFI168:
 6269              		.cfi_def_cfa_offset 4
 6270              		.cfi_offset 7, -4
 6271 0002 83B0     		sub	sp, sp, #12
 6272              	.LCFI169:
 6273              		.cfi_def_cfa_offset 16
 6274 0004 00AF     		add	r7, sp, #0
 6275              	.LCFI170:
 6276              		.cfi_def_cfa_register 7
 6277 0006 7860     		str	r0, [r7, #4]
3052:Drivers/STM32F3xx_HAL_Driver/Src/stm32f3xx_hal_i2c.c ****   /* Prevent unused argument(s) compilation warning */
3053:Drivers/STM32F3xx_HAL_Driver/Src/stm32f3xx_hal_i2c.c ****   UNUSED(hi2c);
3054:Drivers/STM32F3xx_HAL_Driver/Src/stm32f3xx_hal_i2c.c **** 
3055:Drivers/STM32F3xx_HAL_Driver/Src/stm32f3xx_hal_i2c.c ****   /* NOTE : This function should not be modified, when the callback is needed,
3056:Drivers/STM32F3xx_HAL_Driver/Src/stm32f3xx_hal_i2c.c ****             the HAL_I2C_MasterRxCpltCallback could be implemented in the user file
3057:Drivers/STM32F3xx_HAL_Driver/Src/stm32f3xx_hal_i2c.c ****    */
3058:Drivers/STM32F3xx_HAL_Driver/Src/stm32f3xx_hal_i2c.c **** }
 6278              		.loc 1 3058 0
 6279 0008 00BF     		nop
 6280 000a 0C37     		adds	r7, r7, #12
 6281              	.LCFI171:
 6282              		.cfi_def_cfa_offset 4
 6283 000c BD46     		mov	sp, r7
 6284              	.LCFI172:
 6285              		.cfi_def_cfa_register 13
 6286              		@ sp needed
 6287 000e 5DF8047B 		ldr	r7, [sp], #4
 6288              	.LCFI173:
 6289              		.cfi_restore 7
 6290              		.cfi_def_cfa_offset 0
 6291 0012 7047     		bx	lr
 6292              		.cfi_endproc
 6293              	.LFE728:
 6295              		.section	.text.HAL_I2C_SlaveTxCpltCallback,"ax",%progbits
 6296              		.align	1
ARM GAS  /tmp/ccy0jiyr.s 			page 164


 6297              		.weak	HAL_I2C_SlaveTxCpltCallback
 6298              		.syntax unified
 6299              		.thumb
 6300              		.thumb_func
 6301              		.fpu fpv4-sp-d16
 6303              	HAL_I2C_SlaveTxCpltCallback:
 6304              	.LFB729:
3059:Drivers/STM32F3xx_HAL_Driver/Src/stm32f3xx_hal_i2c.c **** 
3060:Drivers/STM32F3xx_HAL_Driver/Src/stm32f3xx_hal_i2c.c **** /** @brief  Slave Tx Transfer completed callback.
3061:Drivers/STM32F3xx_HAL_Driver/Src/stm32f3xx_hal_i2c.c ****   * @param  hi2c Pointer to a I2C_HandleTypeDef structure that contains
3062:Drivers/STM32F3xx_HAL_Driver/Src/stm32f3xx_hal_i2c.c ****   *                the configuration information for the specified I2C.
3063:Drivers/STM32F3xx_HAL_Driver/Src/stm32f3xx_hal_i2c.c ****   * @retval None
3064:Drivers/STM32F3xx_HAL_Driver/Src/stm32f3xx_hal_i2c.c ****   */
3065:Drivers/STM32F3xx_HAL_Driver/Src/stm32f3xx_hal_i2c.c **** __weak void HAL_I2C_SlaveTxCpltCallback(I2C_HandleTypeDef *hi2c)
3066:Drivers/STM32F3xx_HAL_Driver/Src/stm32f3xx_hal_i2c.c **** {
 6305              		.loc 1 3066 0
 6306              		.cfi_startproc
 6307              		@ args = 0, pretend = 0, frame = 8
 6308              		@ frame_needed = 1, uses_anonymous_args = 0
 6309              		@ link register save eliminated.
 6310 0000 80B4     		push	{r7}
 6311              	.LCFI174:
 6312              		.cfi_def_cfa_offset 4
 6313              		.cfi_offset 7, -4
 6314 0002 83B0     		sub	sp, sp, #12
 6315              	.LCFI175:
 6316              		.cfi_def_cfa_offset 16
 6317 0004 00AF     		add	r7, sp, #0
 6318              	.LCFI176:
 6319              		.cfi_def_cfa_register 7
 6320 0006 7860     		str	r0, [r7, #4]
3067:Drivers/STM32F3xx_HAL_Driver/Src/stm32f3xx_hal_i2c.c ****   /* Prevent unused argument(s) compilation warning */
3068:Drivers/STM32F3xx_HAL_Driver/Src/stm32f3xx_hal_i2c.c ****   UNUSED(hi2c);
3069:Drivers/STM32F3xx_HAL_Driver/Src/stm32f3xx_hal_i2c.c **** 
3070:Drivers/STM32F3xx_HAL_Driver/Src/stm32f3xx_hal_i2c.c ****   /* NOTE : This function should not be modified, when the callback is needed,
3071:Drivers/STM32F3xx_HAL_Driver/Src/stm32f3xx_hal_i2c.c ****             the HAL_I2C_SlaveTxCpltCallback could be implemented in the user file
3072:Drivers/STM32F3xx_HAL_Driver/Src/stm32f3xx_hal_i2c.c ****    */
3073:Drivers/STM32F3xx_HAL_Driver/Src/stm32f3xx_hal_i2c.c **** }
 6321              		.loc 1 3073 0
 6322 0008 00BF     		nop
 6323 000a 0C37     		adds	r7, r7, #12
 6324              	.LCFI177:
 6325              		.cfi_def_cfa_offset 4
 6326 000c BD46     		mov	sp, r7
 6327              	.LCFI178:
 6328              		.cfi_def_cfa_register 13
 6329              		@ sp needed
 6330 000e 5DF8047B 		ldr	r7, [sp], #4
 6331              	.LCFI179:
 6332              		.cfi_restore 7
 6333              		.cfi_def_cfa_offset 0
 6334 0012 7047     		bx	lr
 6335              		.cfi_endproc
 6336              	.LFE729:
 6338              		.section	.text.HAL_I2C_SlaveRxCpltCallback,"ax",%progbits
 6339              		.align	1
 6340              		.weak	HAL_I2C_SlaveRxCpltCallback
ARM GAS  /tmp/ccy0jiyr.s 			page 165


 6341              		.syntax unified
 6342              		.thumb
 6343              		.thumb_func
 6344              		.fpu fpv4-sp-d16
 6346              	HAL_I2C_SlaveRxCpltCallback:
 6347              	.LFB730:
3074:Drivers/STM32F3xx_HAL_Driver/Src/stm32f3xx_hal_i2c.c **** 
3075:Drivers/STM32F3xx_HAL_Driver/Src/stm32f3xx_hal_i2c.c **** /**
3076:Drivers/STM32F3xx_HAL_Driver/Src/stm32f3xx_hal_i2c.c ****   * @brief  Slave Rx Transfer completed callback.
3077:Drivers/STM32F3xx_HAL_Driver/Src/stm32f3xx_hal_i2c.c ****   * @param  hi2c Pointer to a I2C_HandleTypeDef structure that contains
3078:Drivers/STM32F3xx_HAL_Driver/Src/stm32f3xx_hal_i2c.c ****   *                the configuration information for the specified I2C.
3079:Drivers/STM32F3xx_HAL_Driver/Src/stm32f3xx_hal_i2c.c ****   * @retval None
3080:Drivers/STM32F3xx_HAL_Driver/Src/stm32f3xx_hal_i2c.c ****   */
3081:Drivers/STM32F3xx_HAL_Driver/Src/stm32f3xx_hal_i2c.c **** __weak void HAL_I2C_SlaveRxCpltCallback(I2C_HandleTypeDef *hi2c)
3082:Drivers/STM32F3xx_HAL_Driver/Src/stm32f3xx_hal_i2c.c **** {
 6348              		.loc 1 3082 0
 6349              		.cfi_startproc
 6350              		@ args = 0, pretend = 0, frame = 8
 6351              		@ frame_needed = 1, uses_anonymous_args = 0
 6352              		@ link register save eliminated.
 6353 0000 80B4     		push	{r7}
 6354              	.LCFI180:
 6355              		.cfi_def_cfa_offset 4
 6356              		.cfi_offset 7, -4
 6357 0002 83B0     		sub	sp, sp, #12
 6358              	.LCFI181:
 6359              		.cfi_def_cfa_offset 16
 6360 0004 00AF     		add	r7, sp, #0
 6361              	.LCFI182:
 6362              		.cfi_def_cfa_register 7
 6363 0006 7860     		str	r0, [r7, #4]
3083:Drivers/STM32F3xx_HAL_Driver/Src/stm32f3xx_hal_i2c.c ****   /* Prevent unused argument(s) compilation warning */
3084:Drivers/STM32F3xx_HAL_Driver/Src/stm32f3xx_hal_i2c.c ****   UNUSED(hi2c);
3085:Drivers/STM32F3xx_HAL_Driver/Src/stm32f3xx_hal_i2c.c **** 
3086:Drivers/STM32F3xx_HAL_Driver/Src/stm32f3xx_hal_i2c.c ****   /* NOTE : This function should not be modified, when the callback is needed,
3087:Drivers/STM32F3xx_HAL_Driver/Src/stm32f3xx_hal_i2c.c ****             the HAL_I2C_SlaveRxCpltCallback could be implemented in the user file
3088:Drivers/STM32F3xx_HAL_Driver/Src/stm32f3xx_hal_i2c.c ****    */
3089:Drivers/STM32F3xx_HAL_Driver/Src/stm32f3xx_hal_i2c.c **** }
 6364              		.loc 1 3089 0
 6365 0008 00BF     		nop
 6366 000a 0C37     		adds	r7, r7, #12
 6367              	.LCFI183:
 6368              		.cfi_def_cfa_offset 4
 6369 000c BD46     		mov	sp, r7
 6370              	.LCFI184:
 6371              		.cfi_def_cfa_register 13
 6372              		@ sp needed
 6373 000e 5DF8047B 		ldr	r7, [sp], #4
 6374              	.LCFI185:
 6375              		.cfi_restore 7
 6376              		.cfi_def_cfa_offset 0
 6377 0012 7047     		bx	lr
 6378              		.cfi_endproc
 6379              	.LFE730:
 6381              		.section	.text.HAL_I2C_AddrCallback,"ax",%progbits
 6382              		.align	1
 6383              		.weak	HAL_I2C_AddrCallback
ARM GAS  /tmp/ccy0jiyr.s 			page 166


 6384              		.syntax unified
 6385              		.thumb
 6386              		.thumb_func
 6387              		.fpu fpv4-sp-d16
 6389              	HAL_I2C_AddrCallback:
 6390              	.LFB731:
3090:Drivers/STM32F3xx_HAL_Driver/Src/stm32f3xx_hal_i2c.c **** 
3091:Drivers/STM32F3xx_HAL_Driver/Src/stm32f3xx_hal_i2c.c **** /**
3092:Drivers/STM32F3xx_HAL_Driver/Src/stm32f3xx_hal_i2c.c ****   * @brief  Slave Address Match callback.
3093:Drivers/STM32F3xx_HAL_Driver/Src/stm32f3xx_hal_i2c.c ****   * @param  hi2c Pointer to a I2C_HandleTypeDef structure that contains
3094:Drivers/STM32F3xx_HAL_Driver/Src/stm32f3xx_hal_i2c.c ****   *                the configuration information for the specified I2C.
3095:Drivers/STM32F3xx_HAL_Driver/Src/stm32f3xx_hal_i2c.c ****   * @param  TransferDirection Master request Transfer Direction (Write/Read), value of @ref I2C_XFE
3096:Drivers/STM32F3xx_HAL_Driver/Src/stm32f3xx_hal_i2c.c ****   * @param  AddrMatchCode Address Match Code
3097:Drivers/STM32F3xx_HAL_Driver/Src/stm32f3xx_hal_i2c.c ****   * @retval None
3098:Drivers/STM32F3xx_HAL_Driver/Src/stm32f3xx_hal_i2c.c ****   */
3099:Drivers/STM32F3xx_HAL_Driver/Src/stm32f3xx_hal_i2c.c **** __weak void HAL_I2C_AddrCallback(I2C_HandleTypeDef *hi2c, uint8_t TransferDirection, uint16_t AddrM
3100:Drivers/STM32F3xx_HAL_Driver/Src/stm32f3xx_hal_i2c.c **** {
 6391              		.loc 1 3100 0
 6392              		.cfi_startproc
 6393              		@ args = 0, pretend = 0, frame = 8
 6394              		@ frame_needed = 1, uses_anonymous_args = 0
 6395              		@ link register save eliminated.
 6396 0000 80B4     		push	{r7}
 6397              	.LCFI186:
 6398              		.cfi_def_cfa_offset 4
 6399              		.cfi_offset 7, -4
 6400 0002 83B0     		sub	sp, sp, #12
 6401              	.LCFI187:
 6402              		.cfi_def_cfa_offset 16
 6403 0004 00AF     		add	r7, sp, #0
 6404              	.LCFI188:
 6405              		.cfi_def_cfa_register 7
 6406 0006 7860     		str	r0, [r7, #4]
 6407 0008 0B46     		mov	r3, r1
 6408 000a FB70     		strb	r3, [r7, #3]
 6409 000c 1346     		mov	r3, r2	@ movhi
 6410 000e 3B80     		strh	r3, [r7]	@ movhi
3101:Drivers/STM32F3xx_HAL_Driver/Src/stm32f3xx_hal_i2c.c ****   /* Prevent unused argument(s) compilation warning */
3102:Drivers/STM32F3xx_HAL_Driver/Src/stm32f3xx_hal_i2c.c ****   UNUSED(hi2c);
3103:Drivers/STM32F3xx_HAL_Driver/Src/stm32f3xx_hal_i2c.c ****   UNUSED(TransferDirection);
3104:Drivers/STM32F3xx_HAL_Driver/Src/stm32f3xx_hal_i2c.c ****   UNUSED(AddrMatchCode);
3105:Drivers/STM32F3xx_HAL_Driver/Src/stm32f3xx_hal_i2c.c **** 
3106:Drivers/STM32F3xx_HAL_Driver/Src/stm32f3xx_hal_i2c.c ****   /* NOTE : This function should not be modified, when the callback is needed,
3107:Drivers/STM32F3xx_HAL_Driver/Src/stm32f3xx_hal_i2c.c ****             the HAL_I2C_AddrCallback() could be implemented in the user file
3108:Drivers/STM32F3xx_HAL_Driver/Src/stm32f3xx_hal_i2c.c ****    */
3109:Drivers/STM32F3xx_HAL_Driver/Src/stm32f3xx_hal_i2c.c **** }
 6411              		.loc 1 3109 0
 6412 0010 00BF     		nop
 6413 0012 0C37     		adds	r7, r7, #12
 6414              	.LCFI189:
 6415              		.cfi_def_cfa_offset 4
 6416 0014 BD46     		mov	sp, r7
 6417              	.LCFI190:
 6418              		.cfi_def_cfa_register 13
 6419              		@ sp needed
 6420 0016 5DF8047B 		ldr	r7, [sp], #4
 6421              	.LCFI191:
ARM GAS  /tmp/ccy0jiyr.s 			page 167


 6422              		.cfi_restore 7
 6423              		.cfi_def_cfa_offset 0
 6424 001a 7047     		bx	lr
 6425              		.cfi_endproc
 6426              	.LFE731:
 6428              		.section	.text.HAL_I2C_ListenCpltCallback,"ax",%progbits
 6429              		.align	1
 6430              		.weak	HAL_I2C_ListenCpltCallback
 6431              		.syntax unified
 6432              		.thumb
 6433              		.thumb_func
 6434              		.fpu fpv4-sp-d16
 6436              	HAL_I2C_ListenCpltCallback:
 6437              	.LFB732:
3110:Drivers/STM32F3xx_HAL_Driver/Src/stm32f3xx_hal_i2c.c **** 
3111:Drivers/STM32F3xx_HAL_Driver/Src/stm32f3xx_hal_i2c.c **** /**
3112:Drivers/STM32F3xx_HAL_Driver/Src/stm32f3xx_hal_i2c.c ****   * @brief  Listen Complete callback.
3113:Drivers/STM32F3xx_HAL_Driver/Src/stm32f3xx_hal_i2c.c ****   * @param  hi2c Pointer to a I2C_HandleTypeDef structure that contains
3114:Drivers/STM32F3xx_HAL_Driver/Src/stm32f3xx_hal_i2c.c ****   *                the configuration information for the specified I2C.
3115:Drivers/STM32F3xx_HAL_Driver/Src/stm32f3xx_hal_i2c.c ****   * @retval None
3116:Drivers/STM32F3xx_HAL_Driver/Src/stm32f3xx_hal_i2c.c ****   */
3117:Drivers/STM32F3xx_HAL_Driver/Src/stm32f3xx_hal_i2c.c **** __weak void HAL_I2C_ListenCpltCallback(I2C_HandleTypeDef *hi2c)
3118:Drivers/STM32F3xx_HAL_Driver/Src/stm32f3xx_hal_i2c.c **** {
 6438              		.loc 1 3118 0
 6439              		.cfi_startproc
 6440              		@ args = 0, pretend = 0, frame = 8
 6441              		@ frame_needed = 1, uses_anonymous_args = 0
 6442              		@ link register save eliminated.
 6443 0000 80B4     		push	{r7}
 6444              	.LCFI192:
 6445              		.cfi_def_cfa_offset 4
 6446              		.cfi_offset 7, -4
 6447 0002 83B0     		sub	sp, sp, #12
 6448              	.LCFI193:
 6449              		.cfi_def_cfa_offset 16
 6450 0004 00AF     		add	r7, sp, #0
 6451              	.LCFI194:
 6452              		.cfi_def_cfa_register 7
 6453 0006 7860     		str	r0, [r7, #4]
3119:Drivers/STM32F3xx_HAL_Driver/Src/stm32f3xx_hal_i2c.c ****   /* Prevent unused argument(s) compilation warning */
3120:Drivers/STM32F3xx_HAL_Driver/Src/stm32f3xx_hal_i2c.c ****   UNUSED(hi2c);
3121:Drivers/STM32F3xx_HAL_Driver/Src/stm32f3xx_hal_i2c.c **** 
3122:Drivers/STM32F3xx_HAL_Driver/Src/stm32f3xx_hal_i2c.c ****   /* NOTE : This function should not be modified, when the callback is needed,
3123:Drivers/STM32F3xx_HAL_Driver/Src/stm32f3xx_hal_i2c.c ****             the HAL_I2C_ListenCpltCallback() could be implemented in the user file
3124:Drivers/STM32F3xx_HAL_Driver/Src/stm32f3xx_hal_i2c.c ****    */
3125:Drivers/STM32F3xx_HAL_Driver/Src/stm32f3xx_hal_i2c.c **** }
 6454              		.loc 1 3125 0
 6455 0008 00BF     		nop
 6456 000a 0C37     		adds	r7, r7, #12
 6457              	.LCFI195:
 6458              		.cfi_def_cfa_offset 4
 6459 000c BD46     		mov	sp, r7
 6460              	.LCFI196:
 6461              		.cfi_def_cfa_register 13
 6462              		@ sp needed
 6463 000e 5DF8047B 		ldr	r7, [sp], #4
 6464              	.LCFI197:
ARM GAS  /tmp/ccy0jiyr.s 			page 168


 6465              		.cfi_restore 7
 6466              		.cfi_def_cfa_offset 0
 6467 0012 7047     		bx	lr
 6468              		.cfi_endproc
 6469              	.LFE732:
 6471              		.section	.text.HAL_I2C_MemTxCpltCallback,"ax",%progbits
 6472              		.align	1
 6473              		.weak	HAL_I2C_MemTxCpltCallback
 6474              		.syntax unified
 6475              		.thumb
 6476              		.thumb_func
 6477              		.fpu fpv4-sp-d16
 6479              	HAL_I2C_MemTxCpltCallback:
 6480              	.LFB733:
3126:Drivers/STM32F3xx_HAL_Driver/Src/stm32f3xx_hal_i2c.c **** 
3127:Drivers/STM32F3xx_HAL_Driver/Src/stm32f3xx_hal_i2c.c **** /**
3128:Drivers/STM32F3xx_HAL_Driver/Src/stm32f3xx_hal_i2c.c ****   * @brief  Memory Tx Transfer completed callback.
3129:Drivers/STM32F3xx_HAL_Driver/Src/stm32f3xx_hal_i2c.c ****   * @param  hi2c Pointer to a I2C_HandleTypeDef structure that contains
3130:Drivers/STM32F3xx_HAL_Driver/Src/stm32f3xx_hal_i2c.c ****   *                the configuration information for the specified I2C.
3131:Drivers/STM32F3xx_HAL_Driver/Src/stm32f3xx_hal_i2c.c ****   * @retval None
3132:Drivers/STM32F3xx_HAL_Driver/Src/stm32f3xx_hal_i2c.c ****   */
3133:Drivers/STM32F3xx_HAL_Driver/Src/stm32f3xx_hal_i2c.c **** __weak void HAL_I2C_MemTxCpltCallback(I2C_HandleTypeDef *hi2c)
3134:Drivers/STM32F3xx_HAL_Driver/Src/stm32f3xx_hal_i2c.c **** {
 6481              		.loc 1 3134 0
 6482              		.cfi_startproc
 6483              		@ args = 0, pretend = 0, frame = 8
 6484              		@ frame_needed = 1, uses_anonymous_args = 0
 6485              		@ link register save eliminated.
 6486 0000 80B4     		push	{r7}
 6487              	.LCFI198:
 6488              		.cfi_def_cfa_offset 4
 6489              		.cfi_offset 7, -4
 6490 0002 83B0     		sub	sp, sp, #12
 6491              	.LCFI199:
 6492              		.cfi_def_cfa_offset 16
 6493 0004 00AF     		add	r7, sp, #0
 6494              	.LCFI200:
 6495              		.cfi_def_cfa_register 7
 6496 0006 7860     		str	r0, [r7, #4]
3135:Drivers/STM32F3xx_HAL_Driver/Src/stm32f3xx_hal_i2c.c ****   /* Prevent unused argument(s) compilation warning */
3136:Drivers/STM32F3xx_HAL_Driver/Src/stm32f3xx_hal_i2c.c ****   UNUSED(hi2c);
3137:Drivers/STM32F3xx_HAL_Driver/Src/stm32f3xx_hal_i2c.c **** 
3138:Drivers/STM32F3xx_HAL_Driver/Src/stm32f3xx_hal_i2c.c ****   /* NOTE : This function should not be modified, when the callback is needed,
3139:Drivers/STM32F3xx_HAL_Driver/Src/stm32f3xx_hal_i2c.c ****             the HAL_I2C_MemTxCpltCallback could be implemented in the user file
3140:Drivers/STM32F3xx_HAL_Driver/Src/stm32f3xx_hal_i2c.c ****    */
3141:Drivers/STM32F3xx_HAL_Driver/Src/stm32f3xx_hal_i2c.c **** }
 6497              		.loc 1 3141 0
 6498 0008 00BF     		nop
 6499 000a 0C37     		adds	r7, r7, #12
 6500              	.LCFI201:
 6501              		.cfi_def_cfa_offset 4
 6502 000c BD46     		mov	sp, r7
 6503              	.LCFI202:
 6504              		.cfi_def_cfa_register 13
 6505              		@ sp needed
 6506 000e 5DF8047B 		ldr	r7, [sp], #4
 6507              	.LCFI203:
ARM GAS  /tmp/ccy0jiyr.s 			page 169


 6508              		.cfi_restore 7
 6509              		.cfi_def_cfa_offset 0
 6510 0012 7047     		bx	lr
 6511              		.cfi_endproc
 6512              	.LFE733:
 6514              		.section	.text.HAL_I2C_MemRxCpltCallback,"ax",%progbits
 6515              		.align	1
 6516              		.weak	HAL_I2C_MemRxCpltCallback
 6517              		.syntax unified
 6518              		.thumb
 6519              		.thumb_func
 6520              		.fpu fpv4-sp-d16
 6522              	HAL_I2C_MemRxCpltCallback:
 6523              	.LFB734:
3142:Drivers/STM32F3xx_HAL_Driver/Src/stm32f3xx_hal_i2c.c **** 
3143:Drivers/STM32F3xx_HAL_Driver/Src/stm32f3xx_hal_i2c.c **** /**
3144:Drivers/STM32F3xx_HAL_Driver/Src/stm32f3xx_hal_i2c.c ****   * @brief  Memory Rx Transfer completed callback.
3145:Drivers/STM32F3xx_HAL_Driver/Src/stm32f3xx_hal_i2c.c ****   * @param  hi2c Pointer to a I2C_HandleTypeDef structure that contains
3146:Drivers/STM32F3xx_HAL_Driver/Src/stm32f3xx_hal_i2c.c ****   *                the configuration information for the specified I2C.
3147:Drivers/STM32F3xx_HAL_Driver/Src/stm32f3xx_hal_i2c.c ****   * @retval None
3148:Drivers/STM32F3xx_HAL_Driver/Src/stm32f3xx_hal_i2c.c ****   */
3149:Drivers/STM32F3xx_HAL_Driver/Src/stm32f3xx_hal_i2c.c **** __weak void HAL_I2C_MemRxCpltCallback(I2C_HandleTypeDef *hi2c)
3150:Drivers/STM32F3xx_HAL_Driver/Src/stm32f3xx_hal_i2c.c **** {
 6524              		.loc 1 3150 0
 6525              		.cfi_startproc
 6526              		@ args = 0, pretend = 0, frame = 8
 6527              		@ frame_needed = 1, uses_anonymous_args = 0
 6528              		@ link register save eliminated.
 6529 0000 80B4     		push	{r7}
 6530              	.LCFI204:
 6531              		.cfi_def_cfa_offset 4
 6532              		.cfi_offset 7, -4
 6533 0002 83B0     		sub	sp, sp, #12
 6534              	.LCFI205:
 6535              		.cfi_def_cfa_offset 16
 6536 0004 00AF     		add	r7, sp, #0
 6537              	.LCFI206:
 6538              		.cfi_def_cfa_register 7
 6539 0006 7860     		str	r0, [r7, #4]
3151:Drivers/STM32F3xx_HAL_Driver/Src/stm32f3xx_hal_i2c.c ****   /* Prevent unused argument(s) compilation warning */
3152:Drivers/STM32F3xx_HAL_Driver/Src/stm32f3xx_hal_i2c.c ****   UNUSED(hi2c);
3153:Drivers/STM32F3xx_HAL_Driver/Src/stm32f3xx_hal_i2c.c **** 
3154:Drivers/STM32F3xx_HAL_Driver/Src/stm32f3xx_hal_i2c.c ****   /* NOTE : This function should not be modified, when the callback is needed,
3155:Drivers/STM32F3xx_HAL_Driver/Src/stm32f3xx_hal_i2c.c ****             the HAL_I2C_MemRxCpltCallback could be implemented in the user file
3156:Drivers/STM32F3xx_HAL_Driver/Src/stm32f3xx_hal_i2c.c ****    */
3157:Drivers/STM32F3xx_HAL_Driver/Src/stm32f3xx_hal_i2c.c **** }
 6540              		.loc 1 3157 0
 6541 0008 00BF     		nop
 6542 000a 0C37     		adds	r7, r7, #12
 6543              	.LCFI207:
 6544              		.cfi_def_cfa_offset 4
 6545 000c BD46     		mov	sp, r7
 6546              	.LCFI208:
 6547              		.cfi_def_cfa_register 13
 6548              		@ sp needed
 6549 000e 5DF8047B 		ldr	r7, [sp], #4
 6550              	.LCFI209:
ARM GAS  /tmp/ccy0jiyr.s 			page 170


 6551              		.cfi_restore 7
 6552              		.cfi_def_cfa_offset 0
 6553 0012 7047     		bx	lr
 6554              		.cfi_endproc
 6555              	.LFE734:
 6557              		.section	.text.HAL_I2C_ErrorCallback,"ax",%progbits
 6558              		.align	1
 6559              		.weak	HAL_I2C_ErrorCallback
 6560              		.syntax unified
 6561              		.thumb
 6562              		.thumb_func
 6563              		.fpu fpv4-sp-d16
 6565              	HAL_I2C_ErrorCallback:
 6566              	.LFB735:
3158:Drivers/STM32F3xx_HAL_Driver/Src/stm32f3xx_hal_i2c.c **** 
3159:Drivers/STM32F3xx_HAL_Driver/Src/stm32f3xx_hal_i2c.c **** /**
3160:Drivers/STM32F3xx_HAL_Driver/Src/stm32f3xx_hal_i2c.c ****   * @brief  I2C error callback.
3161:Drivers/STM32F3xx_HAL_Driver/Src/stm32f3xx_hal_i2c.c ****   * @param  hi2c Pointer to a I2C_HandleTypeDef structure that contains
3162:Drivers/STM32F3xx_HAL_Driver/Src/stm32f3xx_hal_i2c.c ****   *                the configuration information for the specified I2C.
3163:Drivers/STM32F3xx_HAL_Driver/Src/stm32f3xx_hal_i2c.c ****   * @retval None
3164:Drivers/STM32F3xx_HAL_Driver/Src/stm32f3xx_hal_i2c.c ****   */
3165:Drivers/STM32F3xx_HAL_Driver/Src/stm32f3xx_hal_i2c.c **** __weak void HAL_I2C_ErrorCallback(I2C_HandleTypeDef *hi2c)
3166:Drivers/STM32F3xx_HAL_Driver/Src/stm32f3xx_hal_i2c.c **** {
 6567              		.loc 1 3166 0
 6568              		.cfi_startproc
 6569              		@ args = 0, pretend = 0, frame = 8
 6570              		@ frame_needed = 1, uses_anonymous_args = 0
 6571              		@ link register save eliminated.
 6572 0000 80B4     		push	{r7}
 6573              	.LCFI210:
 6574              		.cfi_def_cfa_offset 4
 6575              		.cfi_offset 7, -4
 6576 0002 83B0     		sub	sp, sp, #12
 6577              	.LCFI211:
 6578              		.cfi_def_cfa_offset 16
 6579 0004 00AF     		add	r7, sp, #0
 6580              	.LCFI212:
 6581              		.cfi_def_cfa_register 7
 6582 0006 7860     		str	r0, [r7, #4]
3167:Drivers/STM32F3xx_HAL_Driver/Src/stm32f3xx_hal_i2c.c ****   /* Prevent unused argument(s) compilation warning */
3168:Drivers/STM32F3xx_HAL_Driver/Src/stm32f3xx_hal_i2c.c ****   UNUSED(hi2c);
3169:Drivers/STM32F3xx_HAL_Driver/Src/stm32f3xx_hal_i2c.c **** 
3170:Drivers/STM32F3xx_HAL_Driver/Src/stm32f3xx_hal_i2c.c ****   /* NOTE : This function should not be modified, when the callback is needed,
3171:Drivers/STM32F3xx_HAL_Driver/Src/stm32f3xx_hal_i2c.c ****             the HAL_I2C_ErrorCallback could be implemented in the user file
3172:Drivers/STM32F3xx_HAL_Driver/Src/stm32f3xx_hal_i2c.c ****    */
3173:Drivers/STM32F3xx_HAL_Driver/Src/stm32f3xx_hal_i2c.c **** }
 6583              		.loc 1 3173 0
 6584 0008 00BF     		nop
 6585 000a 0C37     		adds	r7, r7, #12
 6586              	.LCFI213:
 6587              		.cfi_def_cfa_offset 4
 6588 000c BD46     		mov	sp, r7
 6589              	.LCFI214:
 6590              		.cfi_def_cfa_register 13
 6591              		@ sp needed
 6592 000e 5DF8047B 		ldr	r7, [sp], #4
 6593              	.LCFI215:
ARM GAS  /tmp/ccy0jiyr.s 			page 171


 6594              		.cfi_restore 7
 6595              		.cfi_def_cfa_offset 0
 6596 0012 7047     		bx	lr
 6597              		.cfi_endproc
 6598              	.LFE735:
 6600              		.section	.text.HAL_I2C_AbortCpltCallback,"ax",%progbits
 6601              		.align	1
 6602              		.weak	HAL_I2C_AbortCpltCallback
 6603              		.syntax unified
 6604              		.thumb
 6605              		.thumb_func
 6606              		.fpu fpv4-sp-d16
 6608              	HAL_I2C_AbortCpltCallback:
 6609              	.LFB736:
3174:Drivers/STM32F3xx_HAL_Driver/Src/stm32f3xx_hal_i2c.c **** 
3175:Drivers/STM32F3xx_HAL_Driver/Src/stm32f3xx_hal_i2c.c **** /**
3176:Drivers/STM32F3xx_HAL_Driver/Src/stm32f3xx_hal_i2c.c ****   * @brief  I2C abort callback.
3177:Drivers/STM32F3xx_HAL_Driver/Src/stm32f3xx_hal_i2c.c ****   * @param  hi2c Pointer to a I2C_HandleTypeDef structure that contains
3178:Drivers/STM32F3xx_HAL_Driver/Src/stm32f3xx_hal_i2c.c ****   *                the configuration information for the specified I2C.
3179:Drivers/STM32F3xx_HAL_Driver/Src/stm32f3xx_hal_i2c.c ****   * @retval None
3180:Drivers/STM32F3xx_HAL_Driver/Src/stm32f3xx_hal_i2c.c ****   */
3181:Drivers/STM32F3xx_HAL_Driver/Src/stm32f3xx_hal_i2c.c **** __weak void HAL_I2C_AbortCpltCallback(I2C_HandleTypeDef *hi2c)
3182:Drivers/STM32F3xx_HAL_Driver/Src/stm32f3xx_hal_i2c.c **** {
 6610              		.loc 1 3182 0
 6611              		.cfi_startproc
 6612              		@ args = 0, pretend = 0, frame = 8
 6613              		@ frame_needed = 1, uses_anonymous_args = 0
 6614              		@ link register save eliminated.
 6615 0000 80B4     		push	{r7}
 6616              	.LCFI216:
 6617              		.cfi_def_cfa_offset 4
 6618              		.cfi_offset 7, -4
 6619 0002 83B0     		sub	sp, sp, #12
 6620              	.LCFI217:
 6621              		.cfi_def_cfa_offset 16
 6622 0004 00AF     		add	r7, sp, #0
 6623              	.LCFI218:
 6624              		.cfi_def_cfa_register 7
 6625 0006 7860     		str	r0, [r7, #4]
3183:Drivers/STM32F3xx_HAL_Driver/Src/stm32f3xx_hal_i2c.c ****   /* Prevent unused argument(s) compilation warning */
3184:Drivers/STM32F3xx_HAL_Driver/Src/stm32f3xx_hal_i2c.c ****   UNUSED(hi2c);
3185:Drivers/STM32F3xx_HAL_Driver/Src/stm32f3xx_hal_i2c.c **** 
3186:Drivers/STM32F3xx_HAL_Driver/Src/stm32f3xx_hal_i2c.c ****   /* NOTE : This function should not be modified, when the callback is needed,
3187:Drivers/STM32F3xx_HAL_Driver/Src/stm32f3xx_hal_i2c.c ****             the HAL_I2C_AbortCpltCallback could be implemented in the user file
3188:Drivers/STM32F3xx_HAL_Driver/Src/stm32f3xx_hal_i2c.c ****    */
3189:Drivers/STM32F3xx_HAL_Driver/Src/stm32f3xx_hal_i2c.c **** }
 6626              		.loc 1 3189 0
 6627 0008 00BF     		nop
 6628 000a 0C37     		adds	r7, r7, #12
 6629              	.LCFI219:
 6630              		.cfi_def_cfa_offset 4
 6631 000c BD46     		mov	sp, r7
 6632              	.LCFI220:
 6633              		.cfi_def_cfa_register 13
 6634              		@ sp needed
 6635 000e 5DF8047B 		ldr	r7, [sp], #4
 6636              	.LCFI221:
ARM GAS  /tmp/ccy0jiyr.s 			page 172


 6637              		.cfi_restore 7
 6638              		.cfi_def_cfa_offset 0
 6639 0012 7047     		bx	lr
 6640              		.cfi_endproc
 6641              	.LFE736:
 6643              		.section	.text.HAL_I2C_GetState,"ax",%progbits
 6644              		.align	1
 6645              		.global	HAL_I2C_GetState
 6646              		.syntax unified
 6647              		.thumb
 6648              		.thumb_func
 6649              		.fpu fpv4-sp-d16
 6651              	HAL_I2C_GetState:
 6652              	.LFB737:
3190:Drivers/STM32F3xx_HAL_Driver/Src/stm32f3xx_hal_i2c.c **** 
3191:Drivers/STM32F3xx_HAL_Driver/Src/stm32f3xx_hal_i2c.c **** /**
3192:Drivers/STM32F3xx_HAL_Driver/Src/stm32f3xx_hal_i2c.c ****   * @}
3193:Drivers/STM32F3xx_HAL_Driver/Src/stm32f3xx_hal_i2c.c ****   */
3194:Drivers/STM32F3xx_HAL_Driver/Src/stm32f3xx_hal_i2c.c **** 
3195:Drivers/STM32F3xx_HAL_Driver/Src/stm32f3xx_hal_i2c.c **** /** @defgroup I2C_Exported_Functions_Group3 Peripheral State, Mode and Error functions
3196:Drivers/STM32F3xx_HAL_Driver/Src/stm32f3xx_hal_i2c.c ****  *  @brief   Peripheral State, Mode and Error functions
3197:Drivers/STM32F3xx_HAL_Driver/Src/stm32f3xx_hal_i2c.c ****  *
3198:Drivers/STM32F3xx_HAL_Driver/Src/stm32f3xx_hal_i2c.c **** @verbatim
3199:Drivers/STM32F3xx_HAL_Driver/Src/stm32f3xx_hal_i2c.c ****  ===============================================================================
3200:Drivers/STM32F3xx_HAL_Driver/Src/stm32f3xx_hal_i2c.c ****             ##### Peripheral State, Mode and Error functions #####
3201:Drivers/STM32F3xx_HAL_Driver/Src/stm32f3xx_hal_i2c.c ****  ===============================================================================
3202:Drivers/STM32F3xx_HAL_Driver/Src/stm32f3xx_hal_i2c.c ****     [..]
3203:Drivers/STM32F3xx_HAL_Driver/Src/stm32f3xx_hal_i2c.c ****     This subsection permit to get in run-time the status of the peripheral
3204:Drivers/STM32F3xx_HAL_Driver/Src/stm32f3xx_hal_i2c.c ****     and the data flow.
3205:Drivers/STM32F3xx_HAL_Driver/Src/stm32f3xx_hal_i2c.c **** 
3206:Drivers/STM32F3xx_HAL_Driver/Src/stm32f3xx_hal_i2c.c **** @endverbatim
3207:Drivers/STM32F3xx_HAL_Driver/Src/stm32f3xx_hal_i2c.c ****   * @{
3208:Drivers/STM32F3xx_HAL_Driver/Src/stm32f3xx_hal_i2c.c ****   */
3209:Drivers/STM32F3xx_HAL_Driver/Src/stm32f3xx_hal_i2c.c **** 
3210:Drivers/STM32F3xx_HAL_Driver/Src/stm32f3xx_hal_i2c.c **** /**
3211:Drivers/STM32F3xx_HAL_Driver/Src/stm32f3xx_hal_i2c.c ****   * @brief  Return the I2C handle state.
3212:Drivers/STM32F3xx_HAL_Driver/Src/stm32f3xx_hal_i2c.c ****   * @param  hi2c Pointer to a I2C_HandleTypeDef structure that contains
3213:Drivers/STM32F3xx_HAL_Driver/Src/stm32f3xx_hal_i2c.c ****   *                the configuration information for the specified I2C.
3214:Drivers/STM32F3xx_HAL_Driver/Src/stm32f3xx_hal_i2c.c ****   * @retval HAL state
3215:Drivers/STM32F3xx_HAL_Driver/Src/stm32f3xx_hal_i2c.c ****   */
3216:Drivers/STM32F3xx_HAL_Driver/Src/stm32f3xx_hal_i2c.c **** HAL_I2C_StateTypeDef HAL_I2C_GetState(I2C_HandleTypeDef *hi2c)
3217:Drivers/STM32F3xx_HAL_Driver/Src/stm32f3xx_hal_i2c.c **** {
 6653              		.loc 1 3217 0
 6654              		.cfi_startproc
 6655              		@ args = 0, pretend = 0, frame = 8
 6656              		@ frame_needed = 1, uses_anonymous_args = 0
 6657              		@ link register save eliminated.
 6658 0000 80B4     		push	{r7}
 6659              	.LCFI222:
 6660              		.cfi_def_cfa_offset 4
 6661              		.cfi_offset 7, -4
 6662 0002 83B0     		sub	sp, sp, #12
 6663              	.LCFI223:
 6664              		.cfi_def_cfa_offset 16
 6665 0004 00AF     		add	r7, sp, #0
 6666              	.LCFI224:
 6667              		.cfi_def_cfa_register 7
ARM GAS  /tmp/ccy0jiyr.s 			page 173


 6668 0006 7860     		str	r0, [r7, #4]
3218:Drivers/STM32F3xx_HAL_Driver/Src/stm32f3xx_hal_i2c.c ****   /* Return I2C handle state */
3219:Drivers/STM32F3xx_HAL_Driver/Src/stm32f3xx_hal_i2c.c ****   return hi2c->State;
 6669              		.loc 1 3219 0
 6670 0008 7B68     		ldr	r3, [r7, #4]
 6671 000a 93F84130 		ldrb	r3, [r3, #65]
 6672 000e DBB2     		uxtb	r3, r3
3220:Drivers/STM32F3xx_HAL_Driver/Src/stm32f3xx_hal_i2c.c **** }
 6673              		.loc 1 3220 0
 6674 0010 1846     		mov	r0, r3
 6675 0012 0C37     		adds	r7, r7, #12
 6676              	.LCFI225:
 6677              		.cfi_def_cfa_offset 4
 6678 0014 BD46     		mov	sp, r7
 6679              	.LCFI226:
 6680              		.cfi_def_cfa_register 13
 6681              		@ sp needed
 6682 0016 5DF8047B 		ldr	r7, [sp], #4
 6683              	.LCFI227:
 6684              		.cfi_restore 7
 6685              		.cfi_def_cfa_offset 0
 6686 001a 7047     		bx	lr
 6687              		.cfi_endproc
 6688              	.LFE737:
 6690              		.section	.text.HAL_I2C_GetMode,"ax",%progbits
 6691              		.align	1
 6692              		.global	HAL_I2C_GetMode
 6693              		.syntax unified
 6694              		.thumb
 6695              		.thumb_func
 6696              		.fpu fpv4-sp-d16
 6698              	HAL_I2C_GetMode:
 6699              	.LFB738:
3221:Drivers/STM32F3xx_HAL_Driver/Src/stm32f3xx_hal_i2c.c **** 
3222:Drivers/STM32F3xx_HAL_Driver/Src/stm32f3xx_hal_i2c.c **** /**
3223:Drivers/STM32F3xx_HAL_Driver/Src/stm32f3xx_hal_i2c.c ****   * @brief  Returns the I2C Master, Slave, Memory or no mode.
3224:Drivers/STM32F3xx_HAL_Driver/Src/stm32f3xx_hal_i2c.c ****   * @param  hi2c Pointer to a I2C_HandleTypeDef structure that contains
3225:Drivers/STM32F3xx_HAL_Driver/Src/stm32f3xx_hal_i2c.c ****   *         the configuration information for I2C module
3226:Drivers/STM32F3xx_HAL_Driver/Src/stm32f3xx_hal_i2c.c ****   * @retval HAL mode
3227:Drivers/STM32F3xx_HAL_Driver/Src/stm32f3xx_hal_i2c.c ****   */
3228:Drivers/STM32F3xx_HAL_Driver/Src/stm32f3xx_hal_i2c.c **** HAL_I2C_ModeTypeDef HAL_I2C_GetMode(I2C_HandleTypeDef *hi2c)
3229:Drivers/STM32F3xx_HAL_Driver/Src/stm32f3xx_hal_i2c.c **** {
 6700              		.loc 1 3229 0
 6701              		.cfi_startproc
 6702              		@ args = 0, pretend = 0, frame = 8
 6703              		@ frame_needed = 1, uses_anonymous_args = 0
 6704              		@ link register save eliminated.
 6705 0000 80B4     		push	{r7}
 6706              	.LCFI228:
 6707              		.cfi_def_cfa_offset 4
 6708              		.cfi_offset 7, -4
 6709 0002 83B0     		sub	sp, sp, #12
 6710              	.LCFI229:
 6711              		.cfi_def_cfa_offset 16
 6712 0004 00AF     		add	r7, sp, #0
 6713              	.LCFI230:
 6714              		.cfi_def_cfa_register 7
ARM GAS  /tmp/ccy0jiyr.s 			page 174


 6715 0006 7860     		str	r0, [r7, #4]
3230:Drivers/STM32F3xx_HAL_Driver/Src/stm32f3xx_hal_i2c.c ****   return hi2c->Mode;
 6716              		.loc 1 3230 0
 6717 0008 7B68     		ldr	r3, [r7, #4]
 6718 000a 93F84230 		ldrb	r3, [r3, #66]
 6719 000e DBB2     		uxtb	r3, r3
3231:Drivers/STM32F3xx_HAL_Driver/Src/stm32f3xx_hal_i2c.c **** }
 6720              		.loc 1 3231 0
 6721 0010 1846     		mov	r0, r3
 6722 0012 0C37     		adds	r7, r7, #12
 6723              	.LCFI231:
 6724              		.cfi_def_cfa_offset 4
 6725 0014 BD46     		mov	sp, r7
 6726              	.LCFI232:
 6727              		.cfi_def_cfa_register 13
 6728              		@ sp needed
 6729 0016 5DF8047B 		ldr	r7, [sp], #4
 6730              	.LCFI233:
 6731              		.cfi_restore 7
 6732              		.cfi_def_cfa_offset 0
 6733 001a 7047     		bx	lr
 6734              		.cfi_endproc
 6735              	.LFE738:
 6737              		.section	.text.HAL_I2C_GetError,"ax",%progbits
 6738              		.align	1
 6739              		.global	HAL_I2C_GetError
 6740              		.syntax unified
 6741              		.thumb
 6742              		.thumb_func
 6743              		.fpu fpv4-sp-d16
 6745              	HAL_I2C_GetError:
 6746              	.LFB739:
3232:Drivers/STM32F3xx_HAL_Driver/Src/stm32f3xx_hal_i2c.c **** 
3233:Drivers/STM32F3xx_HAL_Driver/Src/stm32f3xx_hal_i2c.c **** /**
3234:Drivers/STM32F3xx_HAL_Driver/Src/stm32f3xx_hal_i2c.c **** * @brief  Return the I2C error code.
3235:Drivers/STM32F3xx_HAL_Driver/Src/stm32f3xx_hal_i2c.c ****   * @param  hi2c Pointer to a I2C_HandleTypeDef structure that contains
3236:Drivers/STM32F3xx_HAL_Driver/Src/stm32f3xx_hal_i2c.c ****   *              the configuration information for the specified I2C.
3237:Drivers/STM32F3xx_HAL_Driver/Src/stm32f3xx_hal_i2c.c **** * @retval I2C Error Code
3238:Drivers/STM32F3xx_HAL_Driver/Src/stm32f3xx_hal_i2c.c **** */
3239:Drivers/STM32F3xx_HAL_Driver/Src/stm32f3xx_hal_i2c.c **** uint32_t HAL_I2C_GetError(I2C_HandleTypeDef *hi2c)
3240:Drivers/STM32F3xx_HAL_Driver/Src/stm32f3xx_hal_i2c.c **** {
 6747              		.loc 1 3240 0
 6748              		.cfi_startproc
 6749              		@ args = 0, pretend = 0, frame = 8
 6750              		@ frame_needed = 1, uses_anonymous_args = 0
 6751              		@ link register save eliminated.
 6752 0000 80B4     		push	{r7}
 6753              	.LCFI234:
 6754              		.cfi_def_cfa_offset 4
 6755              		.cfi_offset 7, -4
 6756 0002 83B0     		sub	sp, sp, #12
 6757              	.LCFI235:
 6758              		.cfi_def_cfa_offset 16
 6759 0004 00AF     		add	r7, sp, #0
 6760              	.LCFI236:
 6761              		.cfi_def_cfa_register 7
 6762 0006 7860     		str	r0, [r7, #4]
ARM GAS  /tmp/ccy0jiyr.s 			page 175


3241:Drivers/STM32F3xx_HAL_Driver/Src/stm32f3xx_hal_i2c.c ****   return hi2c->ErrorCode;
 6763              		.loc 1 3241 0
 6764 0008 7B68     		ldr	r3, [r7, #4]
 6765 000a 5B6C     		ldr	r3, [r3, #68]
3242:Drivers/STM32F3xx_HAL_Driver/Src/stm32f3xx_hal_i2c.c **** }
 6766              		.loc 1 3242 0
 6767 000c 1846     		mov	r0, r3
 6768 000e 0C37     		adds	r7, r7, #12
 6769              	.LCFI237:
 6770              		.cfi_def_cfa_offset 4
 6771 0010 BD46     		mov	sp, r7
 6772              	.LCFI238:
 6773              		.cfi_def_cfa_register 13
 6774              		@ sp needed
 6775 0012 5DF8047B 		ldr	r7, [sp], #4
 6776              	.LCFI239:
 6777              		.cfi_restore 7
 6778              		.cfi_def_cfa_offset 0
 6779 0016 7047     		bx	lr
 6780              		.cfi_endproc
 6781              	.LFE739:
 6783              		.section	.text.I2C_Master_ISR_IT,"ax",%progbits
 6784              		.align	1
 6785              		.syntax unified
 6786              		.thumb
 6787              		.thumb_func
 6788              		.fpu fpv4-sp-d16
 6790              	I2C_Master_ISR_IT:
 6791              	.LFB740:
3243:Drivers/STM32F3xx_HAL_Driver/Src/stm32f3xx_hal_i2c.c **** 
3244:Drivers/STM32F3xx_HAL_Driver/Src/stm32f3xx_hal_i2c.c **** /**
3245:Drivers/STM32F3xx_HAL_Driver/Src/stm32f3xx_hal_i2c.c ****   * @}
3246:Drivers/STM32F3xx_HAL_Driver/Src/stm32f3xx_hal_i2c.c ****   */
3247:Drivers/STM32F3xx_HAL_Driver/Src/stm32f3xx_hal_i2c.c **** 
3248:Drivers/STM32F3xx_HAL_Driver/Src/stm32f3xx_hal_i2c.c **** /**
3249:Drivers/STM32F3xx_HAL_Driver/Src/stm32f3xx_hal_i2c.c ****   * @}
3250:Drivers/STM32F3xx_HAL_Driver/Src/stm32f3xx_hal_i2c.c ****   */
3251:Drivers/STM32F3xx_HAL_Driver/Src/stm32f3xx_hal_i2c.c **** 
3252:Drivers/STM32F3xx_HAL_Driver/Src/stm32f3xx_hal_i2c.c **** /** @addtogroup I2C_Private_Functions
3253:Drivers/STM32F3xx_HAL_Driver/Src/stm32f3xx_hal_i2c.c ****   * @{
3254:Drivers/STM32F3xx_HAL_Driver/Src/stm32f3xx_hal_i2c.c ****   */
3255:Drivers/STM32F3xx_HAL_Driver/Src/stm32f3xx_hal_i2c.c **** 
3256:Drivers/STM32F3xx_HAL_Driver/Src/stm32f3xx_hal_i2c.c **** /**
3257:Drivers/STM32F3xx_HAL_Driver/Src/stm32f3xx_hal_i2c.c ****   * @brief  Interrupt Sub-Routine which handle the Interrupt Flags Master Mode with Interrupt.
3258:Drivers/STM32F3xx_HAL_Driver/Src/stm32f3xx_hal_i2c.c ****   * @param  hi2c Pointer to a I2C_HandleTypeDef structure that contains
3259:Drivers/STM32F3xx_HAL_Driver/Src/stm32f3xx_hal_i2c.c ****   *                the configuration information for the specified I2C.
3260:Drivers/STM32F3xx_HAL_Driver/Src/stm32f3xx_hal_i2c.c ****   * @param  ITFlags Interrupt flags to handle.
3261:Drivers/STM32F3xx_HAL_Driver/Src/stm32f3xx_hal_i2c.c ****   * @param  ITSources Interrupt sources enabled.
3262:Drivers/STM32F3xx_HAL_Driver/Src/stm32f3xx_hal_i2c.c ****   * @retval HAL status
3263:Drivers/STM32F3xx_HAL_Driver/Src/stm32f3xx_hal_i2c.c ****   */
3264:Drivers/STM32F3xx_HAL_Driver/Src/stm32f3xx_hal_i2c.c **** static HAL_StatusTypeDef I2C_Master_ISR_IT(struct __I2C_HandleTypeDef *hi2c, uint32_t ITFlags, uint
3265:Drivers/STM32F3xx_HAL_Driver/Src/stm32f3xx_hal_i2c.c **** {
 6792              		.loc 1 3265 0
 6793              		.cfi_startproc
 6794              		@ args = 0, pretend = 0, frame = 24
 6795              		@ frame_needed = 1, uses_anonymous_args = 0
 6796 0000 80B5     		push	{r7, lr}
ARM GAS  /tmp/ccy0jiyr.s 			page 176


 6797              	.LCFI240:
 6798              		.cfi_def_cfa_offset 8
 6799              		.cfi_offset 7, -8
 6800              		.cfi_offset 14, -4
 6801 0002 88B0     		sub	sp, sp, #32
 6802              	.LCFI241:
 6803              		.cfi_def_cfa_offset 40
 6804 0004 02AF     		add	r7, sp, #8
 6805              	.LCFI242:
 6806              		.cfi_def_cfa 7, 32
 6807 0006 F860     		str	r0, [r7, #12]
 6808 0008 B960     		str	r1, [r7, #8]
 6809 000a 7A60     		str	r2, [r7, #4]
3266:Drivers/STM32F3xx_HAL_Driver/Src/stm32f3xx_hal_i2c.c ****   uint16_t devaddress = 0U;
 6810              		.loc 1 3266 0
 6811 000c 0023     		movs	r3, #0
 6812 000e FB82     		strh	r3, [r7, #22]	@ movhi
3267:Drivers/STM32F3xx_HAL_Driver/Src/stm32f3xx_hal_i2c.c **** 
3268:Drivers/STM32F3xx_HAL_Driver/Src/stm32f3xx_hal_i2c.c ****   /* Process Locked */
3269:Drivers/STM32F3xx_HAL_Driver/Src/stm32f3xx_hal_i2c.c ****   __HAL_LOCK(hi2c);
 6813              		.loc 1 3269 0
 6814 0010 FB68     		ldr	r3, [r7, #12]
 6815 0012 93F84030 		ldrb	r3, [r3, #64]	@ zero_extendqisi2
 6816 0016 012B     		cmp	r3, #1
 6817 0018 01D1     		bne	.L334
 6818              		.loc 1 3269 0 is_stmt 0 discriminator 1
 6819 001a 0223     		movs	r3, #2
 6820 001c 01E1     		b	.L335
 6821              	.L334:
 6822              		.loc 1 3269 0 discriminator 2
 6823 001e FB68     		ldr	r3, [r7, #12]
 6824 0020 0122     		movs	r2, #1
 6825 0022 83F84020 		strb	r2, [r3, #64]
3270:Drivers/STM32F3xx_HAL_Driver/Src/stm32f3xx_hal_i2c.c **** 
3271:Drivers/STM32F3xx_HAL_Driver/Src/stm32f3xx_hal_i2c.c ****   if (((ITFlags & I2C_FLAG_AF) != RESET) && ((ITSources & I2C_IT_NACKI) != RESET))
 6826              		.loc 1 3271 0 is_stmt 1 discriminator 2
 6827 0026 BB68     		ldr	r3, [r7, #8]
 6828 0028 03F01003 		and	r3, r3, #16
 6829 002c 002B     		cmp	r3, #0
 6830 002e 12D0     		beq	.L336
 6831              		.loc 1 3271 0 is_stmt 0 discriminator 1
 6832 0030 7B68     		ldr	r3, [r7, #4]
 6833 0032 03F01003 		and	r3, r3, #16
 6834 0036 002B     		cmp	r3, #0
 6835 0038 0DD0     		beq	.L336
3272:Drivers/STM32F3xx_HAL_Driver/Src/stm32f3xx_hal_i2c.c ****   {
3273:Drivers/STM32F3xx_HAL_Driver/Src/stm32f3xx_hal_i2c.c ****     /* Clear NACK Flag */
3274:Drivers/STM32F3xx_HAL_Driver/Src/stm32f3xx_hal_i2c.c ****     __HAL_I2C_CLEAR_FLAG(hi2c, I2C_FLAG_AF);
 6836              		.loc 1 3274 0 is_stmt 1
 6837 003a FB68     		ldr	r3, [r7, #12]
 6838 003c 1B68     		ldr	r3, [r3]
 6839 003e 1022     		movs	r2, #16
 6840 0040 DA61     		str	r2, [r3, #28]
3275:Drivers/STM32F3xx_HAL_Driver/Src/stm32f3xx_hal_i2c.c **** 
3276:Drivers/STM32F3xx_HAL_Driver/Src/stm32f3xx_hal_i2c.c ****     /* Set corresponding Error Code */
3277:Drivers/STM32F3xx_HAL_Driver/Src/stm32f3xx_hal_i2c.c ****     /* No need to generate STOP, it is automatically done */
3278:Drivers/STM32F3xx_HAL_Driver/Src/stm32f3xx_hal_i2c.c ****     /* Error callback will be send during stop flag treatment */
ARM GAS  /tmp/ccy0jiyr.s 			page 177


3279:Drivers/STM32F3xx_HAL_Driver/Src/stm32f3xx_hal_i2c.c ****     hi2c->ErrorCode |= HAL_I2C_ERROR_AF;
 6841              		.loc 1 3279 0
 6842 0042 FB68     		ldr	r3, [r7, #12]
 6843 0044 5B6C     		ldr	r3, [r3, #68]
 6844 0046 43F00402 		orr	r2, r3, #4
 6845 004a FB68     		ldr	r3, [r7, #12]
 6846 004c 5A64     		str	r2, [r3, #68]
3280:Drivers/STM32F3xx_HAL_Driver/Src/stm32f3xx_hal_i2c.c **** 
3281:Drivers/STM32F3xx_HAL_Driver/Src/stm32f3xx_hal_i2c.c ****     /* Flush TX register */
3282:Drivers/STM32F3xx_HAL_Driver/Src/stm32f3xx_hal_i2c.c ****     I2C_Flush_TXDR(hi2c);
 6847              		.loc 1 3282 0
 6848 004e F868     		ldr	r0, [r7, #12]
 6849 0050 FFF7FEFF 		bl	I2C_Flush_TXDR
 6850 0054 D2E0     		b	.L337
 6851              	.L336:
3283:Drivers/STM32F3xx_HAL_Driver/Src/stm32f3xx_hal_i2c.c ****   }
3284:Drivers/STM32F3xx_HAL_Driver/Src/stm32f3xx_hal_i2c.c ****   else if (((ITFlags & I2C_FLAG_RXNE) != RESET) && ((ITSources & I2C_IT_RXI) != RESET))
 6852              		.loc 1 3284 0
 6853 0056 BB68     		ldr	r3, [r7, #8]
 6854 0058 03F00403 		and	r3, r3, #4
 6855 005c 002B     		cmp	r3, #0
 6856 005e 1CD0     		beq	.L338
 6857              		.loc 1 3284 0 is_stmt 0 discriminator 1
 6858 0060 7B68     		ldr	r3, [r7, #4]
 6859 0062 03F00403 		and	r3, r3, #4
 6860 0066 002B     		cmp	r3, #0
 6861 0068 17D0     		beq	.L338
3285:Drivers/STM32F3xx_HAL_Driver/Src/stm32f3xx_hal_i2c.c ****   {
3286:Drivers/STM32F3xx_HAL_Driver/Src/stm32f3xx_hal_i2c.c ****     /* Read data from RXDR */
3287:Drivers/STM32F3xx_HAL_Driver/Src/stm32f3xx_hal_i2c.c ****     (*hi2c->pBuffPtr++) = hi2c->Instance->RXDR;
 6862              		.loc 1 3287 0 is_stmt 1
 6863 006a FB68     		ldr	r3, [r7, #12]
 6864 006c 1B68     		ldr	r3, [r3]
 6865 006e 586A     		ldr	r0, [r3, #36]
 6866 0070 FB68     		ldr	r3, [r7, #12]
 6867 0072 5B6A     		ldr	r3, [r3, #36]
 6868 0074 591C     		adds	r1, r3, #1
 6869 0076 FA68     		ldr	r2, [r7, #12]
 6870 0078 5162     		str	r1, [r2, #36]
 6871 007a C2B2     		uxtb	r2, r0
 6872 007c 1A70     		strb	r2, [r3]
3288:Drivers/STM32F3xx_HAL_Driver/Src/stm32f3xx_hal_i2c.c ****     hi2c->XferSize--;
 6873              		.loc 1 3288 0
 6874 007e FB68     		ldr	r3, [r7, #12]
 6875 0080 1B8D     		ldrh	r3, [r3, #40]
 6876 0082 013B     		subs	r3, r3, #1
 6877 0084 9AB2     		uxth	r2, r3
 6878 0086 FB68     		ldr	r3, [r7, #12]
 6879 0088 1A85     		strh	r2, [r3, #40]	@ movhi
3289:Drivers/STM32F3xx_HAL_Driver/Src/stm32f3xx_hal_i2c.c ****     hi2c->XferCount--;
 6880              		.loc 1 3289 0
 6881 008a FB68     		ldr	r3, [r7, #12]
 6882 008c 5B8D     		ldrh	r3, [r3, #42]	@ movhi
 6883 008e 9BB2     		uxth	r3, r3
 6884 0090 013B     		subs	r3, r3, #1
 6885 0092 9AB2     		uxth	r2, r3
 6886 0094 FB68     		ldr	r3, [r7, #12]
ARM GAS  /tmp/ccy0jiyr.s 			page 178


 6887 0096 5A85     		strh	r2, [r3, #42]	@ movhi
 6888 0098 B0E0     		b	.L337
 6889              	.L338:
3290:Drivers/STM32F3xx_HAL_Driver/Src/stm32f3xx_hal_i2c.c ****   }
3291:Drivers/STM32F3xx_HAL_Driver/Src/stm32f3xx_hal_i2c.c ****   else if (((ITFlags & I2C_FLAG_TXIS) != RESET) && ((ITSources & I2C_IT_TXI) != RESET))
 6890              		.loc 1 3291 0
 6891 009a BB68     		ldr	r3, [r7, #8]
 6892 009c 03F00203 		and	r3, r3, #2
 6893 00a0 002B     		cmp	r3, #0
 6894 00a2 1BD0     		beq	.L339
 6895              		.loc 1 3291 0 is_stmt 0 discriminator 1
 6896 00a4 7B68     		ldr	r3, [r7, #4]
 6897 00a6 03F00203 		and	r3, r3, #2
 6898 00aa 002B     		cmp	r3, #0
 6899 00ac 16D0     		beq	.L339
3292:Drivers/STM32F3xx_HAL_Driver/Src/stm32f3xx_hal_i2c.c ****   {
3293:Drivers/STM32F3xx_HAL_Driver/Src/stm32f3xx_hal_i2c.c ****     /* Write data to TXDR */
3294:Drivers/STM32F3xx_HAL_Driver/Src/stm32f3xx_hal_i2c.c ****     hi2c->Instance->TXDR = (*hi2c->pBuffPtr++);
 6900              		.loc 1 3294 0 is_stmt 1
 6901 00ae FB68     		ldr	r3, [r7, #12]
 6902 00b0 5B6A     		ldr	r3, [r3, #36]
 6903 00b2 591C     		adds	r1, r3, #1
 6904 00b4 FA68     		ldr	r2, [r7, #12]
 6905 00b6 5162     		str	r1, [r2, #36]
 6906 00b8 1A78     		ldrb	r2, [r3]	@ zero_extendqisi2
 6907 00ba FB68     		ldr	r3, [r7, #12]
 6908 00bc 1B68     		ldr	r3, [r3]
 6909 00be 9A62     		str	r2, [r3, #40]
3295:Drivers/STM32F3xx_HAL_Driver/Src/stm32f3xx_hal_i2c.c ****     hi2c->XferSize--;
 6910              		.loc 1 3295 0
 6911 00c0 FB68     		ldr	r3, [r7, #12]
 6912 00c2 1B8D     		ldrh	r3, [r3, #40]
 6913 00c4 013B     		subs	r3, r3, #1
 6914 00c6 9AB2     		uxth	r2, r3
 6915 00c8 FB68     		ldr	r3, [r7, #12]
 6916 00ca 1A85     		strh	r2, [r3, #40]	@ movhi
3296:Drivers/STM32F3xx_HAL_Driver/Src/stm32f3xx_hal_i2c.c ****     hi2c->XferCount--;
 6917              		.loc 1 3296 0
 6918 00cc FB68     		ldr	r3, [r7, #12]
 6919 00ce 5B8D     		ldrh	r3, [r3, #42]	@ movhi
 6920 00d0 9BB2     		uxth	r3, r3
 6921 00d2 013B     		subs	r3, r3, #1
 6922 00d4 9AB2     		uxth	r2, r3
 6923 00d6 FB68     		ldr	r3, [r7, #12]
 6924 00d8 5A85     		strh	r2, [r3, #42]	@ movhi
 6925 00da 8FE0     		b	.L337
 6926              	.L339:
3297:Drivers/STM32F3xx_HAL_Driver/Src/stm32f3xx_hal_i2c.c ****   }
3298:Drivers/STM32F3xx_HAL_Driver/Src/stm32f3xx_hal_i2c.c ****   else if (((ITFlags & I2C_FLAG_TCR) != RESET) && ((ITSources & I2C_IT_TCI) != RESET))
 6927              		.loc 1 3298 0
 6928 00dc BB68     		ldr	r3, [r7, #8]
 6929 00de 03F08003 		and	r3, r3, #128
 6930 00e2 002B     		cmp	r3, #0
 6931 00e4 5DD0     		beq	.L340
 6932              		.loc 1 3298 0 is_stmt 0 discriminator 1
 6933 00e6 7B68     		ldr	r3, [r7, #4]
 6934 00e8 03F04003 		and	r3, r3, #64
ARM GAS  /tmp/ccy0jiyr.s 			page 179


 6935 00ec 002B     		cmp	r3, #0
 6936 00ee 58D0     		beq	.L340
3299:Drivers/STM32F3xx_HAL_Driver/Src/stm32f3xx_hal_i2c.c ****   {
3300:Drivers/STM32F3xx_HAL_Driver/Src/stm32f3xx_hal_i2c.c ****     if ((hi2c->XferSize == 0U) && (hi2c->XferCount != 0U))
 6937              		.loc 1 3300 0 is_stmt 1
 6938 00f0 FB68     		ldr	r3, [r7, #12]
 6939 00f2 1B8D     		ldrh	r3, [r3, #40]
 6940 00f4 002B     		cmp	r3, #0
 6941 00f6 42D1     		bne	.L341
 6942              		.loc 1 3300 0 is_stmt 0 discriminator 1
 6943 00f8 FB68     		ldr	r3, [r7, #12]
 6944 00fa 5B8D     		ldrh	r3, [r3, #42]	@ movhi
 6945 00fc 9BB2     		uxth	r3, r3
 6946 00fe 002B     		cmp	r3, #0
 6947 0100 3DD0     		beq	.L341
3301:Drivers/STM32F3xx_HAL_Driver/Src/stm32f3xx_hal_i2c.c ****     {
3302:Drivers/STM32F3xx_HAL_Driver/Src/stm32f3xx_hal_i2c.c ****       devaddress = (hi2c->Instance->CR2 & I2C_CR2_SADD);
 6948              		.loc 1 3302 0 is_stmt 1
 6949 0102 FB68     		ldr	r3, [r7, #12]
 6950 0104 1B68     		ldr	r3, [r3]
 6951 0106 5B68     		ldr	r3, [r3, #4]
 6952 0108 9BB2     		uxth	r3, r3
 6953 010a C3F30903 		ubfx	r3, r3, #0, #10
 6954 010e FB82     		strh	r3, [r7, #22]	@ movhi
3303:Drivers/STM32F3xx_HAL_Driver/Src/stm32f3xx_hal_i2c.c **** 
3304:Drivers/STM32F3xx_HAL_Driver/Src/stm32f3xx_hal_i2c.c ****       if (hi2c->XferCount > MAX_NBYTE_SIZE)
 6955              		.loc 1 3304 0
 6956 0110 FB68     		ldr	r3, [r7, #12]
 6957 0112 5B8D     		ldrh	r3, [r3, #42]	@ movhi
 6958 0114 9BB2     		uxth	r3, r3
 6959 0116 FF2B     		cmp	r3, #255
 6960 0118 0ED9     		bls	.L342
3305:Drivers/STM32F3xx_HAL_Driver/Src/stm32f3xx_hal_i2c.c ****       {
3306:Drivers/STM32F3xx_HAL_Driver/Src/stm32f3xx_hal_i2c.c ****         hi2c->XferSize = MAX_NBYTE_SIZE;
 6961              		.loc 1 3306 0
 6962 011a FB68     		ldr	r3, [r7, #12]
 6963 011c FF22     		movs	r2, #255
 6964 011e 1A85     		strh	r2, [r3, #40]	@ movhi
3307:Drivers/STM32F3xx_HAL_Driver/Src/stm32f3xx_hal_i2c.c ****         I2C_TransferConfig(hi2c, devaddress, hi2c->XferSize, I2C_RELOAD_MODE, I2C_NO_STARTSTOP);
 6965              		.loc 1 3307 0
 6966 0120 FB68     		ldr	r3, [r7, #12]
 6967 0122 1B8D     		ldrh	r3, [r3, #40]
 6968 0124 DAB2     		uxtb	r2, r3
 6969 0126 F98A     		ldrh	r1, [r7, #22]
 6970 0128 0023     		movs	r3, #0
 6971 012a 0093     		str	r3, [sp]
 6972 012c 4FF08073 		mov	r3, #16777216
 6973 0130 F868     		ldr	r0, [r7, #12]
 6974 0132 FFF7FEFF 		bl	I2C_TransferConfig
3304:Drivers/STM32F3xx_HAL_Driver/Src/stm32f3xx_hal_i2c.c ****       {
 6975              		.loc 1 3304 0
 6976 0136 33E0     		b	.L345
 6977              	.L342:
3308:Drivers/STM32F3xx_HAL_Driver/Src/stm32f3xx_hal_i2c.c ****       }
3309:Drivers/STM32F3xx_HAL_Driver/Src/stm32f3xx_hal_i2c.c ****       else
3310:Drivers/STM32F3xx_HAL_Driver/Src/stm32f3xx_hal_i2c.c ****       {
3311:Drivers/STM32F3xx_HAL_Driver/Src/stm32f3xx_hal_i2c.c ****         hi2c->XferSize = hi2c->XferCount;
ARM GAS  /tmp/ccy0jiyr.s 			page 180


 6978              		.loc 1 3311 0
 6979 0138 FB68     		ldr	r3, [r7, #12]
 6980 013a 5B8D     		ldrh	r3, [r3, #42]	@ movhi
 6981 013c 9AB2     		uxth	r2, r3
 6982 013e FB68     		ldr	r3, [r7, #12]
 6983 0140 1A85     		strh	r2, [r3, #40]	@ movhi
3312:Drivers/STM32F3xx_HAL_Driver/Src/stm32f3xx_hal_i2c.c ****         if (hi2c->XferOptions != I2C_NO_OPTION_FRAME)
 6984              		.loc 1 3312 0
 6985 0142 FB68     		ldr	r3, [r7, #12]
 6986 0144 DB6A     		ldr	r3, [r3, #44]
 6987 0146 13F5803F 		cmn	r3, #65536
 6988 014a 0CD0     		beq	.L344
3313:Drivers/STM32F3xx_HAL_Driver/Src/stm32f3xx_hal_i2c.c ****         {
3314:Drivers/STM32F3xx_HAL_Driver/Src/stm32f3xx_hal_i2c.c ****           I2C_TransferConfig(hi2c, devaddress, hi2c->XferSize, hi2c->XferOptions, I2C_NO_STARTSTOP)
 6989              		.loc 1 3314 0
 6990 014c FB68     		ldr	r3, [r7, #12]
 6991 014e 1B8D     		ldrh	r3, [r3, #40]
 6992 0150 DAB2     		uxtb	r2, r3
 6993 0152 FB68     		ldr	r3, [r7, #12]
 6994 0154 D86A     		ldr	r0, [r3, #44]
 6995 0156 F98A     		ldrh	r1, [r7, #22]
 6996 0158 0023     		movs	r3, #0
 6997 015a 0093     		str	r3, [sp]
 6998 015c 0346     		mov	r3, r0
 6999 015e F868     		ldr	r0, [r7, #12]
 7000 0160 FFF7FEFF 		bl	I2C_TransferConfig
3304:Drivers/STM32F3xx_HAL_Driver/Src/stm32f3xx_hal_i2c.c ****       {
 7001              		.loc 1 3304 0
 7002 0164 1CE0     		b	.L345
 7003              	.L344:
3315:Drivers/STM32F3xx_HAL_Driver/Src/stm32f3xx_hal_i2c.c ****         }
3316:Drivers/STM32F3xx_HAL_Driver/Src/stm32f3xx_hal_i2c.c ****         else
3317:Drivers/STM32F3xx_HAL_Driver/Src/stm32f3xx_hal_i2c.c ****         {
3318:Drivers/STM32F3xx_HAL_Driver/Src/stm32f3xx_hal_i2c.c ****           I2C_TransferConfig(hi2c, devaddress, hi2c->XferSize, I2C_AUTOEND_MODE, I2C_NO_STARTSTOP);
 7004              		.loc 1 3318 0
 7005 0166 FB68     		ldr	r3, [r7, #12]
 7006 0168 1B8D     		ldrh	r3, [r3, #40]
 7007 016a DAB2     		uxtb	r2, r3
 7008 016c F98A     		ldrh	r1, [r7, #22]
 7009 016e 0023     		movs	r3, #0
 7010 0170 0093     		str	r3, [sp]
 7011 0172 4FF00073 		mov	r3, #33554432
 7012 0176 F868     		ldr	r0, [r7, #12]
 7013 0178 FFF7FEFF 		bl	I2C_TransferConfig
3304:Drivers/STM32F3xx_HAL_Driver/Src/stm32f3xx_hal_i2c.c ****       {
 7014              		.loc 1 3304 0
 7015 017c 10E0     		b	.L345
 7016              	.L341:
3319:Drivers/STM32F3xx_HAL_Driver/Src/stm32f3xx_hal_i2c.c ****         }
3320:Drivers/STM32F3xx_HAL_Driver/Src/stm32f3xx_hal_i2c.c ****       }
3321:Drivers/STM32F3xx_HAL_Driver/Src/stm32f3xx_hal_i2c.c ****     }
3322:Drivers/STM32F3xx_HAL_Driver/Src/stm32f3xx_hal_i2c.c ****     else
3323:Drivers/STM32F3xx_HAL_Driver/Src/stm32f3xx_hal_i2c.c ****     {
3324:Drivers/STM32F3xx_HAL_Driver/Src/stm32f3xx_hal_i2c.c ****       /* Call TxCpltCallback() if no stop mode is set */
3325:Drivers/STM32F3xx_HAL_Driver/Src/stm32f3xx_hal_i2c.c ****       if (I2C_GET_STOP_MODE(hi2c) != I2C_AUTOEND_MODE)
 7017              		.loc 1 3325 0
 7018 017e FB68     		ldr	r3, [r7, #12]
ARM GAS  /tmp/ccy0jiyr.s 			page 181


 7019 0180 1B68     		ldr	r3, [r3]
 7020 0182 5B68     		ldr	r3, [r3, #4]
 7021 0184 03F00073 		and	r3, r3, #33554432
 7022 0188 B3F1007F 		cmp	r3, #33554432
 7023 018c 03D0     		beq	.L346
3326:Drivers/STM32F3xx_HAL_Driver/Src/stm32f3xx_hal_i2c.c ****       {
3327:Drivers/STM32F3xx_HAL_Driver/Src/stm32f3xx_hal_i2c.c ****         /* Call I2C Master Sequential complete process */
3328:Drivers/STM32F3xx_HAL_Driver/Src/stm32f3xx_hal_i2c.c ****         I2C_ITMasterSequentialCplt(hi2c);
 7024              		.loc 1 3328 0
 7025 018e F868     		ldr	r0, [r7, #12]
 7026 0190 FFF7FEFF 		bl	I2C_ITMasterSequentialCplt
3300:Drivers/STM32F3xx_HAL_Driver/Src/stm32f3xx_hal_i2c.c ****     {
 7027              		.loc 1 3300 0
 7028 0194 32E0     		b	.L337
 7029              	.L346:
3329:Drivers/STM32F3xx_HAL_Driver/Src/stm32f3xx_hal_i2c.c ****       }
3330:Drivers/STM32F3xx_HAL_Driver/Src/stm32f3xx_hal_i2c.c ****       else
3331:Drivers/STM32F3xx_HAL_Driver/Src/stm32f3xx_hal_i2c.c ****       {
3332:Drivers/STM32F3xx_HAL_Driver/Src/stm32f3xx_hal_i2c.c ****         /* Wrong size Status regarding TCR flag event */
3333:Drivers/STM32F3xx_HAL_Driver/Src/stm32f3xx_hal_i2c.c ****         /* Call the corresponding callback to inform upper layer of End of Transfer */
3334:Drivers/STM32F3xx_HAL_Driver/Src/stm32f3xx_hal_i2c.c ****         I2C_ITError(hi2c, HAL_I2C_ERROR_SIZE);
 7030              		.loc 1 3334 0
 7031 0196 4021     		movs	r1, #64
 7032 0198 F868     		ldr	r0, [r7, #12]
 7033 019a FFF7FEFF 		bl	I2C_ITError
3300:Drivers/STM32F3xx_HAL_Driver/Src/stm32f3xx_hal_i2c.c ****     {
 7034              		.loc 1 3300 0
 7035 019e 2DE0     		b	.L337
 7036              	.L345:
3300:Drivers/STM32F3xx_HAL_Driver/Src/stm32f3xx_hal_i2c.c ****     {
 7037              		.loc 1 3300 0 is_stmt 0 discriminator 1
 7038 01a0 2CE0     		b	.L337
 7039              	.L340:
3335:Drivers/STM32F3xx_HAL_Driver/Src/stm32f3xx_hal_i2c.c ****       }
3336:Drivers/STM32F3xx_HAL_Driver/Src/stm32f3xx_hal_i2c.c ****     }
3337:Drivers/STM32F3xx_HAL_Driver/Src/stm32f3xx_hal_i2c.c ****   }
3338:Drivers/STM32F3xx_HAL_Driver/Src/stm32f3xx_hal_i2c.c ****   else if (((ITFlags & I2C_FLAG_TC) != RESET) && ((ITSources & I2C_IT_TCI) != RESET))
 7040              		.loc 1 3338 0 is_stmt 1
 7041 01a2 BB68     		ldr	r3, [r7, #8]
 7042 01a4 03F04003 		and	r3, r3, #64
 7043 01a8 002B     		cmp	r3, #0
 7044 01aa 27D0     		beq	.L337
 7045              		.loc 1 3338 0 is_stmt 0 discriminator 1
 7046 01ac 7B68     		ldr	r3, [r7, #4]
 7047 01ae 03F04003 		and	r3, r3, #64
 7048 01b2 002B     		cmp	r3, #0
 7049 01b4 22D0     		beq	.L337
3339:Drivers/STM32F3xx_HAL_Driver/Src/stm32f3xx_hal_i2c.c ****   {
3340:Drivers/STM32F3xx_HAL_Driver/Src/stm32f3xx_hal_i2c.c ****     if (hi2c->XferCount == 0U)
 7050              		.loc 1 3340 0 is_stmt 1
 7051 01b6 FB68     		ldr	r3, [r7, #12]
 7052 01b8 5B8D     		ldrh	r3, [r3, #42]	@ movhi
 7053 01ba 9BB2     		uxth	r3, r3
 7054 01bc 002B     		cmp	r3, #0
 7055 01be 19D1     		bne	.L347
3341:Drivers/STM32F3xx_HAL_Driver/Src/stm32f3xx_hal_i2c.c ****     {
3342:Drivers/STM32F3xx_HAL_Driver/Src/stm32f3xx_hal_i2c.c ****       if (I2C_GET_STOP_MODE(hi2c) != I2C_AUTOEND_MODE)
ARM GAS  /tmp/ccy0jiyr.s 			page 182


 7056              		.loc 1 3342 0
 7057 01c0 FB68     		ldr	r3, [r7, #12]
 7058 01c2 1B68     		ldr	r3, [r3]
 7059 01c4 5B68     		ldr	r3, [r3, #4]
 7060 01c6 03F00073 		and	r3, r3, #33554432
 7061 01ca B3F1007F 		cmp	r3, #33554432
 7062 01ce 15D0     		beq	.L337
3343:Drivers/STM32F3xx_HAL_Driver/Src/stm32f3xx_hal_i2c.c ****       {
3344:Drivers/STM32F3xx_HAL_Driver/Src/stm32f3xx_hal_i2c.c ****         /* Generate a stop condition in case of no transfer option */
3345:Drivers/STM32F3xx_HAL_Driver/Src/stm32f3xx_hal_i2c.c ****         if (hi2c->XferOptions == I2C_NO_OPTION_FRAME)
 7063              		.loc 1 3345 0
 7064 01d0 FB68     		ldr	r3, [r7, #12]
 7065 01d2 DB6A     		ldr	r3, [r3, #44]
 7066 01d4 13F5803F 		cmn	r3, #65536
 7067 01d8 08D1     		bne	.L349
3346:Drivers/STM32F3xx_HAL_Driver/Src/stm32f3xx_hal_i2c.c ****         {
3347:Drivers/STM32F3xx_HAL_Driver/Src/stm32f3xx_hal_i2c.c ****           /* Generate Stop */
3348:Drivers/STM32F3xx_HAL_Driver/Src/stm32f3xx_hal_i2c.c ****           hi2c->Instance->CR2 |= I2C_CR2_STOP;
 7068              		.loc 1 3348 0
 7069 01da FB68     		ldr	r3, [r7, #12]
 7070 01dc 1B68     		ldr	r3, [r3]
 7071 01de 5A68     		ldr	r2, [r3, #4]
 7072 01e0 FB68     		ldr	r3, [r7, #12]
 7073 01e2 1B68     		ldr	r3, [r3]
 7074 01e4 42F48042 		orr	r2, r2, #16384
 7075 01e8 5A60     		str	r2, [r3, #4]
 7076 01ea 07E0     		b	.L337
 7077              	.L349:
3349:Drivers/STM32F3xx_HAL_Driver/Src/stm32f3xx_hal_i2c.c ****         }
3350:Drivers/STM32F3xx_HAL_Driver/Src/stm32f3xx_hal_i2c.c ****         else
3351:Drivers/STM32F3xx_HAL_Driver/Src/stm32f3xx_hal_i2c.c ****         {
3352:Drivers/STM32F3xx_HAL_Driver/Src/stm32f3xx_hal_i2c.c ****           /* Call I2C Master Sequential complete process */
3353:Drivers/STM32F3xx_HAL_Driver/Src/stm32f3xx_hal_i2c.c ****           I2C_ITMasterSequentialCplt(hi2c);
 7078              		.loc 1 3353 0
 7079 01ec F868     		ldr	r0, [r7, #12]
 7080 01ee FFF7FEFF 		bl	I2C_ITMasterSequentialCplt
 7081 01f2 03E0     		b	.L337
 7082              	.L347:
3354:Drivers/STM32F3xx_HAL_Driver/Src/stm32f3xx_hal_i2c.c ****         }
3355:Drivers/STM32F3xx_HAL_Driver/Src/stm32f3xx_hal_i2c.c ****       }
3356:Drivers/STM32F3xx_HAL_Driver/Src/stm32f3xx_hal_i2c.c ****     }
3357:Drivers/STM32F3xx_HAL_Driver/Src/stm32f3xx_hal_i2c.c ****     else
3358:Drivers/STM32F3xx_HAL_Driver/Src/stm32f3xx_hal_i2c.c ****     {
3359:Drivers/STM32F3xx_HAL_Driver/Src/stm32f3xx_hal_i2c.c ****       /* Wrong size Status regarding TC flag event */
3360:Drivers/STM32F3xx_HAL_Driver/Src/stm32f3xx_hal_i2c.c ****       /* Call the corresponding callback to inform upper layer of End of Transfer */
3361:Drivers/STM32F3xx_HAL_Driver/Src/stm32f3xx_hal_i2c.c ****       I2C_ITError(hi2c, HAL_I2C_ERROR_SIZE);
 7083              		.loc 1 3361 0
 7084 01f4 4021     		movs	r1, #64
 7085 01f6 F868     		ldr	r0, [r7, #12]
 7086 01f8 FFF7FEFF 		bl	I2C_ITError
 7087              	.L337:
3362:Drivers/STM32F3xx_HAL_Driver/Src/stm32f3xx_hal_i2c.c ****     }
3363:Drivers/STM32F3xx_HAL_Driver/Src/stm32f3xx_hal_i2c.c ****   }
3364:Drivers/STM32F3xx_HAL_Driver/Src/stm32f3xx_hal_i2c.c **** 
3365:Drivers/STM32F3xx_HAL_Driver/Src/stm32f3xx_hal_i2c.c ****   if (((ITFlags & I2C_FLAG_STOPF) != RESET) && ((ITSources & I2C_IT_STOPI) != RESET))
 7088              		.loc 1 3365 0
 7089 01fc BB68     		ldr	r3, [r7, #8]
ARM GAS  /tmp/ccy0jiyr.s 			page 183


 7090 01fe 03F02003 		and	r3, r3, #32
 7091 0202 002B     		cmp	r3, #0
 7092 0204 08D0     		beq	.L350
 7093              		.loc 1 3365 0 is_stmt 0 discriminator 1
 7094 0206 7B68     		ldr	r3, [r7, #4]
 7095 0208 03F02003 		and	r3, r3, #32
 7096 020c 002B     		cmp	r3, #0
 7097 020e 03D0     		beq	.L350
3366:Drivers/STM32F3xx_HAL_Driver/Src/stm32f3xx_hal_i2c.c ****   {
3367:Drivers/STM32F3xx_HAL_Driver/Src/stm32f3xx_hal_i2c.c ****     /* Call I2C Master complete process */
3368:Drivers/STM32F3xx_HAL_Driver/Src/stm32f3xx_hal_i2c.c ****     I2C_ITMasterCplt(hi2c, ITFlags);
 7098              		.loc 1 3368 0 is_stmt 1
 7099 0210 B968     		ldr	r1, [r7, #8]
 7100 0212 F868     		ldr	r0, [r7, #12]
 7101 0214 FFF7FEFF 		bl	I2C_ITMasterCplt
 7102              	.L350:
3369:Drivers/STM32F3xx_HAL_Driver/Src/stm32f3xx_hal_i2c.c ****   }
3370:Drivers/STM32F3xx_HAL_Driver/Src/stm32f3xx_hal_i2c.c **** 
3371:Drivers/STM32F3xx_HAL_Driver/Src/stm32f3xx_hal_i2c.c ****   /* Process Unlocked */
3372:Drivers/STM32F3xx_HAL_Driver/Src/stm32f3xx_hal_i2c.c ****   __HAL_UNLOCK(hi2c);
 7103              		.loc 1 3372 0
 7104 0218 FB68     		ldr	r3, [r7, #12]
 7105 021a 0022     		movs	r2, #0
 7106 021c 83F84020 		strb	r2, [r3, #64]
3373:Drivers/STM32F3xx_HAL_Driver/Src/stm32f3xx_hal_i2c.c **** 
3374:Drivers/STM32F3xx_HAL_Driver/Src/stm32f3xx_hal_i2c.c ****   return HAL_OK;
 7107              		.loc 1 3374 0
 7108 0220 0023     		movs	r3, #0
 7109              	.L335:
3375:Drivers/STM32F3xx_HAL_Driver/Src/stm32f3xx_hal_i2c.c **** }
 7110              		.loc 1 3375 0
 7111 0222 1846     		mov	r0, r3
 7112 0224 1837     		adds	r7, r7, #24
 7113              	.LCFI243:
 7114              		.cfi_def_cfa_offset 8
 7115 0226 BD46     		mov	sp, r7
 7116              	.LCFI244:
 7117              		.cfi_def_cfa_register 13
 7118              		@ sp needed
 7119 0228 80BD     		pop	{r7, pc}
 7120              		.cfi_endproc
 7121              	.LFE740:
 7123              		.section	.text.I2C_Slave_ISR_IT,"ax",%progbits
 7124              		.align	1
 7125              		.syntax unified
 7126              		.thumb
 7127              		.thumb_func
 7128              		.fpu fpv4-sp-d16
 7130              	I2C_Slave_ISR_IT:
 7131              	.LFB741:
3376:Drivers/STM32F3xx_HAL_Driver/Src/stm32f3xx_hal_i2c.c **** 
3377:Drivers/STM32F3xx_HAL_Driver/Src/stm32f3xx_hal_i2c.c **** /**
3378:Drivers/STM32F3xx_HAL_Driver/Src/stm32f3xx_hal_i2c.c ****   * @brief  Interrupt Sub-Routine which handle the Interrupt Flags Slave Mode with Interrupt.
3379:Drivers/STM32F3xx_HAL_Driver/Src/stm32f3xx_hal_i2c.c ****   * @param  hi2c Pointer to a I2C_HandleTypeDef structure that contains
3380:Drivers/STM32F3xx_HAL_Driver/Src/stm32f3xx_hal_i2c.c ****   *                the configuration information for the specified I2C.
3381:Drivers/STM32F3xx_HAL_Driver/Src/stm32f3xx_hal_i2c.c ****   * @param  ITFlags Interrupt flags to handle.
3382:Drivers/STM32F3xx_HAL_Driver/Src/stm32f3xx_hal_i2c.c ****   * @param  ITSources Interrupt sources enabled.
ARM GAS  /tmp/ccy0jiyr.s 			page 184


3383:Drivers/STM32F3xx_HAL_Driver/Src/stm32f3xx_hal_i2c.c ****   * @retval HAL status
3384:Drivers/STM32F3xx_HAL_Driver/Src/stm32f3xx_hal_i2c.c ****   */
3385:Drivers/STM32F3xx_HAL_Driver/Src/stm32f3xx_hal_i2c.c **** static HAL_StatusTypeDef I2C_Slave_ISR_IT(struct __I2C_HandleTypeDef *hi2c, uint32_t ITFlags, uint3
3386:Drivers/STM32F3xx_HAL_Driver/Src/stm32f3xx_hal_i2c.c **** {
 7132              		.loc 1 3386 0
 7133              		.cfi_startproc
 7134              		@ args = 0, pretend = 0, frame = 16
 7135              		@ frame_needed = 1, uses_anonymous_args = 0
 7136 0000 80B5     		push	{r7, lr}
 7137              	.LCFI245:
 7138              		.cfi_def_cfa_offset 8
 7139              		.cfi_offset 7, -8
 7140              		.cfi_offset 14, -4
 7141 0002 84B0     		sub	sp, sp, #16
 7142              	.LCFI246:
 7143              		.cfi_def_cfa_offset 24
 7144 0004 00AF     		add	r7, sp, #0
 7145              	.LCFI247:
 7146              		.cfi_def_cfa_register 7
 7147 0006 F860     		str	r0, [r7, #12]
 7148 0008 B960     		str	r1, [r7, #8]
 7149 000a 7A60     		str	r2, [r7, #4]
3387:Drivers/STM32F3xx_HAL_Driver/Src/stm32f3xx_hal_i2c.c ****   /* Process locked */
3388:Drivers/STM32F3xx_HAL_Driver/Src/stm32f3xx_hal_i2c.c ****   __HAL_LOCK(hi2c);
 7150              		.loc 1 3388 0
 7151 000c FB68     		ldr	r3, [r7, #12]
 7152 000e 93F84030 		ldrb	r3, [r3, #64]	@ zero_extendqisi2
 7153 0012 012B     		cmp	r3, #1
 7154 0014 01D1     		bne	.L352
 7155              		.loc 1 3388 0 is_stmt 0 discriminator 1
 7156 0016 0223     		movs	r3, #2
 7157 0018 D8E0     		b	.L353
 7158              	.L352:
 7159              		.loc 1 3388 0 discriminator 2
 7160 001a FB68     		ldr	r3, [r7, #12]
 7161 001c 0122     		movs	r2, #1
 7162 001e 83F84020 		strb	r2, [r3, #64]
3389:Drivers/STM32F3xx_HAL_Driver/Src/stm32f3xx_hal_i2c.c **** 
3390:Drivers/STM32F3xx_HAL_Driver/Src/stm32f3xx_hal_i2c.c ****   if (((ITFlags & I2C_FLAG_AF) != RESET) && ((ITSources & I2C_IT_NACKI) != RESET))
 7163              		.loc 1 3390 0 is_stmt 1 discriminator 2
 7164 0022 BB68     		ldr	r3, [r7, #8]
 7165 0024 03F01003 		and	r3, r3, #16
 7166 0028 002B     		cmp	r3, #0
 7167 002a 45D0     		beq	.L354
 7168              		.loc 1 3390 0 is_stmt 0 discriminator 1
 7169 002c 7B68     		ldr	r3, [r7, #4]
 7170 002e 03F01003 		and	r3, r3, #16
 7171 0032 002B     		cmp	r3, #0
 7172 0034 40D0     		beq	.L354
3391:Drivers/STM32F3xx_HAL_Driver/Src/stm32f3xx_hal_i2c.c ****   {
3392:Drivers/STM32F3xx_HAL_Driver/Src/stm32f3xx_hal_i2c.c ****     /* Check that I2C transfer finished */
3393:Drivers/STM32F3xx_HAL_Driver/Src/stm32f3xx_hal_i2c.c ****     /* if yes, normal use case, a NACK is sent by the MASTER when Transfer is finished */
3394:Drivers/STM32F3xx_HAL_Driver/Src/stm32f3xx_hal_i2c.c ****     /* Mean XferCount == 0*/
3395:Drivers/STM32F3xx_HAL_Driver/Src/stm32f3xx_hal_i2c.c ****     /* So clear Flag NACKF only */
3396:Drivers/STM32F3xx_HAL_Driver/Src/stm32f3xx_hal_i2c.c ****     if (hi2c->XferCount == 0U)
 7173              		.loc 1 3396 0 is_stmt 1
 7174 0036 FB68     		ldr	r3, [r7, #12]
ARM GAS  /tmp/ccy0jiyr.s 			page 185


 7175 0038 5B8D     		ldrh	r3, [r3, #42]	@ movhi
 7176 003a 9BB2     		uxth	r3, r3
 7177 003c 002B     		cmp	r3, #0
 7178 003e 2FD1     		bne	.L355
3397:Drivers/STM32F3xx_HAL_Driver/Src/stm32f3xx_hal_i2c.c ****     {
3398:Drivers/STM32F3xx_HAL_Driver/Src/stm32f3xx_hal_i2c.c ****       if (((hi2c->XferOptions == I2C_FIRST_AND_LAST_FRAME) || (hi2c->XferOptions == I2C_LAST_FRAME)
 7179              		.loc 1 3398 0
 7180 0040 FB68     		ldr	r3, [r7, #12]
 7181 0042 DB6A     		ldr	r3, [r3, #44]
 7182 0044 B3F1007F 		cmp	r3, #33554432
 7183 0048 04D0     		beq	.L356
 7184              		.loc 1 3398 0 is_stmt 0 discriminator 2
 7185 004a FB68     		ldr	r3, [r7, #12]
 7186 004c DB6A     		ldr	r3, [r3, #44]
 7187 004e B3F1007F 		cmp	r3, #33554432
 7188 0052 0AD1     		bne	.L357
 7189              	.L356:
3399:Drivers/STM32F3xx_HAL_Driver/Src/stm32f3xx_hal_i2c.c ****           (hi2c->State == HAL_I2C_STATE_LISTEN))
 7190              		.loc 1 3399 0 is_stmt 1 discriminator 3
 7191 0054 FB68     		ldr	r3, [r7, #12]
 7192 0056 93F84130 		ldrb	r3, [r3, #65]
 7193 005a DBB2     		uxtb	r3, r3
3398:Drivers/STM32F3xx_HAL_Driver/Src/stm32f3xx_hal_i2c.c ****           (hi2c->State == HAL_I2C_STATE_LISTEN))
 7194              		.loc 1 3398 0 discriminator 3
 7195 005c 282B     		cmp	r3, #40
 7196 005e 04D1     		bne	.L357
3400:Drivers/STM32F3xx_HAL_Driver/Src/stm32f3xx_hal_i2c.c ****       {
3401:Drivers/STM32F3xx_HAL_Driver/Src/stm32f3xx_hal_i2c.c ****         /* Call I2C Listen complete process */
3402:Drivers/STM32F3xx_HAL_Driver/Src/stm32f3xx_hal_i2c.c ****         I2C_ITListenCplt(hi2c, ITFlags);
 7197              		.loc 1 3402 0
 7198 0060 B968     		ldr	r1, [r7, #8]
 7199 0062 F868     		ldr	r0, [r7, #12]
 7200 0064 FFF7FEFF 		bl	I2C_ITListenCplt
 7201 0068 25E0     		b	.L360
 7202              	.L357:
3403:Drivers/STM32F3xx_HAL_Driver/Src/stm32f3xx_hal_i2c.c ****       }
3404:Drivers/STM32F3xx_HAL_Driver/Src/stm32f3xx_hal_i2c.c ****       else if ((hi2c->XferOptions != I2C_NO_OPTION_FRAME) && (hi2c->State == HAL_I2C_STATE_BUSY_TX_
 7203              		.loc 1 3404 0
 7204 006a FB68     		ldr	r3, [r7, #12]
 7205 006c DB6A     		ldr	r3, [r3, #44]
 7206 006e 13F5803F 		cmn	r3, #65536
 7207 0072 10D0     		beq	.L359
 7208              		.loc 1 3404 0 is_stmt 0 discriminator 1
 7209 0074 FB68     		ldr	r3, [r7, #12]
 7210 0076 93F84130 		ldrb	r3, [r3, #65]
 7211 007a DBB2     		uxtb	r3, r3
 7212 007c 292B     		cmp	r3, #41
 7213 007e 0AD1     		bne	.L359
3405:Drivers/STM32F3xx_HAL_Driver/Src/stm32f3xx_hal_i2c.c ****       {
3406:Drivers/STM32F3xx_HAL_Driver/Src/stm32f3xx_hal_i2c.c ****         /* Clear NACK Flag */
3407:Drivers/STM32F3xx_HAL_Driver/Src/stm32f3xx_hal_i2c.c ****         __HAL_I2C_CLEAR_FLAG(hi2c, I2C_FLAG_AF);
 7214              		.loc 1 3407 0 is_stmt 1
 7215 0080 FB68     		ldr	r3, [r7, #12]
 7216 0082 1B68     		ldr	r3, [r3]
 7217 0084 1022     		movs	r2, #16
 7218 0086 DA61     		str	r2, [r3, #28]
3408:Drivers/STM32F3xx_HAL_Driver/Src/stm32f3xx_hal_i2c.c **** 
ARM GAS  /tmp/ccy0jiyr.s 			page 186


3409:Drivers/STM32F3xx_HAL_Driver/Src/stm32f3xx_hal_i2c.c ****         /* Flush TX register */
3410:Drivers/STM32F3xx_HAL_Driver/Src/stm32f3xx_hal_i2c.c ****         I2C_Flush_TXDR(hi2c);
 7219              		.loc 1 3410 0
 7220 0088 F868     		ldr	r0, [r7, #12]
 7221 008a FFF7FEFF 		bl	I2C_Flush_TXDR
3411:Drivers/STM32F3xx_HAL_Driver/Src/stm32f3xx_hal_i2c.c **** 
3412:Drivers/STM32F3xx_HAL_Driver/Src/stm32f3xx_hal_i2c.c ****         /* Last Byte is Transmitted */
3413:Drivers/STM32F3xx_HAL_Driver/Src/stm32f3xx_hal_i2c.c ****         /* Call I2C Slave Sequential complete process */
3414:Drivers/STM32F3xx_HAL_Driver/Src/stm32f3xx_hal_i2c.c ****         I2C_ITSlaveSequentialCplt(hi2c);
 7222              		.loc 1 3414 0
 7223 008e F868     		ldr	r0, [r7, #12]
 7224 0090 FFF7FEFF 		bl	I2C_ITSlaveSequentialCplt
 7225 0094 0FE0     		b	.L360
 7226              	.L359:
3415:Drivers/STM32F3xx_HAL_Driver/Src/stm32f3xx_hal_i2c.c ****       }
3416:Drivers/STM32F3xx_HAL_Driver/Src/stm32f3xx_hal_i2c.c ****       else
3417:Drivers/STM32F3xx_HAL_Driver/Src/stm32f3xx_hal_i2c.c ****       {
3418:Drivers/STM32F3xx_HAL_Driver/Src/stm32f3xx_hal_i2c.c ****         /* Clear NACK Flag */
3419:Drivers/STM32F3xx_HAL_Driver/Src/stm32f3xx_hal_i2c.c ****         __HAL_I2C_CLEAR_FLAG(hi2c, I2C_FLAG_AF);
 7227              		.loc 1 3419 0
 7228 0096 FB68     		ldr	r3, [r7, #12]
 7229 0098 1B68     		ldr	r3, [r3]
 7230 009a 1022     		movs	r2, #16
 7231 009c DA61     		str	r2, [r3, #28]
3396:Drivers/STM32F3xx_HAL_Driver/Src/stm32f3xx_hal_i2c.c ****     {
 7232              		.loc 1 3396 0
 7233 009e 82E0     		b	.L361
 7234              	.L355:
3420:Drivers/STM32F3xx_HAL_Driver/Src/stm32f3xx_hal_i2c.c ****       }
3421:Drivers/STM32F3xx_HAL_Driver/Src/stm32f3xx_hal_i2c.c ****     }
3422:Drivers/STM32F3xx_HAL_Driver/Src/stm32f3xx_hal_i2c.c ****     else
3423:Drivers/STM32F3xx_HAL_Driver/Src/stm32f3xx_hal_i2c.c ****     {
3424:Drivers/STM32F3xx_HAL_Driver/Src/stm32f3xx_hal_i2c.c ****       /* if no, error use case, a Non-Acknowledge of last Data is generated by the MASTER*/
3425:Drivers/STM32F3xx_HAL_Driver/Src/stm32f3xx_hal_i2c.c ****       /* Clear NACK Flag */
3426:Drivers/STM32F3xx_HAL_Driver/Src/stm32f3xx_hal_i2c.c ****       __HAL_I2C_CLEAR_FLAG(hi2c, I2C_FLAG_AF);
 7235              		.loc 1 3426 0
 7236 00a0 FB68     		ldr	r3, [r7, #12]
 7237 00a2 1B68     		ldr	r3, [r3]
 7238 00a4 1022     		movs	r2, #16
 7239 00a6 DA61     		str	r2, [r3, #28]
3427:Drivers/STM32F3xx_HAL_Driver/Src/stm32f3xx_hal_i2c.c **** 
3428:Drivers/STM32F3xx_HAL_Driver/Src/stm32f3xx_hal_i2c.c ****       /* Set ErrorCode corresponding to a Non-Acknowledge */
3429:Drivers/STM32F3xx_HAL_Driver/Src/stm32f3xx_hal_i2c.c ****       hi2c->ErrorCode |= HAL_I2C_ERROR_AF;
 7240              		.loc 1 3429 0
 7241 00a8 FB68     		ldr	r3, [r7, #12]
 7242 00aa 5B6C     		ldr	r3, [r3, #68]
 7243 00ac 43F00402 		orr	r2, r3, #4
 7244 00b0 FB68     		ldr	r3, [r7, #12]
 7245 00b2 5A64     		str	r2, [r3, #68]
3396:Drivers/STM32F3xx_HAL_Driver/Src/stm32f3xx_hal_i2c.c ****     {
 7246              		.loc 1 3396 0
 7247 00b4 77E0     		b	.L361
 7248              	.L360:
3396:Drivers/STM32F3xx_HAL_Driver/Src/stm32f3xx_hal_i2c.c ****     {
 7249              		.loc 1 3396 0 is_stmt 0 discriminator 1
 7250 00b6 76E0     		b	.L361
 7251              	.L354:
ARM GAS  /tmp/ccy0jiyr.s 			page 187


3430:Drivers/STM32F3xx_HAL_Driver/Src/stm32f3xx_hal_i2c.c ****     }
3431:Drivers/STM32F3xx_HAL_Driver/Src/stm32f3xx_hal_i2c.c ****   }
3432:Drivers/STM32F3xx_HAL_Driver/Src/stm32f3xx_hal_i2c.c ****   else if (((ITFlags & I2C_FLAG_RXNE) != RESET) && ((ITSources & I2C_IT_RXI) != RESET))
 7252              		.loc 1 3432 0 is_stmt 1
 7253 00b8 BB68     		ldr	r3, [r7, #8]
 7254 00ba 03F00403 		and	r3, r3, #4
 7255 00be 002B     		cmp	r3, #0
 7256 00c0 2ED0     		beq	.L362
 7257              		.loc 1 3432 0 is_stmt 0 discriminator 1
 7258 00c2 7B68     		ldr	r3, [r7, #4]
 7259 00c4 03F00403 		and	r3, r3, #4
 7260 00c8 002B     		cmp	r3, #0
 7261 00ca 29D0     		beq	.L362
3433:Drivers/STM32F3xx_HAL_Driver/Src/stm32f3xx_hal_i2c.c ****   {
3434:Drivers/STM32F3xx_HAL_Driver/Src/stm32f3xx_hal_i2c.c ****     if (hi2c->XferCount > 0U)
 7262              		.loc 1 3434 0 is_stmt 1
 7263 00cc FB68     		ldr	r3, [r7, #12]
 7264 00ce 5B8D     		ldrh	r3, [r3, #42]	@ movhi
 7265 00d0 9BB2     		uxth	r3, r3
 7266 00d2 002B     		cmp	r3, #0
 7267 00d4 16D0     		beq	.L363
3435:Drivers/STM32F3xx_HAL_Driver/Src/stm32f3xx_hal_i2c.c ****     {
3436:Drivers/STM32F3xx_HAL_Driver/Src/stm32f3xx_hal_i2c.c ****       /* Read data from RXDR */
3437:Drivers/STM32F3xx_HAL_Driver/Src/stm32f3xx_hal_i2c.c ****       (*hi2c->pBuffPtr++) = hi2c->Instance->RXDR;
 7268              		.loc 1 3437 0
 7269 00d6 FB68     		ldr	r3, [r7, #12]
 7270 00d8 1B68     		ldr	r3, [r3]
 7271 00da 586A     		ldr	r0, [r3, #36]
 7272 00dc FB68     		ldr	r3, [r7, #12]
 7273 00de 5B6A     		ldr	r3, [r3, #36]
 7274 00e0 591C     		adds	r1, r3, #1
 7275 00e2 FA68     		ldr	r2, [r7, #12]
 7276 00e4 5162     		str	r1, [r2, #36]
 7277 00e6 C2B2     		uxtb	r2, r0
 7278 00e8 1A70     		strb	r2, [r3]
3438:Drivers/STM32F3xx_HAL_Driver/Src/stm32f3xx_hal_i2c.c ****       hi2c->XferSize--;
 7279              		.loc 1 3438 0
 7280 00ea FB68     		ldr	r3, [r7, #12]
 7281 00ec 1B8D     		ldrh	r3, [r3, #40]
 7282 00ee 013B     		subs	r3, r3, #1
 7283 00f0 9AB2     		uxth	r2, r3
 7284 00f2 FB68     		ldr	r3, [r7, #12]
 7285 00f4 1A85     		strh	r2, [r3, #40]	@ movhi
3439:Drivers/STM32F3xx_HAL_Driver/Src/stm32f3xx_hal_i2c.c ****       hi2c->XferCount--;
 7286              		.loc 1 3439 0
 7287 00f6 FB68     		ldr	r3, [r7, #12]
 7288 00f8 5B8D     		ldrh	r3, [r3, #42]	@ movhi
 7289 00fa 9BB2     		uxth	r3, r3
 7290 00fc 013B     		subs	r3, r3, #1
 7291 00fe 9AB2     		uxth	r2, r3
 7292 0100 FB68     		ldr	r3, [r7, #12]
 7293 0102 5A85     		strh	r2, [r3, #42]	@ movhi
 7294              	.L363:
3440:Drivers/STM32F3xx_HAL_Driver/Src/stm32f3xx_hal_i2c.c ****     }
3441:Drivers/STM32F3xx_HAL_Driver/Src/stm32f3xx_hal_i2c.c **** 
3442:Drivers/STM32F3xx_HAL_Driver/Src/stm32f3xx_hal_i2c.c ****     if ((hi2c->XferCount == 0U) && \
 7295              		.loc 1 3442 0
ARM GAS  /tmp/ccy0jiyr.s 			page 188


 7296 0104 FB68     		ldr	r3, [r7, #12]
 7297 0106 5B8D     		ldrh	r3, [r3, #42]	@ movhi
 7298 0108 9BB2     		uxth	r3, r3
 7299 010a 002B     		cmp	r3, #0
 7300 010c 4AD1     		bne	.L369
3443:Drivers/STM32F3xx_HAL_Driver/Src/stm32f3xx_hal_i2c.c ****         (hi2c->XferOptions != I2C_NO_OPTION_FRAME))
 7301              		.loc 1 3443 0 discriminator 1
 7302 010e FB68     		ldr	r3, [r7, #12]
 7303 0110 DB6A     		ldr	r3, [r3, #44]
3442:Drivers/STM32F3xx_HAL_Driver/Src/stm32f3xx_hal_i2c.c ****         (hi2c->XferOptions != I2C_NO_OPTION_FRAME))
 7304              		.loc 1 3442 0 discriminator 1
 7305 0112 13F5803F 		cmn	r3, #65536
 7306 0116 45D0     		beq	.L369
3444:Drivers/STM32F3xx_HAL_Driver/Src/stm32f3xx_hal_i2c.c ****     {
3445:Drivers/STM32F3xx_HAL_Driver/Src/stm32f3xx_hal_i2c.c ****       /* Call I2C Slave Sequential complete process */
3446:Drivers/STM32F3xx_HAL_Driver/Src/stm32f3xx_hal_i2c.c ****       I2C_ITSlaveSequentialCplt(hi2c);
 7307              		.loc 1 3446 0
 7308 0118 F868     		ldr	r0, [r7, #12]
 7309 011a FFF7FEFF 		bl	I2C_ITSlaveSequentialCplt
3442:Drivers/STM32F3xx_HAL_Driver/Src/stm32f3xx_hal_i2c.c ****         (hi2c->XferOptions != I2C_NO_OPTION_FRAME))
 7310              		.loc 1 3442 0
 7311 011e 41E0     		b	.L369
 7312              	.L362:
3447:Drivers/STM32F3xx_HAL_Driver/Src/stm32f3xx_hal_i2c.c ****     }
3448:Drivers/STM32F3xx_HAL_Driver/Src/stm32f3xx_hal_i2c.c ****   }
3449:Drivers/STM32F3xx_HAL_Driver/Src/stm32f3xx_hal_i2c.c ****   else if (((ITFlags & I2C_FLAG_ADDR) != RESET) && ((ITSources & I2C_IT_ADDRI) != RESET))
 7313              		.loc 1 3449 0
 7314 0120 BB68     		ldr	r3, [r7, #8]
 7315 0122 03F00803 		and	r3, r3, #8
 7316 0126 002B     		cmp	r3, #0
 7317 0128 09D0     		beq	.L365
 7318              		.loc 1 3449 0 is_stmt 0 discriminator 1
 7319 012a 7B68     		ldr	r3, [r7, #4]
 7320 012c 03F00803 		and	r3, r3, #8
 7321 0130 002B     		cmp	r3, #0
 7322 0132 04D0     		beq	.L365
3450:Drivers/STM32F3xx_HAL_Driver/Src/stm32f3xx_hal_i2c.c ****   {
3451:Drivers/STM32F3xx_HAL_Driver/Src/stm32f3xx_hal_i2c.c ****     I2C_ITAddrCplt(hi2c, ITFlags);
 7323              		.loc 1 3451 0 is_stmt 1
 7324 0134 B968     		ldr	r1, [r7, #8]
 7325 0136 F868     		ldr	r0, [r7, #12]
 7326 0138 FFF7FEFF 		bl	I2C_ITAddrCplt
 7327 013c 33E0     		b	.L361
 7328              	.L365:
3452:Drivers/STM32F3xx_HAL_Driver/Src/stm32f3xx_hal_i2c.c ****   }
3453:Drivers/STM32F3xx_HAL_Driver/Src/stm32f3xx_hal_i2c.c ****   else if (((ITFlags & I2C_FLAG_TXIS) != RESET) && ((ITSources & I2C_IT_TXI) != RESET))
 7329              		.loc 1 3453 0
 7330 013e BB68     		ldr	r3, [r7, #8]
 7331 0140 03F00203 		and	r3, r3, #2
 7332 0144 002B     		cmp	r3, #0
 7333 0146 2ED0     		beq	.L361
 7334              		.loc 1 3453 0 is_stmt 0 discriminator 1
 7335 0148 7B68     		ldr	r3, [r7, #4]
 7336 014a 03F00203 		and	r3, r3, #2
 7337 014e 002B     		cmp	r3, #0
 7338 0150 29D0     		beq	.L361
3454:Drivers/STM32F3xx_HAL_Driver/Src/stm32f3xx_hal_i2c.c ****   {
ARM GAS  /tmp/ccy0jiyr.s 			page 189


3455:Drivers/STM32F3xx_HAL_Driver/Src/stm32f3xx_hal_i2c.c ****     /* Write data to TXDR only if XferCount not reach "0" */
3456:Drivers/STM32F3xx_HAL_Driver/Src/stm32f3xx_hal_i2c.c ****     /* A TXIS flag can be set, during STOP treatment      */
3457:Drivers/STM32F3xx_HAL_Driver/Src/stm32f3xx_hal_i2c.c ****     /* Check if all Datas have already been sent */
3458:Drivers/STM32F3xx_HAL_Driver/Src/stm32f3xx_hal_i2c.c ****     /* If it is the case, this last write in TXDR is not sent, correspond to a dummy TXIS event */
3459:Drivers/STM32F3xx_HAL_Driver/Src/stm32f3xx_hal_i2c.c ****     if (hi2c->XferCount > 0U)
 7339              		.loc 1 3459 0 is_stmt 1
 7340 0152 FB68     		ldr	r3, [r7, #12]
 7341 0154 5B8D     		ldrh	r3, [r3, #42]	@ movhi
 7342 0156 9BB2     		uxth	r3, r3
 7343 0158 002B     		cmp	r3, #0
 7344 015a 16D0     		beq	.L366
3460:Drivers/STM32F3xx_HAL_Driver/Src/stm32f3xx_hal_i2c.c ****     {
3461:Drivers/STM32F3xx_HAL_Driver/Src/stm32f3xx_hal_i2c.c ****       /* Write data to TXDR */
3462:Drivers/STM32F3xx_HAL_Driver/Src/stm32f3xx_hal_i2c.c ****       hi2c->Instance->TXDR = (*hi2c->pBuffPtr++);
 7345              		.loc 1 3462 0
 7346 015c FB68     		ldr	r3, [r7, #12]
 7347 015e 5B6A     		ldr	r3, [r3, #36]
 7348 0160 591C     		adds	r1, r3, #1
 7349 0162 FA68     		ldr	r2, [r7, #12]
 7350 0164 5162     		str	r1, [r2, #36]
 7351 0166 1A78     		ldrb	r2, [r3]	@ zero_extendqisi2
 7352 0168 FB68     		ldr	r3, [r7, #12]
 7353 016a 1B68     		ldr	r3, [r3]
 7354 016c 9A62     		str	r2, [r3, #40]
3463:Drivers/STM32F3xx_HAL_Driver/Src/stm32f3xx_hal_i2c.c ****       hi2c->XferCount--;
 7355              		.loc 1 3463 0
 7356 016e FB68     		ldr	r3, [r7, #12]
 7357 0170 5B8D     		ldrh	r3, [r3, #42]	@ movhi
 7358 0172 9BB2     		uxth	r3, r3
 7359 0174 013B     		subs	r3, r3, #1
 7360 0176 9AB2     		uxth	r2, r3
 7361 0178 FB68     		ldr	r3, [r7, #12]
 7362 017a 5A85     		strh	r2, [r3, #42]	@ movhi
3464:Drivers/STM32F3xx_HAL_Driver/Src/stm32f3xx_hal_i2c.c ****       hi2c->XferSize--;
 7363              		.loc 1 3464 0
 7364 017c FB68     		ldr	r3, [r7, #12]
 7365 017e 1B8D     		ldrh	r3, [r3, #40]
 7366 0180 013B     		subs	r3, r3, #1
 7367 0182 9AB2     		uxth	r2, r3
 7368 0184 FB68     		ldr	r3, [r7, #12]
 7369 0186 1A85     		strh	r2, [r3, #40]	@ movhi
 7370 0188 0DE0     		b	.L361
 7371              	.L366:
3465:Drivers/STM32F3xx_HAL_Driver/Src/stm32f3xx_hal_i2c.c ****     }
3466:Drivers/STM32F3xx_HAL_Driver/Src/stm32f3xx_hal_i2c.c ****     else
3467:Drivers/STM32F3xx_HAL_Driver/Src/stm32f3xx_hal_i2c.c ****     {
3468:Drivers/STM32F3xx_HAL_Driver/Src/stm32f3xx_hal_i2c.c ****       if ((hi2c->XferOptions == I2C_NEXT_FRAME) || (hi2c->XferOptions == I2C_FIRST_FRAME))
 7372              		.loc 1 3468 0
 7373 018a FB68     		ldr	r3, [r7, #12]
 7374 018c DB6A     		ldr	r3, [r3, #44]
 7375 018e B3F1807F 		cmp	r3, #16777216
 7376 0192 03D0     		beq	.L367
 7377              		.loc 1 3468 0 is_stmt 0 discriminator 1
 7378 0194 FB68     		ldr	r3, [r7, #12]
 7379 0196 DB6A     		ldr	r3, [r3, #44]
 7380 0198 002B     		cmp	r3, #0
 7381 019a 04D1     		bne	.L361
ARM GAS  /tmp/ccy0jiyr.s 			page 190


 7382              	.L367:
3469:Drivers/STM32F3xx_HAL_Driver/Src/stm32f3xx_hal_i2c.c ****       {
3470:Drivers/STM32F3xx_HAL_Driver/Src/stm32f3xx_hal_i2c.c ****         /* Last Byte is Transmitted */
3471:Drivers/STM32F3xx_HAL_Driver/Src/stm32f3xx_hal_i2c.c ****         /* Call I2C Slave Sequential complete process */
3472:Drivers/STM32F3xx_HAL_Driver/Src/stm32f3xx_hal_i2c.c ****         I2C_ITSlaveSequentialCplt(hi2c);
 7383              		.loc 1 3472 0 is_stmt 1
 7384 019c F868     		ldr	r0, [r7, #12]
 7385 019e FFF7FEFF 		bl	I2C_ITSlaveSequentialCplt
 7386 01a2 00E0     		b	.L361
 7387              	.L369:
3442:Drivers/STM32F3xx_HAL_Driver/Src/stm32f3xx_hal_i2c.c ****         (hi2c->XferOptions != I2C_NO_OPTION_FRAME))
 7388              		.loc 1 3442 0
 7389 01a4 00BF     		nop
 7390              	.L361:
3473:Drivers/STM32F3xx_HAL_Driver/Src/stm32f3xx_hal_i2c.c ****       }
3474:Drivers/STM32F3xx_HAL_Driver/Src/stm32f3xx_hal_i2c.c ****     }
3475:Drivers/STM32F3xx_HAL_Driver/Src/stm32f3xx_hal_i2c.c ****   }
3476:Drivers/STM32F3xx_HAL_Driver/Src/stm32f3xx_hal_i2c.c **** 
3477:Drivers/STM32F3xx_HAL_Driver/Src/stm32f3xx_hal_i2c.c ****   /* Check if STOPF is set */
3478:Drivers/STM32F3xx_HAL_Driver/Src/stm32f3xx_hal_i2c.c ****   if (((ITFlags & I2C_FLAG_STOPF) != RESET) && ((ITSources & I2C_IT_STOPI) != RESET))
 7391              		.loc 1 3478 0
 7392 01a6 BB68     		ldr	r3, [r7, #8]
 7393 01a8 03F02003 		and	r3, r3, #32
 7394 01ac 002B     		cmp	r3, #0
 7395 01ae 08D0     		beq	.L368
 7396              		.loc 1 3478 0 is_stmt 0 discriminator 1
 7397 01b0 7B68     		ldr	r3, [r7, #4]
 7398 01b2 03F02003 		and	r3, r3, #32
 7399 01b6 002B     		cmp	r3, #0
 7400 01b8 03D0     		beq	.L368
3479:Drivers/STM32F3xx_HAL_Driver/Src/stm32f3xx_hal_i2c.c ****   {
3480:Drivers/STM32F3xx_HAL_Driver/Src/stm32f3xx_hal_i2c.c ****     /* Call I2C Slave complete process */
3481:Drivers/STM32F3xx_HAL_Driver/Src/stm32f3xx_hal_i2c.c ****     I2C_ITSlaveCplt(hi2c, ITFlags);
 7401              		.loc 1 3481 0 is_stmt 1
 7402 01ba B968     		ldr	r1, [r7, #8]
 7403 01bc F868     		ldr	r0, [r7, #12]
 7404 01be FFF7FEFF 		bl	I2C_ITSlaveCplt
 7405              	.L368:
3482:Drivers/STM32F3xx_HAL_Driver/Src/stm32f3xx_hal_i2c.c ****   }
3483:Drivers/STM32F3xx_HAL_Driver/Src/stm32f3xx_hal_i2c.c **** 
3484:Drivers/STM32F3xx_HAL_Driver/Src/stm32f3xx_hal_i2c.c ****   /* Process Unlocked */
3485:Drivers/STM32F3xx_HAL_Driver/Src/stm32f3xx_hal_i2c.c ****   __HAL_UNLOCK(hi2c);
 7406              		.loc 1 3485 0
 7407 01c2 FB68     		ldr	r3, [r7, #12]
 7408 01c4 0022     		movs	r2, #0
 7409 01c6 83F84020 		strb	r2, [r3, #64]
3486:Drivers/STM32F3xx_HAL_Driver/Src/stm32f3xx_hal_i2c.c **** 
3487:Drivers/STM32F3xx_HAL_Driver/Src/stm32f3xx_hal_i2c.c ****   return HAL_OK;
 7410              		.loc 1 3487 0
 7411 01ca 0023     		movs	r3, #0
 7412              	.L353:
3488:Drivers/STM32F3xx_HAL_Driver/Src/stm32f3xx_hal_i2c.c **** }
 7413              		.loc 1 3488 0
 7414 01cc 1846     		mov	r0, r3
 7415 01ce 1037     		adds	r7, r7, #16
 7416              	.LCFI248:
 7417              		.cfi_def_cfa_offset 8
ARM GAS  /tmp/ccy0jiyr.s 			page 191


 7418 01d0 BD46     		mov	sp, r7
 7419              	.LCFI249:
 7420              		.cfi_def_cfa_register 13
 7421              		@ sp needed
 7422 01d2 80BD     		pop	{r7, pc}
 7423              		.cfi_endproc
 7424              	.LFE741:
 7426              		.section	.text.I2C_Master_ISR_DMA,"ax",%progbits
 7427              		.align	1
 7428              		.syntax unified
 7429              		.thumb
 7430              		.thumb_func
 7431              		.fpu fpv4-sp-d16
 7433              	I2C_Master_ISR_DMA:
 7434              	.LFB742:
3489:Drivers/STM32F3xx_HAL_Driver/Src/stm32f3xx_hal_i2c.c **** 
3490:Drivers/STM32F3xx_HAL_Driver/Src/stm32f3xx_hal_i2c.c **** /**
3491:Drivers/STM32F3xx_HAL_Driver/Src/stm32f3xx_hal_i2c.c ****   * @brief  Interrupt Sub-Routine which handle the Interrupt Flags Master Mode with DMA.
3492:Drivers/STM32F3xx_HAL_Driver/Src/stm32f3xx_hal_i2c.c ****   * @param  hi2c Pointer to a I2C_HandleTypeDef structure that contains
3493:Drivers/STM32F3xx_HAL_Driver/Src/stm32f3xx_hal_i2c.c ****   *                the configuration information for the specified I2C.
3494:Drivers/STM32F3xx_HAL_Driver/Src/stm32f3xx_hal_i2c.c ****   * @param  ITFlags Interrupt flags to handle.
3495:Drivers/STM32F3xx_HAL_Driver/Src/stm32f3xx_hal_i2c.c ****   * @param  ITSources Interrupt sources enabled.
3496:Drivers/STM32F3xx_HAL_Driver/Src/stm32f3xx_hal_i2c.c ****   * @retval HAL status
3497:Drivers/STM32F3xx_HAL_Driver/Src/stm32f3xx_hal_i2c.c ****   */
3498:Drivers/STM32F3xx_HAL_Driver/Src/stm32f3xx_hal_i2c.c **** static HAL_StatusTypeDef I2C_Master_ISR_DMA(struct __I2C_HandleTypeDef *hi2c, uint32_t ITFlags, uin
3499:Drivers/STM32F3xx_HAL_Driver/Src/stm32f3xx_hal_i2c.c **** {
 7435              		.loc 1 3499 0
 7436              		.cfi_startproc
 7437              		@ args = 0, pretend = 0, frame = 24
 7438              		@ frame_needed = 1, uses_anonymous_args = 0
 7439 0000 80B5     		push	{r7, lr}
 7440              	.LCFI250:
 7441              		.cfi_def_cfa_offset 8
 7442              		.cfi_offset 7, -8
 7443              		.cfi_offset 14, -4
 7444 0002 88B0     		sub	sp, sp, #32
 7445              	.LCFI251:
 7446              		.cfi_def_cfa_offset 40
 7447 0004 02AF     		add	r7, sp, #8
 7448              	.LCFI252:
 7449              		.cfi_def_cfa 7, 32
 7450 0006 F860     		str	r0, [r7, #12]
 7451 0008 B960     		str	r1, [r7, #8]
 7452 000a 7A60     		str	r2, [r7, #4]
3500:Drivers/STM32F3xx_HAL_Driver/Src/stm32f3xx_hal_i2c.c ****   uint16_t devaddress = 0U;
 7453              		.loc 1 3500 0
 7454 000c 0023     		movs	r3, #0
 7455 000e 7B82     		strh	r3, [r7, #18]	@ movhi
3501:Drivers/STM32F3xx_HAL_Driver/Src/stm32f3xx_hal_i2c.c ****   uint32_t xfermode = 0U;
 7456              		.loc 1 3501 0
 7457 0010 0023     		movs	r3, #0
 7458 0012 7B61     		str	r3, [r7, #20]
3502:Drivers/STM32F3xx_HAL_Driver/Src/stm32f3xx_hal_i2c.c **** 
3503:Drivers/STM32F3xx_HAL_Driver/Src/stm32f3xx_hal_i2c.c ****   /* Process Locked */
3504:Drivers/STM32F3xx_HAL_Driver/Src/stm32f3xx_hal_i2c.c ****   __HAL_LOCK(hi2c);
 7459              		.loc 1 3504 0
 7460 0014 FB68     		ldr	r3, [r7, #12]
ARM GAS  /tmp/ccy0jiyr.s 			page 192


 7461 0016 93F84030 		ldrb	r3, [r3, #64]	@ zero_extendqisi2
 7462 001a 012B     		cmp	r3, #1
 7463 001c 01D1     		bne	.L371
 7464              		.loc 1 3504 0 is_stmt 0 discriminator 1
 7465 001e 0223     		movs	r3, #2
 7466 0020 94E0     		b	.L372
 7467              	.L371:
 7468              		.loc 1 3504 0 discriminator 2
 7469 0022 FB68     		ldr	r3, [r7, #12]
 7470 0024 0122     		movs	r2, #1
 7471 0026 83F84020 		strb	r2, [r3, #64]
3505:Drivers/STM32F3xx_HAL_Driver/Src/stm32f3xx_hal_i2c.c **** 
3506:Drivers/STM32F3xx_HAL_Driver/Src/stm32f3xx_hal_i2c.c ****   if (((ITFlags & I2C_FLAG_AF) != RESET) && ((ITSources & I2C_IT_NACKI) != RESET))
 7472              		.loc 1 3506 0 is_stmt 1 discriminator 2
 7473 002a BB68     		ldr	r3, [r7, #8]
 7474 002c 03F01003 		and	r3, r3, #16
 7475 0030 002B     		cmp	r3, #0
 7476 0032 16D0     		beq	.L373
 7477              		.loc 1 3506 0 is_stmt 0 discriminator 1
 7478 0034 7B68     		ldr	r3, [r7, #4]
 7479 0036 03F01003 		and	r3, r3, #16
 7480 003a 002B     		cmp	r3, #0
 7481 003c 11D0     		beq	.L373
3507:Drivers/STM32F3xx_HAL_Driver/Src/stm32f3xx_hal_i2c.c ****   {
3508:Drivers/STM32F3xx_HAL_Driver/Src/stm32f3xx_hal_i2c.c ****     /* Clear NACK Flag */
3509:Drivers/STM32F3xx_HAL_Driver/Src/stm32f3xx_hal_i2c.c ****     __HAL_I2C_CLEAR_FLAG(hi2c, I2C_FLAG_AF);
 7482              		.loc 1 3509 0 is_stmt 1
 7483 003e FB68     		ldr	r3, [r7, #12]
 7484 0040 1B68     		ldr	r3, [r3]
 7485 0042 1022     		movs	r2, #16
 7486 0044 DA61     		str	r2, [r3, #28]
3510:Drivers/STM32F3xx_HAL_Driver/Src/stm32f3xx_hal_i2c.c **** 
3511:Drivers/STM32F3xx_HAL_Driver/Src/stm32f3xx_hal_i2c.c ****     /* Set corresponding Error Code */
3512:Drivers/STM32F3xx_HAL_Driver/Src/stm32f3xx_hal_i2c.c ****     hi2c->ErrorCode |= HAL_I2C_ERROR_AF;
 7487              		.loc 1 3512 0
 7488 0046 FB68     		ldr	r3, [r7, #12]
 7489 0048 5B6C     		ldr	r3, [r3, #68]
 7490 004a 43F00402 		orr	r2, r3, #4
 7491 004e FB68     		ldr	r3, [r7, #12]
 7492 0050 5A64     		str	r2, [r3, #68]
3513:Drivers/STM32F3xx_HAL_Driver/Src/stm32f3xx_hal_i2c.c **** 
3514:Drivers/STM32F3xx_HAL_Driver/Src/stm32f3xx_hal_i2c.c ****     /* No need to generate STOP, it is automatically done */
3515:Drivers/STM32F3xx_HAL_Driver/Src/stm32f3xx_hal_i2c.c ****     /* But enable STOP interrupt, to treat it */
3516:Drivers/STM32F3xx_HAL_Driver/Src/stm32f3xx_hal_i2c.c ****     /* Error callback will be send during stop flag treatment */
3517:Drivers/STM32F3xx_HAL_Driver/Src/stm32f3xx_hal_i2c.c ****     I2C_Enable_IRQ(hi2c, I2C_XFER_CPLT_IT);
 7493              		.loc 1 3517 0
 7494 0052 1221     		movs	r1, #18
 7495 0054 F868     		ldr	r0, [r7, #12]
 7496 0056 FFF7FEFF 		bl	I2C_Enable_IRQ
3518:Drivers/STM32F3xx_HAL_Driver/Src/stm32f3xx_hal_i2c.c **** 
3519:Drivers/STM32F3xx_HAL_Driver/Src/stm32f3xx_hal_i2c.c ****     /* Flush TX register */
3520:Drivers/STM32F3xx_HAL_Driver/Src/stm32f3xx_hal_i2c.c ****     I2C_Flush_TXDR(hi2c);
 7497              		.loc 1 3520 0
 7498 005a F868     		ldr	r0, [r7, #12]
 7499 005c FFF7FEFF 		bl	I2C_Flush_TXDR
 7500 0060 6FE0     		b	.L374
 7501              	.L373:
ARM GAS  /tmp/ccy0jiyr.s 			page 193


3521:Drivers/STM32F3xx_HAL_Driver/Src/stm32f3xx_hal_i2c.c ****   }
3522:Drivers/STM32F3xx_HAL_Driver/Src/stm32f3xx_hal_i2c.c ****   else if (((ITFlags & I2C_FLAG_TCR) != RESET) && ((ITSources & I2C_IT_TCI) != RESET))
 7502              		.loc 1 3522 0
 7503 0062 BB68     		ldr	r3, [r7, #8]
 7504 0064 03F08003 		and	r3, r3, #128
 7505 0068 002B     		cmp	r3, #0
 7506 006a 5CD0     		beq	.L375
 7507              		.loc 1 3522 0 is_stmt 0 discriminator 1
 7508 006c 7B68     		ldr	r3, [r7, #4]
 7509 006e 03F04003 		and	r3, r3, #64
 7510 0072 002B     		cmp	r3, #0
 7511 0074 57D0     		beq	.L375
3523:Drivers/STM32F3xx_HAL_Driver/Src/stm32f3xx_hal_i2c.c ****   {
3524:Drivers/STM32F3xx_HAL_Driver/Src/stm32f3xx_hal_i2c.c ****     /* Disable TC interrupt */
3525:Drivers/STM32F3xx_HAL_Driver/Src/stm32f3xx_hal_i2c.c ****     __HAL_I2C_DISABLE_IT(hi2c, I2C_IT_TCI);
 7512              		.loc 1 3525 0 is_stmt 1
 7513 0076 FB68     		ldr	r3, [r7, #12]
 7514 0078 1B68     		ldr	r3, [r3]
 7515 007a 1A68     		ldr	r2, [r3]
 7516 007c FB68     		ldr	r3, [r7, #12]
 7517 007e 1B68     		ldr	r3, [r3]
 7518 0080 22F04002 		bic	r2, r2, #64
 7519 0084 1A60     		str	r2, [r3]
3526:Drivers/STM32F3xx_HAL_Driver/Src/stm32f3xx_hal_i2c.c **** 
3527:Drivers/STM32F3xx_HAL_Driver/Src/stm32f3xx_hal_i2c.c ****     if (hi2c->XferCount != 0U)
 7520              		.loc 1 3527 0
 7521 0086 FB68     		ldr	r3, [r7, #12]
 7522 0088 5B8D     		ldrh	r3, [r3, #42]	@ movhi
 7523 008a 9BB2     		uxth	r3, r3
 7524 008c 002B     		cmp	r3, #0
 7525 008e 45D0     		beq	.L376
3528:Drivers/STM32F3xx_HAL_Driver/Src/stm32f3xx_hal_i2c.c ****     {
3529:Drivers/STM32F3xx_HAL_Driver/Src/stm32f3xx_hal_i2c.c ****       /* Recover Slave address */
3530:Drivers/STM32F3xx_HAL_Driver/Src/stm32f3xx_hal_i2c.c ****       devaddress = (hi2c->Instance->CR2 & I2C_CR2_SADD);
 7526              		.loc 1 3530 0
 7527 0090 FB68     		ldr	r3, [r7, #12]
 7528 0092 1B68     		ldr	r3, [r3]
 7529 0094 5B68     		ldr	r3, [r3, #4]
 7530 0096 9BB2     		uxth	r3, r3
 7531 0098 C3F30903 		ubfx	r3, r3, #0, #10
 7532 009c 7B82     		strh	r3, [r7, #18]	@ movhi
3531:Drivers/STM32F3xx_HAL_Driver/Src/stm32f3xx_hal_i2c.c **** 
3532:Drivers/STM32F3xx_HAL_Driver/Src/stm32f3xx_hal_i2c.c ****       /* Prepare the new XferSize to transfer */
3533:Drivers/STM32F3xx_HAL_Driver/Src/stm32f3xx_hal_i2c.c ****       if (hi2c->XferCount > MAX_NBYTE_SIZE)
 7533              		.loc 1 3533 0
 7534 009e FB68     		ldr	r3, [r7, #12]
 7535 00a0 5B8D     		ldrh	r3, [r3, #42]	@ movhi
 7536 00a2 9BB2     		uxth	r3, r3
 7537 00a4 FF2B     		cmp	r3, #255
 7538 00a6 06D9     		bls	.L377
3534:Drivers/STM32F3xx_HAL_Driver/Src/stm32f3xx_hal_i2c.c ****       {
3535:Drivers/STM32F3xx_HAL_Driver/Src/stm32f3xx_hal_i2c.c ****         hi2c->XferSize = MAX_NBYTE_SIZE;
 7539              		.loc 1 3535 0
 7540 00a8 FB68     		ldr	r3, [r7, #12]
 7541 00aa FF22     		movs	r2, #255
 7542 00ac 1A85     		strh	r2, [r3, #40]	@ movhi
3536:Drivers/STM32F3xx_HAL_Driver/Src/stm32f3xx_hal_i2c.c ****         xfermode = I2C_RELOAD_MODE;
ARM GAS  /tmp/ccy0jiyr.s 			page 194


 7543              		.loc 1 3536 0
 7544 00ae 4FF08073 		mov	r3, #16777216
 7545 00b2 7B61     		str	r3, [r7, #20]
 7546 00b4 07E0     		b	.L378
 7547              	.L377:
3537:Drivers/STM32F3xx_HAL_Driver/Src/stm32f3xx_hal_i2c.c ****       }
3538:Drivers/STM32F3xx_HAL_Driver/Src/stm32f3xx_hal_i2c.c ****       else
3539:Drivers/STM32F3xx_HAL_Driver/Src/stm32f3xx_hal_i2c.c ****       {
3540:Drivers/STM32F3xx_HAL_Driver/Src/stm32f3xx_hal_i2c.c ****         hi2c->XferSize = hi2c->XferCount;
 7548              		.loc 1 3540 0
 7549 00b6 FB68     		ldr	r3, [r7, #12]
 7550 00b8 5B8D     		ldrh	r3, [r3, #42]	@ movhi
 7551 00ba 9AB2     		uxth	r2, r3
 7552 00bc FB68     		ldr	r3, [r7, #12]
 7553 00be 1A85     		strh	r2, [r3, #40]	@ movhi
3541:Drivers/STM32F3xx_HAL_Driver/Src/stm32f3xx_hal_i2c.c ****         xfermode = I2C_AUTOEND_MODE;
 7554              		.loc 1 3541 0
 7555 00c0 4FF00073 		mov	r3, #33554432
 7556 00c4 7B61     		str	r3, [r7, #20]
 7557              	.L378:
3542:Drivers/STM32F3xx_HAL_Driver/Src/stm32f3xx_hal_i2c.c ****       }
3543:Drivers/STM32F3xx_HAL_Driver/Src/stm32f3xx_hal_i2c.c **** 
3544:Drivers/STM32F3xx_HAL_Driver/Src/stm32f3xx_hal_i2c.c ****       /* Set the new XferSize in Nbytes register */
3545:Drivers/STM32F3xx_HAL_Driver/Src/stm32f3xx_hal_i2c.c ****       I2C_TransferConfig(hi2c, devaddress, hi2c->XferSize, xfermode, I2C_NO_STARTSTOP);
 7558              		.loc 1 3545 0
 7559 00c6 FB68     		ldr	r3, [r7, #12]
 7560 00c8 1B8D     		ldrh	r3, [r3, #40]
 7561 00ca DAB2     		uxtb	r2, r3
 7562 00cc 798A     		ldrh	r1, [r7, #18]
 7563 00ce 0023     		movs	r3, #0
 7564 00d0 0093     		str	r3, [sp]
 7565 00d2 7B69     		ldr	r3, [r7, #20]
 7566 00d4 F868     		ldr	r0, [r7, #12]
 7567 00d6 FFF7FEFF 		bl	I2C_TransferConfig
3546:Drivers/STM32F3xx_HAL_Driver/Src/stm32f3xx_hal_i2c.c **** 
3547:Drivers/STM32F3xx_HAL_Driver/Src/stm32f3xx_hal_i2c.c ****       /* Update XferCount value */
3548:Drivers/STM32F3xx_HAL_Driver/Src/stm32f3xx_hal_i2c.c ****       hi2c->XferCount -= hi2c->XferSize;
 7568              		.loc 1 3548 0
 7569 00da FB68     		ldr	r3, [r7, #12]
 7570 00dc 5B8D     		ldrh	r3, [r3, #42]	@ movhi
 7571 00de 9AB2     		uxth	r2, r3
 7572 00e0 FB68     		ldr	r3, [r7, #12]
 7573 00e2 1B8D     		ldrh	r3, [r3, #40]
 7574 00e4 D31A     		subs	r3, r2, r3
 7575 00e6 9AB2     		uxth	r2, r3
 7576 00e8 FB68     		ldr	r3, [r7, #12]
 7577 00ea 5A85     		strh	r2, [r3, #42]	@ movhi
3549:Drivers/STM32F3xx_HAL_Driver/Src/stm32f3xx_hal_i2c.c **** 
3550:Drivers/STM32F3xx_HAL_Driver/Src/stm32f3xx_hal_i2c.c ****       /* Enable DMA Request */
3551:Drivers/STM32F3xx_HAL_Driver/Src/stm32f3xx_hal_i2c.c ****       if (hi2c->State == HAL_I2C_STATE_BUSY_RX)
 7578              		.loc 1 3551 0
 7579 00ec FB68     		ldr	r3, [r7, #12]
 7580 00ee 93F84130 		ldrb	r3, [r3, #65]
 7581 00f2 DBB2     		uxtb	r3, r3
 7582 00f4 222B     		cmp	r3, #34
 7583 00f6 08D1     		bne	.L379
3552:Drivers/STM32F3xx_HAL_Driver/Src/stm32f3xx_hal_i2c.c ****       {
ARM GAS  /tmp/ccy0jiyr.s 			page 195


3553:Drivers/STM32F3xx_HAL_Driver/Src/stm32f3xx_hal_i2c.c ****         hi2c->Instance->CR1 |= I2C_CR1_RXDMAEN;
 7584              		.loc 1 3553 0
 7585 00f8 FB68     		ldr	r3, [r7, #12]
 7586 00fa 1B68     		ldr	r3, [r3]
 7587 00fc 1A68     		ldr	r2, [r3]
 7588 00fe FB68     		ldr	r3, [r7, #12]
 7589 0100 1B68     		ldr	r3, [r3]
 7590 0102 42F40042 		orr	r2, r2, #32768
 7591 0106 1A60     		str	r2, [r3]
3527:Drivers/STM32F3xx_HAL_Driver/Src/stm32f3xx_hal_i2c.c ****     {
 7592              		.loc 1 3527 0
 7593 0108 1BE0     		b	.L374
 7594              	.L379:
3554:Drivers/STM32F3xx_HAL_Driver/Src/stm32f3xx_hal_i2c.c ****       }
3555:Drivers/STM32F3xx_HAL_Driver/Src/stm32f3xx_hal_i2c.c ****       else
3556:Drivers/STM32F3xx_HAL_Driver/Src/stm32f3xx_hal_i2c.c ****       {
3557:Drivers/STM32F3xx_HAL_Driver/Src/stm32f3xx_hal_i2c.c ****         hi2c->Instance->CR1 |= I2C_CR1_TXDMAEN;
 7595              		.loc 1 3557 0
 7596 010a FB68     		ldr	r3, [r7, #12]
 7597 010c 1B68     		ldr	r3, [r3]
 7598 010e 1A68     		ldr	r2, [r3]
 7599 0110 FB68     		ldr	r3, [r7, #12]
 7600 0112 1B68     		ldr	r3, [r3]
 7601 0114 42F48042 		orr	r2, r2, #16384
 7602 0118 1A60     		str	r2, [r3]
3527:Drivers/STM32F3xx_HAL_Driver/Src/stm32f3xx_hal_i2c.c ****     {
 7603              		.loc 1 3527 0
 7604 011a 12E0     		b	.L374
 7605              	.L376:
3558:Drivers/STM32F3xx_HAL_Driver/Src/stm32f3xx_hal_i2c.c ****       }
3559:Drivers/STM32F3xx_HAL_Driver/Src/stm32f3xx_hal_i2c.c ****     }
3560:Drivers/STM32F3xx_HAL_Driver/Src/stm32f3xx_hal_i2c.c ****     else
3561:Drivers/STM32F3xx_HAL_Driver/Src/stm32f3xx_hal_i2c.c ****     {
3562:Drivers/STM32F3xx_HAL_Driver/Src/stm32f3xx_hal_i2c.c ****       /* Wrong size Status regarding TCR flag event */
3563:Drivers/STM32F3xx_HAL_Driver/Src/stm32f3xx_hal_i2c.c ****       /* Call the corresponding callback to inform upper layer of End of Transfer */
3564:Drivers/STM32F3xx_HAL_Driver/Src/stm32f3xx_hal_i2c.c ****       I2C_ITError(hi2c, HAL_I2C_ERROR_SIZE);
 7606              		.loc 1 3564 0
 7607 011c 4021     		movs	r1, #64
 7608 011e F868     		ldr	r0, [r7, #12]
 7609 0120 FFF7FEFF 		bl	I2C_ITError
3527:Drivers/STM32F3xx_HAL_Driver/Src/stm32f3xx_hal_i2c.c ****     {
 7610              		.loc 1 3527 0
 7611 0124 0DE0     		b	.L374
 7612              	.L375:
3565:Drivers/STM32F3xx_HAL_Driver/Src/stm32f3xx_hal_i2c.c ****     }
3566:Drivers/STM32F3xx_HAL_Driver/Src/stm32f3xx_hal_i2c.c ****   }
3567:Drivers/STM32F3xx_HAL_Driver/Src/stm32f3xx_hal_i2c.c ****   else if (((ITFlags & I2C_FLAG_STOPF) != RESET) && ((ITSources & I2C_IT_STOPI) != RESET))
 7613              		.loc 1 3567 0
 7614 0126 BB68     		ldr	r3, [r7, #8]
 7615 0128 03F02003 		and	r3, r3, #32
 7616 012c 002B     		cmp	r3, #0
 7617 012e 08D0     		beq	.L374
 7618              		.loc 1 3567 0 is_stmt 0 discriminator 1
 7619 0130 7B68     		ldr	r3, [r7, #4]
 7620 0132 03F02003 		and	r3, r3, #32
 7621 0136 002B     		cmp	r3, #0
 7622 0138 03D0     		beq	.L374
ARM GAS  /tmp/ccy0jiyr.s 			page 196


3568:Drivers/STM32F3xx_HAL_Driver/Src/stm32f3xx_hal_i2c.c ****   {
3569:Drivers/STM32F3xx_HAL_Driver/Src/stm32f3xx_hal_i2c.c ****     /* Call I2C Master complete process */
3570:Drivers/STM32F3xx_HAL_Driver/Src/stm32f3xx_hal_i2c.c ****     I2C_ITMasterCplt(hi2c, ITFlags);
 7623              		.loc 1 3570 0 is_stmt 1
 7624 013a B968     		ldr	r1, [r7, #8]
 7625 013c F868     		ldr	r0, [r7, #12]
 7626 013e FFF7FEFF 		bl	I2C_ITMasterCplt
 7627              	.L374:
3571:Drivers/STM32F3xx_HAL_Driver/Src/stm32f3xx_hal_i2c.c ****   }
3572:Drivers/STM32F3xx_HAL_Driver/Src/stm32f3xx_hal_i2c.c **** 
3573:Drivers/STM32F3xx_HAL_Driver/Src/stm32f3xx_hal_i2c.c ****   /* Process Unlocked */
3574:Drivers/STM32F3xx_HAL_Driver/Src/stm32f3xx_hal_i2c.c ****   __HAL_UNLOCK(hi2c);
 7628              		.loc 1 3574 0
 7629 0142 FB68     		ldr	r3, [r7, #12]
 7630 0144 0022     		movs	r2, #0
 7631 0146 83F84020 		strb	r2, [r3, #64]
3575:Drivers/STM32F3xx_HAL_Driver/Src/stm32f3xx_hal_i2c.c **** 
3576:Drivers/STM32F3xx_HAL_Driver/Src/stm32f3xx_hal_i2c.c ****   return HAL_OK;
 7632              		.loc 1 3576 0
 7633 014a 0023     		movs	r3, #0
 7634              	.L372:
3577:Drivers/STM32F3xx_HAL_Driver/Src/stm32f3xx_hal_i2c.c **** }
 7635              		.loc 1 3577 0
 7636 014c 1846     		mov	r0, r3
 7637 014e 1837     		adds	r7, r7, #24
 7638              	.LCFI253:
 7639              		.cfi_def_cfa_offset 8
 7640 0150 BD46     		mov	sp, r7
 7641              	.LCFI254:
 7642              		.cfi_def_cfa_register 13
 7643              		@ sp needed
 7644 0152 80BD     		pop	{r7, pc}
 7645              		.cfi_endproc
 7646              	.LFE742:
 7648              		.section	.text.I2C_Slave_ISR_DMA,"ax",%progbits
 7649              		.align	1
 7650              		.syntax unified
 7651              		.thumb
 7652              		.thumb_func
 7653              		.fpu fpv4-sp-d16
 7655              	I2C_Slave_ISR_DMA:
 7656              	.LFB743:
3578:Drivers/STM32F3xx_HAL_Driver/Src/stm32f3xx_hal_i2c.c **** 
3579:Drivers/STM32F3xx_HAL_Driver/Src/stm32f3xx_hal_i2c.c **** /**
3580:Drivers/STM32F3xx_HAL_Driver/Src/stm32f3xx_hal_i2c.c ****   * @brief  Interrupt Sub-Routine which handle the Interrupt Flags Slave Mode with DMA.
3581:Drivers/STM32F3xx_HAL_Driver/Src/stm32f3xx_hal_i2c.c ****   * @param  hi2c Pointer to a I2C_HandleTypeDef structure that contains
3582:Drivers/STM32F3xx_HAL_Driver/Src/stm32f3xx_hal_i2c.c ****   *                the configuration information for the specified I2C.
3583:Drivers/STM32F3xx_HAL_Driver/Src/stm32f3xx_hal_i2c.c ****   * @param  ITFlags Interrupt flags to handle.
3584:Drivers/STM32F3xx_HAL_Driver/Src/stm32f3xx_hal_i2c.c ****   * @param  ITSources Interrupt sources enabled.
3585:Drivers/STM32F3xx_HAL_Driver/Src/stm32f3xx_hal_i2c.c ****   * @retval HAL status
3586:Drivers/STM32F3xx_HAL_Driver/Src/stm32f3xx_hal_i2c.c ****   */
3587:Drivers/STM32F3xx_HAL_Driver/Src/stm32f3xx_hal_i2c.c **** static HAL_StatusTypeDef I2C_Slave_ISR_DMA(struct __I2C_HandleTypeDef *hi2c, uint32_t ITFlags, uint
3588:Drivers/STM32F3xx_HAL_Driver/Src/stm32f3xx_hal_i2c.c **** {
 7657              		.loc 1 3588 0
 7658              		.cfi_startproc
 7659              		@ args = 0, pretend = 0, frame = 16
 7660              		@ frame_needed = 1, uses_anonymous_args = 0
ARM GAS  /tmp/ccy0jiyr.s 			page 197


 7661 0000 80B5     		push	{r7, lr}
 7662              	.LCFI255:
 7663              		.cfi_def_cfa_offset 8
 7664              		.cfi_offset 7, -8
 7665              		.cfi_offset 14, -4
 7666 0002 84B0     		sub	sp, sp, #16
 7667              	.LCFI256:
 7668              		.cfi_def_cfa_offset 24
 7669 0004 00AF     		add	r7, sp, #0
 7670              	.LCFI257:
 7671              		.cfi_def_cfa_register 7
 7672 0006 F860     		str	r0, [r7, #12]
 7673 0008 B960     		str	r1, [r7, #8]
 7674 000a 7A60     		str	r2, [r7, #4]
3589:Drivers/STM32F3xx_HAL_Driver/Src/stm32f3xx_hal_i2c.c ****   /* Process locked */
3590:Drivers/STM32F3xx_HAL_Driver/Src/stm32f3xx_hal_i2c.c ****   __HAL_LOCK(hi2c);
 7675              		.loc 1 3590 0
 7676 000c FB68     		ldr	r3, [r7, #12]
 7677 000e 93F84030 		ldrb	r3, [r3, #64]	@ zero_extendqisi2
 7678 0012 012B     		cmp	r3, #1
 7679 0014 01D1     		bne	.L383
 7680              		.loc 1 3590 0 is_stmt 0 discriminator 1
 7681 0016 0223     		movs	r3, #2
 7682 0018 5AE0     		b	.L384
 7683              	.L383:
 7684              		.loc 1 3590 0 discriminator 2
 7685 001a FB68     		ldr	r3, [r7, #12]
 7686 001c 0122     		movs	r2, #1
 7687 001e 83F84020 		strb	r2, [r3, #64]
3591:Drivers/STM32F3xx_HAL_Driver/Src/stm32f3xx_hal_i2c.c **** 
3592:Drivers/STM32F3xx_HAL_Driver/Src/stm32f3xx_hal_i2c.c ****   if (((ITFlags & I2C_FLAG_AF) != RESET) && ((ITSources & I2C_IT_NACKI) != RESET))
 7688              		.loc 1 3592 0 is_stmt 1 discriminator 2
 7689 0022 BB68     		ldr	r3, [r7, #8]
 7690 0024 03F01003 		and	r3, r3, #16
 7691 0028 002B     		cmp	r3, #0
 7692 002a 2FD0     		beq	.L385
 7693              		.loc 1 3592 0 is_stmt 0 discriminator 1
 7694 002c 7B68     		ldr	r3, [r7, #4]
 7695 002e 03F01003 		and	r3, r3, #16
 7696 0032 002B     		cmp	r3, #0
 7697 0034 2AD0     		beq	.L385
3593:Drivers/STM32F3xx_HAL_Driver/Src/stm32f3xx_hal_i2c.c ****   {
3594:Drivers/STM32F3xx_HAL_Driver/Src/stm32f3xx_hal_i2c.c ****     /* Check that I2C transfer finished */
3595:Drivers/STM32F3xx_HAL_Driver/Src/stm32f3xx_hal_i2c.c ****     /* if yes, normal use case, a NACK is sent by the MASTER when Transfer is finished */
3596:Drivers/STM32F3xx_HAL_Driver/Src/stm32f3xx_hal_i2c.c ****     /* Mean XferCount == 0 */
3597:Drivers/STM32F3xx_HAL_Driver/Src/stm32f3xx_hal_i2c.c ****     /* So clear Flag NACKF only */
3598:Drivers/STM32F3xx_HAL_Driver/Src/stm32f3xx_hal_i2c.c ****     if (I2C_GET_DMA_REMAIN_DATA(hi2c) == 0U)
 7698              		.loc 1 3598 0 is_stmt 1
 7699 0036 FB68     		ldr	r3, [r7, #12]
 7700 0038 93F84130 		ldrb	r3, [r3, #65]
 7701 003c DBB2     		uxtb	r3, r3
 7702 003e 212B     		cmp	r3, #33
 7703 0040 09D1     		bne	.L386
 7704              		.loc 1 3598 0 is_stmt 0 discriminator 1
 7705 0042 FB68     		ldr	r3, [r7, #12]
 7706 0044 9B6B     		ldr	r3, [r3, #56]
 7707 0046 1B68     		ldr	r3, [r3]
ARM GAS  /tmp/ccy0jiyr.s 			page 198


 7708 0048 5B68     		ldr	r3, [r3, #4]
 7709 004a 002B     		cmp	r3, #0
 7710 004c 0CBF     		ite	eq
 7711 004e 0123     		moveq	r3, #1
 7712 0050 0023     		movne	r3, #0
 7713 0052 DBB2     		uxtb	r3, r3
 7714 0054 08E0     		b	.L387
 7715              	.L386:
 7716              		.loc 1 3598 0 discriminator 2
 7717 0056 FB68     		ldr	r3, [r7, #12]
 7718 0058 DB6B     		ldr	r3, [r3, #60]
 7719 005a 1B68     		ldr	r3, [r3]
 7720 005c 5B68     		ldr	r3, [r3, #4]
 7721 005e 002B     		cmp	r3, #0
 7722 0060 0CBF     		ite	eq
 7723 0062 0123     		moveq	r3, #1
 7724 0064 0023     		movne	r3, #0
 7725 0066 DBB2     		uxtb	r3, r3
 7726              	.L387:
 7727              		.loc 1 3598 0 discriminator 4
 7728 0068 002B     		cmp	r3, #0
 7729 006a 04D0     		beq	.L388
3599:Drivers/STM32F3xx_HAL_Driver/Src/stm32f3xx_hal_i2c.c ****     {
3600:Drivers/STM32F3xx_HAL_Driver/Src/stm32f3xx_hal_i2c.c ****       /* Clear NACK Flag */
3601:Drivers/STM32F3xx_HAL_Driver/Src/stm32f3xx_hal_i2c.c ****       __HAL_I2C_CLEAR_FLAG(hi2c, I2C_FLAG_AF);
 7730              		.loc 1 3601 0 is_stmt 1
 7731 006c FB68     		ldr	r3, [r7, #12]
 7732 006e 1B68     		ldr	r3, [r3]
 7733 0070 1022     		movs	r2, #16
 7734 0072 DA61     		str	r2, [r3, #28]
3598:Drivers/STM32F3xx_HAL_Driver/Src/stm32f3xx_hal_i2c.c ****     {
 7735              		.loc 1 3598 0
 7736 0074 27E0     		b	.L390
 7737              	.L388:
3602:Drivers/STM32F3xx_HAL_Driver/Src/stm32f3xx_hal_i2c.c ****     }
3603:Drivers/STM32F3xx_HAL_Driver/Src/stm32f3xx_hal_i2c.c ****     else
3604:Drivers/STM32F3xx_HAL_Driver/Src/stm32f3xx_hal_i2c.c ****     {
3605:Drivers/STM32F3xx_HAL_Driver/Src/stm32f3xx_hal_i2c.c ****       /* if no, error use case, a Non-Acknowledge of last Data is generated by the MASTER*/
3606:Drivers/STM32F3xx_HAL_Driver/Src/stm32f3xx_hal_i2c.c ****       /* Clear NACK Flag */
3607:Drivers/STM32F3xx_HAL_Driver/Src/stm32f3xx_hal_i2c.c ****       __HAL_I2C_CLEAR_FLAG(hi2c, I2C_FLAG_AF);
 7738              		.loc 1 3607 0
 7739 0076 FB68     		ldr	r3, [r7, #12]
 7740 0078 1B68     		ldr	r3, [r3]
 7741 007a 1022     		movs	r2, #16
 7742 007c DA61     		str	r2, [r3, #28]
3608:Drivers/STM32F3xx_HAL_Driver/Src/stm32f3xx_hal_i2c.c **** 
3609:Drivers/STM32F3xx_HAL_Driver/Src/stm32f3xx_hal_i2c.c ****       /* Set ErrorCode corresponding to a Non-Acknowledge */
3610:Drivers/STM32F3xx_HAL_Driver/Src/stm32f3xx_hal_i2c.c ****       hi2c->ErrorCode |= HAL_I2C_ERROR_AF;
 7743              		.loc 1 3610 0
 7744 007e FB68     		ldr	r3, [r7, #12]
 7745 0080 5B6C     		ldr	r3, [r3, #68]
 7746 0082 43F00402 		orr	r2, r3, #4
 7747 0086 FB68     		ldr	r3, [r7, #12]
 7748 0088 5A64     		str	r2, [r3, #68]
3598:Drivers/STM32F3xx_HAL_Driver/Src/stm32f3xx_hal_i2c.c ****     {
 7749              		.loc 1 3598 0
 7750 008a 1CE0     		b	.L390
ARM GAS  /tmp/ccy0jiyr.s 			page 199


 7751              	.L385:
3611:Drivers/STM32F3xx_HAL_Driver/Src/stm32f3xx_hal_i2c.c ****     }
3612:Drivers/STM32F3xx_HAL_Driver/Src/stm32f3xx_hal_i2c.c ****   }
3613:Drivers/STM32F3xx_HAL_Driver/Src/stm32f3xx_hal_i2c.c ****   else if (((ITFlags & I2C_FLAG_ADDR) != RESET) && ((ITSources & I2C_IT_ADDRI) != RESET))
 7752              		.loc 1 3613 0
 7753 008c BB68     		ldr	r3, [r7, #8]
 7754 008e 03F00803 		and	r3, r3, #8
 7755 0092 002B     		cmp	r3, #0
 7756 0094 09D0     		beq	.L391
 7757              		.loc 1 3613 0 is_stmt 0 discriminator 1
 7758 0096 7B68     		ldr	r3, [r7, #4]
 7759 0098 03F00803 		and	r3, r3, #8
 7760 009c 002B     		cmp	r3, #0
 7761 009e 04D0     		beq	.L391
3614:Drivers/STM32F3xx_HAL_Driver/Src/stm32f3xx_hal_i2c.c ****   {
3615:Drivers/STM32F3xx_HAL_Driver/Src/stm32f3xx_hal_i2c.c ****     /* Clear ADDR flag */
3616:Drivers/STM32F3xx_HAL_Driver/Src/stm32f3xx_hal_i2c.c ****     __HAL_I2C_CLEAR_FLAG(hi2c, I2C_FLAG_ADDR);
 7762              		.loc 1 3616 0 is_stmt 1
 7763 00a0 FB68     		ldr	r3, [r7, #12]
 7764 00a2 1B68     		ldr	r3, [r3]
 7765 00a4 0822     		movs	r2, #8
 7766 00a6 DA61     		str	r2, [r3, #28]
 7767 00a8 0DE0     		b	.L390
 7768              	.L391:
3617:Drivers/STM32F3xx_HAL_Driver/Src/stm32f3xx_hal_i2c.c ****   }
3618:Drivers/STM32F3xx_HAL_Driver/Src/stm32f3xx_hal_i2c.c ****   else if (((ITFlags & I2C_FLAG_STOPF) != RESET) && ((ITSources & I2C_IT_STOPI) != RESET))
 7769              		.loc 1 3618 0
 7770 00aa BB68     		ldr	r3, [r7, #8]
 7771 00ac 03F02003 		and	r3, r3, #32
 7772 00b0 002B     		cmp	r3, #0
 7773 00b2 08D0     		beq	.L390
 7774              		.loc 1 3618 0 is_stmt 0 discriminator 1
 7775 00b4 7B68     		ldr	r3, [r7, #4]
 7776 00b6 03F02003 		and	r3, r3, #32
 7777 00ba 002B     		cmp	r3, #0
 7778 00bc 03D0     		beq	.L390
3619:Drivers/STM32F3xx_HAL_Driver/Src/stm32f3xx_hal_i2c.c ****   {
3620:Drivers/STM32F3xx_HAL_Driver/Src/stm32f3xx_hal_i2c.c ****     /* Call I2C Slave complete process */
3621:Drivers/STM32F3xx_HAL_Driver/Src/stm32f3xx_hal_i2c.c ****     I2C_ITSlaveCplt(hi2c, ITFlags);
 7779              		.loc 1 3621 0 is_stmt 1
 7780 00be B968     		ldr	r1, [r7, #8]
 7781 00c0 F868     		ldr	r0, [r7, #12]
 7782 00c2 FFF7FEFF 		bl	I2C_ITSlaveCplt
 7783              	.L390:
3622:Drivers/STM32F3xx_HAL_Driver/Src/stm32f3xx_hal_i2c.c ****   }
3623:Drivers/STM32F3xx_HAL_Driver/Src/stm32f3xx_hal_i2c.c **** 
3624:Drivers/STM32F3xx_HAL_Driver/Src/stm32f3xx_hal_i2c.c ****   /* Process Unlocked */
3625:Drivers/STM32F3xx_HAL_Driver/Src/stm32f3xx_hal_i2c.c ****   __HAL_UNLOCK(hi2c);
 7784              		.loc 1 3625 0
 7785 00c6 FB68     		ldr	r3, [r7, #12]
 7786 00c8 0022     		movs	r2, #0
 7787 00ca 83F84020 		strb	r2, [r3, #64]
3626:Drivers/STM32F3xx_HAL_Driver/Src/stm32f3xx_hal_i2c.c **** 
3627:Drivers/STM32F3xx_HAL_Driver/Src/stm32f3xx_hal_i2c.c ****   return HAL_OK;
 7788              		.loc 1 3627 0
 7789 00ce 0023     		movs	r3, #0
 7790              	.L384:
ARM GAS  /tmp/ccy0jiyr.s 			page 200


3628:Drivers/STM32F3xx_HAL_Driver/Src/stm32f3xx_hal_i2c.c **** }
 7791              		.loc 1 3628 0
 7792 00d0 1846     		mov	r0, r3
 7793 00d2 1037     		adds	r7, r7, #16
 7794              	.LCFI258:
 7795              		.cfi_def_cfa_offset 8
 7796 00d4 BD46     		mov	sp, r7
 7797              	.LCFI259:
 7798              		.cfi_def_cfa_register 13
 7799              		@ sp needed
 7800 00d6 80BD     		pop	{r7, pc}
 7801              		.cfi_endproc
 7802              	.LFE743:
 7804              		.section	.text.I2C_RequestMemoryWrite,"ax",%progbits
 7805              		.align	1
 7806              		.syntax unified
 7807              		.thumb
 7808              		.thumb_func
 7809              		.fpu fpv4-sp-d16
 7811              	I2C_RequestMemoryWrite:
 7812              	.LFB744:
3629:Drivers/STM32F3xx_HAL_Driver/Src/stm32f3xx_hal_i2c.c **** 
3630:Drivers/STM32F3xx_HAL_Driver/Src/stm32f3xx_hal_i2c.c **** /**
3631:Drivers/STM32F3xx_HAL_Driver/Src/stm32f3xx_hal_i2c.c ****   * @brief  Master sends target device address followed by internal memory address for write reques
3632:Drivers/STM32F3xx_HAL_Driver/Src/stm32f3xx_hal_i2c.c ****   * @param  hi2c Pointer to a I2C_HandleTypeDef structure that contains
3633:Drivers/STM32F3xx_HAL_Driver/Src/stm32f3xx_hal_i2c.c ****   *                the configuration information for the specified I2C.
3634:Drivers/STM32F3xx_HAL_Driver/Src/stm32f3xx_hal_i2c.c ****   * @param  DevAddress Target device address: The device 7 bits address value
3635:Drivers/STM32F3xx_HAL_Driver/Src/stm32f3xx_hal_i2c.c ****   *         in datasheet must be shift at right before call interface
3636:Drivers/STM32F3xx_HAL_Driver/Src/stm32f3xx_hal_i2c.c ****   * @param  MemAddress Internal memory address
3637:Drivers/STM32F3xx_HAL_Driver/Src/stm32f3xx_hal_i2c.c ****   * @param  MemAddSize Size of internal memory address
3638:Drivers/STM32F3xx_HAL_Driver/Src/stm32f3xx_hal_i2c.c ****   * @param  Timeout Timeout duration
3639:Drivers/STM32F3xx_HAL_Driver/Src/stm32f3xx_hal_i2c.c ****   * @param  Tickstart Tick start value
3640:Drivers/STM32F3xx_HAL_Driver/Src/stm32f3xx_hal_i2c.c ****   * @retval HAL status
3641:Drivers/STM32F3xx_HAL_Driver/Src/stm32f3xx_hal_i2c.c ****   */
3642:Drivers/STM32F3xx_HAL_Driver/Src/stm32f3xx_hal_i2c.c **** static HAL_StatusTypeDef I2C_RequestMemoryWrite(I2C_HandleTypeDef *hi2c, uint16_t DevAddress, uint1
3643:Drivers/STM32F3xx_HAL_Driver/Src/stm32f3xx_hal_i2c.c **** {
 7813              		.loc 1 3643 0
 7814              		.cfi_startproc
 7815              		@ args = 8, pretend = 0, frame = 16
 7816              		@ frame_needed = 1, uses_anonymous_args = 0
 7817 0000 80B5     		push	{r7, lr}
 7818              	.LCFI260:
 7819              		.cfi_def_cfa_offset 8
 7820              		.cfi_offset 7, -8
 7821              		.cfi_offset 14, -4
 7822 0002 86B0     		sub	sp, sp, #24
 7823              	.LCFI261:
 7824              		.cfi_def_cfa_offset 32
 7825 0004 02AF     		add	r7, sp, #8
 7826              	.LCFI262:
 7827              		.cfi_def_cfa 7, 24
 7828 0006 F860     		str	r0, [r7, #12]
 7829 0008 0846     		mov	r0, r1
 7830 000a 1146     		mov	r1, r2
 7831 000c 1A46     		mov	r2, r3
 7832 000e 0346     		mov	r3, r0	@ movhi
 7833 0010 7B81     		strh	r3, [r7, #10]	@ movhi
ARM GAS  /tmp/ccy0jiyr.s 			page 201


 7834 0012 0B46     		mov	r3, r1	@ movhi
 7835 0014 3B81     		strh	r3, [r7, #8]	@ movhi
 7836 0016 1346     		mov	r3, r2	@ movhi
 7837 0018 FB80     		strh	r3, [r7, #6]	@ movhi
3644:Drivers/STM32F3xx_HAL_Driver/Src/stm32f3xx_hal_i2c.c ****   I2C_TransferConfig(hi2c, DevAddress, MemAddSize, I2C_RELOAD_MODE, I2C_GENERATE_START_WRITE);
 7838              		.loc 1 3644 0
 7839 001a FB88     		ldrh	r3, [r7, #6]	@ movhi
 7840 001c DAB2     		uxtb	r2, r3
 7841 001e 7989     		ldrh	r1, [r7, #10]
 7842 0020 4FF40053 		mov	r3, #8192
 7843 0024 0093     		str	r3, [sp]
 7844 0026 4FF08073 		mov	r3, #16777216
 7845 002a F868     		ldr	r0, [r7, #12]
 7846 002c FFF7FEFF 		bl	I2C_TransferConfig
3645:Drivers/STM32F3xx_HAL_Driver/Src/stm32f3xx_hal_i2c.c **** 
3646:Drivers/STM32F3xx_HAL_Driver/Src/stm32f3xx_hal_i2c.c ****   /* Wait until TXIS flag is set */
3647:Drivers/STM32F3xx_HAL_Driver/Src/stm32f3xx_hal_i2c.c ****   if (I2C_WaitOnTXISFlagUntilTimeout(hi2c, Timeout, Tickstart) != HAL_OK)
 7847              		.loc 1 3647 0
 7848 0030 FA69     		ldr	r2, [r7, #28]
 7849 0032 B969     		ldr	r1, [r7, #24]
 7850 0034 F868     		ldr	r0, [r7, #12]
 7851 0036 FFF7FEFF 		bl	I2C_WaitOnTXISFlagUntilTimeout
 7852 003a 0346     		mov	r3, r0
 7853 003c 002B     		cmp	r3, #0
 7854 003e 07D0     		beq	.L393
3648:Drivers/STM32F3xx_HAL_Driver/Src/stm32f3xx_hal_i2c.c ****   {
3649:Drivers/STM32F3xx_HAL_Driver/Src/stm32f3xx_hal_i2c.c ****     if (hi2c->ErrorCode == HAL_I2C_ERROR_AF)
 7855              		.loc 1 3649 0
 7856 0040 FB68     		ldr	r3, [r7, #12]
 7857 0042 5B6C     		ldr	r3, [r3, #68]
 7858 0044 042B     		cmp	r3, #4
 7859 0046 01D1     		bne	.L394
3650:Drivers/STM32F3xx_HAL_Driver/Src/stm32f3xx_hal_i2c.c ****     {
3651:Drivers/STM32F3xx_HAL_Driver/Src/stm32f3xx_hal_i2c.c ****       return HAL_ERROR;
 7860              		.loc 1 3651 0
 7861 0048 0123     		movs	r3, #1
 7862 004a 34E0     		b	.L395
 7863              	.L394:
3652:Drivers/STM32F3xx_HAL_Driver/Src/stm32f3xx_hal_i2c.c ****     }
3653:Drivers/STM32F3xx_HAL_Driver/Src/stm32f3xx_hal_i2c.c ****     else
3654:Drivers/STM32F3xx_HAL_Driver/Src/stm32f3xx_hal_i2c.c ****     {
3655:Drivers/STM32F3xx_HAL_Driver/Src/stm32f3xx_hal_i2c.c ****       return HAL_TIMEOUT;
 7864              		.loc 1 3655 0
 7865 004c 0323     		movs	r3, #3
 7866 004e 32E0     		b	.L395
 7867              	.L393:
3656:Drivers/STM32F3xx_HAL_Driver/Src/stm32f3xx_hal_i2c.c ****     }
3657:Drivers/STM32F3xx_HAL_Driver/Src/stm32f3xx_hal_i2c.c ****   }
3658:Drivers/STM32F3xx_HAL_Driver/Src/stm32f3xx_hal_i2c.c **** 
3659:Drivers/STM32F3xx_HAL_Driver/Src/stm32f3xx_hal_i2c.c ****   /* If Memory address size is 8Bit */
3660:Drivers/STM32F3xx_HAL_Driver/Src/stm32f3xx_hal_i2c.c ****   if (MemAddSize == I2C_MEMADD_SIZE_8BIT)
 7868              		.loc 1 3660 0
 7869 0050 FB88     		ldrh	r3, [r7, #6]
 7870 0052 012B     		cmp	r3, #1
 7871 0054 05D1     		bne	.L396
3661:Drivers/STM32F3xx_HAL_Driver/Src/stm32f3xx_hal_i2c.c ****   {
3662:Drivers/STM32F3xx_HAL_Driver/Src/stm32f3xx_hal_i2c.c ****     /* Send Memory Address */
ARM GAS  /tmp/ccy0jiyr.s 			page 202


3663:Drivers/STM32F3xx_HAL_Driver/Src/stm32f3xx_hal_i2c.c ****     hi2c->Instance->TXDR = I2C_MEM_ADD_LSB(MemAddress);
 7872              		.loc 1 3663 0
 7873 0056 3B89     		ldrh	r3, [r7, #8]	@ movhi
 7874 0058 DAB2     		uxtb	r2, r3
 7875 005a FB68     		ldr	r3, [r7, #12]
 7876 005c 1B68     		ldr	r3, [r3]
 7877 005e 9A62     		str	r2, [r3, #40]
 7878 0060 1BE0     		b	.L397
 7879              	.L396:
3664:Drivers/STM32F3xx_HAL_Driver/Src/stm32f3xx_hal_i2c.c ****   }
3665:Drivers/STM32F3xx_HAL_Driver/Src/stm32f3xx_hal_i2c.c ****   /* If Memory address size is 16Bit */
3666:Drivers/STM32F3xx_HAL_Driver/Src/stm32f3xx_hal_i2c.c ****   else
3667:Drivers/STM32F3xx_HAL_Driver/Src/stm32f3xx_hal_i2c.c ****   {
3668:Drivers/STM32F3xx_HAL_Driver/Src/stm32f3xx_hal_i2c.c ****     /* Send MSB of Memory Address */
3669:Drivers/STM32F3xx_HAL_Driver/Src/stm32f3xx_hal_i2c.c ****     hi2c->Instance->TXDR = I2C_MEM_ADD_MSB(MemAddress);
 7880              		.loc 1 3669 0
 7881 0062 3B89     		ldrh	r3, [r7, #8]
 7882 0064 1B0A     		lsrs	r3, r3, #8
 7883 0066 9BB2     		uxth	r3, r3
 7884 0068 DAB2     		uxtb	r2, r3
 7885 006a FB68     		ldr	r3, [r7, #12]
 7886 006c 1B68     		ldr	r3, [r3]
 7887 006e 9A62     		str	r2, [r3, #40]
3670:Drivers/STM32F3xx_HAL_Driver/Src/stm32f3xx_hal_i2c.c **** 
3671:Drivers/STM32F3xx_HAL_Driver/Src/stm32f3xx_hal_i2c.c ****     /* Wait until TXIS flag is set */
3672:Drivers/STM32F3xx_HAL_Driver/Src/stm32f3xx_hal_i2c.c ****     if (I2C_WaitOnTXISFlagUntilTimeout(hi2c, Timeout, Tickstart) != HAL_OK)
 7888              		.loc 1 3672 0
 7889 0070 FA69     		ldr	r2, [r7, #28]
 7890 0072 B969     		ldr	r1, [r7, #24]
 7891 0074 F868     		ldr	r0, [r7, #12]
 7892 0076 FFF7FEFF 		bl	I2C_WaitOnTXISFlagUntilTimeout
 7893 007a 0346     		mov	r3, r0
 7894 007c 002B     		cmp	r3, #0
 7895 007e 07D0     		beq	.L398
3673:Drivers/STM32F3xx_HAL_Driver/Src/stm32f3xx_hal_i2c.c ****     {
3674:Drivers/STM32F3xx_HAL_Driver/Src/stm32f3xx_hal_i2c.c ****       if (hi2c->ErrorCode == HAL_I2C_ERROR_AF)
 7896              		.loc 1 3674 0
 7897 0080 FB68     		ldr	r3, [r7, #12]
 7898 0082 5B6C     		ldr	r3, [r3, #68]
 7899 0084 042B     		cmp	r3, #4
 7900 0086 01D1     		bne	.L399
3675:Drivers/STM32F3xx_HAL_Driver/Src/stm32f3xx_hal_i2c.c ****       {
3676:Drivers/STM32F3xx_HAL_Driver/Src/stm32f3xx_hal_i2c.c ****         return HAL_ERROR;
 7901              		.loc 1 3676 0
 7902 0088 0123     		movs	r3, #1
 7903 008a 14E0     		b	.L395
 7904              	.L399:
3677:Drivers/STM32F3xx_HAL_Driver/Src/stm32f3xx_hal_i2c.c ****       }
3678:Drivers/STM32F3xx_HAL_Driver/Src/stm32f3xx_hal_i2c.c ****       else
3679:Drivers/STM32F3xx_HAL_Driver/Src/stm32f3xx_hal_i2c.c ****       {
3680:Drivers/STM32F3xx_HAL_Driver/Src/stm32f3xx_hal_i2c.c ****         return HAL_TIMEOUT;
 7905              		.loc 1 3680 0
 7906 008c 0323     		movs	r3, #3
 7907 008e 12E0     		b	.L395
 7908              	.L398:
3681:Drivers/STM32F3xx_HAL_Driver/Src/stm32f3xx_hal_i2c.c ****       }
3682:Drivers/STM32F3xx_HAL_Driver/Src/stm32f3xx_hal_i2c.c ****     }
ARM GAS  /tmp/ccy0jiyr.s 			page 203


3683:Drivers/STM32F3xx_HAL_Driver/Src/stm32f3xx_hal_i2c.c **** 
3684:Drivers/STM32F3xx_HAL_Driver/Src/stm32f3xx_hal_i2c.c ****     /* Send LSB of Memory Address */
3685:Drivers/STM32F3xx_HAL_Driver/Src/stm32f3xx_hal_i2c.c ****     hi2c->Instance->TXDR = I2C_MEM_ADD_LSB(MemAddress);
 7909              		.loc 1 3685 0
 7910 0090 3B89     		ldrh	r3, [r7, #8]	@ movhi
 7911 0092 DAB2     		uxtb	r2, r3
 7912 0094 FB68     		ldr	r3, [r7, #12]
 7913 0096 1B68     		ldr	r3, [r3]
 7914 0098 9A62     		str	r2, [r3, #40]
 7915              	.L397:
3686:Drivers/STM32F3xx_HAL_Driver/Src/stm32f3xx_hal_i2c.c ****   }
3687:Drivers/STM32F3xx_HAL_Driver/Src/stm32f3xx_hal_i2c.c **** 
3688:Drivers/STM32F3xx_HAL_Driver/Src/stm32f3xx_hal_i2c.c ****   /* Wait until TCR flag is set */
3689:Drivers/STM32F3xx_HAL_Driver/Src/stm32f3xx_hal_i2c.c ****   if (I2C_WaitOnFlagUntilTimeout(hi2c, I2C_FLAG_TCR, RESET, Timeout, Tickstart) != HAL_OK)
 7916              		.loc 1 3689 0
 7917 009a FB69     		ldr	r3, [r7, #28]
 7918 009c 0093     		str	r3, [sp]
 7919 009e BB69     		ldr	r3, [r7, #24]
 7920 00a0 0022     		movs	r2, #0
 7921 00a2 8021     		movs	r1, #128
 7922 00a4 F868     		ldr	r0, [r7, #12]
 7923 00a6 FFF7FEFF 		bl	I2C_WaitOnFlagUntilTimeout
 7924 00aa 0346     		mov	r3, r0
 7925 00ac 002B     		cmp	r3, #0
 7926 00ae 01D0     		beq	.L400
3690:Drivers/STM32F3xx_HAL_Driver/Src/stm32f3xx_hal_i2c.c ****   {
3691:Drivers/STM32F3xx_HAL_Driver/Src/stm32f3xx_hal_i2c.c ****     return HAL_TIMEOUT;
 7927              		.loc 1 3691 0
 7928 00b0 0323     		movs	r3, #3
 7929 00b2 00E0     		b	.L395
 7930              	.L400:
3692:Drivers/STM32F3xx_HAL_Driver/Src/stm32f3xx_hal_i2c.c ****   }
3693:Drivers/STM32F3xx_HAL_Driver/Src/stm32f3xx_hal_i2c.c **** 
3694:Drivers/STM32F3xx_HAL_Driver/Src/stm32f3xx_hal_i2c.c ****   return HAL_OK;
 7931              		.loc 1 3694 0
 7932 00b4 0023     		movs	r3, #0
 7933              	.L395:
3695:Drivers/STM32F3xx_HAL_Driver/Src/stm32f3xx_hal_i2c.c **** }
 7934              		.loc 1 3695 0
 7935 00b6 1846     		mov	r0, r3
 7936 00b8 1037     		adds	r7, r7, #16
 7937              	.LCFI263:
 7938              		.cfi_def_cfa_offset 8
 7939 00ba BD46     		mov	sp, r7
 7940              	.LCFI264:
 7941              		.cfi_def_cfa_register 13
 7942              		@ sp needed
 7943 00bc 80BD     		pop	{r7, pc}
 7944              		.cfi_endproc
 7945              	.LFE744:
 7947              		.section	.text.I2C_RequestMemoryRead,"ax",%progbits
 7948              		.align	1
 7949              		.syntax unified
 7950              		.thumb
 7951              		.thumb_func
 7952              		.fpu fpv4-sp-d16
 7954              	I2C_RequestMemoryRead:
ARM GAS  /tmp/ccy0jiyr.s 			page 204


 7955              	.LFB745:
3696:Drivers/STM32F3xx_HAL_Driver/Src/stm32f3xx_hal_i2c.c **** 
3697:Drivers/STM32F3xx_HAL_Driver/Src/stm32f3xx_hal_i2c.c **** /**
3698:Drivers/STM32F3xx_HAL_Driver/Src/stm32f3xx_hal_i2c.c ****   * @brief  Master sends target device address followed by internal memory address for read request
3699:Drivers/STM32F3xx_HAL_Driver/Src/stm32f3xx_hal_i2c.c ****   * @param  hi2c Pointer to a I2C_HandleTypeDef structure that contains
3700:Drivers/STM32F3xx_HAL_Driver/Src/stm32f3xx_hal_i2c.c ****   *                the configuration information for the specified I2C.
3701:Drivers/STM32F3xx_HAL_Driver/Src/stm32f3xx_hal_i2c.c ****   * @param  DevAddress Target device address: The device 7 bits address value
3702:Drivers/STM32F3xx_HAL_Driver/Src/stm32f3xx_hal_i2c.c ****   *         in datasheet must be shift at right before call interface
3703:Drivers/STM32F3xx_HAL_Driver/Src/stm32f3xx_hal_i2c.c ****   * @param  MemAddress Internal memory address
3704:Drivers/STM32F3xx_HAL_Driver/Src/stm32f3xx_hal_i2c.c ****   * @param  MemAddSize Size of internal memory address
3705:Drivers/STM32F3xx_HAL_Driver/Src/stm32f3xx_hal_i2c.c ****   * @param  Timeout Timeout duration
3706:Drivers/STM32F3xx_HAL_Driver/Src/stm32f3xx_hal_i2c.c ****   * @param  Tickstart Tick start value
3707:Drivers/STM32F3xx_HAL_Driver/Src/stm32f3xx_hal_i2c.c ****   * @retval HAL status
3708:Drivers/STM32F3xx_HAL_Driver/Src/stm32f3xx_hal_i2c.c ****   */
3709:Drivers/STM32F3xx_HAL_Driver/Src/stm32f3xx_hal_i2c.c **** static HAL_StatusTypeDef I2C_RequestMemoryRead(I2C_HandleTypeDef *hi2c, uint16_t DevAddress, uint16
3710:Drivers/STM32F3xx_HAL_Driver/Src/stm32f3xx_hal_i2c.c **** {
 7956              		.loc 1 3710 0
 7957              		.cfi_startproc
 7958              		@ args = 8, pretend = 0, frame = 16
 7959              		@ frame_needed = 1, uses_anonymous_args = 0
 7960 0000 80B5     		push	{r7, lr}
 7961              	.LCFI265:
 7962              		.cfi_def_cfa_offset 8
 7963              		.cfi_offset 7, -8
 7964              		.cfi_offset 14, -4
 7965 0002 86B0     		sub	sp, sp, #24
 7966              	.LCFI266:
 7967              		.cfi_def_cfa_offset 32
 7968 0004 02AF     		add	r7, sp, #8
 7969              	.LCFI267:
 7970              		.cfi_def_cfa 7, 24
 7971 0006 F860     		str	r0, [r7, #12]
 7972 0008 0846     		mov	r0, r1
 7973 000a 1146     		mov	r1, r2
 7974 000c 1A46     		mov	r2, r3
 7975 000e 0346     		mov	r3, r0	@ movhi
 7976 0010 7B81     		strh	r3, [r7, #10]	@ movhi
 7977 0012 0B46     		mov	r3, r1	@ movhi
 7978 0014 3B81     		strh	r3, [r7, #8]	@ movhi
 7979 0016 1346     		mov	r3, r2	@ movhi
 7980 0018 FB80     		strh	r3, [r7, #6]	@ movhi
3711:Drivers/STM32F3xx_HAL_Driver/Src/stm32f3xx_hal_i2c.c ****   I2C_TransferConfig(hi2c, DevAddress, MemAddSize, I2C_SOFTEND_MODE, I2C_GENERATE_START_WRITE);
 7981              		.loc 1 3711 0
 7982 001a FB88     		ldrh	r3, [r7, #6]	@ movhi
 7983 001c DAB2     		uxtb	r2, r3
 7984 001e 7989     		ldrh	r1, [r7, #10]
 7985 0020 4FF40053 		mov	r3, #8192
 7986 0024 0093     		str	r3, [sp]
 7987 0026 0023     		movs	r3, #0
 7988 0028 F868     		ldr	r0, [r7, #12]
 7989 002a FFF7FEFF 		bl	I2C_TransferConfig
3712:Drivers/STM32F3xx_HAL_Driver/Src/stm32f3xx_hal_i2c.c **** 
3713:Drivers/STM32F3xx_HAL_Driver/Src/stm32f3xx_hal_i2c.c ****   /* Wait until TXIS flag is set */
3714:Drivers/STM32F3xx_HAL_Driver/Src/stm32f3xx_hal_i2c.c ****   if (I2C_WaitOnTXISFlagUntilTimeout(hi2c, Timeout, Tickstart) != HAL_OK)
 7990              		.loc 1 3714 0
 7991 002e FA69     		ldr	r2, [r7, #28]
 7992 0030 B969     		ldr	r1, [r7, #24]
ARM GAS  /tmp/ccy0jiyr.s 			page 205


 7993 0032 F868     		ldr	r0, [r7, #12]
 7994 0034 FFF7FEFF 		bl	I2C_WaitOnTXISFlagUntilTimeout
 7995 0038 0346     		mov	r3, r0
 7996 003a 002B     		cmp	r3, #0
 7997 003c 07D0     		beq	.L402
3715:Drivers/STM32F3xx_HAL_Driver/Src/stm32f3xx_hal_i2c.c ****   {
3716:Drivers/STM32F3xx_HAL_Driver/Src/stm32f3xx_hal_i2c.c ****     if (hi2c->ErrorCode == HAL_I2C_ERROR_AF)
 7998              		.loc 1 3716 0
 7999 003e FB68     		ldr	r3, [r7, #12]
 8000 0040 5B6C     		ldr	r3, [r3, #68]
 8001 0042 042B     		cmp	r3, #4
 8002 0044 01D1     		bne	.L403
3717:Drivers/STM32F3xx_HAL_Driver/Src/stm32f3xx_hal_i2c.c ****     {
3718:Drivers/STM32F3xx_HAL_Driver/Src/stm32f3xx_hal_i2c.c ****       return HAL_ERROR;
 8003              		.loc 1 3718 0
 8004 0046 0123     		movs	r3, #1
 8005 0048 34E0     		b	.L404
 8006              	.L403:
3719:Drivers/STM32F3xx_HAL_Driver/Src/stm32f3xx_hal_i2c.c ****     }
3720:Drivers/STM32F3xx_HAL_Driver/Src/stm32f3xx_hal_i2c.c ****     else
3721:Drivers/STM32F3xx_HAL_Driver/Src/stm32f3xx_hal_i2c.c ****     {
3722:Drivers/STM32F3xx_HAL_Driver/Src/stm32f3xx_hal_i2c.c ****       return HAL_TIMEOUT;
 8007              		.loc 1 3722 0
 8008 004a 0323     		movs	r3, #3
 8009 004c 32E0     		b	.L404
 8010              	.L402:
3723:Drivers/STM32F3xx_HAL_Driver/Src/stm32f3xx_hal_i2c.c ****     }
3724:Drivers/STM32F3xx_HAL_Driver/Src/stm32f3xx_hal_i2c.c ****   }
3725:Drivers/STM32F3xx_HAL_Driver/Src/stm32f3xx_hal_i2c.c **** 
3726:Drivers/STM32F3xx_HAL_Driver/Src/stm32f3xx_hal_i2c.c ****   /* If Memory address size is 8Bit */
3727:Drivers/STM32F3xx_HAL_Driver/Src/stm32f3xx_hal_i2c.c ****   if (MemAddSize == I2C_MEMADD_SIZE_8BIT)
 8011              		.loc 1 3727 0
 8012 004e FB88     		ldrh	r3, [r7, #6]
 8013 0050 012B     		cmp	r3, #1
 8014 0052 05D1     		bne	.L405
3728:Drivers/STM32F3xx_HAL_Driver/Src/stm32f3xx_hal_i2c.c ****   {
3729:Drivers/STM32F3xx_HAL_Driver/Src/stm32f3xx_hal_i2c.c ****     /* Send Memory Address */
3730:Drivers/STM32F3xx_HAL_Driver/Src/stm32f3xx_hal_i2c.c ****     hi2c->Instance->TXDR = I2C_MEM_ADD_LSB(MemAddress);
 8015              		.loc 1 3730 0
 8016 0054 3B89     		ldrh	r3, [r7, #8]	@ movhi
 8017 0056 DAB2     		uxtb	r2, r3
 8018 0058 FB68     		ldr	r3, [r7, #12]
 8019 005a 1B68     		ldr	r3, [r3]
 8020 005c 9A62     		str	r2, [r3, #40]
 8021 005e 1BE0     		b	.L406
 8022              	.L405:
3731:Drivers/STM32F3xx_HAL_Driver/Src/stm32f3xx_hal_i2c.c ****   }
3732:Drivers/STM32F3xx_HAL_Driver/Src/stm32f3xx_hal_i2c.c ****   /* If Memory address size is 16Bit */
3733:Drivers/STM32F3xx_HAL_Driver/Src/stm32f3xx_hal_i2c.c ****   else
3734:Drivers/STM32F3xx_HAL_Driver/Src/stm32f3xx_hal_i2c.c ****   {
3735:Drivers/STM32F3xx_HAL_Driver/Src/stm32f3xx_hal_i2c.c ****     /* Send MSB of Memory Address */
3736:Drivers/STM32F3xx_HAL_Driver/Src/stm32f3xx_hal_i2c.c ****     hi2c->Instance->TXDR = I2C_MEM_ADD_MSB(MemAddress);
 8023              		.loc 1 3736 0
 8024 0060 3B89     		ldrh	r3, [r7, #8]
 8025 0062 1B0A     		lsrs	r3, r3, #8
 8026 0064 9BB2     		uxth	r3, r3
 8027 0066 DAB2     		uxtb	r2, r3
ARM GAS  /tmp/ccy0jiyr.s 			page 206


 8028 0068 FB68     		ldr	r3, [r7, #12]
 8029 006a 1B68     		ldr	r3, [r3]
 8030 006c 9A62     		str	r2, [r3, #40]
3737:Drivers/STM32F3xx_HAL_Driver/Src/stm32f3xx_hal_i2c.c **** 
3738:Drivers/STM32F3xx_HAL_Driver/Src/stm32f3xx_hal_i2c.c ****     /* Wait until TXIS flag is set */
3739:Drivers/STM32F3xx_HAL_Driver/Src/stm32f3xx_hal_i2c.c ****     if (I2C_WaitOnTXISFlagUntilTimeout(hi2c, Timeout, Tickstart) != HAL_OK)
 8031              		.loc 1 3739 0
 8032 006e FA69     		ldr	r2, [r7, #28]
 8033 0070 B969     		ldr	r1, [r7, #24]
 8034 0072 F868     		ldr	r0, [r7, #12]
 8035 0074 FFF7FEFF 		bl	I2C_WaitOnTXISFlagUntilTimeout
 8036 0078 0346     		mov	r3, r0
 8037 007a 002B     		cmp	r3, #0
 8038 007c 07D0     		beq	.L407
3740:Drivers/STM32F3xx_HAL_Driver/Src/stm32f3xx_hal_i2c.c ****     {
3741:Drivers/STM32F3xx_HAL_Driver/Src/stm32f3xx_hal_i2c.c ****       if (hi2c->ErrorCode == HAL_I2C_ERROR_AF)
 8039              		.loc 1 3741 0
 8040 007e FB68     		ldr	r3, [r7, #12]
 8041 0080 5B6C     		ldr	r3, [r3, #68]
 8042 0082 042B     		cmp	r3, #4
 8043 0084 01D1     		bne	.L408
3742:Drivers/STM32F3xx_HAL_Driver/Src/stm32f3xx_hal_i2c.c ****       {
3743:Drivers/STM32F3xx_HAL_Driver/Src/stm32f3xx_hal_i2c.c ****         return HAL_ERROR;
 8044              		.loc 1 3743 0
 8045 0086 0123     		movs	r3, #1
 8046 0088 14E0     		b	.L404
 8047              	.L408:
3744:Drivers/STM32F3xx_HAL_Driver/Src/stm32f3xx_hal_i2c.c ****       }
3745:Drivers/STM32F3xx_HAL_Driver/Src/stm32f3xx_hal_i2c.c ****       else
3746:Drivers/STM32F3xx_HAL_Driver/Src/stm32f3xx_hal_i2c.c ****       {
3747:Drivers/STM32F3xx_HAL_Driver/Src/stm32f3xx_hal_i2c.c ****         return HAL_TIMEOUT;
 8048              		.loc 1 3747 0
 8049 008a 0323     		movs	r3, #3
 8050 008c 12E0     		b	.L404
 8051              	.L407:
3748:Drivers/STM32F3xx_HAL_Driver/Src/stm32f3xx_hal_i2c.c ****       }
3749:Drivers/STM32F3xx_HAL_Driver/Src/stm32f3xx_hal_i2c.c ****     }
3750:Drivers/STM32F3xx_HAL_Driver/Src/stm32f3xx_hal_i2c.c **** 
3751:Drivers/STM32F3xx_HAL_Driver/Src/stm32f3xx_hal_i2c.c ****     /* Send LSB of Memory Address */
3752:Drivers/STM32F3xx_HAL_Driver/Src/stm32f3xx_hal_i2c.c ****     hi2c->Instance->TXDR = I2C_MEM_ADD_LSB(MemAddress);
 8052              		.loc 1 3752 0
 8053 008e 3B89     		ldrh	r3, [r7, #8]	@ movhi
 8054 0090 DAB2     		uxtb	r2, r3
 8055 0092 FB68     		ldr	r3, [r7, #12]
 8056 0094 1B68     		ldr	r3, [r3]
 8057 0096 9A62     		str	r2, [r3, #40]
 8058              	.L406:
3753:Drivers/STM32F3xx_HAL_Driver/Src/stm32f3xx_hal_i2c.c ****   }
3754:Drivers/STM32F3xx_HAL_Driver/Src/stm32f3xx_hal_i2c.c **** 
3755:Drivers/STM32F3xx_HAL_Driver/Src/stm32f3xx_hal_i2c.c ****   /* Wait until TC flag is set */
3756:Drivers/STM32F3xx_HAL_Driver/Src/stm32f3xx_hal_i2c.c ****   if (I2C_WaitOnFlagUntilTimeout(hi2c, I2C_FLAG_TC, RESET, Timeout, Tickstart) != HAL_OK)
 8059              		.loc 1 3756 0
 8060 0098 FB69     		ldr	r3, [r7, #28]
 8061 009a 0093     		str	r3, [sp]
 8062 009c BB69     		ldr	r3, [r7, #24]
 8063 009e 0022     		movs	r2, #0
 8064 00a0 4021     		movs	r1, #64
ARM GAS  /tmp/ccy0jiyr.s 			page 207


 8065 00a2 F868     		ldr	r0, [r7, #12]
 8066 00a4 FFF7FEFF 		bl	I2C_WaitOnFlagUntilTimeout
 8067 00a8 0346     		mov	r3, r0
 8068 00aa 002B     		cmp	r3, #0
 8069 00ac 01D0     		beq	.L409
3757:Drivers/STM32F3xx_HAL_Driver/Src/stm32f3xx_hal_i2c.c ****   {
3758:Drivers/STM32F3xx_HAL_Driver/Src/stm32f3xx_hal_i2c.c ****     return HAL_TIMEOUT;
 8070              		.loc 1 3758 0
 8071 00ae 0323     		movs	r3, #3
 8072 00b0 00E0     		b	.L404
 8073              	.L409:
3759:Drivers/STM32F3xx_HAL_Driver/Src/stm32f3xx_hal_i2c.c ****   }
3760:Drivers/STM32F3xx_HAL_Driver/Src/stm32f3xx_hal_i2c.c **** 
3761:Drivers/STM32F3xx_HAL_Driver/Src/stm32f3xx_hal_i2c.c ****   return HAL_OK;
 8074              		.loc 1 3761 0
 8075 00b2 0023     		movs	r3, #0
 8076              	.L404:
3762:Drivers/STM32F3xx_HAL_Driver/Src/stm32f3xx_hal_i2c.c **** }
 8077              		.loc 1 3762 0
 8078 00b4 1846     		mov	r0, r3
 8079 00b6 1037     		adds	r7, r7, #16
 8080              	.LCFI268:
 8081              		.cfi_def_cfa_offset 8
 8082 00b8 BD46     		mov	sp, r7
 8083              	.LCFI269:
 8084              		.cfi_def_cfa_register 13
 8085              		@ sp needed
 8086 00ba 80BD     		pop	{r7, pc}
 8087              		.cfi_endproc
 8088              	.LFE745:
 8090              		.section	.text.I2C_ITAddrCplt,"ax",%progbits
 8091              		.align	1
 8092              		.syntax unified
 8093              		.thumb
 8094              		.thumb_func
 8095              		.fpu fpv4-sp-d16
 8097              	I2C_ITAddrCplt:
 8098              	.LFB746:
3763:Drivers/STM32F3xx_HAL_Driver/Src/stm32f3xx_hal_i2c.c **** 
3764:Drivers/STM32F3xx_HAL_Driver/Src/stm32f3xx_hal_i2c.c **** /**
3765:Drivers/STM32F3xx_HAL_Driver/Src/stm32f3xx_hal_i2c.c ****   * @brief  I2C Address complete process callback.
3766:Drivers/STM32F3xx_HAL_Driver/Src/stm32f3xx_hal_i2c.c ****   * @param  hi2c I2C handle.
3767:Drivers/STM32F3xx_HAL_Driver/Src/stm32f3xx_hal_i2c.c ****   * @param  ITFlags Interrupt flags to handle.
3768:Drivers/STM32F3xx_HAL_Driver/Src/stm32f3xx_hal_i2c.c ****   * @retval None
3769:Drivers/STM32F3xx_HAL_Driver/Src/stm32f3xx_hal_i2c.c ****   */
3770:Drivers/STM32F3xx_HAL_Driver/Src/stm32f3xx_hal_i2c.c **** static void I2C_ITAddrCplt(I2C_HandleTypeDef *hi2c, uint32_t ITFlags)
3771:Drivers/STM32F3xx_HAL_Driver/Src/stm32f3xx_hal_i2c.c **** {
 8099              		.loc 1 3771 0
 8100              		.cfi_startproc
 8101              		@ args = 0, pretend = 0, frame = 16
 8102              		@ frame_needed = 1, uses_anonymous_args = 0
 8103 0000 80B5     		push	{r7, lr}
 8104              	.LCFI270:
 8105              		.cfi_def_cfa_offset 8
 8106              		.cfi_offset 7, -8
 8107              		.cfi_offset 14, -4
 8108 0002 84B0     		sub	sp, sp, #16
ARM GAS  /tmp/ccy0jiyr.s 			page 208


 8109              	.LCFI271:
 8110              		.cfi_def_cfa_offset 24
 8111 0004 00AF     		add	r7, sp, #0
 8112              	.LCFI272:
 8113              		.cfi_def_cfa_register 7
 8114 0006 7860     		str	r0, [r7, #4]
 8115 0008 3960     		str	r1, [r7]
3772:Drivers/STM32F3xx_HAL_Driver/Src/stm32f3xx_hal_i2c.c ****   uint8_t transferdirection = 0U;
 8116              		.loc 1 3772 0
 8117 000a 0023     		movs	r3, #0
 8118 000c FB73     		strb	r3, [r7, #15]
3773:Drivers/STM32F3xx_HAL_Driver/Src/stm32f3xx_hal_i2c.c ****   uint16_t slaveaddrcode = 0U;
 8119              		.loc 1 3773 0
 8120 000e 0023     		movs	r3, #0
 8121 0010 BB81     		strh	r3, [r7, #12]	@ movhi
3774:Drivers/STM32F3xx_HAL_Driver/Src/stm32f3xx_hal_i2c.c ****   uint16_t ownadd1code = 0U;
 8122              		.loc 1 3774 0
 8123 0012 0023     		movs	r3, #0
 8124 0014 7B81     		strh	r3, [r7, #10]	@ movhi
3775:Drivers/STM32F3xx_HAL_Driver/Src/stm32f3xx_hal_i2c.c ****   uint16_t ownadd2code = 0U;
 8125              		.loc 1 3775 0
 8126 0016 0023     		movs	r3, #0
 8127 0018 3B81     		strh	r3, [r7, #8]	@ movhi
3776:Drivers/STM32F3xx_HAL_Driver/Src/stm32f3xx_hal_i2c.c **** 
3777:Drivers/STM32F3xx_HAL_Driver/Src/stm32f3xx_hal_i2c.c ****   /* Prevent unused argument(s) compilation warning */
3778:Drivers/STM32F3xx_HAL_Driver/Src/stm32f3xx_hal_i2c.c ****   UNUSED(ITFlags);
3779:Drivers/STM32F3xx_HAL_Driver/Src/stm32f3xx_hal_i2c.c **** 
3780:Drivers/STM32F3xx_HAL_Driver/Src/stm32f3xx_hal_i2c.c ****   /* In case of Listen state, need to inform upper layer of address match code event */
3781:Drivers/STM32F3xx_HAL_Driver/Src/stm32f3xx_hal_i2c.c ****   if ((hi2c->State & HAL_I2C_STATE_LISTEN) == HAL_I2C_STATE_LISTEN)
 8128              		.loc 1 3781 0
 8129 001a 7B68     		ldr	r3, [r7, #4]
 8130 001c 93F84130 		ldrb	r3, [r3, #65]
 8131 0020 DBB2     		uxtb	r3, r3
 8132 0022 03F02803 		and	r3, r3, #40
 8133 0026 282B     		cmp	r3, #40
 8134 0028 68D1     		bne	.L411
3782:Drivers/STM32F3xx_HAL_Driver/Src/stm32f3xx_hal_i2c.c ****   {
3783:Drivers/STM32F3xx_HAL_Driver/Src/stm32f3xx_hal_i2c.c ****     transferdirection = I2C_GET_DIR(hi2c);
 8135              		.loc 1 3783 0
 8136 002a 7B68     		ldr	r3, [r7, #4]
 8137 002c 1B68     		ldr	r3, [r3]
 8138 002e 9B69     		ldr	r3, [r3, #24]
 8139 0030 1B0C     		lsrs	r3, r3, #16
 8140 0032 DBB2     		uxtb	r3, r3
 8141 0034 03F00103 		and	r3, r3, #1
 8142 0038 FB73     		strb	r3, [r7, #15]
3784:Drivers/STM32F3xx_HAL_Driver/Src/stm32f3xx_hal_i2c.c ****     slaveaddrcode     = I2C_GET_ADDR_MATCH(hi2c);
 8143              		.loc 1 3784 0
 8144 003a 7B68     		ldr	r3, [r7, #4]
 8145 003c 1B68     		ldr	r3, [r3]
 8146 003e 9B69     		ldr	r3, [r3, #24]
 8147 0040 1B0C     		lsrs	r3, r3, #16
 8148 0042 9BB2     		uxth	r3, r3
 8149 0044 03F0FE03 		and	r3, r3, #254
 8150 0048 BB81     		strh	r3, [r7, #12]	@ movhi
3785:Drivers/STM32F3xx_HAL_Driver/Src/stm32f3xx_hal_i2c.c ****     ownadd1code       = I2C_GET_OWN_ADDRESS1(hi2c);
 8151              		.loc 1 3785 0
ARM GAS  /tmp/ccy0jiyr.s 			page 209


 8152 004a 7B68     		ldr	r3, [r7, #4]
 8153 004c 1B68     		ldr	r3, [r3]
 8154 004e 9B68     		ldr	r3, [r3, #8]
 8155 0050 9BB2     		uxth	r3, r3
 8156 0052 C3F30903 		ubfx	r3, r3, #0, #10
 8157 0056 7B81     		strh	r3, [r7, #10]	@ movhi
3786:Drivers/STM32F3xx_HAL_Driver/Src/stm32f3xx_hal_i2c.c ****     ownadd2code       = I2C_GET_OWN_ADDRESS2(hi2c);
 8158              		.loc 1 3786 0
 8159 0058 7B68     		ldr	r3, [r7, #4]
 8160 005a 1B68     		ldr	r3, [r3]
 8161 005c DB68     		ldr	r3, [r3, #12]
 8162 005e 9BB2     		uxth	r3, r3
 8163 0060 03F0FE03 		and	r3, r3, #254
 8164 0064 3B81     		strh	r3, [r7, #8]	@ movhi
3787:Drivers/STM32F3xx_HAL_Driver/Src/stm32f3xx_hal_i2c.c **** 
3788:Drivers/STM32F3xx_HAL_Driver/Src/stm32f3xx_hal_i2c.c ****     /* If 10bits addressing mode is selected */
3789:Drivers/STM32F3xx_HAL_Driver/Src/stm32f3xx_hal_i2c.c ****     if (hi2c->Init.AddressingMode == I2C_ADDRESSINGMODE_10BIT)
 8165              		.loc 1 3789 0
 8166 0066 7B68     		ldr	r3, [r7, #4]
 8167 0068 DB68     		ldr	r3, [r3, #12]
 8168 006a 022B     		cmp	r3, #2
 8169 006c 37D1     		bne	.L412
3790:Drivers/STM32F3xx_HAL_Driver/Src/stm32f3xx_hal_i2c.c ****     {
3791:Drivers/STM32F3xx_HAL_Driver/Src/stm32f3xx_hal_i2c.c ****       if ((slaveaddrcode & SlaveAddr_MSK) == ((ownadd1code >> SlaveAddr_SHIFT) & SlaveAddr_MSK))
 8170              		.loc 1 3791 0
 8171 006e 7B89     		ldrh	r3, [r7, #10]
 8172 0070 DB09     		lsrs	r3, r3, #7
 8173 0072 9AB2     		uxth	r2, r3
 8174 0074 BB89     		ldrh	r3, [r7, #12]	@ movhi
 8175 0076 5340     		eors	r3, r3, r2
 8176 0078 9BB2     		uxth	r3, r3
 8177 007a 03F00603 		and	r3, r3, #6
 8178 007e 002B     		cmp	r3, #0
 8179 0080 1CD1     		bne	.L413
3792:Drivers/STM32F3xx_HAL_Driver/Src/stm32f3xx_hal_i2c.c ****       {
3793:Drivers/STM32F3xx_HAL_Driver/Src/stm32f3xx_hal_i2c.c ****         slaveaddrcode = ownadd1code;
 8180              		.loc 1 3793 0
 8181 0082 7B89     		ldrh	r3, [r7, #10]	@ movhi
 8182 0084 BB81     		strh	r3, [r7, #12]	@ movhi
3794:Drivers/STM32F3xx_HAL_Driver/Src/stm32f3xx_hal_i2c.c ****         hi2c->AddrEventCount++;
 8183              		.loc 1 3794 0
 8184 0086 7B68     		ldr	r3, [r7, #4]
 8185 0088 9B6C     		ldr	r3, [r3, #72]
 8186 008a 5A1C     		adds	r2, r3, #1
 8187 008c 7B68     		ldr	r3, [r7, #4]
 8188 008e 9A64     		str	r2, [r3, #72]
3795:Drivers/STM32F3xx_HAL_Driver/Src/stm32f3xx_hal_i2c.c ****         if (hi2c->AddrEventCount == 2U)
 8189              		.loc 1 3795 0
 8190 0090 7B68     		ldr	r3, [r7, #4]
 8191 0092 9B6C     		ldr	r3, [r3, #72]
 8192 0094 022B     		cmp	r3, #2
 8193 0096 39D1     		bne	.L418
3796:Drivers/STM32F3xx_HAL_Driver/Src/stm32f3xx_hal_i2c.c ****         {
3797:Drivers/STM32F3xx_HAL_Driver/Src/stm32f3xx_hal_i2c.c ****           /* Reset Address Event counter */
3798:Drivers/STM32F3xx_HAL_Driver/Src/stm32f3xx_hal_i2c.c ****           hi2c->AddrEventCount = 0U;
 8194              		.loc 1 3798 0
 8195 0098 7B68     		ldr	r3, [r7, #4]
ARM GAS  /tmp/ccy0jiyr.s 			page 210


 8196 009a 0022     		movs	r2, #0
 8197 009c 9A64     		str	r2, [r3, #72]
3799:Drivers/STM32F3xx_HAL_Driver/Src/stm32f3xx_hal_i2c.c **** 
3800:Drivers/STM32F3xx_HAL_Driver/Src/stm32f3xx_hal_i2c.c ****           /* Clear ADDR flag */
3801:Drivers/STM32F3xx_HAL_Driver/Src/stm32f3xx_hal_i2c.c ****           __HAL_I2C_CLEAR_FLAG(hi2c, I2C_FLAG_ADDR);
 8198              		.loc 1 3801 0
 8199 009e 7B68     		ldr	r3, [r7, #4]
 8200 00a0 1B68     		ldr	r3, [r3]
 8201 00a2 0822     		movs	r2, #8
 8202 00a4 DA61     		str	r2, [r3, #28]
3802:Drivers/STM32F3xx_HAL_Driver/Src/stm32f3xx_hal_i2c.c **** 
3803:Drivers/STM32F3xx_HAL_Driver/Src/stm32f3xx_hal_i2c.c ****           /* Process Unlocked */
3804:Drivers/STM32F3xx_HAL_Driver/Src/stm32f3xx_hal_i2c.c ****           __HAL_UNLOCK(hi2c);
 8203              		.loc 1 3804 0
 8204 00a6 7B68     		ldr	r3, [r7, #4]
 8205 00a8 0022     		movs	r2, #0
 8206 00aa 83F84020 		strb	r2, [r3, #64]
3805:Drivers/STM32F3xx_HAL_Driver/Src/stm32f3xx_hal_i2c.c **** 
3806:Drivers/STM32F3xx_HAL_Driver/Src/stm32f3xx_hal_i2c.c ****           /* Call Slave Addr callback */
3807:Drivers/STM32F3xx_HAL_Driver/Src/stm32f3xx_hal_i2c.c ****           HAL_I2C_AddrCallback(hi2c, transferdirection, slaveaddrcode);
 8207              		.loc 1 3807 0
 8208 00ae BA89     		ldrh	r2, [r7, #12]
 8209 00b0 FB7B     		ldrb	r3, [r7, #15]	@ zero_extendqisi2
 8210 00b2 1946     		mov	r1, r3
 8211 00b4 7868     		ldr	r0, [r7, #4]
 8212 00b6 FFF7FEFF 		bl	HAL_I2C_AddrCallback
3808:Drivers/STM32F3xx_HAL_Driver/Src/stm32f3xx_hal_i2c.c ****         }
3809:Drivers/STM32F3xx_HAL_Driver/Src/stm32f3xx_hal_i2c.c ****       }
3810:Drivers/STM32F3xx_HAL_Driver/Src/stm32f3xx_hal_i2c.c ****       else
3811:Drivers/STM32F3xx_HAL_Driver/Src/stm32f3xx_hal_i2c.c ****       {
3812:Drivers/STM32F3xx_HAL_Driver/Src/stm32f3xx_hal_i2c.c ****         slaveaddrcode = ownadd2code;
3813:Drivers/STM32F3xx_HAL_Driver/Src/stm32f3xx_hal_i2c.c **** 
3814:Drivers/STM32F3xx_HAL_Driver/Src/stm32f3xx_hal_i2c.c ****         /* Disable ADDR Interrupts */
3815:Drivers/STM32F3xx_HAL_Driver/Src/stm32f3xx_hal_i2c.c ****         I2C_Disable_IRQ(hi2c, I2C_XFER_LISTEN_IT);
3816:Drivers/STM32F3xx_HAL_Driver/Src/stm32f3xx_hal_i2c.c **** 
3817:Drivers/STM32F3xx_HAL_Driver/Src/stm32f3xx_hal_i2c.c ****         /* Process Unlocked */
3818:Drivers/STM32F3xx_HAL_Driver/Src/stm32f3xx_hal_i2c.c ****         __HAL_UNLOCK(hi2c);
3819:Drivers/STM32F3xx_HAL_Driver/Src/stm32f3xx_hal_i2c.c **** 
3820:Drivers/STM32F3xx_HAL_Driver/Src/stm32f3xx_hal_i2c.c ****         /* Call Slave Addr callback */
3821:Drivers/STM32F3xx_HAL_Driver/Src/stm32f3xx_hal_i2c.c ****         HAL_I2C_AddrCallback(hi2c, transferdirection, slaveaddrcode);
3822:Drivers/STM32F3xx_HAL_Driver/Src/stm32f3xx_hal_i2c.c ****       }
3823:Drivers/STM32F3xx_HAL_Driver/Src/stm32f3xx_hal_i2c.c ****     }
3824:Drivers/STM32F3xx_HAL_Driver/Src/stm32f3xx_hal_i2c.c ****     /* else 7 bits addressing mode is selected */
3825:Drivers/STM32F3xx_HAL_Driver/Src/stm32f3xx_hal_i2c.c ****     else
3826:Drivers/STM32F3xx_HAL_Driver/Src/stm32f3xx_hal_i2c.c ****     {
3827:Drivers/STM32F3xx_HAL_Driver/Src/stm32f3xx_hal_i2c.c ****       /* Disable ADDR Interrupts */
3828:Drivers/STM32F3xx_HAL_Driver/Src/stm32f3xx_hal_i2c.c ****       I2C_Disable_IRQ(hi2c, I2C_XFER_LISTEN_IT);
3829:Drivers/STM32F3xx_HAL_Driver/Src/stm32f3xx_hal_i2c.c **** 
3830:Drivers/STM32F3xx_HAL_Driver/Src/stm32f3xx_hal_i2c.c ****       /* Process Unlocked */
3831:Drivers/STM32F3xx_HAL_Driver/Src/stm32f3xx_hal_i2c.c ****       __HAL_UNLOCK(hi2c);
3832:Drivers/STM32F3xx_HAL_Driver/Src/stm32f3xx_hal_i2c.c **** 
3833:Drivers/STM32F3xx_HAL_Driver/Src/stm32f3xx_hal_i2c.c ****       /* Call Slave Addr callback */
3834:Drivers/STM32F3xx_HAL_Driver/Src/stm32f3xx_hal_i2c.c ****       HAL_I2C_AddrCallback(hi2c, transferdirection, slaveaddrcode);
3835:Drivers/STM32F3xx_HAL_Driver/Src/stm32f3xx_hal_i2c.c ****     }
3836:Drivers/STM32F3xx_HAL_Driver/Src/stm32f3xx_hal_i2c.c ****   }
3837:Drivers/STM32F3xx_HAL_Driver/Src/stm32f3xx_hal_i2c.c ****   /* Else clear address flag only */
3838:Drivers/STM32F3xx_HAL_Driver/Src/stm32f3xx_hal_i2c.c ****   else
ARM GAS  /tmp/ccy0jiyr.s 			page 211


3839:Drivers/STM32F3xx_HAL_Driver/Src/stm32f3xx_hal_i2c.c ****   {
3840:Drivers/STM32F3xx_HAL_Driver/Src/stm32f3xx_hal_i2c.c ****     /* Clear ADDR flag */
3841:Drivers/STM32F3xx_HAL_Driver/Src/stm32f3xx_hal_i2c.c ****     __HAL_I2C_CLEAR_FLAG(hi2c, I2C_FLAG_ADDR);
3842:Drivers/STM32F3xx_HAL_Driver/Src/stm32f3xx_hal_i2c.c **** 
3843:Drivers/STM32F3xx_HAL_Driver/Src/stm32f3xx_hal_i2c.c ****     /* Process Unlocked */
3844:Drivers/STM32F3xx_HAL_Driver/Src/stm32f3xx_hal_i2c.c ****     __HAL_UNLOCK(hi2c);
3845:Drivers/STM32F3xx_HAL_Driver/Src/stm32f3xx_hal_i2c.c ****   }
3846:Drivers/STM32F3xx_HAL_Driver/Src/stm32f3xx_hal_i2c.c **** }
 8213              		.loc 1 3846 0
 8214 00ba 27E0     		b	.L418
 8215              	.L413:
3812:Drivers/STM32F3xx_HAL_Driver/Src/stm32f3xx_hal_i2c.c **** 
 8216              		.loc 1 3812 0
 8217 00bc 3B89     		ldrh	r3, [r7, #8]	@ movhi
 8218 00be BB81     		strh	r3, [r7, #12]	@ movhi
3815:Drivers/STM32F3xx_HAL_Driver/Src/stm32f3xx_hal_i2c.c **** 
 8219              		.loc 1 3815 0
 8220 00c0 0421     		movs	r1, #4
 8221 00c2 7868     		ldr	r0, [r7, #4]
 8222 00c4 FFF7FEFF 		bl	I2C_Disable_IRQ
3818:Drivers/STM32F3xx_HAL_Driver/Src/stm32f3xx_hal_i2c.c **** 
 8223              		.loc 1 3818 0
 8224 00c8 7B68     		ldr	r3, [r7, #4]
 8225 00ca 0022     		movs	r2, #0
 8226 00cc 83F84020 		strb	r2, [r3, #64]
3821:Drivers/STM32F3xx_HAL_Driver/Src/stm32f3xx_hal_i2c.c ****       }
 8227              		.loc 1 3821 0
 8228 00d0 BA89     		ldrh	r2, [r7, #12]
 8229 00d2 FB7B     		ldrb	r3, [r7, #15]	@ zero_extendqisi2
 8230 00d4 1946     		mov	r1, r3
 8231 00d6 7868     		ldr	r0, [r7, #4]
 8232 00d8 FFF7FEFF 		bl	HAL_I2C_AddrCallback
 8233              		.loc 1 3846 0
 8234 00dc 16E0     		b	.L418
 8235              	.L412:
3828:Drivers/STM32F3xx_HAL_Driver/Src/stm32f3xx_hal_i2c.c **** 
 8236              		.loc 1 3828 0
 8237 00de 0421     		movs	r1, #4
 8238 00e0 7868     		ldr	r0, [r7, #4]
 8239 00e2 FFF7FEFF 		bl	I2C_Disable_IRQ
3831:Drivers/STM32F3xx_HAL_Driver/Src/stm32f3xx_hal_i2c.c **** 
 8240              		.loc 1 3831 0
 8241 00e6 7B68     		ldr	r3, [r7, #4]
 8242 00e8 0022     		movs	r2, #0
 8243 00ea 83F84020 		strb	r2, [r3, #64]
3834:Drivers/STM32F3xx_HAL_Driver/Src/stm32f3xx_hal_i2c.c ****     }
 8244              		.loc 1 3834 0
 8245 00ee BA89     		ldrh	r2, [r7, #12]
 8246 00f0 FB7B     		ldrb	r3, [r7, #15]	@ zero_extendqisi2
 8247 00f2 1946     		mov	r1, r3
 8248 00f4 7868     		ldr	r0, [r7, #4]
 8249 00f6 FFF7FEFF 		bl	HAL_I2C_AddrCallback
 8250              		.loc 1 3846 0
 8251 00fa 07E0     		b	.L418
 8252              	.L411:
3841:Drivers/STM32F3xx_HAL_Driver/Src/stm32f3xx_hal_i2c.c **** 
 8253              		.loc 1 3841 0
ARM GAS  /tmp/ccy0jiyr.s 			page 212


 8254 00fc 7B68     		ldr	r3, [r7, #4]
 8255 00fe 1B68     		ldr	r3, [r3]
 8256 0100 0822     		movs	r2, #8
 8257 0102 DA61     		str	r2, [r3, #28]
3844:Drivers/STM32F3xx_HAL_Driver/Src/stm32f3xx_hal_i2c.c ****   }
 8258              		.loc 1 3844 0
 8259 0104 7B68     		ldr	r3, [r7, #4]
 8260 0106 0022     		movs	r2, #0
 8261 0108 83F84020 		strb	r2, [r3, #64]
 8262              	.L418:
 8263              		.loc 1 3846 0
 8264 010c 00BF     		nop
 8265 010e 1037     		adds	r7, r7, #16
 8266              	.LCFI273:
 8267              		.cfi_def_cfa_offset 8
 8268 0110 BD46     		mov	sp, r7
 8269              	.LCFI274:
 8270              		.cfi_def_cfa_register 13
 8271              		@ sp needed
 8272 0112 80BD     		pop	{r7, pc}
 8273              		.cfi_endproc
 8274              	.LFE746:
 8276              		.section	.text.I2C_ITMasterSequentialCplt,"ax",%progbits
 8277              		.align	1
 8278              		.syntax unified
 8279              		.thumb
 8280              		.thumb_func
 8281              		.fpu fpv4-sp-d16
 8283              	I2C_ITMasterSequentialCplt:
 8284              	.LFB747:
3847:Drivers/STM32F3xx_HAL_Driver/Src/stm32f3xx_hal_i2c.c **** 
3848:Drivers/STM32F3xx_HAL_Driver/Src/stm32f3xx_hal_i2c.c **** /**
3849:Drivers/STM32F3xx_HAL_Driver/Src/stm32f3xx_hal_i2c.c ****   * @brief  I2C Master sequential complete process.
3850:Drivers/STM32F3xx_HAL_Driver/Src/stm32f3xx_hal_i2c.c ****   * @param  hi2c I2C handle.
3851:Drivers/STM32F3xx_HAL_Driver/Src/stm32f3xx_hal_i2c.c ****   * @retval None
3852:Drivers/STM32F3xx_HAL_Driver/Src/stm32f3xx_hal_i2c.c ****   */
3853:Drivers/STM32F3xx_HAL_Driver/Src/stm32f3xx_hal_i2c.c **** static void I2C_ITMasterSequentialCplt(I2C_HandleTypeDef *hi2c)
3854:Drivers/STM32F3xx_HAL_Driver/Src/stm32f3xx_hal_i2c.c **** {
 8285              		.loc 1 3854 0
 8286              		.cfi_startproc
 8287              		@ args = 0, pretend = 0, frame = 8
 8288              		@ frame_needed = 1, uses_anonymous_args = 0
 8289 0000 80B5     		push	{r7, lr}
 8290              	.LCFI275:
 8291              		.cfi_def_cfa_offset 8
 8292              		.cfi_offset 7, -8
 8293              		.cfi_offset 14, -4
 8294 0002 82B0     		sub	sp, sp, #8
 8295              	.LCFI276:
 8296              		.cfi_def_cfa_offset 16
 8297 0004 00AF     		add	r7, sp, #0
 8298              	.LCFI277:
 8299              		.cfi_def_cfa_register 7
 8300 0006 7860     		str	r0, [r7, #4]
3855:Drivers/STM32F3xx_HAL_Driver/Src/stm32f3xx_hal_i2c.c ****   /* Reset I2C handle mode */
3856:Drivers/STM32F3xx_HAL_Driver/Src/stm32f3xx_hal_i2c.c ****   hi2c->Mode = HAL_I2C_MODE_NONE;
 8301              		.loc 1 3856 0
ARM GAS  /tmp/ccy0jiyr.s 			page 213


 8302 0008 7B68     		ldr	r3, [r7, #4]
 8303 000a 0022     		movs	r2, #0
 8304 000c 83F84220 		strb	r2, [r3, #66]
3857:Drivers/STM32F3xx_HAL_Driver/Src/stm32f3xx_hal_i2c.c **** 
3858:Drivers/STM32F3xx_HAL_Driver/Src/stm32f3xx_hal_i2c.c ****   /* No Generate Stop, to permit restart mode */
3859:Drivers/STM32F3xx_HAL_Driver/Src/stm32f3xx_hal_i2c.c ****   /* The stop will be done at the end of transfer, when I2C_AUTOEND_MODE enable */
3860:Drivers/STM32F3xx_HAL_Driver/Src/stm32f3xx_hal_i2c.c ****   if (hi2c->State == HAL_I2C_STATE_BUSY_TX)
 8305              		.loc 1 3860 0
 8306 0010 7B68     		ldr	r3, [r7, #4]
 8307 0012 93F84130 		ldrb	r3, [r3, #65]
 8308 0016 DBB2     		uxtb	r3, r3
 8309 0018 212B     		cmp	r3, #33
 8310 001a 15D1     		bne	.L420
3861:Drivers/STM32F3xx_HAL_Driver/Src/stm32f3xx_hal_i2c.c ****   {
3862:Drivers/STM32F3xx_HAL_Driver/Src/stm32f3xx_hal_i2c.c ****     hi2c->State         = HAL_I2C_STATE_READY;
 8311              		.loc 1 3862 0
 8312 001c 7B68     		ldr	r3, [r7, #4]
 8313 001e 2022     		movs	r2, #32
 8314 0020 83F84120 		strb	r2, [r3, #65]
3863:Drivers/STM32F3xx_HAL_Driver/Src/stm32f3xx_hal_i2c.c ****     hi2c->PreviousState = I2C_STATE_MASTER_BUSY_TX;
 8315              		.loc 1 3863 0
 8316 0024 7B68     		ldr	r3, [r7, #4]
 8317 0026 1122     		movs	r2, #17
 8318 0028 1A63     		str	r2, [r3, #48]
3864:Drivers/STM32F3xx_HAL_Driver/Src/stm32f3xx_hal_i2c.c ****     hi2c->XferISR       = NULL;
 8319              		.loc 1 3864 0
 8320 002a 7B68     		ldr	r3, [r7, #4]
 8321 002c 0022     		movs	r2, #0
 8322 002e 5A63     		str	r2, [r3, #52]
3865:Drivers/STM32F3xx_HAL_Driver/Src/stm32f3xx_hal_i2c.c **** 
3866:Drivers/STM32F3xx_HAL_Driver/Src/stm32f3xx_hal_i2c.c ****     /* Disable Interrupts */
3867:Drivers/STM32F3xx_HAL_Driver/Src/stm32f3xx_hal_i2c.c ****     I2C_Disable_IRQ(hi2c, I2C_XFER_TX_IT);
 8323              		.loc 1 3867 0
 8324 0030 0121     		movs	r1, #1
 8325 0032 7868     		ldr	r0, [r7, #4]
 8326 0034 FFF7FEFF 		bl	I2C_Disable_IRQ
3868:Drivers/STM32F3xx_HAL_Driver/Src/stm32f3xx_hal_i2c.c **** 
3869:Drivers/STM32F3xx_HAL_Driver/Src/stm32f3xx_hal_i2c.c ****     /* Process Unlocked */
3870:Drivers/STM32F3xx_HAL_Driver/Src/stm32f3xx_hal_i2c.c ****     __HAL_UNLOCK(hi2c);
 8327              		.loc 1 3870 0
 8328 0038 7B68     		ldr	r3, [r7, #4]
 8329 003a 0022     		movs	r2, #0
 8330 003c 83F84020 		strb	r2, [r3, #64]
3871:Drivers/STM32F3xx_HAL_Driver/Src/stm32f3xx_hal_i2c.c **** 
3872:Drivers/STM32F3xx_HAL_Driver/Src/stm32f3xx_hal_i2c.c ****     /* Call the corresponding callback to inform upper layer of End of Transfer */
3873:Drivers/STM32F3xx_HAL_Driver/Src/stm32f3xx_hal_i2c.c ****     HAL_I2C_MasterTxCpltCallback(hi2c);
 8331              		.loc 1 3873 0
 8332 0040 7868     		ldr	r0, [r7, #4]
 8333 0042 FFF7FEFF 		bl	HAL_I2C_MasterTxCpltCallback
3874:Drivers/STM32F3xx_HAL_Driver/Src/stm32f3xx_hal_i2c.c ****   }
3875:Drivers/STM32F3xx_HAL_Driver/Src/stm32f3xx_hal_i2c.c ****   /* hi2c->State == HAL_I2C_STATE_BUSY_RX */
3876:Drivers/STM32F3xx_HAL_Driver/Src/stm32f3xx_hal_i2c.c ****   else
3877:Drivers/STM32F3xx_HAL_Driver/Src/stm32f3xx_hal_i2c.c ****   {
3878:Drivers/STM32F3xx_HAL_Driver/Src/stm32f3xx_hal_i2c.c ****     hi2c->State         = HAL_I2C_STATE_READY;
3879:Drivers/STM32F3xx_HAL_Driver/Src/stm32f3xx_hal_i2c.c ****     hi2c->PreviousState = I2C_STATE_MASTER_BUSY_RX;
3880:Drivers/STM32F3xx_HAL_Driver/Src/stm32f3xx_hal_i2c.c ****     hi2c->XferISR       = NULL;
3881:Drivers/STM32F3xx_HAL_Driver/Src/stm32f3xx_hal_i2c.c **** 
ARM GAS  /tmp/ccy0jiyr.s 			page 214


3882:Drivers/STM32F3xx_HAL_Driver/Src/stm32f3xx_hal_i2c.c ****     /* Disable Interrupts */
3883:Drivers/STM32F3xx_HAL_Driver/Src/stm32f3xx_hal_i2c.c ****     I2C_Disable_IRQ(hi2c, I2C_XFER_RX_IT);
3884:Drivers/STM32F3xx_HAL_Driver/Src/stm32f3xx_hal_i2c.c **** 
3885:Drivers/STM32F3xx_HAL_Driver/Src/stm32f3xx_hal_i2c.c ****     /* Process Unlocked */
3886:Drivers/STM32F3xx_HAL_Driver/Src/stm32f3xx_hal_i2c.c ****     __HAL_UNLOCK(hi2c);
3887:Drivers/STM32F3xx_HAL_Driver/Src/stm32f3xx_hal_i2c.c **** 
3888:Drivers/STM32F3xx_HAL_Driver/Src/stm32f3xx_hal_i2c.c ****     /* Call the corresponding callback to inform upper layer of End of Transfer */
3889:Drivers/STM32F3xx_HAL_Driver/Src/stm32f3xx_hal_i2c.c ****     HAL_I2C_MasterRxCpltCallback(hi2c);
3890:Drivers/STM32F3xx_HAL_Driver/Src/stm32f3xx_hal_i2c.c ****   }
3891:Drivers/STM32F3xx_HAL_Driver/Src/stm32f3xx_hal_i2c.c **** }
 8334              		.loc 1 3891 0
 8335 0046 14E0     		b	.L422
 8336              	.L420:
3878:Drivers/STM32F3xx_HAL_Driver/Src/stm32f3xx_hal_i2c.c ****     hi2c->PreviousState = I2C_STATE_MASTER_BUSY_RX;
 8337              		.loc 1 3878 0
 8338 0048 7B68     		ldr	r3, [r7, #4]
 8339 004a 2022     		movs	r2, #32
 8340 004c 83F84120 		strb	r2, [r3, #65]
3879:Drivers/STM32F3xx_HAL_Driver/Src/stm32f3xx_hal_i2c.c ****     hi2c->XferISR       = NULL;
 8341              		.loc 1 3879 0
 8342 0050 7B68     		ldr	r3, [r7, #4]
 8343 0052 1222     		movs	r2, #18
 8344 0054 1A63     		str	r2, [r3, #48]
3880:Drivers/STM32F3xx_HAL_Driver/Src/stm32f3xx_hal_i2c.c **** 
 8345              		.loc 1 3880 0
 8346 0056 7B68     		ldr	r3, [r7, #4]
 8347 0058 0022     		movs	r2, #0
 8348 005a 5A63     		str	r2, [r3, #52]
3883:Drivers/STM32F3xx_HAL_Driver/Src/stm32f3xx_hal_i2c.c **** 
 8349              		.loc 1 3883 0
 8350 005c 0221     		movs	r1, #2
 8351 005e 7868     		ldr	r0, [r7, #4]
 8352 0060 FFF7FEFF 		bl	I2C_Disable_IRQ
3886:Drivers/STM32F3xx_HAL_Driver/Src/stm32f3xx_hal_i2c.c **** 
 8353              		.loc 1 3886 0
 8354 0064 7B68     		ldr	r3, [r7, #4]
 8355 0066 0022     		movs	r2, #0
 8356 0068 83F84020 		strb	r2, [r3, #64]
3889:Drivers/STM32F3xx_HAL_Driver/Src/stm32f3xx_hal_i2c.c ****   }
 8357              		.loc 1 3889 0
 8358 006c 7868     		ldr	r0, [r7, #4]
 8359 006e FFF7FEFF 		bl	HAL_I2C_MasterRxCpltCallback
 8360              	.L422:
 8361              		.loc 1 3891 0
 8362 0072 00BF     		nop
 8363 0074 0837     		adds	r7, r7, #8
 8364              	.LCFI278:
 8365              		.cfi_def_cfa_offset 8
 8366 0076 BD46     		mov	sp, r7
 8367              	.LCFI279:
 8368              		.cfi_def_cfa_register 13
 8369              		@ sp needed
 8370 0078 80BD     		pop	{r7, pc}
 8371              		.cfi_endproc
 8372              	.LFE747:
 8374              		.section	.text.I2C_ITSlaveSequentialCplt,"ax",%progbits
 8375              		.align	1
ARM GAS  /tmp/ccy0jiyr.s 			page 215


 8376              		.syntax unified
 8377              		.thumb
 8378              		.thumb_func
 8379              		.fpu fpv4-sp-d16
 8381              	I2C_ITSlaveSequentialCplt:
 8382              	.LFB748:
3892:Drivers/STM32F3xx_HAL_Driver/Src/stm32f3xx_hal_i2c.c **** 
3893:Drivers/STM32F3xx_HAL_Driver/Src/stm32f3xx_hal_i2c.c **** /**
3894:Drivers/STM32F3xx_HAL_Driver/Src/stm32f3xx_hal_i2c.c ****   * @brief  I2C Slave sequential complete process.
3895:Drivers/STM32F3xx_HAL_Driver/Src/stm32f3xx_hal_i2c.c ****   * @param  hi2c I2C handle.
3896:Drivers/STM32F3xx_HAL_Driver/Src/stm32f3xx_hal_i2c.c ****   * @retval None
3897:Drivers/STM32F3xx_HAL_Driver/Src/stm32f3xx_hal_i2c.c ****   */
3898:Drivers/STM32F3xx_HAL_Driver/Src/stm32f3xx_hal_i2c.c **** static void I2C_ITSlaveSequentialCplt(I2C_HandleTypeDef *hi2c)
3899:Drivers/STM32F3xx_HAL_Driver/Src/stm32f3xx_hal_i2c.c **** {
 8383              		.loc 1 3899 0
 8384              		.cfi_startproc
 8385              		@ args = 0, pretend = 0, frame = 8
 8386              		@ frame_needed = 1, uses_anonymous_args = 0
 8387 0000 80B5     		push	{r7, lr}
 8388              	.LCFI280:
 8389              		.cfi_def_cfa_offset 8
 8390              		.cfi_offset 7, -8
 8391              		.cfi_offset 14, -4
 8392 0002 82B0     		sub	sp, sp, #8
 8393              	.LCFI281:
 8394              		.cfi_def_cfa_offset 16
 8395 0004 00AF     		add	r7, sp, #0
 8396              	.LCFI282:
 8397              		.cfi_def_cfa_register 7
 8398 0006 7860     		str	r0, [r7, #4]
3900:Drivers/STM32F3xx_HAL_Driver/Src/stm32f3xx_hal_i2c.c ****   /* Reset I2C handle mode */
3901:Drivers/STM32F3xx_HAL_Driver/Src/stm32f3xx_hal_i2c.c ****   hi2c->Mode = HAL_I2C_MODE_NONE;
 8399              		.loc 1 3901 0
 8400 0008 7B68     		ldr	r3, [r7, #4]
 8401 000a 0022     		movs	r2, #0
 8402 000c 83F84220 		strb	r2, [r3, #66]
3902:Drivers/STM32F3xx_HAL_Driver/Src/stm32f3xx_hal_i2c.c **** 
3903:Drivers/STM32F3xx_HAL_Driver/Src/stm32f3xx_hal_i2c.c ****   if (hi2c->State == HAL_I2C_STATE_BUSY_TX_LISTEN)
 8403              		.loc 1 3903 0
 8404 0010 7B68     		ldr	r3, [r7, #4]
 8405 0012 93F84130 		ldrb	r3, [r3, #65]
 8406 0016 DBB2     		uxtb	r3, r3
 8407 0018 292B     		cmp	r3, #41
 8408 001a 12D1     		bne	.L424
3904:Drivers/STM32F3xx_HAL_Driver/Src/stm32f3xx_hal_i2c.c ****   {
3905:Drivers/STM32F3xx_HAL_Driver/Src/stm32f3xx_hal_i2c.c ****     /* Remove HAL_I2C_STATE_SLAVE_BUSY_TX, keep only HAL_I2C_STATE_LISTEN */
3906:Drivers/STM32F3xx_HAL_Driver/Src/stm32f3xx_hal_i2c.c ****     hi2c->State         = HAL_I2C_STATE_LISTEN;
 8409              		.loc 1 3906 0
 8410 001c 7B68     		ldr	r3, [r7, #4]
 8411 001e 2822     		movs	r2, #40
 8412 0020 83F84120 		strb	r2, [r3, #65]
3907:Drivers/STM32F3xx_HAL_Driver/Src/stm32f3xx_hal_i2c.c ****     hi2c->PreviousState = I2C_STATE_SLAVE_BUSY_TX;
 8413              		.loc 1 3907 0
 8414 0024 7B68     		ldr	r3, [r7, #4]
 8415 0026 2122     		movs	r2, #33
 8416 0028 1A63     		str	r2, [r3, #48]
3908:Drivers/STM32F3xx_HAL_Driver/Src/stm32f3xx_hal_i2c.c **** 
ARM GAS  /tmp/ccy0jiyr.s 			page 216


3909:Drivers/STM32F3xx_HAL_Driver/Src/stm32f3xx_hal_i2c.c ****     /* Disable Interrupts */
3910:Drivers/STM32F3xx_HAL_Driver/Src/stm32f3xx_hal_i2c.c ****     I2C_Disable_IRQ(hi2c, I2C_XFER_TX_IT);
 8417              		.loc 1 3910 0
 8418 002a 0121     		movs	r1, #1
 8419 002c 7868     		ldr	r0, [r7, #4]
 8420 002e FFF7FEFF 		bl	I2C_Disable_IRQ
3911:Drivers/STM32F3xx_HAL_Driver/Src/stm32f3xx_hal_i2c.c **** 
3912:Drivers/STM32F3xx_HAL_Driver/Src/stm32f3xx_hal_i2c.c ****     /* Process Unlocked */
3913:Drivers/STM32F3xx_HAL_Driver/Src/stm32f3xx_hal_i2c.c ****     __HAL_UNLOCK(hi2c);
 8421              		.loc 1 3913 0
 8422 0032 7B68     		ldr	r3, [r7, #4]
 8423 0034 0022     		movs	r2, #0
 8424 0036 83F84020 		strb	r2, [r3, #64]
3914:Drivers/STM32F3xx_HAL_Driver/Src/stm32f3xx_hal_i2c.c **** 
3915:Drivers/STM32F3xx_HAL_Driver/Src/stm32f3xx_hal_i2c.c ****     /* Call the Tx complete callback to inform upper layer of the end of transmit process */
3916:Drivers/STM32F3xx_HAL_Driver/Src/stm32f3xx_hal_i2c.c ****     HAL_I2C_SlaveTxCpltCallback(hi2c);
 8425              		.loc 1 3916 0
 8426 003a 7868     		ldr	r0, [r7, #4]
 8427 003c FFF7FEFF 		bl	HAL_I2C_SlaveTxCpltCallback
3917:Drivers/STM32F3xx_HAL_Driver/Src/stm32f3xx_hal_i2c.c ****   }
3918:Drivers/STM32F3xx_HAL_Driver/Src/stm32f3xx_hal_i2c.c **** 
3919:Drivers/STM32F3xx_HAL_Driver/Src/stm32f3xx_hal_i2c.c ****   else if (hi2c->State == HAL_I2C_STATE_BUSY_RX_LISTEN)
3920:Drivers/STM32F3xx_HAL_Driver/Src/stm32f3xx_hal_i2c.c ****   {
3921:Drivers/STM32F3xx_HAL_Driver/Src/stm32f3xx_hal_i2c.c ****     /* Remove HAL_I2C_STATE_SLAVE_BUSY_RX, keep only HAL_I2C_STATE_LISTEN */
3922:Drivers/STM32F3xx_HAL_Driver/Src/stm32f3xx_hal_i2c.c ****     hi2c->State         = HAL_I2C_STATE_LISTEN;
3923:Drivers/STM32F3xx_HAL_Driver/Src/stm32f3xx_hal_i2c.c ****     hi2c->PreviousState = I2C_STATE_SLAVE_BUSY_RX;
3924:Drivers/STM32F3xx_HAL_Driver/Src/stm32f3xx_hal_i2c.c **** 
3925:Drivers/STM32F3xx_HAL_Driver/Src/stm32f3xx_hal_i2c.c ****     /* Disable Interrupts */
3926:Drivers/STM32F3xx_HAL_Driver/Src/stm32f3xx_hal_i2c.c ****     I2C_Disable_IRQ(hi2c, I2C_XFER_RX_IT);
3927:Drivers/STM32F3xx_HAL_Driver/Src/stm32f3xx_hal_i2c.c **** 
3928:Drivers/STM32F3xx_HAL_Driver/Src/stm32f3xx_hal_i2c.c ****     /* Process Unlocked */
3929:Drivers/STM32F3xx_HAL_Driver/Src/stm32f3xx_hal_i2c.c ****     __HAL_UNLOCK(hi2c);
3930:Drivers/STM32F3xx_HAL_Driver/Src/stm32f3xx_hal_i2c.c **** 
3931:Drivers/STM32F3xx_HAL_Driver/Src/stm32f3xx_hal_i2c.c ****     /* Call the Rx complete callback to inform upper layer of the end of receive process */
3932:Drivers/STM32F3xx_HAL_Driver/Src/stm32f3xx_hal_i2c.c ****     HAL_I2C_SlaveRxCpltCallback(hi2c);
3933:Drivers/STM32F3xx_HAL_Driver/Src/stm32f3xx_hal_i2c.c ****   }
3934:Drivers/STM32F3xx_HAL_Driver/Src/stm32f3xx_hal_i2c.c **** }
 8428              		.loc 1 3934 0
 8429 0040 17E0     		b	.L426
 8430              	.L424:
3919:Drivers/STM32F3xx_HAL_Driver/Src/stm32f3xx_hal_i2c.c ****   {
 8431              		.loc 1 3919 0
 8432 0042 7B68     		ldr	r3, [r7, #4]
 8433 0044 93F84130 		ldrb	r3, [r3, #65]
 8434 0048 DBB2     		uxtb	r3, r3
 8435 004a 2A2B     		cmp	r3, #42
 8436 004c 11D1     		bne	.L426
3922:Drivers/STM32F3xx_HAL_Driver/Src/stm32f3xx_hal_i2c.c ****     hi2c->PreviousState = I2C_STATE_SLAVE_BUSY_RX;
 8437              		.loc 1 3922 0
 8438 004e 7B68     		ldr	r3, [r7, #4]
 8439 0050 2822     		movs	r2, #40
 8440 0052 83F84120 		strb	r2, [r3, #65]
3923:Drivers/STM32F3xx_HAL_Driver/Src/stm32f3xx_hal_i2c.c **** 
 8441              		.loc 1 3923 0
 8442 0056 7B68     		ldr	r3, [r7, #4]
 8443 0058 2222     		movs	r2, #34
 8444 005a 1A63     		str	r2, [r3, #48]
ARM GAS  /tmp/ccy0jiyr.s 			page 217


3926:Drivers/STM32F3xx_HAL_Driver/Src/stm32f3xx_hal_i2c.c **** 
 8445              		.loc 1 3926 0
 8446 005c 0221     		movs	r1, #2
 8447 005e 7868     		ldr	r0, [r7, #4]
 8448 0060 FFF7FEFF 		bl	I2C_Disable_IRQ
3929:Drivers/STM32F3xx_HAL_Driver/Src/stm32f3xx_hal_i2c.c **** 
 8449              		.loc 1 3929 0
 8450 0064 7B68     		ldr	r3, [r7, #4]
 8451 0066 0022     		movs	r2, #0
 8452 0068 83F84020 		strb	r2, [r3, #64]
3932:Drivers/STM32F3xx_HAL_Driver/Src/stm32f3xx_hal_i2c.c ****   }
 8453              		.loc 1 3932 0
 8454 006c 7868     		ldr	r0, [r7, #4]
 8455 006e FFF7FEFF 		bl	HAL_I2C_SlaveRxCpltCallback
 8456              	.L426:
 8457              		.loc 1 3934 0
 8458 0072 00BF     		nop
 8459 0074 0837     		adds	r7, r7, #8
 8460              	.LCFI283:
 8461              		.cfi_def_cfa_offset 8
 8462 0076 BD46     		mov	sp, r7
 8463              	.LCFI284:
 8464              		.cfi_def_cfa_register 13
 8465              		@ sp needed
 8466 0078 80BD     		pop	{r7, pc}
 8467              		.cfi_endproc
 8468              	.LFE748:
 8470              		.section	.text.I2C_ITMasterCplt,"ax",%progbits
 8471              		.align	1
 8472              		.syntax unified
 8473              		.thumb
 8474              		.thumb_func
 8475              		.fpu fpv4-sp-d16
 8477              	I2C_ITMasterCplt:
 8478              	.LFB749:
3935:Drivers/STM32F3xx_HAL_Driver/Src/stm32f3xx_hal_i2c.c **** 
3936:Drivers/STM32F3xx_HAL_Driver/Src/stm32f3xx_hal_i2c.c **** /**
3937:Drivers/STM32F3xx_HAL_Driver/Src/stm32f3xx_hal_i2c.c ****   * @brief  I2C Master complete process.
3938:Drivers/STM32F3xx_HAL_Driver/Src/stm32f3xx_hal_i2c.c ****   * @param  hi2c I2C handle.
3939:Drivers/STM32F3xx_HAL_Driver/Src/stm32f3xx_hal_i2c.c ****   * @param  ITFlags Interrupt flags to handle.
3940:Drivers/STM32F3xx_HAL_Driver/Src/stm32f3xx_hal_i2c.c ****   * @retval None
3941:Drivers/STM32F3xx_HAL_Driver/Src/stm32f3xx_hal_i2c.c ****   */
3942:Drivers/STM32F3xx_HAL_Driver/Src/stm32f3xx_hal_i2c.c **** static void I2C_ITMasterCplt(I2C_HandleTypeDef *hi2c, uint32_t ITFlags)
3943:Drivers/STM32F3xx_HAL_Driver/Src/stm32f3xx_hal_i2c.c **** {
 8479              		.loc 1 3943 0
 8480              		.cfi_startproc
 8481              		@ args = 0, pretend = 0, frame = 8
 8482              		@ frame_needed = 1, uses_anonymous_args = 0
 8483 0000 80B5     		push	{r7, lr}
 8484              	.LCFI285:
 8485              		.cfi_def_cfa_offset 8
 8486              		.cfi_offset 7, -8
 8487              		.cfi_offset 14, -4
 8488 0002 82B0     		sub	sp, sp, #8
 8489              	.LCFI286:
 8490              		.cfi_def_cfa_offset 16
 8491 0004 00AF     		add	r7, sp, #0
ARM GAS  /tmp/ccy0jiyr.s 			page 218


 8492              	.LCFI287:
 8493              		.cfi_def_cfa_register 7
 8494 0006 7860     		str	r0, [r7, #4]
 8495 0008 3960     		str	r1, [r7]
3944:Drivers/STM32F3xx_HAL_Driver/Src/stm32f3xx_hal_i2c.c ****   /* Clear STOP Flag */
3945:Drivers/STM32F3xx_HAL_Driver/Src/stm32f3xx_hal_i2c.c ****   __HAL_I2C_CLEAR_FLAG(hi2c, I2C_FLAG_STOPF);
 8496              		.loc 1 3945 0
 8497 000a 7B68     		ldr	r3, [r7, #4]
 8498 000c 1B68     		ldr	r3, [r3]
 8499 000e 2022     		movs	r2, #32
 8500 0010 DA61     		str	r2, [r3, #28]
3946:Drivers/STM32F3xx_HAL_Driver/Src/stm32f3xx_hal_i2c.c **** 
3947:Drivers/STM32F3xx_HAL_Driver/Src/stm32f3xx_hal_i2c.c ****   /* Clear Configuration Register 2 */
3948:Drivers/STM32F3xx_HAL_Driver/Src/stm32f3xx_hal_i2c.c ****   I2C_RESET_CR2(hi2c);
 8501              		.loc 1 3948 0
 8502 0012 7B68     		ldr	r3, [r7, #4]
 8503 0014 1B68     		ldr	r3, [r3]
 8504 0016 5968     		ldr	r1, [r3, #4]
 8505 0018 7B68     		ldr	r3, [r7, #4]
 8506 001a 1A68     		ldr	r2, [r3]
 8507 001c 424B     		ldr	r3, .L437
 8508 001e 0B40     		ands	r3, r3, r1
 8509 0020 5360     		str	r3, [r2, #4]
3949:Drivers/STM32F3xx_HAL_Driver/Src/stm32f3xx_hal_i2c.c **** 
3950:Drivers/STM32F3xx_HAL_Driver/Src/stm32f3xx_hal_i2c.c ****   /* Reset handle parameters */
3951:Drivers/STM32F3xx_HAL_Driver/Src/stm32f3xx_hal_i2c.c ****   hi2c->PreviousState = I2C_STATE_NONE;
 8510              		.loc 1 3951 0
 8511 0022 7B68     		ldr	r3, [r7, #4]
 8512 0024 0022     		movs	r2, #0
 8513 0026 1A63     		str	r2, [r3, #48]
3952:Drivers/STM32F3xx_HAL_Driver/Src/stm32f3xx_hal_i2c.c ****   hi2c->XferISR       = NULL;
 8514              		.loc 1 3952 0
 8515 0028 7B68     		ldr	r3, [r7, #4]
 8516 002a 0022     		movs	r2, #0
 8517 002c 5A63     		str	r2, [r3, #52]
3953:Drivers/STM32F3xx_HAL_Driver/Src/stm32f3xx_hal_i2c.c ****   hi2c->XferOptions   = I2C_NO_OPTION_FRAME;
 8518              		.loc 1 3953 0
 8519 002e 7B68     		ldr	r3, [r7, #4]
 8520 0030 3E4A     		ldr	r2, .L437+4
 8521 0032 DA62     		str	r2, [r3, #44]
3954:Drivers/STM32F3xx_HAL_Driver/Src/stm32f3xx_hal_i2c.c **** 
3955:Drivers/STM32F3xx_HAL_Driver/Src/stm32f3xx_hal_i2c.c ****   if ((ITFlags & I2C_FLAG_AF) != RESET)
 8522              		.loc 1 3955 0
 8523 0034 3B68     		ldr	r3, [r7]
 8524 0036 03F01003 		and	r3, r3, #16
 8525 003a 002B     		cmp	r3, #0
 8526 003c 09D0     		beq	.L428
3956:Drivers/STM32F3xx_HAL_Driver/Src/stm32f3xx_hal_i2c.c ****   {
3957:Drivers/STM32F3xx_HAL_Driver/Src/stm32f3xx_hal_i2c.c ****     /* Clear NACK Flag */
3958:Drivers/STM32F3xx_HAL_Driver/Src/stm32f3xx_hal_i2c.c ****     __HAL_I2C_CLEAR_FLAG(hi2c, I2C_FLAG_AF);
 8527              		.loc 1 3958 0
 8528 003e 7B68     		ldr	r3, [r7, #4]
 8529 0040 1B68     		ldr	r3, [r3]
 8530 0042 1022     		movs	r2, #16
 8531 0044 DA61     		str	r2, [r3, #28]
3959:Drivers/STM32F3xx_HAL_Driver/Src/stm32f3xx_hal_i2c.c **** 
3960:Drivers/STM32F3xx_HAL_Driver/Src/stm32f3xx_hal_i2c.c ****     /* Set acknowledge error code */
ARM GAS  /tmp/ccy0jiyr.s 			page 219


3961:Drivers/STM32F3xx_HAL_Driver/Src/stm32f3xx_hal_i2c.c ****     hi2c->ErrorCode |= HAL_I2C_ERROR_AF;
 8532              		.loc 1 3961 0
 8533 0046 7B68     		ldr	r3, [r7, #4]
 8534 0048 5B6C     		ldr	r3, [r3, #68]
 8535 004a 43F00402 		orr	r2, r3, #4
 8536 004e 7B68     		ldr	r3, [r7, #4]
 8537 0050 5A64     		str	r2, [r3, #68]
 8538              	.L428:
3962:Drivers/STM32F3xx_HAL_Driver/Src/stm32f3xx_hal_i2c.c ****   }
3963:Drivers/STM32F3xx_HAL_Driver/Src/stm32f3xx_hal_i2c.c **** 
3964:Drivers/STM32F3xx_HAL_Driver/Src/stm32f3xx_hal_i2c.c ****   /* Flush TX register */
3965:Drivers/STM32F3xx_HAL_Driver/Src/stm32f3xx_hal_i2c.c ****   I2C_Flush_TXDR(hi2c);
 8539              		.loc 1 3965 0
 8540 0052 7868     		ldr	r0, [r7, #4]
 8541 0054 FFF7FEFF 		bl	I2C_Flush_TXDR
3966:Drivers/STM32F3xx_HAL_Driver/Src/stm32f3xx_hal_i2c.c **** 
3967:Drivers/STM32F3xx_HAL_Driver/Src/stm32f3xx_hal_i2c.c ****   /* Disable Interrupts */
3968:Drivers/STM32F3xx_HAL_Driver/Src/stm32f3xx_hal_i2c.c ****   I2C_Disable_IRQ(hi2c, I2C_XFER_TX_IT | I2C_XFER_RX_IT);
 8542              		.loc 1 3968 0
 8543 0058 0321     		movs	r1, #3
 8544 005a 7868     		ldr	r0, [r7, #4]
 8545 005c FFF7FEFF 		bl	I2C_Disable_IRQ
3969:Drivers/STM32F3xx_HAL_Driver/Src/stm32f3xx_hal_i2c.c **** 
3970:Drivers/STM32F3xx_HAL_Driver/Src/stm32f3xx_hal_i2c.c ****   /* Call the corresponding callback to inform upper layer of End of Transfer */
3971:Drivers/STM32F3xx_HAL_Driver/Src/stm32f3xx_hal_i2c.c ****   if ((hi2c->ErrorCode != HAL_I2C_ERROR_NONE) || (hi2c->State == HAL_I2C_STATE_ABORT))
 8546              		.loc 1 3971 0
 8547 0060 7B68     		ldr	r3, [r7, #4]
 8548 0062 5B6C     		ldr	r3, [r3, #68]
 8549 0064 002B     		cmp	r3, #0
 8550 0066 05D1     		bne	.L429
 8551              		.loc 1 3971 0 is_stmt 0 discriminator 1
 8552 0068 7B68     		ldr	r3, [r7, #4]
 8553 006a 93F84130 		ldrb	r3, [r3, #65]
 8554 006e DBB2     		uxtb	r3, r3
 8555 0070 602B     		cmp	r3, #96
 8556 0072 06D1     		bne	.L430
 8557              	.L429:
3972:Drivers/STM32F3xx_HAL_Driver/Src/stm32f3xx_hal_i2c.c ****   {
3973:Drivers/STM32F3xx_HAL_Driver/Src/stm32f3xx_hal_i2c.c ****     /* Call the corresponding callback to inform upper layer of End of Transfer */
3974:Drivers/STM32F3xx_HAL_Driver/Src/stm32f3xx_hal_i2c.c ****     I2C_ITError(hi2c, hi2c->ErrorCode);
 8558              		.loc 1 3974 0 is_stmt 1
 8559 0074 7B68     		ldr	r3, [r7, #4]
 8560 0076 5B6C     		ldr	r3, [r3, #68]
 8561 0078 1946     		mov	r1, r3
 8562 007a 7868     		ldr	r0, [r7, #4]
 8563 007c FFF7FEFF 		bl	I2C_ITError
3975:Drivers/STM32F3xx_HAL_Driver/Src/stm32f3xx_hal_i2c.c ****   }
3976:Drivers/STM32F3xx_HAL_Driver/Src/stm32f3xx_hal_i2c.c ****   /* hi2c->State == HAL_I2C_STATE_BUSY_TX */
3977:Drivers/STM32F3xx_HAL_Driver/Src/stm32f3xx_hal_i2c.c ****   else if (hi2c->State == HAL_I2C_STATE_BUSY_TX)
3978:Drivers/STM32F3xx_HAL_Driver/Src/stm32f3xx_hal_i2c.c ****   {
3979:Drivers/STM32F3xx_HAL_Driver/Src/stm32f3xx_hal_i2c.c ****     hi2c->State = HAL_I2C_STATE_READY;
3980:Drivers/STM32F3xx_HAL_Driver/Src/stm32f3xx_hal_i2c.c **** 
3981:Drivers/STM32F3xx_HAL_Driver/Src/stm32f3xx_hal_i2c.c ****     if (hi2c->Mode == HAL_I2C_MODE_MEM)
3982:Drivers/STM32F3xx_HAL_Driver/Src/stm32f3xx_hal_i2c.c ****     {
3983:Drivers/STM32F3xx_HAL_Driver/Src/stm32f3xx_hal_i2c.c ****       hi2c->Mode = HAL_I2C_MODE_NONE;
3984:Drivers/STM32F3xx_HAL_Driver/Src/stm32f3xx_hal_i2c.c **** 
3985:Drivers/STM32F3xx_HAL_Driver/Src/stm32f3xx_hal_i2c.c ****       /* Process Unlocked */
ARM GAS  /tmp/ccy0jiyr.s 			page 220


3986:Drivers/STM32F3xx_HAL_Driver/Src/stm32f3xx_hal_i2c.c ****       __HAL_UNLOCK(hi2c);
3987:Drivers/STM32F3xx_HAL_Driver/Src/stm32f3xx_hal_i2c.c **** 
3988:Drivers/STM32F3xx_HAL_Driver/Src/stm32f3xx_hal_i2c.c ****       /* Call the corresponding callback to inform upper layer of End of Transfer */
3989:Drivers/STM32F3xx_HAL_Driver/Src/stm32f3xx_hal_i2c.c ****       HAL_I2C_MemTxCpltCallback(hi2c);
3990:Drivers/STM32F3xx_HAL_Driver/Src/stm32f3xx_hal_i2c.c ****     }
3991:Drivers/STM32F3xx_HAL_Driver/Src/stm32f3xx_hal_i2c.c ****     else
3992:Drivers/STM32F3xx_HAL_Driver/Src/stm32f3xx_hal_i2c.c ****     {
3993:Drivers/STM32F3xx_HAL_Driver/Src/stm32f3xx_hal_i2c.c ****       hi2c->Mode = HAL_I2C_MODE_NONE;
3994:Drivers/STM32F3xx_HAL_Driver/Src/stm32f3xx_hal_i2c.c **** 
3995:Drivers/STM32F3xx_HAL_Driver/Src/stm32f3xx_hal_i2c.c ****       /* Process Unlocked */
3996:Drivers/STM32F3xx_HAL_Driver/Src/stm32f3xx_hal_i2c.c ****       __HAL_UNLOCK(hi2c);
3997:Drivers/STM32F3xx_HAL_Driver/Src/stm32f3xx_hal_i2c.c **** 
3998:Drivers/STM32F3xx_HAL_Driver/Src/stm32f3xx_hal_i2c.c ****       /* Call the corresponding callback to inform upper layer of End of Transfer */
3999:Drivers/STM32F3xx_HAL_Driver/Src/stm32f3xx_hal_i2c.c ****       HAL_I2C_MasterTxCpltCallback(hi2c);
4000:Drivers/STM32F3xx_HAL_Driver/Src/stm32f3xx_hal_i2c.c ****     }
4001:Drivers/STM32F3xx_HAL_Driver/Src/stm32f3xx_hal_i2c.c ****   }
4002:Drivers/STM32F3xx_HAL_Driver/Src/stm32f3xx_hal_i2c.c ****   /* hi2c->State == HAL_I2C_STATE_BUSY_RX */
4003:Drivers/STM32F3xx_HAL_Driver/Src/stm32f3xx_hal_i2c.c ****   else if (hi2c->State == HAL_I2C_STATE_BUSY_RX)
4004:Drivers/STM32F3xx_HAL_Driver/Src/stm32f3xx_hal_i2c.c ****   {
4005:Drivers/STM32F3xx_HAL_Driver/Src/stm32f3xx_hal_i2c.c ****     hi2c->State = HAL_I2C_STATE_READY;
4006:Drivers/STM32F3xx_HAL_Driver/Src/stm32f3xx_hal_i2c.c **** 
4007:Drivers/STM32F3xx_HAL_Driver/Src/stm32f3xx_hal_i2c.c ****     if (hi2c->Mode == HAL_I2C_MODE_MEM)
4008:Drivers/STM32F3xx_HAL_Driver/Src/stm32f3xx_hal_i2c.c ****     {
4009:Drivers/STM32F3xx_HAL_Driver/Src/stm32f3xx_hal_i2c.c ****       hi2c->Mode = HAL_I2C_MODE_NONE;
4010:Drivers/STM32F3xx_HAL_Driver/Src/stm32f3xx_hal_i2c.c **** 
4011:Drivers/STM32F3xx_HAL_Driver/Src/stm32f3xx_hal_i2c.c ****       /* Process Unlocked */
4012:Drivers/STM32F3xx_HAL_Driver/Src/stm32f3xx_hal_i2c.c ****       __HAL_UNLOCK(hi2c);
4013:Drivers/STM32F3xx_HAL_Driver/Src/stm32f3xx_hal_i2c.c **** 
4014:Drivers/STM32F3xx_HAL_Driver/Src/stm32f3xx_hal_i2c.c ****       HAL_I2C_MemRxCpltCallback(hi2c);
4015:Drivers/STM32F3xx_HAL_Driver/Src/stm32f3xx_hal_i2c.c ****     }
4016:Drivers/STM32F3xx_HAL_Driver/Src/stm32f3xx_hal_i2c.c ****     else
4017:Drivers/STM32F3xx_HAL_Driver/Src/stm32f3xx_hal_i2c.c ****     {
4018:Drivers/STM32F3xx_HAL_Driver/Src/stm32f3xx_hal_i2c.c ****       hi2c->Mode = HAL_I2C_MODE_NONE;
4019:Drivers/STM32F3xx_HAL_Driver/Src/stm32f3xx_hal_i2c.c **** 
4020:Drivers/STM32F3xx_HAL_Driver/Src/stm32f3xx_hal_i2c.c ****       /* Process Unlocked */
4021:Drivers/STM32F3xx_HAL_Driver/Src/stm32f3xx_hal_i2c.c ****       __HAL_UNLOCK(hi2c);
4022:Drivers/STM32F3xx_HAL_Driver/Src/stm32f3xx_hal_i2c.c **** 
4023:Drivers/STM32F3xx_HAL_Driver/Src/stm32f3xx_hal_i2c.c ****       HAL_I2C_MasterRxCpltCallback(hi2c);
4024:Drivers/STM32F3xx_HAL_Driver/Src/stm32f3xx_hal_i2c.c ****     }
4025:Drivers/STM32F3xx_HAL_Driver/Src/stm32f3xx_hal_i2c.c ****   }
4026:Drivers/STM32F3xx_HAL_Driver/Src/stm32f3xx_hal_i2c.c **** }
 8564              		.loc 1 4026 0
 8565 0080 4EE0     		b	.L436
 8566              	.L430:
3977:Drivers/STM32F3xx_HAL_Driver/Src/stm32f3xx_hal_i2c.c ****   {
 8567              		.loc 1 3977 0
 8568 0082 7B68     		ldr	r3, [r7, #4]
 8569 0084 93F84130 		ldrb	r3, [r3, #65]
 8570 0088 DBB2     		uxtb	r3, r3
 8571 008a 212B     		cmp	r3, #33
 8572 008c 21D1     		bne	.L432
3979:Drivers/STM32F3xx_HAL_Driver/Src/stm32f3xx_hal_i2c.c **** 
 8573              		.loc 1 3979 0
 8574 008e 7B68     		ldr	r3, [r7, #4]
 8575 0090 2022     		movs	r2, #32
 8576 0092 83F84120 		strb	r2, [r3, #65]
3981:Drivers/STM32F3xx_HAL_Driver/Src/stm32f3xx_hal_i2c.c ****     {
ARM GAS  /tmp/ccy0jiyr.s 			page 221


 8577              		.loc 1 3981 0
 8578 0096 7B68     		ldr	r3, [r7, #4]
 8579 0098 93F84230 		ldrb	r3, [r3, #66]
 8580 009c DBB2     		uxtb	r3, r3
 8581 009e 402B     		cmp	r3, #64
 8582 00a0 0BD1     		bne	.L433
3983:Drivers/STM32F3xx_HAL_Driver/Src/stm32f3xx_hal_i2c.c **** 
 8583              		.loc 1 3983 0
 8584 00a2 7B68     		ldr	r3, [r7, #4]
 8585 00a4 0022     		movs	r2, #0
 8586 00a6 83F84220 		strb	r2, [r3, #66]
3986:Drivers/STM32F3xx_HAL_Driver/Src/stm32f3xx_hal_i2c.c **** 
 8587              		.loc 1 3986 0
 8588 00aa 7B68     		ldr	r3, [r7, #4]
 8589 00ac 0022     		movs	r2, #0
 8590 00ae 83F84020 		strb	r2, [r3, #64]
3989:Drivers/STM32F3xx_HAL_Driver/Src/stm32f3xx_hal_i2c.c ****     }
 8591              		.loc 1 3989 0
 8592 00b2 7868     		ldr	r0, [r7, #4]
 8593 00b4 FFF7FEFF 		bl	HAL_I2C_MemTxCpltCallback
 8594              		.loc 1 4026 0
 8595 00b8 32E0     		b	.L436
 8596              	.L433:
3993:Drivers/STM32F3xx_HAL_Driver/Src/stm32f3xx_hal_i2c.c **** 
 8597              		.loc 1 3993 0
 8598 00ba 7B68     		ldr	r3, [r7, #4]
 8599 00bc 0022     		movs	r2, #0
 8600 00be 83F84220 		strb	r2, [r3, #66]
3996:Drivers/STM32F3xx_HAL_Driver/Src/stm32f3xx_hal_i2c.c **** 
 8601              		.loc 1 3996 0
 8602 00c2 7B68     		ldr	r3, [r7, #4]
 8603 00c4 0022     		movs	r2, #0
 8604 00c6 83F84020 		strb	r2, [r3, #64]
3999:Drivers/STM32F3xx_HAL_Driver/Src/stm32f3xx_hal_i2c.c ****     }
 8605              		.loc 1 3999 0
 8606 00ca 7868     		ldr	r0, [r7, #4]
 8607 00cc FFF7FEFF 		bl	HAL_I2C_MasterTxCpltCallback
 8608              		.loc 1 4026 0
 8609 00d0 26E0     		b	.L436
 8610              	.L432:
4003:Drivers/STM32F3xx_HAL_Driver/Src/stm32f3xx_hal_i2c.c ****   {
 8611              		.loc 1 4003 0
 8612 00d2 7B68     		ldr	r3, [r7, #4]
 8613 00d4 93F84130 		ldrb	r3, [r3, #65]
 8614 00d8 DBB2     		uxtb	r3, r3
 8615 00da 222B     		cmp	r3, #34
 8616 00dc 20D1     		bne	.L436
4005:Drivers/STM32F3xx_HAL_Driver/Src/stm32f3xx_hal_i2c.c **** 
 8617              		.loc 1 4005 0
 8618 00de 7B68     		ldr	r3, [r7, #4]
 8619 00e0 2022     		movs	r2, #32
 8620 00e2 83F84120 		strb	r2, [r3, #65]
4007:Drivers/STM32F3xx_HAL_Driver/Src/stm32f3xx_hal_i2c.c ****     {
 8621              		.loc 1 4007 0
 8622 00e6 7B68     		ldr	r3, [r7, #4]
 8623 00e8 93F84230 		ldrb	r3, [r3, #66]
 8624 00ec DBB2     		uxtb	r3, r3
ARM GAS  /tmp/ccy0jiyr.s 			page 222


 8625 00ee 402B     		cmp	r3, #64
 8626 00f0 0BD1     		bne	.L435
4009:Drivers/STM32F3xx_HAL_Driver/Src/stm32f3xx_hal_i2c.c **** 
 8627              		.loc 1 4009 0
 8628 00f2 7B68     		ldr	r3, [r7, #4]
 8629 00f4 0022     		movs	r2, #0
 8630 00f6 83F84220 		strb	r2, [r3, #66]
4012:Drivers/STM32F3xx_HAL_Driver/Src/stm32f3xx_hal_i2c.c **** 
 8631              		.loc 1 4012 0
 8632 00fa 7B68     		ldr	r3, [r7, #4]
 8633 00fc 0022     		movs	r2, #0
 8634 00fe 83F84020 		strb	r2, [r3, #64]
4014:Drivers/STM32F3xx_HAL_Driver/Src/stm32f3xx_hal_i2c.c ****     }
 8635              		.loc 1 4014 0
 8636 0102 7868     		ldr	r0, [r7, #4]
 8637 0104 FFF7FEFF 		bl	HAL_I2C_MemRxCpltCallback
 8638              		.loc 1 4026 0
 8639 0108 0AE0     		b	.L436
 8640              	.L435:
4018:Drivers/STM32F3xx_HAL_Driver/Src/stm32f3xx_hal_i2c.c **** 
 8641              		.loc 1 4018 0
 8642 010a 7B68     		ldr	r3, [r7, #4]
 8643 010c 0022     		movs	r2, #0
 8644 010e 83F84220 		strb	r2, [r3, #66]
4021:Drivers/STM32F3xx_HAL_Driver/Src/stm32f3xx_hal_i2c.c **** 
 8645              		.loc 1 4021 0
 8646 0112 7B68     		ldr	r3, [r7, #4]
 8647 0114 0022     		movs	r2, #0
 8648 0116 83F84020 		strb	r2, [r3, #64]
4023:Drivers/STM32F3xx_HAL_Driver/Src/stm32f3xx_hal_i2c.c ****     }
 8649              		.loc 1 4023 0
 8650 011a 7868     		ldr	r0, [r7, #4]
 8651 011c FFF7FEFF 		bl	HAL_I2C_MasterRxCpltCallback
 8652              	.L436:
 8653              		.loc 1 4026 0
 8654 0120 00BF     		nop
 8655 0122 0837     		adds	r7, r7, #8
 8656              	.LCFI288:
 8657              		.cfi_def_cfa_offset 8
 8658 0124 BD46     		mov	sp, r7
 8659              	.LCFI289:
 8660              		.cfi_def_cfa_register 13
 8661              		@ sp needed
 8662 0126 80BD     		pop	{r7, pc}
 8663              	.L438:
 8664              		.align	2
 8665              	.L437:
 8666 0128 00E800FE 		.word	-33495040
 8667 012c 0000FFFF 		.word	-65536
 8668              		.cfi_endproc
 8669              	.LFE749:
 8671              		.section	.text.I2C_ITSlaveCplt,"ax",%progbits
 8672              		.align	1
 8673              		.syntax unified
 8674              		.thumb
 8675              		.thumb_func
 8676              		.fpu fpv4-sp-d16
ARM GAS  /tmp/ccy0jiyr.s 			page 223


 8678              	I2C_ITSlaveCplt:
 8679              	.LFB750:
4027:Drivers/STM32F3xx_HAL_Driver/Src/stm32f3xx_hal_i2c.c **** 
4028:Drivers/STM32F3xx_HAL_Driver/Src/stm32f3xx_hal_i2c.c **** /**
4029:Drivers/STM32F3xx_HAL_Driver/Src/stm32f3xx_hal_i2c.c ****   * @brief  I2C Slave complete process.
4030:Drivers/STM32F3xx_HAL_Driver/Src/stm32f3xx_hal_i2c.c ****   * @param  hi2c I2C handle.
4031:Drivers/STM32F3xx_HAL_Driver/Src/stm32f3xx_hal_i2c.c ****   * @param  ITFlags Interrupt flags to handle.
4032:Drivers/STM32F3xx_HAL_Driver/Src/stm32f3xx_hal_i2c.c ****   * @retval None
4033:Drivers/STM32F3xx_HAL_Driver/Src/stm32f3xx_hal_i2c.c ****   */
4034:Drivers/STM32F3xx_HAL_Driver/Src/stm32f3xx_hal_i2c.c **** static void I2C_ITSlaveCplt(I2C_HandleTypeDef *hi2c, uint32_t ITFlags)
4035:Drivers/STM32F3xx_HAL_Driver/Src/stm32f3xx_hal_i2c.c **** {
 8680              		.loc 1 4035 0
 8681              		.cfi_startproc
 8682              		@ args = 0, pretend = 0, frame = 8
 8683              		@ frame_needed = 1, uses_anonymous_args = 0
 8684 0000 80B5     		push	{r7, lr}
 8685              	.LCFI290:
 8686              		.cfi_def_cfa_offset 8
 8687              		.cfi_offset 7, -8
 8688              		.cfi_offset 14, -4
 8689 0002 82B0     		sub	sp, sp, #8
 8690              	.LCFI291:
 8691              		.cfi_def_cfa_offset 16
 8692 0004 00AF     		add	r7, sp, #0
 8693              	.LCFI292:
 8694              		.cfi_def_cfa_register 7
 8695 0006 7860     		str	r0, [r7, #4]
 8696 0008 3960     		str	r1, [r7]
4036:Drivers/STM32F3xx_HAL_Driver/Src/stm32f3xx_hal_i2c.c ****   /* Clear STOP Flag */
4037:Drivers/STM32F3xx_HAL_Driver/Src/stm32f3xx_hal_i2c.c ****   __HAL_I2C_CLEAR_FLAG(hi2c, I2C_FLAG_STOPF);
 8697              		.loc 1 4037 0
 8698 000a 7B68     		ldr	r3, [r7, #4]
 8699 000c 1B68     		ldr	r3, [r3]
 8700 000e 2022     		movs	r2, #32
 8701 0010 DA61     		str	r2, [r3, #28]
4038:Drivers/STM32F3xx_HAL_Driver/Src/stm32f3xx_hal_i2c.c **** 
4039:Drivers/STM32F3xx_HAL_Driver/Src/stm32f3xx_hal_i2c.c ****   /* Clear ADDR flag */
4040:Drivers/STM32F3xx_HAL_Driver/Src/stm32f3xx_hal_i2c.c ****   __HAL_I2C_CLEAR_FLAG(hi2c, I2C_FLAG_ADDR);
 8702              		.loc 1 4040 0
 8703 0012 7B68     		ldr	r3, [r7, #4]
 8704 0014 1B68     		ldr	r3, [r3]
 8705 0016 0822     		movs	r2, #8
 8706 0018 DA61     		str	r2, [r3, #28]
4041:Drivers/STM32F3xx_HAL_Driver/Src/stm32f3xx_hal_i2c.c **** 
4042:Drivers/STM32F3xx_HAL_Driver/Src/stm32f3xx_hal_i2c.c ****   /* Disable all interrupts */
4043:Drivers/STM32F3xx_HAL_Driver/Src/stm32f3xx_hal_i2c.c ****   I2C_Disable_IRQ(hi2c, I2C_XFER_LISTEN_IT | I2C_XFER_TX_IT | I2C_XFER_RX_IT);
 8707              		.loc 1 4043 0
 8708 001a 0721     		movs	r1, #7
 8709 001c 7868     		ldr	r0, [r7, #4]
 8710 001e FFF7FEFF 		bl	I2C_Disable_IRQ
4044:Drivers/STM32F3xx_HAL_Driver/Src/stm32f3xx_hal_i2c.c **** 
4045:Drivers/STM32F3xx_HAL_Driver/Src/stm32f3xx_hal_i2c.c ****   /* Disable Address Acknowledge */
4046:Drivers/STM32F3xx_HAL_Driver/Src/stm32f3xx_hal_i2c.c ****   hi2c->Instance->CR2 |= I2C_CR2_NACK;
 8711              		.loc 1 4046 0
 8712 0022 7B68     		ldr	r3, [r7, #4]
 8713 0024 1B68     		ldr	r3, [r3]
 8714 0026 5A68     		ldr	r2, [r3, #4]
ARM GAS  /tmp/ccy0jiyr.s 			page 224


 8715 0028 7B68     		ldr	r3, [r7, #4]
 8716 002a 1B68     		ldr	r3, [r3]
 8717 002c 42F40042 		orr	r2, r2, #32768
 8718 0030 5A60     		str	r2, [r3, #4]
4047:Drivers/STM32F3xx_HAL_Driver/Src/stm32f3xx_hal_i2c.c **** 
4048:Drivers/STM32F3xx_HAL_Driver/Src/stm32f3xx_hal_i2c.c ****   /* Clear Configuration Register 2 */
4049:Drivers/STM32F3xx_HAL_Driver/Src/stm32f3xx_hal_i2c.c ****   I2C_RESET_CR2(hi2c);
 8719              		.loc 1 4049 0
 8720 0032 7B68     		ldr	r3, [r7, #4]
 8721 0034 1B68     		ldr	r3, [r3]
 8722 0036 5968     		ldr	r1, [r3, #4]
 8723 0038 7B68     		ldr	r3, [r7, #4]
 8724 003a 1A68     		ldr	r2, [r3]
 8725 003c 564B     		ldr	r3, .L452
 8726 003e 0B40     		ands	r3, r3, r1
 8727 0040 5360     		str	r3, [r2, #4]
4050:Drivers/STM32F3xx_HAL_Driver/Src/stm32f3xx_hal_i2c.c **** 
4051:Drivers/STM32F3xx_HAL_Driver/Src/stm32f3xx_hal_i2c.c ****   /* Flush TX register */
4052:Drivers/STM32F3xx_HAL_Driver/Src/stm32f3xx_hal_i2c.c ****   I2C_Flush_TXDR(hi2c);
 8728              		.loc 1 4052 0
 8729 0042 7868     		ldr	r0, [r7, #4]
 8730 0044 FFF7FEFF 		bl	I2C_Flush_TXDR
4053:Drivers/STM32F3xx_HAL_Driver/Src/stm32f3xx_hal_i2c.c **** 
4054:Drivers/STM32F3xx_HAL_Driver/Src/stm32f3xx_hal_i2c.c ****   /* If a DMA is ongoing, Update handle size context */
4055:Drivers/STM32F3xx_HAL_Driver/Src/stm32f3xx_hal_i2c.c ****   if (((hi2c->Instance->CR1 & I2C_CR1_TXDMAEN) == I2C_CR1_TXDMAEN) ||
 8731              		.loc 1 4055 0
 8732 0048 7B68     		ldr	r3, [r7, #4]
 8733 004a 1B68     		ldr	r3, [r3]
 8734 004c 1B68     		ldr	r3, [r3]
 8735 004e 03F48043 		and	r3, r3, #16384
 8736 0052 B3F5804F 		cmp	r3, #16384
 8737 0056 07D0     		beq	.L440
4056:Drivers/STM32F3xx_HAL_Driver/Src/stm32f3xx_hal_i2c.c ****       ((hi2c->Instance->CR1 & I2C_CR1_RXDMAEN) == I2C_CR1_RXDMAEN))
 8738              		.loc 1 4056 0 discriminator 1
 8739 0058 7B68     		ldr	r3, [r7, #4]
 8740 005a 1B68     		ldr	r3, [r3]
 8741 005c 1B68     		ldr	r3, [r3]
 8742 005e 03F40043 		and	r3, r3, #32768
4055:Drivers/STM32F3xx_HAL_Driver/Src/stm32f3xx_hal_i2c.c ****       ((hi2c->Instance->CR1 & I2C_CR1_RXDMAEN) == I2C_CR1_RXDMAEN))
 8743              		.loc 1 4055 0 discriminator 1
 8744 0062 B3F5004F 		cmp	r3, #32768
 8745 0066 12D1     		bne	.L441
 8746              	.L440:
4057:Drivers/STM32F3xx_HAL_Driver/Src/stm32f3xx_hal_i2c.c ****   {
4058:Drivers/STM32F3xx_HAL_Driver/Src/stm32f3xx_hal_i2c.c ****     hi2c->XferCount = I2C_GET_DMA_REMAIN_DATA(hi2c);
 8747              		.loc 1 4058 0
 8748 0068 7B68     		ldr	r3, [r7, #4]
 8749 006a 93F84130 		ldrb	r3, [r3, #65]
 8750 006e DBB2     		uxtb	r3, r3
 8751 0070 212B     		cmp	r3, #33
 8752 0072 05D1     		bne	.L442
 8753              		.loc 1 4058 0 is_stmt 0 discriminator 1
 8754 0074 7B68     		ldr	r3, [r7, #4]
 8755 0076 9B6B     		ldr	r3, [r3, #56]
 8756 0078 1B68     		ldr	r3, [r3]
 8757 007a 5B68     		ldr	r3, [r3, #4]
 8758 007c 9BB2     		uxth	r3, r3
ARM GAS  /tmp/ccy0jiyr.s 			page 225


 8759 007e 04E0     		b	.L443
 8760              	.L442:
 8761              		.loc 1 4058 0 discriminator 2
 8762 0080 7B68     		ldr	r3, [r7, #4]
 8763 0082 DB6B     		ldr	r3, [r3, #60]
 8764 0084 1B68     		ldr	r3, [r3]
 8765 0086 5B68     		ldr	r3, [r3, #4]
 8766 0088 9BB2     		uxth	r3, r3
 8767              	.L443:
 8768              		.loc 1 4058 0 discriminator 4
 8769 008a 7A68     		ldr	r2, [r7, #4]
 8770 008c 5385     		strh	r3, [r2, #42]	@ movhi
 8771              	.L441:
4059:Drivers/STM32F3xx_HAL_Driver/Src/stm32f3xx_hal_i2c.c ****   }
4060:Drivers/STM32F3xx_HAL_Driver/Src/stm32f3xx_hal_i2c.c **** 
4061:Drivers/STM32F3xx_HAL_Driver/Src/stm32f3xx_hal_i2c.c ****   /* All data are not transferred, so set error code accordingly */
4062:Drivers/STM32F3xx_HAL_Driver/Src/stm32f3xx_hal_i2c.c ****   if (hi2c->XferCount != 0U)
 8772              		.loc 1 4062 0 is_stmt 1
 8773 008e 7B68     		ldr	r3, [r7, #4]
 8774 0090 5B8D     		ldrh	r3, [r3, #42]	@ movhi
 8775 0092 9BB2     		uxth	r3, r3
 8776 0094 002B     		cmp	r3, #0
 8777 0096 05D0     		beq	.L444
4063:Drivers/STM32F3xx_HAL_Driver/Src/stm32f3xx_hal_i2c.c ****   {
4064:Drivers/STM32F3xx_HAL_Driver/Src/stm32f3xx_hal_i2c.c ****     /* Set ErrorCode corresponding to a Non-Acknowledge */
4065:Drivers/STM32F3xx_HAL_Driver/Src/stm32f3xx_hal_i2c.c ****     hi2c->ErrorCode |= HAL_I2C_ERROR_AF;
 8778              		.loc 1 4065 0
 8779 0098 7B68     		ldr	r3, [r7, #4]
 8780 009a 5B6C     		ldr	r3, [r3, #68]
 8781 009c 43F00402 		orr	r2, r3, #4
 8782 00a0 7B68     		ldr	r3, [r7, #4]
 8783 00a2 5A64     		str	r2, [r3, #68]
 8784              	.L444:
4066:Drivers/STM32F3xx_HAL_Driver/Src/stm32f3xx_hal_i2c.c ****   }
4067:Drivers/STM32F3xx_HAL_Driver/Src/stm32f3xx_hal_i2c.c **** 
4068:Drivers/STM32F3xx_HAL_Driver/Src/stm32f3xx_hal_i2c.c ****   /* Store Last receive data if any */
4069:Drivers/STM32F3xx_HAL_Driver/Src/stm32f3xx_hal_i2c.c ****   if (((ITFlags & I2C_FLAG_RXNE) != RESET))
 8785              		.loc 1 4069 0
 8786 00a4 3B68     		ldr	r3, [r7]
 8787 00a6 03F00403 		and	r3, r3, #4
 8788 00aa 002B     		cmp	r3, #0
 8789 00ac 20D0     		beq	.L445
4070:Drivers/STM32F3xx_HAL_Driver/Src/stm32f3xx_hal_i2c.c ****   {
4071:Drivers/STM32F3xx_HAL_Driver/Src/stm32f3xx_hal_i2c.c ****     /* Read data from RXDR */
4072:Drivers/STM32F3xx_HAL_Driver/Src/stm32f3xx_hal_i2c.c ****     (*hi2c->pBuffPtr++) = hi2c->Instance->RXDR;
 8790              		.loc 1 4072 0
 8791 00ae 7B68     		ldr	r3, [r7, #4]
 8792 00b0 1B68     		ldr	r3, [r3]
 8793 00b2 586A     		ldr	r0, [r3, #36]
 8794 00b4 7B68     		ldr	r3, [r7, #4]
 8795 00b6 5B6A     		ldr	r3, [r3, #36]
 8796 00b8 591C     		adds	r1, r3, #1
 8797 00ba 7A68     		ldr	r2, [r7, #4]
 8798 00bc 5162     		str	r1, [r2, #36]
 8799 00be C2B2     		uxtb	r2, r0
 8800 00c0 1A70     		strb	r2, [r3]
4073:Drivers/STM32F3xx_HAL_Driver/Src/stm32f3xx_hal_i2c.c **** 
ARM GAS  /tmp/ccy0jiyr.s 			page 226


4074:Drivers/STM32F3xx_HAL_Driver/Src/stm32f3xx_hal_i2c.c ****     if ((hi2c->XferSize > 0U))
 8801              		.loc 1 4074 0
 8802 00c2 7B68     		ldr	r3, [r7, #4]
 8803 00c4 1B8D     		ldrh	r3, [r3, #40]
 8804 00c6 002B     		cmp	r3, #0
 8805 00c8 12D0     		beq	.L445
4075:Drivers/STM32F3xx_HAL_Driver/Src/stm32f3xx_hal_i2c.c ****     {
4076:Drivers/STM32F3xx_HAL_Driver/Src/stm32f3xx_hal_i2c.c ****       hi2c->XferSize--;
 8806              		.loc 1 4076 0
 8807 00ca 7B68     		ldr	r3, [r7, #4]
 8808 00cc 1B8D     		ldrh	r3, [r3, #40]
 8809 00ce 013B     		subs	r3, r3, #1
 8810 00d0 9AB2     		uxth	r2, r3
 8811 00d2 7B68     		ldr	r3, [r7, #4]
 8812 00d4 1A85     		strh	r2, [r3, #40]	@ movhi
4077:Drivers/STM32F3xx_HAL_Driver/Src/stm32f3xx_hal_i2c.c ****       hi2c->XferCount--;
 8813              		.loc 1 4077 0
 8814 00d6 7B68     		ldr	r3, [r7, #4]
 8815 00d8 5B8D     		ldrh	r3, [r3, #42]	@ movhi
 8816 00da 9BB2     		uxth	r3, r3
 8817 00dc 013B     		subs	r3, r3, #1
 8818 00de 9AB2     		uxth	r2, r3
 8819 00e0 7B68     		ldr	r3, [r7, #4]
 8820 00e2 5A85     		strh	r2, [r3, #42]	@ movhi
4078:Drivers/STM32F3xx_HAL_Driver/Src/stm32f3xx_hal_i2c.c **** 
4079:Drivers/STM32F3xx_HAL_Driver/Src/stm32f3xx_hal_i2c.c ****       /* Set ErrorCode corresponding to a Non-Acknowledge */
4080:Drivers/STM32F3xx_HAL_Driver/Src/stm32f3xx_hal_i2c.c ****       hi2c->ErrorCode |= HAL_I2C_ERROR_AF;
 8821              		.loc 1 4080 0
 8822 00e4 7B68     		ldr	r3, [r7, #4]
 8823 00e6 5B6C     		ldr	r3, [r3, #68]
 8824 00e8 43F00402 		orr	r2, r3, #4
 8825 00ec 7B68     		ldr	r3, [r7, #4]
 8826 00ee 5A64     		str	r2, [r3, #68]
 8827              	.L445:
4081:Drivers/STM32F3xx_HAL_Driver/Src/stm32f3xx_hal_i2c.c ****     }
4082:Drivers/STM32F3xx_HAL_Driver/Src/stm32f3xx_hal_i2c.c ****   }
4083:Drivers/STM32F3xx_HAL_Driver/Src/stm32f3xx_hal_i2c.c **** 
4084:Drivers/STM32F3xx_HAL_Driver/Src/stm32f3xx_hal_i2c.c ****   hi2c->PreviousState = I2C_STATE_NONE;
 8828              		.loc 1 4084 0
 8829 00f0 7B68     		ldr	r3, [r7, #4]
 8830 00f2 0022     		movs	r2, #0
 8831 00f4 1A63     		str	r2, [r3, #48]
4085:Drivers/STM32F3xx_HAL_Driver/Src/stm32f3xx_hal_i2c.c ****   hi2c->Mode = HAL_I2C_MODE_NONE;
 8832              		.loc 1 4085 0
 8833 00f6 7B68     		ldr	r3, [r7, #4]
 8834 00f8 0022     		movs	r2, #0
 8835 00fa 83F84220 		strb	r2, [r3, #66]
4086:Drivers/STM32F3xx_HAL_Driver/Src/stm32f3xx_hal_i2c.c ****   hi2c->XferISR = NULL;
 8836              		.loc 1 4086 0
 8837 00fe 7B68     		ldr	r3, [r7, #4]
 8838 0100 0022     		movs	r2, #0
 8839 0102 5A63     		str	r2, [r3, #52]
4087:Drivers/STM32F3xx_HAL_Driver/Src/stm32f3xx_hal_i2c.c **** 
4088:Drivers/STM32F3xx_HAL_Driver/Src/stm32f3xx_hal_i2c.c ****   if (hi2c->ErrorCode != HAL_I2C_ERROR_NONE)
 8840              		.loc 1 4088 0
 8841 0104 7B68     		ldr	r3, [r7, #4]
 8842 0106 5B6C     		ldr	r3, [r3, #68]
ARM GAS  /tmp/ccy0jiyr.s 			page 227


 8843 0108 002B     		cmp	r3, #0
 8844 010a 10D0     		beq	.L446
4089:Drivers/STM32F3xx_HAL_Driver/Src/stm32f3xx_hal_i2c.c ****   {
4090:Drivers/STM32F3xx_HAL_Driver/Src/stm32f3xx_hal_i2c.c ****     /* Call the corresponding callback to inform upper layer of End of Transfer */
4091:Drivers/STM32F3xx_HAL_Driver/Src/stm32f3xx_hal_i2c.c ****     I2C_ITError(hi2c, hi2c->ErrorCode);
 8845              		.loc 1 4091 0
 8846 010c 7B68     		ldr	r3, [r7, #4]
 8847 010e 5B6C     		ldr	r3, [r3, #68]
 8848 0110 1946     		mov	r1, r3
 8849 0112 7868     		ldr	r0, [r7, #4]
 8850 0114 FFF7FEFF 		bl	I2C_ITError
4092:Drivers/STM32F3xx_HAL_Driver/Src/stm32f3xx_hal_i2c.c **** 
4093:Drivers/STM32F3xx_HAL_Driver/Src/stm32f3xx_hal_i2c.c ****     /* Call the Listen Complete callback, to inform upper layer of the end of Listen usecase */
4094:Drivers/STM32F3xx_HAL_Driver/Src/stm32f3xx_hal_i2c.c ****     if (hi2c->State == HAL_I2C_STATE_LISTEN)
 8851              		.loc 1 4094 0
 8852 0118 7B68     		ldr	r3, [r7, #4]
 8853 011a 93F84130 		ldrb	r3, [r3, #65]
 8854 011e DBB2     		uxtb	r3, r3
 8855 0120 282B     		cmp	r3, #40
 8856 0122 35D1     		bne	.L451
4095:Drivers/STM32F3xx_HAL_Driver/Src/stm32f3xx_hal_i2c.c ****     {
4096:Drivers/STM32F3xx_HAL_Driver/Src/stm32f3xx_hal_i2c.c ****       /* Call I2C Listen complete process */
4097:Drivers/STM32F3xx_HAL_Driver/Src/stm32f3xx_hal_i2c.c ****       I2C_ITListenCplt(hi2c, ITFlags);
 8857              		.loc 1 4097 0
 8858 0124 3968     		ldr	r1, [r7]
 8859 0126 7868     		ldr	r0, [r7, #4]
 8860 0128 FFF7FEFF 		bl	I2C_ITListenCplt
4098:Drivers/STM32F3xx_HAL_Driver/Src/stm32f3xx_hal_i2c.c ****     }
4099:Drivers/STM32F3xx_HAL_Driver/Src/stm32f3xx_hal_i2c.c ****   }
4100:Drivers/STM32F3xx_HAL_Driver/Src/stm32f3xx_hal_i2c.c ****   else if (hi2c->XferOptions != I2C_NO_OPTION_FRAME)
4101:Drivers/STM32F3xx_HAL_Driver/Src/stm32f3xx_hal_i2c.c ****   {
4102:Drivers/STM32F3xx_HAL_Driver/Src/stm32f3xx_hal_i2c.c ****     hi2c->XferOptions = I2C_NO_OPTION_FRAME;
4103:Drivers/STM32F3xx_HAL_Driver/Src/stm32f3xx_hal_i2c.c ****     hi2c->State = HAL_I2C_STATE_READY;
4104:Drivers/STM32F3xx_HAL_Driver/Src/stm32f3xx_hal_i2c.c **** 
4105:Drivers/STM32F3xx_HAL_Driver/Src/stm32f3xx_hal_i2c.c ****     /* Process Unlocked */
4106:Drivers/STM32F3xx_HAL_Driver/Src/stm32f3xx_hal_i2c.c ****     __HAL_UNLOCK(hi2c);
4107:Drivers/STM32F3xx_HAL_Driver/Src/stm32f3xx_hal_i2c.c **** 
4108:Drivers/STM32F3xx_HAL_Driver/Src/stm32f3xx_hal_i2c.c ****     /* Call the Listen Complete callback, to inform upper layer of the end of Listen usecase */
4109:Drivers/STM32F3xx_HAL_Driver/Src/stm32f3xx_hal_i2c.c ****     HAL_I2C_ListenCpltCallback(hi2c);
4110:Drivers/STM32F3xx_HAL_Driver/Src/stm32f3xx_hal_i2c.c ****   }
4111:Drivers/STM32F3xx_HAL_Driver/Src/stm32f3xx_hal_i2c.c ****   /* Call the corresponding callback to inform upper layer of End of Transfer */
4112:Drivers/STM32F3xx_HAL_Driver/Src/stm32f3xx_hal_i2c.c ****   else if (hi2c->State == HAL_I2C_STATE_BUSY_RX)
4113:Drivers/STM32F3xx_HAL_Driver/Src/stm32f3xx_hal_i2c.c ****   {
4114:Drivers/STM32F3xx_HAL_Driver/Src/stm32f3xx_hal_i2c.c ****     hi2c->State = HAL_I2C_STATE_READY;
4115:Drivers/STM32F3xx_HAL_Driver/Src/stm32f3xx_hal_i2c.c **** 
4116:Drivers/STM32F3xx_HAL_Driver/Src/stm32f3xx_hal_i2c.c ****     /* Process Unlocked */
4117:Drivers/STM32F3xx_HAL_Driver/Src/stm32f3xx_hal_i2c.c ****     __HAL_UNLOCK(hi2c);
4118:Drivers/STM32F3xx_HAL_Driver/Src/stm32f3xx_hal_i2c.c **** 
4119:Drivers/STM32F3xx_HAL_Driver/Src/stm32f3xx_hal_i2c.c ****     /* Call the Slave Rx Complete callback */
4120:Drivers/STM32F3xx_HAL_Driver/Src/stm32f3xx_hal_i2c.c ****     HAL_I2C_SlaveRxCpltCallback(hi2c);
4121:Drivers/STM32F3xx_HAL_Driver/Src/stm32f3xx_hal_i2c.c ****   }
4122:Drivers/STM32F3xx_HAL_Driver/Src/stm32f3xx_hal_i2c.c ****   else
4123:Drivers/STM32F3xx_HAL_Driver/Src/stm32f3xx_hal_i2c.c ****   {
4124:Drivers/STM32F3xx_HAL_Driver/Src/stm32f3xx_hal_i2c.c ****     hi2c->State = HAL_I2C_STATE_READY;
4125:Drivers/STM32F3xx_HAL_Driver/Src/stm32f3xx_hal_i2c.c **** 
4126:Drivers/STM32F3xx_HAL_Driver/Src/stm32f3xx_hal_i2c.c ****     /* Process Unlocked */
4127:Drivers/STM32F3xx_HAL_Driver/Src/stm32f3xx_hal_i2c.c ****     __HAL_UNLOCK(hi2c);
ARM GAS  /tmp/ccy0jiyr.s 			page 228


4128:Drivers/STM32F3xx_HAL_Driver/Src/stm32f3xx_hal_i2c.c **** 
4129:Drivers/STM32F3xx_HAL_Driver/Src/stm32f3xx_hal_i2c.c ****     /* Call the Slave Tx Complete callback */
4130:Drivers/STM32F3xx_HAL_Driver/Src/stm32f3xx_hal_i2c.c ****     HAL_I2C_SlaveTxCpltCallback(hi2c);
4131:Drivers/STM32F3xx_HAL_Driver/Src/stm32f3xx_hal_i2c.c ****   }
4132:Drivers/STM32F3xx_HAL_Driver/Src/stm32f3xx_hal_i2c.c **** }
 8861              		.loc 1 4132 0
 8862 012c 30E0     		b	.L451
 8863              	.L446:
4100:Drivers/STM32F3xx_HAL_Driver/Src/stm32f3xx_hal_i2c.c ****   {
 8864              		.loc 1 4100 0
 8865 012e 7B68     		ldr	r3, [r7, #4]
 8866 0130 DB6A     		ldr	r3, [r3, #44]
 8867 0132 13F5803F 		cmn	r3, #65536
 8868 0136 0ED0     		beq	.L449
4102:Drivers/STM32F3xx_HAL_Driver/Src/stm32f3xx_hal_i2c.c ****     hi2c->State = HAL_I2C_STATE_READY;
 8869              		.loc 1 4102 0
 8870 0138 7B68     		ldr	r3, [r7, #4]
 8871 013a 184A     		ldr	r2, .L452+4
 8872 013c DA62     		str	r2, [r3, #44]
4103:Drivers/STM32F3xx_HAL_Driver/Src/stm32f3xx_hal_i2c.c **** 
 8873              		.loc 1 4103 0
 8874 013e 7B68     		ldr	r3, [r7, #4]
 8875 0140 2022     		movs	r2, #32
 8876 0142 83F84120 		strb	r2, [r3, #65]
4106:Drivers/STM32F3xx_HAL_Driver/Src/stm32f3xx_hal_i2c.c **** 
 8877              		.loc 1 4106 0
 8878 0146 7B68     		ldr	r3, [r7, #4]
 8879 0148 0022     		movs	r2, #0
 8880 014a 83F84020 		strb	r2, [r3, #64]
4109:Drivers/STM32F3xx_HAL_Driver/Src/stm32f3xx_hal_i2c.c ****   }
 8881              		.loc 1 4109 0
 8882 014e 7868     		ldr	r0, [r7, #4]
 8883 0150 FFF7FEFF 		bl	HAL_I2C_ListenCpltCallback
 8884              		.loc 1 4132 0
 8885 0154 1CE0     		b	.L451
 8886              	.L449:
4112:Drivers/STM32F3xx_HAL_Driver/Src/stm32f3xx_hal_i2c.c ****   {
 8887              		.loc 1 4112 0
 8888 0156 7B68     		ldr	r3, [r7, #4]
 8889 0158 93F84130 		ldrb	r3, [r3, #65]
 8890 015c DBB2     		uxtb	r3, r3
 8891 015e 222B     		cmp	r3, #34
 8892 0160 0BD1     		bne	.L450
4114:Drivers/STM32F3xx_HAL_Driver/Src/stm32f3xx_hal_i2c.c **** 
 8893              		.loc 1 4114 0
 8894 0162 7B68     		ldr	r3, [r7, #4]
 8895 0164 2022     		movs	r2, #32
 8896 0166 83F84120 		strb	r2, [r3, #65]
4117:Drivers/STM32F3xx_HAL_Driver/Src/stm32f3xx_hal_i2c.c **** 
 8897              		.loc 1 4117 0
 8898 016a 7B68     		ldr	r3, [r7, #4]
 8899 016c 0022     		movs	r2, #0
 8900 016e 83F84020 		strb	r2, [r3, #64]
4120:Drivers/STM32F3xx_HAL_Driver/Src/stm32f3xx_hal_i2c.c ****   }
 8901              		.loc 1 4120 0
 8902 0172 7868     		ldr	r0, [r7, #4]
 8903 0174 FFF7FEFF 		bl	HAL_I2C_SlaveRxCpltCallback
ARM GAS  /tmp/ccy0jiyr.s 			page 229


 8904              		.loc 1 4132 0
 8905 0178 0AE0     		b	.L451
 8906              	.L450:
4124:Drivers/STM32F3xx_HAL_Driver/Src/stm32f3xx_hal_i2c.c **** 
 8907              		.loc 1 4124 0
 8908 017a 7B68     		ldr	r3, [r7, #4]
 8909 017c 2022     		movs	r2, #32
 8910 017e 83F84120 		strb	r2, [r3, #65]
4127:Drivers/STM32F3xx_HAL_Driver/Src/stm32f3xx_hal_i2c.c **** 
 8911              		.loc 1 4127 0
 8912 0182 7B68     		ldr	r3, [r7, #4]
 8913 0184 0022     		movs	r2, #0
 8914 0186 83F84020 		strb	r2, [r3, #64]
4130:Drivers/STM32F3xx_HAL_Driver/Src/stm32f3xx_hal_i2c.c ****   }
 8915              		.loc 1 4130 0
 8916 018a 7868     		ldr	r0, [r7, #4]
 8917 018c FFF7FEFF 		bl	HAL_I2C_SlaveTxCpltCallback
 8918              	.L451:
 8919              		.loc 1 4132 0
 8920 0190 00BF     		nop
 8921 0192 0837     		adds	r7, r7, #8
 8922              	.LCFI293:
 8923              		.cfi_def_cfa_offset 8
 8924 0194 BD46     		mov	sp, r7
 8925              	.LCFI294:
 8926              		.cfi_def_cfa_register 13
 8927              		@ sp needed
 8928 0196 80BD     		pop	{r7, pc}
 8929              	.L453:
 8930              		.align	2
 8931              	.L452:
 8932 0198 00E800FE 		.word	-33495040
 8933 019c 0000FFFF 		.word	-65536
 8934              		.cfi_endproc
 8935              	.LFE750:
 8937              		.section	.text.I2C_ITListenCplt,"ax",%progbits
 8938              		.align	1
 8939              		.syntax unified
 8940              		.thumb
 8941              		.thumb_func
 8942              		.fpu fpv4-sp-d16
 8944              	I2C_ITListenCplt:
 8945              	.LFB751:
4133:Drivers/STM32F3xx_HAL_Driver/Src/stm32f3xx_hal_i2c.c **** 
4134:Drivers/STM32F3xx_HAL_Driver/Src/stm32f3xx_hal_i2c.c **** /**
4135:Drivers/STM32F3xx_HAL_Driver/Src/stm32f3xx_hal_i2c.c ****   * @brief  I2C Listen complete process.
4136:Drivers/STM32F3xx_HAL_Driver/Src/stm32f3xx_hal_i2c.c ****   * @param  hi2c I2C handle.
4137:Drivers/STM32F3xx_HAL_Driver/Src/stm32f3xx_hal_i2c.c ****   * @param  ITFlags Interrupt flags to handle.
4138:Drivers/STM32F3xx_HAL_Driver/Src/stm32f3xx_hal_i2c.c ****   * @retval None
4139:Drivers/STM32F3xx_HAL_Driver/Src/stm32f3xx_hal_i2c.c ****   */
4140:Drivers/STM32F3xx_HAL_Driver/Src/stm32f3xx_hal_i2c.c **** static void I2C_ITListenCplt(I2C_HandleTypeDef *hi2c, uint32_t ITFlags)
4141:Drivers/STM32F3xx_HAL_Driver/Src/stm32f3xx_hal_i2c.c **** {
 8946              		.loc 1 4141 0
 8947              		.cfi_startproc
 8948              		@ args = 0, pretend = 0, frame = 8
 8949              		@ frame_needed = 1, uses_anonymous_args = 0
 8950 0000 80B5     		push	{r7, lr}
ARM GAS  /tmp/ccy0jiyr.s 			page 230


 8951              	.LCFI295:
 8952              		.cfi_def_cfa_offset 8
 8953              		.cfi_offset 7, -8
 8954              		.cfi_offset 14, -4
 8955 0002 82B0     		sub	sp, sp, #8
 8956              	.LCFI296:
 8957              		.cfi_def_cfa_offset 16
 8958 0004 00AF     		add	r7, sp, #0
 8959              	.LCFI297:
 8960              		.cfi_def_cfa_register 7
 8961 0006 7860     		str	r0, [r7, #4]
 8962 0008 3960     		str	r1, [r7]
4142:Drivers/STM32F3xx_HAL_Driver/Src/stm32f3xx_hal_i2c.c ****   /* Reset handle parameters */
4143:Drivers/STM32F3xx_HAL_Driver/Src/stm32f3xx_hal_i2c.c ****   hi2c->XferOptions = I2C_NO_OPTION_FRAME;
 8963              		.loc 1 4143 0
 8964 000a 7B68     		ldr	r3, [r7, #4]
 8965 000c 244A     		ldr	r2, .L456
 8966 000e DA62     		str	r2, [r3, #44]
4144:Drivers/STM32F3xx_HAL_Driver/Src/stm32f3xx_hal_i2c.c ****   hi2c->PreviousState = I2C_STATE_NONE;
 8967              		.loc 1 4144 0
 8968 0010 7B68     		ldr	r3, [r7, #4]
 8969 0012 0022     		movs	r2, #0
 8970 0014 1A63     		str	r2, [r3, #48]
4145:Drivers/STM32F3xx_HAL_Driver/Src/stm32f3xx_hal_i2c.c ****   hi2c->State = HAL_I2C_STATE_READY;
 8971              		.loc 1 4145 0
 8972 0016 7B68     		ldr	r3, [r7, #4]
 8973 0018 2022     		movs	r2, #32
 8974 001a 83F84120 		strb	r2, [r3, #65]
4146:Drivers/STM32F3xx_HAL_Driver/Src/stm32f3xx_hal_i2c.c ****   hi2c->Mode = HAL_I2C_MODE_NONE;
 8975              		.loc 1 4146 0
 8976 001e 7B68     		ldr	r3, [r7, #4]
 8977 0020 0022     		movs	r2, #0
 8978 0022 83F84220 		strb	r2, [r3, #66]
4147:Drivers/STM32F3xx_HAL_Driver/Src/stm32f3xx_hal_i2c.c ****   hi2c->XferISR = NULL;
 8979              		.loc 1 4147 0
 8980 0026 7B68     		ldr	r3, [r7, #4]
 8981 0028 0022     		movs	r2, #0
 8982 002a 5A63     		str	r2, [r3, #52]
4148:Drivers/STM32F3xx_HAL_Driver/Src/stm32f3xx_hal_i2c.c **** 
4149:Drivers/STM32F3xx_HAL_Driver/Src/stm32f3xx_hal_i2c.c ****   /* Store Last receive data if any */
4150:Drivers/STM32F3xx_HAL_Driver/Src/stm32f3xx_hal_i2c.c ****   if (((ITFlags & I2C_FLAG_RXNE) != RESET))
 8983              		.loc 1 4150 0
 8984 002c 3B68     		ldr	r3, [r7]
 8985 002e 03F00403 		and	r3, r3, #4
 8986 0032 002B     		cmp	r3, #0
 8987 0034 20D0     		beq	.L455
4151:Drivers/STM32F3xx_HAL_Driver/Src/stm32f3xx_hal_i2c.c ****   {
4152:Drivers/STM32F3xx_HAL_Driver/Src/stm32f3xx_hal_i2c.c ****     /* Read data from RXDR */
4153:Drivers/STM32F3xx_HAL_Driver/Src/stm32f3xx_hal_i2c.c ****     (*hi2c->pBuffPtr++) = hi2c->Instance->RXDR;
 8988              		.loc 1 4153 0
 8989 0036 7B68     		ldr	r3, [r7, #4]
 8990 0038 1B68     		ldr	r3, [r3]
 8991 003a 586A     		ldr	r0, [r3, #36]
 8992 003c 7B68     		ldr	r3, [r7, #4]
 8993 003e 5B6A     		ldr	r3, [r3, #36]
 8994 0040 591C     		adds	r1, r3, #1
 8995 0042 7A68     		ldr	r2, [r7, #4]
ARM GAS  /tmp/ccy0jiyr.s 			page 231


 8996 0044 5162     		str	r1, [r2, #36]
 8997 0046 C2B2     		uxtb	r2, r0
 8998 0048 1A70     		strb	r2, [r3]
4154:Drivers/STM32F3xx_HAL_Driver/Src/stm32f3xx_hal_i2c.c **** 
4155:Drivers/STM32F3xx_HAL_Driver/Src/stm32f3xx_hal_i2c.c ****     if ((hi2c->XferSize > 0U))
 8999              		.loc 1 4155 0
 9000 004a 7B68     		ldr	r3, [r7, #4]
 9001 004c 1B8D     		ldrh	r3, [r3, #40]
 9002 004e 002B     		cmp	r3, #0
 9003 0050 12D0     		beq	.L455
4156:Drivers/STM32F3xx_HAL_Driver/Src/stm32f3xx_hal_i2c.c ****     {
4157:Drivers/STM32F3xx_HAL_Driver/Src/stm32f3xx_hal_i2c.c ****       hi2c->XferSize--;
 9004              		.loc 1 4157 0
 9005 0052 7B68     		ldr	r3, [r7, #4]
 9006 0054 1B8D     		ldrh	r3, [r3, #40]
 9007 0056 013B     		subs	r3, r3, #1
 9008 0058 9AB2     		uxth	r2, r3
 9009 005a 7B68     		ldr	r3, [r7, #4]
 9010 005c 1A85     		strh	r2, [r3, #40]	@ movhi
4158:Drivers/STM32F3xx_HAL_Driver/Src/stm32f3xx_hal_i2c.c ****       hi2c->XferCount--;
 9011              		.loc 1 4158 0
 9012 005e 7B68     		ldr	r3, [r7, #4]
 9013 0060 5B8D     		ldrh	r3, [r3, #42]	@ movhi
 9014 0062 9BB2     		uxth	r3, r3
 9015 0064 013B     		subs	r3, r3, #1
 9016 0066 9AB2     		uxth	r2, r3
 9017 0068 7B68     		ldr	r3, [r7, #4]
 9018 006a 5A85     		strh	r2, [r3, #42]	@ movhi
4159:Drivers/STM32F3xx_HAL_Driver/Src/stm32f3xx_hal_i2c.c **** 
4160:Drivers/STM32F3xx_HAL_Driver/Src/stm32f3xx_hal_i2c.c ****       /* Set ErrorCode corresponding to a Non-Acknowledge */
4161:Drivers/STM32F3xx_HAL_Driver/Src/stm32f3xx_hal_i2c.c ****       hi2c->ErrorCode |= HAL_I2C_ERROR_AF;
 9019              		.loc 1 4161 0
 9020 006c 7B68     		ldr	r3, [r7, #4]
 9021 006e 5B6C     		ldr	r3, [r3, #68]
 9022 0070 43F00402 		orr	r2, r3, #4
 9023 0074 7B68     		ldr	r3, [r7, #4]
 9024 0076 5A64     		str	r2, [r3, #68]
 9025              	.L455:
4162:Drivers/STM32F3xx_HAL_Driver/Src/stm32f3xx_hal_i2c.c ****     }
4163:Drivers/STM32F3xx_HAL_Driver/Src/stm32f3xx_hal_i2c.c ****   }
4164:Drivers/STM32F3xx_HAL_Driver/Src/stm32f3xx_hal_i2c.c **** 
4165:Drivers/STM32F3xx_HAL_Driver/Src/stm32f3xx_hal_i2c.c ****   /* Disable all Interrupts*/
4166:Drivers/STM32F3xx_HAL_Driver/Src/stm32f3xx_hal_i2c.c ****   I2C_Disable_IRQ(hi2c, I2C_XFER_LISTEN_IT | I2C_XFER_RX_IT | I2C_XFER_TX_IT);
 9026              		.loc 1 4166 0
 9027 0078 0721     		movs	r1, #7
 9028 007a 7868     		ldr	r0, [r7, #4]
 9029 007c FFF7FEFF 		bl	I2C_Disable_IRQ
4167:Drivers/STM32F3xx_HAL_Driver/Src/stm32f3xx_hal_i2c.c **** 
4168:Drivers/STM32F3xx_HAL_Driver/Src/stm32f3xx_hal_i2c.c ****   /* Clear NACK Flag */
4169:Drivers/STM32F3xx_HAL_Driver/Src/stm32f3xx_hal_i2c.c ****   __HAL_I2C_CLEAR_FLAG(hi2c, I2C_FLAG_AF);
 9030              		.loc 1 4169 0
 9031 0080 7B68     		ldr	r3, [r7, #4]
 9032 0082 1B68     		ldr	r3, [r3]
 9033 0084 1022     		movs	r2, #16
 9034 0086 DA61     		str	r2, [r3, #28]
4170:Drivers/STM32F3xx_HAL_Driver/Src/stm32f3xx_hal_i2c.c **** 
4171:Drivers/STM32F3xx_HAL_Driver/Src/stm32f3xx_hal_i2c.c ****   /* Process Unlocked */
ARM GAS  /tmp/ccy0jiyr.s 			page 232


4172:Drivers/STM32F3xx_HAL_Driver/Src/stm32f3xx_hal_i2c.c ****   __HAL_UNLOCK(hi2c);
 9035              		.loc 1 4172 0
 9036 0088 7B68     		ldr	r3, [r7, #4]
 9037 008a 0022     		movs	r2, #0
 9038 008c 83F84020 		strb	r2, [r3, #64]
4173:Drivers/STM32F3xx_HAL_Driver/Src/stm32f3xx_hal_i2c.c **** 
4174:Drivers/STM32F3xx_HAL_Driver/Src/stm32f3xx_hal_i2c.c ****   /* Call the Listen Complete callback, to inform upper layer of the end of Listen usecase */
4175:Drivers/STM32F3xx_HAL_Driver/Src/stm32f3xx_hal_i2c.c ****   HAL_I2C_ListenCpltCallback(hi2c);
 9039              		.loc 1 4175 0
 9040 0090 7868     		ldr	r0, [r7, #4]
 9041 0092 FFF7FEFF 		bl	HAL_I2C_ListenCpltCallback
4176:Drivers/STM32F3xx_HAL_Driver/Src/stm32f3xx_hal_i2c.c **** }
 9042              		.loc 1 4176 0
 9043 0096 00BF     		nop
 9044 0098 0837     		adds	r7, r7, #8
 9045              	.LCFI298:
 9046              		.cfi_def_cfa_offset 8
 9047 009a BD46     		mov	sp, r7
 9048              	.LCFI299:
 9049              		.cfi_def_cfa_register 13
 9050              		@ sp needed
 9051 009c 80BD     		pop	{r7, pc}
 9052              	.L457:
 9053 009e 00BF     		.align	2
 9054              	.L456:
 9055 00a0 0000FFFF 		.word	-65536
 9056              		.cfi_endproc
 9057              	.LFE751:
 9059              		.section	.text.I2C_ITError,"ax",%progbits
 9060              		.align	1
 9061              		.syntax unified
 9062              		.thumb
 9063              		.thumb_func
 9064              		.fpu fpv4-sp-d16
 9066              	I2C_ITError:
 9067              	.LFB752:
4177:Drivers/STM32F3xx_HAL_Driver/Src/stm32f3xx_hal_i2c.c **** 
4178:Drivers/STM32F3xx_HAL_Driver/Src/stm32f3xx_hal_i2c.c **** /**
4179:Drivers/STM32F3xx_HAL_Driver/Src/stm32f3xx_hal_i2c.c ****   * @brief  I2C interrupts error process.
4180:Drivers/STM32F3xx_HAL_Driver/Src/stm32f3xx_hal_i2c.c ****   * @param  hi2c I2C handle.
4181:Drivers/STM32F3xx_HAL_Driver/Src/stm32f3xx_hal_i2c.c ****   * @param  ErrorCode Error code to handle.
4182:Drivers/STM32F3xx_HAL_Driver/Src/stm32f3xx_hal_i2c.c ****   * @retval None
4183:Drivers/STM32F3xx_HAL_Driver/Src/stm32f3xx_hal_i2c.c ****   */
4184:Drivers/STM32F3xx_HAL_Driver/Src/stm32f3xx_hal_i2c.c **** static void I2C_ITError(I2C_HandleTypeDef *hi2c, uint32_t ErrorCode)
4185:Drivers/STM32F3xx_HAL_Driver/Src/stm32f3xx_hal_i2c.c **** {
 9068              		.loc 1 4185 0
 9069              		.cfi_startproc
 9070              		@ args = 0, pretend = 0, frame = 8
 9071              		@ frame_needed = 1, uses_anonymous_args = 0
 9072 0000 80B5     		push	{r7, lr}
 9073              	.LCFI300:
 9074              		.cfi_def_cfa_offset 8
 9075              		.cfi_offset 7, -8
 9076              		.cfi_offset 14, -4
 9077 0002 82B0     		sub	sp, sp, #8
 9078              	.LCFI301:
 9079              		.cfi_def_cfa_offset 16
ARM GAS  /tmp/ccy0jiyr.s 			page 233


 9080 0004 00AF     		add	r7, sp, #0
 9081              	.LCFI302:
 9082              		.cfi_def_cfa_register 7
 9083 0006 7860     		str	r0, [r7, #4]
 9084 0008 3960     		str	r1, [r7]
4186:Drivers/STM32F3xx_HAL_Driver/Src/stm32f3xx_hal_i2c.c ****   /* Reset handle parameters */
4187:Drivers/STM32F3xx_HAL_Driver/Src/stm32f3xx_hal_i2c.c ****   hi2c->Mode          = HAL_I2C_MODE_NONE;
 9085              		.loc 1 4187 0
 9086 000a 7B68     		ldr	r3, [r7, #4]
 9087 000c 0022     		movs	r2, #0
 9088 000e 83F84220 		strb	r2, [r3, #66]
4188:Drivers/STM32F3xx_HAL_Driver/Src/stm32f3xx_hal_i2c.c ****   hi2c->XferOptions   = I2C_NO_OPTION_FRAME;
 9089              		.loc 1 4188 0
 9090 0012 7B68     		ldr	r3, [r7, #4]
 9091 0014 564A     		ldr	r2, .L470
 9092 0016 DA62     		str	r2, [r3, #44]
4189:Drivers/STM32F3xx_HAL_Driver/Src/stm32f3xx_hal_i2c.c ****   hi2c->XferCount     = 0U;
 9093              		.loc 1 4189 0
 9094 0018 7B68     		ldr	r3, [r7, #4]
 9095 001a 0022     		movs	r2, #0
 9096 001c 5A85     		strh	r2, [r3, #42]	@ movhi
4190:Drivers/STM32F3xx_HAL_Driver/Src/stm32f3xx_hal_i2c.c **** 
4191:Drivers/STM32F3xx_HAL_Driver/Src/stm32f3xx_hal_i2c.c ****   /* Set new error code */
4192:Drivers/STM32F3xx_HAL_Driver/Src/stm32f3xx_hal_i2c.c ****   hi2c->ErrorCode |= ErrorCode;
 9097              		.loc 1 4192 0
 9098 001e 7B68     		ldr	r3, [r7, #4]
 9099 0020 5A6C     		ldr	r2, [r3, #68]
 9100 0022 3B68     		ldr	r3, [r7]
 9101 0024 1A43     		orrs	r2, r2, r3
 9102 0026 7B68     		ldr	r3, [r7, #4]
 9103 0028 5A64     		str	r2, [r3, #68]
4193:Drivers/STM32F3xx_HAL_Driver/Src/stm32f3xx_hal_i2c.c **** 
4194:Drivers/STM32F3xx_HAL_Driver/Src/stm32f3xx_hal_i2c.c ****   /* Disable Interrupts */
4195:Drivers/STM32F3xx_HAL_Driver/Src/stm32f3xx_hal_i2c.c ****   if ((hi2c->State == HAL_I2C_STATE_LISTEN)         ||
 9104              		.loc 1 4195 0
 9105 002a 7B68     		ldr	r3, [r7, #4]
 9106 002c 93F84130 		ldrb	r3, [r3, #65]
 9107 0030 DBB2     		uxtb	r3, r3
 9108 0032 282B     		cmp	r3, #40
 9109 0034 0BD0     		beq	.L459
4196:Drivers/STM32F3xx_HAL_Driver/Src/stm32f3xx_hal_i2c.c ****       (hi2c->State == HAL_I2C_STATE_BUSY_TX_LISTEN) ||
 9110              		.loc 1 4196 0 discriminator 1
 9111 0036 7B68     		ldr	r3, [r7, #4]
 9112 0038 93F84130 		ldrb	r3, [r3, #65]
 9113 003c DBB2     		uxtb	r3, r3
4195:Drivers/STM32F3xx_HAL_Driver/Src/stm32f3xx_hal_i2c.c ****       (hi2c->State == HAL_I2C_STATE_BUSY_TX_LISTEN) ||
 9114              		.loc 1 4195 0 discriminator 1
 9115 003e 292B     		cmp	r3, #41
 9116 0040 05D0     		beq	.L459
4197:Drivers/STM32F3xx_HAL_Driver/Src/stm32f3xx_hal_i2c.c ****       (hi2c->State == HAL_I2C_STATE_BUSY_RX_LISTEN))
 9117              		.loc 1 4197 0
 9118 0042 7B68     		ldr	r3, [r7, #4]
 9119 0044 93F84130 		ldrb	r3, [r3, #65]
 9120 0048 DBB2     		uxtb	r3, r3
4196:Drivers/STM32F3xx_HAL_Driver/Src/stm32f3xx_hal_i2c.c ****       (hi2c->State == HAL_I2C_STATE_BUSY_TX_LISTEN) ||
 9121              		.loc 1 4196 0
 9122 004a 2A2B     		cmp	r3, #42
ARM GAS  /tmp/ccy0jiyr.s 			page 234


 9123 004c 0ED1     		bne	.L460
 9124              	.L459:
4198:Drivers/STM32F3xx_HAL_Driver/Src/stm32f3xx_hal_i2c.c ****   {
4199:Drivers/STM32F3xx_HAL_Driver/Src/stm32f3xx_hal_i2c.c ****     /* Disable all interrupts, except interrupts related to LISTEN state */
4200:Drivers/STM32F3xx_HAL_Driver/Src/stm32f3xx_hal_i2c.c ****     I2C_Disable_IRQ(hi2c, I2C_XFER_RX_IT | I2C_XFER_TX_IT);
 9125              		.loc 1 4200 0
 9126 004e 0321     		movs	r1, #3
 9127 0050 7868     		ldr	r0, [r7, #4]
 9128 0052 FFF7FEFF 		bl	I2C_Disable_IRQ
4201:Drivers/STM32F3xx_HAL_Driver/Src/stm32f3xx_hal_i2c.c **** 
4202:Drivers/STM32F3xx_HAL_Driver/Src/stm32f3xx_hal_i2c.c ****     /* keep HAL_I2C_STATE_LISTEN if set */
4203:Drivers/STM32F3xx_HAL_Driver/Src/stm32f3xx_hal_i2c.c ****     hi2c->State         = HAL_I2C_STATE_LISTEN;
 9129              		.loc 1 4203 0
 9130 0056 7B68     		ldr	r3, [r7, #4]
 9131 0058 2822     		movs	r2, #40
 9132 005a 83F84120 		strb	r2, [r3, #65]
4204:Drivers/STM32F3xx_HAL_Driver/Src/stm32f3xx_hal_i2c.c ****     hi2c->PreviousState = I2C_STATE_NONE;
 9133              		.loc 1 4204 0
 9134 005e 7B68     		ldr	r3, [r7, #4]
 9135 0060 0022     		movs	r2, #0
 9136 0062 1A63     		str	r2, [r3, #48]
4205:Drivers/STM32F3xx_HAL_Driver/Src/stm32f3xx_hal_i2c.c ****     hi2c->XferISR       = I2C_Slave_ISR_IT;
 9137              		.loc 1 4205 0
 9138 0064 7B68     		ldr	r3, [r7, #4]
 9139 0066 434A     		ldr	r2, .L470+4
 9140 0068 5A63     		str	r2, [r3, #52]
 9141 006a 13E0     		b	.L461
 9142              	.L460:
4206:Drivers/STM32F3xx_HAL_Driver/Src/stm32f3xx_hal_i2c.c ****   }
4207:Drivers/STM32F3xx_HAL_Driver/Src/stm32f3xx_hal_i2c.c ****   else
4208:Drivers/STM32F3xx_HAL_Driver/Src/stm32f3xx_hal_i2c.c ****   {
4209:Drivers/STM32F3xx_HAL_Driver/Src/stm32f3xx_hal_i2c.c ****     /* Disable all interrupts */
4210:Drivers/STM32F3xx_HAL_Driver/Src/stm32f3xx_hal_i2c.c ****     I2C_Disable_IRQ(hi2c, I2C_XFER_LISTEN_IT | I2C_XFER_RX_IT | I2C_XFER_TX_IT);
 9143              		.loc 1 4210 0
 9144 006c 0721     		movs	r1, #7
 9145 006e 7868     		ldr	r0, [r7, #4]
 9146 0070 FFF7FEFF 		bl	I2C_Disable_IRQ
4211:Drivers/STM32F3xx_HAL_Driver/Src/stm32f3xx_hal_i2c.c **** 
4212:Drivers/STM32F3xx_HAL_Driver/Src/stm32f3xx_hal_i2c.c ****     /* If state is an abort treatment on goind, don't change state */
4213:Drivers/STM32F3xx_HAL_Driver/Src/stm32f3xx_hal_i2c.c ****     /* This change will be do later */
4214:Drivers/STM32F3xx_HAL_Driver/Src/stm32f3xx_hal_i2c.c ****     if (hi2c->State != HAL_I2C_STATE_ABORT)
 9147              		.loc 1 4214 0
 9148 0074 7B68     		ldr	r3, [r7, #4]
 9149 0076 93F84130 		ldrb	r3, [r3, #65]
 9150 007a DBB2     		uxtb	r3, r3
 9151 007c 602B     		cmp	r3, #96
 9152 007e 03D0     		beq	.L462
4215:Drivers/STM32F3xx_HAL_Driver/Src/stm32f3xx_hal_i2c.c ****     {
4216:Drivers/STM32F3xx_HAL_Driver/Src/stm32f3xx_hal_i2c.c ****       /* Set HAL_I2C_STATE_READY */
4217:Drivers/STM32F3xx_HAL_Driver/Src/stm32f3xx_hal_i2c.c ****       hi2c->State         = HAL_I2C_STATE_READY;
 9153              		.loc 1 4217 0
 9154 0080 7B68     		ldr	r3, [r7, #4]
 9155 0082 2022     		movs	r2, #32
 9156 0084 83F84120 		strb	r2, [r3, #65]
 9157              	.L462:
4218:Drivers/STM32F3xx_HAL_Driver/Src/stm32f3xx_hal_i2c.c ****     }
4219:Drivers/STM32F3xx_HAL_Driver/Src/stm32f3xx_hal_i2c.c ****     hi2c->PreviousState = I2C_STATE_NONE;
ARM GAS  /tmp/ccy0jiyr.s 			page 235


 9158              		.loc 1 4219 0
 9159 0088 7B68     		ldr	r3, [r7, #4]
 9160 008a 0022     		movs	r2, #0
 9161 008c 1A63     		str	r2, [r3, #48]
4220:Drivers/STM32F3xx_HAL_Driver/Src/stm32f3xx_hal_i2c.c ****     hi2c->XferISR       = NULL;
 9162              		.loc 1 4220 0
 9163 008e 7B68     		ldr	r3, [r7, #4]
 9164 0090 0022     		movs	r2, #0
 9165 0092 5A63     		str	r2, [r3, #52]
 9166              	.L461:
4221:Drivers/STM32F3xx_HAL_Driver/Src/stm32f3xx_hal_i2c.c ****   }
4222:Drivers/STM32F3xx_HAL_Driver/Src/stm32f3xx_hal_i2c.c **** 
4223:Drivers/STM32F3xx_HAL_Driver/Src/stm32f3xx_hal_i2c.c ****   /* Abort DMA TX transfer if any */
4224:Drivers/STM32F3xx_HAL_Driver/Src/stm32f3xx_hal_i2c.c ****   if ((hi2c->Instance->CR1 & I2C_CR1_TXDMAEN) == I2C_CR1_TXDMAEN)
 9167              		.loc 1 4224 0
 9168 0094 7B68     		ldr	r3, [r7, #4]
 9169 0096 1B68     		ldr	r3, [r3]
 9170 0098 1B68     		ldr	r3, [r3]
 9171 009a 03F48043 		and	r3, r3, #16384
 9172 009e B3F5804F 		cmp	r3, #16384
 9173 00a2 1FD1     		bne	.L463
4225:Drivers/STM32F3xx_HAL_Driver/Src/stm32f3xx_hal_i2c.c ****   {
4226:Drivers/STM32F3xx_HAL_Driver/Src/stm32f3xx_hal_i2c.c ****     hi2c->Instance->CR1 &= ~I2C_CR1_TXDMAEN;
 9174              		.loc 1 4226 0
 9175 00a4 7B68     		ldr	r3, [r7, #4]
 9176 00a6 1B68     		ldr	r3, [r3]
 9177 00a8 1A68     		ldr	r2, [r3]
 9178 00aa 7B68     		ldr	r3, [r7, #4]
 9179 00ac 1B68     		ldr	r3, [r3]
 9180 00ae 22F48042 		bic	r2, r2, #16384
 9181 00b2 1A60     		str	r2, [r3]
4227:Drivers/STM32F3xx_HAL_Driver/Src/stm32f3xx_hal_i2c.c **** 
4228:Drivers/STM32F3xx_HAL_Driver/Src/stm32f3xx_hal_i2c.c ****     /* Set the I2C DMA Abort callback :
4229:Drivers/STM32F3xx_HAL_Driver/Src/stm32f3xx_hal_i2c.c ****        will lead to call HAL_I2C_ErrorCallback() at end of DMA abort procedure */
4230:Drivers/STM32F3xx_HAL_Driver/Src/stm32f3xx_hal_i2c.c ****     hi2c->hdmatx->XferAbortCallback = I2C_DMAAbort;
 9182              		.loc 1 4230 0
 9183 00b4 7B68     		ldr	r3, [r7, #4]
 9184 00b6 9B6B     		ldr	r3, [r3, #56]
 9185 00b8 2F4A     		ldr	r2, .L470+8
 9186 00ba 5A63     		str	r2, [r3, #52]
4231:Drivers/STM32F3xx_HAL_Driver/Src/stm32f3xx_hal_i2c.c **** 
4232:Drivers/STM32F3xx_HAL_Driver/Src/stm32f3xx_hal_i2c.c ****     /* Process Unlocked */
4233:Drivers/STM32F3xx_HAL_Driver/Src/stm32f3xx_hal_i2c.c ****     __HAL_UNLOCK(hi2c);
 9187              		.loc 1 4233 0
 9188 00bc 7B68     		ldr	r3, [r7, #4]
 9189 00be 0022     		movs	r2, #0
 9190 00c0 83F84020 		strb	r2, [r3, #64]
4234:Drivers/STM32F3xx_HAL_Driver/Src/stm32f3xx_hal_i2c.c **** 
4235:Drivers/STM32F3xx_HAL_Driver/Src/stm32f3xx_hal_i2c.c ****     /* Abort DMA TX */
4236:Drivers/STM32F3xx_HAL_Driver/Src/stm32f3xx_hal_i2c.c ****     if (HAL_DMA_Abort_IT(hi2c->hdmatx) != HAL_OK)
 9191              		.loc 1 4236 0
 9192 00c4 7B68     		ldr	r3, [r7, #4]
 9193 00c6 9B6B     		ldr	r3, [r3, #56]
 9194 00c8 1846     		mov	r0, r3
 9195 00ca FFF7FEFF 		bl	HAL_DMA_Abort_IT
 9196 00ce 0346     		mov	r3, r0
 9197 00d0 002B     		cmp	r3, #0
ARM GAS  /tmp/ccy0jiyr.s 			page 236


 9198 00d2 48D0     		beq	.L469
4237:Drivers/STM32F3xx_HAL_Driver/Src/stm32f3xx_hal_i2c.c ****     {
4238:Drivers/STM32F3xx_HAL_Driver/Src/stm32f3xx_hal_i2c.c ****       /* Call Directly XferAbortCallback function in case of error */
4239:Drivers/STM32F3xx_HAL_Driver/Src/stm32f3xx_hal_i2c.c ****       hi2c->hdmatx->XferAbortCallback(hi2c->hdmatx);
 9199              		.loc 1 4239 0
 9200 00d4 7B68     		ldr	r3, [r7, #4]
 9201 00d6 9B6B     		ldr	r3, [r3, #56]
 9202 00d8 5B6B     		ldr	r3, [r3, #52]
 9203 00da 7A68     		ldr	r2, [r7, #4]
 9204 00dc 926B     		ldr	r2, [r2, #56]
 9205 00de 1046     		mov	r0, r2
 9206 00e0 9847     		blx	r3
 9207              	.LVL1:
4240:Drivers/STM32F3xx_HAL_Driver/Src/stm32f3xx_hal_i2c.c ****     }
4241:Drivers/STM32F3xx_HAL_Driver/Src/stm32f3xx_hal_i2c.c ****   }
4242:Drivers/STM32F3xx_HAL_Driver/Src/stm32f3xx_hal_i2c.c ****   /* Abort DMA RX transfer if any */
4243:Drivers/STM32F3xx_HAL_Driver/Src/stm32f3xx_hal_i2c.c ****   else if ((hi2c->Instance->CR1 & I2C_CR1_RXDMAEN) == I2C_CR1_RXDMAEN)
4244:Drivers/STM32F3xx_HAL_Driver/Src/stm32f3xx_hal_i2c.c ****   {
4245:Drivers/STM32F3xx_HAL_Driver/Src/stm32f3xx_hal_i2c.c ****     hi2c->Instance->CR1 &= ~I2C_CR1_RXDMAEN;
4246:Drivers/STM32F3xx_HAL_Driver/Src/stm32f3xx_hal_i2c.c **** 
4247:Drivers/STM32F3xx_HAL_Driver/Src/stm32f3xx_hal_i2c.c ****     /* Set the I2C DMA Abort callback :
4248:Drivers/STM32F3xx_HAL_Driver/Src/stm32f3xx_hal_i2c.c ****        will lead to call HAL_I2C_ErrorCallback() at end of DMA abort procedure */
4249:Drivers/STM32F3xx_HAL_Driver/Src/stm32f3xx_hal_i2c.c ****     hi2c->hdmarx->XferAbortCallback = I2C_DMAAbort;
4250:Drivers/STM32F3xx_HAL_Driver/Src/stm32f3xx_hal_i2c.c **** 
4251:Drivers/STM32F3xx_HAL_Driver/Src/stm32f3xx_hal_i2c.c ****     /* Process Unlocked */
4252:Drivers/STM32F3xx_HAL_Driver/Src/stm32f3xx_hal_i2c.c ****     __HAL_UNLOCK(hi2c);
4253:Drivers/STM32F3xx_HAL_Driver/Src/stm32f3xx_hal_i2c.c **** 
4254:Drivers/STM32F3xx_HAL_Driver/Src/stm32f3xx_hal_i2c.c ****     /* Abort DMA RX */
4255:Drivers/STM32F3xx_HAL_Driver/Src/stm32f3xx_hal_i2c.c ****     if (HAL_DMA_Abort_IT(hi2c->hdmarx) != HAL_OK)
4256:Drivers/STM32F3xx_HAL_Driver/Src/stm32f3xx_hal_i2c.c ****     {
4257:Drivers/STM32F3xx_HAL_Driver/Src/stm32f3xx_hal_i2c.c ****       /* Call Directly hi2c->hdmarx->XferAbortCallback function in case of error */
4258:Drivers/STM32F3xx_HAL_Driver/Src/stm32f3xx_hal_i2c.c ****       hi2c->hdmarx->XferAbortCallback(hi2c->hdmarx);
4259:Drivers/STM32F3xx_HAL_Driver/Src/stm32f3xx_hal_i2c.c ****     }
4260:Drivers/STM32F3xx_HAL_Driver/Src/stm32f3xx_hal_i2c.c ****   }
4261:Drivers/STM32F3xx_HAL_Driver/Src/stm32f3xx_hal_i2c.c ****   else if (hi2c->State == HAL_I2C_STATE_ABORT)
4262:Drivers/STM32F3xx_HAL_Driver/Src/stm32f3xx_hal_i2c.c ****   {
4263:Drivers/STM32F3xx_HAL_Driver/Src/stm32f3xx_hal_i2c.c ****     hi2c->State = HAL_I2C_STATE_READY;
4264:Drivers/STM32F3xx_HAL_Driver/Src/stm32f3xx_hal_i2c.c **** 
4265:Drivers/STM32F3xx_HAL_Driver/Src/stm32f3xx_hal_i2c.c ****     /* Process Unlocked */
4266:Drivers/STM32F3xx_HAL_Driver/Src/stm32f3xx_hal_i2c.c ****     __HAL_UNLOCK(hi2c);
4267:Drivers/STM32F3xx_HAL_Driver/Src/stm32f3xx_hal_i2c.c **** 
4268:Drivers/STM32F3xx_HAL_Driver/Src/stm32f3xx_hal_i2c.c ****     /* Call the corresponding callback to inform upper layer of End of Transfer */
4269:Drivers/STM32F3xx_HAL_Driver/Src/stm32f3xx_hal_i2c.c ****     HAL_I2C_AbortCpltCallback(hi2c);
4270:Drivers/STM32F3xx_HAL_Driver/Src/stm32f3xx_hal_i2c.c ****   }
4271:Drivers/STM32F3xx_HAL_Driver/Src/stm32f3xx_hal_i2c.c ****   else
4272:Drivers/STM32F3xx_HAL_Driver/Src/stm32f3xx_hal_i2c.c ****   {
4273:Drivers/STM32F3xx_HAL_Driver/Src/stm32f3xx_hal_i2c.c ****     /* Process Unlocked */
4274:Drivers/STM32F3xx_HAL_Driver/Src/stm32f3xx_hal_i2c.c ****     __HAL_UNLOCK(hi2c);
4275:Drivers/STM32F3xx_HAL_Driver/Src/stm32f3xx_hal_i2c.c **** 
4276:Drivers/STM32F3xx_HAL_Driver/Src/stm32f3xx_hal_i2c.c ****     /* Call the corresponding callback to inform upper layer of End of Transfer */
4277:Drivers/STM32F3xx_HAL_Driver/Src/stm32f3xx_hal_i2c.c ****     HAL_I2C_ErrorCallback(hi2c);
4278:Drivers/STM32F3xx_HAL_Driver/Src/stm32f3xx_hal_i2c.c ****   }
4279:Drivers/STM32F3xx_HAL_Driver/Src/stm32f3xx_hal_i2c.c **** }
 9208              		.loc 1 4279 0
 9209 00e2 40E0     		b	.L469
 9210              	.L463:
4243:Drivers/STM32F3xx_HAL_Driver/Src/stm32f3xx_hal_i2c.c ****   {
ARM GAS  /tmp/ccy0jiyr.s 			page 237


 9211              		.loc 1 4243 0
 9212 00e4 7B68     		ldr	r3, [r7, #4]
 9213 00e6 1B68     		ldr	r3, [r3]
 9214 00e8 1B68     		ldr	r3, [r3]
 9215 00ea 03F40043 		and	r3, r3, #32768
 9216 00ee B3F5004F 		cmp	r3, #32768
 9217 00f2 1FD1     		bne	.L466
4245:Drivers/STM32F3xx_HAL_Driver/Src/stm32f3xx_hal_i2c.c **** 
 9218              		.loc 1 4245 0
 9219 00f4 7B68     		ldr	r3, [r7, #4]
 9220 00f6 1B68     		ldr	r3, [r3]
 9221 00f8 1A68     		ldr	r2, [r3]
 9222 00fa 7B68     		ldr	r3, [r7, #4]
 9223 00fc 1B68     		ldr	r3, [r3]
 9224 00fe 22F40042 		bic	r2, r2, #32768
 9225 0102 1A60     		str	r2, [r3]
4249:Drivers/STM32F3xx_HAL_Driver/Src/stm32f3xx_hal_i2c.c **** 
 9226              		.loc 1 4249 0
 9227 0104 7B68     		ldr	r3, [r7, #4]
 9228 0106 DB6B     		ldr	r3, [r3, #60]
 9229 0108 1B4A     		ldr	r2, .L470+8
 9230 010a 5A63     		str	r2, [r3, #52]
4252:Drivers/STM32F3xx_HAL_Driver/Src/stm32f3xx_hal_i2c.c **** 
 9231              		.loc 1 4252 0
 9232 010c 7B68     		ldr	r3, [r7, #4]
 9233 010e 0022     		movs	r2, #0
 9234 0110 83F84020 		strb	r2, [r3, #64]
4255:Drivers/STM32F3xx_HAL_Driver/Src/stm32f3xx_hal_i2c.c ****     {
 9235              		.loc 1 4255 0
 9236 0114 7B68     		ldr	r3, [r7, #4]
 9237 0116 DB6B     		ldr	r3, [r3, #60]
 9238 0118 1846     		mov	r0, r3
 9239 011a FFF7FEFF 		bl	HAL_DMA_Abort_IT
 9240 011e 0346     		mov	r3, r0
 9241 0120 002B     		cmp	r3, #0
 9242 0122 20D0     		beq	.L469
4258:Drivers/STM32F3xx_HAL_Driver/Src/stm32f3xx_hal_i2c.c ****     }
 9243              		.loc 1 4258 0
 9244 0124 7B68     		ldr	r3, [r7, #4]
 9245 0126 DB6B     		ldr	r3, [r3, #60]
 9246 0128 5B6B     		ldr	r3, [r3, #52]
 9247 012a 7A68     		ldr	r2, [r7, #4]
 9248 012c D26B     		ldr	r2, [r2, #60]
 9249 012e 1046     		mov	r0, r2
 9250 0130 9847     		blx	r3
 9251              	.LVL2:
 9252              		.loc 1 4279 0
 9253 0132 18E0     		b	.L469
 9254              	.L466:
4261:Drivers/STM32F3xx_HAL_Driver/Src/stm32f3xx_hal_i2c.c ****   {
 9255              		.loc 1 4261 0
 9256 0134 7B68     		ldr	r3, [r7, #4]
 9257 0136 93F84130 		ldrb	r3, [r3, #65]
 9258 013a DBB2     		uxtb	r3, r3
 9259 013c 602B     		cmp	r3, #96
 9260 013e 0BD1     		bne	.L468
4263:Drivers/STM32F3xx_HAL_Driver/Src/stm32f3xx_hal_i2c.c **** 
ARM GAS  /tmp/ccy0jiyr.s 			page 238


 9261              		.loc 1 4263 0
 9262 0140 7B68     		ldr	r3, [r7, #4]
 9263 0142 2022     		movs	r2, #32
 9264 0144 83F84120 		strb	r2, [r3, #65]
4266:Drivers/STM32F3xx_HAL_Driver/Src/stm32f3xx_hal_i2c.c **** 
 9265              		.loc 1 4266 0
 9266 0148 7B68     		ldr	r3, [r7, #4]
 9267 014a 0022     		movs	r2, #0
 9268 014c 83F84020 		strb	r2, [r3, #64]
4269:Drivers/STM32F3xx_HAL_Driver/Src/stm32f3xx_hal_i2c.c ****   }
 9269              		.loc 1 4269 0
 9270 0150 7868     		ldr	r0, [r7, #4]
 9271 0152 FFF7FEFF 		bl	HAL_I2C_AbortCpltCallback
 9272              		.loc 1 4279 0
 9273 0156 06E0     		b	.L469
 9274              	.L468:
4274:Drivers/STM32F3xx_HAL_Driver/Src/stm32f3xx_hal_i2c.c **** 
 9275              		.loc 1 4274 0
 9276 0158 7B68     		ldr	r3, [r7, #4]
 9277 015a 0022     		movs	r2, #0
 9278 015c 83F84020 		strb	r2, [r3, #64]
4277:Drivers/STM32F3xx_HAL_Driver/Src/stm32f3xx_hal_i2c.c ****   }
 9279              		.loc 1 4277 0
 9280 0160 7868     		ldr	r0, [r7, #4]
 9281 0162 FFF7FEFF 		bl	HAL_I2C_ErrorCallback
 9282              	.L469:
 9283              		.loc 1 4279 0
 9284 0166 00BF     		nop
 9285 0168 0837     		adds	r7, r7, #8
 9286              	.LCFI303:
 9287              		.cfi_def_cfa_offset 8
 9288 016a BD46     		mov	sp, r7
 9289              	.LCFI304:
 9290              		.cfi_def_cfa_register 13
 9291              		@ sp needed
 9292 016c 80BD     		pop	{r7, pc}
 9293              	.L471:
 9294 016e 00BF     		.align	2
 9295              	.L470:
 9296 0170 0000FFFF 		.word	-65536
 9297 0174 00000000 		.word	I2C_Slave_ISR_IT
 9298 0178 00000000 		.word	I2C_DMAAbort
 9299              		.cfi_endproc
 9300              	.LFE752:
 9302              		.section	.text.I2C_Flush_TXDR,"ax",%progbits
 9303              		.align	1
 9304              		.syntax unified
 9305              		.thumb
 9306              		.thumb_func
 9307              		.fpu fpv4-sp-d16
 9309              	I2C_Flush_TXDR:
 9310              	.LFB753:
4280:Drivers/STM32F3xx_HAL_Driver/Src/stm32f3xx_hal_i2c.c **** 
4281:Drivers/STM32F3xx_HAL_Driver/Src/stm32f3xx_hal_i2c.c **** /**
4282:Drivers/STM32F3xx_HAL_Driver/Src/stm32f3xx_hal_i2c.c ****   * @brief  I2C Tx data register flush process.
4283:Drivers/STM32F3xx_HAL_Driver/Src/stm32f3xx_hal_i2c.c ****   * @param  hi2c I2C handle.
4284:Drivers/STM32F3xx_HAL_Driver/Src/stm32f3xx_hal_i2c.c ****   * @retval None
ARM GAS  /tmp/ccy0jiyr.s 			page 239


4285:Drivers/STM32F3xx_HAL_Driver/Src/stm32f3xx_hal_i2c.c ****   */
4286:Drivers/STM32F3xx_HAL_Driver/Src/stm32f3xx_hal_i2c.c **** static void I2C_Flush_TXDR(I2C_HandleTypeDef *hi2c)
4287:Drivers/STM32F3xx_HAL_Driver/Src/stm32f3xx_hal_i2c.c **** {
 9311              		.loc 1 4287 0
 9312              		.cfi_startproc
 9313              		@ args = 0, pretend = 0, frame = 8
 9314              		@ frame_needed = 1, uses_anonymous_args = 0
 9315              		@ link register save eliminated.
 9316 0000 80B4     		push	{r7}
 9317              	.LCFI305:
 9318              		.cfi_def_cfa_offset 4
 9319              		.cfi_offset 7, -4
 9320 0002 83B0     		sub	sp, sp, #12
 9321              	.LCFI306:
 9322              		.cfi_def_cfa_offset 16
 9323 0004 00AF     		add	r7, sp, #0
 9324              	.LCFI307:
 9325              		.cfi_def_cfa_register 7
 9326 0006 7860     		str	r0, [r7, #4]
4288:Drivers/STM32F3xx_HAL_Driver/Src/stm32f3xx_hal_i2c.c ****   /* If a pending TXIS flag is set */
4289:Drivers/STM32F3xx_HAL_Driver/Src/stm32f3xx_hal_i2c.c ****   /* Write a dummy data in TXDR to clear it */
4290:Drivers/STM32F3xx_HAL_Driver/Src/stm32f3xx_hal_i2c.c ****   if (__HAL_I2C_GET_FLAG(hi2c, I2C_FLAG_TXIS) != RESET)
 9327              		.loc 1 4290 0
 9328 0008 7B68     		ldr	r3, [r7, #4]
 9329 000a 1B68     		ldr	r3, [r3]
 9330 000c 9B69     		ldr	r3, [r3, #24]
 9331 000e 03F00203 		and	r3, r3, #2
 9332 0012 022B     		cmp	r3, #2
 9333 0014 03D1     		bne	.L473
4291:Drivers/STM32F3xx_HAL_Driver/Src/stm32f3xx_hal_i2c.c ****   {
4292:Drivers/STM32F3xx_HAL_Driver/Src/stm32f3xx_hal_i2c.c ****     hi2c->Instance->TXDR = 0x00U;
 9334              		.loc 1 4292 0
 9335 0016 7B68     		ldr	r3, [r7, #4]
 9336 0018 1B68     		ldr	r3, [r3]
 9337 001a 0022     		movs	r2, #0
 9338 001c 9A62     		str	r2, [r3, #40]
 9339              	.L473:
4293:Drivers/STM32F3xx_HAL_Driver/Src/stm32f3xx_hal_i2c.c ****   }
4294:Drivers/STM32F3xx_HAL_Driver/Src/stm32f3xx_hal_i2c.c **** 
4295:Drivers/STM32F3xx_HAL_Driver/Src/stm32f3xx_hal_i2c.c ****   /* Flush TX register if not empty */
4296:Drivers/STM32F3xx_HAL_Driver/Src/stm32f3xx_hal_i2c.c ****   if (__HAL_I2C_GET_FLAG(hi2c, I2C_FLAG_TXE) == RESET)
 9340              		.loc 1 4296 0
 9341 001e 7B68     		ldr	r3, [r7, #4]
 9342 0020 1B68     		ldr	r3, [r3]
 9343 0022 9B69     		ldr	r3, [r3, #24]
 9344 0024 03F00103 		and	r3, r3, #1
 9345 0028 012B     		cmp	r3, #1
 9346 002a 07D0     		beq	.L475
4297:Drivers/STM32F3xx_HAL_Driver/Src/stm32f3xx_hal_i2c.c ****   {
4298:Drivers/STM32F3xx_HAL_Driver/Src/stm32f3xx_hal_i2c.c ****     __HAL_I2C_CLEAR_FLAG(hi2c, I2C_FLAG_TXE);
 9347              		.loc 1 4298 0
 9348 002c 7B68     		ldr	r3, [r7, #4]
 9349 002e 1B68     		ldr	r3, [r3]
 9350 0030 9A69     		ldr	r2, [r3, #24]
 9351 0032 7B68     		ldr	r3, [r7, #4]
 9352 0034 1B68     		ldr	r3, [r3]
 9353 0036 42F00102 		orr	r2, r2, #1
ARM GAS  /tmp/ccy0jiyr.s 			page 240


 9354 003a 9A61     		str	r2, [r3, #24]
 9355              	.L475:
4299:Drivers/STM32F3xx_HAL_Driver/Src/stm32f3xx_hal_i2c.c ****   }
4300:Drivers/STM32F3xx_HAL_Driver/Src/stm32f3xx_hal_i2c.c **** }
 9356              		.loc 1 4300 0
 9357 003c 00BF     		nop
 9358 003e 0C37     		adds	r7, r7, #12
 9359              	.LCFI308:
 9360              		.cfi_def_cfa_offset 4
 9361 0040 BD46     		mov	sp, r7
 9362              	.LCFI309:
 9363              		.cfi_def_cfa_register 13
 9364              		@ sp needed
 9365 0042 5DF8047B 		ldr	r7, [sp], #4
 9366              	.LCFI310:
 9367              		.cfi_restore 7
 9368              		.cfi_def_cfa_offset 0
 9369 0046 7047     		bx	lr
 9370              		.cfi_endproc
 9371              	.LFE753:
 9373              		.section	.text.I2C_DMAMasterTransmitCplt,"ax",%progbits
 9374              		.align	1
 9375              		.syntax unified
 9376              		.thumb
 9377              		.thumb_func
 9378              		.fpu fpv4-sp-d16
 9380              	I2C_DMAMasterTransmitCplt:
 9381              	.LFB754:
4301:Drivers/STM32F3xx_HAL_Driver/Src/stm32f3xx_hal_i2c.c **** 
4302:Drivers/STM32F3xx_HAL_Driver/Src/stm32f3xx_hal_i2c.c **** /**
4303:Drivers/STM32F3xx_HAL_Driver/Src/stm32f3xx_hal_i2c.c ****   * @brief  DMA I2C master transmit process complete callback.
4304:Drivers/STM32F3xx_HAL_Driver/Src/stm32f3xx_hal_i2c.c ****   * @param  hdma DMA handle
4305:Drivers/STM32F3xx_HAL_Driver/Src/stm32f3xx_hal_i2c.c ****   * @retval None
4306:Drivers/STM32F3xx_HAL_Driver/Src/stm32f3xx_hal_i2c.c ****   */
4307:Drivers/STM32F3xx_HAL_Driver/Src/stm32f3xx_hal_i2c.c **** static void I2C_DMAMasterTransmitCplt(DMA_HandleTypeDef *hdma)
4308:Drivers/STM32F3xx_HAL_Driver/Src/stm32f3xx_hal_i2c.c **** {
 9382              		.loc 1 4308 0
 9383              		.cfi_startproc
 9384              		@ args = 0, pretend = 0, frame = 16
 9385              		@ frame_needed = 1, uses_anonymous_args = 0
 9386 0000 80B5     		push	{r7, lr}
 9387              	.LCFI311:
 9388              		.cfi_def_cfa_offset 8
 9389              		.cfi_offset 7, -8
 9390              		.cfi_offset 14, -4
 9391 0002 84B0     		sub	sp, sp, #16
 9392              	.LCFI312:
 9393              		.cfi_def_cfa_offset 24
 9394 0004 00AF     		add	r7, sp, #0
 9395              	.LCFI313:
 9396              		.cfi_def_cfa_register 7
 9397 0006 7860     		str	r0, [r7, #4]
4309:Drivers/STM32F3xx_HAL_Driver/Src/stm32f3xx_hal_i2c.c ****   I2C_HandleTypeDef *hi2c = (I2C_HandleTypeDef *)((DMA_HandleTypeDef *)hdma)->Parent;
 9398              		.loc 1 4309 0
 9399 0008 7B68     		ldr	r3, [r7, #4]
 9400 000a 5B6A     		ldr	r3, [r3, #36]
 9401 000c FB60     		str	r3, [r7, #12]
ARM GAS  /tmp/ccy0jiyr.s 			page 241


4310:Drivers/STM32F3xx_HAL_Driver/Src/stm32f3xx_hal_i2c.c **** 
4311:Drivers/STM32F3xx_HAL_Driver/Src/stm32f3xx_hal_i2c.c ****   /* Disable DMA Request */
4312:Drivers/STM32F3xx_HAL_Driver/Src/stm32f3xx_hal_i2c.c ****   hi2c->Instance->CR1 &= ~I2C_CR1_TXDMAEN;
 9402              		.loc 1 4312 0
 9403 000e FB68     		ldr	r3, [r7, #12]
 9404 0010 1B68     		ldr	r3, [r3]
 9405 0012 1A68     		ldr	r2, [r3]
 9406 0014 FB68     		ldr	r3, [r7, #12]
 9407 0016 1B68     		ldr	r3, [r3]
 9408 0018 22F48042 		bic	r2, r2, #16384
 9409 001c 1A60     		str	r2, [r3]
4313:Drivers/STM32F3xx_HAL_Driver/Src/stm32f3xx_hal_i2c.c **** 
4314:Drivers/STM32F3xx_HAL_Driver/Src/stm32f3xx_hal_i2c.c ****   /* If last transfer, enable STOP interrupt */
4315:Drivers/STM32F3xx_HAL_Driver/Src/stm32f3xx_hal_i2c.c ****   if (hi2c->XferCount == 0U)
 9410              		.loc 1 4315 0
 9411 001e FB68     		ldr	r3, [r7, #12]
 9412 0020 5B8D     		ldrh	r3, [r3, #42]	@ movhi
 9413 0022 9BB2     		uxth	r3, r3
 9414 0024 002B     		cmp	r3, #0
 9415 0026 04D1     		bne	.L477
4316:Drivers/STM32F3xx_HAL_Driver/Src/stm32f3xx_hal_i2c.c ****   {
4317:Drivers/STM32F3xx_HAL_Driver/Src/stm32f3xx_hal_i2c.c ****     /* Enable STOP interrupt */
4318:Drivers/STM32F3xx_HAL_Driver/Src/stm32f3xx_hal_i2c.c ****     I2C_Enable_IRQ(hi2c, I2C_XFER_CPLT_IT);
 9416              		.loc 1 4318 0
 9417 0028 1221     		movs	r1, #18
 9418 002a F868     		ldr	r0, [r7, #12]
 9419 002c FFF7FEFF 		bl	I2C_Enable_IRQ
4319:Drivers/STM32F3xx_HAL_Driver/Src/stm32f3xx_hal_i2c.c ****   }
4320:Drivers/STM32F3xx_HAL_Driver/Src/stm32f3xx_hal_i2c.c ****   /* else prepare a new DMA transfer and enable TCReload interrupt */
4321:Drivers/STM32F3xx_HAL_Driver/Src/stm32f3xx_hal_i2c.c ****   else
4322:Drivers/STM32F3xx_HAL_Driver/Src/stm32f3xx_hal_i2c.c ****   {
4323:Drivers/STM32F3xx_HAL_Driver/Src/stm32f3xx_hal_i2c.c ****     /* Update Buffer pointer */
4324:Drivers/STM32F3xx_HAL_Driver/Src/stm32f3xx_hal_i2c.c ****     hi2c->pBuffPtr += hi2c->XferSize;
4325:Drivers/STM32F3xx_HAL_Driver/Src/stm32f3xx_hal_i2c.c **** 
4326:Drivers/STM32F3xx_HAL_Driver/Src/stm32f3xx_hal_i2c.c ****     /* Set the XferSize to transfer */
4327:Drivers/STM32F3xx_HAL_Driver/Src/stm32f3xx_hal_i2c.c ****     if (hi2c->XferCount > MAX_NBYTE_SIZE)
4328:Drivers/STM32F3xx_HAL_Driver/Src/stm32f3xx_hal_i2c.c ****     {
4329:Drivers/STM32F3xx_HAL_Driver/Src/stm32f3xx_hal_i2c.c ****       hi2c->XferSize = MAX_NBYTE_SIZE;
4330:Drivers/STM32F3xx_HAL_Driver/Src/stm32f3xx_hal_i2c.c ****     }
4331:Drivers/STM32F3xx_HAL_Driver/Src/stm32f3xx_hal_i2c.c ****     else
4332:Drivers/STM32F3xx_HAL_Driver/Src/stm32f3xx_hal_i2c.c ****     {
4333:Drivers/STM32F3xx_HAL_Driver/Src/stm32f3xx_hal_i2c.c ****       hi2c->XferSize = hi2c->XferCount;
4334:Drivers/STM32F3xx_HAL_Driver/Src/stm32f3xx_hal_i2c.c ****     }
4335:Drivers/STM32F3xx_HAL_Driver/Src/stm32f3xx_hal_i2c.c **** 
4336:Drivers/STM32F3xx_HAL_Driver/Src/stm32f3xx_hal_i2c.c ****     /* Enable the DMA channel */
4337:Drivers/STM32F3xx_HAL_Driver/Src/stm32f3xx_hal_i2c.c ****     HAL_DMA_Start_IT(hi2c->hdmatx, (uint32_t)hi2c->pBuffPtr, (uint32_t)&hi2c->Instance->TXDR, hi2c-
4338:Drivers/STM32F3xx_HAL_Driver/Src/stm32f3xx_hal_i2c.c **** 
4339:Drivers/STM32F3xx_HAL_Driver/Src/stm32f3xx_hal_i2c.c ****     /* Enable TC interrupts */
4340:Drivers/STM32F3xx_HAL_Driver/Src/stm32f3xx_hal_i2c.c ****     I2C_Enable_IRQ(hi2c, I2C_XFER_RELOAD_IT);
4341:Drivers/STM32F3xx_HAL_Driver/Src/stm32f3xx_hal_i2c.c ****   }
4342:Drivers/STM32F3xx_HAL_Driver/Src/stm32f3xx_hal_i2c.c **** }
 9420              		.loc 1 4342 0
 9421 0030 25E0     		b	.L481
 9422              	.L477:
4324:Drivers/STM32F3xx_HAL_Driver/Src/stm32f3xx_hal_i2c.c **** 
 9423              		.loc 1 4324 0
 9424 0032 FB68     		ldr	r3, [r7, #12]
ARM GAS  /tmp/ccy0jiyr.s 			page 242


 9425 0034 5B6A     		ldr	r3, [r3, #36]
 9426 0036 FA68     		ldr	r2, [r7, #12]
 9427 0038 128D     		ldrh	r2, [r2, #40]
 9428 003a 1A44     		add	r2, r2, r3
 9429 003c FB68     		ldr	r3, [r7, #12]
 9430 003e 5A62     		str	r2, [r3, #36]
4327:Drivers/STM32F3xx_HAL_Driver/Src/stm32f3xx_hal_i2c.c ****     {
 9431              		.loc 1 4327 0
 9432 0040 FB68     		ldr	r3, [r7, #12]
 9433 0042 5B8D     		ldrh	r3, [r3, #42]	@ movhi
 9434 0044 9BB2     		uxth	r3, r3
 9435 0046 FF2B     		cmp	r3, #255
 9436 0048 03D9     		bls	.L479
4329:Drivers/STM32F3xx_HAL_Driver/Src/stm32f3xx_hal_i2c.c ****     }
 9437              		.loc 1 4329 0
 9438 004a FB68     		ldr	r3, [r7, #12]
 9439 004c FF22     		movs	r2, #255
 9440 004e 1A85     		strh	r2, [r3, #40]	@ movhi
 9441 0050 04E0     		b	.L480
 9442              	.L479:
4333:Drivers/STM32F3xx_HAL_Driver/Src/stm32f3xx_hal_i2c.c ****     }
 9443              		.loc 1 4333 0
 9444 0052 FB68     		ldr	r3, [r7, #12]
 9445 0054 5B8D     		ldrh	r3, [r3, #42]	@ movhi
 9446 0056 9AB2     		uxth	r2, r3
 9447 0058 FB68     		ldr	r3, [r7, #12]
 9448 005a 1A85     		strh	r2, [r3, #40]	@ movhi
 9449              	.L480:
4337:Drivers/STM32F3xx_HAL_Driver/Src/stm32f3xx_hal_i2c.c **** 
 9450              		.loc 1 4337 0
 9451 005c FB68     		ldr	r3, [r7, #12]
 9452 005e 986B     		ldr	r0, [r3, #56]
 9453 0060 FB68     		ldr	r3, [r7, #12]
 9454 0062 5B6A     		ldr	r3, [r3, #36]
 9455 0064 1946     		mov	r1, r3
 9456 0066 FB68     		ldr	r3, [r7, #12]
 9457 0068 1B68     		ldr	r3, [r3]
 9458 006a 2833     		adds	r3, r3, #40
 9459 006c 1A46     		mov	r2, r3
 9460 006e FB68     		ldr	r3, [r7, #12]
 9461 0070 1B8D     		ldrh	r3, [r3, #40]
 9462 0072 FFF7FEFF 		bl	HAL_DMA_Start_IT
4340:Drivers/STM32F3xx_HAL_Driver/Src/stm32f3xx_hal_i2c.c ****   }
 9463              		.loc 1 4340 0
 9464 0076 1221     		movs	r1, #18
 9465 0078 F868     		ldr	r0, [r7, #12]
 9466 007a FFF7FEFF 		bl	I2C_Enable_IRQ
 9467              	.L481:
 9468              		.loc 1 4342 0
 9469 007e 00BF     		nop
 9470 0080 1037     		adds	r7, r7, #16
 9471              	.LCFI314:
 9472              		.cfi_def_cfa_offset 8
 9473 0082 BD46     		mov	sp, r7
 9474              	.LCFI315:
 9475              		.cfi_def_cfa_register 13
 9476              		@ sp needed
ARM GAS  /tmp/ccy0jiyr.s 			page 243


 9477 0084 80BD     		pop	{r7, pc}
 9478              		.cfi_endproc
 9479              	.LFE754:
 9481              		.section	.text.I2C_DMASlaveTransmitCplt,"ax",%progbits
 9482              		.align	1
 9483              		.syntax unified
 9484              		.thumb
 9485              		.thumb_func
 9486              		.fpu fpv4-sp-d16
 9488              	I2C_DMASlaveTransmitCplt:
 9489              	.LFB755:
4343:Drivers/STM32F3xx_HAL_Driver/Src/stm32f3xx_hal_i2c.c **** 
4344:Drivers/STM32F3xx_HAL_Driver/Src/stm32f3xx_hal_i2c.c **** /**
4345:Drivers/STM32F3xx_HAL_Driver/Src/stm32f3xx_hal_i2c.c ****   * @brief  DMA I2C slave transmit process complete callback.
4346:Drivers/STM32F3xx_HAL_Driver/Src/stm32f3xx_hal_i2c.c ****   * @param  hdma DMA handle
4347:Drivers/STM32F3xx_HAL_Driver/Src/stm32f3xx_hal_i2c.c ****   * @retval None
4348:Drivers/STM32F3xx_HAL_Driver/Src/stm32f3xx_hal_i2c.c ****   */
4349:Drivers/STM32F3xx_HAL_Driver/Src/stm32f3xx_hal_i2c.c **** static void I2C_DMASlaveTransmitCplt(DMA_HandleTypeDef *hdma)
4350:Drivers/STM32F3xx_HAL_Driver/Src/stm32f3xx_hal_i2c.c **** {
 9490              		.loc 1 4350 0
 9491              		.cfi_startproc
 9492              		@ args = 0, pretend = 0, frame = 8
 9493              		@ frame_needed = 1, uses_anonymous_args = 0
 9494              		@ link register save eliminated.
 9495 0000 80B4     		push	{r7}
 9496              	.LCFI316:
 9497              		.cfi_def_cfa_offset 4
 9498              		.cfi_offset 7, -4
 9499 0002 83B0     		sub	sp, sp, #12
 9500              	.LCFI317:
 9501              		.cfi_def_cfa_offset 16
 9502 0004 00AF     		add	r7, sp, #0
 9503              	.LCFI318:
 9504              		.cfi_def_cfa_register 7
 9505 0006 7860     		str	r0, [r7, #4]
4351:Drivers/STM32F3xx_HAL_Driver/Src/stm32f3xx_hal_i2c.c ****   /* Prevent unused argument(s) compilation warning */
4352:Drivers/STM32F3xx_HAL_Driver/Src/stm32f3xx_hal_i2c.c ****   UNUSED(hdma);
4353:Drivers/STM32F3xx_HAL_Driver/Src/stm32f3xx_hal_i2c.c **** 
4354:Drivers/STM32F3xx_HAL_Driver/Src/stm32f3xx_hal_i2c.c ****   /* No specific action, Master fully manage the generation of STOP condition */
4355:Drivers/STM32F3xx_HAL_Driver/Src/stm32f3xx_hal_i2c.c ****   /* Mean that this generation can arrive at any time, at the end or during DMA process */
4356:Drivers/STM32F3xx_HAL_Driver/Src/stm32f3xx_hal_i2c.c ****   /* So STOP condition should be manage through Interrupt treatment */
4357:Drivers/STM32F3xx_HAL_Driver/Src/stm32f3xx_hal_i2c.c **** }
 9506              		.loc 1 4357 0
 9507 0008 00BF     		nop
 9508 000a 0C37     		adds	r7, r7, #12
 9509              	.LCFI319:
 9510              		.cfi_def_cfa_offset 4
 9511 000c BD46     		mov	sp, r7
 9512              	.LCFI320:
 9513              		.cfi_def_cfa_register 13
 9514              		@ sp needed
 9515 000e 5DF8047B 		ldr	r7, [sp], #4
 9516              	.LCFI321:
 9517              		.cfi_restore 7
 9518              		.cfi_def_cfa_offset 0
 9519 0012 7047     		bx	lr
 9520              		.cfi_endproc
ARM GAS  /tmp/ccy0jiyr.s 			page 244


 9521              	.LFE755:
 9523              		.section	.text.I2C_DMAMasterReceiveCplt,"ax",%progbits
 9524              		.align	1
 9525              		.syntax unified
 9526              		.thumb
 9527              		.thumb_func
 9528              		.fpu fpv4-sp-d16
 9530              	I2C_DMAMasterReceiveCplt:
 9531              	.LFB756:
4358:Drivers/STM32F3xx_HAL_Driver/Src/stm32f3xx_hal_i2c.c **** 
4359:Drivers/STM32F3xx_HAL_Driver/Src/stm32f3xx_hal_i2c.c **** /**
4360:Drivers/STM32F3xx_HAL_Driver/Src/stm32f3xx_hal_i2c.c ****   * @brief DMA I2C master receive process complete callback.
4361:Drivers/STM32F3xx_HAL_Driver/Src/stm32f3xx_hal_i2c.c ****   * @param  hdma DMA handle
4362:Drivers/STM32F3xx_HAL_Driver/Src/stm32f3xx_hal_i2c.c ****   * @retval None
4363:Drivers/STM32F3xx_HAL_Driver/Src/stm32f3xx_hal_i2c.c ****   */
4364:Drivers/STM32F3xx_HAL_Driver/Src/stm32f3xx_hal_i2c.c **** static void I2C_DMAMasterReceiveCplt(DMA_HandleTypeDef *hdma)
4365:Drivers/STM32F3xx_HAL_Driver/Src/stm32f3xx_hal_i2c.c **** {
 9532              		.loc 1 4365 0
 9533              		.cfi_startproc
 9534              		@ args = 0, pretend = 0, frame = 16
 9535              		@ frame_needed = 1, uses_anonymous_args = 0
 9536 0000 80B5     		push	{r7, lr}
 9537              	.LCFI322:
 9538              		.cfi_def_cfa_offset 8
 9539              		.cfi_offset 7, -8
 9540              		.cfi_offset 14, -4
 9541 0002 84B0     		sub	sp, sp, #16
 9542              	.LCFI323:
 9543              		.cfi_def_cfa_offset 24
 9544 0004 00AF     		add	r7, sp, #0
 9545              	.LCFI324:
 9546              		.cfi_def_cfa_register 7
 9547 0006 7860     		str	r0, [r7, #4]
4366:Drivers/STM32F3xx_HAL_Driver/Src/stm32f3xx_hal_i2c.c ****   I2C_HandleTypeDef *hi2c = (I2C_HandleTypeDef *)((DMA_HandleTypeDef *)hdma)->Parent;
 9548              		.loc 1 4366 0
 9549 0008 7B68     		ldr	r3, [r7, #4]
 9550 000a 5B6A     		ldr	r3, [r3, #36]
 9551 000c FB60     		str	r3, [r7, #12]
4367:Drivers/STM32F3xx_HAL_Driver/Src/stm32f3xx_hal_i2c.c **** 
4368:Drivers/STM32F3xx_HAL_Driver/Src/stm32f3xx_hal_i2c.c ****   /* Disable DMA Request */
4369:Drivers/STM32F3xx_HAL_Driver/Src/stm32f3xx_hal_i2c.c ****   hi2c->Instance->CR1 &= ~I2C_CR1_RXDMAEN;
 9552              		.loc 1 4369 0
 9553 000e FB68     		ldr	r3, [r7, #12]
 9554 0010 1B68     		ldr	r3, [r3]
 9555 0012 1A68     		ldr	r2, [r3]
 9556 0014 FB68     		ldr	r3, [r7, #12]
 9557 0016 1B68     		ldr	r3, [r3]
 9558 0018 22F40042 		bic	r2, r2, #32768
 9559 001c 1A60     		str	r2, [r3]
4370:Drivers/STM32F3xx_HAL_Driver/Src/stm32f3xx_hal_i2c.c **** 
4371:Drivers/STM32F3xx_HAL_Driver/Src/stm32f3xx_hal_i2c.c ****   /* If last transfer, enable STOP interrupt */
4372:Drivers/STM32F3xx_HAL_Driver/Src/stm32f3xx_hal_i2c.c ****   if (hi2c->XferCount == 0U)
 9560              		.loc 1 4372 0
 9561 001e FB68     		ldr	r3, [r7, #12]
 9562 0020 5B8D     		ldrh	r3, [r3, #42]	@ movhi
 9563 0022 9BB2     		uxth	r3, r3
 9564 0024 002B     		cmp	r3, #0
ARM GAS  /tmp/ccy0jiyr.s 			page 245


 9565 0026 04D1     		bne	.L484
4373:Drivers/STM32F3xx_HAL_Driver/Src/stm32f3xx_hal_i2c.c ****   {
4374:Drivers/STM32F3xx_HAL_Driver/Src/stm32f3xx_hal_i2c.c ****     /* Enable STOP interrupt */
4375:Drivers/STM32F3xx_HAL_Driver/Src/stm32f3xx_hal_i2c.c ****     I2C_Enable_IRQ(hi2c, I2C_XFER_CPLT_IT);
 9566              		.loc 1 4375 0
 9567 0028 1221     		movs	r1, #18
 9568 002a F868     		ldr	r0, [r7, #12]
 9569 002c FFF7FEFF 		bl	I2C_Enable_IRQ
4376:Drivers/STM32F3xx_HAL_Driver/Src/stm32f3xx_hal_i2c.c ****   }
4377:Drivers/STM32F3xx_HAL_Driver/Src/stm32f3xx_hal_i2c.c ****   /* else prepare a new DMA transfer and enable TCReload interrupt */
4378:Drivers/STM32F3xx_HAL_Driver/Src/stm32f3xx_hal_i2c.c ****   else
4379:Drivers/STM32F3xx_HAL_Driver/Src/stm32f3xx_hal_i2c.c ****   {
4380:Drivers/STM32F3xx_HAL_Driver/Src/stm32f3xx_hal_i2c.c ****     /* Update Buffer pointer */
4381:Drivers/STM32F3xx_HAL_Driver/Src/stm32f3xx_hal_i2c.c ****     hi2c->pBuffPtr += hi2c->XferSize;
4382:Drivers/STM32F3xx_HAL_Driver/Src/stm32f3xx_hal_i2c.c **** 
4383:Drivers/STM32F3xx_HAL_Driver/Src/stm32f3xx_hal_i2c.c ****     /* Set the XferSize to transfer */
4384:Drivers/STM32F3xx_HAL_Driver/Src/stm32f3xx_hal_i2c.c ****     if (hi2c->XferCount > MAX_NBYTE_SIZE)
4385:Drivers/STM32F3xx_HAL_Driver/Src/stm32f3xx_hal_i2c.c ****     {
4386:Drivers/STM32F3xx_HAL_Driver/Src/stm32f3xx_hal_i2c.c ****       hi2c->XferSize = MAX_NBYTE_SIZE;
4387:Drivers/STM32F3xx_HAL_Driver/Src/stm32f3xx_hal_i2c.c ****     }
4388:Drivers/STM32F3xx_HAL_Driver/Src/stm32f3xx_hal_i2c.c ****     else
4389:Drivers/STM32F3xx_HAL_Driver/Src/stm32f3xx_hal_i2c.c ****     {
4390:Drivers/STM32F3xx_HAL_Driver/Src/stm32f3xx_hal_i2c.c ****       hi2c->XferSize = hi2c->XferCount;
4391:Drivers/STM32F3xx_HAL_Driver/Src/stm32f3xx_hal_i2c.c ****     }
4392:Drivers/STM32F3xx_HAL_Driver/Src/stm32f3xx_hal_i2c.c **** 
4393:Drivers/STM32F3xx_HAL_Driver/Src/stm32f3xx_hal_i2c.c ****     /* Enable the DMA channel */
4394:Drivers/STM32F3xx_HAL_Driver/Src/stm32f3xx_hal_i2c.c ****     HAL_DMA_Start_IT(hi2c->hdmarx, (uint32_t)&hi2c->Instance->RXDR, (uint32_t)hi2c->pBuffPtr, hi2c-
4395:Drivers/STM32F3xx_HAL_Driver/Src/stm32f3xx_hal_i2c.c **** 
4396:Drivers/STM32F3xx_HAL_Driver/Src/stm32f3xx_hal_i2c.c ****     /* Enable TC interrupts */
4397:Drivers/STM32F3xx_HAL_Driver/Src/stm32f3xx_hal_i2c.c ****     I2C_Enable_IRQ(hi2c, I2C_XFER_RELOAD_IT);
4398:Drivers/STM32F3xx_HAL_Driver/Src/stm32f3xx_hal_i2c.c ****   }
4399:Drivers/STM32F3xx_HAL_Driver/Src/stm32f3xx_hal_i2c.c **** }
 9570              		.loc 1 4399 0
 9571 0030 25E0     		b	.L488
 9572              	.L484:
4381:Drivers/STM32F3xx_HAL_Driver/Src/stm32f3xx_hal_i2c.c **** 
 9573              		.loc 1 4381 0
 9574 0032 FB68     		ldr	r3, [r7, #12]
 9575 0034 5B6A     		ldr	r3, [r3, #36]
 9576 0036 FA68     		ldr	r2, [r7, #12]
 9577 0038 128D     		ldrh	r2, [r2, #40]
 9578 003a 1A44     		add	r2, r2, r3
 9579 003c FB68     		ldr	r3, [r7, #12]
 9580 003e 5A62     		str	r2, [r3, #36]
4384:Drivers/STM32F3xx_HAL_Driver/Src/stm32f3xx_hal_i2c.c ****     {
 9581              		.loc 1 4384 0
 9582 0040 FB68     		ldr	r3, [r7, #12]
 9583 0042 5B8D     		ldrh	r3, [r3, #42]	@ movhi
 9584 0044 9BB2     		uxth	r3, r3
 9585 0046 FF2B     		cmp	r3, #255
 9586 0048 03D9     		bls	.L486
4386:Drivers/STM32F3xx_HAL_Driver/Src/stm32f3xx_hal_i2c.c ****     }
 9587              		.loc 1 4386 0
 9588 004a FB68     		ldr	r3, [r7, #12]
 9589 004c FF22     		movs	r2, #255
 9590 004e 1A85     		strh	r2, [r3, #40]	@ movhi
 9591 0050 04E0     		b	.L487
ARM GAS  /tmp/ccy0jiyr.s 			page 246


 9592              	.L486:
4390:Drivers/STM32F3xx_HAL_Driver/Src/stm32f3xx_hal_i2c.c ****     }
 9593              		.loc 1 4390 0
 9594 0052 FB68     		ldr	r3, [r7, #12]
 9595 0054 5B8D     		ldrh	r3, [r3, #42]	@ movhi
 9596 0056 9AB2     		uxth	r2, r3
 9597 0058 FB68     		ldr	r3, [r7, #12]
 9598 005a 1A85     		strh	r2, [r3, #40]	@ movhi
 9599              	.L487:
4394:Drivers/STM32F3xx_HAL_Driver/Src/stm32f3xx_hal_i2c.c **** 
 9600              		.loc 1 4394 0
 9601 005c FB68     		ldr	r3, [r7, #12]
 9602 005e D86B     		ldr	r0, [r3, #60]
 9603 0060 FB68     		ldr	r3, [r7, #12]
 9604 0062 1B68     		ldr	r3, [r3]
 9605 0064 2433     		adds	r3, r3, #36
 9606 0066 1946     		mov	r1, r3
 9607 0068 FB68     		ldr	r3, [r7, #12]
 9608 006a 5B6A     		ldr	r3, [r3, #36]
 9609 006c 1A46     		mov	r2, r3
 9610 006e FB68     		ldr	r3, [r7, #12]
 9611 0070 1B8D     		ldrh	r3, [r3, #40]
 9612 0072 FFF7FEFF 		bl	HAL_DMA_Start_IT
4397:Drivers/STM32F3xx_HAL_Driver/Src/stm32f3xx_hal_i2c.c ****   }
 9613              		.loc 1 4397 0
 9614 0076 1221     		movs	r1, #18
 9615 0078 F868     		ldr	r0, [r7, #12]
 9616 007a FFF7FEFF 		bl	I2C_Enable_IRQ
 9617              	.L488:
 9618              		.loc 1 4399 0
 9619 007e 00BF     		nop
 9620 0080 1037     		adds	r7, r7, #16
 9621              	.LCFI325:
 9622              		.cfi_def_cfa_offset 8
 9623 0082 BD46     		mov	sp, r7
 9624              	.LCFI326:
 9625              		.cfi_def_cfa_register 13
 9626              		@ sp needed
 9627 0084 80BD     		pop	{r7, pc}
 9628              		.cfi_endproc
 9629              	.LFE756:
 9631              		.section	.text.I2C_DMASlaveReceiveCplt,"ax",%progbits
 9632              		.align	1
 9633              		.syntax unified
 9634              		.thumb
 9635              		.thumb_func
 9636              		.fpu fpv4-sp-d16
 9638              	I2C_DMASlaveReceiveCplt:
 9639              	.LFB757:
4400:Drivers/STM32F3xx_HAL_Driver/Src/stm32f3xx_hal_i2c.c **** 
4401:Drivers/STM32F3xx_HAL_Driver/Src/stm32f3xx_hal_i2c.c **** /**
4402:Drivers/STM32F3xx_HAL_Driver/Src/stm32f3xx_hal_i2c.c ****   * @brief  DMA I2C slave receive process complete callback.
4403:Drivers/STM32F3xx_HAL_Driver/Src/stm32f3xx_hal_i2c.c ****   * @param  hdma DMA handle
4404:Drivers/STM32F3xx_HAL_Driver/Src/stm32f3xx_hal_i2c.c ****   * @retval None
4405:Drivers/STM32F3xx_HAL_Driver/Src/stm32f3xx_hal_i2c.c ****   */
4406:Drivers/STM32F3xx_HAL_Driver/Src/stm32f3xx_hal_i2c.c **** static void I2C_DMASlaveReceiveCplt(DMA_HandleTypeDef *hdma)
4407:Drivers/STM32F3xx_HAL_Driver/Src/stm32f3xx_hal_i2c.c **** {
ARM GAS  /tmp/ccy0jiyr.s 			page 247


 9640              		.loc 1 4407 0
 9641              		.cfi_startproc
 9642              		@ args = 0, pretend = 0, frame = 8
 9643              		@ frame_needed = 1, uses_anonymous_args = 0
 9644              		@ link register save eliminated.
 9645 0000 80B4     		push	{r7}
 9646              	.LCFI327:
 9647              		.cfi_def_cfa_offset 4
 9648              		.cfi_offset 7, -4
 9649 0002 83B0     		sub	sp, sp, #12
 9650              	.LCFI328:
 9651              		.cfi_def_cfa_offset 16
 9652 0004 00AF     		add	r7, sp, #0
 9653              	.LCFI329:
 9654              		.cfi_def_cfa_register 7
 9655 0006 7860     		str	r0, [r7, #4]
4408:Drivers/STM32F3xx_HAL_Driver/Src/stm32f3xx_hal_i2c.c ****   /* Prevent unused argument(s) compilation warning */
4409:Drivers/STM32F3xx_HAL_Driver/Src/stm32f3xx_hal_i2c.c ****   UNUSED(hdma);
4410:Drivers/STM32F3xx_HAL_Driver/Src/stm32f3xx_hal_i2c.c **** 
4411:Drivers/STM32F3xx_HAL_Driver/Src/stm32f3xx_hal_i2c.c ****   /* No specific action, Master fully manage the generation of STOP condition */
4412:Drivers/STM32F3xx_HAL_Driver/Src/stm32f3xx_hal_i2c.c ****   /* Mean that this generation can arrive at any time, at the end or during DMA process */
4413:Drivers/STM32F3xx_HAL_Driver/Src/stm32f3xx_hal_i2c.c ****   /* So STOP condition should be manage through Interrupt treatment */
4414:Drivers/STM32F3xx_HAL_Driver/Src/stm32f3xx_hal_i2c.c **** }
 9656              		.loc 1 4414 0
 9657 0008 00BF     		nop
 9658 000a 0C37     		adds	r7, r7, #12
 9659              	.LCFI330:
 9660              		.cfi_def_cfa_offset 4
 9661 000c BD46     		mov	sp, r7
 9662              	.LCFI331:
 9663              		.cfi_def_cfa_register 13
 9664              		@ sp needed
 9665 000e 5DF8047B 		ldr	r7, [sp], #4
 9666              	.LCFI332:
 9667              		.cfi_restore 7
 9668              		.cfi_def_cfa_offset 0
 9669 0012 7047     		bx	lr
 9670              		.cfi_endproc
 9671              	.LFE757:
 9673              		.section	.text.I2C_DMAError,"ax",%progbits
 9674              		.align	1
 9675              		.syntax unified
 9676              		.thumb
 9677              		.thumb_func
 9678              		.fpu fpv4-sp-d16
 9680              	I2C_DMAError:
 9681              	.LFB758:
4415:Drivers/STM32F3xx_HAL_Driver/Src/stm32f3xx_hal_i2c.c **** 
4416:Drivers/STM32F3xx_HAL_Driver/Src/stm32f3xx_hal_i2c.c **** /**
4417:Drivers/STM32F3xx_HAL_Driver/Src/stm32f3xx_hal_i2c.c ****   * @brief  DMA I2C communication error callback.
4418:Drivers/STM32F3xx_HAL_Driver/Src/stm32f3xx_hal_i2c.c ****   * @param hdma DMA handle
4419:Drivers/STM32F3xx_HAL_Driver/Src/stm32f3xx_hal_i2c.c ****   * @retval None
4420:Drivers/STM32F3xx_HAL_Driver/Src/stm32f3xx_hal_i2c.c ****   */
4421:Drivers/STM32F3xx_HAL_Driver/Src/stm32f3xx_hal_i2c.c **** static void I2C_DMAError(DMA_HandleTypeDef *hdma)
4422:Drivers/STM32F3xx_HAL_Driver/Src/stm32f3xx_hal_i2c.c **** {
 9682              		.loc 1 4422 0
 9683              		.cfi_startproc
ARM GAS  /tmp/ccy0jiyr.s 			page 248


 9684              		@ args = 0, pretend = 0, frame = 16
 9685              		@ frame_needed = 1, uses_anonymous_args = 0
 9686 0000 80B5     		push	{r7, lr}
 9687              	.LCFI333:
 9688              		.cfi_def_cfa_offset 8
 9689              		.cfi_offset 7, -8
 9690              		.cfi_offset 14, -4
 9691 0002 84B0     		sub	sp, sp, #16
 9692              	.LCFI334:
 9693              		.cfi_def_cfa_offset 24
 9694 0004 00AF     		add	r7, sp, #0
 9695              	.LCFI335:
 9696              		.cfi_def_cfa_register 7
 9697 0006 7860     		str	r0, [r7, #4]
4423:Drivers/STM32F3xx_HAL_Driver/Src/stm32f3xx_hal_i2c.c ****   I2C_HandleTypeDef *hi2c = (I2C_HandleTypeDef *)((DMA_HandleTypeDef *)hdma)->Parent;
 9698              		.loc 1 4423 0
 9699 0008 7B68     		ldr	r3, [r7, #4]
 9700 000a 5B6A     		ldr	r3, [r3, #36]
 9701 000c FB60     		str	r3, [r7, #12]
4424:Drivers/STM32F3xx_HAL_Driver/Src/stm32f3xx_hal_i2c.c **** 
4425:Drivers/STM32F3xx_HAL_Driver/Src/stm32f3xx_hal_i2c.c ****   /* Disable Acknowledge */
4426:Drivers/STM32F3xx_HAL_Driver/Src/stm32f3xx_hal_i2c.c ****   hi2c->Instance->CR2 |= I2C_CR2_NACK;
 9702              		.loc 1 4426 0
 9703 000e FB68     		ldr	r3, [r7, #12]
 9704 0010 1B68     		ldr	r3, [r3]
 9705 0012 5A68     		ldr	r2, [r3, #4]
 9706 0014 FB68     		ldr	r3, [r7, #12]
 9707 0016 1B68     		ldr	r3, [r3]
 9708 0018 42F40042 		orr	r2, r2, #32768
 9709 001c 5A60     		str	r2, [r3, #4]
4427:Drivers/STM32F3xx_HAL_Driver/Src/stm32f3xx_hal_i2c.c **** 
4428:Drivers/STM32F3xx_HAL_Driver/Src/stm32f3xx_hal_i2c.c ****   /* Call the corresponding callback to inform upper layer of End of Transfer */
4429:Drivers/STM32F3xx_HAL_Driver/Src/stm32f3xx_hal_i2c.c ****   I2C_ITError(hi2c, HAL_I2C_ERROR_DMA);
 9710              		.loc 1 4429 0
 9711 001e 1021     		movs	r1, #16
 9712 0020 F868     		ldr	r0, [r7, #12]
 9713 0022 FFF7FEFF 		bl	I2C_ITError
4430:Drivers/STM32F3xx_HAL_Driver/Src/stm32f3xx_hal_i2c.c **** }
 9714              		.loc 1 4430 0
 9715 0026 00BF     		nop
 9716 0028 1037     		adds	r7, r7, #16
 9717              	.LCFI336:
 9718              		.cfi_def_cfa_offset 8
 9719 002a BD46     		mov	sp, r7
 9720              	.LCFI337:
 9721              		.cfi_def_cfa_register 13
 9722              		@ sp needed
 9723 002c 80BD     		pop	{r7, pc}
 9724              		.cfi_endproc
 9725              	.LFE758:
 9727              		.section	.text.I2C_DMAAbort,"ax",%progbits
 9728              		.align	1
 9729              		.syntax unified
 9730              		.thumb
 9731              		.thumb_func
 9732              		.fpu fpv4-sp-d16
 9734              	I2C_DMAAbort:
ARM GAS  /tmp/ccy0jiyr.s 			page 249


 9735              	.LFB759:
4431:Drivers/STM32F3xx_HAL_Driver/Src/stm32f3xx_hal_i2c.c **** 
4432:Drivers/STM32F3xx_HAL_Driver/Src/stm32f3xx_hal_i2c.c **** /**
4433:Drivers/STM32F3xx_HAL_Driver/Src/stm32f3xx_hal_i2c.c ****   * @brief DMA I2C communication abort callback
4434:Drivers/STM32F3xx_HAL_Driver/Src/stm32f3xx_hal_i2c.c ****   *        (To be called at end of DMA Abort procedure).
4435:Drivers/STM32F3xx_HAL_Driver/Src/stm32f3xx_hal_i2c.c ****   * @param hdma DMA handle.
4436:Drivers/STM32F3xx_HAL_Driver/Src/stm32f3xx_hal_i2c.c ****   * @retval None
4437:Drivers/STM32F3xx_HAL_Driver/Src/stm32f3xx_hal_i2c.c ****   */
4438:Drivers/STM32F3xx_HAL_Driver/Src/stm32f3xx_hal_i2c.c **** static void I2C_DMAAbort(DMA_HandleTypeDef *hdma)
4439:Drivers/STM32F3xx_HAL_Driver/Src/stm32f3xx_hal_i2c.c **** {
 9736              		.loc 1 4439 0
 9737              		.cfi_startproc
 9738              		@ args = 0, pretend = 0, frame = 16
 9739              		@ frame_needed = 1, uses_anonymous_args = 0
 9740 0000 80B5     		push	{r7, lr}
 9741              	.LCFI338:
 9742              		.cfi_def_cfa_offset 8
 9743              		.cfi_offset 7, -8
 9744              		.cfi_offset 14, -4
 9745 0002 84B0     		sub	sp, sp, #16
 9746              	.LCFI339:
 9747              		.cfi_def_cfa_offset 24
 9748 0004 00AF     		add	r7, sp, #0
 9749              	.LCFI340:
 9750              		.cfi_def_cfa_register 7
 9751 0006 7860     		str	r0, [r7, #4]
4440:Drivers/STM32F3xx_HAL_Driver/Src/stm32f3xx_hal_i2c.c ****   I2C_HandleTypeDef *hi2c = (I2C_HandleTypeDef *)((DMA_HandleTypeDef *)hdma)->Parent;
 9752              		.loc 1 4440 0
 9753 0008 7B68     		ldr	r3, [r7, #4]
 9754 000a 5B6A     		ldr	r3, [r3, #36]
 9755 000c FB60     		str	r3, [r7, #12]
4441:Drivers/STM32F3xx_HAL_Driver/Src/stm32f3xx_hal_i2c.c **** 
4442:Drivers/STM32F3xx_HAL_Driver/Src/stm32f3xx_hal_i2c.c ****   /* Disable Acknowledge */
4443:Drivers/STM32F3xx_HAL_Driver/Src/stm32f3xx_hal_i2c.c ****   hi2c->Instance->CR2 |= I2C_CR2_NACK;
 9756              		.loc 1 4443 0
 9757 000e FB68     		ldr	r3, [r7, #12]
 9758 0010 1B68     		ldr	r3, [r3]
 9759 0012 5A68     		ldr	r2, [r3, #4]
 9760 0014 FB68     		ldr	r3, [r7, #12]
 9761 0016 1B68     		ldr	r3, [r3]
 9762 0018 42F40042 		orr	r2, r2, #32768
 9763 001c 5A60     		str	r2, [r3, #4]
4444:Drivers/STM32F3xx_HAL_Driver/Src/stm32f3xx_hal_i2c.c **** 
4445:Drivers/STM32F3xx_HAL_Driver/Src/stm32f3xx_hal_i2c.c ****   /* Reset AbortCpltCallback */
4446:Drivers/STM32F3xx_HAL_Driver/Src/stm32f3xx_hal_i2c.c ****   hi2c->hdmatx->XferAbortCallback = NULL;
 9764              		.loc 1 4446 0
 9765 001e FB68     		ldr	r3, [r7, #12]
 9766 0020 9B6B     		ldr	r3, [r3, #56]
 9767 0022 0022     		movs	r2, #0
 9768 0024 5A63     		str	r2, [r3, #52]
4447:Drivers/STM32F3xx_HAL_Driver/Src/stm32f3xx_hal_i2c.c ****   hi2c->hdmarx->XferAbortCallback = NULL;
 9769              		.loc 1 4447 0
 9770 0026 FB68     		ldr	r3, [r7, #12]
 9771 0028 DB6B     		ldr	r3, [r3, #60]
 9772 002a 0022     		movs	r2, #0
 9773 002c 5A63     		str	r2, [r3, #52]
4448:Drivers/STM32F3xx_HAL_Driver/Src/stm32f3xx_hal_i2c.c **** 
ARM GAS  /tmp/ccy0jiyr.s 			page 250


4449:Drivers/STM32F3xx_HAL_Driver/Src/stm32f3xx_hal_i2c.c ****   /* Check if come from abort from user */
4450:Drivers/STM32F3xx_HAL_Driver/Src/stm32f3xx_hal_i2c.c ****   if (hi2c->State == HAL_I2C_STATE_ABORT)
 9774              		.loc 1 4450 0
 9775 002e FB68     		ldr	r3, [r7, #12]
 9776 0030 93F84130 		ldrb	r3, [r3, #65]
 9777 0034 DBB2     		uxtb	r3, r3
 9778 0036 602B     		cmp	r3, #96
 9779 0038 07D1     		bne	.L492
4451:Drivers/STM32F3xx_HAL_Driver/Src/stm32f3xx_hal_i2c.c ****   {
4452:Drivers/STM32F3xx_HAL_Driver/Src/stm32f3xx_hal_i2c.c ****     hi2c->State = HAL_I2C_STATE_READY;
 9780              		.loc 1 4452 0
 9781 003a FB68     		ldr	r3, [r7, #12]
 9782 003c 2022     		movs	r2, #32
 9783 003e 83F84120 		strb	r2, [r3, #65]
4453:Drivers/STM32F3xx_HAL_Driver/Src/stm32f3xx_hal_i2c.c **** 
4454:Drivers/STM32F3xx_HAL_Driver/Src/stm32f3xx_hal_i2c.c ****     /* Call the corresponding callback to inform upper layer of End of Transfer */
4455:Drivers/STM32F3xx_HAL_Driver/Src/stm32f3xx_hal_i2c.c ****     HAL_I2C_AbortCpltCallback(hi2c);
 9784              		.loc 1 4455 0
 9785 0042 F868     		ldr	r0, [r7, #12]
 9786 0044 FFF7FEFF 		bl	HAL_I2C_AbortCpltCallback
4456:Drivers/STM32F3xx_HAL_Driver/Src/stm32f3xx_hal_i2c.c ****   }
4457:Drivers/STM32F3xx_HAL_Driver/Src/stm32f3xx_hal_i2c.c ****   else
4458:Drivers/STM32F3xx_HAL_Driver/Src/stm32f3xx_hal_i2c.c ****   {
4459:Drivers/STM32F3xx_HAL_Driver/Src/stm32f3xx_hal_i2c.c ****     /* Call the corresponding callback to inform upper layer of End of Transfer */
4460:Drivers/STM32F3xx_HAL_Driver/Src/stm32f3xx_hal_i2c.c ****     HAL_I2C_ErrorCallback(hi2c);
4461:Drivers/STM32F3xx_HAL_Driver/Src/stm32f3xx_hal_i2c.c ****   }
4462:Drivers/STM32F3xx_HAL_Driver/Src/stm32f3xx_hal_i2c.c **** }
 9787              		.loc 1 4462 0
 9788 0048 02E0     		b	.L494
 9789              	.L492:
4460:Drivers/STM32F3xx_HAL_Driver/Src/stm32f3xx_hal_i2c.c ****   }
 9790              		.loc 1 4460 0
 9791 004a F868     		ldr	r0, [r7, #12]
 9792 004c FFF7FEFF 		bl	HAL_I2C_ErrorCallback
 9793              	.L494:
 9794              		.loc 1 4462 0
 9795 0050 00BF     		nop
 9796 0052 1037     		adds	r7, r7, #16
 9797              	.LCFI341:
 9798              		.cfi_def_cfa_offset 8
 9799 0054 BD46     		mov	sp, r7
 9800              	.LCFI342:
 9801              		.cfi_def_cfa_register 13
 9802              		@ sp needed
 9803 0056 80BD     		pop	{r7, pc}
 9804              		.cfi_endproc
 9805              	.LFE759:
 9807              		.section	.text.I2C_WaitOnFlagUntilTimeout,"ax",%progbits
 9808              		.align	1
 9809              		.syntax unified
 9810              		.thumb
 9811              		.thumb_func
 9812              		.fpu fpv4-sp-d16
 9814              	I2C_WaitOnFlagUntilTimeout:
 9815              	.LFB760:
4463:Drivers/STM32F3xx_HAL_Driver/Src/stm32f3xx_hal_i2c.c **** 
4464:Drivers/STM32F3xx_HAL_Driver/Src/stm32f3xx_hal_i2c.c **** /**
ARM GAS  /tmp/ccy0jiyr.s 			page 251


4465:Drivers/STM32F3xx_HAL_Driver/Src/stm32f3xx_hal_i2c.c ****   * @brief  This function handles I2C Communication Timeout.
4466:Drivers/STM32F3xx_HAL_Driver/Src/stm32f3xx_hal_i2c.c ****   * @param  hi2c Pointer to a I2C_HandleTypeDef structure that contains
4467:Drivers/STM32F3xx_HAL_Driver/Src/stm32f3xx_hal_i2c.c ****   *                the configuration information for the specified I2C.
4468:Drivers/STM32F3xx_HAL_Driver/Src/stm32f3xx_hal_i2c.c ****   * @param  Flag Specifies the I2C flag to check.
4469:Drivers/STM32F3xx_HAL_Driver/Src/stm32f3xx_hal_i2c.c ****   * @param  Status The new Flag status (SET or RESET).
4470:Drivers/STM32F3xx_HAL_Driver/Src/stm32f3xx_hal_i2c.c ****   * @param  Timeout Timeout duration
4471:Drivers/STM32F3xx_HAL_Driver/Src/stm32f3xx_hal_i2c.c ****   * @param  Tickstart Tick start value
4472:Drivers/STM32F3xx_HAL_Driver/Src/stm32f3xx_hal_i2c.c ****   * @retval HAL status
4473:Drivers/STM32F3xx_HAL_Driver/Src/stm32f3xx_hal_i2c.c ****   */
4474:Drivers/STM32F3xx_HAL_Driver/Src/stm32f3xx_hal_i2c.c **** static HAL_StatusTypeDef I2C_WaitOnFlagUntilTimeout(I2C_HandleTypeDef *hi2c, uint32_t Flag, FlagSta
4475:Drivers/STM32F3xx_HAL_Driver/Src/stm32f3xx_hal_i2c.c **** {
 9816              		.loc 1 4475 0
 9817              		.cfi_startproc
 9818              		@ args = 4, pretend = 0, frame = 16
 9819              		@ frame_needed = 1, uses_anonymous_args = 0
 9820 0000 80B5     		push	{r7, lr}
 9821              	.LCFI343:
 9822              		.cfi_def_cfa_offset 8
 9823              		.cfi_offset 7, -8
 9824              		.cfi_offset 14, -4
 9825 0002 84B0     		sub	sp, sp, #16
 9826              	.LCFI344:
 9827              		.cfi_def_cfa_offset 24
 9828 0004 00AF     		add	r7, sp, #0
 9829              	.LCFI345:
 9830              		.cfi_def_cfa_register 7
 9831 0006 F860     		str	r0, [r7, #12]
 9832 0008 B960     		str	r1, [r7, #8]
 9833 000a 3B60     		str	r3, [r7]
 9834 000c 1346     		mov	r3, r2
 9835 000e FB71     		strb	r3, [r7, #7]
4476:Drivers/STM32F3xx_HAL_Driver/Src/stm32f3xx_hal_i2c.c ****   while (__HAL_I2C_GET_FLAG(hi2c, Flag) == Status)
 9836              		.loc 1 4476 0
 9837 0010 1CE0     		b	.L496
 9838              	.L499:
4477:Drivers/STM32F3xx_HAL_Driver/Src/stm32f3xx_hal_i2c.c ****   {
4478:Drivers/STM32F3xx_HAL_Driver/Src/stm32f3xx_hal_i2c.c ****     /* Check for the Timeout */
4479:Drivers/STM32F3xx_HAL_Driver/Src/stm32f3xx_hal_i2c.c ****     if (Timeout != HAL_MAX_DELAY)
 9839              		.loc 1 4479 0
 9840 0012 3B68     		ldr	r3, [r7]
 9841 0014 B3F1FF3F 		cmp	r3, #-1
 9842 0018 18D0     		beq	.L496
4480:Drivers/STM32F3xx_HAL_Driver/Src/stm32f3xx_hal_i2c.c ****     {
4481:Drivers/STM32F3xx_HAL_Driver/Src/stm32f3xx_hal_i2c.c ****       if ((Timeout == 0U) || ((HAL_GetTick() - Tickstart) > Timeout))
 9843              		.loc 1 4481 0
 9844 001a 3B68     		ldr	r3, [r7]
 9845 001c 002B     		cmp	r3, #0
 9846 001e 07D0     		beq	.L497
 9847              		.loc 1 4481 0 is_stmt 0 discriminator 1
 9848 0020 FFF7FEFF 		bl	HAL_GetTick
 9849 0024 0246     		mov	r2, r0
 9850 0026 BB69     		ldr	r3, [r7, #24]
 9851 0028 D31A     		subs	r3, r2, r3
 9852 002a 3A68     		ldr	r2, [r7]
 9853 002c 9A42     		cmp	r2, r3
 9854 002e 0DD2     		bcs	.L496
 9855              	.L497:
ARM GAS  /tmp/ccy0jiyr.s 			page 252


4482:Drivers/STM32F3xx_HAL_Driver/Src/stm32f3xx_hal_i2c.c ****       {
4483:Drivers/STM32F3xx_HAL_Driver/Src/stm32f3xx_hal_i2c.c ****         hi2c->State = HAL_I2C_STATE_READY;
 9856              		.loc 1 4483 0 is_stmt 1
 9857 0030 FB68     		ldr	r3, [r7, #12]
 9858 0032 2022     		movs	r2, #32
 9859 0034 83F84120 		strb	r2, [r3, #65]
4484:Drivers/STM32F3xx_HAL_Driver/Src/stm32f3xx_hal_i2c.c ****         hi2c->Mode = HAL_I2C_MODE_NONE;
 9860              		.loc 1 4484 0
 9861 0038 FB68     		ldr	r3, [r7, #12]
 9862 003a 0022     		movs	r2, #0
 9863 003c 83F84220 		strb	r2, [r3, #66]
4485:Drivers/STM32F3xx_HAL_Driver/Src/stm32f3xx_hal_i2c.c **** 
4486:Drivers/STM32F3xx_HAL_Driver/Src/stm32f3xx_hal_i2c.c ****         /* Process Unlocked */
4487:Drivers/STM32F3xx_HAL_Driver/Src/stm32f3xx_hal_i2c.c ****         __HAL_UNLOCK(hi2c);
 9864              		.loc 1 4487 0
 9865 0040 FB68     		ldr	r3, [r7, #12]
 9866 0042 0022     		movs	r2, #0
 9867 0044 83F84020 		strb	r2, [r3, #64]
4488:Drivers/STM32F3xx_HAL_Driver/Src/stm32f3xx_hal_i2c.c ****         return HAL_TIMEOUT;
 9868              		.loc 1 4488 0
 9869 0048 0323     		movs	r3, #3
 9870 004a 0FE0     		b	.L498
 9871              	.L496:
4476:Drivers/STM32F3xx_HAL_Driver/Src/stm32f3xx_hal_i2c.c ****   {
 9872              		.loc 1 4476 0
 9873 004c FB68     		ldr	r3, [r7, #12]
 9874 004e 1B68     		ldr	r3, [r3]
 9875 0050 9A69     		ldr	r2, [r3, #24]
 9876 0052 BB68     		ldr	r3, [r7, #8]
 9877 0054 1340     		ands	r3, r3, r2
 9878 0056 BA68     		ldr	r2, [r7, #8]
 9879 0058 9A42     		cmp	r2, r3
 9880 005a 0CBF     		ite	eq
 9881 005c 0123     		moveq	r3, #1
 9882 005e 0023     		movne	r3, #0
 9883 0060 DBB2     		uxtb	r3, r3
 9884 0062 1A46     		mov	r2, r3
 9885 0064 FB79     		ldrb	r3, [r7, #7]	@ zero_extendqisi2
 9886 0066 9A42     		cmp	r2, r3
 9887 0068 D3D0     		beq	.L499
4489:Drivers/STM32F3xx_HAL_Driver/Src/stm32f3xx_hal_i2c.c ****       }
4490:Drivers/STM32F3xx_HAL_Driver/Src/stm32f3xx_hal_i2c.c ****     }
4491:Drivers/STM32F3xx_HAL_Driver/Src/stm32f3xx_hal_i2c.c ****   }
4492:Drivers/STM32F3xx_HAL_Driver/Src/stm32f3xx_hal_i2c.c ****   return HAL_OK;
 9888              		.loc 1 4492 0
 9889 006a 0023     		movs	r3, #0
 9890              	.L498:
4493:Drivers/STM32F3xx_HAL_Driver/Src/stm32f3xx_hal_i2c.c **** }
 9891              		.loc 1 4493 0
 9892 006c 1846     		mov	r0, r3
 9893 006e 1037     		adds	r7, r7, #16
 9894              	.LCFI346:
 9895              		.cfi_def_cfa_offset 8
 9896 0070 BD46     		mov	sp, r7
 9897              	.LCFI347:
 9898              		.cfi_def_cfa_register 13
 9899              		@ sp needed
ARM GAS  /tmp/ccy0jiyr.s 			page 253


 9900 0072 80BD     		pop	{r7, pc}
 9901              		.cfi_endproc
 9902              	.LFE760:
 9904              		.section	.text.I2C_WaitOnTXISFlagUntilTimeout,"ax",%progbits
 9905              		.align	1
 9906              		.syntax unified
 9907              		.thumb
 9908              		.thumb_func
 9909              		.fpu fpv4-sp-d16
 9911              	I2C_WaitOnTXISFlagUntilTimeout:
 9912              	.LFB761:
4494:Drivers/STM32F3xx_HAL_Driver/Src/stm32f3xx_hal_i2c.c **** 
4495:Drivers/STM32F3xx_HAL_Driver/Src/stm32f3xx_hal_i2c.c **** /**
4496:Drivers/STM32F3xx_HAL_Driver/Src/stm32f3xx_hal_i2c.c ****   * @brief  This function handles I2C Communication Timeout for specific usage of TXIS flag.
4497:Drivers/STM32F3xx_HAL_Driver/Src/stm32f3xx_hal_i2c.c ****   * @param  hi2c Pointer to a I2C_HandleTypeDef structure that contains
4498:Drivers/STM32F3xx_HAL_Driver/Src/stm32f3xx_hal_i2c.c ****   *                the configuration information for the specified I2C.
4499:Drivers/STM32F3xx_HAL_Driver/Src/stm32f3xx_hal_i2c.c ****   * @param  Timeout Timeout duration
4500:Drivers/STM32F3xx_HAL_Driver/Src/stm32f3xx_hal_i2c.c ****   * @param  Tickstart Tick start value
4501:Drivers/STM32F3xx_HAL_Driver/Src/stm32f3xx_hal_i2c.c ****   * @retval HAL status
4502:Drivers/STM32F3xx_HAL_Driver/Src/stm32f3xx_hal_i2c.c ****   */
4503:Drivers/STM32F3xx_HAL_Driver/Src/stm32f3xx_hal_i2c.c **** static HAL_StatusTypeDef I2C_WaitOnTXISFlagUntilTimeout(I2C_HandleTypeDef *hi2c, uint32_t Timeout, 
4504:Drivers/STM32F3xx_HAL_Driver/Src/stm32f3xx_hal_i2c.c **** {
 9913              		.loc 1 4504 0
 9914              		.cfi_startproc
 9915              		@ args = 0, pretend = 0, frame = 16
 9916              		@ frame_needed = 1, uses_anonymous_args = 0
 9917 0000 80B5     		push	{r7, lr}
 9918              	.LCFI348:
 9919              		.cfi_def_cfa_offset 8
 9920              		.cfi_offset 7, -8
 9921              		.cfi_offset 14, -4
 9922 0002 84B0     		sub	sp, sp, #16
 9923              	.LCFI349:
 9924              		.cfi_def_cfa_offset 24
 9925 0004 00AF     		add	r7, sp, #0
 9926              	.LCFI350:
 9927              		.cfi_def_cfa_register 7
 9928 0006 F860     		str	r0, [r7, #12]
 9929 0008 B960     		str	r1, [r7, #8]
 9930 000a 7A60     		str	r2, [r7, #4]
4505:Drivers/STM32F3xx_HAL_Driver/Src/stm32f3xx_hal_i2c.c ****   while (__HAL_I2C_GET_FLAG(hi2c, I2C_FLAG_TXIS) == RESET)
 9931              		.loc 1 4505 0
 9932 000c 2CE0     		b	.L501
 9933              	.L505:
4506:Drivers/STM32F3xx_HAL_Driver/Src/stm32f3xx_hal_i2c.c ****   {
4507:Drivers/STM32F3xx_HAL_Driver/Src/stm32f3xx_hal_i2c.c ****     /* Check if a NACK is detected */
4508:Drivers/STM32F3xx_HAL_Driver/Src/stm32f3xx_hal_i2c.c ****     if (I2C_IsAcknowledgeFailed(hi2c, Timeout, Tickstart) != HAL_OK)
 9934              		.loc 1 4508 0
 9935 000e 7A68     		ldr	r2, [r7, #4]
 9936 0010 B968     		ldr	r1, [r7, #8]
 9937 0012 F868     		ldr	r0, [r7, #12]
 9938 0014 FFF7FEFF 		bl	I2C_IsAcknowledgeFailed
 9939 0018 0346     		mov	r3, r0
 9940 001a 002B     		cmp	r3, #0
 9941 001c 01D0     		beq	.L502
4509:Drivers/STM32F3xx_HAL_Driver/Src/stm32f3xx_hal_i2c.c ****     {
4510:Drivers/STM32F3xx_HAL_Driver/Src/stm32f3xx_hal_i2c.c ****       return HAL_ERROR;
ARM GAS  /tmp/ccy0jiyr.s 			page 254


 9942              		.loc 1 4510 0
 9943 001e 0123     		movs	r3, #1
 9944 0020 2AE0     		b	.L503
 9945              	.L502:
4511:Drivers/STM32F3xx_HAL_Driver/Src/stm32f3xx_hal_i2c.c ****     }
4512:Drivers/STM32F3xx_HAL_Driver/Src/stm32f3xx_hal_i2c.c **** 
4513:Drivers/STM32F3xx_HAL_Driver/Src/stm32f3xx_hal_i2c.c ****     /* Check for the Timeout */
4514:Drivers/STM32F3xx_HAL_Driver/Src/stm32f3xx_hal_i2c.c ****     if (Timeout != HAL_MAX_DELAY)
 9946              		.loc 1 4514 0
 9947 0022 BB68     		ldr	r3, [r7, #8]
 9948 0024 B3F1FF3F 		cmp	r3, #-1
 9949 0028 1ED0     		beq	.L501
4515:Drivers/STM32F3xx_HAL_Driver/Src/stm32f3xx_hal_i2c.c ****     {
4516:Drivers/STM32F3xx_HAL_Driver/Src/stm32f3xx_hal_i2c.c ****       if ((Timeout == 0U) || ((HAL_GetTick() - Tickstart) > Timeout))
 9950              		.loc 1 4516 0
 9951 002a BB68     		ldr	r3, [r7, #8]
 9952 002c 002B     		cmp	r3, #0
 9953 002e 07D0     		beq	.L504
 9954              		.loc 1 4516 0 is_stmt 0 discriminator 1
 9955 0030 FFF7FEFF 		bl	HAL_GetTick
 9956 0034 0246     		mov	r2, r0
 9957 0036 7B68     		ldr	r3, [r7, #4]
 9958 0038 D31A     		subs	r3, r2, r3
 9959 003a BA68     		ldr	r2, [r7, #8]
 9960 003c 9A42     		cmp	r2, r3
 9961 003e 13D2     		bcs	.L501
 9962              	.L504:
4517:Drivers/STM32F3xx_HAL_Driver/Src/stm32f3xx_hal_i2c.c ****       {
4518:Drivers/STM32F3xx_HAL_Driver/Src/stm32f3xx_hal_i2c.c ****         hi2c->ErrorCode |= HAL_I2C_ERROR_TIMEOUT;
 9963              		.loc 1 4518 0 is_stmt 1
 9964 0040 FB68     		ldr	r3, [r7, #12]
 9965 0042 5B6C     		ldr	r3, [r3, #68]
 9966 0044 43F02002 		orr	r2, r3, #32
 9967 0048 FB68     		ldr	r3, [r7, #12]
 9968 004a 5A64     		str	r2, [r3, #68]
4519:Drivers/STM32F3xx_HAL_Driver/Src/stm32f3xx_hal_i2c.c ****         hi2c->State = HAL_I2C_STATE_READY;
 9969              		.loc 1 4519 0
 9970 004c FB68     		ldr	r3, [r7, #12]
 9971 004e 2022     		movs	r2, #32
 9972 0050 83F84120 		strb	r2, [r3, #65]
4520:Drivers/STM32F3xx_HAL_Driver/Src/stm32f3xx_hal_i2c.c ****         hi2c->Mode = HAL_I2C_MODE_NONE;
 9973              		.loc 1 4520 0
 9974 0054 FB68     		ldr	r3, [r7, #12]
 9975 0056 0022     		movs	r2, #0
 9976 0058 83F84220 		strb	r2, [r3, #66]
4521:Drivers/STM32F3xx_HAL_Driver/Src/stm32f3xx_hal_i2c.c **** 
4522:Drivers/STM32F3xx_HAL_Driver/Src/stm32f3xx_hal_i2c.c ****         /* Process Unlocked */
4523:Drivers/STM32F3xx_HAL_Driver/Src/stm32f3xx_hal_i2c.c ****         __HAL_UNLOCK(hi2c);
 9977              		.loc 1 4523 0
 9978 005c FB68     		ldr	r3, [r7, #12]
 9979 005e 0022     		movs	r2, #0
 9980 0060 83F84020 		strb	r2, [r3, #64]
4524:Drivers/STM32F3xx_HAL_Driver/Src/stm32f3xx_hal_i2c.c **** 
4525:Drivers/STM32F3xx_HAL_Driver/Src/stm32f3xx_hal_i2c.c ****         return HAL_TIMEOUT;
 9981              		.loc 1 4525 0
 9982 0064 0323     		movs	r3, #3
 9983 0066 07E0     		b	.L503
ARM GAS  /tmp/ccy0jiyr.s 			page 255


 9984              	.L501:
4505:Drivers/STM32F3xx_HAL_Driver/Src/stm32f3xx_hal_i2c.c ****   {
 9985              		.loc 1 4505 0
 9986 0068 FB68     		ldr	r3, [r7, #12]
 9987 006a 1B68     		ldr	r3, [r3]
 9988 006c 9B69     		ldr	r3, [r3, #24]
 9989 006e 03F00203 		and	r3, r3, #2
 9990 0072 022B     		cmp	r3, #2
 9991 0074 CBD1     		bne	.L505
4526:Drivers/STM32F3xx_HAL_Driver/Src/stm32f3xx_hal_i2c.c ****       }
4527:Drivers/STM32F3xx_HAL_Driver/Src/stm32f3xx_hal_i2c.c ****     }
4528:Drivers/STM32F3xx_HAL_Driver/Src/stm32f3xx_hal_i2c.c ****   }
4529:Drivers/STM32F3xx_HAL_Driver/Src/stm32f3xx_hal_i2c.c ****   return HAL_OK;
 9992              		.loc 1 4529 0
 9993 0076 0023     		movs	r3, #0
 9994              	.L503:
4530:Drivers/STM32F3xx_HAL_Driver/Src/stm32f3xx_hal_i2c.c **** }
 9995              		.loc 1 4530 0
 9996 0078 1846     		mov	r0, r3
 9997 007a 1037     		adds	r7, r7, #16
 9998              	.LCFI351:
 9999              		.cfi_def_cfa_offset 8
 10000 007c BD46     		mov	sp, r7
 10001              	.LCFI352:
 10002              		.cfi_def_cfa_register 13
 10003              		@ sp needed
 10004 007e 80BD     		pop	{r7, pc}
 10005              		.cfi_endproc
 10006              	.LFE761:
 10008              		.section	.text.I2C_WaitOnSTOPFlagUntilTimeout,"ax",%progbits
 10009              		.align	1
 10010              		.syntax unified
 10011              		.thumb
 10012              		.thumb_func
 10013              		.fpu fpv4-sp-d16
 10015              	I2C_WaitOnSTOPFlagUntilTimeout:
 10016              	.LFB762:
4531:Drivers/STM32F3xx_HAL_Driver/Src/stm32f3xx_hal_i2c.c **** 
4532:Drivers/STM32F3xx_HAL_Driver/Src/stm32f3xx_hal_i2c.c **** /**
4533:Drivers/STM32F3xx_HAL_Driver/Src/stm32f3xx_hal_i2c.c ****   * @brief  This function handles I2C Communication Timeout for specific usage of STOP flag.
4534:Drivers/STM32F3xx_HAL_Driver/Src/stm32f3xx_hal_i2c.c ****   * @param  hi2c Pointer to a I2C_HandleTypeDef structure that contains
4535:Drivers/STM32F3xx_HAL_Driver/Src/stm32f3xx_hal_i2c.c ****   *                the configuration information for the specified I2C.
4536:Drivers/STM32F3xx_HAL_Driver/Src/stm32f3xx_hal_i2c.c ****   * @param  Timeout Timeout duration
4537:Drivers/STM32F3xx_HAL_Driver/Src/stm32f3xx_hal_i2c.c ****   * @param  Tickstart Tick start value
4538:Drivers/STM32F3xx_HAL_Driver/Src/stm32f3xx_hal_i2c.c ****   * @retval HAL status
4539:Drivers/STM32F3xx_HAL_Driver/Src/stm32f3xx_hal_i2c.c ****   */
4540:Drivers/STM32F3xx_HAL_Driver/Src/stm32f3xx_hal_i2c.c **** static HAL_StatusTypeDef I2C_WaitOnSTOPFlagUntilTimeout(I2C_HandleTypeDef *hi2c, uint32_t Timeout, 
4541:Drivers/STM32F3xx_HAL_Driver/Src/stm32f3xx_hal_i2c.c **** {
 10017              		.loc 1 4541 0
 10018              		.cfi_startproc
 10019              		@ args = 0, pretend = 0, frame = 16
 10020              		@ frame_needed = 1, uses_anonymous_args = 0
 10021 0000 80B5     		push	{r7, lr}
 10022              	.LCFI353:
 10023              		.cfi_def_cfa_offset 8
 10024              		.cfi_offset 7, -8
 10025              		.cfi_offset 14, -4
ARM GAS  /tmp/ccy0jiyr.s 			page 256


 10026 0002 84B0     		sub	sp, sp, #16
 10027              	.LCFI354:
 10028              		.cfi_def_cfa_offset 24
 10029 0004 00AF     		add	r7, sp, #0
 10030              	.LCFI355:
 10031              		.cfi_def_cfa_register 7
 10032 0006 F860     		str	r0, [r7, #12]
 10033 0008 B960     		str	r1, [r7, #8]
 10034 000a 7A60     		str	r2, [r7, #4]
4542:Drivers/STM32F3xx_HAL_Driver/Src/stm32f3xx_hal_i2c.c ****   while (__HAL_I2C_GET_FLAG(hi2c, I2C_FLAG_STOPF) == RESET)
 10035              		.loc 1 4542 0
 10036 000c 28E0     		b	.L507
 10037              	.L511:
4543:Drivers/STM32F3xx_HAL_Driver/Src/stm32f3xx_hal_i2c.c ****   {
4544:Drivers/STM32F3xx_HAL_Driver/Src/stm32f3xx_hal_i2c.c ****     /* Check if a NACK is detected */
4545:Drivers/STM32F3xx_HAL_Driver/Src/stm32f3xx_hal_i2c.c ****     if (I2C_IsAcknowledgeFailed(hi2c, Timeout, Tickstart) != HAL_OK)
 10038              		.loc 1 4545 0
 10039 000e 7A68     		ldr	r2, [r7, #4]
 10040 0010 B968     		ldr	r1, [r7, #8]
 10041 0012 F868     		ldr	r0, [r7, #12]
 10042 0014 FFF7FEFF 		bl	I2C_IsAcknowledgeFailed
 10043 0018 0346     		mov	r3, r0
 10044 001a 002B     		cmp	r3, #0
 10045 001c 01D0     		beq	.L508
4546:Drivers/STM32F3xx_HAL_Driver/Src/stm32f3xx_hal_i2c.c ****     {
4547:Drivers/STM32F3xx_HAL_Driver/Src/stm32f3xx_hal_i2c.c ****       return HAL_ERROR;
 10046              		.loc 1 4547 0
 10047 001e 0123     		movs	r3, #1
 10048 0020 26E0     		b	.L509
 10049              	.L508:
4548:Drivers/STM32F3xx_HAL_Driver/Src/stm32f3xx_hal_i2c.c ****     }
4549:Drivers/STM32F3xx_HAL_Driver/Src/stm32f3xx_hal_i2c.c **** 
4550:Drivers/STM32F3xx_HAL_Driver/Src/stm32f3xx_hal_i2c.c ****     /* Check for the Timeout */
4551:Drivers/STM32F3xx_HAL_Driver/Src/stm32f3xx_hal_i2c.c ****     if ((Timeout == 0U) || ((HAL_GetTick() - Tickstart) > Timeout))
 10050              		.loc 1 4551 0
 10051 0022 BB68     		ldr	r3, [r7, #8]
 10052 0024 002B     		cmp	r3, #0
 10053 0026 07D0     		beq	.L510
 10054              		.loc 1 4551 0 is_stmt 0 discriminator 1
 10055 0028 FFF7FEFF 		bl	HAL_GetTick
 10056 002c 0246     		mov	r2, r0
 10057 002e 7B68     		ldr	r3, [r7, #4]
 10058 0030 D31A     		subs	r3, r2, r3
 10059 0032 BA68     		ldr	r2, [r7, #8]
 10060 0034 9A42     		cmp	r2, r3
 10061 0036 13D2     		bcs	.L507
 10062              	.L510:
4552:Drivers/STM32F3xx_HAL_Driver/Src/stm32f3xx_hal_i2c.c ****     {
4553:Drivers/STM32F3xx_HAL_Driver/Src/stm32f3xx_hal_i2c.c ****       hi2c->ErrorCode |= HAL_I2C_ERROR_TIMEOUT;
 10063              		.loc 1 4553 0 is_stmt 1
 10064 0038 FB68     		ldr	r3, [r7, #12]
 10065 003a 5B6C     		ldr	r3, [r3, #68]
 10066 003c 43F02002 		orr	r2, r3, #32
 10067 0040 FB68     		ldr	r3, [r7, #12]
 10068 0042 5A64     		str	r2, [r3, #68]
4554:Drivers/STM32F3xx_HAL_Driver/Src/stm32f3xx_hal_i2c.c ****       hi2c->State = HAL_I2C_STATE_READY;
 10069              		.loc 1 4554 0
ARM GAS  /tmp/ccy0jiyr.s 			page 257


 10070 0044 FB68     		ldr	r3, [r7, #12]
 10071 0046 2022     		movs	r2, #32
 10072 0048 83F84120 		strb	r2, [r3, #65]
4555:Drivers/STM32F3xx_HAL_Driver/Src/stm32f3xx_hal_i2c.c ****       hi2c->Mode = HAL_I2C_MODE_NONE;
 10073              		.loc 1 4555 0
 10074 004c FB68     		ldr	r3, [r7, #12]
 10075 004e 0022     		movs	r2, #0
 10076 0050 83F84220 		strb	r2, [r3, #66]
4556:Drivers/STM32F3xx_HAL_Driver/Src/stm32f3xx_hal_i2c.c **** 
4557:Drivers/STM32F3xx_HAL_Driver/Src/stm32f3xx_hal_i2c.c ****       /* Process Unlocked */
4558:Drivers/STM32F3xx_HAL_Driver/Src/stm32f3xx_hal_i2c.c ****       __HAL_UNLOCK(hi2c);
 10077              		.loc 1 4558 0
 10078 0054 FB68     		ldr	r3, [r7, #12]
 10079 0056 0022     		movs	r2, #0
 10080 0058 83F84020 		strb	r2, [r3, #64]
4559:Drivers/STM32F3xx_HAL_Driver/Src/stm32f3xx_hal_i2c.c **** 
4560:Drivers/STM32F3xx_HAL_Driver/Src/stm32f3xx_hal_i2c.c ****       return HAL_TIMEOUT;
 10081              		.loc 1 4560 0
 10082 005c 0323     		movs	r3, #3
 10083 005e 07E0     		b	.L509
 10084              	.L507:
4542:Drivers/STM32F3xx_HAL_Driver/Src/stm32f3xx_hal_i2c.c ****   {
 10085              		.loc 1 4542 0
 10086 0060 FB68     		ldr	r3, [r7, #12]
 10087 0062 1B68     		ldr	r3, [r3]
 10088 0064 9B69     		ldr	r3, [r3, #24]
 10089 0066 03F02003 		and	r3, r3, #32
 10090 006a 202B     		cmp	r3, #32
 10091 006c CFD1     		bne	.L511
4561:Drivers/STM32F3xx_HAL_Driver/Src/stm32f3xx_hal_i2c.c ****     }
4562:Drivers/STM32F3xx_HAL_Driver/Src/stm32f3xx_hal_i2c.c ****   }
4563:Drivers/STM32F3xx_HAL_Driver/Src/stm32f3xx_hal_i2c.c ****   return HAL_OK;
 10092              		.loc 1 4563 0
 10093 006e 0023     		movs	r3, #0
 10094              	.L509:
4564:Drivers/STM32F3xx_HAL_Driver/Src/stm32f3xx_hal_i2c.c **** }
 10095              		.loc 1 4564 0
 10096 0070 1846     		mov	r0, r3
 10097 0072 1037     		adds	r7, r7, #16
 10098              	.LCFI356:
 10099              		.cfi_def_cfa_offset 8
 10100 0074 BD46     		mov	sp, r7
 10101              	.LCFI357:
 10102              		.cfi_def_cfa_register 13
 10103              		@ sp needed
 10104 0076 80BD     		pop	{r7, pc}
 10105              		.cfi_endproc
 10106              	.LFE762:
 10108              		.section	.text.I2C_WaitOnRXNEFlagUntilTimeout,"ax",%progbits
 10109              		.align	1
 10110              		.syntax unified
 10111              		.thumb
 10112              		.thumb_func
 10113              		.fpu fpv4-sp-d16
 10115              	I2C_WaitOnRXNEFlagUntilTimeout:
 10116              	.LFB763:
4565:Drivers/STM32F3xx_HAL_Driver/Src/stm32f3xx_hal_i2c.c **** 
ARM GAS  /tmp/ccy0jiyr.s 			page 258


4566:Drivers/STM32F3xx_HAL_Driver/Src/stm32f3xx_hal_i2c.c **** /**
4567:Drivers/STM32F3xx_HAL_Driver/Src/stm32f3xx_hal_i2c.c ****   * @brief  This function handles I2C Communication Timeout for specific usage of RXNE flag.
4568:Drivers/STM32F3xx_HAL_Driver/Src/stm32f3xx_hal_i2c.c ****   * @param  hi2c Pointer to a I2C_HandleTypeDef structure that contains
4569:Drivers/STM32F3xx_HAL_Driver/Src/stm32f3xx_hal_i2c.c ****   *                the configuration information for the specified I2C.
4570:Drivers/STM32F3xx_HAL_Driver/Src/stm32f3xx_hal_i2c.c ****   * @param  Timeout Timeout duration
4571:Drivers/STM32F3xx_HAL_Driver/Src/stm32f3xx_hal_i2c.c ****   * @param  Tickstart Tick start value
4572:Drivers/STM32F3xx_HAL_Driver/Src/stm32f3xx_hal_i2c.c ****   * @retval HAL status
4573:Drivers/STM32F3xx_HAL_Driver/Src/stm32f3xx_hal_i2c.c ****   */
4574:Drivers/STM32F3xx_HAL_Driver/Src/stm32f3xx_hal_i2c.c **** static HAL_StatusTypeDef I2C_WaitOnRXNEFlagUntilTimeout(I2C_HandleTypeDef *hi2c, uint32_t Timeout, 
4575:Drivers/STM32F3xx_HAL_Driver/Src/stm32f3xx_hal_i2c.c **** {
 10117              		.loc 1 4575 0
 10118              		.cfi_startproc
 10119              		@ args = 0, pretend = 0, frame = 16
 10120              		@ frame_needed = 1, uses_anonymous_args = 0
 10121 0000 80B5     		push	{r7, lr}
 10122              	.LCFI358:
 10123              		.cfi_def_cfa_offset 8
 10124              		.cfi_offset 7, -8
 10125              		.cfi_offset 14, -4
 10126 0002 84B0     		sub	sp, sp, #16
 10127              	.LCFI359:
 10128              		.cfi_def_cfa_offset 24
 10129 0004 00AF     		add	r7, sp, #0
 10130              	.LCFI360:
 10131              		.cfi_def_cfa_register 7
 10132 0006 F860     		str	r0, [r7, #12]
 10133 0008 B960     		str	r1, [r7, #8]
 10134 000a 7A60     		str	r2, [r7, #4]
4576:Drivers/STM32F3xx_HAL_Driver/Src/stm32f3xx_hal_i2c.c ****   while (__HAL_I2C_GET_FLAG(hi2c, I2C_FLAG_RXNE) == RESET)
 10135              		.loc 1 4576 0
 10136 000c 48E0     		b	.L513
 10137              	.L518:
4577:Drivers/STM32F3xx_HAL_Driver/Src/stm32f3xx_hal_i2c.c ****   {
4578:Drivers/STM32F3xx_HAL_Driver/Src/stm32f3xx_hal_i2c.c ****     /* Check if a NACK is detected */
4579:Drivers/STM32F3xx_HAL_Driver/Src/stm32f3xx_hal_i2c.c ****     if (I2C_IsAcknowledgeFailed(hi2c, Timeout, Tickstart) != HAL_OK)
 10138              		.loc 1 4579 0
 10139 000e 7A68     		ldr	r2, [r7, #4]
 10140 0010 B968     		ldr	r1, [r7, #8]
 10141 0012 F868     		ldr	r0, [r7, #12]
 10142 0014 FFF7FEFF 		bl	I2C_IsAcknowledgeFailed
 10143 0018 0346     		mov	r3, r0
 10144 001a 002B     		cmp	r3, #0
 10145 001c 01D0     		beq	.L514
4580:Drivers/STM32F3xx_HAL_Driver/Src/stm32f3xx_hal_i2c.c ****     {
4581:Drivers/STM32F3xx_HAL_Driver/Src/stm32f3xx_hal_i2c.c ****       return HAL_ERROR;
 10146              		.loc 1 4581 0
 10147 001e 0123     		movs	r3, #1
 10148 0020 46E0     		b	.L515
 10149              	.L514:
4582:Drivers/STM32F3xx_HAL_Driver/Src/stm32f3xx_hal_i2c.c ****     }
4583:Drivers/STM32F3xx_HAL_Driver/Src/stm32f3xx_hal_i2c.c **** 
4584:Drivers/STM32F3xx_HAL_Driver/Src/stm32f3xx_hal_i2c.c ****     /* Check if a STOPF is detected */
4585:Drivers/STM32F3xx_HAL_Driver/Src/stm32f3xx_hal_i2c.c ****     if (__HAL_I2C_GET_FLAG(hi2c, I2C_FLAG_STOPF) == SET)
 10150              		.loc 1 4585 0
 10151 0022 FB68     		ldr	r3, [r7, #12]
 10152 0024 1B68     		ldr	r3, [r3]
 10153 0026 9B69     		ldr	r3, [r3, #24]
ARM GAS  /tmp/ccy0jiyr.s 			page 259


 10154 0028 03F02003 		and	r3, r3, #32
 10155 002c 202B     		cmp	r3, #32
 10156 002e 1CD1     		bne	.L516
4586:Drivers/STM32F3xx_HAL_Driver/Src/stm32f3xx_hal_i2c.c ****     {
4587:Drivers/STM32F3xx_HAL_Driver/Src/stm32f3xx_hal_i2c.c ****       /* Clear STOP Flag */
4588:Drivers/STM32F3xx_HAL_Driver/Src/stm32f3xx_hal_i2c.c ****       __HAL_I2C_CLEAR_FLAG(hi2c, I2C_FLAG_STOPF);
 10157              		.loc 1 4588 0
 10158 0030 FB68     		ldr	r3, [r7, #12]
 10159 0032 1B68     		ldr	r3, [r3]
 10160 0034 2022     		movs	r2, #32
 10161 0036 DA61     		str	r2, [r3, #28]
4589:Drivers/STM32F3xx_HAL_Driver/Src/stm32f3xx_hal_i2c.c **** 
4590:Drivers/STM32F3xx_HAL_Driver/Src/stm32f3xx_hal_i2c.c ****       /* Clear Configuration Register 2 */
4591:Drivers/STM32F3xx_HAL_Driver/Src/stm32f3xx_hal_i2c.c ****       I2C_RESET_CR2(hi2c);
 10162              		.loc 1 4591 0
 10163 0038 FB68     		ldr	r3, [r7, #12]
 10164 003a 1B68     		ldr	r3, [r3]
 10165 003c 5968     		ldr	r1, [r3, #4]
 10166 003e FB68     		ldr	r3, [r7, #12]
 10167 0040 1A68     		ldr	r2, [r3]
 10168 0042 1D4B     		ldr	r3, .L519
 10169 0044 0B40     		ands	r3, r3, r1
 10170 0046 5360     		str	r3, [r2, #4]
4592:Drivers/STM32F3xx_HAL_Driver/Src/stm32f3xx_hal_i2c.c **** 
4593:Drivers/STM32F3xx_HAL_Driver/Src/stm32f3xx_hal_i2c.c ****       hi2c->ErrorCode = HAL_I2C_ERROR_NONE;
 10171              		.loc 1 4593 0
 10172 0048 FB68     		ldr	r3, [r7, #12]
 10173 004a 0022     		movs	r2, #0
 10174 004c 5A64     		str	r2, [r3, #68]
4594:Drivers/STM32F3xx_HAL_Driver/Src/stm32f3xx_hal_i2c.c ****       hi2c->State = HAL_I2C_STATE_READY;
 10175              		.loc 1 4594 0
 10176 004e FB68     		ldr	r3, [r7, #12]
 10177 0050 2022     		movs	r2, #32
 10178 0052 83F84120 		strb	r2, [r3, #65]
4595:Drivers/STM32F3xx_HAL_Driver/Src/stm32f3xx_hal_i2c.c ****       hi2c->Mode = HAL_I2C_MODE_NONE;
 10179              		.loc 1 4595 0
 10180 0056 FB68     		ldr	r3, [r7, #12]
 10181 0058 0022     		movs	r2, #0
 10182 005a 83F84220 		strb	r2, [r3, #66]
4596:Drivers/STM32F3xx_HAL_Driver/Src/stm32f3xx_hal_i2c.c **** 
4597:Drivers/STM32F3xx_HAL_Driver/Src/stm32f3xx_hal_i2c.c ****       /* Process Unlocked */
4598:Drivers/STM32F3xx_HAL_Driver/Src/stm32f3xx_hal_i2c.c ****       __HAL_UNLOCK(hi2c);
 10183              		.loc 1 4598 0
 10184 005e FB68     		ldr	r3, [r7, #12]
 10185 0060 0022     		movs	r2, #0
 10186 0062 83F84020 		strb	r2, [r3, #64]
4599:Drivers/STM32F3xx_HAL_Driver/Src/stm32f3xx_hal_i2c.c **** 
4600:Drivers/STM32F3xx_HAL_Driver/Src/stm32f3xx_hal_i2c.c ****       return HAL_ERROR;
 10187              		.loc 1 4600 0
 10188 0066 0123     		movs	r3, #1
 10189 0068 22E0     		b	.L515
 10190              	.L516:
4601:Drivers/STM32F3xx_HAL_Driver/Src/stm32f3xx_hal_i2c.c ****     }
4602:Drivers/STM32F3xx_HAL_Driver/Src/stm32f3xx_hal_i2c.c **** 
4603:Drivers/STM32F3xx_HAL_Driver/Src/stm32f3xx_hal_i2c.c ****     /* Check for the Timeout */
4604:Drivers/STM32F3xx_HAL_Driver/Src/stm32f3xx_hal_i2c.c ****     if ((Timeout == 0U) || ((HAL_GetTick() - Tickstart) > Timeout))
 10191              		.loc 1 4604 0
ARM GAS  /tmp/ccy0jiyr.s 			page 260


 10192 006a BB68     		ldr	r3, [r7, #8]
 10193 006c 002B     		cmp	r3, #0
 10194 006e 07D0     		beq	.L517
 10195              		.loc 1 4604 0 is_stmt 0 discriminator 1
 10196 0070 FFF7FEFF 		bl	HAL_GetTick
 10197 0074 0246     		mov	r2, r0
 10198 0076 7B68     		ldr	r3, [r7, #4]
 10199 0078 D31A     		subs	r3, r2, r3
 10200 007a BA68     		ldr	r2, [r7, #8]
 10201 007c 9A42     		cmp	r2, r3
 10202 007e 0FD2     		bcs	.L513
 10203              	.L517:
4605:Drivers/STM32F3xx_HAL_Driver/Src/stm32f3xx_hal_i2c.c ****     {
4606:Drivers/STM32F3xx_HAL_Driver/Src/stm32f3xx_hal_i2c.c ****       hi2c->ErrorCode |= HAL_I2C_ERROR_TIMEOUT;
 10204              		.loc 1 4606 0 is_stmt 1
 10205 0080 FB68     		ldr	r3, [r7, #12]
 10206 0082 5B6C     		ldr	r3, [r3, #68]
 10207 0084 43F02002 		orr	r2, r3, #32
 10208 0088 FB68     		ldr	r3, [r7, #12]
 10209 008a 5A64     		str	r2, [r3, #68]
4607:Drivers/STM32F3xx_HAL_Driver/Src/stm32f3xx_hal_i2c.c ****       hi2c->State = HAL_I2C_STATE_READY;
 10210              		.loc 1 4607 0
 10211 008c FB68     		ldr	r3, [r7, #12]
 10212 008e 2022     		movs	r2, #32
 10213 0090 83F84120 		strb	r2, [r3, #65]
4608:Drivers/STM32F3xx_HAL_Driver/Src/stm32f3xx_hal_i2c.c **** 
4609:Drivers/STM32F3xx_HAL_Driver/Src/stm32f3xx_hal_i2c.c ****       /* Process Unlocked */
4610:Drivers/STM32F3xx_HAL_Driver/Src/stm32f3xx_hal_i2c.c ****       __HAL_UNLOCK(hi2c);
 10214              		.loc 1 4610 0
 10215 0094 FB68     		ldr	r3, [r7, #12]
 10216 0096 0022     		movs	r2, #0
 10217 0098 83F84020 		strb	r2, [r3, #64]
4611:Drivers/STM32F3xx_HAL_Driver/Src/stm32f3xx_hal_i2c.c **** 
4612:Drivers/STM32F3xx_HAL_Driver/Src/stm32f3xx_hal_i2c.c ****       return HAL_TIMEOUT;
 10218              		.loc 1 4612 0
 10219 009c 0323     		movs	r3, #3
 10220 009e 07E0     		b	.L515
 10221              	.L513:
4576:Drivers/STM32F3xx_HAL_Driver/Src/stm32f3xx_hal_i2c.c ****   {
 10222              		.loc 1 4576 0
 10223 00a0 FB68     		ldr	r3, [r7, #12]
 10224 00a2 1B68     		ldr	r3, [r3]
 10225 00a4 9B69     		ldr	r3, [r3, #24]
 10226 00a6 03F00403 		and	r3, r3, #4
 10227 00aa 042B     		cmp	r3, #4
 10228 00ac AFD1     		bne	.L518
4613:Drivers/STM32F3xx_HAL_Driver/Src/stm32f3xx_hal_i2c.c ****     }
4614:Drivers/STM32F3xx_HAL_Driver/Src/stm32f3xx_hal_i2c.c ****   }
4615:Drivers/STM32F3xx_HAL_Driver/Src/stm32f3xx_hal_i2c.c ****   return HAL_OK;
 10229              		.loc 1 4615 0
 10230 00ae 0023     		movs	r3, #0
 10231              	.L515:
4616:Drivers/STM32F3xx_HAL_Driver/Src/stm32f3xx_hal_i2c.c **** }
 10232              		.loc 1 4616 0
 10233 00b0 1846     		mov	r0, r3
 10234 00b2 1037     		adds	r7, r7, #16
 10235              	.LCFI361:
ARM GAS  /tmp/ccy0jiyr.s 			page 261


 10236              		.cfi_def_cfa_offset 8
 10237 00b4 BD46     		mov	sp, r7
 10238              	.LCFI362:
 10239              		.cfi_def_cfa_register 13
 10240              		@ sp needed
 10241 00b6 80BD     		pop	{r7, pc}
 10242              	.L520:
 10243              		.align	2
 10244              	.L519:
 10245 00b8 00E800FE 		.word	-33495040
 10246              		.cfi_endproc
 10247              	.LFE763:
 10249              		.section	.text.I2C_IsAcknowledgeFailed,"ax",%progbits
 10250              		.align	1
 10251              		.syntax unified
 10252              		.thumb
 10253              		.thumb_func
 10254              		.fpu fpv4-sp-d16
 10256              	I2C_IsAcknowledgeFailed:
 10257              	.LFB764:
4617:Drivers/STM32F3xx_HAL_Driver/Src/stm32f3xx_hal_i2c.c **** 
4618:Drivers/STM32F3xx_HAL_Driver/Src/stm32f3xx_hal_i2c.c **** /**
4619:Drivers/STM32F3xx_HAL_Driver/Src/stm32f3xx_hal_i2c.c ****   * @brief  This function handles Acknowledge failed detection during an I2C Communication.
4620:Drivers/STM32F3xx_HAL_Driver/Src/stm32f3xx_hal_i2c.c ****   * @param  hi2c Pointer to a I2C_HandleTypeDef structure that contains
4621:Drivers/STM32F3xx_HAL_Driver/Src/stm32f3xx_hal_i2c.c ****   *                the configuration information for the specified I2C.
4622:Drivers/STM32F3xx_HAL_Driver/Src/stm32f3xx_hal_i2c.c ****   * @param  Timeout Timeout duration
4623:Drivers/STM32F3xx_HAL_Driver/Src/stm32f3xx_hal_i2c.c ****   * @param  Tickstart Tick start value
4624:Drivers/STM32F3xx_HAL_Driver/Src/stm32f3xx_hal_i2c.c ****   * @retval HAL status
4625:Drivers/STM32F3xx_HAL_Driver/Src/stm32f3xx_hal_i2c.c ****   */
4626:Drivers/STM32F3xx_HAL_Driver/Src/stm32f3xx_hal_i2c.c **** static HAL_StatusTypeDef I2C_IsAcknowledgeFailed(I2C_HandleTypeDef *hi2c, uint32_t Timeout, uint32_
4627:Drivers/STM32F3xx_HAL_Driver/Src/stm32f3xx_hal_i2c.c **** {
 10258              		.loc 1 4627 0
 10259              		.cfi_startproc
 10260              		@ args = 0, pretend = 0, frame = 16
 10261              		@ frame_needed = 1, uses_anonymous_args = 0
 10262 0000 80B5     		push	{r7, lr}
 10263              	.LCFI363:
 10264              		.cfi_def_cfa_offset 8
 10265              		.cfi_offset 7, -8
 10266              		.cfi_offset 14, -4
 10267 0002 84B0     		sub	sp, sp, #16
 10268              	.LCFI364:
 10269              		.cfi_def_cfa_offset 24
 10270 0004 00AF     		add	r7, sp, #0
 10271              	.LCFI365:
 10272              		.cfi_def_cfa_register 7
 10273 0006 F860     		str	r0, [r7, #12]
 10274 0008 B960     		str	r1, [r7, #8]
 10275 000a 7A60     		str	r2, [r7, #4]
4628:Drivers/STM32F3xx_HAL_Driver/Src/stm32f3xx_hal_i2c.c ****   if (__HAL_I2C_GET_FLAG(hi2c, I2C_FLAG_AF) == SET)
 10276              		.loc 1 4628 0
 10277 000c FB68     		ldr	r3, [r7, #12]
 10278 000e 1B68     		ldr	r3, [r3]
 10279 0010 9B69     		ldr	r3, [r3, #24]
 10280 0012 03F01003 		and	r3, r3, #16
 10281 0016 102B     		cmp	r3, #16
 10282 0018 48D1     		bne	.L522
ARM GAS  /tmp/ccy0jiyr.s 			page 262


4629:Drivers/STM32F3xx_HAL_Driver/Src/stm32f3xx_hal_i2c.c ****   {
4630:Drivers/STM32F3xx_HAL_Driver/Src/stm32f3xx_hal_i2c.c ****     /* Wait until STOP Flag is reset */
4631:Drivers/STM32F3xx_HAL_Driver/Src/stm32f3xx_hal_i2c.c ****     /* AutoEnd should be initiate after AF */
4632:Drivers/STM32F3xx_HAL_Driver/Src/stm32f3xx_hal_i2c.c ****     while (__HAL_I2C_GET_FLAG(hi2c, I2C_FLAG_STOPF) == RESET)
 10283              		.loc 1 4632 0
 10284 001a 1CE0     		b	.L523
 10285              	.L526:
4633:Drivers/STM32F3xx_HAL_Driver/Src/stm32f3xx_hal_i2c.c ****     {
4634:Drivers/STM32F3xx_HAL_Driver/Src/stm32f3xx_hal_i2c.c ****       /* Check for the Timeout */
4635:Drivers/STM32F3xx_HAL_Driver/Src/stm32f3xx_hal_i2c.c ****       if (Timeout != HAL_MAX_DELAY)
 10286              		.loc 1 4635 0
 10287 001c BB68     		ldr	r3, [r7, #8]
 10288 001e B3F1FF3F 		cmp	r3, #-1
 10289 0022 18D0     		beq	.L523
4636:Drivers/STM32F3xx_HAL_Driver/Src/stm32f3xx_hal_i2c.c ****       {
4637:Drivers/STM32F3xx_HAL_Driver/Src/stm32f3xx_hal_i2c.c ****         if ((Timeout == 0U) || ((HAL_GetTick() - Tickstart) > Timeout))
 10290              		.loc 1 4637 0
 10291 0024 BB68     		ldr	r3, [r7, #8]
 10292 0026 002B     		cmp	r3, #0
 10293 0028 07D0     		beq	.L524
 10294              		.loc 1 4637 0 is_stmt 0 discriminator 1
 10295 002a FFF7FEFF 		bl	HAL_GetTick
 10296 002e 0246     		mov	r2, r0
 10297 0030 7B68     		ldr	r3, [r7, #4]
 10298 0032 D31A     		subs	r3, r2, r3
 10299 0034 BA68     		ldr	r2, [r7, #8]
 10300 0036 9A42     		cmp	r2, r3
 10301 0038 0DD2     		bcs	.L523
 10302              	.L524:
4638:Drivers/STM32F3xx_HAL_Driver/Src/stm32f3xx_hal_i2c.c ****         {
4639:Drivers/STM32F3xx_HAL_Driver/Src/stm32f3xx_hal_i2c.c ****           hi2c->State = HAL_I2C_STATE_READY;
 10303              		.loc 1 4639 0 is_stmt 1
 10304 003a FB68     		ldr	r3, [r7, #12]
 10305 003c 2022     		movs	r2, #32
 10306 003e 83F84120 		strb	r2, [r3, #65]
4640:Drivers/STM32F3xx_HAL_Driver/Src/stm32f3xx_hal_i2c.c ****           hi2c->Mode = HAL_I2C_MODE_NONE;
 10307              		.loc 1 4640 0
 10308 0042 FB68     		ldr	r3, [r7, #12]
 10309 0044 0022     		movs	r2, #0
 10310 0046 83F84220 		strb	r2, [r3, #66]
4641:Drivers/STM32F3xx_HAL_Driver/Src/stm32f3xx_hal_i2c.c **** 
4642:Drivers/STM32F3xx_HAL_Driver/Src/stm32f3xx_hal_i2c.c ****           /* Process Unlocked */
4643:Drivers/STM32F3xx_HAL_Driver/Src/stm32f3xx_hal_i2c.c ****           __HAL_UNLOCK(hi2c);
 10311              		.loc 1 4643 0
 10312 004a FB68     		ldr	r3, [r7, #12]
 10313 004c 0022     		movs	r2, #0
 10314 004e 83F84020 		strb	r2, [r3, #64]
4644:Drivers/STM32F3xx_HAL_Driver/Src/stm32f3xx_hal_i2c.c ****           return HAL_TIMEOUT;
 10315              		.loc 1 4644 0
 10316 0052 0323     		movs	r3, #3
 10317 0054 2BE0     		b	.L525
 10318              	.L523:
4632:Drivers/STM32F3xx_HAL_Driver/Src/stm32f3xx_hal_i2c.c ****     {
 10319              		.loc 1 4632 0
 10320 0056 FB68     		ldr	r3, [r7, #12]
 10321 0058 1B68     		ldr	r3, [r3]
 10322 005a 9B69     		ldr	r3, [r3, #24]
ARM GAS  /tmp/ccy0jiyr.s 			page 263


 10323 005c 03F02003 		and	r3, r3, #32
 10324 0060 202B     		cmp	r3, #32
 10325 0062 DBD1     		bne	.L526
4645:Drivers/STM32F3xx_HAL_Driver/Src/stm32f3xx_hal_i2c.c ****         }
4646:Drivers/STM32F3xx_HAL_Driver/Src/stm32f3xx_hal_i2c.c ****       }
4647:Drivers/STM32F3xx_HAL_Driver/Src/stm32f3xx_hal_i2c.c ****     }
4648:Drivers/STM32F3xx_HAL_Driver/Src/stm32f3xx_hal_i2c.c **** 
4649:Drivers/STM32F3xx_HAL_Driver/Src/stm32f3xx_hal_i2c.c ****     /* Clear NACKF Flag */
4650:Drivers/STM32F3xx_HAL_Driver/Src/stm32f3xx_hal_i2c.c ****     __HAL_I2C_CLEAR_FLAG(hi2c, I2C_FLAG_AF);
 10326              		.loc 1 4650 0
 10327 0064 FB68     		ldr	r3, [r7, #12]
 10328 0066 1B68     		ldr	r3, [r3]
 10329 0068 1022     		movs	r2, #16
 10330 006a DA61     		str	r2, [r3, #28]
4651:Drivers/STM32F3xx_HAL_Driver/Src/stm32f3xx_hal_i2c.c **** 
4652:Drivers/STM32F3xx_HAL_Driver/Src/stm32f3xx_hal_i2c.c ****     /* Clear STOP Flag */
4653:Drivers/STM32F3xx_HAL_Driver/Src/stm32f3xx_hal_i2c.c ****     __HAL_I2C_CLEAR_FLAG(hi2c, I2C_FLAG_STOPF);
 10331              		.loc 1 4653 0
 10332 006c FB68     		ldr	r3, [r7, #12]
 10333 006e 1B68     		ldr	r3, [r3]
 10334 0070 2022     		movs	r2, #32
 10335 0072 DA61     		str	r2, [r3, #28]
4654:Drivers/STM32F3xx_HAL_Driver/Src/stm32f3xx_hal_i2c.c **** 
4655:Drivers/STM32F3xx_HAL_Driver/Src/stm32f3xx_hal_i2c.c ****     /* Flush TX register */
4656:Drivers/STM32F3xx_HAL_Driver/Src/stm32f3xx_hal_i2c.c ****     I2C_Flush_TXDR(hi2c);
 10336              		.loc 1 4656 0
 10337 0074 F868     		ldr	r0, [r7, #12]
 10338 0076 FFF7FEFF 		bl	I2C_Flush_TXDR
4657:Drivers/STM32F3xx_HAL_Driver/Src/stm32f3xx_hal_i2c.c **** 
4658:Drivers/STM32F3xx_HAL_Driver/Src/stm32f3xx_hal_i2c.c ****     /* Clear Configuration Register 2 */
4659:Drivers/STM32F3xx_HAL_Driver/Src/stm32f3xx_hal_i2c.c ****     I2C_RESET_CR2(hi2c);
 10339              		.loc 1 4659 0
 10340 007a FB68     		ldr	r3, [r7, #12]
 10341 007c 1B68     		ldr	r3, [r3]
 10342 007e 5968     		ldr	r1, [r3, #4]
 10343 0080 FB68     		ldr	r3, [r7, #12]
 10344 0082 1A68     		ldr	r2, [r3]
 10345 0084 0C4B     		ldr	r3, .L527
 10346 0086 0B40     		ands	r3, r3, r1
 10347 0088 5360     		str	r3, [r2, #4]
4660:Drivers/STM32F3xx_HAL_Driver/Src/stm32f3xx_hal_i2c.c **** 
4661:Drivers/STM32F3xx_HAL_Driver/Src/stm32f3xx_hal_i2c.c ****     hi2c->ErrorCode = HAL_I2C_ERROR_AF;
 10348              		.loc 1 4661 0
 10349 008a FB68     		ldr	r3, [r7, #12]
 10350 008c 0422     		movs	r2, #4
 10351 008e 5A64     		str	r2, [r3, #68]
4662:Drivers/STM32F3xx_HAL_Driver/Src/stm32f3xx_hal_i2c.c ****     hi2c->State = HAL_I2C_STATE_READY;
 10352              		.loc 1 4662 0
 10353 0090 FB68     		ldr	r3, [r7, #12]
 10354 0092 2022     		movs	r2, #32
 10355 0094 83F84120 		strb	r2, [r3, #65]
4663:Drivers/STM32F3xx_HAL_Driver/Src/stm32f3xx_hal_i2c.c ****     hi2c->Mode = HAL_I2C_MODE_NONE;
 10356              		.loc 1 4663 0
 10357 0098 FB68     		ldr	r3, [r7, #12]
 10358 009a 0022     		movs	r2, #0
 10359 009c 83F84220 		strb	r2, [r3, #66]
4664:Drivers/STM32F3xx_HAL_Driver/Src/stm32f3xx_hal_i2c.c **** 
ARM GAS  /tmp/ccy0jiyr.s 			page 264


4665:Drivers/STM32F3xx_HAL_Driver/Src/stm32f3xx_hal_i2c.c ****     /* Process Unlocked */
4666:Drivers/STM32F3xx_HAL_Driver/Src/stm32f3xx_hal_i2c.c ****     __HAL_UNLOCK(hi2c);
 10360              		.loc 1 4666 0
 10361 00a0 FB68     		ldr	r3, [r7, #12]
 10362 00a2 0022     		movs	r2, #0
 10363 00a4 83F84020 		strb	r2, [r3, #64]
4667:Drivers/STM32F3xx_HAL_Driver/Src/stm32f3xx_hal_i2c.c **** 
4668:Drivers/STM32F3xx_HAL_Driver/Src/stm32f3xx_hal_i2c.c ****     return HAL_ERROR;
 10364              		.loc 1 4668 0
 10365 00a8 0123     		movs	r3, #1
 10366 00aa 00E0     		b	.L525
 10367              	.L522:
4669:Drivers/STM32F3xx_HAL_Driver/Src/stm32f3xx_hal_i2c.c ****   }
4670:Drivers/STM32F3xx_HAL_Driver/Src/stm32f3xx_hal_i2c.c ****   return HAL_OK;
 10368              		.loc 1 4670 0
 10369 00ac 0023     		movs	r3, #0
 10370              	.L525:
4671:Drivers/STM32F3xx_HAL_Driver/Src/stm32f3xx_hal_i2c.c **** }
 10371              		.loc 1 4671 0
 10372 00ae 1846     		mov	r0, r3
 10373 00b0 1037     		adds	r7, r7, #16
 10374              	.LCFI366:
 10375              		.cfi_def_cfa_offset 8
 10376 00b2 BD46     		mov	sp, r7
 10377              	.LCFI367:
 10378              		.cfi_def_cfa_register 13
 10379              		@ sp needed
 10380 00b4 80BD     		pop	{r7, pc}
 10381              	.L528:
 10382 00b6 00BF     		.align	2
 10383              	.L527:
 10384 00b8 00E800FE 		.word	-33495040
 10385              		.cfi_endproc
 10386              	.LFE764:
 10388              		.section	.text.I2C_TransferConfig,"ax",%progbits
 10389              		.align	1
 10390              		.syntax unified
 10391              		.thumb
 10392              		.thumb_func
 10393              		.fpu fpv4-sp-d16
 10395              	I2C_TransferConfig:
 10396              	.LFB765:
4672:Drivers/STM32F3xx_HAL_Driver/Src/stm32f3xx_hal_i2c.c **** 
4673:Drivers/STM32F3xx_HAL_Driver/Src/stm32f3xx_hal_i2c.c **** /**
4674:Drivers/STM32F3xx_HAL_Driver/Src/stm32f3xx_hal_i2c.c ****   * @brief  Handles I2Cx communication when starting transfer or during transfer (TC or TCR flag ar
4675:Drivers/STM32F3xx_HAL_Driver/Src/stm32f3xx_hal_i2c.c ****   * @param  hi2c I2C handle.
4676:Drivers/STM32F3xx_HAL_Driver/Src/stm32f3xx_hal_i2c.c ****   * @param  DevAddress Specifies the slave address to be programmed.
4677:Drivers/STM32F3xx_HAL_Driver/Src/stm32f3xx_hal_i2c.c ****   * @param  Size Specifies the number of bytes to be programmed.
4678:Drivers/STM32F3xx_HAL_Driver/Src/stm32f3xx_hal_i2c.c ****   *   This parameter must be a value between 0 and 255.
4679:Drivers/STM32F3xx_HAL_Driver/Src/stm32f3xx_hal_i2c.c ****   * @param  Mode New state of the I2C START condition generation.
4680:Drivers/STM32F3xx_HAL_Driver/Src/stm32f3xx_hal_i2c.c ****   *   This parameter can be one of the following values:
4681:Drivers/STM32F3xx_HAL_Driver/Src/stm32f3xx_hal_i2c.c ****   *     @arg @ref I2C_RELOAD_MODE Enable Reload mode .
4682:Drivers/STM32F3xx_HAL_Driver/Src/stm32f3xx_hal_i2c.c ****   *     @arg @ref I2C_AUTOEND_MODE Enable Automatic end mode.
4683:Drivers/STM32F3xx_HAL_Driver/Src/stm32f3xx_hal_i2c.c ****   *     @arg @ref I2C_SOFTEND_MODE Enable Software end mode.
4684:Drivers/STM32F3xx_HAL_Driver/Src/stm32f3xx_hal_i2c.c ****   * @param  Request New state of the I2C START condition generation.
4685:Drivers/STM32F3xx_HAL_Driver/Src/stm32f3xx_hal_i2c.c ****   *   This parameter can be one of the following values:
4686:Drivers/STM32F3xx_HAL_Driver/Src/stm32f3xx_hal_i2c.c ****   *     @arg @ref I2C_NO_STARTSTOP Don't Generate stop and start condition.
ARM GAS  /tmp/ccy0jiyr.s 			page 265


4687:Drivers/STM32F3xx_HAL_Driver/Src/stm32f3xx_hal_i2c.c ****   *     @arg @ref I2C_GENERATE_STOP Generate stop condition (Size should be set to 0).
4688:Drivers/STM32F3xx_HAL_Driver/Src/stm32f3xx_hal_i2c.c ****   *     @arg @ref I2C_GENERATE_START_READ Generate Restart for read request.
4689:Drivers/STM32F3xx_HAL_Driver/Src/stm32f3xx_hal_i2c.c ****   *     @arg @ref I2C_GENERATE_START_WRITE Generate Restart for write request.
4690:Drivers/STM32F3xx_HAL_Driver/Src/stm32f3xx_hal_i2c.c ****   * @retval None
4691:Drivers/STM32F3xx_HAL_Driver/Src/stm32f3xx_hal_i2c.c ****   */
4692:Drivers/STM32F3xx_HAL_Driver/Src/stm32f3xx_hal_i2c.c **** static void I2C_TransferConfig(I2C_HandleTypeDef *hi2c,  uint16_t DevAddress, uint8_t Size, uint32_
4693:Drivers/STM32F3xx_HAL_Driver/Src/stm32f3xx_hal_i2c.c **** {
 10397              		.loc 1 4693 0
 10398              		.cfi_startproc
 10399              		@ args = 4, pretend = 0, frame = 24
 10400              		@ frame_needed = 1, uses_anonymous_args = 0
 10401              		@ link register save eliminated.
 10402 0000 80B4     		push	{r7}
 10403              	.LCFI368:
 10404              		.cfi_def_cfa_offset 4
 10405              		.cfi_offset 7, -4
 10406 0002 87B0     		sub	sp, sp, #28
 10407              	.LCFI369:
 10408              		.cfi_def_cfa_offset 32
 10409 0004 00AF     		add	r7, sp, #0
 10410              	.LCFI370:
 10411              		.cfi_def_cfa_register 7
 10412 0006 F860     		str	r0, [r7, #12]
 10413 0008 7B60     		str	r3, [r7, #4]
 10414 000a 0B46     		mov	r3, r1	@ movhi
 10415 000c 7B81     		strh	r3, [r7, #10]	@ movhi
 10416 000e 1346     		mov	r3, r2
 10417 0010 7B72     		strb	r3, [r7, #9]
4694:Drivers/STM32F3xx_HAL_Driver/Src/stm32f3xx_hal_i2c.c ****   uint32_t tmpreg = 0U;
 10418              		.loc 1 4694 0
 10419 0012 0023     		movs	r3, #0
 10420 0014 7B61     		str	r3, [r7, #20]
4695:Drivers/STM32F3xx_HAL_Driver/Src/stm32f3xx_hal_i2c.c **** 
4696:Drivers/STM32F3xx_HAL_Driver/Src/stm32f3xx_hal_i2c.c ****   /* Check the parameters */
4697:Drivers/STM32F3xx_HAL_Driver/Src/stm32f3xx_hal_i2c.c ****   assert_param(IS_I2C_ALL_INSTANCE(hi2c->Instance));
4698:Drivers/STM32F3xx_HAL_Driver/Src/stm32f3xx_hal_i2c.c ****   assert_param(IS_TRANSFER_MODE(Mode));
4699:Drivers/STM32F3xx_HAL_Driver/Src/stm32f3xx_hal_i2c.c ****   assert_param(IS_TRANSFER_REQUEST(Request));
4700:Drivers/STM32F3xx_HAL_Driver/Src/stm32f3xx_hal_i2c.c **** 
4701:Drivers/STM32F3xx_HAL_Driver/Src/stm32f3xx_hal_i2c.c ****   /* Get the CR2 register value */
4702:Drivers/STM32F3xx_HAL_Driver/Src/stm32f3xx_hal_i2c.c ****   tmpreg = hi2c->Instance->CR2;
 10421              		.loc 1 4702 0
 10422 0016 FB68     		ldr	r3, [r7, #12]
 10423 0018 1B68     		ldr	r3, [r3]
 10424 001a 5B68     		ldr	r3, [r3, #4]
 10425 001c 7B61     		str	r3, [r7, #20]
4703:Drivers/STM32F3xx_HAL_Driver/Src/stm32f3xx_hal_i2c.c **** 
4704:Drivers/STM32F3xx_HAL_Driver/Src/stm32f3xx_hal_i2c.c ****   /* clear tmpreg specific bits */
4705:Drivers/STM32F3xx_HAL_Driver/Src/stm32f3xx_hal_i2c.c ****   tmpreg &= (uint32_t)~((uint32_t)(I2C_CR2_SADD | I2C_CR2_NBYTES | I2C_CR2_RELOAD | I2C_CR2_AUTOEND
 10426              		.loc 1 4705 0
 10427 001e 7A69     		ldr	r2, [r7, #20]
 10428 0020 0D4B     		ldr	r3, .L530
 10429 0022 1340     		ands	r3, r3, r2
 10430 0024 7B61     		str	r3, [r7, #20]
4706:Drivers/STM32F3xx_HAL_Driver/Src/stm32f3xx_hal_i2c.c **** 
4707:Drivers/STM32F3xx_HAL_Driver/Src/stm32f3xx_hal_i2c.c ****   /* update tmpreg */
4708:Drivers/STM32F3xx_HAL_Driver/Src/stm32f3xx_hal_i2c.c ****   tmpreg |= (uint32_t)(((uint32_t)DevAddress & I2C_CR2_SADD) | (((uint32_t)Size << 16) & I2C_CR2_NB
 10431              		.loc 1 4708 0
ARM GAS  /tmp/ccy0jiyr.s 			page 266


 10432 0026 7B89     		ldrh	r3, [r7, #10]
 10433 0028 C3F30902 		ubfx	r2, r3, #0, #10
 10434 002c 7B7A     		ldrb	r3, [r7, #9]	@ zero_extendqisi2
 10435 002e 1B04     		lsls	r3, r3, #16
 10436 0030 03F47F03 		and	r3, r3, #16711680
 10437 0034 1A43     		orrs	r2, r2, r3
 10438 0036 7B68     		ldr	r3, [r7, #4]
 10439 0038 1A43     		orrs	r2, r2, r3
 10440 003a 3B6A     		ldr	r3, [r7, #32]
 10441 003c 1343     		orrs	r3, r3, r2
 10442 003e 7A69     		ldr	r2, [r7, #20]
 10443 0040 1343     		orrs	r3, r3, r2
 10444 0042 7B61     		str	r3, [r7, #20]
4709:Drivers/STM32F3xx_HAL_Driver/Src/stm32f3xx_hal_i2c.c ****                        (uint32_t)Mode | (uint32_t)Request);
4710:Drivers/STM32F3xx_HAL_Driver/Src/stm32f3xx_hal_i2c.c **** 
4711:Drivers/STM32F3xx_HAL_Driver/Src/stm32f3xx_hal_i2c.c ****   /* update CR2 register */
4712:Drivers/STM32F3xx_HAL_Driver/Src/stm32f3xx_hal_i2c.c ****   hi2c->Instance->CR2 = tmpreg;
 10445              		.loc 1 4712 0
 10446 0044 FB68     		ldr	r3, [r7, #12]
 10447 0046 1B68     		ldr	r3, [r3]
 10448 0048 7A69     		ldr	r2, [r7, #20]
 10449 004a 5A60     		str	r2, [r3, #4]
4713:Drivers/STM32F3xx_HAL_Driver/Src/stm32f3xx_hal_i2c.c **** }
 10450              		.loc 1 4713 0
 10451 004c 00BF     		nop
 10452 004e 1C37     		adds	r7, r7, #28
 10453              	.LCFI371:
 10454              		.cfi_def_cfa_offset 4
 10455 0050 BD46     		mov	sp, r7
 10456              	.LCFI372:
 10457              		.cfi_def_cfa_register 13
 10458              		@ sp needed
 10459 0052 5DF8047B 		ldr	r7, [sp], #4
 10460              	.LCFI373:
 10461              		.cfi_restore 7
 10462              		.cfi_def_cfa_offset 0
 10463 0056 7047     		bx	lr
 10464              	.L531:
 10465              		.align	2
 10466              	.L530:
 10467 0058 009800FC 		.word	-67069952
 10468              		.cfi_endproc
 10469              	.LFE765:
 10471              		.section	.text.I2C_Enable_IRQ,"ax",%progbits
 10472              		.align	1
 10473              		.syntax unified
 10474              		.thumb
 10475              		.thumb_func
 10476              		.fpu fpv4-sp-d16
 10478              	I2C_Enable_IRQ:
 10479              	.LFB766:
4714:Drivers/STM32F3xx_HAL_Driver/Src/stm32f3xx_hal_i2c.c **** 
4715:Drivers/STM32F3xx_HAL_Driver/Src/stm32f3xx_hal_i2c.c **** /**
4716:Drivers/STM32F3xx_HAL_Driver/Src/stm32f3xx_hal_i2c.c ****   * @brief  Manage the enabling of Interrupts.
4717:Drivers/STM32F3xx_HAL_Driver/Src/stm32f3xx_hal_i2c.c ****   * @param  hi2c Pointer to a I2C_HandleTypeDef structure that contains
4718:Drivers/STM32F3xx_HAL_Driver/Src/stm32f3xx_hal_i2c.c ****   *                the configuration information for the specified I2C.
4719:Drivers/STM32F3xx_HAL_Driver/Src/stm32f3xx_hal_i2c.c ****   * @param  InterruptRequest Value of @ref I2C_Interrupt_configuration_definition.
ARM GAS  /tmp/ccy0jiyr.s 			page 267


4720:Drivers/STM32F3xx_HAL_Driver/Src/stm32f3xx_hal_i2c.c ****   * @retval HAL status
4721:Drivers/STM32F3xx_HAL_Driver/Src/stm32f3xx_hal_i2c.c ****   */
4722:Drivers/STM32F3xx_HAL_Driver/Src/stm32f3xx_hal_i2c.c **** static HAL_StatusTypeDef I2C_Enable_IRQ(I2C_HandleTypeDef *hi2c, uint16_t InterruptRequest)
4723:Drivers/STM32F3xx_HAL_Driver/Src/stm32f3xx_hal_i2c.c **** {
 10480              		.loc 1 4723 0
 10481              		.cfi_startproc
 10482              		@ args = 0, pretend = 0, frame = 16
 10483              		@ frame_needed = 1, uses_anonymous_args = 0
 10484              		@ link register save eliminated.
 10485 0000 80B4     		push	{r7}
 10486              	.LCFI374:
 10487              		.cfi_def_cfa_offset 4
 10488              		.cfi_offset 7, -4
 10489 0002 85B0     		sub	sp, sp, #20
 10490              	.LCFI375:
 10491              		.cfi_def_cfa_offset 24
 10492 0004 00AF     		add	r7, sp, #0
 10493              	.LCFI376:
 10494              		.cfi_def_cfa_register 7
 10495 0006 7860     		str	r0, [r7, #4]
 10496 0008 0B46     		mov	r3, r1
 10497 000a 7B80     		strh	r3, [r7, #2]	@ movhi
4724:Drivers/STM32F3xx_HAL_Driver/Src/stm32f3xx_hal_i2c.c ****   uint32_t tmpisr = 0U;
 10498              		.loc 1 4724 0
 10499 000c 0023     		movs	r3, #0
 10500 000e FB60     		str	r3, [r7, #12]
4725:Drivers/STM32F3xx_HAL_Driver/Src/stm32f3xx_hal_i2c.c **** 
4726:Drivers/STM32F3xx_HAL_Driver/Src/stm32f3xx_hal_i2c.c ****   if ((hi2c->XferISR == I2C_Master_ISR_DMA) || \
 10501              		.loc 1 4726 0
 10502 0010 7B68     		ldr	r3, [r7, #4]
 10503 0012 5B6B     		ldr	r3, [r3, #52]
 10504 0014 2F4A     		ldr	r2, .L544
 10505 0016 9342     		cmp	r3, r2
 10506 0018 04D0     		beq	.L533
4727:Drivers/STM32F3xx_HAL_Driver/Src/stm32f3xx_hal_i2c.c ****       (hi2c->XferISR == I2C_Slave_ISR_DMA))
 10507              		.loc 1 4727 0 discriminator 1
 10508 001a 7B68     		ldr	r3, [r7, #4]
 10509 001c 5B6B     		ldr	r3, [r3, #52]
4726:Drivers/STM32F3xx_HAL_Driver/Src/stm32f3xx_hal_i2c.c ****       (hi2c->XferISR == I2C_Slave_ISR_DMA))
 10510              		.loc 1 4726 0 discriminator 1
 10511 001e 2E4A     		ldr	r2, .L544+4
 10512 0020 9342     		cmp	r3, r2
 10513 0022 24D1     		bne	.L534
 10514              	.L533:
4728:Drivers/STM32F3xx_HAL_Driver/Src/stm32f3xx_hal_i2c.c ****   {
4729:Drivers/STM32F3xx_HAL_Driver/Src/stm32f3xx_hal_i2c.c ****     if ((InterruptRequest & I2C_XFER_LISTEN_IT) == I2C_XFER_LISTEN_IT)
 10515              		.loc 1 4729 0
 10516 0024 7B88     		ldrh	r3, [r7, #2]
 10517 0026 03F00403 		and	r3, r3, #4
 10518 002a 002B     		cmp	r3, #0
 10519 002c 03D0     		beq	.L535
4730:Drivers/STM32F3xx_HAL_Driver/Src/stm32f3xx_hal_i2c.c ****     {
4731:Drivers/STM32F3xx_HAL_Driver/Src/stm32f3xx_hal_i2c.c ****       /* Enable ERR, STOP, NACK and ADDR interrupts */
4732:Drivers/STM32F3xx_HAL_Driver/Src/stm32f3xx_hal_i2c.c ****       tmpisr |= I2C_IT_ADDRI | I2C_IT_STOPI | I2C_IT_NACKI | I2C_IT_ERRI;
 10520              		.loc 1 4732 0
 10521 002e FB68     		ldr	r3, [r7, #12]
 10522 0030 43F0B803 		orr	r3, r3, #184
ARM GAS  /tmp/ccy0jiyr.s 			page 268


 10523 0034 FB60     		str	r3, [r7, #12]
 10524              	.L535:
4733:Drivers/STM32F3xx_HAL_Driver/Src/stm32f3xx_hal_i2c.c ****     }
4734:Drivers/STM32F3xx_HAL_Driver/Src/stm32f3xx_hal_i2c.c **** 
4735:Drivers/STM32F3xx_HAL_Driver/Src/stm32f3xx_hal_i2c.c ****     if ((InterruptRequest & I2C_XFER_ERROR_IT) == I2C_XFER_ERROR_IT)
 10525              		.loc 1 4735 0
 10526 0036 7B88     		ldrh	r3, [r7, #2]
 10527 0038 03F01103 		and	r3, r3, #17
 10528 003c 112B     		cmp	r3, #17
 10529 003e 03D1     		bne	.L536
4736:Drivers/STM32F3xx_HAL_Driver/Src/stm32f3xx_hal_i2c.c ****     {
4737:Drivers/STM32F3xx_HAL_Driver/Src/stm32f3xx_hal_i2c.c ****       /* Enable ERR and NACK interrupts */
4738:Drivers/STM32F3xx_HAL_Driver/Src/stm32f3xx_hal_i2c.c ****       tmpisr |= I2C_IT_ERRI | I2C_IT_NACKI;
 10530              		.loc 1 4738 0
 10531 0040 FB68     		ldr	r3, [r7, #12]
 10532 0042 43F09003 		orr	r3, r3, #144
 10533 0046 FB60     		str	r3, [r7, #12]
 10534              	.L536:
4739:Drivers/STM32F3xx_HAL_Driver/Src/stm32f3xx_hal_i2c.c ****     }
4740:Drivers/STM32F3xx_HAL_Driver/Src/stm32f3xx_hal_i2c.c **** 
4741:Drivers/STM32F3xx_HAL_Driver/Src/stm32f3xx_hal_i2c.c ****     if ((InterruptRequest & I2C_XFER_CPLT_IT) == I2C_XFER_CPLT_IT)
 10535              		.loc 1 4741 0
 10536 0048 7B88     		ldrh	r3, [r7, #2]
 10537 004a 03F01203 		and	r3, r3, #18
 10538 004e 122B     		cmp	r3, #18
 10539 0050 03D1     		bne	.L537
4742:Drivers/STM32F3xx_HAL_Driver/Src/stm32f3xx_hal_i2c.c ****     {
4743:Drivers/STM32F3xx_HAL_Driver/Src/stm32f3xx_hal_i2c.c ****       /* Enable STOP interrupts */
4744:Drivers/STM32F3xx_HAL_Driver/Src/stm32f3xx_hal_i2c.c ****       tmpisr |= I2C_IT_STOPI;
 10540              		.loc 1 4744 0
 10541 0052 FB68     		ldr	r3, [r7, #12]
 10542 0054 43F02003 		orr	r3, r3, #32
 10543 0058 FB60     		str	r3, [r7, #12]
 10544              	.L537:
4745:Drivers/STM32F3xx_HAL_Driver/Src/stm32f3xx_hal_i2c.c ****     }
4746:Drivers/STM32F3xx_HAL_Driver/Src/stm32f3xx_hal_i2c.c **** 
4747:Drivers/STM32F3xx_HAL_Driver/Src/stm32f3xx_hal_i2c.c ****     if ((InterruptRequest & I2C_XFER_RELOAD_IT) == I2C_XFER_RELOAD_IT)
 10545              		.loc 1 4747 0
 10546 005a 7B88     		ldrh	r3, [r7, #2]
 10547 005c 03F01203 		and	r3, r3, #18
 10548 0060 122B     		cmp	r3, #18
 10549 0062 28D1     		bne	.L539
4748:Drivers/STM32F3xx_HAL_Driver/Src/stm32f3xx_hal_i2c.c ****     {
4749:Drivers/STM32F3xx_HAL_Driver/Src/stm32f3xx_hal_i2c.c ****       /* Enable TC interrupts */
4750:Drivers/STM32F3xx_HAL_Driver/Src/stm32f3xx_hal_i2c.c ****       tmpisr |= I2C_IT_TCI;
 10550              		.loc 1 4750 0
 10551 0064 FB68     		ldr	r3, [r7, #12]
 10552 0066 43F04003 		orr	r3, r3, #64
 10553 006a FB60     		str	r3, [r7, #12]
4747:Drivers/STM32F3xx_HAL_Driver/Src/stm32f3xx_hal_i2c.c ****     {
 10554              		.loc 1 4747 0
 10555 006c 23E0     		b	.L539
 10556              	.L534:
4751:Drivers/STM32F3xx_HAL_Driver/Src/stm32f3xx_hal_i2c.c ****     }
4752:Drivers/STM32F3xx_HAL_Driver/Src/stm32f3xx_hal_i2c.c ****   }
4753:Drivers/STM32F3xx_HAL_Driver/Src/stm32f3xx_hal_i2c.c ****   else
4754:Drivers/STM32F3xx_HAL_Driver/Src/stm32f3xx_hal_i2c.c ****   {
ARM GAS  /tmp/ccy0jiyr.s 			page 269


4755:Drivers/STM32F3xx_HAL_Driver/Src/stm32f3xx_hal_i2c.c ****     if ((InterruptRequest & I2C_XFER_LISTEN_IT) == I2C_XFER_LISTEN_IT)
 10557              		.loc 1 4755 0
 10558 006e 7B88     		ldrh	r3, [r7, #2]
 10559 0070 03F00403 		and	r3, r3, #4
 10560 0074 002B     		cmp	r3, #0
 10561 0076 03D0     		beq	.L540
4756:Drivers/STM32F3xx_HAL_Driver/Src/stm32f3xx_hal_i2c.c ****     {
4757:Drivers/STM32F3xx_HAL_Driver/Src/stm32f3xx_hal_i2c.c ****       /* Enable ERR, STOP, NACK, and ADDR interrupts */
4758:Drivers/STM32F3xx_HAL_Driver/Src/stm32f3xx_hal_i2c.c ****       tmpisr |= I2C_IT_ADDRI | I2C_IT_STOPI | I2C_IT_NACKI | I2C_IT_ERRI;
 10562              		.loc 1 4758 0
 10563 0078 FB68     		ldr	r3, [r7, #12]
 10564 007a 43F0B803 		orr	r3, r3, #184
 10565 007e FB60     		str	r3, [r7, #12]
 10566              	.L540:
4759:Drivers/STM32F3xx_HAL_Driver/Src/stm32f3xx_hal_i2c.c ****     }
4760:Drivers/STM32F3xx_HAL_Driver/Src/stm32f3xx_hal_i2c.c **** 
4761:Drivers/STM32F3xx_HAL_Driver/Src/stm32f3xx_hal_i2c.c ****     if ((InterruptRequest & I2C_XFER_TX_IT) == I2C_XFER_TX_IT)
 10567              		.loc 1 4761 0
 10568 0080 7B88     		ldrh	r3, [r7, #2]
 10569 0082 03F00103 		and	r3, r3, #1
 10570 0086 002B     		cmp	r3, #0
 10571 0088 03D0     		beq	.L541
4762:Drivers/STM32F3xx_HAL_Driver/Src/stm32f3xx_hal_i2c.c ****     {
4763:Drivers/STM32F3xx_HAL_Driver/Src/stm32f3xx_hal_i2c.c ****       /* Enable ERR, TC, STOP, NACK and RXI interrupts */
4764:Drivers/STM32F3xx_HAL_Driver/Src/stm32f3xx_hal_i2c.c ****       tmpisr |= I2C_IT_ERRI | I2C_IT_TCI | I2C_IT_STOPI | I2C_IT_NACKI | I2C_IT_TXI;
 10572              		.loc 1 4764 0
 10573 008a FB68     		ldr	r3, [r7, #12]
 10574 008c 43F0F203 		orr	r3, r3, #242
 10575 0090 FB60     		str	r3, [r7, #12]
 10576              	.L541:
4765:Drivers/STM32F3xx_HAL_Driver/Src/stm32f3xx_hal_i2c.c ****     }
4766:Drivers/STM32F3xx_HAL_Driver/Src/stm32f3xx_hal_i2c.c **** 
4767:Drivers/STM32F3xx_HAL_Driver/Src/stm32f3xx_hal_i2c.c ****     if ((InterruptRequest & I2C_XFER_RX_IT) == I2C_XFER_RX_IT)
 10577              		.loc 1 4767 0
 10578 0092 7B88     		ldrh	r3, [r7, #2]
 10579 0094 03F00203 		and	r3, r3, #2
 10580 0098 002B     		cmp	r3, #0
 10581 009a 03D0     		beq	.L542
4768:Drivers/STM32F3xx_HAL_Driver/Src/stm32f3xx_hal_i2c.c ****     {
4769:Drivers/STM32F3xx_HAL_Driver/Src/stm32f3xx_hal_i2c.c ****       /* Enable ERR, TC, STOP, NACK and TXI interrupts */
4770:Drivers/STM32F3xx_HAL_Driver/Src/stm32f3xx_hal_i2c.c ****       tmpisr |= I2C_IT_ERRI | I2C_IT_TCI | I2C_IT_STOPI | I2C_IT_NACKI | I2C_IT_RXI;
 10582              		.loc 1 4770 0
 10583 009c FB68     		ldr	r3, [r7, #12]
 10584 009e 43F0F403 		orr	r3, r3, #244
 10585 00a2 FB60     		str	r3, [r7, #12]
 10586              	.L542:
4771:Drivers/STM32F3xx_HAL_Driver/Src/stm32f3xx_hal_i2c.c ****     }
4772:Drivers/STM32F3xx_HAL_Driver/Src/stm32f3xx_hal_i2c.c **** 
4773:Drivers/STM32F3xx_HAL_Driver/Src/stm32f3xx_hal_i2c.c ****     if ((InterruptRequest & I2C_XFER_CPLT_IT) == I2C_XFER_CPLT_IT)
 10587              		.loc 1 4773 0
 10588 00a4 7B88     		ldrh	r3, [r7, #2]
 10589 00a6 03F01203 		and	r3, r3, #18
 10590 00aa 122B     		cmp	r3, #18
 10591 00ac 03D1     		bne	.L539
4774:Drivers/STM32F3xx_HAL_Driver/Src/stm32f3xx_hal_i2c.c ****     {
4775:Drivers/STM32F3xx_HAL_Driver/Src/stm32f3xx_hal_i2c.c ****       /* Enable STOP interrupts */
4776:Drivers/STM32F3xx_HAL_Driver/Src/stm32f3xx_hal_i2c.c ****       tmpisr |= I2C_IT_STOPI;
ARM GAS  /tmp/ccy0jiyr.s 			page 270


 10592              		.loc 1 4776 0
 10593 00ae FB68     		ldr	r3, [r7, #12]
 10594 00b0 43F02003 		orr	r3, r3, #32
 10595 00b4 FB60     		str	r3, [r7, #12]
 10596              	.L539:
4777:Drivers/STM32F3xx_HAL_Driver/Src/stm32f3xx_hal_i2c.c ****     }
4778:Drivers/STM32F3xx_HAL_Driver/Src/stm32f3xx_hal_i2c.c ****   }
4779:Drivers/STM32F3xx_HAL_Driver/Src/stm32f3xx_hal_i2c.c **** 
4780:Drivers/STM32F3xx_HAL_Driver/Src/stm32f3xx_hal_i2c.c ****   /* Enable interrupts only at the end */
4781:Drivers/STM32F3xx_HAL_Driver/Src/stm32f3xx_hal_i2c.c ****   /* to avoid the risk of I2C interrupt handle execution before */
4782:Drivers/STM32F3xx_HAL_Driver/Src/stm32f3xx_hal_i2c.c ****   /* all interrupts requested done */
4783:Drivers/STM32F3xx_HAL_Driver/Src/stm32f3xx_hal_i2c.c ****   __HAL_I2C_ENABLE_IT(hi2c, tmpisr);
 10597              		.loc 1 4783 0
 10598 00b6 7B68     		ldr	r3, [r7, #4]
 10599 00b8 1B68     		ldr	r3, [r3]
 10600 00ba 1968     		ldr	r1, [r3]
 10601 00bc 7B68     		ldr	r3, [r7, #4]
 10602 00be 1B68     		ldr	r3, [r3]
 10603 00c0 FA68     		ldr	r2, [r7, #12]
 10604 00c2 0A43     		orrs	r2, r2, r1
 10605 00c4 1A60     		str	r2, [r3]
4784:Drivers/STM32F3xx_HAL_Driver/Src/stm32f3xx_hal_i2c.c **** 
4785:Drivers/STM32F3xx_HAL_Driver/Src/stm32f3xx_hal_i2c.c ****   return HAL_OK;
 10606              		.loc 1 4785 0
 10607 00c6 0023     		movs	r3, #0
4786:Drivers/STM32F3xx_HAL_Driver/Src/stm32f3xx_hal_i2c.c **** }
 10608              		.loc 1 4786 0
 10609 00c8 1846     		mov	r0, r3
 10610 00ca 1437     		adds	r7, r7, #20
 10611              	.LCFI377:
 10612              		.cfi_def_cfa_offset 4
 10613 00cc BD46     		mov	sp, r7
 10614              	.LCFI378:
 10615              		.cfi_def_cfa_register 13
 10616              		@ sp needed
 10617 00ce 5DF8047B 		ldr	r7, [sp], #4
 10618              	.LCFI379:
 10619              		.cfi_restore 7
 10620              		.cfi_def_cfa_offset 0
 10621 00d2 7047     		bx	lr
 10622              	.L545:
 10623              		.align	2
 10624              	.L544:
 10625 00d4 00000000 		.word	I2C_Master_ISR_DMA
 10626 00d8 00000000 		.word	I2C_Slave_ISR_DMA
 10627              		.cfi_endproc
 10628              	.LFE766:
 10630              		.section	.text.I2C_Disable_IRQ,"ax",%progbits
 10631              		.align	1
 10632              		.syntax unified
 10633              		.thumb
 10634              		.thumb_func
 10635              		.fpu fpv4-sp-d16
 10637              	I2C_Disable_IRQ:
 10638              	.LFB767:
4787:Drivers/STM32F3xx_HAL_Driver/Src/stm32f3xx_hal_i2c.c **** 
4788:Drivers/STM32F3xx_HAL_Driver/Src/stm32f3xx_hal_i2c.c **** /**
ARM GAS  /tmp/ccy0jiyr.s 			page 271


4789:Drivers/STM32F3xx_HAL_Driver/Src/stm32f3xx_hal_i2c.c ****   * @brief  Manage the disabling of Interrupts.
4790:Drivers/STM32F3xx_HAL_Driver/Src/stm32f3xx_hal_i2c.c ****   * @param  hi2c Pointer to a I2C_HandleTypeDef structure that contains
4791:Drivers/STM32F3xx_HAL_Driver/Src/stm32f3xx_hal_i2c.c ****   *                the configuration information for the specified I2C.
4792:Drivers/STM32F3xx_HAL_Driver/Src/stm32f3xx_hal_i2c.c ****   * @param  InterruptRequest Value of @ref I2C_Interrupt_configuration_definition.
4793:Drivers/STM32F3xx_HAL_Driver/Src/stm32f3xx_hal_i2c.c ****   * @retval HAL status
4794:Drivers/STM32F3xx_HAL_Driver/Src/stm32f3xx_hal_i2c.c ****   */
4795:Drivers/STM32F3xx_HAL_Driver/Src/stm32f3xx_hal_i2c.c **** static HAL_StatusTypeDef I2C_Disable_IRQ(I2C_HandleTypeDef *hi2c, uint16_t InterruptRequest)
4796:Drivers/STM32F3xx_HAL_Driver/Src/stm32f3xx_hal_i2c.c **** {
 10639              		.loc 1 4796 0
 10640              		.cfi_startproc
 10641              		@ args = 0, pretend = 0, frame = 16
 10642              		@ frame_needed = 1, uses_anonymous_args = 0
 10643              		@ link register save eliminated.
 10644 0000 80B4     		push	{r7}
 10645              	.LCFI380:
 10646              		.cfi_def_cfa_offset 4
 10647              		.cfi_offset 7, -4
 10648 0002 85B0     		sub	sp, sp, #20
 10649              	.LCFI381:
 10650              		.cfi_def_cfa_offset 24
 10651 0004 00AF     		add	r7, sp, #0
 10652              	.LCFI382:
 10653              		.cfi_def_cfa_register 7
 10654 0006 7860     		str	r0, [r7, #4]
 10655 0008 0B46     		mov	r3, r1
 10656 000a 7B80     		strh	r3, [r7, #2]	@ movhi
4797:Drivers/STM32F3xx_HAL_Driver/Src/stm32f3xx_hal_i2c.c ****   uint32_t tmpisr = 0U;
 10657              		.loc 1 4797 0
 10658 000c 0023     		movs	r3, #0
 10659 000e FB60     		str	r3, [r7, #12]
4798:Drivers/STM32F3xx_HAL_Driver/Src/stm32f3xx_hal_i2c.c **** 
4799:Drivers/STM32F3xx_HAL_Driver/Src/stm32f3xx_hal_i2c.c ****   if ((InterruptRequest & I2C_XFER_TX_IT) == I2C_XFER_TX_IT)
 10660              		.loc 1 4799 0
 10661 0010 7B88     		ldrh	r3, [r7, #2]
 10662 0012 03F00103 		and	r3, r3, #1
 10663 0016 002B     		cmp	r3, #0
 10664 0018 0FD0     		beq	.L547
4800:Drivers/STM32F3xx_HAL_Driver/Src/stm32f3xx_hal_i2c.c ****   {
4801:Drivers/STM32F3xx_HAL_Driver/Src/stm32f3xx_hal_i2c.c ****     /* Disable TC and TXI interrupts */
4802:Drivers/STM32F3xx_HAL_Driver/Src/stm32f3xx_hal_i2c.c ****     tmpisr |= I2C_IT_TCI | I2C_IT_TXI;
 10665              		.loc 1 4802 0
 10666 001a FB68     		ldr	r3, [r7, #12]
 10667 001c 43F04203 		orr	r3, r3, #66
 10668 0020 FB60     		str	r3, [r7, #12]
4803:Drivers/STM32F3xx_HAL_Driver/Src/stm32f3xx_hal_i2c.c **** 
4804:Drivers/STM32F3xx_HAL_Driver/Src/stm32f3xx_hal_i2c.c ****     if ((hi2c->State & HAL_I2C_STATE_LISTEN) != HAL_I2C_STATE_LISTEN)
 10669              		.loc 1 4804 0
 10670 0022 7B68     		ldr	r3, [r7, #4]
 10671 0024 93F84130 		ldrb	r3, [r3, #65]
 10672 0028 DBB2     		uxtb	r3, r3
 10673 002a 03F02803 		and	r3, r3, #40
 10674 002e 282B     		cmp	r3, #40
 10675 0030 03D0     		beq	.L547
4805:Drivers/STM32F3xx_HAL_Driver/Src/stm32f3xx_hal_i2c.c ****     {
4806:Drivers/STM32F3xx_HAL_Driver/Src/stm32f3xx_hal_i2c.c ****       /* Disable NACK and STOP interrupts */
4807:Drivers/STM32F3xx_HAL_Driver/Src/stm32f3xx_hal_i2c.c ****       tmpisr |= I2C_IT_STOPI | I2C_IT_NACKI | I2C_IT_ERRI;
 10676              		.loc 1 4807 0
ARM GAS  /tmp/ccy0jiyr.s 			page 272


 10677 0032 FB68     		ldr	r3, [r7, #12]
 10678 0034 43F0B003 		orr	r3, r3, #176
 10679 0038 FB60     		str	r3, [r7, #12]
 10680              	.L547:
4808:Drivers/STM32F3xx_HAL_Driver/Src/stm32f3xx_hal_i2c.c ****     }
4809:Drivers/STM32F3xx_HAL_Driver/Src/stm32f3xx_hal_i2c.c ****   }
4810:Drivers/STM32F3xx_HAL_Driver/Src/stm32f3xx_hal_i2c.c **** 
4811:Drivers/STM32F3xx_HAL_Driver/Src/stm32f3xx_hal_i2c.c ****   if ((InterruptRequest & I2C_XFER_RX_IT) == I2C_XFER_RX_IT)
 10681              		.loc 1 4811 0
 10682 003a 7B88     		ldrh	r3, [r7, #2]
 10683 003c 03F00203 		and	r3, r3, #2
 10684 0040 002B     		cmp	r3, #0
 10685 0042 0FD0     		beq	.L548
4812:Drivers/STM32F3xx_HAL_Driver/Src/stm32f3xx_hal_i2c.c ****   {
4813:Drivers/STM32F3xx_HAL_Driver/Src/stm32f3xx_hal_i2c.c ****     /* Disable TC and RXI interrupts */
4814:Drivers/STM32F3xx_HAL_Driver/Src/stm32f3xx_hal_i2c.c ****     tmpisr |= I2C_IT_TCI | I2C_IT_RXI;
 10686              		.loc 1 4814 0
 10687 0044 FB68     		ldr	r3, [r7, #12]
 10688 0046 43F04403 		orr	r3, r3, #68
 10689 004a FB60     		str	r3, [r7, #12]
4815:Drivers/STM32F3xx_HAL_Driver/Src/stm32f3xx_hal_i2c.c **** 
4816:Drivers/STM32F3xx_HAL_Driver/Src/stm32f3xx_hal_i2c.c ****     if ((hi2c->State & HAL_I2C_STATE_LISTEN) != HAL_I2C_STATE_LISTEN)
 10690              		.loc 1 4816 0
 10691 004c 7B68     		ldr	r3, [r7, #4]
 10692 004e 93F84130 		ldrb	r3, [r3, #65]
 10693 0052 DBB2     		uxtb	r3, r3
 10694 0054 03F02803 		and	r3, r3, #40
 10695 0058 282B     		cmp	r3, #40
 10696 005a 03D0     		beq	.L548
4817:Drivers/STM32F3xx_HAL_Driver/Src/stm32f3xx_hal_i2c.c ****     {
4818:Drivers/STM32F3xx_HAL_Driver/Src/stm32f3xx_hal_i2c.c ****       /* Disable NACK and STOP interrupts */
4819:Drivers/STM32F3xx_HAL_Driver/Src/stm32f3xx_hal_i2c.c ****       tmpisr |= I2C_IT_STOPI | I2C_IT_NACKI | I2C_IT_ERRI;
 10697              		.loc 1 4819 0
 10698 005c FB68     		ldr	r3, [r7, #12]
 10699 005e 43F0B003 		orr	r3, r3, #176
 10700 0062 FB60     		str	r3, [r7, #12]
 10701              	.L548:
4820:Drivers/STM32F3xx_HAL_Driver/Src/stm32f3xx_hal_i2c.c ****     }
4821:Drivers/STM32F3xx_HAL_Driver/Src/stm32f3xx_hal_i2c.c ****   }
4822:Drivers/STM32F3xx_HAL_Driver/Src/stm32f3xx_hal_i2c.c **** 
4823:Drivers/STM32F3xx_HAL_Driver/Src/stm32f3xx_hal_i2c.c ****   if ((InterruptRequest & I2C_XFER_LISTEN_IT) == I2C_XFER_LISTEN_IT)
 10702              		.loc 1 4823 0
 10703 0064 7B88     		ldrh	r3, [r7, #2]
 10704 0066 03F00403 		and	r3, r3, #4
 10705 006a 002B     		cmp	r3, #0
 10706 006c 03D0     		beq	.L549
4824:Drivers/STM32F3xx_HAL_Driver/Src/stm32f3xx_hal_i2c.c ****   {
4825:Drivers/STM32F3xx_HAL_Driver/Src/stm32f3xx_hal_i2c.c ****     /* Disable ADDR, NACK and STOP interrupts */
4826:Drivers/STM32F3xx_HAL_Driver/Src/stm32f3xx_hal_i2c.c ****     tmpisr |= I2C_IT_ADDRI | I2C_IT_STOPI | I2C_IT_NACKI | I2C_IT_ERRI;
 10707              		.loc 1 4826 0
 10708 006e FB68     		ldr	r3, [r7, #12]
 10709 0070 43F0B803 		orr	r3, r3, #184
 10710 0074 FB60     		str	r3, [r7, #12]
 10711              	.L549:
4827:Drivers/STM32F3xx_HAL_Driver/Src/stm32f3xx_hal_i2c.c ****   }
4828:Drivers/STM32F3xx_HAL_Driver/Src/stm32f3xx_hal_i2c.c **** 
4829:Drivers/STM32F3xx_HAL_Driver/Src/stm32f3xx_hal_i2c.c ****   if ((InterruptRequest & I2C_XFER_ERROR_IT) == I2C_XFER_ERROR_IT)
ARM GAS  /tmp/ccy0jiyr.s 			page 273


 10712              		.loc 1 4829 0
 10713 0076 7B88     		ldrh	r3, [r7, #2]
 10714 0078 03F01103 		and	r3, r3, #17
 10715 007c 112B     		cmp	r3, #17
 10716 007e 03D1     		bne	.L550
4830:Drivers/STM32F3xx_HAL_Driver/Src/stm32f3xx_hal_i2c.c ****   {
4831:Drivers/STM32F3xx_HAL_Driver/Src/stm32f3xx_hal_i2c.c ****     /* Enable ERR and NACK interrupts */
4832:Drivers/STM32F3xx_HAL_Driver/Src/stm32f3xx_hal_i2c.c ****     tmpisr |= I2C_IT_ERRI | I2C_IT_NACKI;
 10717              		.loc 1 4832 0
 10718 0080 FB68     		ldr	r3, [r7, #12]
 10719 0082 43F09003 		orr	r3, r3, #144
 10720 0086 FB60     		str	r3, [r7, #12]
 10721              	.L550:
4833:Drivers/STM32F3xx_HAL_Driver/Src/stm32f3xx_hal_i2c.c ****   }
4834:Drivers/STM32F3xx_HAL_Driver/Src/stm32f3xx_hal_i2c.c **** 
4835:Drivers/STM32F3xx_HAL_Driver/Src/stm32f3xx_hal_i2c.c ****   if ((InterruptRequest & I2C_XFER_CPLT_IT) == I2C_XFER_CPLT_IT)
 10722              		.loc 1 4835 0
 10723 0088 7B88     		ldrh	r3, [r7, #2]
 10724 008a 03F01203 		and	r3, r3, #18
 10725 008e 122B     		cmp	r3, #18
 10726 0090 03D1     		bne	.L551
4836:Drivers/STM32F3xx_HAL_Driver/Src/stm32f3xx_hal_i2c.c ****   {
4837:Drivers/STM32F3xx_HAL_Driver/Src/stm32f3xx_hal_i2c.c ****     /* Enable STOP interrupts */
4838:Drivers/STM32F3xx_HAL_Driver/Src/stm32f3xx_hal_i2c.c ****     tmpisr |= I2C_IT_STOPI;
 10727              		.loc 1 4838 0
 10728 0092 FB68     		ldr	r3, [r7, #12]
 10729 0094 43F02003 		orr	r3, r3, #32
 10730 0098 FB60     		str	r3, [r7, #12]
 10731              	.L551:
4839:Drivers/STM32F3xx_HAL_Driver/Src/stm32f3xx_hal_i2c.c ****   }
4840:Drivers/STM32F3xx_HAL_Driver/Src/stm32f3xx_hal_i2c.c **** 
4841:Drivers/STM32F3xx_HAL_Driver/Src/stm32f3xx_hal_i2c.c ****   if ((InterruptRequest & I2C_XFER_RELOAD_IT) == I2C_XFER_RELOAD_IT)
 10732              		.loc 1 4841 0
 10733 009a 7B88     		ldrh	r3, [r7, #2]
 10734 009c 03F01203 		and	r3, r3, #18
 10735 00a0 122B     		cmp	r3, #18
 10736 00a2 03D1     		bne	.L552
4842:Drivers/STM32F3xx_HAL_Driver/Src/stm32f3xx_hal_i2c.c ****   {
4843:Drivers/STM32F3xx_HAL_Driver/Src/stm32f3xx_hal_i2c.c ****     /* Enable TC interrupts */
4844:Drivers/STM32F3xx_HAL_Driver/Src/stm32f3xx_hal_i2c.c ****     tmpisr |= I2C_IT_TCI;
 10737              		.loc 1 4844 0
 10738 00a4 FB68     		ldr	r3, [r7, #12]
 10739 00a6 43F04003 		orr	r3, r3, #64
 10740 00aa FB60     		str	r3, [r7, #12]
 10741              	.L552:
4845:Drivers/STM32F3xx_HAL_Driver/Src/stm32f3xx_hal_i2c.c ****   }
4846:Drivers/STM32F3xx_HAL_Driver/Src/stm32f3xx_hal_i2c.c **** 
4847:Drivers/STM32F3xx_HAL_Driver/Src/stm32f3xx_hal_i2c.c ****   /* Disable interrupts only at the end */
4848:Drivers/STM32F3xx_HAL_Driver/Src/stm32f3xx_hal_i2c.c ****   /* to avoid a breaking situation like at "t" time */
4849:Drivers/STM32F3xx_HAL_Driver/Src/stm32f3xx_hal_i2c.c ****   /* all disable interrupts request are not done */
4850:Drivers/STM32F3xx_HAL_Driver/Src/stm32f3xx_hal_i2c.c ****   __HAL_I2C_DISABLE_IT(hi2c, tmpisr);
 10742              		.loc 1 4850 0
 10743 00ac 7B68     		ldr	r3, [r7, #4]
 10744 00ae 1B68     		ldr	r3, [r3]
 10745 00b0 1968     		ldr	r1, [r3]
 10746 00b2 FB68     		ldr	r3, [r7, #12]
 10747 00b4 DA43     		mvns	r2, r3
ARM GAS  /tmp/ccy0jiyr.s 			page 274


 10748 00b6 7B68     		ldr	r3, [r7, #4]
 10749 00b8 1B68     		ldr	r3, [r3]
 10750 00ba 0A40     		ands	r2, r2, r1
 10751 00bc 1A60     		str	r2, [r3]
4851:Drivers/STM32F3xx_HAL_Driver/Src/stm32f3xx_hal_i2c.c **** 
4852:Drivers/STM32F3xx_HAL_Driver/Src/stm32f3xx_hal_i2c.c ****   return HAL_OK;
 10752              		.loc 1 4852 0
 10753 00be 0023     		movs	r3, #0
4853:Drivers/STM32F3xx_HAL_Driver/Src/stm32f3xx_hal_i2c.c **** }
 10754              		.loc 1 4853 0
 10755 00c0 1846     		mov	r0, r3
 10756 00c2 1437     		adds	r7, r7, #20
 10757              	.LCFI383:
 10758              		.cfi_def_cfa_offset 4
 10759 00c4 BD46     		mov	sp, r7
 10760              	.LCFI384:
 10761              		.cfi_def_cfa_register 13
 10762              		@ sp needed
 10763 00c6 5DF8047B 		ldr	r7, [sp], #4
 10764              	.LCFI385:
 10765              		.cfi_restore 7
 10766              		.cfi_def_cfa_offset 0
 10767 00ca 7047     		bx	lr
 10768              		.cfi_endproc
 10769              	.LFE767:
 10771              		.text
 10772              	.Letext0:
 10773              		.file 2 "/usr/arm-none-eabi/include/machine/_default_types.h"
 10774              		.file 3 "/usr/arm-none-eabi/include/sys/_stdint.h"
 10775              		.file 4 "Drivers/CMSIS/Include/core_cm4.h"
 10776              		.file 5 "Drivers/CMSIS/Device/ST/STM32F3xx/Include/system_stm32f3xx.h"
 10777              		.file 6 "Drivers/CMSIS/Device/ST/STM32F3xx/Include/stm32f303x8.h"
 10778              		.file 7 "Drivers/CMSIS/Device/ST/STM32F3xx/Include/stm32f3xx.h"
 10779              		.file 8 "/usr/arm-none-eabi/include/sys/lock.h"
 10780              		.file 9 "/usr/arm-none-eabi/include/sys/_types.h"
 10781              		.file 10 "/usr/lib/gcc/arm-none-eabi/7.3.0/include/stddef.h"
 10782              		.file 11 "/usr/arm-none-eabi/include/sys/reent.h"
 10783              		.file 12 "Drivers/STM32F3xx_HAL_Driver/Inc/stm32f3xx_hal_def.h"
 10784              		.file 13 "Drivers/STM32F3xx_HAL_Driver/Inc/stm32f3xx_hal_dma.h"
 10785              		.file 14 "Drivers/STM32F3xx_HAL_Driver/Inc/stm32f3xx_hal_i2c.h"
 10786              		.file 15 "Drivers/STM32F3xx_HAL_Driver/Inc/stm32f3xx_ll_dma.h"
ARM GAS  /tmp/ccy0jiyr.s 			page 275


DEFINED SYMBOLS
                            *ABS*:0000000000000000 stm32f3xx_hal_i2c.c
     /tmp/ccy0jiyr.s:18     .rodata.CHANNEL_OFFSET_TAB:0000000000000000 $d
     /tmp/ccy0jiyr.s:21     .rodata.CHANNEL_OFFSET_TAB:0000000000000000 CHANNEL_OFFSET_TAB
     /tmp/ccy0jiyr.s:30     .text.HAL_I2C_Init:0000000000000000 $t
     /tmp/ccy0jiyr.s:37     .text.HAL_I2C_Init:0000000000000000 HAL_I2C_Init
     /tmp/ccy0jiyr.s:310    .text.HAL_I2C_MspInit:0000000000000000 HAL_I2C_MspInit
     /tmp/ccy0jiyr.s:218    .text.HAL_I2C_DeInit:0000000000000000 $t
     /tmp/ccy0jiyr.s:225    .text.HAL_I2C_DeInit:0000000000000000 HAL_I2C_DeInit
     /tmp/ccy0jiyr.s:353    .text.HAL_I2C_MspDeInit:0000000000000000 HAL_I2C_MspDeInit
     /tmp/ccy0jiyr.s:303    .text.HAL_I2C_MspInit:0000000000000000 $t
     /tmp/ccy0jiyr.s:346    .text.HAL_I2C_MspDeInit:0000000000000000 $t
     /tmp/ccy0jiyr.s:389    .text.HAL_I2C_Master_Transmit:0000000000000000 $t
     /tmp/ccy0jiyr.s:396    .text.HAL_I2C_Master_Transmit:0000000000000000 HAL_I2C_Master_Transmit
     /tmp/ccy0jiyr.s:9814   .text.I2C_WaitOnFlagUntilTimeout:0000000000000000 I2C_WaitOnFlagUntilTimeout
     /tmp/ccy0jiyr.s:10395  .text.I2C_TransferConfig:0000000000000000 I2C_TransferConfig
     /tmp/ccy0jiyr.s:9911   .text.I2C_WaitOnTXISFlagUntilTimeout:0000000000000000 I2C_WaitOnTXISFlagUntilTimeout
     /tmp/ccy0jiyr.s:10015  .text.I2C_WaitOnSTOPFlagUntilTimeout:0000000000000000 I2C_WaitOnSTOPFlagUntilTimeout
     /tmp/ccy0jiyr.s:709    .text.HAL_I2C_Master_Transmit:00000000000001fc $d
     /tmp/ccy0jiyr.s:714    .text.HAL_I2C_Master_Receive:0000000000000000 $t
     /tmp/ccy0jiyr.s:721    .text.HAL_I2C_Master_Receive:0000000000000000 HAL_I2C_Master_Receive
     /tmp/ccy0jiyr.s:10115  .text.I2C_WaitOnRXNEFlagUntilTimeout:0000000000000000 I2C_WaitOnRXNEFlagUntilTimeout
     /tmp/ccy0jiyr.s:1035   .text.HAL_I2C_Master_Receive:0000000000000200 $d
     /tmp/ccy0jiyr.s:1040   .text.HAL_I2C_Slave_Transmit:0000000000000000 $t
     /tmp/ccy0jiyr.s:1047   .text.HAL_I2C_Slave_Transmit:0000000000000000 HAL_I2C_Slave_Transmit
     /tmp/ccy0jiyr.s:1378   .text.HAL_I2C_Slave_Receive:0000000000000000 $t
     /tmp/ccy0jiyr.s:1385   .text.HAL_I2C_Slave_Receive:0000000000000000 HAL_I2C_Slave_Receive
     /tmp/ccy0jiyr.s:1708   .text.HAL_I2C_Master_Transmit_IT:0000000000000000 $t
     /tmp/ccy0jiyr.s:1715   .text.HAL_I2C_Master_Transmit_IT:0000000000000000 HAL_I2C_Master_Transmit_IT
     /tmp/ccy0jiyr.s:10478  .text.I2C_Enable_IRQ:0000000000000000 I2C_Enable_IRQ
     /tmp/ccy0jiyr.s:1863   .text.HAL_I2C_Master_Transmit_IT:00000000000000d8 $d
     /tmp/ccy0jiyr.s:6790   .text.I2C_Master_ISR_IT:0000000000000000 I2C_Master_ISR_IT
     /tmp/ccy0jiyr.s:1869   .text.HAL_I2C_Master_Receive_IT:0000000000000000 $t
     /tmp/ccy0jiyr.s:1876   .text.HAL_I2C_Master_Receive_IT:0000000000000000 HAL_I2C_Master_Receive_IT
     /tmp/ccy0jiyr.s:2024   .text.HAL_I2C_Master_Receive_IT:00000000000000d8 $d
     /tmp/ccy0jiyr.s:2030   .text.HAL_I2C_Slave_Transmit_IT:0000000000000000 $t
     /tmp/ccy0jiyr.s:2037   .text.HAL_I2C_Slave_Transmit_IT:0000000000000000 HAL_I2C_Slave_Transmit_IT
     /tmp/ccy0jiyr.s:2147   .text.HAL_I2C_Slave_Transmit_IT:0000000000000098 $d
     /tmp/ccy0jiyr.s:7130   .text.I2C_Slave_ISR_IT:0000000000000000 I2C_Slave_ISR_IT
     /tmp/ccy0jiyr.s:2153   .text.HAL_I2C_Slave_Receive_IT:0000000000000000 $t
     /tmp/ccy0jiyr.s:2160   .text.HAL_I2C_Slave_Receive_IT:0000000000000000 HAL_I2C_Slave_Receive_IT
     /tmp/ccy0jiyr.s:2270   .text.HAL_I2C_Slave_Receive_IT:0000000000000098 $d
     /tmp/ccy0jiyr.s:2276   .text.HAL_I2C_Master_Transmit_DMA:0000000000000000 $t
     /tmp/ccy0jiyr.s:2283   .text.HAL_I2C_Master_Transmit_DMA:0000000000000000 HAL_I2C_Master_Transmit_DMA
     /tmp/ccy0jiyr.s:2510   .text.HAL_I2C_Master_Transmit_DMA:000000000000016c $d
     /tmp/ccy0jiyr.s:7433   .text.I2C_Master_ISR_DMA:0000000000000000 I2C_Master_ISR_DMA
     /tmp/ccy0jiyr.s:9380   .text.I2C_DMAMasterTransmitCplt:0000000000000000 I2C_DMAMasterTransmitCplt
     /tmp/ccy0jiyr.s:9680   .text.I2C_DMAError:0000000000000000 I2C_DMAError
     /tmp/ccy0jiyr.s:2519   .text.HAL_I2C_Master_Receive_DMA:0000000000000000 $t
     /tmp/ccy0jiyr.s:2526   .text.HAL_I2C_Master_Receive_DMA:0000000000000000 HAL_I2C_Master_Receive_DMA
     /tmp/ccy0jiyr.s:2753   .text.HAL_I2C_Master_Receive_DMA:000000000000016c $d
     /tmp/ccy0jiyr.s:9530   .text.I2C_DMAMasterReceiveCplt:0000000000000000 I2C_DMAMasterReceiveCplt
     /tmp/ccy0jiyr.s:2762   .text.HAL_I2C_Slave_Transmit_DMA:0000000000000000 $t
     /tmp/ccy0jiyr.s:2769   .text.HAL_I2C_Slave_Transmit_DMA:0000000000000000 HAL_I2C_Slave_Transmit_DMA
     /tmp/ccy0jiyr.s:2931   .text.HAL_I2C_Slave_Transmit_DMA:00000000000000ec $d
     /tmp/ccy0jiyr.s:7655   .text.I2C_Slave_ISR_DMA:0000000000000000 I2C_Slave_ISR_DMA
     /tmp/ccy0jiyr.s:9488   .text.I2C_DMASlaveTransmitCplt:0000000000000000 I2C_DMASlaveTransmitCplt
ARM GAS  /tmp/ccy0jiyr.s 			page 276


     /tmp/ccy0jiyr.s:2939   .text.HAL_I2C_Slave_Receive_DMA:0000000000000000 $t
     /tmp/ccy0jiyr.s:2946   .text.HAL_I2C_Slave_Receive_DMA:0000000000000000 HAL_I2C_Slave_Receive_DMA
     /tmp/ccy0jiyr.s:3108   .text.HAL_I2C_Slave_Receive_DMA:00000000000000ec $d
     /tmp/ccy0jiyr.s:9638   .text.I2C_DMASlaveReceiveCplt:0000000000000000 I2C_DMASlaveReceiveCplt
     /tmp/ccy0jiyr.s:3116   .text.HAL_I2C_Mem_Write:0000000000000000 $t
     /tmp/ccy0jiyr.s:3123   .text.HAL_I2C_Mem_Write:0000000000000000 HAL_I2C_Mem_Write
     /tmp/ccy0jiyr.s:7811   .text.I2C_RequestMemoryWrite:0000000000000000 I2C_RequestMemoryWrite
     /tmp/ccy0jiyr.s:3485   .text.HAL_I2C_Mem_Write:0000000000000248 $d
     /tmp/ccy0jiyr.s:3490   .text.HAL_I2C_Mem_Read:0000000000000000 $t
     /tmp/ccy0jiyr.s:3497   .text.HAL_I2C_Mem_Read:0000000000000000 HAL_I2C_Mem_Read
     /tmp/ccy0jiyr.s:7954   .text.I2C_RequestMemoryRead:0000000000000000 I2C_RequestMemoryRead
     /tmp/ccy0jiyr.s:3854   .text.HAL_I2C_Mem_Read:0000000000000248 $d
     /tmp/ccy0jiyr.s:3859   .text.HAL_I2C_Mem_Write_IT:0000000000000000 $t
     /tmp/ccy0jiyr.s:3866   .text.HAL_I2C_Mem_Write_IT:0000000000000000 HAL_I2C_Mem_Write_IT
     /tmp/ccy0jiyr.s:4071   .text.HAL_I2C_Mem_Write_IT:0000000000000134 $d
     /tmp/ccy0jiyr.s:4077   .text.HAL_I2C_Mem_Read_IT:0000000000000000 $t
     /tmp/ccy0jiyr.s:4084   .text.HAL_I2C_Mem_Read_IT:0000000000000000 HAL_I2C_Mem_Read_IT
     /tmp/ccy0jiyr.s:4289   .text.HAL_I2C_Mem_Read_IT:0000000000000134 $d
     /tmp/ccy0jiyr.s:4295   .text.HAL_I2C_Mem_Write_DMA:0000000000000000 $t
     /tmp/ccy0jiyr.s:4302   .text.HAL_I2C_Mem_Write_DMA:0000000000000000 HAL_I2C_Mem_Write_DMA
     /tmp/ccy0jiyr.s:4556   .text.HAL_I2C_Mem_Write_DMA:000000000000018c $d
     /tmp/ccy0jiyr.s:4564   .text.HAL_I2C_Mem_Read_DMA:0000000000000000 $t
     /tmp/ccy0jiyr.s:4571   .text.HAL_I2C_Mem_Read_DMA:0000000000000000 HAL_I2C_Mem_Read_DMA
     /tmp/ccy0jiyr.s:4825   .text.HAL_I2C_Mem_Read_DMA:0000000000000190 $d
     /tmp/ccy0jiyr.s:4833   .text.HAL_I2C_IsDeviceReady:0000000000000000 $t
     /tmp/ccy0jiyr.s:4840   .text.HAL_I2C_IsDeviceReady:0000000000000000 HAL_I2C_IsDeviceReady
     /tmp/ccy0jiyr.s:5118   .text.HAL_I2C_Master_Sequential_Transmit_IT:0000000000000000 $t
     /tmp/ccy0jiyr.s:5125   .text.HAL_I2C_Master_Sequential_Transmit_IT:0000000000000000 HAL_I2C_Master_Sequential_Transmit_IT
     /tmp/ccy0jiyr.s:5275   .text.HAL_I2C_Master_Sequential_Transmit_IT:00000000000000d4 $d
     /tmp/ccy0jiyr.s:5280   .text.HAL_I2C_Master_Sequential_Receive_IT:0000000000000000 $t
     /tmp/ccy0jiyr.s:5287   .text.HAL_I2C_Master_Sequential_Receive_IT:0000000000000000 HAL_I2C_Master_Sequential_Receive_IT
     /tmp/ccy0jiyr.s:5437   .text.HAL_I2C_Master_Sequential_Receive_IT:00000000000000d4 $d
     /tmp/ccy0jiyr.s:5442   .text.HAL_I2C_Slave_Sequential_Transmit_IT:0000000000000000 $t
     /tmp/ccy0jiyr.s:5449   .text.HAL_I2C_Slave_Sequential_Transmit_IT:0000000000000000 HAL_I2C_Slave_Sequential_Transmit_IT
     /tmp/ccy0jiyr.s:10637  .text.I2C_Disable_IRQ:0000000000000000 I2C_Disable_IRQ
     /tmp/ccy0jiyr.s:5603   .text.HAL_I2C_Slave_Sequential_Transmit_IT:00000000000000e0 $d
     /tmp/ccy0jiyr.s:5608   .text.HAL_I2C_Slave_Sequential_Receive_IT:0000000000000000 $t
     /tmp/ccy0jiyr.s:5615   .text.HAL_I2C_Slave_Sequential_Receive_IT:0000000000000000 HAL_I2C_Slave_Sequential_Receive_IT
     /tmp/ccy0jiyr.s:5768   .text.HAL_I2C_Slave_Sequential_Receive_IT:00000000000000e0 $d
     /tmp/ccy0jiyr.s:5773   .text.HAL_I2C_EnableListen_IT:0000000000000000 $t
     /tmp/ccy0jiyr.s:5780   .text.HAL_I2C_EnableListen_IT:0000000000000000 HAL_I2C_EnableListen_IT
     /tmp/ccy0jiyr.s:5836   .text.HAL_I2C_EnableListen_IT:0000000000000038 $d
     /tmp/ccy0jiyr.s:5841   .text.HAL_I2C_DisableListen_IT:0000000000000000 $t
     /tmp/ccy0jiyr.s:5848   .text.HAL_I2C_DisableListen_IT:0000000000000000 HAL_I2C_DisableListen_IT
     /tmp/ccy0jiyr.s:5924   .text.HAL_I2C_Master_Abort_IT:0000000000000000 $t
     /tmp/ccy0jiyr.s:5931   .text.HAL_I2C_Master_Abort_IT:0000000000000000 HAL_I2C_Master_Abort_IT
     /tmp/ccy0jiyr.s:6019   .text.HAL_I2C_EV_IRQHandler:0000000000000000 $t
     /tmp/ccy0jiyr.s:6026   .text.HAL_I2C_EV_IRQHandler:0000000000000000 HAL_I2C_EV_IRQHandler
     /tmp/ccy0jiyr.s:6082   .text.HAL_I2C_ER_IRQHandler:0000000000000000 $t
     /tmp/ccy0jiyr.s:6089   .text.HAL_I2C_ER_IRQHandler:0000000000000000 HAL_I2C_ER_IRQHandler
     /tmp/ccy0jiyr.s:9066   .text.I2C_ITError:0000000000000000 I2C_ITError
     /tmp/ccy0jiyr.s:6210   .text.HAL_I2C_MasterTxCpltCallback:0000000000000000 $t
     /tmp/ccy0jiyr.s:6217   .text.HAL_I2C_MasterTxCpltCallback:0000000000000000 HAL_I2C_MasterTxCpltCallback
     /tmp/ccy0jiyr.s:6253   .text.HAL_I2C_MasterRxCpltCallback:0000000000000000 $t
     /tmp/ccy0jiyr.s:6260   .text.HAL_I2C_MasterRxCpltCallback:0000000000000000 HAL_I2C_MasterRxCpltCallback
     /tmp/ccy0jiyr.s:6296   .text.HAL_I2C_SlaveTxCpltCallback:0000000000000000 $t
     /tmp/ccy0jiyr.s:6303   .text.HAL_I2C_SlaveTxCpltCallback:0000000000000000 HAL_I2C_SlaveTxCpltCallback
ARM GAS  /tmp/ccy0jiyr.s 			page 277


     /tmp/ccy0jiyr.s:6339   .text.HAL_I2C_SlaveRxCpltCallback:0000000000000000 $t
     /tmp/ccy0jiyr.s:6346   .text.HAL_I2C_SlaveRxCpltCallback:0000000000000000 HAL_I2C_SlaveRxCpltCallback
     /tmp/ccy0jiyr.s:6382   .text.HAL_I2C_AddrCallback:0000000000000000 $t
     /tmp/ccy0jiyr.s:6389   .text.HAL_I2C_AddrCallback:0000000000000000 HAL_I2C_AddrCallback
     /tmp/ccy0jiyr.s:6429   .text.HAL_I2C_ListenCpltCallback:0000000000000000 $t
     /tmp/ccy0jiyr.s:6436   .text.HAL_I2C_ListenCpltCallback:0000000000000000 HAL_I2C_ListenCpltCallback
     /tmp/ccy0jiyr.s:6472   .text.HAL_I2C_MemTxCpltCallback:0000000000000000 $t
     /tmp/ccy0jiyr.s:6479   .text.HAL_I2C_MemTxCpltCallback:0000000000000000 HAL_I2C_MemTxCpltCallback
     /tmp/ccy0jiyr.s:6515   .text.HAL_I2C_MemRxCpltCallback:0000000000000000 $t
     /tmp/ccy0jiyr.s:6522   .text.HAL_I2C_MemRxCpltCallback:0000000000000000 HAL_I2C_MemRxCpltCallback
     /tmp/ccy0jiyr.s:6558   .text.HAL_I2C_ErrorCallback:0000000000000000 $t
     /tmp/ccy0jiyr.s:6565   .text.HAL_I2C_ErrorCallback:0000000000000000 HAL_I2C_ErrorCallback
     /tmp/ccy0jiyr.s:6601   .text.HAL_I2C_AbortCpltCallback:0000000000000000 $t
     /tmp/ccy0jiyr.s:6608   .text.HAL_I2C_AbortCpltCallback:0000000000000000 HAL_I2C_AbortCpltCallback
     /tmp/ccy0jiyr.s:6644   .text.HAL_I2C_GetState:0000000000000000 $t
     /tmp/ccy0jiyr.s:6651   .text.HAL_I2C_GetState:0000000000000000 HAL_I2C_GetState
     /tmp/ccy0jiyr.s:6691   .text.HAL_I2C_GetMode:0000000000000000 $t
     /tmp/ccy0jiyr.s:6698   .text.HAL_I2C_GetMode:0000000000000000 HAL_I2C_GetMode
     /tmp/ccy0jiyr.s:6738   .text.HAL_I2C_GetError:0000000000000000 $t
     /tmp/ccy0jiyr.s:6745   .text.HAL_I2C_GetError:0000000000000000 HAL_I2C_GetError
     /tmp/ccy0jiyr.s:6784   .text.I2C_Master_ISR_IT:0000000000000000 $t
     /tmp/ccy0jiyr.s:9309   .text.I2C_Flush_TXDR:0000000000000000 I2C_Flush_TXDR
     /tmp/ccy0jiyr.s:8283   .text.I2C_ITMasterSequentialCplt:0000000000000000 I2C_ITMasterSequentialCplt
     /tmp/ccy0jiyr.s:8477   .text.I2C_ITMasterCplt:0000000000000000 I2C_ITMasterCplt
     /tmp/ccy0jiyr.s:7124   .text.I2C_Slave_ISR_IT:0000000000000000 $t
     /tmp/ccy0jiyr.s:8944   .text.I2C_ITListenCplt:0000000000000000 I2C_ITListenCplt
     /tmp/ccy0jiyr.s:8381   .text.I2C_ITSlaveSequentialCplt:0000000000000000 I2C_ITSlaveSequentialCplt
     /tmp/ccy0jiyr.s:8097   .text.I2C_ITAddrCplt:0000000000000000 I2C_ITAddrCplt
     /tmp/ccy0jiyr.s:8678   .text.I2C_ITSlaveCplt:0000000000000000 I2C_ITSlaveCplt
     /tmp/ccy0jiyr.s:7427   .text.I2C_Master_ISR_DMA:0000000000000000 $t
     /tmp/ccy0jiyr.s:7649   .text.I2C_Slave_ISR_DMA:0000000000000000 $t
     /tmp/ccy0jiyr.s:7805   .text.I2C_RequestMemoryWrite:0000000000000000 $t
     /tmp/ccy0jiyr.s:7948   .text.I2C_RequestMemoryRead:0000000000000000 $t
     /tmp/ccy0jiyr.s:8091   .text.I2C_ITAddrCplt:0000000000000000 $t
     /tmp/ccy0jiyr.s:8277   .text.I2C_ITMasterSequentialCplt:0000000000000000 $t
     /tmp/ccy0jiyr.s:8375   .text.I2C_ITSlaveSequentialCplt:0000000000000000 $t
     /tmp/ccy0jiyr.s:8471   .text.I2C_ITMasterCplt:0000000000000000 $t
     /tmp/ccy0jiyr.s:8666   .text.I2C_ITMasterCplt:0000000000000128 $d
     /tmp/ccy0jiyr.s:8672   .text.I2C_ITSlaveCplt:0000000000000000 $t
     /tmp/ccy0jiyr.s:8932   .text.I2C_ITSlaveCplt:0000000000000198 $d
     /tmp/ccy0jiyr.s:8938   .text.I2C_ITListenCplt:0000000000000000 $t
     /tmp/ccy0jiyr.s:9055   .text.I2C_ITListenCplt:00000000000000a0 $d
     /tmp/ccy0jiyr.s:9060   .text.I2C_ITError:0000000000000000 $t
     /tmp/ccy0jiyr.s:9296   .text.I2C_ITError:0000000000000170 $d
     /tmp/ccy0jiyr.s:9734   .text.I2C_DMAAbort:0000000000000000 I2C_DMAAbort
     /tmp/ccy0jiyr.s:9303   .text.I2C_Flush_TXDR:0000000000000000 $t
     /tmp/ccy0jiyr.s:9374   .text.I2C_DMAMasterTransmitCplt:0000000000000000 $t
     /tmp/ccy0jiyr.s:9482   .text.I2C_DMASlaveTransmitCplt:0000000000000000 $t
     /tmp/ccy0jiyr.s:9524   .text.I2C_DMAMasterReceiveCplt:0000000000000000 $t
     /tmp/ccy0jiyr.s:9632   .text.I2C_DMASlaveReceiveCplt:0000000000000000 $t
     /tmp/ccy0jiyr.s:9674   .text.I2C_DMAError:0000000000000000 $t
     /tmp/ccy0jiyr.s:9728   .text.I2C_DMAAbort:0000000000000000 $t
     /tmp/ccy0jiyr.s:9808   .text.I2C_WaitOnFlagUntilTimeout:0000000000000000 $t
     /tmp/ccy0jiyr.s:9905   .text.I2C_WaitOnTXISFlagUntilTimeout:0000000000000000 $t
     /tmp/ccy0jiyr.s:10256  .text.I2C_IsAcknowledgeFailed:0000000000000000 I2C_IsAcknowledgeFailed
     /tmp/ccy0jiyr.s:10009  .text.I2C_WaitOnSTOPFlagUntilTimeout:0000000000000000 $t
     /tmp/ccy0jiyr.s:10109  .text.I2C_WaitOnRXNEFlagUntilTimeout:0000000000000000 $t
ARM GAS  /tmp/ccy0jiyr.s 			page 278


     /tmp/ccy0jiyr.s:10245  .text.I2C_WaitOnRXNEFlagUntilTimeout:00000000000000b8 $d
     /tmp/ccy0jiyr.s:10250  .text.I2C_IsAcknowledgeFailed:0000000000000000 $t
     /tmp/ccy0jiyr.s:10384  .text.I2C_IsAcknowledgeFailed:00000000000000b8 $d
     /tmp/ccy0jiyr.s:10389  .text.I2C_TransferConfig:0000000000000000 $t
     /tmp/ccy0jiyr.s:10467  .text.I2C_TransferConfig:0000000000000058 $d
     /tmp/ccy0jiyr.s:10472  .text.I2C_Enable_IRQ:0000000000000000 $t
     /tmp/ccy0jiyr.s:10625  .text.I2C_Enable_IRQ:00000000000000d4 $d
     /tmp/ccy0jiyr.s:10631  .text.I2C_Disable_IRQ:0000000000000000 $t

UNDEFINED SYMBOLS
HAL_GetTick
HAL_DMA_Start_IT
HAL_DMA_Abort_IT
