ARM GAS  /tmp/ccy0jiyr.s 			page 1


   1              		.cpu cortex-m4
   2              		.eabi_attribute 27, 1
   3              		.eabi_attribute 28, 1
   4              		.eabi_attribute 20, 1
   5              		.eabi_attribute 21, 1
   6              		.eabi_attribute 23, 3
   7              		.eabi_attribute 24, 1
   8              		.eabi_attribute 25, 1
   9              		.eabi_attribute 26, 1
  10              		.eabi_attribute 30, 6
  11              		.eabi_attribute 34, 1
  12              		.eabi_attribute 18, 4
  13              		.file	"stm32f3xx_hal_i2c.c"
  14              		.text
  15              	.Ltext0:
  16              		.cfi_sections	.debug_frame
  17              		.section	.rodata.CHANNEL_OFFSET_TAB,"a",%progbits
  18              		.align	2
  21              	CHANNEL_OFFSET_TAB:
  22 0000 08       		.byte	8
  23 0001 1C       		.byte	28
  24 0002 30       		.byte	48
  25 0003 44       		.byte	68
  26 0004 58       		.byte	88
  27 0005 6C       		.byte	108
  28 0006 80       		.byte	-128
  29              		.section	.text.HAL_I2C_Init,"ax",%progbits
  30              		.align	1
  31              		.global	HAL_I2C_Init
  32              		.syntax unified
  33              		.thumb
  34              		.thumb_func
  35              		.fpu fpv4-sp-d16
  37              	HAL_I2C_Init:
  38              	.LFB695:
  39              		.file 1 "Drivers/STM32F3xx_HAL_Driver/Src/stm32f3xx_hal_i2c.c"
   1:Drivers/STM32F3xx_HAL_Driver/Src/stm32f3xx_hal_i2c.c **** /**
   2:Drivers/STM32F3xx_HAL_Driver/Src/stm32f3xx_hal_i2c.c ****   ******************************************************************************
   3:Drivers/STM32F3xx_HAL_Driver/Src/stm32f3xx_hal_i2c.c ****   * @file    stm32f3xx_hal_i2c.c
   4:Drivers/STM32F3xx_HAL_Driver/Src/stm32f3xx_hal_i2c.c ****   * @author  MCD Application Team
   5:Drivers/STM32F3xx_HAL_Driver/Src/stm32f3xx_hal_i2c.c ****   * @brief   I2C HAL module driver.
   6:Drivers/STM32F3xx_HAL_Driver/Src/stm32f3xx_hal_i2c.c ****   *          This file provides firmware functions to manage the following
   7:Drivers/STM32F3xx_HAL_Driver/Src/stm32f3xx_hal_i2c.c ****   *          functionalities of the Inter Integrated Circuit (I2C) peripheral:
   8:Drivers/STM32F3xx_HAL_Driver/Src/stm32f3xx_hal_i2c.c ****   *           + Initialization and de-initialization functions
   9:Drivers/STM32F3xx_HAL_Driver/Src/stm32f3xx_hal_i2c.c ****   *           + IO operation functions
  10:Drivers/STM32F3xx_HAL_Driver/Src/stm32f3xx_hal_i2c.c ****   *           + Peripheral State and Errors functions
  11:Drivers/STM32F3xx_HAL_Driver/Src/stm32f3xx_hal_i2c.c ****   *
  12:Drivers/STM32F3xx_HAL_Driver/Src/stm32f3xx_hal_i2c.c ****   @verbatim
  13:Drivers/STM32F3xx_HAL_Driver/Src/stm32f3xx_hal_i2c.c ****   ==============================================================================
  14:Drivers/STM32F3xx_HAL_Driver/Src/stm32f3xx_hal_i2c.c ****                         ##### How to use this driver #####
  15:Drivers/STM32F3xx_HAL_Driver/Src/stm32f3xx_hal_i2c.c ****   ==============================================================================
  16:Drivers/STM32F3xx_HAL_Driver/Src/stm32f3xx_hal_i2c.c ****     [..]
  17:Drivers/STM32F3xx_HAL_Driver/Src/stm32f3xx_hal_i2c.c ****     The I2C HAL driver can be used as follows:
  18:Drivers/STM32F3xx_HAL_Driver/Src/stm32f3xx_hal_i2c.c **** 
  19:Drivers/STM32F3xx_HAL_Driver/Src/stm32f3xx_hal_i2c.c ****     (#) Declare a I2C_HandleTypeDef handle structure, for example:
  20:Drivers/STM32F3xx_HAL_Driver/Src/stm32f3xx_hal_i2c.c ****         I2C_HandleTypeDef  hi2c;
  21:Drivers/STM32F3xx_HAL_Driver/Src/stm32f3xx_hal_i2c.c **** 
ARM GAS  /tmp/ccy0jiyr.s 			page 2


  22:Drivers/STM32F3xx_HAL_Driver/Src/stm32f3xx_hal_i2c.c ****     (#)Initialize the I2C low level resources by implementing the HAL_I2C_MspInit() API:
  23:Drivers/STM32F3xx_HAL_Driver/Src/stm32f3xx_hal_i2c.c ****         (##) Enable the I2Cx interface clock
  24:Drivers/STM32F3xx_HAL_Driver/Src/stm32f3xx_hal_i2c.c ****         (##) I2C pins configuration
  25:Drivers/STM32F3xx_HAL_Driver/Src/stm32f3xx_hal_i2c.c ****             (+++) Enable the clock for the I2C GPIOs
  26:Drivers/STM32F3xx_HAL_Driver/Src/stm32f3xx_hal_i2c.c ****             (+++) Configure I2C pins as alternate function open-drain
  27:Drivers/STM32F3xx_HAL_Driver/Src/stm32f3xx_hal_i2c.c ****         (##) NVIC configuration if you need to use interrupt process
  28:Drivers/STM32F3xx_HAL_Driver/Src/stm32f3xx_hal_i2c.c ****             (+++) Configure the I2Cx interrupt priority
  29:Drivers/STM32F3xx_HAL_Driver/Src/stm32f3xx_hal_i2c.c ****             (+++) Enable the NVIC I2C IRQ Channel
  30:Drivers/STM32F3xx_HAL_Driver/Src/stm32f3xx_hal_i2c.c ****         (##) DMA Configuration if you need to use DMA process
  31:Drivers/STM32F3xx_HAL_Driver/Src/stm32f3xx_hal_i2c.c ****             (+++) Declare a DMA_HandleTypeDef handle structure for the transmit or receive channel
  32:Drivers/STM32F3xx_HAL_Driver/Src/stm32f3xx_hal_i2c.c ****             (+++) Enable the DMAx interface clock using
  33:Drivers/STM32F3xx_HAL_Driver/Src/stm32f3xx_hal_i2c.c ****             (+++) Configure the DMA handle parameters
  34:Drivers/STM32F3xx_HAL_Driver/Src/stm32f3xx_hal_i2c.c ****             (+++) Configure the DMA Tx or Rx channel
  35:Drivers/STM32F3xx_HAL_Driver/Src/stm32f3xx_hal_i2c.c ****             (+++) Associate the initialized DMA handle to the hi2c DMA Tx or Rx handle
  36:Drivers/STM32F3xx_HAL_Driver/Src/stm32f3xx_hal_i2c.c ****             (+++) Configure the priority and enable the NVIC for the transfer complete interrupt on
  37:Drivers/STM32F3xx_HAL_Driver/Src/stm32f3xx_hal_i2c.c ****                   the DMA Tx or Rx channel
  38:Drivers/STM32F3xx_HAL_Driver/Src/stm32f3xx_hal_i2c.c **** 
  39:Drivers/STM32F3xx_HAL_Driver/Src/stm32f3xx_hal_i2c.c ****     (#) Configure the Communication Clock Timing, Own Address1, Master Addressing mode, Dual Addres
  40:Drivers/STM32F3xx_HAL_Driver/Src/stm32f3xx_hal_i2c.c ****         Own Address2, Own Address2 Mask, General call and Nostretch mode in the hi2c Init structure
  41:Drivers/STM32F3xx_HAL_Driver/Src/stm32f3xx_hal_i2c.c **** 
  42:Drivers/STM32F3xx_HAL_Driver/Src/stm32f3xx_hal_i2c.c ****     (#) Initialize the I2C registers by calling the HAL_I2C_Init(), configures also the low level H
  43:Drivers/STM32F3xx_HAL_Driver/Src/stm32f3xx_hal_i2c.c ****         (GPIO, CLOCK, NVIC...etc) by calling the customized HAL_I2C_MspInit(&hi2c) API.
  44:Drivers/STM32F3xx_HAL_Driver/Src/stm32f3xx_hal_i2c.c **** 
  45:Drivers/STM32F3xx_HAL_Driver/Src/stm32f3xx_hal_i2c.c ****     (#) To check if target device is ready for communication, use the function HAL_I2C_IsDeviceRead
  46:Drivers/STM32F3xx_HAL_Driver/Src/stm32f3xx_hal_i2c.c **** 
  47:Drivers/STM32F3xx_HAL_Driver/Src/stm32f3xx_hal_i2c.c ****     (#) For I2C IO and IO MEM operations, three operation modes are available within this driver :
  48:Drivers/STM32F3xx_HAL_Driver/Src/stm32f3xx_hal_i2c.c **** 
  49:Drivers/STM32F3xx_HAL_Driver/Src/stm32f3xx_hal_i2c.c ****     *** Polling mode IO operation ***
  50:Drivers/STM32F3xx_HAL_Driver/Src/stm32f3xx_hal_i2c.c ****     =================================
  51:Drivers/STM32F3xx_HAL_Driver/Src/stm32f3xx_hal_i2c.c ****     [..]
  52:Drivers/STM32F3xx_HAL_Driver/Src/stm32f3xx_hal_i2c.c ****       (+) Transmit in master mode an amount of data in blocking mode using HAL_I2C_Master_Transmit(
  53:Drivers/STM32F3xx_HAL_Driver/Src/stm32f3xx_hal_i2c.c ****       (+) Receive in master mode an amount of data in blocking mode using HAL_I2C_Master_Receive()
  54:Drivers/STM32F3xx_HAL_Driver/Src/stm32f3xx_hal_i2c.c ****       (+) Transmit in slave mode an amount of data in blocking mode using HAL_I2C_Slave_Transmit()
  55:Drivers/STM32F3xx_HAL_Driver/Src/stm32f3xx_hal_i2c.c ****       (+) Receive in slave mode an amount of data in blocking mode using HAL_I2C_Slave_Receive()
  56:Drivers/STM32F3xx_HAL_Driver/Src/stm32f3xx_hal_i2c.c **** 
  57:Drivers/STM32F3xx_HAL_Driver/Src/stm32f3xx_hal_i2c.c ****     *** Polling mode IO MEM operation ***
  58:Drivers/STM32F3xx_HAL_Driver/Src/stm32f3xx_hal_i2c.c ****     =====================================
  59:Drivers/STM32F3xx_HAL_Driver/Src/stm32f3xx_hal_i2c.c ****     [..]
  60:Drivers/STM32F3xx_HAL_Driver/Src/stm32f3xx_hal_i2c.c ****       (+) Write an amount of data in blocking mode to a specific memory address using HAL_I2C_Mem_W
  61:Drivers/STM32F3xx_HAL_Driver/Src/stm32f3xx_hal_i2c.c ****       (+) Read an amount of data in blocking mode from a specific memory address using HAL_I2C_Mem_
  62:Drivers/STM32F3xx_HAL_Driver/Src/stm32f3xx_hal_i2c.c **** 
  63:Drivers/STM32F3xx_HAL_Driver/Src/stm32f3xx_hal_i2c.c **** 
  64:Drivers/STM32F3xx_HAL_Driver/Src/stm32f3xx_hal_i2c.c ****     *** Interrupt mode IO operation ***
  65:Drivers/STM32F3xx_HAL_Driver/Src/stm32f3xx_hal_i2c.c ****     ===================================
  66:Drivers/STM32F3xx_HAL_Driver/Src/stm32f3xx_hal_i2c.c ****     [..]
  67:Drivers/STM32F3xx_HAL_Driver/Src/stm32f3xx_hal_i2c.c ****       (+) Transmit in master mode an amount of data in non-blocking mode using HAL_I2C_Master_Trans
  68:Drivers/STM32F3xx_HAL_Driver/Src/stm32f3xx_hal_i2c.c ****       (+) At transmission end of transfer, HAL_I2C_MasterTxCpltCallback() is executed and user can
  69:Drivers/STM32F3xx_HAL_Driver/Src/stm32f3xx_hal_i2c.c ****            add his own code by customization of function pointer HAL_I2C_MasterTxCpltCallback()
  70:Drivers/STM32F3xx_HAL_Driver/Src/stm32f3xx_hal_i2c.c ****       (+) Receive in master mode an amount of data in non-blocking mode using HAL_I2C_Master_Receiv
  71:Drivers/STM32F3xx_HAL_Driver/Src/stm32f3xx_hal_i2c.c ****       (+) At reception end of transfer, HAL_I2C_MasterRxCpltCallback() is executed and user can
  72:Drivers/STM32F3xx_HAL_Driver/Src/stm32f3xx_hal_i2c.c ****            add his own code by customization of function pointer HAL_I2C_MasterRxCpltCallback()
  73:Drivers/STM32F3xx_HAL_Driver/Src/stm32f3xx_hal_i2c.c ****       (+) Transmit in slave mode an amount of data in non-blocking mode using HAL_I2C_Slave_Transmi
  74:Drivers/STM32F3xx_HAL_Driver/Src/stm32f3xx_hal_i2c.c ****       (+) At transmission end of transfer, HAL_I2C_SlaveTxCpltCallback() is executed and user can
  75:Drivers/STM32F3xx_HAL_Driver/Src/stm32f3xx_hal_i2c.c ****            add his own code by customization of function pointer HAL_I2C_SlaveTxCpltCallback()
  76:Drivers/STM32F3xx_HAL_Driver/Src/stm32f3xx_hal_i2c.c ****       (+) Receive in slave mode an amount of data in non-blocking mode using HAL_I2C_Slave_Receive_
  77:Drivers/STM32F3xx_HAL_Driver/Src/stm32f3xx_hal_i2c.c ****       (+) At reception end of transfer, HAL_I2C_SlaveRxCpltCallback() is executed and user can
  78:Drivers/STM32F3xx_HAL_Driver/Src/stm32f3xx_hal_i2c.c ****            add his own code by customization of function pointer HAL_I2C_SlaveRxCpltCallback()
ARM GAS  /tmp/ccy0jiyr.s 			page 3


  79:Drivers/STM32F3xx_HAL_Driver/Src/stm32f3xx_hal_i2c.c ****       (+) In case of transfer Error, HAL_I2C_ErrorCallback() function is executed and user can
  80:Drivers/STM32F3xx_HAL_Driver/Src/stm32f3xx_hal_i2c.c ****            add his own code by customization of function pointer HAL_I2C_ErrorCallback()
  81:Drivers/STM32F3xx_HAL_Driver/Src/stm32f3xx_hal_i2c.c ****       (+) Abort a master I2C process communication with Interrupt using HAL_I2C_Master_Abort_IT()
  82:Drivers/STM32F3xx_HAL_Driver/Src/stm32f3xx_hal_i2c.c ****       (+) End of abort process, HAL_I2C_AbortCpltCallback() is executed and user can
  83:Drivers/STM32F3xx_HAL_Driver/Src/stm32f3xx_hal_i2c.c ****            add his own code by customization of function pointer HAL_I2C_AbortCpltCallback()
  84:Drivers/STM32F3xx_HAL_Driver/Src/stm32f3xx_hal_i2c.c ****       (+) Discard a slave I2C process communication using __HAL_I2C_GENERATE_NACK() macro.
  85:Drivers/STM32F3xx_HAL_Driver/Src/stm32f3xx_hal_i2c.c ****            This action will inform Master to generate a Stop condition to discard the communication
  86:Drivers/STM32F3xx_HAL_Driver/Src/stm32f3xx_hal_i2c.c **** 
  87:Drivers/STM32F3xx_HAL_Driver/Src/stm32f3xx_hal_i2c.c **** 
  88:Drivers/STM32F3xx_HAL_Driver/Src/stm32f3xx_hal_i2c.c ****     *** Interrupt mode IO sequential operation ***
  89:Drivers/STM32F3xx_HAL_Driver/Src/stm32f3xx_hal_i2c.c ****     ==============================================
  90:Drivers/STM32F3xx_HAL_Driver/Src/stm32f3xx_hal_i2c.c ****     [..]
  91:Drivers/STM32F3xx_HAL_Driver/Src/stm32f3xx_hal_i2c.c ****       (@) These interfaces allow to manage a sequential transfer with a repeated start condition
  92:Drivers/STM32F3xx_HAL_Driver/Src/stm32f3xx_hal_i2c.c ****           when a direction change during transfer
  93:Drivers/STM32F3xx_HAL_Driver/Src/stm32f3xx_hal_i2c.c ****     [..]
  94:Drivers/STM32F3xx_HAL_Driver/Src/stm32f3xx_hal_i2c.c ****       (+) A specific option field manage the different steps of a sequential transfer
  95:Drivers/STM32F3xx_HAL_Driver/Src/stm32f3xx_hal_i2c.c ****       (+) Option field values are defined through @ref I2C_XFEROPTIONS and are listed below:
  96:Drivers/STM32F3xx_HAL_Driver/Src/stm32f3xx_hal_i2c.c ****       (++) I2C_FIRST_AND_LAST_FRAME: No sequential usage, functionnal is same as associated interfa
  97:Drivers/STM32F3xx_HAL_Driver/Src/stm32f3xx_hal_i2c.c ****       (++) I2C_FIRST_FRAME: Sequential usage, this option allow to manage a sequence with start con
  98:Drivers/STM32F3xx_HAL_Driver/Src/stm32f3xx_hal_i2c.c ****                             and data to transfer without a final stop condition
  99:Drivers/STM32F3xx_HAL_Driver/Src/stm32f3xx_hal_i2c.c ****       (++) I2C_FIRST_AND_NEXT_FRAME: Sequential usage (Master only), this option allow to manage a 
 100:Drivers/STM32F3xx_HAL_Driver/Src/stm32f3xx_hal_i2c.c ****                             and data to transfer without a final stop condition, an then permit a c
 101:Drivers/STM32F3xx_HAL_Driver/Src/stm32f3xx_hal_i2c.c ****                             several times (like HAL_I2C_Master_Sequential_Transmit_IT() then HAL_I2
 102:Drivers/STM32F3xx_HAL_Driver/Src/stm32f3xx_hal_i2c.c ****       (++) I2C_NEXT_FRAME: Sequential usage, this option allow to manage a sequence with a restart 
 103:Drivers/STM32F3xx_HAL_Driver/Src/stm32f3xx_hal_i2c.c ****                             and with new data to transfer if the direction change or manage only th
 104:Drivers/STM32F3xx_HAL_Driver/Src/stm32f3xx_hal_i2c.c ****                             if no direction change and without a final stop condition in both cases
 105:Drivers/STM32F3xx_HAL_Driver/Src/stm32f3xx_hal_i2c.c ****       (++) I2C_LAST_FRAME: Sequential usage, this option allow to manage a sequance with a restart 
 106:Drivers/STM32F3xx_HAL_Driver/Src/stm32f3xx_hal_i2c.c ****                             and with new data to transfer if the direction change or manage only th
 107:Drivers/STM32F3xx_HAL_Driver/Src/stm32f3xx_hal_i2c.c ****                             if no direction change and with a final stop condition in both cases
 108:Drivers/STM32F3xx_HAL_Driver/Src/stm32f3xx_hal_i2c.c **** 
 109:Drivers/STM32F3xx_HAL_Driver/Src/stm32f3xx_hal_i2c.c ****       (+) Differents sequential I2C interfaces are listed below:
 110:Drivers/STM32F3xx_HAL_Driver/Src/stm32f3xx_hal_i2c.c ****       (++) Sequential transmit in master I2C mode an amount of data in non-blocking mode using HAL_
 111:Drivers/STM32F3xx_HAL_Driver/Src/stm32f3xx_hal_i2c.c ****       (+++) At transmission end of current frame transfer, HAL_I2C_MasterTxCpltCallback() is execut
 112:Drivers/STM32F3xx_HAL_Driver/Src/stm32f3xx_hal_i2c.c ****            add his own code by customization of function pointer HAL_I2C_MasterTxCpltCallback()
 113:Drivers/STM32F3xx_HAL_Driver/Src/stm32f3xx_hal_i2c.c ****       (++) Sequential receive in master I2C mode an amount of data in non-blocking mode using HAL_I
 114:Drivers/STM32F3xx_HAL_Driver/Src/stm32f3xx_hal_i2c.c ****       (+++) At reception end of current frame transfer, HAL_I2C_MasterRxCpltCallback() is executed 
 115:Drivers/STM32F3xx_HAL_Driver/Src/stm32f3xx_hal_i2c.c ****            add his own code by customization of function pointer HAL_I2C_MasterRxCpltCallback()
 116:Drivers/STM32F3xx_HAL_Driver/Src/stm32f3xx_hal_i2c.c ****       (++) Abort a master I2C process communication with Interrupt using HAL_I2C_Master_Abort_IT()
 117:Drivers/STM32F3xx_HAL_Driver/Src/stm32f3xx_hal_i2c.c ****       (+++) End of abort process, HAL_I2C_AbortCpltCallback() is executed and user can
 118:Drivers/STM32F3xx_HAL_Driver/Src/stm32f3xx_hal_i2c.c ****            add his own code by customization of function pointer HAL_I2C_AbortCpltCallback()
 119:Drivers/STM32F3xx_HAL_Driver/Src/stm32f3xx_hal_i2c.c ****       (++) Enable/disable the Address listen mode in slave I2C mode using HAL_I2C_EnableListen_IT()
 120:Drivers/STM32F3xx_HAL_Driver/Src/stm32f3xx_hal_i2c.c ****       (+++) When address slave I2C match, HAL_I2C_AddrCallback() is executed and user can
 121:Drivers/STM32F3xx_HAL_Driver/Src/stm32f3xx_hal_i2c.c ****            add his own code to check the Address Match Code and the transmission direction request 
 122:Drivers/STM32F3xx_HAL_Driver/Src/stm32f3xx_hal_i2c.c ****       (+++) At Listen mode end HAL_I2C_ListenCpltCallback() is executed and user can
 123:Drivers/STM32F3xx_HAL_Driver/Src/stm32f3xx_hal_i2c.c ****            add his own code by customization of function pointer HAL_I2C_ListenCpltCallback()
 124:Drivers/STM32F3xx_HAL_Driver/Src/stm32f3xx_hal_i2c.c ****       (++) Sequential transmit in slave I2C mode an amount of data in non-blocking mode using HAL_I
 125:Drivers/STM32F3xx_HAL_Driver/Src/stm32f3xx_hal_i2c.c ****       (+++) At transmission end of current frame transfer, HAL_I2C_SlaveTxCpltCallback() is execute
 126:Drivers/STM32F3xx_HAL_Driver/Src/stm32f3xx_hal_i2c.c ****            add his own code by customization of function pointer HAL_I2C_SlaveTxCpltCallback()
 127:Drivers/STM32F3xx_HAL_Driver/Src/stm32f3xx_hal_i2c.c ****       (++) Sequential receive in slave I2C mode an amount of data in non-blocking mode using HAL_I2
 128:Drivers/STM32F3xx_HAL_Driver/Src/stm32f3xx_hal_i2c.c ****       (+++) At reception end of current frame transfer, HAL_I2C_SlaveRxCpltCallback() is executed a
 129:Drivers/STM32F3xx_HAL_Driver/Src/stm32f3xx_hal_i2c.c ****            add his own code by customization of function pointer HAL_I2C_SlaveRxCpltCallback()
 130:Drivers/STM32F3xx_HAL_Driver/Src/stm32f3xx_hal_i2c.c ****       (++) In case of transfer Error, HAL_I2C_ErrorCallback() function is executed and user can
 131:Drivers/STM32F3xx_HAL_Driver/Src/stm32f3xx_hal_i2c.c ****            add his own code by customization of function pointer HAL_I2C_ErrorCallback()
 132:Drivers/STM32F3xx_HAL_Driver/Src/stm32f3xx_hal_i2c.c ****       (++) Abort a master I2C process communication with Interrupt using HAL_I2C_Master_Abort_IT()
 133:Drivers/STM32F3xx_HAL_Driver/Src/stm32f3xx_hal_i2c.c ****       (++) End of abort process, HAL_I2C_AbortCpltCallback() is executed and user can
 134:Drivers/STM32F3xx_HAL_Driver/Src/stm32f3xx_hal_i2c.c ****            add his own code by customization of function pointer HAL_I2C_AbortCpltCallback()
 135:Drivers/STM32F3xx_HAL_Driver/Src/stm32f3xx_hal_i2c.c ****       (++) Discard a slave I2C process communication using __HAL_I2C_GENERATE_NACK() macro.
ARM GAS  /tmp/ccy0jiyr.s 			page 4


 136:Drivers/STM32F3xx_HAL_Driver/Src/stm32f3xx_hal_i2c.c ****            This action will inform Master to generate a Stop condition to discard the communication
 137:Drivers/STM32F3xx_HAL_Driver/Src/stm32f3xx_hal_i2c.c **** 
 138:Drivers/STM32F3xx_HAL_Driver/Src/stm32f3xx_hal_i2c.c ****     *** Interrupt mode IO MEM operation ***
 139:Drivers/STM32F3xx_HAL_Driver/Src/stm32f3xx_hal_i2c.c ****     =======================================
 140:Drivers/STM32F3xx_HAL_Driver/Src/stm32f3xx_hal_i2c.c ****     [..]
 141:Drivers/STM32F3xx_HAL_Driver/Src/stm32f3xx_hal_i2c.c ****       (+) Write an amount of data in non-blocking mode with Interrupt to a specific memory address 
 142:Drivers/STM32F3xx_HAL_Driver/Src/stm32f3xx_hal_i2c.c ****           HAL_I2C_Mem_Write_IT()
 143:Drivers/STM32F3xx_HAL_Driver/Src/stm32f3xx_hal_i2c.c ****       (+) At Memory end of write transfer, HAL_I2C_MemTxCpltCallback() is executed and user can
 144:Drivers/STM32F3xx_HAL_Driver/Src/stm32f3xx_hal_i2c.c ****            add his own code by customization of function pointer HAL_I2C_MemTxCpltCallback()
 145:Drivers/STM32F3xx_HAL_Driver/Src/stm32f3xx_hal_i2c.c ****       (+) Read an amount of data in non-blocking mode with Interrupt from a specific memory address
 146:Drivers/STM32F3xx_HAL_Driver/Src/stm32f3xx_hal_i2c.c ****           HAL_I2C_Mem_Read_IT()
 147:Drivers/STM32F3xx_HAL_Driver/Src/stm32f3xx_hal_i2c.c ****       (+) At Memory end of read transfer, HAL_I2C_MemRxCpltCallback() is executed and user can
 148:Drivers/STM32F3xx_HAL_Driver/Src/stm32f3xx_hal_i2c.c ****            add his own code by customization of function pointer HAL_I2C_MemRxCpltCallback()
 149:Drivers/STM32F3xx_HAL_Driver/Src/stm32f3xx_hal_i2c.c ****       (+) In case of transfer Error, HAL_I2C_ErrorCallback() function is executed and user can
 150:Drivers/STM32F3xx_HAL_Driver/Src/stm32f3xx_hal_i2c.c ****            add his own code by customization of function pointer HAL_I2C_ErrorCallback()
 151:Drivers/STM32F3xx_HAL_Driver/Src/stm32f3xx_hal_i2c.c **** 
 152:Drivers/STM32F3xx_HAL_Driver/Src/stm32f3xx_hal_i2c.c ****     *** DMA mode IO operation ***
 153:Drivers/STM32F3xx_HAL_Driver/Src/stm32f3xx_hal_i2c.c ****     ==============================
 154:Drivers/STM32F3xx_HAL_Driver/Src/stm32f3xx_hal_i2c.c ****     [..]
 155:Drivers/STM32F3xx_HAL_Driver/Src/stm32f3xx_hal_i2c.c ****       (+) Transmit in master mode an amount of data in non-blocking mode (DMA) using
 156:Drivers/STM32F3xx_HAL_Driver/Src/stm32f3xx_hal_i2c.c ****           HAL_I2C_Master_Transmit_DMA()
 157:Drivers/STM32F3xx_HAL_Driver/Src/stm32f3xx_hal_i2c.c ****       (+) At transmission end of transfer, HAL_I2C_MasterTxCpltCallback() is executed and user can
 158:Drivers/STM32F3xx_HAL_Driver/Src/stm32f3xx_hal_i2c.c ****            add his own code by customization of function pointer HAL_I2C_MasterTxCpltCallback()
 159:Drivers/STM32F3xx_HAL_Driver/Src/stm32f3xx_hal_i2c.c ****       (+) Receive in master mode an amount of data in non-blocking mode (DMA) using
 160:Drivers/STM32F3xx_HAL_Driver/Src/stm32f3xx_hal_i2c.c ****           HAL_I2C_Master_Receive_DMA()
 161:Drivers/STM32F3xx_HAL_Driver/Src/stm32f3xx_hal_i2c.c ****       (+) At reception end of transfer, HAL_I2C_MasterRxCpltCallback() is executed and user can
 162:Drivers/STM32F3xx_HAL_Driver/Src/stm32f3xx_hal_i2c.c ****            add his own code by customization of function pointer HAL_I2C_MasterRxCpltCallback()
 163:Drivers/STM32F3xx_HAL_Driver/Src/stm32f3xx_hal_i2c.c ****       (+) Transmit in slave mode an amount of data in non-blocking mode (DMA) using
 164:Drivers/STM32F3xx_HAL_Driver/Src/stm32f3xx_hal_i2c.c ****           HAL_I2C_Slave_Transmit_DMA()
 165:Drivers/STM32F3xx_HAL_Driver/Src/stm32f3xx_hal_i2c.c ****       (+) At transmission end of transfer, HAL_I2C_SlaveTxCpltCallback() is executed and user can
 166:Drivers/STM32F3xx_HAL_Driver/Src/stm32f3xx_hal_i2c.c ****            add his own code by customization of function pointer HAL_I2C_SlaveTxCpltCallback()
 167:Drivers/STM32F3xx_HAL_Driver/Src/stm32f3xx_hal_i2c.c ****       (+) Receive in slave mode an amount of data in non-blocking mode (DMA) using
 168:Drivers/STM32F3xx_HAL_Driver/Src/stm32f3xx_hal_i2c.c ****           HAL_I2C_Slave_Receive_DMA()
 169:Drivers/STM32F3xx_HAL_Driver/Src/stm32f3xx_hal_i2c.c ****       (+) At reception end of transfer, HAL_I2C_SlaveRxCpltCallback() is executed and user can
 170:Drivers/STM32F3xx_HAL_Driver/Src/stm32f3xx_hal_i2c.c ****            add his own code by customization of function pointer HAL_I2C_SlaveRxCpltCallback()
 171:Drivers/STM32F3xx_HAL_Driver/Src/stm32f3xx_hal_i2c.c ****       (+) In case of transfer Error, HAL_I2C_ErrorCallback() function is executed and user can
 172:Drivers/STM32F3xx_HAL_Driver/Src/stm32f3xx_hal_i2c.c ****            add his own code by customization of function pointer HAL_I2C_ErrorCallback()
 173:Drivers/STM32F3xx_HAL_Driver/Src/stm32f3xx_hal_i2c.c ****       (+) Abort a master I2C process communication with Interrupt using HAL_I2C_Master_Abort_IT()
 174:Drivers/STM32F3xx_HAL_Driver/Src/stm32f3xx_hal_i2c.c ****       (+) End of abort process, HAL_I2C_AbortCpltCallback() is executed and user can
 175:Drivers/STM32F3xx_HAL_Driver/Src/stm32f3xx_hal_i2c.c ****            add his own code by customization of function pointer HAL_I2C_AbortCpltCallback()
 176:Drivers/STM32F3xx_HAL_Driver/Src/stm32f3xx_hal_i2c.c ****       (+) Discard a slave I2C process communication using __HAL_I2C_GENERATE_NACK() macro.
 177:Drivers/STM32F3xx_HAL_Driver/Src/stm32f3xx_hal_i2c.c ****            This action will inform Master to generate a Stop condition to discard the communication
 178:Drivers/STM32F3xx_HAL_Driver/Src/stm32f3xx_hal_i2c.c **** 
 179:Drivers/STM32F3xx_HAL_Driver/Src/stm32f3xx_hal_i2c.c ****     *** DMA mode IO MEM operation ***
 180:Drivers/STM32F3xx_HAL_Driver/Src/stm32f3xx_hal_i2c.c ****     =================================
 181:Drivers/STM32F3xx_HAL_Driver/Src/stm32f3xx_hal_i2c.c ****     [..]
 182:Drivers/STM32F3xx_HAL_Driver/Src/stm32f3xx_hal_i2c.c ****       (+) Write an amount of data in non-blocking mode with DMA to a specific memory address using
 183:Drivers/STM32F3xx_HAL_Driver/Src/stm32f3xx_hal_i2c.c ****           HAL_I2C_Mem_Write_DMA()
 184:Drivers/STM32F3xx_HAL_Driver/Src/stm32f3xx_hal_i2c.c ****       (+) At Memory end of write transfer, HAL_I2C_MemTxCpltCallback() is executed and user can
 185:Drivers/STM32F3xx_HAL_Driver/Src/stm32f3xx_hal_i2c.c ****            add his own code by customization of function pointer HAL_I2C_MemTxCpltCallback()
 186:Drivers/STM32F3xx_HAL_Driver/Src/stm32f3xx_hal_i2c.c ****       (+) Read an amount of data in non-blocking mode with DMA from a specific memory address using
 187:Drivers/STM32F3xx_HAL_Driver/Src/stm32f3xx_hal_i2c.c ****           HAL_I2C_Mem_Read_DMA()
 188:Drivers/STM32F3xx_HAL_Driver/Src/stm32f3xx_hal_i2c.c ****       (+) At Memory end of read transfer, HAL_I2C_MemRxCpltCallback() is executed and user can
 189:Drivers/STM32F3xx_HAL_Driver/Src/stm32f3xx_hal_i2c.c ****            add his own code by customization of function pointer HAL_I2C_MemRxCpltCallback()
 190:Drivers/STM32F3xx_HAL_Driver/Src/stm32f3xx_hal_i2c.c ****       (+) In case of transfer Error, HAL_I2C_ErrorCallback() function is executed and user can
 191:Drivers/STM32F3xx_HAL_Driver/Src/stm32f3xx_hal_i2c.c ****            add his own code by customization of function pointer HAL_I2C_ErrorCallback()
 192:Drivers/STM32F3xx_HAL_Driver/Src/stm32f3xx_hal_i2c.c **** 
ARM GAS  /tmp/ccy0jiyr.s 			page 5


 193:Drivers/STM32F3xx_HAL_Driver/Src/stm32f3xx_hal_i2c.c **** 
 194:Drivers/STM32F3xx_HAL_Driver/Src/stm32f3xx_hal_i2c.c ****      *** I2C HAL driver macros list ***
 195:Drivers/STM32F3xx_HAL_Driver/Src/stm32f3xx_hal_i2c.c ****      ==================================
 196:Drivers/STM32F3xx_HAL_Driver/Src/stm32f3xx_hal_i2c.c ****      [..]
 197:Drivers/STM32F3xx_HAL_Driver/Src/stm32f3xx_hal_i2c.c ****        Below the list of most used macros in I2C HAL driver.
 198:Drivers/STM32F3xx_HAL_Driver/Src/stm32f3xx_hal_i2c.c **** 
 199:Drivers/STM32F3xx_HAL_Driver/Src/stm32f3xx_hal_i2c.c ****       (+) __HAL_I2C_ENABLE: Enable the I2C peripheral
 200:Drivers/STM32F3xx_HAL_Driver/Src/stm32f3xx_hal_i2c.c ****       (+) __HAL_I2C_DISABLE: Disable the I2C peripheral
 201:Drivers/STM32F3xx_HAL_Driver/Src/stm32f3xx_hal_i2c.c ****       (+) __HAL_I2C_GENERATE_NACK: Generate a Non-Acknowledge I2C peripheral in Slave mode
 202:Drivers/STM32F3xx_HAL_Driver/Src/stm32f3xx_hal_i2c.c ****       (+) __HAL_I2C_GET_FLAG: Check whether the specified I2C flag is set or not
 203:Drivers/STM32F3xx_HAL_Driver/Src/stm32f3xx_hal_i2c.c ****       (+) __HAL_I2C_CLEAR_FLAG: Clear the specified I2C pending flag
 204:Drivers/STM32F3xx_HAL_Driver/Src/stm32f3xx_hal_i2c.c ****       (+) __HAL_I2C_ENABLE_IT: Enable the specified I2C interrupt
 205:Drivers/STM32F3xx_HAL_Driver/Src/stm32f3xx_hal_i2c.c ****       (+) __HAL_I2C_DISABLE_IT: Disable the specified I2C interrupt
 206:Drivers/STM32F3xx_HAL_Driver/Src/stm32f3xx_hal_i2c.c **** 
 207:Drivers/STM32F3xx_HAL_Driver/Src/stm32f3xx_hal_i2c.c ****      [..]
 208:Drivers/STM32F3xx_HAL_Driver/Src/stm32f3xx_hal_i2c.c ****        (@) You can refer to the I2C HAL driver header file for more useful macros
 209:Drivers/STM32F3xx_HAL_Driver/Src/stm32f3xx_hal_i2c.c **** 
 210:Drivers/STM32F3xx_HAL_Driver/Src/stm32f3xx_hal_i2c.c ****   @endverbatim
 211:Drivers/STM32F3xx_HAL_Driver/Src/stm32f3xx_hal_i2c.c ****   ******************************************************************************
 212:Drivers/STM32F3xx_HAL_Driver/Src/stm32f3xx_hal_i2c.c ****   * @attention
 213:Drivers/STM32F3xx_HAL_Driver/Src/stm32f3xx_hal_i2c.c ****   *
 214:Drivers/STM32F3xx_HAL_Driver/Src/stm32f3xx_hal_i2c.c ****   * <h2><center>&copy; COPYRIGHT(c) 2016 STMicroelectronics</center></h2>
 215:Drivers/STM32F3xx_HAL_Driver/Src/stm32f3xx_hal_i2c.c ****   *
 216:Drivers/STM32F3xx_HAL_Driver/Src/stm32f3xx_hal_i2c.c ****   * Redistribution and use in source and binary forms, with or without modification,
 217:Drivers/STM32F3xx_HAL_Driver/Src/stm32f3xx_hal_i2c.c ****   * are permitted provided that the following conditions are met:
 218:Drivers/STM32F3xx_HAL_Driver/Src/stm32f3xx_hal_i2c.c ****   *   1. Redistributions of source code must retain the above copyright notice,
 219:Drivers/STM32F3xx_HAL_Driver/Src/stm32f3xx_hal_i2c.c ****   *      this list of conditions and the following disclaimer.
 220:Drivers/STM32F3xx_HAL_Driver/Src/stm32f3xx_hal_i2c.c ****   *   2. Redistributions in binary form must reproduce the above copyright notice,
 221:Drivers/STM32F3xx_HAL_Driver/Src/stm32f3xx_hal_i2c.c ****   *      this list of conditions and the following disclaimer in the documentation
 222:Drivers/STM32F3xx_HAL_Driver/Src/stm32f3xx_hal_i2c.c ****   *      and/or other materials provided with the distribution.
 223:Drivers/STM32F3xx_HAL_Driver/Src/stm32f3xx_hal_i2c.c ****   *   3. Neither the name of STMicroelectronics nor the names of its contributors
 224:Drivers/STM32F3xx_HAL_Driver/Src/stm32f3xx_hal_i2c.c ****   *      may be used to endorse or promote products derived from this software
 225:Drivers/STM32F3xx_HAL_Driver/Src/stm32f3xx_hal_i2c.c ****   *      without specific prior written permission.
 226:Drivers/STM32F3xx_HAL_Driver/Src/stm32f3xx_hal_i2c.c ****   *
 227:Drivers/STM32F3xx_HAL_Driver/Src/stm32f3xx_hal_i2c.c ****   * THIS SOFTWARE IS PROVIDED BY THE COPYRIGHT HOLDERS AND CONTRIBUTORS "AS IS"
 228:Drivers/STM32F3xx_HAL_Driver/Src/stm32f3xx_hal_i2c.c ****   * AND ANY EXPRESS OR IMPLIED WARRANTIES, INCLUDING, BUT NOT LIMITED TO, THE
 229:Drivers/STM32F3xx_HAL_Driver/Src/stm32f3xx_hal_i2c.c ****   * IMPLIED WARRANTIES OF MERCHANTABILITY AND FITNESS FOR A PARTICULAR PURPOSE ARE
 230:Drivers/STM32F3xx_HAL_Driver/Src/stm32f3xx_hal_i2c.c ****   * DISCLAIMED. IN NO EVENT SHALL THE COPYRIGHT HOLDER OR CONTRIBUTORS BE LIABLE
 231:Drivers/STM32F3xx_HAL_Driver/Src/stm32f3xx_hal_i2c.c ****   * FOR ANY DIRECT, INDIRECT, INCIDENTAL, SPECIAL, EXEMPLARY, OR CONSEQUENTIAL
 232:Drivers/STM32F3xx_HAL_Driver/Src/stm32f3xx_hal_i2c.c ****   * DAMAGES (INCLUDING, BUT NOT LIMITED TO, PROCUREMENT OF SUBSTITUTE GOODS OR
 233:Drivers/STM32F3xx_HAL_Driver/Src/stm32f3xx_hal_i2c.c ****   * SERVICES; LOSS OF USE, DATA, OR PROFITS; OR BUSINESS INTERRUPTION) HOWEVER
 234:Drivers/STM32F3xx_HAL_Driver/Src/stm32f3xx_hal_i2c.c ****   * CAUSED AND ON ANY THEORY OF LIABILITY, WHETHER IN CONTRACT, STRICT LIABILITY,
 235:Drivers/STM32F3xx_HAL_Driver/Src/stm32f3xx_hal_i2c.c ****   * OR TORT (INCLUDING NEGLIGENCE OR OTHERWISE) ARISING IN ANY WAY OUT OF THE USE
 236:Drivers/STM32F3xx_HAL_Driver/Src/stm32f3xx_hal_i2c.c ****   * OF THIS SOFTWARE, EVEN IF ADVISED OF THE POSSIBILITY OF SUCH DAMAGE.
 237:Drivers/STM32F3xx_HAL_Driver/Src/stm32f3xx_hal_i2c.c ****   *
 238:Drivers/STM32F3xx_HAL_Driver/Src/stm32f3xx_hal_i2c.c ****   ******************************************************************************
 239:Drivers/STM32F3xx_HAL_Driver/Src/stm32f3xx_hal_i2c.c ****   */
 240:Drivers/STM32F3xx_HAL_Driver/Src/stm32f3xx_hal_i2c.c **** 
 241:Drivers/STM32F3xx_HAL_Driver/Src/stm32f3xx_hal_i2c.c **** /* Includes ------------------------------------------------------------------*/
 242:Drivers/STM32F3xx_HAL_Driver/Src/stm32f3xx_hal_i2c.c **** #include "stm32f3xx_hal.h"
 243:Drivers/STM32F3xx_HAL_Driver/Src/stm32f3xx_hal_i2c.c **** 
 244:Drivers/STM32F3xx_HAL_Driver/Src/stm32f3xx_hal_i2c.c **** /** @addtogroup STM32F3xx_HAL_Driver
 245:Drivers/STM32F3xx_HAL_Driver/Src/stm32f3xx_hal_i2c.c ****   * @{
 246:Drivers/STM32F3xx_HAL_Driver/Src/stm32f3xx_hal_i2c.c ****   */
 247:Drivers/STM32F3xx_HAL_Driver/Src/stm32f3xx_hal_i2c.c **** 
 248:Drivers/STM32F3xx_HAL_Driver/Src/stm32f3xx_hal_i2c.c **** /** @defgroup I2C I2C
 249:Drivers/STM32F3xx_HAL_Driver/Src/stm32f3xx_hal_i2c.c ****   * @brief I2C HAL module driver
ARM GAS  /tmp/ccy0jiyr.s 			page 6


 250:Drivers/STM32F3xx_HAL_Driver/Src/stm32f3xx_hal_i2c.c ****   * @{
 251:Drivers/STM32F3xx_HAL_Driver/Src/stm32f3xx_hal_i2c.c ****   */
 252:Drivers/STM32F3xx_HAL_Driver/Src/stm32f3xx_hal_i2c.c **** 
 253:Drivers/STM32F3xx_HAL_Driver/Src/stm32f3xx_hal_i2c.c **** #ifdef HAL_I2C_MODULE_ENABLED
 254:Drivers/STM32F3xx_HAL_Driver/Src/stm32f3xx_hal_i2c.c **** 
 255:Drivers/STM32F3xx_HAL_Driver/Src/stm32f3xx_hal_i2c.c **** /* Private typedef -----------------------------------------------------------*/
 256:Drivers/STM32F3xx_HAL_Driver/Src/stm32f3xx_hal_i2c.c **** /* Private define ------------------------------------------------------------*/
 257:Drivers/STM32F3xx_HAL_Driver/Src/stm32f3xx_hal_i2c.c **** 
 258:Drivers/STM32F3xx_HAL_Driver/Src/stm32f3xx_hal_i2c.c **** /** @defgroup I2C_Private_Define I2C Private Define
 259:Drivers/STM32F3xx_HAL_Driver/Src/stm32f3xx_hal_i2c.c ****   * @{
 260:Drivers/STM32F3xx_HAL_Driver/Src/stm32f3xx_hal_i2c.c ****   */
 261:Drivers/STM32F3xx_HAL_Driver/Src/stm32f3xx_hal_i2c.c **** #define TIMING_CLEAR_MASK   (0xF0FFFFFFU)  /*!< I2C TIMING clear register Mask */
 262:Drivers/STM32F3xx_HAL_Driver/Src/stm32f3xx_hal_i2c.c **** #define I2C_TIMEOUT_ADDR    (10000U)       /*!< 10 s  */
 263:Drivers/STM32F3xx_HAL_Driver/Src/stm32f3xx_hal_i2c.c **** #define I2C_TIMEOUT_BUSY    (25U)          /*!< 25 ms */
 264:Drivers/STM32F3xx_HAL_Driver/Src/stm32f3xx_hal_i2c.c **** #define I2C_TIMEOUT_DIR     (25U)          /*!< 25 ms */
 265:Drivers/STM32F3xx_HAL_Driver/Src/stm32f3xx_hal_i2c.c **** #define I2C_TIMEOUT_RXNE    (25U)          /*!< 25 ms */
 266:Drivers/STM32F3xx_HAL_Driver/Src/stm32f3xx_hal_i2c.c **** #define I2C_TIMEOUT_STOPF   (25U)          /*!< 25 ms */
 267:Drivers/STM32F3xx_HAL_Driver/Src/stm32f3xx_hal_i2c.c **** #define I2C_TIMEOUT_TC      (25U)          /*!< 25 ms */
 268:Drivers/STM32F3xx_HAL_Driver/Src/stm32f3xx_hal_i2c.c **** #define I2C_TIMEOUT_TCR     (25U)          /*!< 25 ms */
 269:Drivers/STM32F3xx_HAL_Driver/Src/stm32f3xx_hal_i2c.c **** #define I2C_TIMEOUT_TXIS    (25U)          /*!< 25 ms */
 270:Drivers/STM32F3xx_HAL_Driver/Src/stm32f3xx_hal_i2c.c **** #define I2C_TIMEOUT_FLAG    (25U)          /*!< 25 ms */
 271:Drivers/STM32F3xx_HAL_Driver/Src/stm32f3xx_hal_i2c.c **** 
 272:Drivers/STM32F3xx_HAL_Driver/Src/stm32f3xx_hal_i2c.c **** #define MAX_NBYTE_SIZE      255U
 273:Drivers/STM32F3xx_HAL_Driver/Src/stm32f3xx_hal_i2c.c **** #define SlaveAddr_SHIFT     7U
 274:Drivers/STM32F3xx_HAL_Driver/Src/stm32f3xx_hal_i2c.c **** #define SlaveAddr_MSK       0x06U
 275:Drivers/STM32F3xx_HAL_Driver/Src/stm32f3xx_hal_i2c.c **** 
 276:Drivers/STM32F3xx_HAL_Driver/Src/stm32f3xx_hal_i2c.c **** /* Private define for @ref PreviousState usage */
 277:Drivers/STM32F3xx_HAL_Driver/Src/stm32f3xx_hal_i2c.c **** #define I2C_STATE_MSK             ((uint32_t)((HAL_I2C_STATE_BUSY_TX | HAL_I2C_STATE_BUSY_RX) & (~(
 278:Drivers/STM32F3xx_HAL_Driver/Src/stm32f3xx_hal_i2c.c **** #define I2C_STATE_NONE            ((uint32_t)(HAL_I2C_MODE_NONE))                                  
 279:Drivers/STM32F3xx_HAL_Driver/Src/stm32f3xx_hal_i2c.c **** #define I2C_STATE_MASTER_BUSY_TX  ((uint32_t)((HAL_I2C_STATE_BUSY_TX & I2C_STATE_MSK) | HAL_I2C_MOD
 280:Drivers/STM32F3xx_HAL_Driver/Src/stm32f3xx_hal_i2c.c **** #define I2C_STATE_MASTER_BUSY_RX  ((uint32_t)((HAL_I2C_STATE_BUSY_RX & I2C_STATE_MSK) | HAL_I2C_MOD
 281:Drivers/STM32F3xx_HAL_Driver/Src/stm32f3xx_hal_i2c.c **** #define I2C_STATE_SLAVE_BUSY_TX   ((uint32_t)((HAL_I2C_STATE_BUSY_TX & I2C_STATE_MSK) | HAL_I2C_MOD
 282:Drivers/STM32F3xx_HAL_Driver/Src/stm32f3xx_hal_i2c.c **** #define I2C_STATE_SLAVE_BUSY_RX   ((uint32_t)((HAL_I2C_STATE_BUSY_RX & I2C_STATE_MSK) | HAL_I2C_MOD
 283:Drivers/STM32F3xx_HAL_Driver/Src/stm32f3xx_hal_i2c.c **** #define I2C_STATE_MEM_BUSY_TX     ((uint32_t)((HAL_I2C_STATE_BUSY_TX & I2C_STATE_MSK) | HAL_I2C_MOD
 284:Drivers/STM32F3xx_HAL_Driver/Src/stm32f3xx_hal_i2c.c **** #define I2C_STATE_MEM_BUSY_RX     ((uint32_t)((HAL_I2C_STATE_BUSY_RX & I2C_STATE_MSK) | HAL_I2C_MOD
 285:Drivers/STM32F3xx_HAL_Driver/Src/stm32f3xx_hal_i2c.c **** 
 286:Drivers/STM32F3xx_HAL_Driver/Src/stm32f3xx_hal_i2c.c **** 
 287:Drivers/STM32F3xx_HAL_Driver/Src/stm32f3xx_hal_i2c.c **** /* Private define to centralize the enable/disable of Interrupts */
 288:Drivers/STM32F3xx_HAL_Driver/Src/stm32f3xx_hal_i2c.c **** #define I2C_XFER_TX_IT          (0x00000001U)
 289:Drivers/STM32F3xx_HAL_Driver/Src/stm32f3xx_hal_i2c.c **** #define I2C_XFER_RX_IT          (0x00000002U)
 290:Drivers/STM32F3xx_HAL_Driver/Src/stm32f3xx_hal_i2c.c **** #define I2C_XFER_LISTEN_IT      (0x00000004U)
 291:Drivers/STM32F3xx_HAL_Driver/Src/stm32f3xx_hal_i2c.c **** 
 292:Drivers/STM32F3xx_HAL_Driver/Src/stm32f3xx_hal_i2c.c **** #define I2C_XFER_ERROR_IT       (0x00000011U)
 293:Drivers/STM32F3xx_HAL_Driver/Src/stm32f3xx_hal_i2c.c **** #define I2C_XFER_CPLT_IT        (0x00000012U)
 294:Drivers/STM32F3xx_HAL_Driver/Src/stm32f3xx_hal_i2c.c **** #define I2C_XFER_RELOAD_IT      (0x00000012U)
 295:Drivers/STM32F3xx_HAL_Driver/Src/stm32f3xx_hal_i2c.c **** 
 296:Drivers/STM32F3xx_HAL_Driver/Src/stm32f3xx_hal_i2c.c **** /* Private define Sequential Transfer Options default/reset value */
 297:Drivers/STM32F3xx_HAL_Driver/Src/stm32f3xx_hal_i2c.c **** #define I2C_NO_OPTION_FRAME     (0xFFFF0000U)
 298:Drivers/STM32F3xx_HAL_Driver/Src/stm32f3xx_hal_i2c.c **** /**
 299:Drivers/STM32F3xx_HAL_Driver/Src/stm32f3xx_hal_i2c.c ****   * @}
 300:Drivers/STM32F3xx_HAL_Driver/Src/stm32f3xx_hal_i2c.c ****   */
 301:Drivers/STM32F3xx_HAL_Driver/Src/stm32f3xx_hal_i2c.c **** 
 302:Drivers/STM32F3xx_HAL_Driver/Src/stm32f3xx_hal_i2c.c **** /* Private macro -------------------------------------------------------------*/
 303:Drivers/STM32F3xx_HAL_Driver/Src/stm32f3xx_hal_i2c.c **** #define I2C_GET_DMA_REMAIN_DATA(__HANDLE__) ((((__HANDLE__)->State) == HAL_I2C_STATE_BUSY_TX)   ? \
 304:Drivers/STM32F3xx_HAL_Driver/Src/stm32f3xx_hal_i2c.c ****                                             ((uint32_t)((__HANDLE__)->hdmatx->Instance->CNDTR)) : \
 305:Drivers/STM32F3xx_HAL_Driver/Src/stm32f3xx_hal_i2c.c ****                                             ((uint32_t)((__HANDLE__)->hdmarx->Instance->CNDTR)))
 306:Drivers/STM32F3xx_HAL_Driver/Src/stm32f3xx_hal_i2c.c **** 
ARM GAS  /tmp/ccy0jiyr.s 			page 7


 307:Drivers/STM32F3xx_HAL_Driver/Src/stm32f3xx_hal_i2c.c **** /* Private variables ---------------------------------------------------------*/
 308:Drivers/STM32F3xx_HAL_Driver/Src/stm32f3xx_hal_i2c.c **** /* Private function prototypes -----------------------------------------------*/
 309:Drivers/STM32F3xx_HAL_Driver/Src/stm32f3xx_hal_i2c.c **** 
 310:Drivers/STM32F3xx_HAL_Driver/Src/stm32f3xx_hal_i2c.c **** /** @defgroup I2C_Private_Functions I2C Private Functions
 311:Drivers/STM32F3xx_HAL_Driver/Src/stm32f3xx_hal_i2c.c ****   * @{
 312:Drivers/STM32F3xx_HAL_Driver/Src/stm32f3xx_hal_i2c.c ****   */
 313:Drivers/STM32F3xx_HAL_Driver/Src/stm32f3xx_hal_i2c.c **** /* Private functions to handle DMA transfer */
 314:Drivers/STM32F3xx_HAL_Driver/Src/stm32f3xx_hal_i2c.c **** static void I2C_DMAMasterTransmitCplt(DMA_HandleTypeDef *hdma);
 315:Drivers/STM32F3xx_HAL_Driver/Src/stm32f3xx_hal_i2c.c **** static void I2C_DMAMasterReceiveCplt(DMA_HandleTypeDef *hdma);
 316:Drivers/STM32F3xx_HAL_Driver/Src/stm32f3xx_hal_i2c.c **** static void I2C_DMASlaveTransmitCplt(DMA_HandleTypeDef *hdma);
 317:Drivers/STM32F3xx_HAL_Driver/Src/stm32f3xx_hal_i2c.c **** static void I2C_DMASlaveReceiveCplt(DMA_HandleTypeDef *hdma);
 318:Drivers/STM32F3xx_HAL_Driver/Src/stm32f3xx_hal_i2c.c **** static void I2C_DMAError(DMA_HandleTypeDef *hdma);
 319:Drivers/STM32F3xx_HAL_Driver/Src/stm32f3xx_hal_i2c.c **** static void I2C_DMAAbort(DMA_HandleTypeDef *hdma);
 320:Drivers/STM32F3xx_HAL_Driver/Src/stm32f3xx_hal_i2c.c **** 
 321:Drivers/STM32F3xx_HAL_Driver/Src/stm32f3xx_hal_i2c.c **** /* Private functions to handle IT transfer */
 322:Drivers/STM32F3xx_HAL_Driver/Src/stm32f3xx_hal_i2c.c **** static void I2C_ITAddrCplt(I2C_HandleTypeDef *hi2c, uint32_t ITFlags);
 323:Drivers/STM32F3xx_HAL_Driver/Src/stm32f3xx_hal_i2c.c **** static void I2C_ITMasterSequentialCplt(I2C_HandleTypeDef *hi2c);
 324:Drivers/STM32F3xx_HAL_Driver/Src/stm32f3xx_hal_i2c.c **** static void I2C_ITSlaveSequentialCplt(I2C_HandleTypeDef *hi2c);
 325:Drivers/STM32F3xx_HAL_Driver/Src/stm32f3xx_hal_i2c.c **** static void I2C_ITMasterCplt(I2C_HandleTypeDef *hi2c, uint32_t ITFlags);
 326:Drivers/STM32F3xx_HAL_Driver/Src/stm32f3xx_hal_i2c.c **** static void I2C_ITSlaveCplt(I2C_HandleTypeDef *hi2c, uint32_t ITFlags);
 327:Drivers/STM32F3xx_HAL_Driver/Src/stm32f3xx_hal_i2c.c **** static void I2C_ITListenCplt(I2C_HandleTypeDef *hi2c, uint32_t ITFlags);
 328:Drivers/STM32F3xx_HAL_Driver/Src/stm32f3xx_hal_i2c.c **** static void I2C_ITError(I2C_HandleTypeDef *hi2c, uint32_t ErrorCode);
 329:Drivers/STM32F3xx_HAL_Driver/Src/stm32f3xx_hal_i2c.c **** 
 330:Drivers/STM32F3xx_HAL_Driver/Src/stm32f3xx_hal_i2c.c **** /* Private functions to handle IT transfer */
 331:Drivers/STM32F3xx_HAL_Driver/Src/stm32f3xx_hal_i2c.c **** static HAL_StatusTypeDef I2C_RequestMemoryWrite(I2C_HandleTypeDef *hi2c, uint16_t DevAddress, uint1
 332:Drivers/STM32F3xx_HAL_Driver/Src/stm32f3xx_hal_i2c.c **** static HAL_StatusTypeDef I2C_RequestMemoryRead(I2C_HandleTypeDef *hi2c, uint16_t DevAddress, uint16
 333:Drivers/STM32F3xx_HAL_Driver/Src/stm32f3xx_hal_i2c.c **** 
 334:Drivers/STM32F3xx_HAL_Driver/Src/stm32f3xx_hal_i2c.c **** /* Private functions for I2C transfer IRQ handler */
 335:Drivers/STM32F3xx_HAL_Driver/Src/stm32f3xx_hal_i2c.c **** static HAL_StatusTypeDef I2C_Master_ISR_IT(struct __I2C_HandleTypeDef *hi2c, uint32_t ITFlags, uint
 336:Drivers/STM32F3xx_HAL_Driver/Src/stm32f3xx_hal_i2c.c **** static HAL_StatusTypeDef I2C_Slave_ISR_IT(struct __I2C_HandleTypeDef *hi2c, uint32_t ITFlags, uint3
 337:Drivers/STM32F3xx_HAL_Driver/Src/stm32f3xx_hal_i2c.c **** static HAL_StatusTypeDef I2C_Master_ISR_DMA(struct __I2C_HandleTypeDef *hi2c, uint32_t ITFlags, uin
 338:Drivers/STM32F3xx_HAL_Driver/Src/stm32f3xx_hal_i2c.c **** static HAL_StatusTypeDef I2C_Slave_ISR_DMA(struct __I2C_HandleTypeDef *hi2c, uint32_t ITFlags, uint
 339:Drivers/STM32F3xx_HAL_Driver/Src/stm32f3xx_hal_i2c.c **** 
 340:Drivers/STM32F3xx_HAL_Driver/Src/stm32f3xx_hal_i2c.c **** /* Private functions to handle flags during polling transfer */
 341:Drivers/STM32F3xx_HAL_Driver/Src/stm32f3xx_hal_i2c.c **** static HAL_StatusTypeDef I2C_WaitOnFlagUntilTimeout(I2C_HandleTypeDef *hi2c, uint32_t Flag, FlagSta
 342:Drivers/STM32F3xx_HAL_Driver/Src/stm32f3xx_hal_i2c.c **** static HAL_StatusTypeDef I2C_WaitOnTXISFlagUntilTimeout(I2C_HandleTypeDef *hi2c, uint32_t Timeout, 
 343:Drivers/STM32F3xx_HAL_Driver/Src/stm32f3xx_hal_i2c.c **** static HAL_StatusTypeDef I2C_WaitOnRXNEFlagUntilTimeout(I2C_HandleTypeDef *hi2c, uint32_t Timeout, 
 344:Drivers/STM32F3xx_HAL_Driver/Src/stm32f3xx_hal_i2c.c **** static HAL_StatusTypeDef I2C_WaitOnSTOPFlagUntilTimeout(I2C_HandleTypeDef *hi2c, uint32_t Timeout, 
 345:Drivers/STM32F3xx_HAL_Driver/Src/stm32f3xx_hal_i2c.c **** static HAL_StatusTypeDef I2C_IsAcknowledgeFailed(I2C_HandleTypeDef *hi2c, uint32_t Timeout, uint32_
 346:Drivers/STM32F3xx_HAL_Driver/Src/stm32f3xx_hal_i2c.c **** 
 347:Drivers/STM32F3xx_HAL_Driver/Src/stm32f3xx_hal_i2c.c **** /* Private functions to centralize the enable/disable of Interrupts */
 348:Drivers/STM32F3xx_HAL_Driver/Src/stm32f3xx_hal_i2c.c **** static HAL_StatusTypeDef I2C_Enable_IRQ(I2C_HandleTypeDef *hi2c, uint16_t InterruptRequest);
 349:Drivers/STM32F3xx_HAL_Driver/Src/stm32f3xx_hal_i2c.c **** static HAL_StatusTypeDef I2C_Disable_IRQ(I2C_HandleTypeDef *hi2c, uint16_t InterruptRequest);
 350:Drivers/STM32F3xx_HAL_Driver/Src/stm32f3xx_hal_i2c.c **** 
 351:Drivers/STM32F3xx_HAL_Driver/Src/stm32f3xx_hal_i2c.c **** /* Private functions to flush TXDR register */
 352:Drivers/STM32F3xx_HAL_Driver/Src/stm32f3xx_hal_i2c.c **** static void I2C_Flush_TXDR(I2C_HandleTypeDef *hi2c);
 353:Drivers/STM32F3xx_HAL_Driver/Src/stm32f3xx_hal_i2c.c **** 
 354:Drivers/STM32F3xx_HAL_Driver/Src/stm32f3xx_hal_i2c.c **** /* Private functions to handle  start, restart or stop a transfer */
 355:Drivers/STM32F3xx_HAL_Driver/Src/stm32f3xx_hal_i2c.c **** static void I2C_TransferConfig(I2C_HandleTypeDef *hi2c,  uint16_t DevAddress, uint8_t Size, uint32_
 356:Drivers/STM32F3xx_HAL_Driver/Src/stm32f3xx_hal_i2c.c **** /**
 357:Drivers/STM32F3xx_HAL_Driver/Src/stm32f3xx_hal_i2c.c ****   * @}
 358:Drivers/STM32F3xx_HAL_Driver/Src/stm32f3xx_hal_i2c.c ****   */
 359:Drivers/STM32F3xx_HAL_Driver/Src/stm32f3xx_hal_i2c.c **** 
 360:Drivers/STM32F3xx_HAL_Driver/Src/stm32f3xx_hal_i2c.c **** /* Exported functions --------------------------------------------------------*/
 361:Drivers/STM32F3xx_HAL_Driver/Src/stm32f3xx_hal_i2c.c **** 
 362:Drivers/STM32F3xx_HAL_Driver/Src/stm32f3xx_hal_i2c.c **** /** @defgroup I2C_Exported_Functions I2C Exported Functions
 363:Drivers/STM32F3xx_HAL_Driver/Src/stm32f3xx_hal_i2c.c ****   * @{
ARM GAS  /tmp/ccy0jiyr.s 			page 8


 364:Drivers/STM32F3xx_HAL_Driver/Src/stm32f3xx_hal_i2c.c ****   */
 365:Drivers/STM32F3xx_HAL_Driver/Src/stm32f3xx_hal_i2c.c **** 
 366:Drivers/STM32F3xx_HAL_Driver/Src/stm32f3xx_hal_i2c.c **** /** @defgroup I2C_Exported_Functions_Group1 Initialization and de-initialization functions
 367:Drivers/STM32F3xx_HAL_Driver/Src/stm32f3xx_hal_i2c.c ****  *  @brief    Initialization and Configuration functions
 368:Drivers/STM32F3xx_HAL_Driver/Src/stm32f3xx_hal_i2c.c ****  *
 369:Drivers/STM32F3xx_HAL_Driver/Src/stm32f3xx_hal_i2c.c **** @verbatim
 370:Drivers/STM32F3xx_HAL_Driver/Src/stm32f3xx_hal_i2c.c ****  ===============================================================================
 371:Drivers/STM32F3xx_HAL_Driver/Src/stm32f3xx_hal_i2c.c ****               ##### Initialization and de-initialization functions #####
 372:Drivers/STM32F3xx_HAL_Driver/Src/stm32f3xx_hal_i2c.c ****  ===============================================================================
 373:Drivers/STM32F3xx_HAL_Driver/Src/stm32f3xx_hal_i2c.c ****     [..]  This subsection provides a set of functions allowing to initialize and
 374:Drivers/STM32F3xx_HAL_Driver/Src/stm32f3xx_hal_i2c.c ****           deinitialize the I2Cx peripheral:
 375:Drivers/STM32F3xx_HAL_Driver/Src/stm32f3xx_hal_i2c.c **** 
 376:Drivers/STM32F3xx_HAL_Driver/Src/stm32f3xx_hal_i2c.c ****       (+) User must Implement HAL_I2C_MspInit() function in which he configures
 377:Drivers/STM32F3xx_HAL_Driver/Src/stm32f3xx_hal_i2c.c ****           all related peripherals resources (CLOCK, GPIO, DMA, IT and NVIC ).
 378:Drivers/STM32F3xx_HAL_Driver/Src/stm32f3xx_hal_i2c.c **** 
 379:Drivers/STM32F3xx_HAL_Driver/Src/stm32f3xx_hal_i2c.c ****       (+) Call the function HAL_I2C_Init() to configure the selected device with
 380:Drivers/STM32F3xx_HAL_Driver/Src/stm32f3xx_hal_i2c.c ****           the selected configuration:
 381:Drivers/STM32F3xx_HAL_Driver/Src/stm32f3xx_hal_i2c.c ****         (++) Clock Timing
 382:Drivers/STM32F3xx_HAL_Driver/Src/stm32f3xx_hal_i2c.c ****         (++) Own Address 1
 383:Drivers/STM32F3xx_HAL_Driver/Src/stm32f3xx_hal_i2c.c ****         (++) Addressing mode (Master, Slave)
 384:Drivers/STM32F3xx_HAL_Driver/Src/stm32f3xx_hal_i2c.c ****         (++) Dual Addressing mode
 385:Drivers/STM32F3xx_HAL_Driver/Src/stm32f3xx_hal_i2c.c ****         (++) Own Address 2
 386:Drivers/STM32F3xx_HAL_Driver/Src/stm32f3xx_hal_i2c.c ****         (++) Own Address 2 Mask
 387:Drivers/STM32F3xx_HAL_Driver/Src/stm32f3xx_hal_i2c.c ****         (++) General call mode
 388:Drivers/STM32F3xx_HAL_Driver/Src/stm32f3xx_hal_i2c.c ****         (++) Nostretch mode
 389:Drivers/STM32F3xx_HAL_Driver/Src/stm32f3xx_hal_i2c.c **** 
 390:Drivers/STM32F3xx_HAL_Driver/Src/stm32f3xx_hal_i2c.c ****       (+) Call the function HAL_I2C_DeInit() to restore the default configuration
 391:Drivers/STM32F3xx_HAL_Driver/Src/stm32f3xx_hal_i2c.c ****           of the selected I2Cx peripheral.
 392:Drivers/STM32F3xx_HAL_Driver/Src/stm32f3xx_hal_i2c.c **** 
 393:Drivers/STM32F3xx_HAL_Driver/Src/stm32f3xx_hal_i2c.c **** @endverbatim
 394:Drivers/STM32F3xx_HAL_Driver/Src/stm32f3xx_hal_i2c.c ****   * @{
 395:Drivers/STM32F3xx_HAL_Driver/Src/stm32f3xx_hal_i2c.c ****   */
 396:Drivers/STM32F3xx_HAL_Driver/Src/stm32f3xx_hal_i2c.c **** 
 397:Drivers/STM32F3xx_HAL_Driver/Src/stm32f3xx_hal_i2c.c **** /**
 398:Drivers/STM32F3xx_HAL_Driver/Src/stm32f3xx_hal_i2c.c ****   * @brief  Initializes the I2C according to the specified parameters
 399:Drivers/STM32F3xx_HAL_Driver/Src/stm32f3xx_hal_i2c.c ****   *         in the I2C_InitTypeDef and initialize the associated handle.
 400:Drivers/STM32F3xx_HAL_Driver/Src/stm32f3xx_hal_i2c.c ****   * @param  hi2c Pointer to a I2C_HandleTypeDef structure that contains
 401:Drivers/STM32F3xx_HAL_Driver/Src/stm32f3xx_hal_i2c.c ****   *                the configuration information for the specified I2C.
 402:Drivers/STM32F3xx_HAL_Driver/Src/stm32f3xx_hal_i2c.c ****   * @retval HAL status
 403:Drivers/STM32F3xx_HAL_Driver/Src/stm32f3xx_hal_i2c.c ****   */
 404:Drivers/STM32F3xx_HAL_Driver/Src/stm32f3xx_hal_i2c.c **** HAL_StatusTypeDef HAL_I2C_Init(I2C_HandleTypeDef *hi2c)
 405:Drivers/STM32F3xx_HAL_Driver/Src/stm32f3xx_hal_i2c.c **** {
  40              		.loc 1 405 0
  41              		.cfi_startproc
  42              		@ args = 0, pretend = 0, frame = 8
  43              		@ frame_needed = 1, uses_anonymous_args = 0
  44 0000 80B5     		push	{r7, lr}
  45              	.LCFI0:
  46              		.cfi_def_cfa_offset 8
  47              		.cfi_offset 7, -8
  48              		.cfi_offset 14, -4
  49 0002 82B0     		sub	sp, sp, #8
  50              	.LCFI1:
  51              		.cfi_def_cfa_offset 16
  52 0004 00AF     		add	r7, sp, #0
  53              	.LCFI2:
  54              		.cfi_def_cfa_register 7
ARM GAS  /tmp/ccy0jiyr.s 			page 9


  55 0006 7860     		str	r0, [r7, #4]
 406:Drivers/STM32F3xx_HAL_Driver/Src/stm32f3xx_hal_i2c.c ****   /* Check the I2C handle allocation */
 407:Drivers/STM32F3xx_HAL_Driver/Src/stm32f3xx_hal_i2c.c ****   if (hi2c == NULL)
  56              		.loc 1 407 0
  57 0008 7B68     		ldr	r3, [r7, #4]
  58 000a 002B     		cmp	r3, #0
  59 000c 01D1     		bne	.L2
 408:Drivers/STM32F3xx_HAL_Driver/Src/stm32f3xx_hal_i2c.c ****   {
 409:Drivers/STM32F3xx_HAL_Driver/Src/stm32f3xx_hal_i2c.c ****     return HAL_ERROR;
  60              		.loc 1 409 0
  61 000e 0123     		movs	r3, #1
  62 0010 81E0     		b	.L3
  63              	.L2:
 410:Drivers/STM32F3xx_HAL_Driver/Src/stm32f3xx_hal_i2c.c ****   }
 411:Drivers/STM32F3xx_HAL_Driver/Src/stm32f3xx_hal_i2c.c **** 
 412:Drivers/STM32F3xx_HAL_Driver/Src/stm32f3xx_hal_i2c.c ****   /* Check the parameters */
 413:Drivers/STM32F3xx_HAL_Driver/Src/stm32f3xx_hal_i2c.c ****   assert_param(IS_I2C_ALL_INSTANCE(hi2c->Instance));
 414:Drivers/STM32F3xx_HAL_Driver/Src/stm32f3xx_hal_i2c.c ****   assert_param(IS_I2C_OWN_ADDRESS1(hi2c->Init.OwnAddress1));
 415:Drivers/STM32F3xx_HAL_Driver/Src/stm32f3xx_hal_i2c.c ****   assert_param(IS_I2C_ADDRESSING_MODE(hi2c->Init.AddressingMode));
 416:Drivers/STM32F3xx_HAL_Driver/Src/stm32f3xx_hal_i2c.c ****   assert_param(IS_I2C_DUAL_ADDRESS(hi2c->Init.DualAddressMode));
 417:Drivers/STM32F3xx_HAL_Driver/Src/stm32f3xx_hal_i2c.c ****   assert_param(IS_I2C_OWN_ADDRESS2(hi2c->Init.OwnAddress2));
 418:Drivers/STM32F3xx_HAL_Driver/Src/stm32f3xx_hal_i2c.c ****   assert_param(IS_I2C_OWN_ADDRESS2_MASK(hi2c->Init.OwnAddress2Masks));
 419:Drivers/STM32F3xx_HAL_Driver/Src/stm32f3xx_hal_i2c.c ****   assert_param(IS_I2C_GENERAL_CALL(hi2c->Init.GeneralCallMode));
 420:Drivers/STM32F3xx_HAL_Driver/Src/stm32f3xx_hal_i2c.c ****   assert_param(IS_I2C_NO_STRETCH(hi2c->Init.NoStretchMode));
 421:Drivers/STM32F3xx_HAL_Driver/Src/stm32f3xx_hal_i2c.c **** 
 422:Drivers/STM32F3xx_HAL_Driver/Src/stm32f3xx_hal_i2c.c ****   if (hi2c->State == HAL_I2C_STATE_RESET)
  64              		.loc 1 422 0
  65 0012 7B68     		ldr	r3, [r7, #4]
  66 0014 93F84130 		ldrb	r3, [r3, #65]
  67 0018 DBB2     		uxtb	r3, r3
  68 001a 002B     		cmp	r3, #0
  69 001c 06D1     		bne	.L4
 423:Drivers/STM32F3xx_HAL_Driver/Src/stm32f3xx_hal_i2c.c ****   {
 424:Drivers/STM32F3xx_HAL_Driver/Src/stm32f3xx_hal_i2c.c ****     /* Allocate lock resource and initialize it */
 425:Drivers/STM32F3xx_HAL_Driver/Src/stm32f3xx_hal_i2c.c ****     hi2c->Lock = HAL_UNLOCKED;
  70              		.loc 1 425 0
  71 001e 7B68     		ldr	r3, [r7, #4]
  72 0020 0022     		movs	r2, #0
  73 0022 83F84020 		strb	r2, [r3, #64]
 426:Drivers/STM32F3xx_HAL_Driver/Src/stm32f3xx_hal_i2c.c **** 
 427:Drivers/STM32F3xx_HAL_Driver/Src/stm32f3xx_hal_i2c.c ****     /* Init the low level hardware : GPIO, CLOCK, CORTEX...etc */
 428:Drivers/STM32F3xx_HAL_Driver/Src/stm32f3xx_hal_i2c.c ****     HAL_I2C_MspInit(hi2c);
  74              		.loc 1 428 0
  75 0026 7868     		ldr	r0, [r7, #4]
  76 0028 FFF7FEFF 		bl	HAL_I2C_MspInit
  77              	.L4:
 429:Drivers/STM32F3xx_HAL_Driver/Src/stm32f3xx_hal_i2c.c ****   }
 430:Drivers/STM32F3xx_HAL_Driver/Src/stm32f3xx_hal_i2c.c **** 
 431:Drivers/STM32F3xx_HAL_Driver/Src/stm32f3xx_hal_i2c.c ****   hi2c->State = HAL_I2C_STATE_BUSY;
  78              		.loc 1 431 0
  79 002c 7B68     		ldr	r3, [r7, #4]
  80 002e 2422     		movs	r2, #36
  81 0030 83F84120 		strb	r2, [r3, #65]
 432:Drivers/STM32F3xx_HAL_Driver/Src/stm32f3xx_hal_i2c.c **** 
 433:Drivers/STM32F3xx_HAL_Driver/Src/stm32f3xx_hal_i2c.c ****   /* Disable the selected I2C peripheral */
 434:Drivers/STM32F3xx_HAL_Driver/Src/stm32f3xx_hal_i2c.c ****   __HAL_I2C_DISABLE(hi2c);
  82              		.loc 1 434 0
ARM GAS  /tmp/ccy0jiyr.s 			page 10


  83 0034 7B68     		ldr	r3, [r7, #4]
  84 0036 1B68     		ldr	r3, [r3]
  85 0038 1A68     		ldr	r2, [r3]
  86 003a 7B68     		ldr	r3, [r7, #4]
  87 003c 1B68     		ldr	r3, [r3]
  88 003e 22F00102 		bic	r2, r2, #1
  89 0042 1A60     		str	r2, [r3]
 435:Drivers/STM32F3xx_HAL_Driver/Src/stm32f3xx_hal_i2c.c **** 
 436:Drivers/STM32F3xx_HAL_Driver/Src/stm32f3xx_hal_i2c.c ****   /*---------------------------- I2Cx TIMINGR Configuration ------------------*/
 437:Drivers/STM32F3xx_HAL_Driver/Src/stm32f3xx_hal_i2c.c ****   /* Configure I2Cx: Frequency range */
 438:Drivers/STM32F3xx_HAL_Driver/Src/stm32f3xx_hal_i2c.c ****   hi2c->Instance->TIMINGR = hi2c->Init.Timing & TIMING_CLEAR_MASK;
  90              		.loc 1 438 0
  91 0044 7B68     		ldr	r3, [r7, #4]
  92 0046 5A68     		ldr	r2, [r3, #4]
  93 0048 7B68     		ldr	r3, [r7, #4]
  94 004a 1B68     		ldr	r3, [r3]
  95 004c 22F07062 		bic	r2, r2, #251658240
  96 0050 1A61     		str	r2, [r3, #16]
 439:Drivers/STM32F3xx_HAL_Driver/Src/stm32f3xx_hal_i2c.c **** 
 440:Drivers/STM32F3xx_HAL_Driver/Src/stm32f3xx_hal_i2c.c ****   /*---------------------------- I2Cx OAR1 Configuration ---------------------*/
 441:Drivers/STM32F3xx_HAL_Driver/Src/stm32f3xx_hal_i2c.c ****   /* Disable Own Address1 before set the Own Address1 configuration */
 442:Drivers/STM32F3xx_HAL_Driver/Src/stm32f3xx_hal_i2c.c ****   hi2c->Instance->OAR1 &= ~I2C_OAR1_OA1EN;
  97              		.loc 1 442 0
  98 0052 7B68     		ldr	r3, [r7, #4]
  99 0054 1B68     		ldr	r3, [r3]
 100 0056 9A68     		ldr	r2, [r3, #8]
 101 0058 7B68     		ldr	r3, [r7, #4]
 102 005a 1B68     		ldr	r3, [r3]
 103 005c 22F40042 		bic	r2, r2, #32768
 104 0060 9A60     		str	r2, [r3, #8]
 443:Drivers/STM32F3xx_HAL_Driver/Src/stm32f3xx_hal_i2c.c **** 
 444:Drivers/STM32F3xx_HAL_Driver/Src/stm32f3xx_hal_i2c.c ****   /* Configure I2Cx: Own Address1 and ack own address1 mode */
 445:Drivers/STM32F3xx_HAL_Driver/Src/stm32f3xx_hal_i2c.c ****   if (hi2c->Init.AddressingMode == I2C_ADDRESSINGMODE_7BIT)
 105              		.loc 1 445 0
 106 0062 7B68     		ldr	r3, [r7, #4]
 107 0064 DB68     		ldr	r3, [r3, #12]
 108 0066 012B     		cmp	r3, #1
 109 0068 07D1     		bne	.L5
 446:Drivers/STM32F3xx_HAL_Driver/Src/stm32f3xx_hal_i2c.c ****   {
 447:Drivers/STM32F3xx_HAL_Driver/Src/stm32f3xx_hal_i2c.c ****     hi2c->Instance->OAR1 = (I2C_OAR1_OA1EN | hi2c->Init.OwnAddress1);
 110              		.loc 1 447 0
 111 006a 7B68     		ldr	r3, [r7, #4]
 112 006c 9A68     		ldr	r2, [r3, #8]
 113 006e 7B68     		ldr	r3, [r7, #4]
 114 0070 1B68     		ldr	r3, [r3]
 115 0072 42F40042 		orr	r2, r2, #32768
 116 0076 9A60     		str	r2, [r3, #8]
 117 0078 06E0     		b	.L6
 118              	.L5:
 448:Drivers/STM32F3xx_HAL_Driver/Src/stm32f3xx_hal_i2c.c ****   }
 449:Drivers/STM32F3xx_HAL_Driver/Src/stm32f3xx_hal_i2c.c ****   else /* I2C_ADDRESSINGMODE_10BIT */
 450:Drivers/STM32F3xx_HAL_Driver/Src/stm32f3xx_hal_i2c.c ****   {
 451:Drivers/STM32F3xx_HAL_Driver/Src/stm32f3xx_hal_i2c.c ****     hi2c->Instance->OAR1 = (I2C_OAR1_OA1EN | I2C_OAR1_OA1MODE | hi2c->Init.OwnAddress1);
 119              		.loc 1 451 0
 120 007a 7B68     		ldr	r3, [r7, #4]
 121 007c 9A68     		ldr	r2, [r3, #8]
 122 007e 7B68     		ldr	r3, [r7, #4]
ARM GAS  /tmp/ccy0jiyr.s 			page 11


 123 0080 1B68     		ldr	r3, [r3]
 124 0082 42F40442 		orr	r2, r2, #33792
 125 0086 9A60     		str	r2, [r3, #8]
 126              	.L6:
 452:Drivers/STM32F3xx_HAL_Driver/Src/stm32f3xx_hal_i2c.c ****   }
 453:Drivers/STM32F3xx_HAL_Driver/Src/stm32f3xx_hal_i2c.c **** 
 454:Drivers/STM32F3xx_HAL_Driver/Src/stm32f3xx_hal_i2c.c ****   /*---------------------------- I2Cx CR2 Configuration ----------------------*/
 455:Drivers/STM32F3xx_HAL_Driver/Src/stm32f3xx_hal_i2c.c ****   /* Configure I2Cx: Addressing Master mode */
 456:Drivers/STM32F3xx_HAL_Driver/Src/stm32f3xx_hal_i2c.c ****   if (hi2c->Init.AddressingMode == I2C_ADDRESSINGMODE_10BIT)
 127              		.loc 1 456 0
 128 0088 7B68     		ldr	r3, [r7, #4]
 129 008a DB68     		ldr	r3, [r3, #12]
 130 008c 022B     		cmp	r3, #2
 131 008e 04D1     		bne	.L7
 457:Drivers/STM32F3xx_HAL_Driver/Src/stm32f3xx_hal_i2c.c ****   {
 458:Drivers/STM32F3xx_HAL_Driver/Src/stm32f3xx_hal_i2c.c ****     hi2c->Instance->CR2 = (I2C_CR2_ADD10);
 132              		.loc 1 458 0
 133 0090 7B68     		ldr	r3, [r7, #4]
 134 0092 1B68     		ldr	r3, [r3]
 135 0094 4FF40062 		mov	r2, #2048
 136 0098 5A60     		str	r2, [r3, #4]
 137              	.L7:
 459:Drivers/STM32F3xx_HAL_Driver/Src/stm32f3xx_hal_i2c.c ****   }
 460:Drivers/STM32F3xx_HAL_Driver/Src/stm32f3xx_hal_i2c.c ****   /* Enable the AUTOEND by default, and enable NACK (should be disable only during Slave process */
 461:Drivers/STM32F3xx_HAL_Driver/Src/stm32f3xx_hal_i2c.c ****   hi2c->Instance->CR2 |= (I2C_CR2_AUTOEND | I2C_CR2_NACK);
 138              		.loc 1 461 0
 139 009a 7B68     		ldr	r3, [r7, #4]
 140 009c 1B68     		ldr	r3, [r3]
 141 009e 5B68     		ldr	r3, [r3, #4]
 142 00a0 7A68     		ldr	r2, [r7, #4]
 143 00a2 1268     		ldr	r2, [r2]
 144 00a4 43F00073 		orr	r3, r3, #33554432
 145 00a8 43F40043 		orr	r3, r3, #32768
 146 00ac 5360     		str	r3, [r2, #4]
 462:Drivers/STM32F3xx_HAL_Driver/Src/stm32f3xx_hal_i2c.c **** 
 463:Drivers/STM32F3xx_HAL_Driver/Src/stm32f3xx_hal_i2c.c ****   /*---------------------------- I2Cx OAR2 Configuration ---------------------*/
 464:Drivers/STM32F3xx_HAL_Driver/Src/stm32f3xx_hal_i2c.c ****   /* Disable Own Address2 before set the Own Address2 configuration */
 465:Drivers/STM32F3xx_HAL_Driver/Src/stm32f3xx_hal_i2c.c ****   hi2c->Instance->OAR2 &= ~I2C_DUALADDRESS_ENABLE;
 147              		.loc 1 465 0
 148 00ae 7B68     		ldr	r3, [r7, #4]
 149 00b0 1B68     		ldr	r3, [r3]
 150 00b2 DA68     		ldr	r2, [r3, #12]
 151 00b4 7B68     		ldr	r3, [r7, #4]
 152 00b6 1B68     		ldr	r3, [r3]
 153 00b8 22F40042 		bic	r2, r2, #32768
 154 00bc DA60     		str	r2, [r3, #12]
 466:Drivers/STM32F3xx_HAL_Driver/Src/stm32f3xx_hal_i2c.c **** 
 467:Drivers/STM32F3xx_HAL_Driver/Src/stm32f3xx_hal_i2c.c ****   /* Configure I2Cx: Dual mode and Own Address2 */
 468:Drivers/STM32F3xx_HAL_Driver/Src/stm32f3xx_hal_i2c.c ****   hi2c->Instance->OAR2 = (hi2c->Init.DualAddressMode | hi2c->Init.OwnAddress2 | (hi2c->Init.OwnAddr
 155              		.loc 1 468 0
 156 00be 7B68     		ldr	r3, [r7, #4]
 157 00c0 1A69     		ldr	r2, [r3, #16]
 158 00c2 7B68     		ldr	r3, [r7, #4]
 159 00c4 5B69     		ldr	r3, [r3, #20]
 160 00c6 42EA0301 		orr	r1, r2, r3
 161 00ca 7B68     		ldr	r3, [r7, #4]
 162 00cc 9B69     		ldr	r3, [r3, #24]
ARM GAS  /tmp/ccy0jiyr.s 			page 12


 163 00ce 1A02     		lsls	r2, r3, #8
 164 00d0 7B68     		ldr	r3, [r7, #4]
 165 00d2 1B68     		ldr	r3, [r3]
 166 00d4 0A43     		orrs	r2, r2, r1
 167 00d6 DA60     		str	r2, [r3, #12]
 469:Drivers/STM32F3xx_HAL_Driver/Src/stm32f3xx_hal_i2c.c **** 
 470:Drivers/STM32F3xx_HAL_Driver/Src/stm32f3xx_hal_i2c.c ****   /*---------------------------- I2Cx CR1 Configuration ----------------------*/
 471:Drivers/STM32F3xx_HAL_Driver/Src/stm32f3xx_hal_i2c.c ****   /* Configure I2Cx: Generalcall and NoStretch mode */
 472:Drivers/STM32F3xx_HAL_Driver/Src/stm32f3xx_hal_i2c.c ****   hi2c->Instance->CR1 = (hi2c->Init.GeneralCallMode | hi2c->Init.NoStretchMode);
 168              		.loc 1 472 0
 169 00d8 7B68     		ldr	r3, [r7, #4]
 170 00da D969     		ldr	r1, [r3, #28]
 171 00dc 7B68     		ldr	r3, [r7, #4]
 172 00de 1A6A     		ldr	r2, [r3, #32]
 173 00e0 7B68     		ldr	r3, [r7, #4]
 174 00e2 1B68     		ldr	r3, [r3]
 175 00e4 0A43     		orrs	r2, r2, r1
 176 00e6 1A60     		str	r2, [r3]
 473:Drivers/STM32F3xx_HAL_Driver/Src/stm32f3xx_hal_i2c.c **** 
 474:Drivers/STM32F3xx_HAL_Driver/Src/stm32f3xx_hal_i2c.c ****   /* Enable the selected I2C peripheral */
 475:Drivers/STM32F3xx_HAL_Driver/Src/stm32f3xx_hal_i2c.c ****   __HAL_I2C_ENABLE(hi2c);
 177              		.loc 1 475 0
 178 00e8 7B68     		ldr	r3, [r7, #4]
 179 00ea 1B68     		ldr	r3, [r3]
 180 00ec 1A68     		ldr	r2, [r3]
 181 00ee 7B68     		ldr	r3, [r7, #4]
 182 00f0 1B68     		ldr	r3, [r3]
 183 00f2 42F00102 		orr	r2, r2, #1
 184 00f6 1A60     		str	r2, [r3]
 476:Drivers/STM32F3xx_HAL_Driver/Src/stm32f3xx_hal_i2c.c **** 
 477:Drivers/STM32F3xx_HAL_Driver/Src/stm32f3xx_hal_i2c.c ****   hi2c->ErrorCode = HAL_I2C_ERROR_NONE;
 185              		.loc 1 477 0
 186 00f8 7B68     		ldr	r3, [r7, #4]
 187 00fa 0022     		movs	r2, #0
 188 00fc 5A64     		str	r2, [r3, #68]
 478:Drivers/STM32F3xx_HAL_Driver/Src/stm32f3xx_hal_i2c.c ****   hi2c->State = HAL_I2C_STATE_READY;
 189              		.loc 1 478 0
 190 00fe 7B68     		ldr	r3, [r7, #4]
 191 0100 2022     		movs	r2, #32
 192 0102 83F84120 		strb	r2, [r3, #65]
 479:Drivers/STM32F3xx_HAL_Driver/Src/stm32f3xx_hal_i2c.c ****   hi2c->PreviousState = I2C_STATE_NONE;
 193              		.loc 1 479 0
 194 0106 7B68     		ldr	r3, [r7, #4]
 195 0108 0022     		movs	r2, #0
 196 010a 1A63     		str	r2, [r3, #48]
 480:Drivers/STM32F3xx_HAL_Driver/Src/stm32f3xx_hal_i2c.c ****   hi2c->Mode = HAL_I2C_MODE_NONE;
 197              		.loc 1 480 0
 198 010c 7B68     		ldr	r3, [r7, #4]
 199 010e 0022     		movs	r2, #0
 200 0110 83F84220 		strb	r2, [r3, #66]
 481:Drivers/STM32F3xx_HAL_Driver/Src/stm32f3xx_hal_i2c.c **** 
 482:Drivers/STM32F3xx_HAL_Driver/Src/stm32f3xx_hal_i2c.c ****   return HAL_OK;
 201              		.loc 1 482 0
 202 0114 0023     		movs	r3, #0
 203              	.L3:
 483:Drivers/STM32F3xx_HAL_Driver/Src/stm32f3xx_hal_i2c.c **** }
 204              		.loc 1 483 0
ARM GAS  /tmp/ccy0jiyr.s 			page 13


 205 0116 1846     		mov	r0, r3
 206 0118 0837     		adds	r7, r7, #8
 207              	.LCFI3:
 208              		.cfi_def_cfa_offset 8
 209 011a BD46     		mov	sp, r7
 210              	.LCFI4:
 211              		.cfi_def_cfa_register 13
 212              		@ sp needed
 213 011c 80BD     		pop	{r7, pc}
 214              		.cfi_endproc
 215              	.LFE695:
 217              		.section	.text.HAL_I2C_DeInit,"ax",%progbits
 218              		.align	1
 219              		.global	HAL_I2C_DeInit
 220              		.syntax unified
 221              		.thumb
 222              		.thumb_func
 223              		.fpu fpv4-sp-d16
 225              	HAL_I2C_DeInit:
 226              	.LFB696:
 484:Drivers/STM32F3xx_HAL_Driver/Src/stm32f3xx_hal_i2c.c **** 
 485:Drivers/STM32F3xx_HAL_Driver/Src/stm32f3xx_hal_i2c.c **** /**
 486:Drivers/STM32F3xx_HAL_Driver/Src/stm32f3xx_hal_i2c.c ****   * @brief  DeInitialize the I2C peripheral.
 487:Drivers/STM32F3xx_HAL_Driver/Src/stm32f3xx_hal_i2c.c ****   * @param  hi2c Pointer to a I2C_HandleTypeDef structure that contains
 488:Drivers/STM32F3xx_HAL_Driver/Src/stm32f3xx_hal_i2c.c ****   *                the configuration information for the specified I2C.
 489:Drivers/STM32F3xx_HAL_Driver/Src/stm32f3xx_hal_i2c.c ****   * @retval HAL status
 490:Drivers/STM32F3xx_HAL_Driver/Src/stm32f3xx_hal_i2c.c ****   */
 491:Drivers/STM32F3xx_HAL_Driver/Src/stm32f3xx_hal_i2c.c **** HAL_StatusTypeDef HAL_I2C_DeInit(I2C_HandleTypeDef *hi2c)
 492:Drivers/STM32F3xx_HAL_Driver/Src/stm32f3xx_hal_i2c.c **** {
 227              		.loc 1 492 0
 228              		.cfi_startproc
 229              		@ args = 0, pretend = 0, frame = 8
 230              		@ frame_needed = 1, uses_anonymous_args = 0
 231 0000 80B5     		push	{r7, lr}
 232              	.LCFI5:
 233              		.cfi_def_cfa_offset 8
 234              		.cfi_offset 7, -8
 235              		.cfi_offset 14, -4
 236 0002 82B0     		sub	sp, sp, #8
 237              	.LCFI6:
 238              		.cfi_def_cfa_offset 16
 239 0004 00AF     		add	r7, sp, #0
 240              	.LCFI7:
 241              		.cfi_def_cfa_register 7
 242 0006 7860     		str	r0, [r7, #4]
 493:Drivers/STM32F3xx_HAL_Driver/Src/stm32f3xx_hal_i2c.c ****   /* Check the I2C handle allocation */
 494:Drivers/STM32F3xx_HAL_Driver/Src/stm32f3xx_hal_i2c.c ****   if (hi2c == NULL)
 243              		.loc 1 494 0
 244 0008 7B68     		ldr	r3, [r7, #4]
 245 000a 002B     		cmp	r3, #0
 246 000c 01D1     		bne	.L9
 495:Drivers/STM32F3xx_HAL_Driver/Src/stm32f3xx_hal_i2c.c ****   {
 496:Drivers/STM32F3xx_HAL_Driver/Src/stm32f3xx_hal_i2c.c ****     return HAL_ERROR;
 247              		.loc 1 496 0
 248 000e 0123     		movs	r3, #1
 249 0010 21E0     		b	.L10
 250              	.L9:
ARM GAS  /tmp/ccy0jiyr.s 			page 14


 497:Drivers/STM32F3xx_HAL_Driver/Src/stm32f3xx_hal_i2c.c ****   }
 498:Drivers/STM32F3xx_HAL_Driver/Src/stm32f3xx_hal_i2c.c **** 
 499:Drivers/STM32F3xx_HAL_Driver/Src/stm32f3xx_hal_i2c.c ****   /* Check the parameters */
 500:Drivers/STM32F3xx_HAL_Driver/Src/stm32f3xx_hal_i2c.c ****   assert_param(IS_I2C_ALL_INSTANCE(hi2c->Instance));
 501:Drivers/STM32F3xx_HAL_Driver/Src/stm32f3xx_hal_i2c.c **** 
 502:Drivers/STM32F3xx_HAL_Driver/Src/stm32f3xx_hal_i2c.c ****   hi2c->State = HAL_I2C_STATE_BUSY;
 251              		.loc 1 502 0
 252 0012 7B68     		ldr	r3, [r7, #4]
 253 0014 2422     		movs	r2, #36
 254 0016 83F84120 		strb	r2, [r3, #65]
 503:Drivers/STM32F3xx_HAL_Driver/Src/stm32f3xx_hal_i2c.c **** 
 504:Drivers/STM32F3xx_HAL_Driver/Src/stm32f3xx_hal_i2c.c ****   /* Disable the I2C Peripheral Clock */
 505:Drivers/STM32F3xx_HAL_Driver/Src/stm32f3xx_hal_i2c.c ****   __HAL_I2C_DISABLE(hi2c);
 255              		.loc 1 505 0
 256 001a 7B68     		ldr	r3, [r7, #4]
 257 001c 1B68     		ldr	r3, [r3]
 258 001e 1A68     		ldr	r2, [r3]
 259 0020 7B68     		ldr	r3, [r7, #4]
 260 0022 1B68     		ldr	r3, [r3]
 261 0024 22F00102 		bic	r2, r2, #1
 262 0028 1A60     		str	r2, [r3]
 506:Drivers/STM32F3xx_HAL_Driver/Src/stm32f3xx_hal_i2c.c **** 
 507:Drivers/STM32F3xx_HAL_Driver/Src/stm32f3xx_hal_i2c.c ****   /* DeInit the low level hardware: GPIO, CLOCK, NVIC */
 508:Drivers/STM32F3xx_HAL_Driver/Src/stm32f3xx_hal_i2c.c ****   HAL_I2C_MspDeInit(hi2c);
 263              		.loc 1 508 0
 264 002a 7868     		ldr	r0, [r7, #4]
 265 002c FFF7FEFF 		bl	HAL_I2C_MspDeInit
 509:Drivers/STM32F3xx_HAL_Driver/Src/stm32f3xx_hal_i2c.c **** 
 510:Drivers/STM32F3xx_HAL_Driver/Src/stm32f3xx_hal_i2c.c ****   hi2c->ErrorCode = HAL_I2C_ERROR_NONE;
 266              		.loc 1 510 0
 267 0030 7B68     		ldr	r3, [r7, #4]
 268 0032 0022     		movs	r2, #0
 269 0034 5A64     		str	r2, [r3, #68]
 511:Drivers/STM32F3xx_HAL_Driver/Src/stm32f3xx_hal_i2c.c ****   hi2c->State = HAL_I2C_STATE_RESET;
 270              		.loc 1 511 0
 271 0036 7B68     		ldr	r3, [r7, #4]
 272 0038 0022     		movs	r2, #0
 273 003a 83F84120 		strb	r2, [r3, #65]
 512:Drivers/STM32F3xx_HAL_Driver/Src/stm32f3xx_hal_i2c.c ****   hi2c->PreviousState = I2C_STATE_NONE;
 274              		.loc 1 512 0
 275 003e 7B68     		ldr	r3, [r7, #4]
 276 0040 0022     		movs	r2, #0
 277 0042 1A63     		str	r2, [r3, #48]
 513:Drivers/STM32F3xx_HAL_Driver/Src/stm32f3xx_hal_i2c.c ****   hi2c->Mode = HAL_I2C_MODE_NONE;
 278              		.loc 1 513 0
 279 0044 7B68     		ldr	r3, [r7, #4]
 280 0046 0022     		movs	r2, #0
 281 0048 83F84220 		strb	r2, [r3, #66]
 514:Drivers/STM32F3xx_HAL_Driver/Src/stm32f3xx_hal_i2c.c **** 
 515:Drivers/STM32F3xx_HAL_Driver/Src/stm32f3xx_hal_i2c.c ****   /* Release Lock */
 516:Drivers/STM32F3xx_HAL_Driver/Src/stm32f3xx_hal_i2c.c ****   __HAL_UNLOCK(hi2c);
 282              		.loc 1 516 0
 283 004c 7B68     		ldr	r3, [r7, #4]
 284 004e 0022     		movs	r2, #0
 285 0050 83F84020 		strb	r2, [r3, #64]
 517:Drivers/STM32F3xx_HAL_Driver/Src/stm32f3xx_hal_i2c.c **** 
 518:Drivers/STM32F3xx_HAL_Driver/Src/stm32f3xx_hal_i2c.c ****   return HAL_OK;
ARM GAS  /tmp/ccy0jiyr.s 			page 15


 286              		.loc 1 518 0
 287 0054 0023     		movs	r3, #0
 288              	.L10:
 519:Drivers/STM32F3xx_HAL_Driver/Src/stm32f3xx_hal_i2c.c **** }
 289              		.loc 1 519 0
 290 0056 1846     		mov	r0, r3
 291 0058 0837     		adds	r7, r7, #8
 292              	.LCFI8:
 293              		.cfi_def_cfa_offset 8
 294 005a BD46     		mov	sp, r7
 295              	.LCFI9:
 296              		.cfi_def_cfa_register 13
 297              		@ sp needed
 298 005c 80BD     		pop	{r7, pc}
 299              		.cfi_endproc
 300              	.LFE696:
 302              		.section	.text.HAL_I2C_MspInit,"ax",%progbits
 303              		.align	1
 304              		.weak	HAL_I2C_MspInit
 305              		.syntax unified
 306              		.thumb
 307              		.thumb_func
 308              		.fpu fpv4-sp-d16
 310              	HAL_I2C_MspInit:
 311              	.LFB697:
 520:Drivers/STM32F3xx_HAL_Driver/Src/stm32f3xx_hal_i2c.c **** 
 521:Drivers/STM32F3xx_HAL_Driver/Src/stm32f3xx_hal_i2c.c **** /**
 522:Drivers/STM32F3xx_HAL_Driver/Src/stm32f3xx_hal_i2c.c ****   * @brief Initialize the I2C MSP.
 523:Drivers/STM32F3xx_HAL_Driver/Src/stm32f3xx_hal_i2c.c ****   * @param  hi2c Pointer to a I2C_HandleTypeDef structure that contains
 524:Drivers/STM32F3xx_HAL_Driver/Src/stm32f3xx_hal_i2c.c ****   *                the configuration information for the specified I2C.
 525:Drivers/STM32F3xx_HAL_Driver/Src/stm32f3xx_hal_i2c.c ****   * @retval None
 526:Drivers/STM32F3xx_HAL_Driver/Src/stm32f3xx_hal_i2c.c ****   */
 527:Drivers/STM32F3xx_HAL_Driver/Src/stm32f3xx_hal_i2c.c **** __weak void HAL_I2C_MspInit(I2C_HandleTypeDef *hi2c)
 528:Drivers/STM32F3xx_HAL_Driver/Src/stm32f3xx_hal_i2c.c **** {
 312              		.loc 1 528 0
 313              		.cfi_startproc
 314              		@ args = 0, pretend = 0, frame = 8
 315              		@ frame_needed = 1, uses_anonymous_args = 0
 316              		@ link register save eliminated.
 317 0000 80B4     		push	{r7}
 318              	.LCFI10:
 319              		.cfi_def_cfa_offset 4
 320              		.cfi_offset 7, -4
 321 0002 83B0     		sub	sp, sp, #12
 322              	.LCFI11:
 323              		.cfi_def_cfa_offset 16
 324 0004 00AF     		add	r7, sp, #0
 325              	.LCFI12:
 326              		.cfi_def_cfa_register 7
 327 0006 7860     		str	r0, [r7, #4]
 529:Drivers/STM32F3xx_HAL_Driver/Src/stm32f3xx_hal_i2c.c ****   /* Prevent unused argument(s) compilation warning */
 530:Drivers/STM32F3xx_HAL_Driver/Src/stm32f3xx_hal_i2c.c ****   UNUSED(hi2c);
 531:Drivers/STM32F3xx_HAL_Driver/Src/stm32f3xx_hal_i2c.c **** 
 532:Drivers/STM32F3xx_HAL_Driver/Src/stm32f3xx_hal_i2c.c ****   /* NOTE : This function should not be modified, when the callback is needed,
 533:Drivers/STM32F3xx_HAL_Driver/Src/stm32f3xx_hal_i2c.c ****             the HAL_I2C_MspInit could be implemented in the user file
 534:Drivers/STM32F3xx_HAL_Driver/Src/stm32f3xx_hal_i2c.c ****    */
 535:Drivers/STM32F3xx_HAL_Driver/Src/stm32f3xx_hal_i2c.c **** }
ARM GAS  /tmp/ccy0jiyr.s 			page 16


 328              		.loc 1 535 0
 329 0008 00BF     		nop
 330 000a 0C37     		adds	r7, r7, #12
 331              	.LCFI13:
 332              		.cfi_def_cfa_offset 4
 333 000c BD46     		mov	sp, r7
 334              	.LCFI14:
 335              		.cfi_def_cfa_register 13
 336              		@ sp needed
 337 000e 5DF8047B 		ldr	r7, [sp], #4
 338              	.LCFI15:
 339              		.cfi_restore 7
 340              		.cfi_def_cfa_offset 0
 341 0012 7047     		bx	lr
 342              		.cfi_endproc
 343              	.LFE697:
 345              		.section	.text.HAL_I2C_MspDeInit,"ax",%progbits
 346              		.align	1
 347              		.weak	HAL_I2C_MspDeInit
 348              		.syntax unified
 349              		.thumb
 350              		.thumb_func
 351              		.fpu fpv4-sp-d16
 353              	HAL_I2C_MspDeInit:
 354              	.LFB698:
 536:Drivers/STM32F3xx_HAL_Driver/Src/stm32f3xx_hal_i2c.c **** 
 537:Drivers/STM32F3xx_HAL_Driver/Src/stm32f3xx_hal_i2c.c **** /**
 538:Drivers/STM32F3xx_HAL_Driver/Src/stm32f3xx_hal_i2c.c ****   * @brief DeInitialize the I2C MSP.
 539:Drivers/STM32F3xx_HAL_Driver/Src/stm32f3xx_hal_i2c.c ****   * @param  hi2c Pointer to a I2C_HandleTypeDef structure that contains
 540:Drivers/STM32F3xx_HAL_Driver/Src/stm32f3xx_hal_i2c.c ****   *                the configuration information for the specified I2C.
 541:Drivers/STM32F3xx_HAL_Driver/Src/stm32f3xx_hal_i2c.c ****   * @retval None
 542:Drivers/STM32F3xx_HAL_Driver/Src/stm32f3xx_hal_i2c.c ****   */
 543:Drivers/STM32F3xx_HAL_Driver/Src/stm32f3xx_hal_i2c.c **** __weak void HAL_I2C_MspDeInit(I2C_HandleTypeDef *hi2c)
 544:Drivers/STM32F3xx_HAL_Driver/Src/stm32f3xx_hal_i2c.c **** {
 355              		.loc 1 544 0
 356              		.cfi_startproc
 357              		@ args = 0, pretend = 0, frame = 8
 358              		@ frame_needed = 1, uses_anonymous_args = 0
 359              		@ link register save eliminated.
 360 0000 80B4     		push	{r7}
 361              	.LCFI16:
 362              		.cfi_def_cfa_offset 4
 363              		.cfi_offset 7, -4
 364 0002 83B0     		sub	sp, sp, #12
 365              	.LCFI17:
 366              		.cfi_def_cfa_offset 16
 367 0004 00AF     		add	r7, sp, #0
 368              	.LCFI18:
 369              		.cfi_def_cfa_register 7
 370 0006 7860     		str	r0, [r7, #4]
 545:Drivers/STM32F3xx_HAL_Driver/Src/stm32f3xx_hal_i2c.c ****   /* Prevent unused argument(s) compilation warning */
 546:Drivers/STM32F3xx_HAL_Driver/Src/stm32f3xx_hal_i2c.c ****   UNUSED(hi2c);
 547:Drivers/STM32F3xx_HAL_Driver/Src/stm32f3xx_hal_i2c.c **** 
 548:Drivers/STM32F3xx_HAL_Driver/Src/stm32f3xx_hal_i2c.c ****   /* NOTE : This function should not be modified, when the callback is needed,
 549:Drivers/STM32F3xx_HAL_Driver/Src/stm32f3xx_hal_i2c.c ****             the HAL_I2C_MspDeInit could be implemented in the user file
 550:Drivers/STM32F3xx_HAL_Driver/Src/stm32f3xx_hal_i2c.c ****    */
 551:Drivers/STM32F3xx_HAL_Driver/Src/stm32f3xx_hal_i2c.c **** }
ARM GAS  /tmp/ccy0jiyr.s 			page 17


 371              		.loc 1 551 0
 372 0008 00BF     		nop
 373 000a 0C37     		adds	r7, r7, #12
 374              	.LCFI19:
 375              		.cfi_def_cfa_offset 4
 376 000c BD46     		mov	sp, r7
 377              	.LCFI20:
 378              		.cfi_def_cfa_register 13
 379              		@ sp needed
 380 000e 5DF8047B 		ldr	r7, [sp], #4
 381              	.LCFI21:
 382              		.cfi_restore 7
 383              		.cfi_def_cfa_offset 0
 384 0012 7047     		bx	lr
 385              		.cfi_endproc
 386              	.LFE698:
 388              		.section	.text.HAL_I2C_Master_Transmit,"ax",%progbits
 389              		.align	1
 390              		.global	HAL_I2C_Master_Transmit
 391              		.syntax unified
 392              		.thumb
 393              		.thumb_func
 394              		.fpu fpv4-sp-d16
 396              	HAL_I2C_Master_Transmit:
 397              	.LFB699:
 552:Drivers/STM32F3xx_HAL_Driver/Src/stm32f3xx_hal_i2c.c **** 
 553:Drivers/STM32F3xx_HAL_Driver/Src/stm32f3xx_hal_i2c.c **** /**
 554:Drivers/STM32F3xx_HAL_Driver/Src/stm32f3xx_hal_i2c.c ****   * @}
 555:Drivers/STM32F3xx_HAL_Driver/Src/stm32f3xx_hal_i2c.c ****   */
 556:Drivers/STM32F3xx_HAL_Driver/Src/stm32f3xx_hal_i2c.c **** 
 557:Drivers/STM32F3xx_HAL_Driver/Src/stm32f3xx_hal_i2c.c **** /** @defgroup I2C_Exported_Functions_Group2 Input and Output operation functions
 558:Drivers/STM32F3xx_HAL_Driver/Src/stm32f3xx_hal_i2c.c ****  *  @brief   Data transfers functions
 559:Drivers/STM32F3xx_HAL_Driver/Src/stm32f3xx_hal_i2c.c ****  *
 560:Drivers/STM32F3xx_HAL_Driver/Src/stm32f3xx_hal_i2c.c **** @verbatim
 561:Drivers/STM32F3xx_HAL_Driver/Src/stm32f3xx_hal_i2c.c ****  ===============================================================================
 562:Drivers/STM32F3xx_HAL_Driver/Src/stm32f3xx_hal_i2c.c ****                       ##### IO operation functions #####
 563:Drivers/STM32F3xx_HAL_Driver/Src/stm32f3xx_hal_i2c.c ****  ===============================================================================
 564:Drivers/STM32F3xx_HAL_Driver/Src/stm32f3xx_hal_i2c.c ****     [..]
 565:Drivers/STM32F3xx_HAL_Driver/Src/stm32f3xx_hal_i2c.c ****     This subsection provides a set of functions allowing to manage the I2C data
 566:Drivers/STM32F3xx_HAL_Driver/Src/stm32f3xx_hal_i2c.c ****     transfers.
 567:Drivers/STM32F3xx_HAL_Driver/Src/stm32f3xx_hal_i2c.c **** 
 568:Drivers/STM32F3xx_HAL_Driver/Src/stm32f3xx_hal_i2c.c ****     (#) There are two modes of transfer:
 569:Drivers/STM32F3xx_HAL_Driver/Src/stm32f3xx_hal_i2c.c ****        (++) Blocking mode : The communication is performed in the polling mode.
 570:Drivers/STM32F3xx_HAL_Driver/Src/stm32f3xx_hal_i2c.c ****             The status of all data processing is returned by the same function
 571:Drivers/STM32F3xx_HAL_Driver/Src/stm32f3xx_hal_i2c.c ****             after finishing transfer.
 572:Drivers/STM32F3xx_HAL_Driver/Src/stm32f3xx_hal_i2c.c ****        (++) No-Blocking mode : The communication is performed using Interrupts
 573:Drivers/STM32F3xx_HAL_Driver/Src/stm32f3xx_hal_i2c.c ****             or DMA. These functions return the status of the transfer startup.
 574:Drivers/STM32F3xx_HAL_Driver/Src/stm32f3xx_hal_i2c.c ****             The end of the data processing will be indicated through the
 575:Drivers/STM32F3xx_HAL_Driver/Src/stm32f3xx_hal_i2c.c ****             dedicated I2C IRQ when using Interrupt mode or the DMA IRQ when
 576:Drivers/STM32F3xx_HAL_Driver/Src/stm32f3xx_hal_i2c.c ****             using DMA mode.
 577:Drivers/STM32F3xx_HAL_Driver/Src/stm32f3xx_hal_i2c.c **** 
 578:Drivers/STM32F3xx_HAL_Driver/Src/stm32f3xx_hal_i2c.c ****     (#) Blocking mode functions are :
 579:Drivers/STM32F3xx_HAL_Driver/Src/stm32f3xx_hal_i2c.c ****         (++) HAL_I2C_Master_Transmit()
 580:Drivers/STM32F3xx_HAL_Driver/Src/stm32f3xx_hal_i2c.c ****         (++) HAL_I2C_Master_Receive()
 581:Drivers/STM32F3xx_HAL_Driver/Src/stm32f3xx_hal_i2c.c ****         (++) HAL_I2C_Slave_Transmit()
 582:Drivers/STM32F3xx_HAL_Driver/Src/stm32f3xx_hal_i2c.c ****         (++) HAL_I2C_Slave_Receive()
 583:Drivers/STM32F3xx_HAL_Driver/Src/stm32f3xx_hal_i2c.c ****         (++) HAL_I2C_Mem_Write()
ARM GAS  /tmp/ccy0jiyr.s 			page 18


 584:Drivers/STM32F3xx_HAL_Driver/Src/stm32f3xx_hal_i2c.c ****         (++) HAL_I2C_Mem_Read()
 585:Drivers/STM32F3xx_HAL_Driver/Src/stm32f3xx_hal_i2c.c ****         (++) HAL_I2C_IsDeviceReady()
 586:Drivers/STM32F3xx_HAL_Driver/Src/stm32f3xx_hal_i2c.c **** 
 587:Drivers/STM32F3xx_HAL_Driver/Src/stm32f3xx_hal_i2c.c ****     (#) No-Blocking mode functions with Interrupt are :
 588:Drivers/STM32F3xx_HAL_Driver/Src/stm32f3xx_hal_i2c.c ****         (++) HAL_I2C_Master_Transmit_IT()
 589:Drivers/STM32F3xx_HAL_Driver/Src/stm32f3xx_hal_i2c.c ****         (++) HAL_I2C_Master_Receive_IT()
 590:Drivers/STM32F3xx_HAL_Driver/Src/stm32f3xx_hal_i2c.c ****         (++) HAL_I2C_Slave_Transmit_IT()
 591:Drivers/STM32F3xx_HAL_Driver/Src/stm32f3xx_hal_i2c.c ****         (++) HAL_I2C_Slave_Receive_IT()
 592:Drivers/STM32F3xx_HAL_Driver/Src/stm32f3xx_hal_i2c.c ****         (++) HAL_I2C_Mem_Write_IT()
 593:Drivers/STM32F3xx_HAL_Driver/Src/stm32f3xx_hal_i2c.c ****         (++) HAL_I2C_Mem_Read_IT()
 594:Drivers/STM32F3xx_HAL_Driver/Src/stm32f3xx_hal_i2c.c **** 
 595:Drivers/STM32F3xx_HAL_Driver/Src/stm32f3xx_hal_i2c.c ****     (#) No-Blocking mode functions with DMA are :
 596:Drivers/STM32F3xx_HAL_Driver/Src/stm32f3xx_hal_i2c.c ****         (++) HAL_I2C_Master_Transmit_DMA()
 597:Drivers/STM32F3xx_HAL_Driver/Src/stm32f3xx_hal_i2c.c ****         (++) HAL_I2C_Master_Receive_DMA()
 598:Drivers/STM32F3xx_HAL_Driver/Src/stm32f3xx_hal_i2c.c ****         (++) HAL_I2C_Slave_Transmit_DMA()
 599:Drivers/STM32F3xx_HAL_Driver/Src/stm32f3xx_hal_i2c.c ****         (++) HAL_I2C_Slave_Receive_DMA()
 600:Drivers/STM32F3xx_HAL_Driver/Src/stm32f3xx_hal_i2c.c ****         (++) HAL_I2C_Mem_Write_DMA()
 601:Drivers/STM32F3xx_HAL_Driver/Src/stm32f3xx_hal_i2c.c ****         (++) HAL_I2C_Mem_Read_DMA()
 602:Drivers/STM32F3xx_HAL_Driver/Src/stm32f3xx_hal_i2c.c **** 
 603:Drivers/STM32F3xx_HAL_Driver/Src/stm32f3xx_hal_i2c.c ****     (#) A set of Transfer Complete Callbacks are provided in non Blocking mode:
 604:Drivers/STM32F3xx_HAL_Driver/Src/stm32f3xx_hal_i2c.c ****         (++) HAL_I2C_MemTxCpltCallback()
 605:Drivers/STM32F3xx_HAL_Driver/Src/stm32f3xx_hal_i2c.c ****         (++) HAL_I2C_MemRxCpltCallback()
 606:Drivers/STM32F3xx_HAL_Driver/Src/stm32f3xx_hal_i2c.c ****         (++) HAL_I2C_MasterTxCpltCallback()
 607:Drivers/STM32F3xx_HAL_Driver/Src/stm32f3xx_hal_i2c.c ****         (++) HAL_I2C_MasterRxCpltCallback()
 608:Drivers/STM32F3xx_HAL_Driver/Src/stm32f3xx_hal_i2c.c ****         (++) HAL_I2C_SlaveTxCpltCallback()
 609:Drivers/STM32F3xx_HAL_Driver/Src/stm32f3xx_hal_i2c.c ****         (++) HAL_I2C_SlaveRxCpltCallback()
 610:Drivers/STM32F3xx_HAL_Driver/Src/stm32f3xx_hal_i2c.c ****         (++) HAL_I2C_ErrorCallback()
 611:Drivers/STM32F3xx_HAL_Driver/Src/stm32f3xx_hal_i2c.c **** 
 612:Drivers/STM32F3xx_HAL_Driver/Src/stm32f3xx_hal_i2c.c **** @endverbatim
 613:Drivers/STM32F3xx_HAL_Driver/Src/stm32f3xx_hal_i2c.c ****   * @{
 614:Drivers/STM32F3xx_HAL_Driver/Src/stm32f3xx_hal_i2c.c ****   */
 615:Drivers/STM32F3xx_HAL_Driver/Src/stm32f3xx_hal_i2c.c **** 
 616:Drivers/STM32F3xx_HAL_Driver/Src/stm32f3xx_hal_i2c.c **** /**
 617:Drivers/STM32F3xx_HAL_Driver/Src/stm32f3xx_hal_i2c.c ****   * @brief  Transmits in master mode an amount of data in blocking mode.
 618:Drivers/STM32F3xx_HAL_Driver/Src/stm32f3xx_hal_i2c.c ****   * @param  hi2c Pointer to a I2C_HandleTypeDef structure that contains
 619:Drivers/STM32F3xx_HAL_Driver/Src/stm32f3xx_hal_i2c.c ****   *                the configuration information for the specified I2C.
 620:Drivers/STM32F3xx_HAL_Driver/Src/stm32f3xx_hal_i2c.c ****   * @param  DevAddress Target device address: The device 7 bits address value
 621:Drivers/STM32F3xx_HAL_Driver/Src/stm32f3xx_hal_i2c.c ****   *         in datasheet must be shift at right before call interface
 622:Drivers/STM32F3xx_HAL_Driver/Src/stm32f3xx_hal_i2c.c ****   * @param  pData Pointer to data buffer
 623:Drivers/STM32F3xx_HAL_Driver/Src/stm32f3xx_hal_i2c.c ****   * @param  Size Amount of data to be sent
 624:Drivers/STM32F3xx_HAL_Driver/Src/stm32f3xx_hal_i2c.c ****   * @param  Timeout Timeout duration
 625:Drivers/STM32F3xx_HAL_Driver/Src/stm32f3xx_hal_i2c.c ****   * @retval HAL status
 626:Drivers/STM32F3xx_HAL_Driver/Src/stm32f3xx_hal_i2c.c ****   */
 627:Drivers/STM32F3xx_HAL_Driver/Src/stm32f3xx_hal_i2c.c **** HAL_StatusTypeDef HAL_I2C_Master_Transmit(I2C_HandleTypeDef *hi2c, uint16_t DevAddress, uint8_t *pD
 628:Drivers/STM32F3xx_HAL_Driver/Src/stm32f3xx_hal_i2c.c **** {
 398              		.loc 1 628 0
 399              		.cfi_startproc
 400              		@ args = 4, pretend = 0, frame = 24
 401              		@ frame_needed = 1, uses_anonymous_args = 0
 402 0000 80B5     		push	{r7, lr}
 403              	.LCFI22:
 404              		.cfi_def_cfa_offset 8
 405              		.cfi_offset 7, -8
 406              		.cfi_offset 14, -4
 407 0002 88B0     		sub	sp, sp, #32
 408              	.LCFI23:
 409              		.cfi_def_cfa_offset 40
ARM GAS  /tmp/ccy0jiyr.s 			page 19


 410 0004 02AF     		add	r7, sp, #8
 411              	.LCFI24:
 412              		.cfi_def_cfa 7, 32
 413 0006 F860     		str	r0, [r7, #12]
 414 0008 7A60     		str	r2, [r7, #4]
 415 000a 1A46     		mov	r2, r3
 416 000c 0B46     		mov	r3, r1	@ movhi
 417 000e 7B81     		strh	r3, [r7, #10]	@ movhi
 418 0010 1346     		mov	r3, r2	@ movhi
 419 0012 3B81     		strh	r3, [r7, #8]	@ movhi
 629:Drivers/STM32F3xx_HAL_Driver/Src/stm32f3xx_hal_i2c.c ****   uint32_t tickstart = 0U;
 420              		.loc 1 629 0
 421 0014 0023     		movs	r3, #0
 422 0016 7B61     		str	r3, [r7, #20]
 630:Drivers/STM32F3xx_HAL_Driver/Src/stm32f3xx_hal_i2c.c **** 
 631:Drivers/STM32F3xx_HAL_Driver/Src/stm32f3xx_hal_i2c.c ****   if (hi2c->State == HAL_I2C_STATE_READY)
 423              		.loc 1 631 0
 424 0018 FB68     		ldr	r3, [r7, #12]
 425 001a 93F84130 		ldrb	r3, [r3, #65]
 426 001e DBB2     		uxtb	r3, r3
 427 0020 202B     		cmp	r3, #32
 428 0022 40F0E680 		bne	.L14
 632:Drivers/STM32F3xx_HAL_Driver/Src/stm32f3xx_hal_i2c.c ****   {
 633:Drivers/STM32F3xx_HAL_Driver/Src/stm32f3xx_hal_i2c.c ****     /* Process Locked */
 634:Drivers/STM32F3xx_HAL_Driver/Src/stm32f3xx_hal_i2c.c ****     __HAL_LOCK(hi2c);
 429              		.loc 1 634 0
 430 0026 FB68     		ldr	r3, [r7, #12]
 431 0028 93F84030 		ldrb	r3, [r3, #64]	@ zero_extendqisi2
 432 002c 012B     		cmp	r3, #1
 433 002e 01D1     		bne	.L15
 434              		.loc 1 634 0 is_stmt 0 discriminator 1
 435 0030 0223     		movs	r3, #2
 436 0032 DFE0     		b	.L16
 437              	.L15:
 438              		.loc 1 634 0 discriminator 2
 439 0034 FB68     		ldr	r3, [r7, #12]
 440 0036 0122     		movs	r2, #1
 441 0038 83F84020 		strb	r2, [r3, #64]
 635:Drivers/STM32F3xx_HAL_Driver/Src/stm32f3xx_hal_i2c.c **** 
 636:Drivers/STM32F3xx_HAL_Driver/Src/stm32f3xx_hal_i2c.c ****     /* Init tickstart for timeout management*/
 637:Drivers/STM32F3xx_HAL_Driver/Src/stm32f3xx_hal_i2c.c ****     tickstart = HAL_GetTick();
 442              		.loc 1 637 0 is_stmt 1 discriminator 2
 443 003c FFF7FEFF 		bl	HAL_GetTick
 444 0040 7861     		str	r0, [r7, #20]
 638:Drivers/STM32F3xx_HAL_Driver/Src/stm32f3xx_hal_i2c.c **** 
 639:Drivers/STM32F3xx_HAL_Driver/Src/stm32f3xx_hal_i2c.c ****     if (I2C_WaitOnFlagUntilTimeout(hi2c, I2C_FLAG_BUSY, SET, I2C_TIMEOUT_BUSY, tickstart) != HAL_OK
 445              		.loc 1 639 0 discriminator 2
 446 0042 7B69     		ldr	r3, [r7, #20]
 447 0044 0093     		str	r3, [sp]
 448 0046 1923     		movs	r3, #25
 449 0048 0122     		movs	r2, #1
 450 004a 4FF40041 		mov	r1, #32768
 451 004e F868     		ldr	r0, [r7, #12]
 452 0050 FFF7FEFF 		bl	I2C_WaitOnFlagUntilTimeout
 453 0054 0346     		mov	r3, r0
 454 0056 002B     		cmp	r3, #0
 455 0058 01D0     		beq	.L17
ARM GAS  /tmp/ccy0jiyr.s 			page 20


 640:Drivers/STM32F3xx_HAL_Driver/Src/stm32f3xx_hal_i2c.c ****     {
 641:Drivers/STM32F3xx_HAL_Driver/Src/stm32f3xx_hal_i2c.c ****       return HAL_TIMEOUT;
 456              		.loc 1 641 0
 457 005a 0323     		movs	r3, #3
 458 005c CAE0     		b	.L16
 459              	.L17:
 642:Drivers/STM32F3xx_HAL_Driver/Src/stm32f3xx_hal_i2c.c ****     }
 643:Drivers/STM32F3xx_HAL_Driver/Src/stm32f3xx_hal_i2c.c **** 
 644:Drivers/STM32F3xx_HAL_Driver/Src/stm32f3xx_hal_i2c.c ****     hi2c->State     = HAL_I2C_STATE_BUSY_TX;
 460              		.loc 1 644 0
 461 005e FB68     		ldr	r3, [r7, #12]
 462 0060 2122     		movs	r2, #33
 463 0062 83F84120 		strb	r2, [r3, #65]
 645:Drivers/STM32F3xx_HAL_Driver/Src/stm32f3xx_hal_i2c.c ****     hi2c->Mode      = HAL_I2C_MODE_MASTER;
 464              		.loc 1 645 0
 465 0066 FB68     		ldr	r3, [r7, #12]
 466 0068 1022     		movs	r2, #16
 467 006a 83F84220 		strb	r2, [r3, #66]
 646:Drivers/STM32F3xx_HAL_Driver/Src/stm32f3xx_hal_i2c.c ****     hi2c->ErrorCode = HAL_I2C_ERROR_NONE;
 468              		.loc 1 646 0
 469 006e FB68     		ldr	r3, [r7, #12]
 470 0070 0022     		movs	r2, #0
 471 0072 5A64     		str	r2, [r3, #68]
 647:Drivers/STM32F3xx_HAL_Driver/Src/stm32f3xx_hal_i2c.c **** 
 648:Drivers/STM32F3xx_HAL_Driver/Src/stm32f3xx_hal_i2c.c ****     /* Prepare transfer parameters */
 649:Drivers/STM32F3xx_HAL_Driver/Src/stm32f3xx_hal_i2c.c ****     hi2c->pBuffPtr  = pData;
 472              		.loc 1 649 0
 473 0074 FB68     		ldr	r3, [r7, #12]
 474 0076 7A68     		ldr	r2, [r7, #4]
 475 0078 5A62     		str	r2, [r3, #36]
 650:Drivers/STM32F3xx_HAL_Driver/Src/stm32f3xx_hal_i2c.c ****     hi2c->XferCount = Size;
 476              		.loc 1 650 0
 477 007a FB68     		ldr	r3, [r7, #12]
 478 007c 3A89     		ldrh	r2, [r7, #8]	@ movhi
 479 007e 5A85     		strh	r2, [r3, #42]	@ movhi
 651:Drivers/STM32F3xx_HAL_Driver/Src/stm32f3xx_hal_i2c.c ****     hi2c->XferISR   = NULL;
 480              		.loc 1 651 0
 481 0080 FB68     		ldr	r3, [r7, #12]
 482 0082 0022     		movs	r2, #0
 483 0084 5A63     		str	r2, [r3, #52]
 652:Drivers/STM32F3xx_HAL_Driver/Src/stm32f3xx_hal_i2c.c **** 
 653:Drivers/STM32F3xx_HAL_Driver/Src/stm32f3xx_hal_i2c.c ****     /* Send Slave Address */
 654:Drivers/STM32F3xx_HAL_Driver/Src/stm32f3xx_hal_i2c.c ****     /* Set NBYTES to write and reload if hi2c->XferCount > MAX_NBYTE_SIZE and generate RESTART */
 655:Drivers/STM32F3xx_HAL_Driver/Src/stm32f3xx_hal_i2c.c ****     if (hi2c->XferCount > MAX_NBYTE_SIZE)
 484              		.loc 1 655 0
 485 0086 FB68     		ldr	r3, [r7, #12]
 486 0088 5B8D     		ldrh	r3, [r3, #42]	@ movhi
 487 008a 9BB2     		uxth	r3, r3
 488 008c FF2B     		cmp	r3, #255
 489 008e 0FD9     		bls	.L18
 656:Drivers/STM32F3xx_HAL_Driver/Src/stm32f3xx_hal_i2c.c ****     {
 657:Drivers/STM32F3xx_HAL_Driver/Src/stm32f3xx_hal_i2c.c ****       hi2c->XferSize = MAX_NBYTE_SIZE;
 490              		.loc 1 657 0
 491 0090 FB68     		ldr	r3, [r7, #12]
 492 0092 FF22     		movs	r2, #255
 493 0094 1A85     		strh	r2, [r3, #40]	@ movhi
 658:Drivers/STM32F3xx_HAL_Driver/Src/stm32f3xx_hal_i2c.c ****       I2C_TransferConfig(hi2c, DevAddress, hi2c->XferSize, I2C_RELOAD_MODE, I2C_GENERATE_START_WRIT
ARM GAS  /tmp/ccy0jiyr.s 			page 21


 494              		.loc 1 658 0
 495 0096 FB68     		ldr	r3, [r7, #12]
 496 0098 1B8D     		ldrh	r3, [r3, #40]
 497 009a DAB2     		uxtb	r2, r3
 498 009c 7989     		ldrh	r1, [r7, #10]
 499 009e 4FF40053 		mov	r3, #8192
 500 00a2 0093     		str	r3, [sp]
 501 00a4 4FF08073 		mov	r3, #16777216
 502 00a8 F868     		ldr	r0, [r7, #12]
 503 00aa FFF7FEFF 		bl	I2C_TransferConfig
 504 00ae 71E0     		b	.L20
 505              	.L18:
 659:Drivers/STM32F3xx_HAL_Driver/Src/stm32f3xx_hal_i2c.c ****     }
 660:Drivers/STM32F3xx_HAL_Driver/Src/stm32f3xx_hal_i2c.c ****     else
 661:Drivers/STM32F3xx_HAL_Driver/Src/stm32f3xx_hal_i2c.c ****     {
 662:Drivers/STM32F3xx_HAL_Driver/Src/stm32f3xx_hal_i2c.c ****       hi2c->XferSize = hi2c->XferCount;
 506              		.loc 1 662 0
 507 00b0 FB68     		ldr	r3, [r7, #12]
 508 00b2 5B8D     		ldrh	r3, [r3, #42]	@ movhi
 509 00b4 9AB2     		uxth	r2, r3
 510 00b6 FB68     		ldr	r3, [r7, #12]
 511 00b8 1A85     		strh	r2, [r3, #40]	@ movhi
 663:Drivers/STM32F3xx_HAL_Driver/Src/stm32f3xx_hal_i2c.c ****       I2C_TransferConfig(hi2c, DevAddress, hi2c->XferSize, I2C_AUTOEND_MODE, I2C_GENERATE_START_WRI
 512              		.loc 1 663 0
 513 00ba FB68     		ldr	r3, [r7, #12]
 514 00bc 1B8D     		ldrh	r3, [r3, #40]
 515 00be DAB2     		uxtb	r2, r3
 516 00c0 7989     		ldrh	r1, [r7, #10]
 517 00c2 4FF40053 		mov	r3, #8192
 518 00c6 0093     		str	r3, [sp]
 519 00c8 4FF00073 		mov	r3, #33554432
 520 00cc F868     		ldr	r0, [r7, #12]
 521 00ce FFF7FEFF 		bl	I2C_TransferConfig
 664:Drivers/STM32F3xx_HAL_Driver/Src/stm32f3xx_hal_i2c.c ****     }
 665:Drivers/STM32F3xx_HAL_Driver/Src/stm32f3xx_hal_i2c.c **** 
 666:Drivers/STM32F3xx_HAL_Driver/Src/stm32f3xx_hal_i2c.c ****     while (hi2c->XferCount > 0U)
 522              		.loc 1 666 0
 523 00d2 5FE0     		b	.L20
 524              	.L25:
 667:Drivers/STM32F3xx_HAL_Driver/Src/stm32f3xx_hal_i2c.c ****     {
 668:Drivers/STM32F3xx_HAL_Driver/Src/stm32f3xx_hal_i2c.c ****       /* Wait until TXIS flag is set */
 669:Drivers/STM32F3xx_HAL_Driver/Src/stm32f3xx_hal_i2c.c ****       if (I2C_WaitOnTXISFlagUntilTimeout(hi2c, Timeout, tickstart) != HAL_OK)
 525              		.loc 1 669 0
 526 00d4 7A69     		ldr	r2, [r7, #20]
 527 00d6 396A     		ldr	r1, [r7, #32]
 528 00d8 F868     		ldr	r0, [r7, #12]
 529 00da FFF7FEFF 		bl	I2C_WaitOnTXISFlagUntilTimeout
 530 00de 0346     		mov	r3, r0
 531 00e0 002B     		cmp	r3, #0
 532 00e2 07D0     		beq	.L21
 670:Drivers/STM32F3xx_HAL_Driver/Src/stm32f3xx_hal_i2c.c ****       {
 671:Drivers/STM32F3xx_HAL_Driver/Src/stm32f3xx_hal_i2c.c ****         if (hi2c->ErrorCode == HAL_I2C_ERROR_AF)
 533              		.loc 1 671 0
 534 00e4 FB68     		ldr	r3, [r7, #12]
 535 00e6 5B6C     		ldr	r3, [r3, #68]
 536 00e8 042B     		cmp	r3, #4
 537 00ea 01D1     		bne	.L22
ARM GAS  /tmp/ccy0jiyr.s 			page 22


 672:Drivers/STM32F3xx_HAL_Driver/Src/stm32f3xx_hal_i2c.c ****         {
 673:Drivers/STM32F3xx_HAL_Driver/Src/stm32f3xx_hal_i2c.c ****           return HAL_ERROR;
 538              		.loc 1 673 0
 539 00ec 0123     		movs	r3, #1
 540 00ee 81E0     		b	.L16
 541              	.L22:
 674:Drivers/STM32F3xx_HAL_Driver/Src/stm32f3xx_hal_i2c.c ****         }
 675:Drivers/STM32F3xx_HAL_Driver/Src/stm32f3xx_hal_i2c.c ****         else
 676:Drivers/STM32F3xx_HAL_Driver/Src/stm32f3xx_hal_i2c.c ****         {
 677:Drivers/STM32F3xx_HAL_Driver/Src/stm32f3xx_hal_i2c.c ****           return HAL_TIMEOUT;
 542              		.loc 1 677 0
 543 00f0 0323     		movs	r3, #3
 544 00f2 7FE0     		b	.L16
 545              	.L21:
 678:Drivers/STM32F3xx_HAL_Driver/Src/stm32f3xx_hal_i2c.c ****         }
 679:Drivers/STM32F3xx_HAL_Driver/Src/stm32f3xx_hal_i2c.c ****       }
 680:Drivers/STM32F3xx_HAL_Driver/Src/stm32f3xx_hal_i2c.c ****       /* Write data to TXDR */
 681:Drivers/STM32F3xx_HAL_Driver/Src/stm32f3xx_hal_i2c.c ****       hi2c->Instance->TXDR = (*hi2c->pBuffPtr++);
 546              		.loc 1 681 0
 547 00f4 FB68     		ldr	r3, [r7, #12]
 548 00f6 5B6A     		ldr	r3, [r3, #36]
 549 00f8 591C     		adds	r1, r3, #1
 550 00fa FA68     		ldr	r2, [r7, #12]
 551 00fc 5162     		str	r1, [r2, #36]
 552 00fe 1A78     		ldrb	r2, [r3]	@ zero_extendqisi2
 553 0100 FB68     		ldr	r3, [r7, #12]
 554 0102 1B68     		ldr	r3, [r3]
 555 0104 9A62     		str	r2, [r3, #40]
 682:Drivers/STM32F3xx_HAL_Driver/Src/stm32f3xx_hal_i2c.c ****       hi2c->XferCount--;
 556              		.loc 1 682 0
 557 0106 FB68     		ldr	r3, [r7, #12]
 558 0108 5B8D     		ldrh	r3, [r3, #42]	@ movhi
 559 010a 9BB2     		uxth	r3, r3
 560 010c 013B     		subs	r3, r3, #1
 561 010e 9AB2     		uxth	r2, r3
 562 0110 FB68     		ldr	r3, [r7, #12]
 563 0112 5A85     		strh	r2, [r3, #42]	@ movhi
 683:Drivers/STM32F3xx_HAL_Driver/Src/stm32f3xx_hal_i2c.c ****       hi2c->XferSize--;
 564              		.loc 1 683 0
 565 0114 FB68     		ldr	r3, [r7, #12]
 566 0116 1B8D     		ldrh	r3, [r3, #40]
 567 0118 013B     		subs	r3, r3, #1
 568 011a 9AB2     		uxth	r2, r3
 569 011c FB68     		ldr	r3, [r7, #12]
 570 011e 1A85     		strh	r2, [r3, #40]	@ movhi
 684:Drivers/STM32F3xx_HAL_Driver/Src/stm32f3xx_hal_i2c.c **** 
 685:Drivers/STM32F3xx_HAL_Driver/Src/stm32f3xx_hal_i2c.c ****       if ((hi2c->XferSize == 0U) && (hi2c->XferCount != 0U))
 571              		.loc 1 685 0
 572 0120 FB68     		ldr	r3, [r7, #12]
 573 0122 1B8D     		ldrh	r3, [r3, #40]
 574 0124 002B     		cmp	r3, #0
 575 0126 35D1     		bne	.L20
 576              		.loc 1 685 0 is_stmt 0 discriminator 1
 577 0128 FB68     		ldr	r3, [r7, #12]
 578 012a 5B8D     		ldrh	r3, [r3, #42]	@ movhi
 579 012c 9BB2     		uxth	r3, r3
 580 012e 002B     		cmp	r3, #0
ARM GAS  /tmp/ccy0jiyr.s 			page 23


 581 0130 30D0     		beq	.L20
 686:Drivers/STM32F3xx_HAL_Driver/Src/stm32f3xx_hal_i2c.c ****       {
 687:Drivers/STM32F3xx_HAL_Driver/Src/stm32f3xx_hal_i2c.c ****         /* Wait until TCR flag is set */
 688:Drivers/STM32F3xx_HAL_Driver/Src/stm32f3xx_hal_i2c.c ****         if (I2C_WaitOnFlagUntilTimeout(hi2c, I2C_FLAG_TCR, RESET, Timeout, tickstart) != HAL_OK)
 582              		.loc 1 688 0 is_stmt 1
 583 0132 7B69     		ldr	r3, [r7, #20]
 584 0134 0093     		str	r3, [sp]
 585 0136 3B6A     		ldr	r3, [r7, #32]
 586 0138 0022     		movs	r2, #0
 587 013a 8021     		movs	r1, #128
 588 013c F868     		ldr	r0, [r7, #12]
 589 013e FFF7FEFF 		bl	I2C_WaitOnFlagUntilTimeout
 590 0142 0346     		mov	r3, r0
 591 0144 002B     		cmp	r3, #0
 592 0146 01D0     		beq	.L23
 689:Drivers/STM32F3xx_HAL_Driver/Src/stm32f3xx_hal_i2c.c ****         {
 690:Drivers/STM32F3xx_HAL_Driver/Src/stm32f3xx_hal_i2c.c ****           return HAL_TIMEOUT;
 593              		.loc 1 690 0
 594 0148 0323     		movs	r3, #3
 595 014a 53E0     		b	.L16
 596              	.L23:
 691:Drivers/STM32F3xx_HAL_Driver/Src/stm32f3xx_hal_i2c.c ****         }
 692:Drivers/STM32F3xx_HAL_Driver/Src/stm32f3xx_hal_i2c.c **** 
 693:Drivers/STM32F3xx_HAL_Driver/Src/stm32f3xx_hal_i2c.c ****         if (hi2c->XferCount > MAX_NBYTE_SIZE)
 597              		.loc 1 693 0
 598 014c FB68     		ldr	r3, [r7, #12]
 599 014e 5B8D     		ldrh	r3, [r3, #42]	@ movhi
 600 0150 9BB2     		uxth	r3, r3
 601 0152 FF2B     		cmp	r3, #255
 602 0154 0ED9     		bls	.L24
 694:Drivers/STM32F3xx_HAL_Driver/Src/stm32f3xx_hal_i2c.c ****         {
 695:Drivers/STM32F3xx_HAL_Driver/Src/stm32f3xx_hal_i2c.c ****           hi2c->XferSize = MAX_NBYTE_SIZE;
 603              		.loc 1 695 0
 604 0156 FB68     		ldr	r3, [r7, #12]
 605 0158 FF22     		movs	r2, #255
 606 015a 1A85     		strh	r2, [r3, #40]	@ movhi
 696:Drivers/STM32F3xx_HAL_Driver/Src/stm32f3xx_hal_i2c.c ****           I2C_TransferConfig(hi2c, DevAddress, hi2c->XferSize, I2C_RELOAD_MODE, I2C_NO_STARTSTOP);
 607              		.loc 1 696 0
 608 015c FB68     		ldr	r3, [r7, #12]
 609 015e 1B8D     		ldrh	r3, [r3, #40]
 610 0160 DAB2     		uxtb	r2, r3
 611 0162 7989     		ldrh	r1, [r7, #10]
 612 0164 0023     		movs	r3, #0
 613 0166 0093     		str	r3, [sp]
 614 0168 4FF08073 		mov	r3, #16777216
 615 016c F868     		ldr	r0, [r7, #12]
 616 016e FFF7FEFF 		bl	I2C_TransferConfig
 617 0172 0FE0     		b	.L20
 618              	.L24:
 697:Drivers/STM32F3xx_HAL_Driver/Src/stm32f3xx_hal_i2c.c ****         }
 698:Drivers/STM32F3xx_HAL_Driver/Src/stm32f3xx_hal_i2c.c ****         else
 699:Drivers/STM32F3xx_HAL_Driver/Src/stm32f3xx_hal_i2c.c ****         {
 700:Drivers/STM32F3xx_HAL_Driver/Src/stm32f3xx_hal_i2c.c ****           hi2c->XferSize = hi2c->XferCount;
 619              		.loc 1 700 0
 620 0174 FB68     		ldr	r3, [r7, #12]
 621 0176 5B8D     		ldrh	r3, [r3, #42]	@ movhi
 622 0178 9AB2     		uxth	r2, r3
ARM GAS  /tmp/ccy0jiyr.s 			page 24


 623 017a FB68     		ldr	r3, [r7, #12]
 624 017c 1A85     		strh	r2, [r3, #40]	@ movhi
 701:Drivers/STM32F3xx_HAL_Driver/Src/stm32f3xx_hal_i2c.c ****           I2C_TransferConfig(hi2c, DevAddress, hi2c->XferSize, I2C_AUTOEND_MODE, I2C_NO_STARTSTOP);
 625              		.loc 1 701 0
 626 017e FB68     		ldr	r3, [r7, #12]
 627 0180 1B8D     		ldrh	r3, [r3, #40]
 628 0182 DAB2     		uxtb	r2, r3
 629 0184 7989     		ldrh	r1, [r7, #10]
 630 0186 0023     		movs	r3, #0
 631 0188 0093     		str	r3, [sp]
 632 018a 4FF00073 		mov	r3, #33554432
 633 018e F868     		ldr	r0, [r7, #12]
 634 0190 FFF7FEFF 		bl	I2C_TransferConfig
 635              	.L20:
 666:Drivers/STM32F3xx_HAL_Driver/Src/stm32f3xx_hal_i2c.c ****     {
 636              		.loc 1 666 0
 637 0194 FB68     		ldr	r3, [r7, #12]
 638 0196 5B8D     		ldrh	r3, [r3, #42]	@ movhi
 639 0198 9BB2     		uxth	r3, r3
 640 019a 002B     		cmp	r3, #0
 641 019c 9AD1     		bne	.L25
 702:Drivers/STM32F3xx_HAL_Driver/Src/stm32f3xx_hal_i2c.c ****         }
 703:Drivers/STM32F3xx_HAL_Driver/Src/stm32f3xx_hal_i2c.c ****       }
 704:Drivers/STM32F3xx_HAL_Driver/Src/stm32f3xx_hal_i2c.c ****     }
 705:Drivers/STM32F3xx_HAL_Driver/Src/stm32f3xx_hal_i2c.c **** 
 706:Drivers/STM32F3xx_HAL_Driver/Src/stm32f3xx_hal_i2c.c ****     /* No need to Check TC flag, with AUTOEND mode the stop is automatically generated */
 707:Drivers/STM32F3xx_HAL_Driver/Src/stm32f3xx_hal_i2c.c ****     /* Wait until STOPF flag is set */
 708:Drivers/STM32F3xx_HAL_Driver/Src/stm32f3xx_hal_i2c.c ****     if (I2C_WaitOnSTOPFlagUntilTimeout(hi2c, Timeout, tickstart) != HAL_OK)
 642              		.loc 1 708 0
 643 019e 7A69     		ldr	r2, [r7, #20]
 644 01a0 396A     		ldr	r1, [r7, #32]
 645 01a2 F868     		ldr	r0, [r7, #12]
 646 01a4 FFF7FEFF 		bl	I2C_WaitOnSTOPFlagUntilTimeout
 647 01a8 0346     		mov	r3, r0
 648 01aa 002B     		cmp	r3, #0
 649 01ac 07D0     		beq	.L26
 709:Drivers/STM32F3xx_HAL_Driver/Src/stm32f3xx_hal_i2c.c ****     {
 710:Drivers/STM32F3xx_HAL_Driver/Src/stm32f3xx_hal_i2c.c ****       if (hi2c->ErrorCode == HAL_I2C_ERROR_AF)
 650              		.loc 1 710 0
 651 01ae FB68     		ldr	r3, [r7, #12]
 652 01b0 5B6C     		ldr	r3, [r3, #68]
 653 01b2 042B     		cmp	r3, #4
 654 01b4 01D1     		bne	.L27
 711:Drivers/STM32F3xx_HAL_Driver/Src/stm32f3xx_hal_i2c.c ****       {
 712:Drivers/STM32F3xx_HAL_Driver/Src/stm32f3xx_hal_i2c.c ****         return HAL_ERROR;
 655              		.loc 1 712 0
 656 01b6 0123     		movs	r3, #1
 657 01b8 1CE0     		b	.L16
 658              	.L27:
 713:Drivers/STM32F3xx_HAL_Driver/Src/stm32f3xx_hal_i2c.c ****       }
 714:Drivers/STM32F3xx_HAL_Driver/Src/stm32f3xx_hal_i2c.c ****       else
 715:Drivers/STM32F3xx_HAL_Driver/Src/stm32f3xx_hal_i2c.c ****       {
 716:Drivers/STM32F3xx_HAL_Driver/Src/stm32f3xx_hal_i2c.c ****         return HAL_TIMEOUT;
 659              		.loc 1 716 0
 660 01ba 0323     		movs	r3, #3
 661 01bc 1AE0     		b	.L16
 662              	.L26:
ARM GAS  /tmp/ccy0jiyr.s 			page 25


 717:Drivers/STM32F3xx_HAL_Driver/Src/stm32f3xx_hal_i2c.c ****       }
 718:Drivers/STM32F3xx_HAL_Driver/Src/stm32f3xx_hal_i2c.c ****     }
 719:Drivers/STM32F3xx_HAL_Driver/Src/stm32f3xx_hal_i2c.c **** 
 720:Drivers/STM32F3xx_HAL_Driver/Src/stm32f3xx_hal_i2c.c ****     /* Clear STOP Flag */
 721:Drivers/STM32F3xx_HAL_Driver/Src/stm32f3xx_hal_i2c.c ****     __HAL_I2C_CLEAR_FLAG(hi2c, I2C_FLAG_STOPF);
 663              		.loc 1 721 0
 664 01be FB68     		ldr	r3, [r7, #12]
 665 01c0 1B68     		ldr	r3, [r3]
 666 01c2 2022     		movs	r2, #32
 667 01c4 DA61     		str	r2, [r3, #28]
 722:Drivers/STM32F3xx_HAL_Driver/Src/stm32f3xx_hal_i2c.c **** 
 723:Drivers/STM32F3xx_HAL_Driver/Src/stm32f3xx_hal_i2c.c ****     /* Clear Configuration Register 2 */
 724:Drivers/STM32F3xx_HAL_Driver/Src/stm32f3xx_hal_i2c.c ****     I2C_RESET_CR2(hi2c);
 668              		.loc 1 724 0
 669 01c6 FB68     		ldr	r3, [r7, #12]
 670 01c8 1B68     		ldr	r3, [r3]
 671 01ca 5968     		ldr	r1, [r3, #4]
 672 01cc FB68     		ldr	r3, [r7, #12]
 673 01ce 1A68     		ldr	r2, [r3]
 674 01d0 0A4B     		ldr	r3, .L28
 675 01d2 0B40     		ands	r3, r3, r1
 676 01d4 5360     		str	r3, [r2, #4]
 725:Drivers/STM32F3xx_HAL_Driver/Src/stm32f3xx_hal_i2c.c **** 
 726:Drivers/STM32F3xx_HAL_Driver/Src/stm32f3xx_hal_i2c.c ****     hi2c->State = HAL_I2C_STATE_READY;
 677              		.loc 1 726 0
 678 01d6 FB68     		ldr	r3, [r7, #12]
 679 01d8 2022     		movs	r2, #32
 680 01da 83F84120 		strb	r2, [r3, #65]
 727:Drivers/STM32F3xx_HAL_Driver/Src/stm32f3xx_hal_i2c.c ****     hi2c->Mode  = HAL_I2C_MODE_NONE;
 681              		.loc 1 727 0
 682 01de FB68     		ldr	r3, [r7, #12]
 683 01e0 0022     		movs	r2, #0
 684 01e2 83F84220 		strb	r2, [r3, #66]
 728:Drivers/STM32F3xx_HAL_Driver/Src/stm32f3xx_hal_i2c.c **** 
 729:Drivers/STM32F3xx_HAL_Driver/Src/stm32f3xx_hal_i2c.c ****     /* Process Unlocked */
 730:Drivers/STM32F3xx_HAL_Driver/Src/stm32f3xx_hal_i2c.c ****     __HAL_UNLOCK(hi2c);
 685              		.loc 1 730 0
 686 01e6 FB68     		ldr	r3, [r7, #12]
 687 01e8 0022     		movs	r2, #0
 688 01ea 83F84020 		strb	r2, [r3, #64]
 731:Drivers/STM32F3xx_HAL_Driver/Src/stm32f3xx_hal_i2c.c **** 
 732:Drivers/STM32F3xx_HAL_Driver/Src/stm32f3xx_hal_i2c.c ****     return HAL_OK;
 689              		.loc 1 732 0
 690 01ee 0023     		movs	r3, #0
 691 01f0 00E0     		b	.L16
 692              	.L14:
 733:Drivers/STM32F3xx_HAL_Driver/Src/stm32f3xx_hal_i2c.c ****   }
 734:Drivers/STM32F3xx_HAL_Driver/Src/stm32f3xx_hal_i2c.c ****   else
 735:Drivers/STM32F3xx_HAL_Driver/Src/stm32f3xx_hal_i2c.c ****   {
 736:Drivers/STM32F3xx_HAL_Driver/Src/stm32f3xx_hal_i2c.c ****     return HAL_BUSY;
 693              		.loc 1 736 0
 694 01f2 0223     		movs	r3, #2
 695              	.L16:
 737:Drivers/STM32F3xx_HAL_Driver/Src/stm32f3xx_hal_i2c.c ****   }
 738:Drivers/STM32F3xx_HAL_Driver/Src/stm32f3xx_hal_i2c.c **** }
 696              		.loc 1 738 0
 697 01f4 1846     		mov	r0, r3
ARM GAS  /tmp/ccy0jiyr.s 			page 26


 698 01f6 1837     		adds	r7, r7, #24
 699              	.LCFI25:
 700              		.cfi_def_cfa_offset 8
 701 01f8 BD46     		mov	sp, r7
 702              	.LCFI26:
 703              		.cfi_def_cfa_register 13
 704              		@ sp needed
 705 01fa 80BD     		pop	{r7, pc}
 706              	.L29:
 707              		.align	2
 708              	.L28:
 709 01fc 00E800FE 		.word	-33495040
 710              		.cfi_endproc
 711              	.LFE699:
 713              		.section	.text.HAL_I2C_Master_Receive,"ax",%progbits
 714              		.align	1
 715              		.global	HAL_I2C_Master_Receive
 716              		.syntax unified
 717              		.thumb
 718              		.thumb_func
 719              		.fpu fpv4-sp-d16
 721              	HAL_I2C_Master_Receive:
 722              	.LFB700:
 739:Drivers/STM32F3xx_HAL_Driver/Src/stm32f3xx_hal_i2c.c **** 
 740:Drivers/STM32F3xx_HAL_Driver/Src/stm32f3xx_hal_i2c.c **** /**
 741:Drivers/STM32F3xx_HAL_Driver/Src/stm32f3xx_hal_i2c.c ****   * @brief  Receives in master mode an amount of data in blocking mode.
 742:Drivers/STM32F3xx_HAL_Driver/Src/stm32f3xx_hal_i2c.c ****   * @param  hi2c Pointer to a I2C_HandleTypeDef structure that contains
 743:Drivers/STM32F3xx_HAL_Driver/Src/stm32f3xx_hal_i2c.c ****   *                the configuration information for the specified I2C.
 744:Drivers/STM32F3xx_HAL_Driver/Src/stm32f3xx_hal_i2c.c ****   * @param  DevAddress Target device address: The device 7 bits address value
 745:Drivers/STM32F3xx_HAL_Driver/Src/stm32f3xx_hal_i2c.c ****   *         in datasheet must be shift at right before call interface
 746:Drivers/STM32F3xx_HAL_Driver/Src/stm32f3xx_hal_i2c.c ****   * @param  pData Pointer to data buffer
 747:Drivers/STM32F3xx_HAL_Driver/Src/stm32f3xx_hal_i2c.c ****   * @param  Size Amount of data to be sent
 748:Drivers/STM32F3xx_HAL_Driver/Src/stm32f3xx_hal_i2c.c ****   * @param  Timeout Timeout duration
 749:Drivers/STM32F3xx_HAL_Driver/Src/stm32f3xx_hal_i2c.c ****   * @retval HAL status
 750:Drivers/STM32F3xx_HAL_Driver/Src/stm32f3xx_hal_i2c.c ****   */
 751:Drivers/STM32F3xx_HAL_Driver/Src/stm32f3xx_hal_i2c.c **** HAL_StatusTypeDef HAL_I2C_Master_Receive(I2C_HandleTypeDef *hi2c, uint16_t DevAddress, uint8_t *pDa
 752:Drivers/STM32F3xx_HAL_Driver/Src/stm32f3xx_hal_i2c.c **** {
 723              		.loc 1 752 0
 724              		.cfi_startproc
 725              		@ args = 4, pretend = 0, frame = 24
 726              		@ frame_needed = 1, uses_anonymous_args = 0
 727 0000 80B5     		push	{r7, lr}
 728              	.LCFI27:
 729              		.cfi_def_cfa_offset 8
 730              		.cfi_offset 7, -8
 731              		.cfi_offset 14, -4
 732 0002 88B0     		sub	sp, sp, #32
 733              	.LCFI28:
 734              		.cfi_def_cfa_offset 40
 735 0004 02AF     		add	r7, sp, #8
 736              	.LCFI29:
 737              		.cfi_def_cfa 7, 32
 738 0006 F860     		str	r0, [r7, #12]
 739 0008 7A60     		str	r2, [r7, #4]
 740 000a 1A46     		mov	r2, r3
 741 000c 0B46     		mov	r3, r1	@ movhi
 742 000e 7B81     		strh	r3, [r7, #10]	@ movhi
ARM GAS  /tmp/ccy0jiyr.s 			page 27


 743 0010 1346     		mov	r3, r2	@ movhi
 744 0012 3B81     		strh	r3, [r7, #8]	@ movhi
 753:Drivers/STM32F3xx_HAL_Driver/Src/stm32f3xx_hal_i2c.c ****   uint32_t tickstart = 0U;
 745              		.loc 1 753 0
 746 0014 0023     		movs	r3, #0
 747 0016 7B61     		str	r3, [r7, #20]
 754:Drivers/STM32F3xx_HAL_Driver/Src/stm32f3xx_hal_i2c.c **** 
 755:Drivers/STM32F3xx_HAL_Driver/Src/stm32f3xx_hal_i2c.c ****   if (hi2c->State == HAL_I2C_STATE_READY)
 748              		.loc 1 755 0
 749 0018 FB68     		ldr	r3, [r7, #12]
 750 001a 93F84130 		ldrb	r3, [r3, #65]
 751 001e DBB2     		uxtb	r3, r3
 752 0020 202B     		cmp	r3, #32
 753 0022 40F0E780 		bne	.L31
 756:Drivers/STM32F3xx_HAL_Driver/Src/stm32f3xx_hal_i2c.c ****   {
 757:Drivers/STM32F3xx_HAL_Driver/Src/stm32f3xx_hal_i2c.c ****     /* Process Locked */
 758:Drivers/STM32F3xx_HAL_Driver/Src/stm32f3xx_hal_i2c.c ****     __HAL_LOCK(hi2c);
 754              		.loc 1 758 0
 755 0026 FB68     		ldr	r3, [r7, #12]
 756 0028 93F84030 		ldrb	r3, [r3, #64]	@ zero_extendqisi2
 757 002c 012B     		cmp	r3, #1
 758 002e 01D1     		bne	.L32
 759              		.loc 1 758 0 is_stmt 0 discriminator 1
 760 0030 0223     		movs	r3, #2
 761 0032 E0E0     		b	.L33
 762              	.L32:
 763              		.loc 1 758 0 discriminator 2
 764 0034 FB68     		ldr	r3, [r7, #12]
 765 0036 0122     		movs	r2, #1
 766 0038 83F84020 		strb	r2, [r3, #64]
 759:Drivers/STM32F3xx_HAL_Driver/Src/stm32f3xx_hal_i2c.c **** 
 760:Drivers/STM32F3xx_HAL_Driver/Src/stm32f3xx_hal_i2c.c ****     /* Init tickstart for timeout management*/
 761:Drivers/STM32F3xx_HAL_Driver/Src/stm32f3xx_hal_i2c.c ****     tickstart = HAL_GetTick();
 767              		.loc 1 761 0 is_stmt 1 discriminator 2
 768 003c FFF7FEFF 		bl	HAL_GetTick
 769 0040 7861     		str	r0, [r7, #20]
 762:Drivers/STM32F3xx_HAL_Driver/Src/stm32f3xx_hal_i2c.c **** 
 763:Drivers/STM32F3xx_HAL_Driver/Src/stm32f3xx_hal_i2c.c ****     if (I2C_WaitOnFlagUntilTimeout(hi2c, I2C_FLAG_BUSY, SET, I2C_TIMEOUT_BUSY, tickstart) != HAL_OK
 770              		.loc 1 763 0 discriminator 2
 771 0042 7B69     		ldr	r3, [r7, #20]
 772 0044 0093     		str	r3, [sp]
 773 0046 1923     		movs	r3, #25
 774 0048 0122     		movs	r2, #1
 775 004a 4FF40041 		mov	r1, #32768
 776 004e F868     		ldr	r0, [r7, #12]
 777 0050 FFF7FEFF 		bl	I2C_WaitOnFlagUntilTimeout
 778 0054 0346     		mov	r3, r0
 779 0056 002B     		cmp	r3, #0
 780 0058 01D0     		beq	.L34
 764:Drivers/STM32F3xx_HAL_Driver/Src/stm32f3xx_hal_i2c.c ****     {
 765:Drivers/STM32F3xx_HAL_Driver/Src/stm32f3xx_hal_i2c.c ****       return HAL_TIMEOUT;
 781              		.loc 1 765 0
 782 005a 0323     		movs	r3, #3
 783 005c CBE0     		b	.L33
 784              	.L34:
 766:Drivers/STM32F3xx_HAL_Driver/Src/stm32f3xx_hal_i2c.c ****     }
 767:Drivers/STM32F3xx_HAL_Driver/Src/stm32f3xx_hal_i2c.c **** 
ARM GAS  /tmp/ccy0jiyr.s 			page 28


 768:Drivers/STM32F3xx_HAL_Driver/Src/stm32f3xx_hal_i2c.c ****     hi2c->State     = HAL_I2C_STATE_BUSY_RX;
 785              		.loc 1 768 0
 786 005e FB68     		ldr	r3, [r7, #12]
 787 0060 2222     		movs	r2, #34
 788 0062 83F84120 		strb	r2, [r3, #65]
 769:Drivers/STM32F3xx_HAL_Driver/Src/stm32f3xx_hal_i2c.c ****     hi2c->Mode      = HAL_I2C_MODE_MASTER;
 789              		.loc 1 769 0
 790 0066 FB68     		ldr	r3, [r7, #12]
 791 0068 1022     		movs	r2, #16
 792 006a 83F84220 		strb	r2, [r3, #66]
 770:Drivers/STM32F3xx_HAL_Driver/Src/stm32f3xx_hal_i2c.c ****     hi2c->ErrorCode = HAL_I2C_ERROR_NONE;
 793              		.loc 1 770 0
 794 006e FB68     		ldr	r3, [r7, #12]
 795 0070 0022     		movs	r2, #0
 796 0072 5A64     		str	r2, [r3, #68]
 771:Drivers/STM32F3xx_HAL_Driver/Src/stm32f3xx_hal_i2c.c **** 
 772:Drivers/STM32F3xx_HAL_Driver/Src/stm32f3xx_hal_i2c.c ****     /* Prepare transfer parameters */
 773:Drivers/STM32F3xx_HAL_Driver/Src/stm32f3xx_hal_i2c.c ****     hi2c->pBuffPtr  = pData;
 797              		.loc 1 773 0
 798 0074 FB68     		ldr	r3, [r7, #12]
 799 0076 7A68     		ldr	r2, [r7, #4]
 800 0078 5A62     		str	r2, [r3, #36]
 774:Drivers/STM32F3xx_HAL_Driver/Src/stm32f3xx_hal_i2c.c ****     hi2c->XferCount = Size;
 801              		.loc 1 774 0
 802 007a FB68     		ldr	r3, [r7, #12]
 803 007c 3A89     		ldrh	r2, [r7, #8]	@ movhi
 804 007e 5A85     		strh	r2, [r3, #42]	@ movhi
 775:Drivers/STM32F3xx_HAL_Driver/Src/stm32f3xx_hal_i2c.c ****     hi2c->XferISR   = NULL;
 805              		.loc 1 775 0
 806 0080 FB68     		ldr	r3, [r7, #12]
 807 0082 0022     		movs	r2, #0
 808 0084 5A63     		str	r2, [r3, #52]
 776:Drivers/STM32F3xx_HAL_Driver/Src/stm32f3xx_hal_i2c.c **** 
 777:Drivers/STM32F3xx_HAL_Driver/Src/stm32f3xx_hal_i2c.c ****     /* Send Slave Address */
 778:Drivers/STM32F3xx_HAL_Driver/Src/stm32f3xx_hal_i2c.c ****     /* Set NBYTES to write and reload if hi2c->XferCount > MAX_NBYTE_SIZE and generate RESTART */
 779:Drivers/STM32F3xx_HAL_Driver/Src/stm32f3xx_hal_i2c.c ****     if (hi2c->XferCount > MAX_NBYTE_SIZE)
 809              		.loc 1 779 0
 810 0086 FB68     		ldr	r3, [r7, #12]
 811 0088 5B8D     		ldrh	r3, [r3, #42]	@ movhi
 812 008a 9BB2     		uxth	r3, r3
 813 008c FF2B     		cmp	r3, #255
 814 008e 0FD9     		bls	.L35
 780:Drivers/STM32F3xx_HAL_Driver/Src/stm32f3xx_hal_i2c.c ****     {
 781:Drivers/STM32F3xx_HAL_Driver/Src/stm32f3xx_hal_i2c.c ****       hi2c->XferSize = MAX_NBYTE_SIZE;
 815              		.loc 1 781 0
 816 0090 FB68     		ldr	r3, [r7, #12]
 817 0092 FF22     		movs	r2, #255
 818 0094 1A85     		strh	r2, [r3, #40]	@ movhi
 782:Drivers/STM32F3xx_HAL_Driver/Src/stm32f3xx_hal_i2c.c ****       I2C_TransferConfig(hi2c, DevAddress, hi2c->XferSize, I2C_RELOAD_MODE, I2C_GENERATE_START_READ
 819              		.loc 1 782 0
 820 0096 FB68     		ldr	r3, [r7, #12]
 821 0098 1B8D     		ldrh	r3, [r3, #40]
 822 009a DAB2     		uxtb	r2, r3
 823 009c 7989     		ldrh	r1, [r7, #10]
 824 009e 4FF41053 		mov	r3, #9216
 825 00a2 0093     		str	r3, [sp]
 826 00a4 4FF08073 		mov	r3, #16777216
ARM GAS  /tmp/ccy0jiyr.s 			page 29


 827 00a8 F868     		ldr	r0, [r7, #12]
 828 00aa FFF7FEFF 		bl	I2C_TransferConfig
 829 00ae 72E0     		b	.L37
 830              	.L35:
 783:Drivers/STM32F3xx_HAL_Driver/Src/stm32f3xx_hal_i2c.c ****     }
 784:Drivers/STM32F3xx_HAL_Driver/Src/stm32f3xx_hal_i2c.c ****     else
 785:Drivers/STM32F3xx_HAL_Driver/Src/stm32f3xx_hal_i2c.c ****     {
 786:Drivers/STM32F3xx_HAL_Driver/Src/stm32f3xx_hal_i2c.c ****       hi2c->XferSize = hi2c->XferCount;
 831              		.loc 1 786 0
 832 00b0 FB68     		ldr	r3, [r7, #12]
 833 00b2 5B8D     		ldrh	r3, [r3, #42]	@ movhi
 834 00b4 9AB2     		uxth	r2, r3
 835 00b6 FB68     		ldr	r3, [r7, #12]
 836 00b8 1A85     		strh	r2, [r3, #40]	@ movhi
 787:Drivers/STM32F3xx_HAL_Driver/Src/stm32f3xx_hal_i2c.c ****       I2C_TransferConfig(hi2c, DevAddress, hi2c->XferSize, I2C_AUTOEND_MODE, I2C_GENERATE_START_REA
 837              		.loc 1 787 0
 838 00ba FB68     		ldr	r3, [r7, #12]
 839 00bc 1B8D     		ldrh	r3, [r3, #40]
 840 00be DAB2     		uxtb	r2, r3
 841 00c0 7989     		ldrh	r1, [r7, #10]
 842 00c2 4FF41053 		mov	r3, #9216
 843 00c6 0093     		str	r3, [sp]
 844 00c8 4FF00073 		mov	r3, #33554432
 845 00cc F868     		ldr	r0, [r7, #12]
 846 00ce FFF7FEFF 		bl	I2C_TransferConfig
 788:Drivers/STM32F3xx_HAL_Driver/Src/stm32f3xx_hal_i2c.c ****     }
 789:Drivers/STM32F3xx_HAL_Driver/Src/stm32f3xx_hal_i2c.c **** 
 790:Drivers/STM32F3xx_HAL_Driver/Src/stm32f3xx_hal_i2c.c ****     while (hi2c->XferCount > 0U)
 847              		.loc 1 790 0
 848 00d2 60E0     		b	.L37
 849              	.L42:
 791:Drivers/STM32F3xx_HAL_Driver/Src/stm32f3xx_hal_i2c.c ****     {
 792:Drivers/STM32F3xx_HAL_Driver/Src/stm32f3xx_hal_i2c.c ****       /* Wait until RXNE flag is set */
 793:Drivers/STM32F3xx_HAL_Driver/Src/stm32f3xx_hal_i2c.c ****       if (I2C_WaitOnRXNEFlagUntilTimeout(hi2c, Timeout, tickstart) != HAL_OK)
 850              		.loc 1 793 0
 851 00d4 7A69     		ldr	r2, [r7, #20]
 852 00d6 396A     		ldr	r1, [r7, #32]
 853 00d8 F868     		ldr	r0, [r7, #12]
 854 00da FFF7FEFF 		bl	I2C_WaitOnRXNEFlagUntilTimeout
 855 00de 0346     		mov	r3, r0
 856 00e0 002B     		cmp	r3, #0
 857 00e2 07D0     		beq	.L38
 794:Drivers/STM32F3xx_HAL_Driver/Src/stm32f3xx_hal_i2c.c ****       {
 795:Drivers/STM32F3xx_HAL_Driver/Src/stm32f3xx_hal_i2c.c ****         if (hi2c->ErrorCode == HAL_I2C_ERROR_AF)
 858              		.loc 1 795 0
 859 00e4 FB68     		ldr	r3, [r7, #12]
 860 00e6 5B6C     		ldr	r3, [r3, #68]
 861 00e8 042B     		cmp	r3, #4
 862 00ea 01D1     		bne	.L39
 796:Drivers/STM32F3xx_HAL_Driver/Src/stm32f3xx_hal_i2c.c ****         {
 797:Drivers/STM32F3xx_HAL_Driver/Src/stm32f3xx_hal_i2c.c ****           return HAL_ERROR;
 863              		.loc 1 797 0
 864 00ec 0123     		movs	r3, #1
 865 00ee 82E0     		b	.L33
 866              	.L39:
 798:Drivers/STM32F3xx_HAL_Driver/Src/stm32f3xx_hal_i2c.c ****         }
 799:Drivers/STM32F3xx_HAL_Driver/Src/stm32f3xx_hal_i2c.c ****         else
ARM GAS  /tmp/ccy0jiyr.s 			page 30


 800:Drivers/STM32F3xx_HAL_Driver/Src/stm32f3xx_hal_i2c.c ****         {
 801:Drivers/STM32F3xx_HAL_Driver/Src/stm32f3xx_hal_i2c.c ****           return HAL_TIMEOUT;
 867              		.loc 1 801 0
 868 00f0 0323     		movs	r3, #3
 869 00f2 80E0     		b	.L33
 870              	.L38:
 802:Drivers/STM32F3xx_HAL_Driver/Src/stm32f3xx_hal_i2c.c ****         }
 803:Drivers/STM32F3xx_HAL_Driver/Src/stm32f3xx_hal_i2c.c ****       }
 804:Drivers/STM32F3xx_HAL_Driver/Src/stm32f3xx_hal_i2c.c **** 
 805:Drivers/STM32F3xx_HAL_Driver/Src/stm32f3xx_hal_i2c.c ****       /* Read data from RXDR */
 806:Drivers/STM32F3xx_HAL_Driver/Src/stm32f3xx_hal_i2c.c ****       (*hi2c->pBuffPtr++) = hi2c->Instance->RXDR;
 871              		.loc 1 806 0
 872 00f4 FB68     		ldr	r3, [r7, #12]
 873 00f6 1B68     		ldr	r3, [r3]
 874 00f8 586A     		ldr	r0, [r3, #36]
 875 00fa FB68     		ldr	r3, [r7, #12]
 876 00fc 5B6A     		ldr	r3, [r3, #36]
 877 00fe 591C     		adds	r1, r3, #1
 878 0100 FA68     		ldr	r2, [r7, #12]
 879 0102 5162     		str	r1, [r2, #36]
 880 0104 C2B2     		uxtb	r2, r0
 881 0106 1A70     		strb	r2, [r3]
 807:Drivers/STM32F3xx_HAL_Driver/Src/stm32f3xx_hal_i2c.c ****       hi2c->XferSize--;
 882              		.loc 1 807 0
 883 0108 FB68     		ldr	r3, [r7, #12]
 884 010a 1B8D     		ldrh	r3, [r3, #40]
 885 010c 013B     		subs	r3, r3, #1
 886 010e 9AB2     		uxth	r2, r3
 887 0110 FB68     		ldr	r3, [r7, #12]
 888 0112 1A85     		strh	r2, [r3, #40]	@ movhi
 808:Drivers/STM32F3xx_HAL_Driver/Src/stm32f3xx_hal_i2c.c ****       hi2c->XferCount--;
 889              		.loc 1 808 0
 890 0114 FB68     		ldr	r3, [r7, #12]
 891 0116 5B8D     		ldrh	r3, [r3, #42]	@ movhi
 892 0118 9BB2     		uxth	r3, r3
 893 011a 013B     		subs	r3, r3, #1
 894 011c 9AB2     		uxth	r2, r3
 895 011e FB68     		ldr	r3, [r7, #12]
 896 0120 5A85     		strh	r2, [r3, #42]	@ movhi
 809:Drivers/STM32F3xx_HAL_Driver/Src/stm32f3xx_hal_i2c.c **** 
 810:Drivers/STM32F3xx_HAL_Driver/Src/stm32f3xx_hal_i2c.c ****       if ((hi2c->XferSize == 0U) && (hi2c->XferCount != 0U))
 897              		.loc 1 810 0
 898 0122 FB68     		ldr	r3, [r7, #12]
 899 0124 1B8D     		ldrh	r3, [r3, #40]
 900 0126 002B     		cmp	r3, #0
 901 0128 35D1     		bne	.L37
 902              		.loc 1 810 0 is_stmt 0 discriminator 1
 903 012a FB68     		ldr	r3, [r7, #12]
 904 012c 5B8D     		ldrh	r3, [r3, #42]	@ movhi
 905 012e 9BB2     		uxth	r3, r3
 906 0130 002B     		cmp	r3, #0
 907 0132 30D0     		beq	.L37
 811:Drivers/STM32F3xx_HAL_Driver/Src/stm32f3xx_hal_i2c.c ****       {
 812:Drivers/STM32F3xx_HAL_Driver/Src/stm32f3xx_hal_i2c.c ****         /* Wait until TCR flag is set */
 813:Drivers/STM32F3xx_HAL_Driver/Src/stm32f3xx_hal_i2c.c ****         if (I2C_WaitOnFlagUntilTimeout(hi2c, I2C_FLAG_TCR, RESET, Timeout, tickstart) != HAL_OK)
 908              		.loc 1 813 0 is_stmt 1
 909 0134 7B69     		ldr	r3, [r7, #20]
ARM GAS  /tmp/ccy0jiyr.s 			page 31


 910 0136 0093     		str	r3, [sp]
 911 0138 3B6A     		ldr	r3, [r7, #32]
 912 013a 0022     		movs	r2, #0
 913 013c 8021     		movs	r1, #128
 914 013e F868     		ldr	r0, [r7, #12]
 915 0140 FFF7FEFF 		bl	I2C_WaitOnFlagUntilTimeout
 916 0144 0346     		mov	r3, r0
 917 0146 002B     		cmp	r3, #0
 918 0148 01D0     		beq	.L40
 814:Drivers/STM32F3xx_HAL_Driver/Src/stm32f3xx_hal_i2c.c ****         {
 815:Drivers/STM32F3xx_HAL_Driver/Src/stm32f3xx_hal_i2c.c ****           return HAL_TIMEOUT;
 919              		.loc 1 815 0
 920 014a 0323     		movs	r3, #3
 921 014c 53E0     		b	.L33
 922              	.L40:
 816:Drivers/STM32F3xx_HAL_Driver/Src/stm32f3xx_hal_i2c.c ****         }
 817:Drivers/STM32F3xx_HAL_Driver/Src/stm32f3xx_hal_i2c.c **** 
 818:Drivers/STM32F3xx_HAL_Driver/Src/stm32f3xx_hal_i2c.c ****         if (hi2c->XferCount > MAX_NBYTE_SIZE)
 923              		.loc 1 818 0
 924 014e FB68     		ldr	r3, [r7, #12]
 925 0150 5B8D     		ldrh	r3, [r3, #42]	@ movhi
 926 0152 9BB2     		uxth	r3, r3
 927 0154 FF2B     		cmp	r3, #255
 928 0156 0ED9     		bls	.L41
 819:Drivers/STM32F3xx_HAL_Driver/Src/stm32f3xx_hal_i2c.c ****         {
 820:Drivers/STM32F3xx_HAL_Driver/Src/stm32f3xx_hal_i2c.c ****           hi2c->XferSize = MAX_NBYTE_SIZE;
 929              		.loc 1 820 0
 930 0158 FB68     		ldr	r3, [r7, #12]
 931 015a FF22     		movs	r2, #255
 932 015c 1A85     		strh	r2, [r3, #40]	@ movhi
 821:Drivers/STM32F3xx_HAL_Driver/Src/stm32f3xx_hal_i2c.c ****           I2C_TransferConfig(hi2c, DevAddress, hi2c->XferSize, I2C_RELOAD_MODE, I2C_NO_STARTSTOP);
 933              		.loc 1 821 0
 934 015e FB68     		ldr	r3, [r7, #12]
 935 0160 1B8D     		ldrh	r3, [r3, #40]
 936 0162 DAB2     		uxtb	r2, r3
 937 0164 7989     		ldrh	r1, [r7, #10]
 938 0166 0023     		movs	r3, #0
 939 0168 0093     		str	r3, [sp]
 940 016a 4FF08073 		mov	r3, #16777216
 941 016e F868     		ldr	r0, [r7, #12]
 942 0170 FFF7FEFF 		bl	I2C_TransferConfig
 943 0174 0FE0     		b	.L37
 944              	.L41:
 822:Drivers/STM32F3xx_HAL_Driver/Src/stm32f3xx_hal_i2c.c ****         }
 823:Drivers/STM32F3xx_HAL_Driver/Src/stm32f3xx_hal_i2c.c ****         else
 824:Drivers/STM32F3xx_HAL_Driver/Src/stm32f3xx_hal_i2c.c ****         {
 825:Drivers/STM32F3xx_HAL_Driver/Src/stm32f3xx_hal_i2c.c ****           hi2c->XferSize = hi2c->XferCount;
 945              		.loc 1 825 0
 946 0176 FB68     		ldr	r3, [r7, #12]
 947 0178 5B8D     		ldrh	r3, [r3, #42]	@ movhi
 948 017a 9AB2     		uxth	r2, r3
 949 017c FB68     		ldr	r3, [r7, #12]
 950 017e 1A85     		strh	r2, [r3, #40]	@ movhi
 826:Drivers/STM32F3xx_HAL_Driver/Src/stm32f3xx_hal_i2c.c ****           I2C_TransferConfig(hi2c, DevAddress, hi2c->XferSize, I2C_AUTOEND_MODE, I2C_NO_STARTSTOP);
 951              		.loc 1 826 0
 952 0180 FB68     		ldr	r3, [r7, #12]
 953 0182 1B8D     		ldrh	r3, [r3, #40]
ARM GAS  /tmp/ccy0jiyr.s 			page 32


 954 0184 DAB2     		uxtb	r2, r3
 955 0186 7989     		ldrh	r1, [r7, #10]
 956 0188 0023     		movs	r3, #0
 957 018a 0093     		str	r3, [sp]
 958 018c 4FF00073 		mov	r3, #33554432
 959 0190 F868     		ldr	r0, [r7, #12]
 960 0192 FFF7FEFF 		bl	I2C_TransferConfig
 961              	.L37:
 790:Drivers/STM32F3xx_HAL_Driver/Src/stm32f3xx_hal_i2c.c ****     {
 962              		.loc 1 790 0
 963 0196 FB68     		ldr	r3, [r7, #12]
 964 0198 5B8D     		ldrh	r3, [r3, #42]	@ movhi
 965 019a 9BB2     		uxth	r3, r3
 966 019c 002B     		cmp	r3, #0
 967 019e 99D1     		bne	.L42
 827:Drivers/STM32F3xx_HAL_Driver/Src/stm32f3xx_hal_i2c.c ****         }
 828:Drivers/STM32F3xx_HAL_Driver/Src/stm32f3xx_hal_i2c.c ****       }
 829:Drivers/STM32F3xx_HAL_Driver/Src/stm32f3xx_hal_i2c.c ****     }
 830:Drivers/STM32F3xx_HAL_Driver/Src/stm32f3xx_hal_i2c.c **** 
 831:Drivers/STM32F3xx_HAL_Driver/Src/stm32f3xx_hal_i2c.c ****     /* No need to Check TC flag, with AUTOEND mode the stop is automatically generated */
 832:Drivers/STM32F3xx_HAL_Driver/Src/stm32f3xx_hal_i2c.c ****     /* Wait until STOPF flag is set */
 833:Drivers/STM32F3xx_HAL_Driver/Src/stm32f3xx_hal_i2c.c ****     if (I2C_WaitOnSTOPFlagUntilTimeout(hi2c, Timeout, tickstart) != HAL_OK)
 968              		.loc 1 833 0
 969 01a0 7A69     		ldr	r2, [r7, #20]
 970 01a2 396A     		ldr	r1, [r7, #32]
 971 01a4 F868     		ldr	r0, [r7, #12]
 972 01a6 FFF7FEFF 		bl	I2C_WaitOnSTOPFlagUntilTimeout
 973 01aa 0346     		mov	r3, r0
 974 01ac 002B     		cmp	r3, #0
 975 01ae 07D0     		beq	.L43
 834:Drivers/STM32F3xx_HAL_Driver/Src/stm32f3xx_hal_i2c.c ****     {
 835:Drivers/STM32F3xx_HAL_Driver/Src/stm32f3xx_hal_i2c.c ****       if (hi2c->ErrorCode == HAL_I2C_ERROR_AF)
 976              		.loc 1 835 0
 977 01b0 FB68     		ldr	r3, [r7, #12]
 978 01b2 5B6C     		ldr	r3, [r3, #68]
 979 01b4 042B     		cmp	r3, #4
 980 01b6 01D1     		bne	.L44
 836:Drivers/STM32F3xx_HAL_Driver/Src/stm32f3xx_hal_i2c.c ****       {
 837:Drivers/STM32F3xx_HAL_Driver/Src/stm32f3xx_hal_i2c.c ****         return HAL_ERROR;
 981              		.loc 1 837 0
 982 01b8 0123     		movs	r3, #1
 983 01ba 1CE0     		b	.L33
 984              	.L44:
 838:Drivers/STM32F3xx_HAL_Driver/Src/stm32f3xx_hal_i2c.c ****       }
 839:Drivers/STM32F3xx_HAL_Driver/Src/stm32f3xx_hal_i2c.c ****       else
 840:Drivers/STM32F3xx_HAL_Driver/Src/stm32f3xx_hal_i2c.c ****       {
 841:Drivers/STM32F3xx_HAL_Driver/Src/stm32f3xx_hal_i2c.c ****         return HAL_TIMEOUT;
 985              		.loc 1 841 0
 986 01bc 0323     		movs	r3, #3
 987 01be 1AE0     		b	.L33
 988              	.L43:
 842:Drivers/STM32F3xx_HAL_Driver/Src/stm32f3xx_hal_i2c.c ****       }
 843:Drivers/STM32F3xx_HAL_Driver/Src/stm32f3xx_hal_i2c.c ****     }
 844:Drivers/STM32F3xx_HAL_Driver/Src/stm32f3xx_hal_i2c.c **** 
 845:Drivers/STM32F3xx_HAL_Driver/Src/stm32f3xx_hal_i2c.c ****     /* Clear STOP Flag */
 846:Drivers/STM32F3xx_HAL_Driver/Src/stm32f3xx_hal_i2c.c ****     __HAL_I2C_CLEAR_FLAG(hi2c, I2C_FLAG_STOPF);
 989              		.loc 1 846 0
ARM GAS  /tmp/ccy0jiyr.s 			page 33


 990 01c0 FB68     		ldr	r3, [r7, #12]
 991 01c2 1B68     		ldr	r3, [r3]
 992 01c4 2022     		movs	r2, #32
 993 01c6 DA61     		str	r2, [r3, #28]
 847:Drivers/STM32F3xx_HAL_Driver/Src/stm32f3xx_hal_i2c.c **** 
 848:Drivers/STM32F3xx_HAL_Driver/Src/stm32f3xx_hal_i2c.c ****     /* Clear Configuration Register 2 */
 849:Drivers/STM32F3xx_HAL_Driver/Src/stm32f3xx_hal_i2c.c ****     I2C_RESET_CR2(hi2c);
 994              		.loc 1 849 0
 995 01c8 FB68     		ldr	r3, [r7, #12]
 996 01ca 1B68     		ldr	r3, [r3]
 997 01cc 5968     		ldr	r1, [r3, #4]
 998 01ce FB68     		ldr	r3, [r7, #12]
 999 01d0 1A68     		ldr	r2, [r3]
 1000 01d2 0B4B     		ldr	r3, .L45
 1001 01d4 0B40     		ands	r3, r3, r1
 1002 01d6 5360     		str	r3, [r2, #4]
 850:Drivers/STM32F3xx_HAL_Driver/Src/stm32f3xx_hal_i2c.c **** 
 851:Drivers/STM32F3xx_HAL_Driver/Src/stm32f3xx_hal_i2c.c ****     hi2c->State = HAL_I2C_STATE_READY;
 1003              		.loc 1 851 0
 1004 01d8 FB68     		ldr	r3, [r7, #12]
 1005 01da 2022     		movs	r2, #32
 1006 01dc 83F84120 		strb	r2, [r3, #65]
 852:Drivers/STM32F3xx_HAL_Driver/Src/stm32f3xx_hal_i2c.c ****     hi2c->Mode  = HAL_I2C_MODE_NONE;
 1007              		.loc 1 852 0
 1008 01e0 FB68     		ldr	r3, [r7, #12]
 1009 01e2 0022     		movs	r2, #0
 1010 01e4 83F84220 		strb	r2, [r3, #66]
 853:Drivers/STM32F3xx_HAL_Driver/Src/stm32f3xx_hal_i2c.c **** 
 854:Drivers/STM32F3xx_HAL_Driver/Src/stm32f3xx_hal_i2c.c ****     /* Process Unlocked */
 855:Drivers/STM32F3xx_HAL_Driver/Src/stm32f3xx_hal_i2c.c ****     __HAL_UNLOCK(hi2c);
 1011              		.loc 1 855 0
 1012 01e8 FB68     		ldr	r3, [r7, #12]
 1013 01ea 0022     		movs	r2, #0
 1014 01ec 83F84020 		strb	r2, [r3, #64]
 856:Drivers/STM32F3xx_HAL_Driver/Src/stm32f3xx_hal_i2c.c **** 
 857:Drivers/STM32F3xx_HAL_Driver/Src/stm32f3xx_hal_i2c.c ****     return HAL_OK;
 1015              		.loc 1 857 0
 1016 01f0 0023     		movs	r3, #0
 1017 01f2 00E0     		b	.L33
 1018              	.L31:
 858:Drivers/STM32F3xx_HAL_Driver/Src/stm32f3xx_hal_i2c.c ****   }
 859:Drivers/STM32F3xx_HAL_Driver/Src/stm32f3xx_hal_i2c.c ****   else
 860:Drivers/STM32F3xx_HAL_Driver/Src/stm32f3xx_hal_i2c.c ****   {
 861:Drivers/STM32F3xx_HAL_Driver/Src/stm32f3xx_hal_i2c.c ****     return HAL_BUSY;
 1019              		.loc 1 861 0
 1020 01f4 0223     		movs	r3, #2
 1021              	.L33:
 862:Drivers/STM32F3xx_HAL_Driver/Src/stm32f3xx_hal_i2c.c ****   }
 863:Drivers/STM32F3xx_HAL_Driver/Src/stm32f3xx_hal_i2c.c **** }
 1022              		.loc 1 863 0
 1023 01f6 1846     		mov	r0, r3
 1024 01f8 1837     		adds	r7, r7, #24
 1025              	.LCFI30:
 1026              		.cfi_def_cfa_offset 8
 1027 01fa BD46     		mov	sp, r7
 1028              	.LCFI31:
 1029              		.cfi_def_cfa_register 13
ARM GAS  /tmp/ccy0jiyr.s 			page 34


 1030              		@ sp needed
 1031 01fc 80BD     		pop	{r7, pc}
 1032              	.L46:
 1033 01fe 00BF     		.align	2
 1034              	.L45:
 1035 0200 00E800FE 		.word	-33495040
 1036              		.cfi_endproc
 1037              	.LFE700:
 1039              		.section	.text.HAL_I2C_Slave_Transmit,"ax",%progbits
 1040              		.align	1
 1041              		.global	HAL_I2C_Slave_Transmit
 1042              		.syntax unified
 1043              		.thumb
 1044              		.thumb_func
 1045              		.fpu fpv4-sp-d16
 1047              	HAL_I2C_Slave_Transmit:
 1048              	.LFB701:
 864:Drivers/STM32F3xx_HAL_Driver/Src/stm32f3xx_hal_i2c.c **** 
 865:Drivers/STM32F3xx_HAL_Driver/Src/stm32f3xx_hal_i2c.c **** /**
 866:Drivers/STM32F3xx_HAL_Driver/Src/stm32f3xx_hal_i2c.c ****   * @brief  Transmits in slave mode an amount of data in blocking mode.
 867:Drivers/STM32F3xx_HAL_Driver/Src/stm32f3xx_hal_i2c.c ****   * @param  hi2c Pointer to a I2C_HandleTypeDef structure that contains
 868:Drivers/STM32F3xx_HAL_Driver/Src/stm32f3xx_hal_i2c.c ****   *                the configuration information for the specified I2C.
 869:Drivers/STM32F3xx_HAL_Driver/Src/stm32f3xx_hal_i2c.c ****   * @param  pData Pointer to data buffer
 870:Drivers/STM32F3xx_HAL_Driver/Src/stm32f3xx_hal_i2c.c ****   * @param  Size Amount of data to be sent
 871:Drivers/STM32F3xx_HAL_Driver/Src/stm32f3xx_hal_i2c.c ****   * @param  Timeout Timeout duration
 872:Drivers/STM32F3xx_HAL_Driver/Src/stm32f3xx_hal_i2c.c ****   * @retval HAL status
 873:Drivers/STM32F3xx_HAL_Driver/Src/stm32f3xx_hal_i2c.c ****   */
 874:Drivers/STM32F3xx_HAL_Driver/Src/stm32f3xx_hal_i2c.c **** HAL_StatusTypeDef HAL_I2C_Slave_Transmit(I2C_HandleTypeDef *hi2c, uint8_t *pData, uint16_t Size, ui
 875:Drivers/STM32F3xx_HAL_Driver/Src/stm32f3xx_hal_i2c.c **** {
 1049              		.loc 1 875 0
 1050              		.cfi_startproc
 1051              		@ args = 0, pretend = 0, frame = 24
 1052              		@ frame_needed = 1, uses_anonymous_args = 0
 1053 0000 80B5     		push	{r7, lr}
 1054              	.LCFI32:
 1055              		.cfi_def_cfa_offset 8
 1056              		.cfi_offset 7, -8
 1057              		.cfi_offset 14, -4
 1058 0002 88B0     		sub	sp, sp, #32
 1059              	.LCFI33:
 1060              		.cfi_def_cfa_offset 40
 1061 0004 02AF     		add	r7, sp, #8
 1062              	.LCFI34:
 1063              		.cfi_def_cfa 7, 32
 1064 0006 F860     		str	r0, [r7, #12]
 1065 0008 B960     		str	r1, [r7, #8]
 1066 000a 3B60     		str	r3, [r7]
 1067 000c 1346     		mov	r3, r2	@ movhi
 1068 000e FB80     		strh	r3, [r7, #6]	@ movhi
 876:Drivers/STM32F3xx_HAL_Driver/Src/stm32f3xx_hal_i2c.c ****   uint32_t tickstart = 0U;
 1069              		.loc 1 876 0
 1070 0010 0023     		movs	r3, #0
 1071 0012 7B61     		str	r3, [r7, #20]
 877:Drivers/STM32F3xx_HAL_Driver/Src/stm32f3xx_hal_i2c.c **** 
 878:Drivers/STM32F3xx_HAL_Driver/Src/stm32f3xx_hal_i2c.c ****   if (hi2c->State == HAL_I2C_STATE_READY)
 1072              		.loc 1 878 0
 1073 0014 FB68     		ldr	r3, [r7, #12]
ARM GAS  /tmp/ccy0jiyr.s 			page 35


 1074 0016 93F84130 		ldrb	r3, [r3, #65]
 1075 001a DBB2     		uxtb	r3, r3
 1076 001c 202B     		cmp	r3, #32
 1077 001e 40F0F580 		bne	.L48
 879:Drivers/STM32F3xx_HAL_Driver/Src/stm32f3xx_hal_i2c.c ****   {
 880:Drivers/STM32F3xx_HAL_Driver/Src/stm32f3xx_hal_i2c.c ****     if ((pData == NULL) || (Size == 0U))
 1078              		.loc 1 880 0
 1079 0022 BB68     		ldr	r3, [r7, #8]
 1080 0024 002B     		cmp	r3, #0
 1081 0026 02D0     		beq	.L49
 1082              		.loc 1 880 0 is_stmt 0 discriminator 1
 1083 0028 FB88     		ldrh	r3, [r7, #6]
 1084 002a 002B     		cmp	r3, #0
 1085 002c 01D1     		bne	.L50
 1086              	.L49:
 881:Drivers/STM32F3xx_HAL_Driver/Src/stm32f3xx_hal_i2c.c ****     {
 882:Drivers/STM32F3xx_HAL_Driver/Src/stm32f3xx_hal_i2c.c ****       return  HAL_ERROR;
 1087              		.loc 1 882 0 is_stmt 1
 1088 002e 0123     		movs	r3, #1
 1089 0030 EDE0     		b	.L51
 1090              	.L50:
 883:Drivers/STM32F3xx_HAL_Driver/Src/stm32f3xx_hal_i2c.c ****     }
 884:Drivers/STM32F3xx_HAL_Driver/Src/stm32f3xx_hal_i2c.c ****     /* Process Locked */
 885:Drivers/STM32F3xx_HAL_Driver/Src/stm32f3xx_hal_i2c.c ****     __HAL_LOCK(hi2c);
 1091              		.loc 1 885 0
 1092 0032 FB68     		ldr	r3, [r7, #12]
 1093 0034 93F84030 		ldrb	r3, [r3, #64]	@ zero_extendqisi2
 1094 0038 012B     		cmp	r3, #1
 1095 003a 01D1     		bne	.L52
 1096              		.loc 1 885 0 is_stmt 0 discriminator 1
 1097 003c 0223     		movs	r3, #2
 1098 003e E6E0     		b	.L51
 1099              	.L52:
 1100              		.loc 1 885 0 discriminator 2
 1101 0040 FB68     		ldr	r3, [r7, #12]
 1102 0042 0122     		movs	r2, #1
 1103 0044 83F84020 		strb	r2, [r3, #64]
 886:Drivers/STM32F3xx_HAL_Driver/Src/stm32f3xx_hal_i2c.c **** 
 887:Drivers/STM32F3xx_HAL_Driver/Src/stm32f3xx_hal_i2c.c ****     /* Init tickstart for timeout management*/
 888:Drivers/STM32F3xx_HAL_Driver/Src/stm32f3xx_hal_i2c.c ****     tickstart = HAL_GetTick();
 1104              		.loc 1 888 0 is_stmt 1 discriminator 2
 1105 0048 FFF7FEFF 		bl	HAL_GetTick
 1106 004c 7861     		str	r0, [r7, #20]
 889:Drivers/STM32F3xx_HAL_Driver/Src/stm32f3xx_hal_i2c.c **** 
 890:Drivers/STM32F3xx_HAL_Driver/Src/stm32f3xx_hal_i2c.c ****     hi2c->State     = HAL_I2C_STATE_BUSY_TX;
 1107              		.loc 1 890 0 discriminator 2
 1108 004e FB68     		ldr	r3, [r7, #12]
 1109 0050 2122     		movs	r2, #33
 1110 0052 83F84120 		strb	r2, [r3, #65]
 891:Drivers/STM32F3xx_HAL_Driver/Src/stm32f3xx_hal_i2c.c ****     hi2c->Mode      = HAL_I2C_MODE_SLAVE;
 1111              		.loc 1 891 0 discriminator 2
 1112 0056 FB68     		ldr	r3, [r7, #12]
 1113 0058 2022     		movs	r2, #32
 1114 005a 83F84220 		strb	r2, [r3, #66]
 892:Drivers/STM32F3xx_HAL_Driver/Src/stm32f3xx_hal_i2c.c ****     hi2c->ErrorCode = HAL_I2C_ERROR_NONE;
 1115              		.loc 1 892 0 discriminator 2
 1116 005e FB68     		ldr	r3, [r7, #12]
ARM GAS  /tmp/ccy0jiyr.s 			page 36


 1117 0060 0022     		movs	r2, #0
 1118 0062 5A64     		str	r2, [r3, #68]
 893:Drivers/STM32F3xx_HAL_Driver/Src/stm32f3xx_hal_i2c.c **** 
 894:Drivers/STM32F3xx_HAL_Driver/Src/stm32f3xx_hal_i2c.c ****     /* Prepare transfer parameters */
 895:Drivers/STM32F3xx_HAL_Driver/Src/stm32f3xx_hal_i2c.c ****     hi2c->pBuffPtr  = pData;
 1119              		.loc 1 895 0 discriminator 2
 1120 0064 FB68     		ldr	r3, [r7, #12]
 1121 0066 BA68     		ldr	r2, [r7, #8]
 1122 0068 5A62     		str	r2, [r3, #36]
 896:Drivers/STM32F3xx_HAL_Driver/Src/stm32f3xx_hal_i2c.c ****     hi2c->XferCount = Size;
 1123              		.loc 1 896 0 discriminator 2
 1124 006a FB68     		ldr	r3, [r7, #12]
 1125 006c FA88     		ldrh	r2, [r7, #6]	@ movhi
 1126 006e 5A85     		strh	r2, [r3, #42]	@ movhi
 897:Drivers/STM32F3xx_HAL_Driver/Src/stm32f3xx_hal_i2c.c ****     hi2c->XferISR   = NULL;
 1127              		.loc 1 897 0 discriminator 2
 1128 0070 FB68     		ldr	r3, [r7, #12]
 1129 0072 0022     		movs	r2, #0
 1130 0074 5A63     		str	r2, [r3, #52]
 898:Drivers/STM32F3xx_HAL_Driver/Src/stm32f3xx_hal_i2c.c **** 
 899:Drivers/STM32F3xx_HAL_Driver/Src/stm32f3xx_hal_i2c.c ****     /* Enable Address Acknowledge */
 900:Drivers/STM32F3xx_HAL_Driver/Src/stm32f3xx_hal_i2c.c ****     hi2c->Instance->CR2 &= ~I2C_CR2_NACK;
 1131              		.loc 1 900 0 discriminator 2
 1132 0076 FB68     		ldr	r3, [r7, #12]
 1133 0078 1B68     		ldr	r3, [r3]
 1134 007a 5A68     		ldr	r2, [r3, #4]
 1135 007c FB68     		ldr	r3, [r7, #12]
 1136 007e 1B68     		ldr	r3, [r3]
 1137 0080 22F40042 		bic	r2, r2, #32768
 1138 0084 5A60     		str	r2, [r3, #4]
 901:Drivers/STM32F3xx_HAL_Driver/Src/stm32f3xx_hal_i2c.c **** 
 902:Drivers/STM32F3xx_HAL_Driver/Src/stm32f3xx_hal_i2c.c ****     /* Wait until ADDR flag is set */
 903:Drivers/STM32F3xx_HAL_Driver/Src/stm32f3xx_hal_i2c.c ****     if (I2C_WaitOnFlagUntilTimeout(hi2c, I2C_FLAG_ADDR, RESET, Timeout, tickstart) != HAL_OK)
 1139              		.loc 1 903 0 discriminator 2
 1140 0086 7B69     		ldr	r3, [r7, #20]
 1141 0088 0093     		str	r3, [sp]
 1142 008a 3B68     		ldr	r3, [r7]
 1143 008c 0022     		movs	r2, #0
 1144 008e 0821     		movs	r1, #8
 1145 0090 F868     		ldr	r0, [r7, #12]
 1146 0092 FFF7FEFF 		bl	I2C_WaitOnFlagUntilTimeout
 1147 0096 0346     		mov	r3, r0
 1148 0098 002B     		cmp	r3, #0
 1149 009a 09D0     		beq	.L53
 904:Drivers/STM32F3xx_HAL_Driver/Src/stm32f3xx_hal_i2c.c ****     {
 905:Drivers/STM32F3xx_HAL_Driver/Src/stm32f3xx_hal_i2c.c ****       /* Disable Address Acknowledge */
 906:Drivers/STM32F3xx_HAL_Driver/Src/stm32f3xx_hal_i2c.c ****       hi2c->Instance->CR2 |= I2C_CR2_NACK;
 1150              		.loc 1 906 0
 1151 009c FB68     		ldr	r3, [r7, #12]
 1152 009e 1B68     		ldr	r3, [r3]
 1153 00a0 5A68     		ldr	r2, [r3, #4]
 1154 00a2 FB68     		ldr	r3, [r7, #12]
 1155 00a4 1B68     		ldr	r3, [r3]
 1156 00a6 42F40042 		orr	r2, r2, #32768
 1157 00aa 5A60     		str	r2, [r3, #4]
 907:Drivers/STM32F3xx_HAL_Driver/Src/stm32f3xx_hal_i2c.c ****       return HAL_TIMEOUT;
 1158              		.loc 1 907 0
ARM GAS  /tmp/ccy0jiyr.s 			page 37


 1159 00ac 0323     		movs	r3, #3
 1160 00ae AEE0     		b	.L51
 1161              	.L53:
 908:Drivers/STM32F3xx_HAL_Driver/Src/stm32f3xx_hal_i2c.c ****     }
 909:Drivers/STM32F3xx_HAL_Driver/Src/stm32f3xx_hal_i2c.c **** 
 910:Drivers/STM32F3xx_HAL_Driver/Src/stm32f3xx_hal_i2c.c ****     /* Clear ADDR flag */
 911:Drivers/STM32F3xx_HAL_Driver/Src/stm32f3xx_hal_i2c.c ****     __HAL_I2C_CLEAR_FLAG(hi2c, I2C_FLAG_ADDR);
 1162              		.loc 1 911 0
 1163 00b0 FB68     		ldr	r3, [r7, #12]
 1164 00b2 1B68     		ldr	r3, [r3]
 1165 00b4 0822     		movs	r2, #8
 1166 00b6 DA61     		str	r2, [r3, #28]
 912:Drivers/STM32F3xx_HAL_Driver/Src/stm32f3xx_hal_i2c.c **** 
 913:Drivers/STM32F3xx_HAL_Driver/Src/stm32f3xx_hal_i2c.c ****     /* If 10bit addressing mode is selected */
 914:Drivers/STM32F3xx_HAL_Driver/Src/stm32f3xx_hal_i2c.c ****     if (hi2c->Init.AddressingMode == I2C_ADDRESSINGMODE_10BIT)
 1167              		.loc 1 914 0
 1168 00b8 FB68     		ldr	r3, [r7, #12]
 1169 00ba DB68     		ldr	r3, [r3, #12]
 1170 00bc 022B     		cmp	r3, #2
 1171 00be 18D1     		bne	.L54
 915:Drivers/STM32F3xx_HAL_Driver/Src/stm32f3xx_hal_i2c.c ****     {
 916:Drivers/STM32F3xx_HAL_Driver/Src/stm32f3xx_hal_i2c.c ****       /* Wait until ADDR flag is set */
 917:Drivers/STM32F3xx_HAL_Driver/Src/stm32f3xx_hal_i2c.c ****       if (I2C_WaitOnFlagUntilTimeout(hi2c, I2C_FLAG_ADDR, RESET, Timeout, tickstart) != HAL_OK)
 1172              		.loc 1 917 0
 1173 00c0 7B69     		ldr	r3, [r7, #20]
 1174 00c2 0093     		str	r3, [sp]
 1175 00c4 3B68     		ldr	r3, [r7]
 1176 00c6 0022     		movs	r2, #0
 1177 00c8 0821     		movs	r1, #8
 1178 00ca F868     		ldr	r0, [r7, #12]
 1179 00cc FFF7FEFF 		bl	I2C_WaitOnFlagUntilTimeout
 1180 00d0 0346     		mov	r3, r0
 1181 00d2 002B     		cmp	r3, #0
 1182 00d4 09D0     		beq	.L55
 918:Drivers/STM32F3xx_HAL_Driver/Src/stm32f3xx_hal_i2c.c ****       {
 919:Drivers/STM32F3xx_HAL_Driver/Src/stm32f3xx_hal_i2c.c ****         /* Disable Address Acknowledge */
 920:Drivers/STM32F3xx_HAL_Driver/Src/stm32f3xx_hal_i2c.c ****         hi2c->Instance->CR2 |= I2C_CR2_NACK;
 1183              		.loc 1 920 0
 1184 00d6 FB68     		ldr	r3, [r7, #12]
 1185 00d8 1B68     		ldr	r3, [r3]
 1186 00da 5A68     		ldr	r2, [r3, #4]
 1187 00dc FB68     		ldr	r3, [r7, #12]
 1188 00de 1B68     		ldr	r3, [r3]
 1189 00e0 42F40042 		orr	r2, r2, #32768
 1190 00e4 5A60     		str	r2, [r3, #4]
 921:Drivers/STM32F3xx_HAL_Driver/Src/stm32f3xx_hal_i2c.c ****         return HAL_TIMEOUT;
 1191              		.loc 1 921 0
 1192 00e6 0323     		movs	r3, #3
 1193 00e8 91E0     		b	.L51
 1194              	.L55:
 922:Drivers/STM32F3xx_HAL_Driver/Src/stm32f3xx_hal_i2c.c ****       }
 923:Drivers/STM32F3xx_HAL_Driver/Src/stm32f3xx_hal_i2c.c **** 
 924:Drivers/STM32F3xx_HAL_Driver/Src/stm32f3xx_hal_i2c.c ****       /* Clear ADDR flag */
 925:Drivers/STM32F3xx_HAL_Driver/Src/stm32f3xx_hal_i2c.c ****       __HAL_I2C_CLEAR_FLAG(hi2c, I2C_FLAG_ADDR);
 1195              		.loc 1 925 0
 1196 00ea FB68     		ldr	r3, [r7, #12]
 1197 00ec 1B68     		ldr	r3, [r3]
ARM GAS  /tmp/ccy0jiyr.s 			page 38


 1198 00ee 0822     		movs	r2, #8
 1199 00f0 DA61     		str	r2, [r3, #28]
 1200              	.L54:
 926:Drivers/STM32F3xx_HAL_Driver/Src/stm32f3xx_hal_i2c.c ****     }
 927:Drivers/STM32F3xx_HAL_Driver/Src/stm32f3xx_hal_i2c.c **** 
 928:Drivers/STM32F3xx_HAL_Driver/Src/stm32f3xx_hal_i2c.c ****     /* Wait until DIR flag is set Transmitter mode */
 929:Drivers/STM32F3xx_HAL_Driver/Src/stm32f3xx_hal_i2c.c ****     if (I2C_WaitOnFlagUntilTimeout(hi2c, I2C_FLAG_DIR, RESET, Timeout, tickstart) != HAL_OK)
 1201              		.loc 1 929 0
 1202 00f2 7B69     		ldr	r3, [r7, #20]
 1203 00f4 0093     		str	r3, [sp]
 1204 00f6 3B68     		ldr	r3, [r7]
 1205 00f8 0022     		movs	r2, #0
 1206 00fa 4FF48031 		mov	r1, #65536
 1207 00fe F868     		ldr	r0, [r7, #12]
 1208 0100 FFF7FEFF 		bl	I2C_WaitOnFlagUntilTimeout
 1209 0104 0346     		mov	r3, r0
 1210 0106 002B     		cmp	r3, #0
 1211 0108 31D0     		beq	.L57
 930:Drivers/STM32F3xx_HAL_Driver/Src/stm32f3xx_hal_i2c.c ****     {
 931:Drivers/STM32F3xx_HAL_Driver/Src/stm32f3xx_hal_i2c.c ****       /* Disable Address Acknowledge */
 932:Drivers/STM32F3xx_HAL_Driver/Src/stm32f3xx_hal_i2c.c ****       hi2c->Instance->CR2 |= I2C_CR2_NACK;
 1212              		.loc 1 932 0
 1213 010a FB68     		ldr	r3, [r7, #12]
 1214 010c 1B68     		ldr	r3, [r3]
 1215 010e 5A68     		ldr	r2, [r3, #4]
 1216 0110 FB68     		ldr	r3, [r7, #12]
 1217 0112 1B68     		ldr	r3, [r3]
 1218 0114 42F40042 		orr	r2, r2, #32768
 1219 0118 5A60     		str	r2, [r3, #4]
 933:Drivers/STM32F3xx_HAL_Driver/Src/stm32f3xx_hal_i2c.c ****       return HAL_TIMEOUT;
 1220              		.loc 1 933 0
 1221 011a 0323     		movs	r3, #3
 1222 011c 77E0     		b	.L51
 1223              	.L60:
 934:Drivers/STM32F3xx_HAL_Driver/Src/stm32f3xx_hal_i2c.c ****     }
 935:Drivers/STM32F3xx_HAL_Driver/Src/stm32f3xx_hal_i2c.c **** 
 936:Drivers/STM32F3xx_HAL_Driver/Src/stm32f3xx_hal_i2c.c ****     while (hi2c->XferCount > 0U)
 937:Drivers/STM32F3xx_HAL_Driver/Src/stm32f3xx_hal_i2c.c ****     {
 938:Drivers/STM32F3xx_HAL_Driver/Src/stm32f3xx_hal_i2c.c ****       /* Wait until TXIS flag is set */
 939:Drivers/STM32F3xx_HAL_Driver/Src/stm32f3xx_hal_i2c.c ****       if (I2C_WaitOnTXISFlagUntilTimeout(hi2c, Timeout, tickstart) != HAL_OK)
 1224              		.loc 1 939 0
 1225 011e 7A69     		ldr	r2, [r7, #20]
 1226 0120 3968     		ldr	r1, [r7]
 1227 0122 F868     		ldr	r0, [r7, #12]
 1228 0124 FFF7FEFF 		bl	I2C_WaitOnTXISFlagUntilTimeout
 1229 0128 0346     		mov	r3, r0
 1230 012a 002B     		cmp	r3, #0
 1231 012c 0FD0     		beq	.L58
 940:Drivers/STM32F3xx_HAL_Driver/Src/stm32f3xx_hal_i2c.c ****       {
 941:Drivers/STM32F3xx_HAL_Driver/Src/stm32f3xx_hal_i2c.c ****         /* Disable Address Acknowledge */
 942:Drivers/STM32F3xx_HAL_Driver/Src/stm32f3xx_hal_i2c.c ****         hi2c->Instance->CR2 |= I2C_CR2_NACK;
 1232              		.loc 1 942 0
 1233 012e FB68     		ldr	r3, [r7, #12]
 1234 0130 1B68     		ldr	r3, [r3]
 1235 0132 5A68     		ldr	r2, [r3, #4]
 1236 0134 FB68     		ldr	r3, [r7, #12]
 1237 0136 1B68     		ldr	r3, [r3]
ARM GAS  /tmp/ccy0jiyr.s 			page 39


 1238 0138 42F40042 		orr	r2, r2, #32768
 1239 013c 5A60     		str	r2, [r3, #4]
 943:Drivers/STM32F3xx_HAL_Driver/Src/stm32f3xx_hal_i2c.c **** 
 944:Drivers/STM32F3xx_HAL_Driver/Src/stm32f3xx_hal_i2c.c ****         if (hi2c->ErrorCode == HAL_I2C_ERROR_AF)
 1240              		.loc 1 944 0
 1241 013e FB68     		ldr	r3, [r7, #12]
 1242 0140 5B6C     		ldr	r3, [r3, #68]
 1243 0142 042B     		cmp	r3, #4
 1244 0144 01D1     		bne	.L59
 945:Drivers/STM32F3xx_HAL_Driver/Src/stm32f3xx_hal_i2c.c ****         {
 946:Drivers/STM32F3xx_HAL_Driver/Src/stm32f3xx_hal_i2c.c ****           return HAL_ERROR;
 1245              		.loc 1 946 0
 1246 0146 0123     		movs	r3, #1
 1247 0148 61E0     		b	.L51
 1248              	.L59:
 947:Drivers/STM32F3xx_HAL_Driver/Src/stm32f3xx_hal_i2c.c ****         }
 948:Drivers/STM32F3xx_HAL_Driver/Src/stm32f3xx_hal_i2c.c ****         else
 949:Drivers/STM32F3xx_HAL_Driver/Src/stm32f3xx_hal_i2c.c ****         {
 950:Drivers/STM32F3xx_HAL_Driver/Src/stm32f3xx_hal_i2c.c ****           return HAL_TIMEOUT;
 1249              		.loc 1 950 0
 1250 014a 0323     		movs	r3, #3
 1251 014c 5FE0     		b	.L51
 1252              	.L58:
 951:Drivers/STM32F3xx_HAL_Driver/Src/stm32f3xx_hal_i2c.c ****         }
 952:Drivers/STM32F3xx_HAL_Driver/Src/stm32f3xx_hal_i2c.c ****       }
 953:Drivers/STM32F3xx_HAL_Driver/Src/stm32f3xx_hal_i2c.c **** 
 954:Drivers/STM32F3xx_HAL_Driver/Src/stm32f3xx_hal_i2c.c ****       /* Write data to TXDR */
 955:Drivers/STM32F3xx_HAL_Driver/Src/stm32f3xx_hal_i2c.c ****       hi2c->Instance->TXDR = (*hi2c->pBuffPtr++);
 1253              		.loc 1 955 0
 1254 014e FB68     		ldr	r3, [r7, #12]
 1255 0150 5B6A     		ldr	r3, [r3, #36]
 1256 0152 591C     		adds	r1, r3, #1
 1257 0154 FA68     		ldr	r2, [r7, #12]
 1258 0156 5162     		str	r1, [r2, #36]
 1259 0158 1A78     		ldrb	r2, [r3]	@ zero_extendqisi2
 1260 015a FB68     		ldr	r3, [r7, #12]
 1261 015c 1B68     		ldr	r3, [r3]
 1262 015e 9A62     		str	r2, [r3, #40]
 956:Drivers/STM32F3xx_HAL_Driver/Src/stm32f3xx_hal_i2c.c ****       hi2c->XferCount--;
 1263              		.loc 1 956 0
 1264 0160 FB68     		ldr	r3, [r7, #12]
 1265 0162 5B8D     		ldrh	r3, [r3, #42]	@ movhi
 1266 0164 9BB2     		uxth	r3, r3
 1267 0166 013B     		subs	r3, r3, #1
 1268 0168 9AB2     		uxth	r2, r3
 1269 016a FB68     		ldr	r3, [r7, #12]
 1270 016c 5A85     		strh	r2, [r3, #42]	@ movhi
 1271              	.L57:
 936:Drivers/STM32F3xx_HAL_Driver/Src/stm32f3xx_hal_i2c.c ****     {
 1272              		.loc 1 936 0
 1273 016e FB68     		ldr	r3, [r7, #12]
 1274 0170 5B8D     		ldrh	r3, [r3, #42]	@ movhi
 1275 0172 9BB2     		uxth	r3, r3
 1276 0174 002B     		cmp	r3, #0
 1277 0176 D2D1     		bne	.L60
 957:Drivers/STM32F3xx_HAL_Driver/Src/stm32f3xx_hal_i2c.c ****     }
 958:Drivers/STM32F3xx_HAL_Driver/Src/stm32f3xx_hal_i2c.c **** 
ARM GAS  /tmp/ccy0jiyr.s 			page 40


 959:Drivers/STM32F3xx_HAL_Driver/Src/stm32f3xx_hal_i2c.c ****     /* Wait until STOP flag is set */
 960:Drivers/STM32F3xx_HAL_Driver/Src/stm32f3xx_hal_i2c.c ****     if (I2C_WaitOnSTOPFlagUntilTimeout(hi2c, Timeout, tickstart) != HAL_OK)
 1278              		.loc 1 960 0
 1279 0178 7A69     		ldr	r2, [r7, #20]
 1280 017a 3968     		ldr	r1, [r7]
 1281 017c F868     		ldr	r0, [r7, #12]
 1282 017e FFF7FEFF 		bl	I2C_WaitOnSTOPFlagUntilTimeout
 1283 0182 0346     		mov	r3, r0
 1284 0184 002B     		cmp	r3, #0
 1285 0186 11D0     		beq	.L61
 961:Drivers/STM32F3xx_HAL_Driver/Src/stm32f3xx_hal_i2c.c ****     {
 962:Drivers/STM32F3xx_HAL_Driver/Src/stm32f3xx_hal_i2c.c ****       /* Disable Address Acknowledge */
 963:Drivers/STM32F3xx_HAL_Driver/Src/stm32f3xx_hal_i2c.c ****       hi2c->Instance->CR2 |= I2C_CR2_NACK;
 1286              		.loc 1 963 0
 1287 0188 FB68     		ldr	r3, [r7, #12]
 1288 018a 1B68     		ldr	r3, [r3]
 1289 018c 5A68     		ldr	r2, [r3, #4]
 1290 018e FB68     		ldr	r3, [r7, #12]
 1291 0190 1B68     		ldr	r3, [r3]
 1292 0192 42F40042 		orr	r2, r2, #32768
 1293 0196 5A60     		str	r2, [r3, #4]
 964:Drivers/STM32F3xx_HAL_Driver/Src/stm32f3xx_hal_i2c.c **** 
 965:Drivers/STM32F3xx_HAL_Driver/Src/stm32f3xx_hal_i2c.c ****       if (hi2c->ErrorCode == HAL_I2C_ERROR_AF)
 1294              		.loc 1 965 0
 1295 0198 FB68     		ldr	r3, [r7, #12]
 1296 019a 5B6C     		ldr	r3, [r3, #68]
 1297 019c 042B     		cmp	r3, #4
 1298 019e 03D1     		bne	.L62
 966:Drivers/STM32F3xx_HAL_Driver/Src/stm32f3xx_hal_i2c.c ****       {
 967:Drivers/STM32F3xx_HAL_Driver/Src/stm32f3xx_hal_i2c.c ****         /* Normal use case for Transmitter mode */
 968:Drivers/STM32F3xx_HAL_Driver/Src/stm32f3xx_hal_i2c.c ****         /* A NACK is generated to confirm the end of transfer */
 969:Drivers/STM32F3xx_HAL_Driver/Src/stm32f3xx_hal_i2c.c ****         hi2c->ErrorCode = HAL_I2C_ERROR_NONE;
 1299              		.loc 1 969 0
 1300 01a0 FB68     		ldr	r3, [r7, #12]
 1301 01a2 0022     		movs	r2, #0
 1302 01a4 5A64     		str	r2, [r3, #68]
 1303 01a6 01E0     		b	.L61
 1304              	.L62:
 970:Drivers/STM32F3xx_HAL_Driver/Src/stm32f3xx_hal_i2c.c ****       }
 971:Drivers/STM32F3xx_HAL_Driver/Src/stm32f3xx_hal_i2c.c ****       else
 972:Drivers/STM32F3xx_HAL_Driver/Src/stm32f3xx_hal_i2c.c ****       {
 973:Drivers/STM32F3xx_HAL_Driver/Src/stm32f3xx_hal_i2c.c ****         return HAL_TIMEOUT;
 1305              		.loc 1 973 0
 1306 01a8 0323     		movs	r3, #3
 1307 01aa 30E0     		b	.L51
 1308              	.L61:
 974:Drivers/STM32F3xx_HAL_Driver/Src/stm32f3xx_hal_i2c.c ****       }
 975:Drivers/STM32F3xx_HAL_Driver/Src/stm32f3xx_hal_i2c.c ****     }
 976:Drivers/STM32F3xx_HAL_Driver/Src/stm32f3xx_hal_i2c.c **** 
 977:Drivers/STM32F3xx_HAL_Driver/Src/stm32f3xx_hal_i2c.c ****     /* Clear STOP flag */
 978:Drivers/STM32F3xx_HAL_Driver/Src/stm32f3xx_hal_i2c.c ****     __HAL_I2C_CLEAR_FLAG(hi2c, I2C_FLAG_STOPF);
 1309              		.loc 1 978 0
 1310 01ac FB68     		ldr	r3, [r7, #12]
 1311 01ae 1B68     		ldr	r3, [r3]
 1312 01b0 2022     		movs	r2, #32
 1313 01b2 DA61     		str	r2, [r3, #28]
 979:Drivers/STM32F3xx_HAL_Driver/Src/stm32f3xx_hal_i2c.c **** 
ARM GAS  /tmp/ccy0jiyr.s 			page 41


 980:Drivers/STM32F3xx_HAL_Driver/Src/stm32f3xx_hal_i2c.c ****     /* Wait until BUSY flag is reset */
 981:Drivers/STM32F3xx_HAL_Driver/Src/stm32f3xx_hal_i2c.c ****     if (I2C_WaitOnFlagUntilTimeout(hi2c, I2C_FLAG_BUSY, SET, Timeout, tickstart) != HAL_OK)
 1314              		.loc 1 981 0
 1315 01b4 7B69     		ldr	r3, [r7, #20]
 1316 01b6 0093     		str	r3, [sp]
 1317 01b8 3B68     		ldr	r3, [r7]
 1318 01ba 0122     		movs	r2, #1
 1319 01bc 4FF40041 		mov	r1, #32768
 1320 01c0 F868     		ldr	r0, [r7, #12]
 1321 01c2 FFF7FEFF 		bl	I2C_WaitOnFlagUntilTimeout
 1322 01c6 0346     		mov	r3, r0
 1323 01c8 002B     		cmp	r3, #0
 1324 01ca 09D0     		beq	.L63
 982:Drivers/STM32F3xx_HAL_Driver/Src/stm32f3xx_hal_i2c.c ****     {
 983:Drivers/STM32F3xx_HAL_Driver/Src/stm32f3xx_hal_i2c.c ****       /* Disable Address Acknowledge */
 984:Drivers/STM32F3xx_HAL_Driver/Src/stm32f3xx_hal_i2c.c ****       hi2c->Instance->CR2 |= I2C_CR2_NACK;
 1325              		.loc 1 984 0
 1326 01cc FB68     		ldr	r3, [r7, #12]
 1327 01ce 1B68     		ldr	r3, [r3]
 1328 01d0 5A68     		ldr	r2, [r3, #4]
 1329 01d2 FB68     		ldr	r3, [r7, #12]
 1330 01d4 1B68     		ldr	r3, [r3]
 1331 01d6 42F40042 		orr	r2, r2, #32768
 1332 01da 5A60     		str	r2, [r3, #4]
 985:Drivers/STM32F3xx_HAL_Driver/Src/stm32f3xx_hal_i2c.c ****       return HAL_TIMEOUT;
 1333              		.loc 1 985 0
 1334 01dc 0323     		movs	r3, #3
 1335 01de 16E0     		b	.L51
 1336              	.L63:
 986:Drivers/STM32F3xx_HAL_Driver/Src/stm32f3xx_hal_i2c.c ****     }
 987:Drivers/STM32F3xx_HAL_Driver/Src/stm32f3xx_hal_i2c.c **** 
 988:Drivers/STM32F3xx_HAL_Driver/Src/stm32f3xx_hal_i2c.c ****     /* Disable Address Acknowledge */
 989:Drivers/STM32F3xx_HAL_Driver/Src/stm32f3xx_hal_i2c.c ****     hi2c->Instance->CR2 |= I2C_CR2_NACK;
 1337              		.loc 1 989 0
 1338 01e0 FB68     		ldr	r3, [r7, #12]
 1339 01e2 1B68     		ldr	r3, [r3]
 1340 01e4 5A68     		ldr	r2, [r3, #4]
 1341 01e6 FB68     		ldr	r3, [r7, #12]
 1342 01e8 1B68     		ldr	r3, [r3]
 1343 01ea 42F40042 		orr	r2, r2, #32768
 1344 01ee 5A60     		str	r2, [r3, #4]
 990:Drivers/STM32F3xx_HAL_Driver/Src/stm32f3xx_hal_i2c.c **** 
 991:Drivers/STM32F3xx_HAL_Driver/Src/stm32f3xx_hal_i2c.c ****     hi2c->State = HAL_I2C_STATE_READY;
 1345              		.loc 1 991 0
 1346 01f0 FB68     		ldr	r3, [r7, #12]
 1347 01f2 2022     		movs	r2, #32
 1348 01f4 83F84120 		strb	r2, [r3, #65]
 992:Drivers/STM32F3xx_HAL_Driver/Src/stm32f3xx_hal_i2c.c ****     hi2c->Mode  = HAL_I2C_MODE_NONE;
 1349              		.loc 1 992 0
 1350 01f8 FB68     		ldr	r3, [r7, #12]
 1351 01fa 0022     		movs	r2, #0
 1352 01fc 83F84220 		strb	r2, [r3, #66]
 993:Drivers/STM32F3xx_HAL_Driver/Src/stm32f3xx_hal_i2c.c **** 
 994:Drivers/STM32F3xx_HAL_Driver/Src/stm32f3xx_hal_i2c.c ****     /* Process Unlocked */
 995:Drivers/STM32F3xx_HAL_Driver/Src/stm32f3xx_hal_i2c.c ****     __HAL_UNLOCK(hi2c);
 1353              		.loc 1 995 0
 1354 0200 FB68     		ldr	r3, [r7, #12]
ARM GAS  /tmp/ccy0jiyr.s 			page 42


 1355 0202 0022     		movs	r2, #0
 1356 0204 83F84020 		strb	r2, [r3, #64]
 996:Drivers/STM32F3xx_HAL_Driver/Src/stm32f3xx_hal_i2c.c **** 
 997:Drivers/STM32F3xx_HAL_Driver/Src/stm32f3xx_hal_i2c.c ****     return HAL_OK;
 1357              		.loc 1 997 0
 1358 0208 0023     		movs	r3, #0
 1359 020a 00E0     		b	.L51
 1360              	.L48:
 998:Drivers/STM32F3xx_HAL_Driver/Src/stm32f3xx_hal_i2c.c ****   }
 999:Drivers/STM32F3xx_HAL_Driver/Src/stm32f3xx_hal_i2c.c ****   else
1000:Drivers/STM32F3xx_HAL_Driver/Src/stm32f3xx_hal_i2c.c ****   {
1001:Drivers/STM32F3xx_HAL_Driver/Src/stm32f3xx_hal_i2c.c ****     return HAL_BUSY;
 1361              		.loc 1 1001 0
 1362 020c 0223     		movs	r3, #2
 1363              	.L51:
1002:Drivers/STM32F3xx_HAL_Driver/Src/stm32f3xx_hal_i2c.c ****   }
1003:Drivers/STM32F3xx_HAL_Driver/Src/stm32f3xx_hal_i2c.c **** }
 1364              		.loc 1 1003 0
 1365 020e 1846     		mov	r0, r3
 1366 0210 1837     		adds	r7, r7, #24
 1367              	.LCFI35:
 1368              		.cfi_def_cfa_offset 8
 1369 0212 BD46     		mov	sp, r7
 1370              	.LCFI36:
 1371              		.cfi_def_cfa_register 13
 1372              		@ sp needed
 1373 0214 80BD     		pop	{r7, pc}
 1374              		.cfi_endproc
 1375              	.LFE701:
 1377              		.section	.text.HAL_I2C_Slave_Receive,"ax",%progbits
 1378              		.align	1
 1379              		.global	HAL_I2C_Slave_Receive
 1380              		.syntax unified
 1381              		.thumb
 1382              		.thumb_func
 1383              		.fpu fpv4-sp-d16
 1385              	HAL_I2C_Slave_Receive:
 1386              	.LFB702:
1004:Drivers/STM32F3xx_HAL_Driver/Src/stm32f3xx_hal_i2c.c **** 
1005:Drivers/STM32F3xx_HAL_Driver/Src/stm32f3xx_hal_i2c.c **** /**
1006:Drivers/STM32F3xx_HAL_Driver/Src/stm32f3xx_hal_i2c.c ****   * @brief  Receive in slave mode an amount of data in blocking mode
1007:Drivers/STM32F3xx_HAL_Driver/Src/stm32f3xx_hal_i2c.c ****   * @param  hi2c Pointer to a I2C_HandleTypeDef structure that contains
1008:Drivers/STM32F3xx_HAL_Driver/Src/stm32f3xx_hal_i2c.c ****   *                the configuration information for the specified I2C.
1009:Drivers/STM32F3xx_HAL_Driver/Src/stm32f3xx_hal_i2c.c ****   * @param  pData Pointer to data buffer
1010:Drivers/STM32F3xx_HAL_Driver/Src/stm32f3xx_hal_i2c.c ****   * @param  Size Amount of data to be sent
1011:Drivers/STM32F3xx_HAL_Driver/Src/stm32f3xx_hal_i2c.c ****   * @param  Timeout Timeout duration
1012:Drivers/STM32F3xx_HAL_Driver/Src/stm32f3xx_hal_i2c.c ****   * @retval HAL status
1013:Drivers/STM32F3xx_HAL_Driver/Src/stm32f3xx_hal_i2c.c ****   */
1014:Drivers/STM32F3xx_HAL_Driver/Src/stm32f3xx_hal_i2c.c **** HAL_StatusTypeDef HAL_I2C_Slave_Receive(I2C_HandleTypeDef *hi2c, uint8_t *pData, uint16_t Size, uin
1015:Drivers/STM32F3xx_HAL_Driver/Src/stm32f3xx_hal_i2c.c **** {
 1387              		.loc 1 1015 0
 1388              		.cfi_startproc
 1389              		@ args = 0, pretend = 0, frame = 24
 1390              		@ frame_needed = 1, uses_anonymous_args = 0
 1391 0000 80B5     		push	{r7, lr}
 1392              	.LCFI37:
 1393              		.cfi_def_cfa_offset 8
ARM GAS  /tmp/ccy0jiyr.s 			page 43


 1394              		.cfi_offset 7, -8
 1395              		.cfi_offset 14, -4
 1396 0002 88B0     		sub	sp, sp, #32
 1397              	.LCFI38:
 1398              		.cfi_def_cfa_offset 40
 1399 0004 02AF     		add	r7, sp, #8
 1400              	.LCFI39:
 1401              		.cfi_def_cfa 7, 32
 1402 0006 F860     		str	r0, [r7, #12]
 1403 0008 B960     		str	r1, [r7, #8]
 1404 000a 3B60     		str	r3, [r7]
 1405 000c 1346     		mov	r3, r2	@ movhi
 1406 000e FB80     		strh	r3, [r7, #6]	@ movhi
1016:Drivers/STM32F3xx_HAL_Driver/Src/stm32f3xx_hal_i2c.c ****   uint32_t tickstart = 0U;
 1407              		.loc 1 1016 0
 1408 0010 0023     		movs	r3, #0
 1409 0012 7B61     		str	r3, [r7, #20]
1017:Drivers/STM32F3xx_HAL_Driver/Src/stm32f3xx_hal_i2c.c **** 
1018:Drivers/STM32F3xx_HAL_Driver/Src/stm32f3xx_hal_i2c.c ****   if (hi2c->State == HAL_I2C_STATE_READY)
 1410              		.loc 1 1018 0
 1411 0014 FB68     		ldr	r3, [r7, #12]
 1412 0016 93F84130 		ldrb	r3, [r3, #65]
 1413 001a DBB2     		uxtb	r3, r3
 1414 001c 202B     		cmp	r3, #32
 1415 001e 40F0EF80 		bne	.L65
1019:Drivers/STM32F3xx_HAL_Driver/Src/stm32f3xx_hal_i2c.c ****   {
1020:Drivers/STM32F3xx_HAL_Driver/Src/stm32f3xx_hal_i2c.c ****     if ((pData == NULL) || (Size == 0U))
 1416              		.loc 1 1020 0
 1417 0022 BB68     		ldr	r3, [r7, #8]
 1418 0024 002B     		cmp	r3, #0
 1419 0026 02D0     		beq	.L66
 1420              		.loc 1 1020 0 is_stmt 0 discriminator 1
 1421 0028 FB88     		ldrh	r3, [r7, #6]
 1422 002a 002B     		cmp	r3, #0
 1423 002c 01D1     		bne	.L67
 1424              	.L66:
1021:Drivers/STM32F3xx_HAL_Driver/Src/stm32f3xx_hal_i2c.c ****     {
1022:Drivers/STM32F3xx_HAL_Driver/Src/stm32f3xx_hal_i2c.c ****       return  HAL_ERROR;
 1425              		.loc 1 1022 0 is_stmt 1
 1426 002e 0123     		movs	r3, #1
 1427 0030 E7E0     		b	.L68
 1428              	.L67:
1023:Drivers/STM32F3xx_HAL_Driver/Src/stm32f3xx_hal_i2c.c ****     }
1024:Drivers/STM32F3xx_HAL_Driver/Src/stm32f3xx_hal_i2c.c ****     /* Process Locked */
1025:Drivers/STM32F3xx_HAL_Driver/Src/stm32f3xx_hal_i2c.c ****     __HAL_LOCK(hi2c);
 1429              		.loc 1 1025 0
 1430 0032 FB68     		ldr	r3, [r7, #12]
 1431 0034 93F84030 		ldrb	r3, [r3, #64]	@ zero_extendqisi2
 1432 0038 012B     		cmp	r3, #1
 1433 003a 01D1     		bne	.L69
 1434              		.loc 1 1025 0 is_stmt 0 discriminator 1
 1435 003c 0223     		movs	r3, #2
 1436 003e E0E0     		b	.L68
 1437              	.L69:
 1438              		.loc 1 1025 0 discriminator 2
 1439 0040 FB68     		ldr	r3, [r7, #12]
 1440 0042 0122     		movs	r2, #1
ARM GAS  /tmp/ccy0jiyr.s 			page 44


 1441 0044 83F84020 		strb	r2, [r3, #64]
1026:Drivers/STM32F3xx_HAL_Driver/Src/stm32f3xx_hal_i2c.c **** 
1027:Drivers/STM32F3xx_HAL_Driver/Src/stm32f3xx_hal_i2c.c ****     /* Init tickstart for timeout management*/
1028:Drivers/STM32F3xx_HAL_Driver/Src/stm32f3xx_hal_i2c.c ****     tickstart = HAL_GetTick();
 1442              		.loc 1 1028 0 is_stmt 1 discriminator 2
 1443 0048 FFF7FEFF 		bl	HAL_GetTick
 1444 004c 7861     		str	r0, [r7, #20]
1029:Drivers/STM32F3xx_HAL_Driver/Src/stm32f3xx_hal_i2c.c **** 
1030:Drivers/STM32F3xx_HAL_Driver/Src/stm32f3xx_hal_i2c.c ****     hi2c->State     = HAL_I2C_STATE_BUSY_RX;
 1445              		.loc 1 1030 0 discriminator 2
 1446 004e FB68     		ldr	r3, [r7, #12]
 1447 0050 2222     		movs	r2, #34
 1448 0052 83F84120 		strb	r2, [r3, #65]
1031:Drivers/STM32F3xx_HAL_Driver/Src/stm32f3xx_hal_i2c.c ****     hi2c->Mode      = HAL_I2C_MODE_SLAVE;
 1449              		.loc 1 1031 0 discriminator 2
 1450 0056 FB68     		ldr	r3, [r7, #12]
 1451 0058 2022     		movs	r2, #32
 1452 005a 83F84220 		strb	r2, [r3, #66]
1032:Drivers/STM32F3xx_HAL_Driver/Src/stm32f3xx_hal_i2c.c ****     hi2c->ErrorCode = HAL_I2C_ERROR_NONE;
 1453              		.loc 1 1032 0 discriminator 2
 1454 005e FB68     		ldr	r3, [r7, #12]
 1455 0060 0022     		movs	r2, #0
 1456 0062 5A64     		str	r2, [r3, #68]
1033:Drivers/STM32F3xx_HAL_Driver/Src/stm32f3xx_hal_i2c.c **** 
1034:Drivers/STM32F3xx_HAL_Driver/Src/stm32f3xx_hal_i2c.c ****     /* Prepare transfer parameters */
1035:Drivers/STM32F3xx_HAL_Driver/Src/stm32f3xx_hal_i2c.c ****     hi2c->pBuffPtr  = pData;
 1457              		.loc 1 1035 0 discriminator 2
 1458 0064 FB68     		ldr	r3, [r7, #12]
 1459 0066 BA68     		ldr	r2, [r7, #8]
 1460 0068 5A62     		str	r2, [r3, #36]
1036:Drivers/STM32F3xx_HAL_Driver/Src/stm32f3xx_hal_i2c.c ****     hi2c->XferCount = Size;
 1461              		.loc 1 1036 0 discriminator 2
 1462 006a FB68     		ldr	r3, [r7, #12]
 1463 006c FA88     		ldrh	r2, [r7, #6]	@ movhi
 1464 006e 5A85     		strh	r2, [r3, #42]	@ movhi
1037:Drivers/STM32F3xx_HAL_Driver/Src/stm32f3xx_hal_i2c.c ****     hi2c->XferISR   = NULL;
 1465              		.loc 1 1037 0 discriminator 2
 1466 0070 FB68     		ldr	r3, [r7, #12]
 1467 0072 0022     		movs	r2, #0
 1468 0074 5A63     		str	r2, [r3, #52]
1038:Drivers/STM32F3xx_HAL_Driver/Src/stm32f3xx_hal_i2c.c **** 
1039:Drivers/STM32F3xx_HAL_Driver/Src/stm32f3xx_hal_i2c.c ****     /* Enable Address Acknowledge */
1040:Drivers/STM32F3xx_HAL_Driver/Src/stm32f3xx_hal_i2c.c ****     hi2c->Instance->CR2 &= ~I2C_CR2_NACK;
 1469              		.loc 1 1040 0 discriminator 2
 1470 0076 FB68     		ldr	r3, [r7, #12]
 1471 0078 1B68     		ldr	r3, [r3]
 1472 007a 5A68     		ldr	r2, [r3, #4]
 1473 007c FB68     		ldr	r3, [r7, #12]
 1474 007e 1B68     		ldr	r3, [r3]
 1475 0080 22F40042 		bic	r2, r2, #32768
 1476 0084 5A60     		str	r2, [r3, #4]
1041:Drivers/STM32F3xx_HAL_Driver/Src/stm32f3xx_hal_i2c.c **** 
1042:Drivers/STM32F3xx_HAL_Driver/Src/stm32f3xx_hal_i2c.c ****     /* Wait until ADDR flag is set */
1043:Drivers/STM32F3xx_HAL_Driver/Src/stm32f3xx_hal_i2c.c ****     if (I2C_WaitOnFlagUntilTimeout(hi2c, I2C_FLAG_ADDR, RESET, Timeout, tickstart) != HAL_OK)
 1477              		.loc 1 1043 0 discriminator 2
 1478 0086 7B69     		ldr	r3, [r7, #20]
 1479 0088 0093     		str	r3, [sp]
ARM GAS  /tmp/ccy0jiyr.s 			page 45


 1480 008a 3B68     		ldr	r3, [r7]
 1481 008c 0022     		movs	r2, #0
 1482 008e 0821     		movs	r1, #8
 1483 0090 F868     		ldr	r0, [r7, #12]
 1484 0092 FFF7FEFF 		bl	I2C_WaitOnFlagUntilTimeout
 1485 0096 0346     		mov	r3, r0
 1486 0098 002B     		cmp	r3, #0
 1487 009a 09D0     		beq	.L70
1044:Drivers/STM32F3xx_HAL_Driver/Src/stm32f3xx_hal_i2c.c ****     {
1045:Drivers/STM32F3xx_HAL_Driver/Src/stm32f3xx_hal_i2c.c ****       /* Disable Address Acknowledge */
1046:Drivers/STM32F3xx_HAL_Driver/Src/stm32f3xx_hal_i2c.c ****       hi2c->Instance->CR2 |= I2C_CR2_NACK;
 1488              		.loc 1 1046 0
 1489 009c FB68     		ldr	r3, [r7, #12]
 1490 009e 1B68     		ldr	r3, [r3]
 1491 00a0 5A68     		ldr	r2, [r3, #4]
 1492 00a2 FB68     		ldr	r3, [r7, #12]
 1493 00a4 1B68     		ldr	r3, [r3]
 1494 00a6 42F40042 		orr	r2, r2, #32768
 1495 00aa 5A60     		str	r2, [r3, #4]
1047:Drivers/STM32F3xx_HAL_Driver/Src/stm32f3xx_hal_i2c.c ****       return HAL_TIMEOUT;
 1496              		.loc 1 1047 0
 1497 00ac 0323     		movs	r3, #3
 1498 00ae A8E0     		b	.L68
 1499              	.L70:
1048:Drivers/STM32F3xx_HAL_Driver/Src/stm32f3xx_hal_i2c.c ****     }
1049:Drivers/STM32F3xx_HAL_Driver/Src/stm32f3xx_hal_i2c.c **** 
1050:Drivers/STM32F3xx_HAL_Driver/Src/stm32f3xx_hal_i2c.c ****     /* Clear ADDR flag */
1051:Drivers/STM32F3xx_HAL_Driver/Src/stm32f3xx_hal_i2c.c ****     __HAL_I2C_CLEAR_FLAG(hi2c, I2C_FLAG_ADDR);
 1500              		.loc 1 1051 0
 1501 00b0 FB68     		ldr	r3, [r7, #12]
 1502 00b2 1B68     		ldr	r3, [r3]
 1503 00b4 0822     		movs	r2, #8
 1504 00b6 DA61     		str	r2, [r3, #28]
1052:Drivers/STM32F3xx_HAL_Driver/Src/stm32f3xx_hal_i2c.c **** 
1053:Drivers/STM32F3xx_HAL_Driver/Src/stm32f3xx_hal_i2c.c ****     /* Wait until DIR flag is reset Receiver mode */
1054:Drivers/STM32F3xx_HAL_Driver/Src/stm32f3xx_hal_i2c.c ****     if (I2C_WaitOnFlagUntilTimeout(hi2c, I2C_FLAG_DIR, SET, Timeout, tickstart) != HAL_OK)
 1505              		.loc 1 1054 0
 1506 00b8 7B69     		ldr	r3, [r7, #20]
 1507 00ba 0093     		str	r3, [sp]
 1508 00bc 3B68     		ldr	r3, [r7]
 1509 00be 0122     		movs	r2, #1
 1510 00c0 4FF48031 		mov	r1, #65536
 1511 00c4 F868     		ldr	r0, [r7, #12]
 1512 00c6 FFF7FEFF 		bl	I2C_WaitOnFlagUntilTimeout
 1513 00ca 0346     		mov	r3, r0
 1514 00cc 002B     		cmp	r3, #0
 1515 00ce 4AD0     		beq	.L72
1055:Drivers/STM32F3xx_HAL_Driver/Src/stm32f3xx_hal_i2c.c ****     {
1056:Drivers/STM32F3xx_HAL_Driver/Src/stm32f3xx_hal_i2c.c ****       /* Disable Address Acknowledge */
1057:Drivers/STM32F3xx_HAL_Driver/Src/stm32f3xx_hal_i2c.c ****       hi2c->Instance->CR2 |= I2C_CR2_NACK;
 1516              		.loc 1 1057 0
 1517 00d0 FB68     		ldr	r3, [r7, #12]
 1518 00d2 1B68     		ldr	r3, [r3]
 1519 00d4 5A68     		ldr	r2, [r3, #4]
 1520 00d6 FB68     		ldr	r3, [r7, #12]
 1521 00d8 1B68     		ldr	r3, [r3]
 1522 00da 42F40042 		orr	r2, r2, #32768
ARM GAS  /tmp/ccy0jiyr.s 			page 46


 1523 00de 5A60     		str	r2, [r3, #4]
1058:Drivers/STM32F3xx_HAL_Driver/Src/stm32f3xx_hal_i2c.c ****       return HAL_TIMEOUT;
 1524              		.loc 1 1058 0
 1525 00e0 0323     		movs	r3, #3
 1526 00e2 8EE0     		b	.L68
 1527              	.L76:
1059:Drivers/STM32F3xx_HAL_Driver/Src/stm32f3xx_hal_i2c.c ****     }
1060:Drivers/STM32F3xx_HAL_Driver/Src/stm32f3xx_hal_i2c.c **** 
1061:Drivers/STM32F3xx_HAL_Driver/Src/stm32f3xx_hal_i2c.c ****     while (hi2c->XferCount > 0U)
1062:Drivers/STM32F3xx_HAL_Driver/Src/stm32f3xx_hal_i2c.c ****     {
1063:Drivers/STM32F3xx_HAL_Driver/Src/stm32f3xx_hal_i2c.c ****       /* Wait until RXNE flag is set */
1064:Drivers/STM32F3xx_HAL_Driver/Src/stm32f3xx_hal_i2c.c ****       if (I2C_WaitOnRXNEFlagUntilTimeout(hi2c, Timeout, tickstart) != HAL_OK)
 1528              		.loc 1 1064 0
 1529 00e4 7A69     		ldr	r2, [r7, #20]
 1530 00e6 3968     		ldr	r1, [r7]
 1531 00e8 F868     		ldr	r0, [r7, #12]
 1532 00ea FFF7FEFF 		bl	I2C_WaitOnRXNEFlagUntilTimeout
 1533 00ee 0346     		mov	r3, r0
 1534 00f0 002B     		cmp	r3, #0
 1535 00f2 27D0     		beq	.L73
1065:Drivers/STM32F3xx_HAL_Driver/Src/stm32f3xx_hal_i2c.c ****       {
1066:Drivers/STM32F3xx_HAL_Driver/Src/stm32f3xx_hal_i2c.c ****         /* Disable Address Acknowledge */
1067:Drivers/STM32F3xx_HAL_Driver/Src/stm32f3xx_hal_i2c.c ****         hi2c->Instance->CR2 |= I2C_CR2_NACK;
 1536              		.loc 1 1067 0
 1537 00f4 FB68     		ldr	r3, [r7, #12]
 1538 00f6 1B68     		ldr	r3, [r3]
 1539 00f8 5A68     		ldr	r2, [r3, #4]
 1540 00fa FB68     		ldr	r3, [r7, #12]
 1541 00fc 1B68     		ldr	r3, [r3]
 1542 00fe 42F40042 		orr	r2, r2, #32768
 1543 0102 5A60     		str	r2, [r3, #4]
1068:Drivers/STM32F3xx_HAL_Driver/Src/stm32f3xx_hal_i2c.c **** 
1069:Drivers/STM32F3xx_HAL_Driver/Src/stm32f3xx_hal_i2c.c ****         /* Store Last receive data if any */
1070:Drivers/STM32F3xx_HAL_Driver/Src/stm32f3xx_hal_i2c.c ****         if (__HAL_I2C_GET_FLAG(hi2c, I2C_FLAG_RXNE) == SET)
 1544              		.loc 1 1070 0
 1545 0104 FB68     		ldr	r3, [r7, #12]
 1546 0106 1B68     		ldr	r3, [r3]
 1547 0108 9B69     		ldr	r3, [r3, #24]
 1548 010a 03F00403 		and	r3, r3, #4
 1549 010e 042B     		cmp	r3, #4
 1550 0110 10D1     		bne	.L74
1071:Drivers/STM32F3xx_HAL_Driver/Src/stm32f3xx_hal_i2c.c ****         {
1072:Drivers/STM32F3xx_HAL_Driver/Src/stm32f3xx_hal_i2c.c ****           /* Read data from RXDR */
1073:Drivers/STM32F3xx_HAL_Driver/Src/stm32f3xx_hal_i2c.c ****           (*hi2c->pBuffPtr++) = hi2c->Instance->RXDR;
 1551              		.loc 1 1073 0
 1552 0112 FB68     		ldr	r3, [r7, #12]
 1553 0114 1B68     		ldr	r3, [r3]
 1554 0116 586A     		ldr	r0, [r3, #36]
 1555 0118 FB68     		ldr	r3, [r7, #12]
 1556 011a 5B6A     		ldr	r3, [r3, #36]
 1557 011c 591C     		adds	r1, r3, #1
 1558 011e FA68     		ldr	r2, [r7, #12]
 1559 0120 5162     		str	r1, [r2, #36]
 1560 0122 C2B2     		uxtb	r2, r0
 1561 0124 1A70     		strb	r2, [r3]
1074:Drivers/STM32F3xx_HAL_Driver/Src/stm32f3xx_hal_i2c.c ****           hi2c->XferCount--;
 1562              		.loc 1 1074 0
ARM GAS  /tmp/ccy0jiyr.s 			page 47


 1563 0126 FB68     		ldr	r3, [r7, #12]
 1564 0128 5B8D     		ldrh	r3, [r3, #42]	@ movhi
 1565 012a 9BB2     		uxth	r3, r3
 1566 012c 013B     		subs	r3, r3, #1
 1567 012e 9AB2     		uxth	r2, r3
 1568 0130 FB68     		ldr	r3, [r7, #12]
 1569 0132 5A85     		strh	r2, [r3, #42]	@ movhi
 1570              	.L74:
1075:Drivers/STM32F3xx_HAL_Driver/Src/stm32f3xx_hal_i2c.c ****         }
1076:Drivers/STM32F3xx_HAL_Driver/Src/stm32f3xx_hal_i2c.c **** 
1077:Drivers/STM32F3xx_HAL_Driver/Src/stm32f3xx_hal_i2c.c ****         if (hi2c->ErrorCode == HAL_I2C_ERROR_TIMEOUT)
 1571              		.loc 1 1077 0
 1572 0134 FB68     		ldr	r3, [r7, #12]
 1573 0136 5B6C     		ldr	r3, [r3, #68]
 1574 0138 202B     		cmp	r3, #32
 1575 013a 01D1     		bne	.L75
1078:Drivers/STM32F3xx_HAL_Driver/Src/stm32f3xx_hal_i2c.c ****         {
1079:Drivers/STM32F3xx_HAL_Driver/Src/stm32f3xx_hal_i2c.c ****           return HAL_TIMEOUT;
 1576              		.loc 1 1079 0
 1577 013c 0323     		movs	r3, #3
 1578 013e 60E0     		b	.L68
 1579              	.L75:
1080:Drivers/STM32F3xx_HAL_Driver/Src/stm32f3xx_hal_i2c.c ****         }
1081:Drivers/STM32F3xx_HAL_Driver/Src/stm32f3xx_hal_i2c.c ****         else
1082:Drivers/STM32F3xx_HAL_Driver/Src/stm32f3xx_hal_i2c.c ****         {
1083:Drivers/STM32F3xx_HAL_Driver/Src/stm32f3xx_hal_i2c.c ****           return HAL_ERROR;
 1580              		.loc 1 1083 0
 1581 0140 0123     		movs	r3, #1
 1582 0142 5EE0     		b	.L68
 1583              	.L73:
1084:Drivers/STM32F3xx_HAL_Driver/Src/stm32f3xx_hal_i2c.c ****         }
1085:Drivers/STM32F3xx_HAL_Driver/Src/stm32f3xx_hal_i2c.c ****       }
1086:Drivers/STM32F3xx_HAL_Driver/Src/stm32f3xx_hal_i2c.c **** 
1087:Drivers/STM32F3xx_HAL_Driver/Src/stm32f3xx_hal_i2c.c ****       /* Read data from RXDR */
1088:Drivers/STM32F3xx_HAL_Driver/Src/stm32f3xx_hal_i2c.c ****       (*hi2c->pBuffPtr++) = hi2c->Instance->RXDR;
 1584              		.loc 1 1088 0
 1585 0144 FB68     		ldr	r3, [r7, #12]
 1586 0146 1B68     		ldr	r3, [r3]
 1587 0148 586A     		ldr	r0, [r3, #36]
 1588 014a FB68     		ldr	r3, [r7, #12]
 1589 014c 5B6A     		ldr	r3, [r3, #36]
 1590 014e 591C     		adds	r1, r3, #1
 1591 0150 FA68     		ldr	r2, [r7, #12]
 1592 0152 5162     		str	r1, [r2, #36]
 1593 0154 C2B2     		uxtb	r2, r0
 1594 0156 1A70     		strb	r2, [r3]
1089:Drivers/STM32F3xx_HAL_Driver/Src/stm32f3xx_hal_i2c.c ****       hi2c->XferCount--;
 1595              		.loc 1 1089 0
 1596 0158 FB68     		ldr	r3, [r7, #12]
 1597 015a 5B8D     		ldrh	r3, [r3, #42]	@ movhi
 1598 015c 9BB2     		uxth	r3, r3
 1599 015e 013B     		subs	r3, r3, #1
 1600 0160 9AB2     		uxth	r2, r3
 1601 0162 FB68     		ldr	r3, [r7, #12]
 1602 0164 5A85     		strh	r2, [r3, #42]	@ movhi
 1603              	.L72:
1061:Drivers/STM32F3xx_HAL_Driver/Src/stm32f3xx_hal_i2c.c ****     {
ARM GAS  /tmp/ccy0jiyr.s 			page 48


 1604              		.loc 1 1061 0
 1605 0166 FB68     		ldr	r3, [r7, #12]
 1606 0168 5B8D     		ldrh	r3, [r3, #42]	@ movhi
 1607 016a 9BB2     		uxth	r3, r3
 1608 016c 002B     		cmp	r3, #0
 1609 016e B9D1     		bne	.L76
1090:Drivers/STM32F3xx_HAL_Driver/Src/stm32f3xx_hal_i2c.c ****     }
1091:Drivers/STM32F3xx_HAL_Driver/Src/stm32f3xx_hal_i2c.c **** 
1092:Drivers/STM32F3xx_HAL_Driver/Src/stm32f3xx_hal_i2c.c ****     /* Wait until STOP flag is set */
1093:Drivers/STM32F3xx_HAL_Driver/Src/stm32f3xx_hal_i2c.c ****     if (I2C_WaitOnSTOPFlagUntilTimeout(hi2c, Timeout, tickstart) != HAL_OK)
 1610              		.loc 1 1093 0
 1611 0170 7A69     		ldr	r2, [r7, #20]
 1612 0172 3968     		ldr	r1, [r7]
 1613 0174 F868     		ldr	r0, [r7, #12]
 1614 0176 FFF7FEFF 		bl	I2C_WaitOnSTOPFlagUntilTimeout
 1615 017a 0346     		mov	r3, r0
 1616 017c 002B     		cmp	r3, #0
 1617 017e 0FD0     		beq	.L77
1094:Drivers/STM32F3xx_HAL_Driver/Src/stm32f3xx_hal_i2c.c ****     {
1095:Drivers/STM32F3xx_HAL_Driver/Src/stm32f3xx_hal_i2c.c ****       /* Disable Address Acknowledge */
1096:Drivers/STM32F3xx_HAL_Driver/Src/stm32f3xx_hal_i2c.c ****       hi2c->Instance->CR2 |= I2C_CR2_NACK;
 1618              		.loc 1 1096 0
 1619 0180 FB68     		ldr	r3, [r7, #12]
 1620 0182 1B68     		ldr	r3, [r3]
 1621 0184 5A68     		ldr	r2, [r3, #4]
 1622 0186 FB68     		ldr	r3, [r7, #12]
 1623 0188 1B68     		ldr	r3, [r3]
 1624 018a 42F40042 		orr	r2, r2, #32768
 1625 018e 5A60     		str	r2, [r3, #4]
1097:Drivers/STM32F3xx_HAL_Driver/Src/stm32f3xx_hal_i2c.c **** 
1098:Drivers/STM32F3xx_HAL_Driver/Src/stm32f3xx_hal_i2c.c ****       if (hi2c->ErrorCode == HAL_I2C_ERROR_AF)
 1626              		.loc 1 1098 0
 1627 0190 FB68     		ldr	r3, [r7, #12]
 1628 0192 5B6C     		ldr	r3, [r3, #68]
 1629 0194 042B     		cmp	r3, #4
 1630 0196 01D1     		bne	.L78
1099:Drivers/STM32F3xx_HAL_Driver/Src/stm32f3xx_hal_i2c.c ****       {
1100:Drivers/STM32F3xx_HAL_Driver/Src/stm32f3xx_hal_i2c.c ****         return HAL_ERROR;
 1631              		.loc 1 1100 0
 1632 0198 0123     		movs	r3, #1
 1633 019a 32E0     		b	.L68
 1634              	.L78:
1101:Drivers/STM32F3xx_HAL_Driver/Src/stm32f3xx_hal_i2c.c ****       }
1102:Drivers/STM32F3xx_HAL_Driver/Src/stm32f3xx_hal_i2c.c ****       else
1103:Drivers/STM32F3xx_HAL_Driver/Src/stm32f3xx_hal_i2c.c ****       {
1104:Drivers/STM32F3xx_HAL_Driver/Src/stm32f3xx_hal_i2c.c ****         return HAL_TIMEOUT;
 1635              		.loc 1 1104 0
 1636 019c 0323     		movs	r3, #3
 1637 019e 30E0     		b	.L68
 1638              	.L77:
1105:Drivers/STM32F3xx_HAL_Driver/Src/stm32f3xx_hal_i2c.c ****       }
1106:Drivers/STM32F3xx_HAL_Driver/Src/stm32f3xx_hal_i2c.c ****     }
1107:Drivers/STM32F3xx_HAL_Driver/Src/stm32f3xx_hal_i2c.c **** 
1108:Drivers/STM32F3xx_HAL_Driver/Src/stm32f3xx_hal_i2c.c ****     /* Clear STOP flag */
1109:Drivers/STM32F3xx_HAL_Driver/Src/stm32f3xx_hal_i2c.c ****     __HAL_I2C_CLEAR_FLAG(hi2c, I2C_FLAG_STOPF);
 1639              		.loc 1 1109 0
 1640 01a0 FB68     		ldr	r3, [r7, #12]
ARM GAS  /tmp/ccy0jiyr.s 			page 49


 1641 01a2 1B68     		ldr	r3, [r3]
 1642 01a4 2022     		movs	r2, #32
 1643 01a6 DA61     		str	r2, [r3, #28]
1110:Drivers/STM32F3xx_HAL_Driver/Src/stm32f3xx_hal_i2c.c **** 
1111:Drivers/STM32F3xx_HAL_Driver/Src/stm32f3xx_hal_i2c.c ****     /* Wait until BUSY flag is reset */
1112:Drivers/STM32F3xx_HAL_Driver/Src/stm32f3xx_hal_i2c.c ****     if (I2C_WaitOnFlagUntilTimeout(hi2c, I2C_FLAG_BUSY, SET, Timeout, tickstart) != HAL_OK)
 1644              		.loc 1 1112 0
 1645 01a8 7B69     		ldr	r3, [r7, #20]
 1646 01aa 0093     		str	r3, [sp]
 1647 01ac 3B68     		ldr	r3, [r7]
 1648 01ae 0122     		movs	r2, #1
 1649 01b0 4FF40041 		mov	r1, #32768
 1650 01b4 F868     		ldr	r0, [r7, #12]
 1651 01b6 FFF7FEFF 		bl	I2C_WaitOnFlagUntilTimeout
 1652 01ba 0346     		mov	r3, r0
 1653 01bc 002B     		cmp	r3, #0
 1654 01be 09D0     		beq	.L79
1113:Drivers/STM32F3xx_HAL_Driver/Src/stm32f3xx_hal_i2c.c ****     {
1114:Drivers/STM32F3xx_HAL_Driver/Src/stm32f3xx_hal_i2c.c ****       /* Disable Address Acknowledge */
1115:Drivers/STM32F3xx_HAL_Driver/Src/stm32f3xx_hal_i2c.c ****       hi2c->Instance->CR2 |= I2C_CR2_NACK;
 1655              		.loc 1 1115 0
 1656 01c0 FB68     		ldr	r3, [r7, #12]
 1657 01c2 1B68     		ldr	r3, [r3]
 1658 01c4 5A68     		ldr	r2, [r3, #4]
 1659 01c6 FB68     		ldr	r3, [r7, #12]
 1660 01c8 1B68     		ldr	r3, [r3]
 1661 01ca 42F40042 		orr	r2, r2, #32768
 1662 01ce 5A60     		str	r2, [r3, #4]
1116:Drivers/STM32F3xx_HAL_Driver/Src/stm32f3xx_hal_i2c.c ****       return HAL_TIMEOUT;
 1663              		.loc 1 1116 0
 1664 01d0 0323     		movs	r3, #3
 1665 01d2 16E0     		b	.L68
 1666              	.L79:
1117:Drivers/STM32F3xx_HAL_Driver/Src/stm32f3xx_hal_i2c.c ****     }
1118:Drivers/STM32F3xx_HAL_Driver/Src/stm32f3xx_hal_i2c.c **** 
1119:Drivers/STM32F3xx_HAL_Driver/Src/stm32f3xx_hal_i2c.c ****     /* Disable Address Acknowledge */
1120:Drivers/STM32F3xx_HAL_Driver/Src/stm32f3xx_hal_i2c.c ****     hi2c->Instance->CR2 |= I2C_CR2_NACK;
 1667              		.loc 1 1120 0
 1668 01d4 FB68     		ldr	r3, [r7, #12]
 1669 01d6 1B68     		ldr	r3, [r3]
 1670 01d8 5A68     		ldr	r2, [r3, #4]
 1671 01da FB68     		ldr	r3, [r7, #12]
 1672 01dc 1B68     		ldr	r3, [r3]
 1673 01de 42F40042 		orr	r2, r2, #32768
 1674 01e2 5A60     		str	r2, [r3, #4]
1121:Drivers/STM32F3xx_HAL_Driver/Src/stm32f3xx_hal_i2c.c **** 
1122:Drivers/STM32F3xx_HAL_Driver/Src/stm32f3xx_hal_i2c.c ****     hi2c->State = HAL_I2C_STATE_READY;
 1675              		.loc 1 1122 0
 1676 01e4 FB68     		ldr	r3, [r7, #12]
 1677 01e6 2022     		movs	r2, #32
 1678 01e8 83F84120 		strb	r2, [r3, #65]
1123:Drivers/STM32F3xx_HAL_Driver/Src/stm32f3xx_hal_i2c.c ****     hi2c->Mode  = HAL_I2C_MODE_NONE;
 1679              		.loc 1 1123 0
 1680 01ec FB68     		ldr	r3, [r7, #12]
 1681 01ee 0022     		movs	r2, #0
 1682 01f0 83F84220 		strb	r2, [r3, #66]
1124:Drivers/STM32F3xx_HAL_Driver/Src/stm32f3xx_hal_i2c.c **** 
ARM GAS  /tmp/ccy0jiyr.s 			page 50


1125:Drivers/STM32F3xx_HAL_Driver/Src/stm32f3xx_hal_i2c.c ****     /* Process Unlocked */
1126:Drivers/STM32F3xx_HAL_Driver/Src/stm32f3xx_hal_i2c.c ****     __HAL_UNLOCK(hi2c);
 1683              		.loc 1 1126 0
 1684 01f4 FB68     		ldr	r3, [r7, #12]
 1685 01f6 0022     		movs	r2, #0
 1686 01f8 83F84020 		strb	r2, [r3, #64]
1127:Drivers/STM32F3xx_HAL_Driver/Src/stm32f3xx_hal_i2c.c **** 
1128:Drivers/STM32F3xx_HAL_Driver/Src/stm32f3xx_hal_i2c.c ****     return HAL_OK;
 1687              		.loc 1 1128 0
 1688 01fc 0023     		movs	r3, #0
 1689 01fe 00E0     		b	.L68
 1690              	.L65:
1129:Drivers/STM32F3xx_HAL_Driver/Src/stm32f3xx_hal_i2c.c ****   }
1130:Drivers/STM32F3xx_HAL_Driver/Src/stm32f3xx_hal_i2c.c ****   else
1131:Drivers/STM32F3xx_HAL_Driver/Src/stm32f3xx_hal_i2c.c ****   {
1132:Drivers/STM32F3xx_HAL_Driver/Src/stm32f3xx_hal_i2c.c ****     return HAL_BUSY;
 1691              		.loc 1 1132 0
 1692 0200 0223     		movs	r3, #2
 1693              	.L68:
1133:Drivers/STM32F3xx_HAL_Driver/Src/stm32f3xx_hal_i2c.c ****   }
1134:Drivers/STM32F3xx_HAL_Driver/Src/stm32f3xx_hal_i2c.c **** }
 1694              		.loc 1 1134 0
 1695 0202 1846     		mov	r0, r3
 1696 0204 1837     		adds	r7, r7, #24
 1697              	.LCFI40:
 1698              		.cfi_def_cfa_offset 8
 1699 0206 BD46     		mov	sp, r7
 1700              	.LCFI41:
 1701              		.cfi_def_cfa_register 13
 1702              		@ sp needed
 1703 0208 80BD     		pop	{r7, pc}
 1704              		.cfi_endproc
 1705              	.LFE702:
 1707              		.section	.text.HAL_I2C_Master_Transmit_IT,"ax",%progbits
 1708              		.align	1
 1709              		.global	HAL_I2C_Master_Transmit_IT
 1710              		.syntax unified
 1711              		.thumb
 1712              		.thumb_func
 1713              		.fpu fpv4-sp-d16
 1715              	HAL_I2C_Master_Transmit_IT:
 1716              	.LFB703:
1135:Drivers/STM32F3xx_HAL_Driver/Src/stm32f3xx_hal_i2c.c **** 
1136:Drivers/STM32F3xx_HAL_Driver/Src/stm32f3xx_hal_i2c.c **** /**
1137:Drivers/STM32F3xx_HAL_Driver/Src/stm32f3xx_hal_i2c.c ****   * @brief  Transmit in master mode an amount of data in non-blocking mode with Interrupt
1138:Drivers/STM32F3xx_HAL_Driver/Src/stm32f3xx_hal_i2c.c ****   * @param  hi2c Pointer to a I2C_HandleTypeDef structure that contains
1139:Drivers/STM32F3xx_HAL_Driver/Src/stm32f3xx_hal_i2c.c ****   *                the configuration information for the specified I2C.
1140:Drivers/STM32F3xx_HAL_Driver/Src/stm32f3xx_hal_i2c.c ****   * @param  DevAddress Target device address: The device 7 bits address value
1141:Drivers/STM32F3xx_HAL_Driver/Src/stm32f3xx_hal_i2c.c ****   *         in datasheet must be shift at right before call interface
1142:Drivers/STM32F3xx_HAL_Driver/Src/stm32f3xx_hal_i2c.c ****   * @param  pData Pointer to data buffer
1143:Drivers/STM32F3xx_HAL_Driver/Src/stm32f3xx_hal_i2c.c ****   * @param  Size Amount of data to be sent
1144:Drivers/STM32F3xx_HAL_Driver/Src/stm32f3xx_hal_i2c.c ****   * @retval HAL status
1145:Drivers/STM32F3xx_HAL_Driver/Src/stm32f3xx_hal_i2c.c ****   */
1146:Drivers/STM32F3xx_HAL_Driver/Src/stm32f3xx_hal_i2c.c **** HAL_StatusTypeDef HAL_I2C_Master_Transmit_IT(I2C_HandleTypeDef *hi2c, uint16_t DevAddress, uint8_t 
1147:Drivers/STM32F3xx_HAL_Driver/Src/stm32f3xx_hal_i2c.c **** {
 1717              		.loc 1 1147 0
 1718              		.cfi_startproc
ARM GAS  /tmp/ccy0jiyr.s 			page 51


 1719              		@ args = 0, pretend = 0, frame = 24
 1720              		@ frame_needed = 1, uses_anonymous_args = 0
 1721 0000 80B5     		push	{r7, lr}
 1722              	.LCFI42:
 1723              		.cfi_def_cfa_offset 8
 1724              		.cfi_offset 7, -8
 1725              		.cfi_offset 14, -4
 1726 0002 88B0     		sub	sp, sp, #32
 1727              	.LCFI43:
 1728              		.cfi_def_cfa_offset 40
 1729 0004 02AF     		add	r7, sp, #8
 1730              	.LCFI44:
 1731              		.cfi_def_cfa 7, 32
 1732 0006 F860     		str	r0, [r7, #12]
 1733 0008 7A60     		str	r2, [r7, #4]
 1734 000a 1A46     		mov	r2, r3
 1735 000c 0B46     		mov	r3, r1	@ movhi
 1736 000e 7B81     		strh	r3, [r7, #10]	@ movhi
 1737 0010 1346     		mov	r3, r2	@ movhi
 1738 0012 3B81     		strh	r3, [r7, #8]	@ movhi
1148:Drivers/STM32F3xx_HAL_Driver/Src/stm32f3xx_hal_i2c.c ****   uint32_t xfermode = 0U;
 1739              		.loc 1 1148 0
 1740 0014 0023     		movs	r3, #0
 1741 0016 7B61     		str	r3, [r7, #20]
1149:Drivers/STM32F3xx_HAL_Driver/Src/stm32f3xx_hal_i2c.c **** 
1150:Drivers/STM32F3xx_HAL_Driver/Src/stm32f3xx_hal_i2c.c ****   if (hi2c->State == HAL_I2C_STATE_READY)
 1742              		.loc 1 1150 0
 1743 0018 FB68     		ldr	r3, [r7, #12]
 1744 001a 93F84130 		ldrb	r3, [r3, #65]
 1745 001e DBB2     		uxtb	r3, r3
 1746 0020 202B     		cmp	r3, #32
 1747 0022 54D1     		bne	.L81
1151:Drivers/STM32F3xx_HAL_Driver/Src/stm32f3xx_hal_i2c.c ****   {
1152:Drivers/STM32F3xx_HAL_Driver/Src/stm32f3xx_hal_i2c.c ****     if (__HAL_I2C_GET_FLAG(hi2c, I2C_FLAG_BUSY) == SET)
 1748              		.loc 1 1152 0
 1749 0024 FB68     		ldr	r3, [r7, #12]
 1750 0026 1B68     		ldr	r3, [r3]
 1751 0028 9B69     		ldr	r3, [r3, #24]
 1752 002a 03F40043 		and	r3, r3, #32768
 1753 002e B3F5004F 		cmp	r3, #32768
 1754 0032 01D1     		bne	.L82
1153:Drivers/STM32F3xx_HAL_Driver/Src/stm32f3xx_hal_i2c.c ****     {
1154:Drivers/STM32F3xx_HAL_Driver/Src/stm32f3xx_hal_i2c.c ****       return HAL_BUSY;
 1755              		.loc 1 1154 0
 1756 0034 0223     		movs	r3, #2
 1757 0036 4BE0     		b	.L83
 1758              	.L82:
1155:Drivers/STM32F3xx_HAL_Driver/Src/stm32f3xx_hal_i2c.c ****     }
1156:Drivers/STM32F3xx_HAL_Driver/Src/stm32f3xx_hal_i2c.c **** 
1157:Drivers/STM32F3xx_HAL_Driver/Src/stm32f3xx_hal_i2c.c ****     /* Process Locked */
1158:Drivers/STM32F3xx_HAL_Driver/Src/stm32f3xx_hal_i2c.c ****     __HAL_LOCK(hi2c);
 1759              		.loc 1 1158 0
 1760 0038 FB68     		ldr	r3, [r7, #12]
 1761 003a 93F84030 		ldrb	r3, [r3, #64]	@ zero_extendqisi2
 1762 003e 012B     		cmp	r3, #1
 1763 0040 01D1     		bne	.L84
 1764              		.loc 1 1158 0 is_stmt 0 discriminator 1
ARM GAS  /tmp/ccy0jiyr.s 			page 52


 1765 0042 0223     		movs	r3, #2
 1766 0044 44E0     		b	.L83
 1767              	.L84:
 1768              		.loc 1 1158 0 discriminator 2
 1769 0046 FB68     		ldr	r3, [r7, #12]
 1770 0048 0122     		movs	r2, #1
 1771 004a 83F84020 		strb	r2, [r3, #64]
1159:Drivers/STM32F3xx_HAL_Driver/Src/stm32f3xx_hal_i2c.c **** 
1160:Drivers/STM32F3xx_HAL_Driver/Src/stm32f3xx_hal_i2c.c ****     hi2c->State       = HAL_I2C_STATE_BUSY_TX;
 1772              		.loc 1 1160 0 is_stmt 1 discriminator 2
 1773 004e FB68     		ldr	r3, [r7, #12]
 1774 0050 2122     		movs	r2, #33
 1775 0052 83F84120 		strb	r2, [r3, #65]
1161:Drivers/STM32F3xx_HAL_Driver/Src/stm32f3xx_hal_i2c.c ****     hi2c->Mode        = HAL_I2C_MODE_MASTER;
 1776              		.loc 1 1161 0 discriminator 2
 1777 0056 FB68     		ldr	r3, [r7, #12]
 1778 0058 1022     		movs	r2, #16
 1779 005a 83F84220 		strb	r2, [r3, #66]
1162:Drivers/STM32F3xx_HAL_Driver/Src/stm32f3xx_hal_i2c.c ****     hi2c->ErrorCode   = HAL_I2C_ERROR_NONE;
 1780              		.loc 1 1162 0 discriminator 2
 1781 005e FB68     		ldr	r3, [r7, #12]
 1782 0060 0022     		movs	r2, #0
 1783 0062 5A64     		str	r2, [r3, #68]
1163:Drivers/STM32F3xx_HAL_Driver/Src/stm32f3xx_hal_i2c.c **** 
1164:Drivers/STM32F3xx_HAL_Driver/Src/stm32f3xx_hal_i2c.c ****     /* Prepare transfer parameters */
1165:Drivers/STM32F3xx_HAL_Driver/Src/stm32f3xx_hal_i2c.c ****     hi2c->pBuffPtr    = pData;
 1784              		.loc 1 1165 0 discriminator 2
 1785 0064 FB68     		ldr	r3, [r7, #12]
 1786 0066 7A68     		ldr	r2, [r7, #4]
 1787 0068 5A62     		str	r2, [r3, #36]
1166:Drivers/STM32F3xx_HAL_Driver/Src/stm32f3xx_hal_i2c.c ****     hi2c->XferCount   = Size;
 1788              		.loc 1 1166 0 discriminator 2
 1789 006a FB68     		ldr	r3, [r7, #12]
 1790 006c 3A89     		ldrh	r2, [r7, #8]	@ movhi
 1791 006e 5A85     		strh	r2, [r3, #42]	@ movhi
1167:Drivers/STM32F3xx_HAL_Driver/Src/stm32f3xx_hal_i2c.c ****     hi2c->XferOptions = I2C_NO_OPTION_FRAME;
 1792              		.loc 1 1167 0 discriminator 2
 1793 0070 FB68     		ldr	r3, [r7, #12]
 1794 0072 194A     		ldr	r2, .L87
 1795 0074 DA62     		str	r2, [r3, #44]
1168:Drivers/STM32F3xx_HAL_Driver/Src/stm32f3xx_hal_i2c.c ****     hi2c->XferISR     = I2C_Master_ISR_IT;
 1796              		.loc 1 1168 0 discriminator 2
 1797 0076 FB68     		ldr	r3, [r7, #12]
 1798 0078 184A     		ldr	r2, .L87+4
 1799 007a 5A63     		str	r2, [r3, #52]
1169:Drivers/STM32F3xx_HAL_Driver/Src/stm32f3xx_hal_i2c.c **** 
1170:Drivers/STM32F3xx_HAL_Driver/Src/stm32f3xx_hal_i2c.c ****     if (hi2c->XferCount > MAX_NBYTE_SIZE)
 1800              		.loc 1 1170 0 discriminator 2
 1801 007c FB68     		ldr	r3, [r7, #12]
 1802 007e 5B8D     		ldrh	r3, [r3, #42]	@ movhi
 1803 0080 9BB2     		uxth	r3, r3
 1804 0082 FF2B     		cmp	r3, #255
 1805 0084 06D9     		bls	.L85
1171:Drivers/STM32F3xx_HAL_Driver/Src/stm32f3xx_hal_i2c.c ****     {
1172:Drivers/STM32F3xx_HAL_Driver/Src/stm32f3xx_hal_i2c.c ****       hi2c->XferSize = MAX_NBYTE_SIZE;
 1806              		.loc 1 1172 0
 1807 0086 FB68     		ldr	r3, [r7, #12]
ARM GAS  /tmp/ccy0jiyr.s 			page 53


 1808 0088 FF22     		movs	r2, #255
 1809 008a 1A85     		strh	r2, [r3, #40]	@ movhi
1173:Drivers/STM32F3xx_HAL_Driver/Src/stm32f3xx_hal_i2c.c ****       xfermode = I2C_RELOAD_MODE;
 1810              		.loc 1 1173 0
 1811 008c 4FF08073 		mov	r3, #16777216
 1812 0090 7B61     		str	r3, [r7, #20]
 1813 0092 07E0     		b	.L86
 1814              	.L85:
1174:Drivers/STM32F3xx_HAL_Driver/Src/stm32f3xx_hal_i2c.c ****     }
1175:Drivers/STM32F3xx_HAL_Driver/Src/stm32f3xx_hal_i2c.c ****     else
1176:Drivers/STM32F3xx_HAL_Driver/Src/stm32f3xx_hal_i2c.c ****     {
1177:Drivers/STM32F3xx_HAL_Driver/Src/stm32f3xx_hal_i2c.c ****       hi2c->XferSize = hi2c->XferCount;
 1815              		.loc 1 1177 0
 1816 0094 FB68     		ldr	r3, [r7, #12]
 1817 0096 5B8D     		ldrh	r3, [r3, #42]	@ movhi
 1818 0098 9AB2     		uxth	r2, r3
 1819 009a FB68     		ldr	r3, [r7, #12]
 1820 009c 1A85     		strh	r2, [r3, #40]	@ movhi
1178:Drivers/STM32F3xx_HAL_Driver/Src/stm32f3xx_hal_i2c.c ****       xfermode = I2C_AUTOEND_MODE;
 1821              		.loc 1 1178 0
 1822 009e 4FF00073 		mov	r3, #33554432
 1823 00a2 7B61     		str	r3, [r7, #20]
 1824              	.L86:
1179:Drivers/STM32F3xx_HAL_Driver/Src/stm32f3xx_hal_i2c.c ****     }
1180:Drivers/STM32F3xx_HAL_Driver/Src/stm32f3xx_hal_i2c.c **** 
1181:Drivers/STM32F3xx_HAL_Driver/Src/stm32f3xx_hal_i2c.c ****     /* Send Slave Address */
1182:Drivers/STM32F3xx_HAL_Driver/Src/stm32f3xx_hal_i2c.c ****     /* Set NBYTES to write and reload if hi2c->XferCount > MAX_NBYTE_SIZE */
1183:Drivers/STM32F3xx_HAL_Driver/Src/stm32f3xx_hal_i2c.c ****     I2C_TransferConfig(hi2c, DevAddress, hi2c->XferSize, xfermode, I2C_GENERATE_START_WRITE);
 1825              		.loc 1 1183 0
 1826 00a4 FB68     		ldr	r3, [r7, #12]
 1827 00a6 1B8D     		ldrh	r3, [r3, #40]
 1828 00a8 DAB2     		uxtb	r2, r3
 1829 00aa 7989     		ldrh	r1, [r7, #10]
 1830 00ac 4FF40053 		mov	r3, #8192
 1831 00b0 0093     		str	r3, [sp]
 1832 00b2 7B69     		ldr	r3, [r7, #20]
 1833 00b4 F868     		ldr	r0, [r7, #12]
 1834 00b6 FFF7FEFF 		bl	I2C_TransferConfig
1184:Drivers/STM32F3xx_HAL_Driver/Src/stm32f3xx_hal_i2c.c **** 
1185:Drivers/STM32F3xx_HAL_Driver/Src/stm32f3xx_hal_i2c.c ****     /* Process Unlocked */
1186:Drivers/STM32F3xx_HAL_Driver/Src/stm32f3xx_hal_i2c.c ****     __HAL_UNLOCK(hi2c);
 1835              		.loc 1 1186 0
 1836 00ba FB68     		ldr	r3, [r7, #12]
 1837 00bc 0022     		movs	r2, #0
 1838 00be 83F84020 		strb	r2, [r3, #64]
1187:Drivers/STM32F3xx_HAL_Driver/Src/stm32f3xx_hal_i2c.c **** 
1188:Drivers/STM32F3xx_HAL_Driver/Src/stm32f3xx_hal_i2c.c ****     /* Note : The I2C interrupts must be enabled after unlocking current process
1189:Drivers/STM32F3xx_HAL_Driver/Src/stm32f3xx_hal_i2c.c ****               to avoid the risk of I2C interrupt handle execution before current
1190:Drivers/STM32F3xx_HAL_Driver/Src/stm32f3xx_hal_i2c.c ****               process unlock */
1191:Drivers/STM32F3xx_HAL_Driver/Src/stm32f3xx_hal_i2c.c **** 
1192:Drivers/STM32F3xx_HAL_Driver/Src/stm32f3xx_hal_i2c.c ****     /* Enable ERR, TC, STOP, NACK, TXI interrupt */
1193:Drivers/STM32F3xx_HAL_Driver/Src/stm32f3xx_hal_i2c.c ****     /* possible to enable all of these */
1194:Drivers/STM32F3xx_HAL_Driver/Src/stm32f3xx_hal_i2c.c ****     /* I2C_IT_ERRI | I2C_IT_TCI| I2C_IT_STOPI| I2C_IT_NACKI | I2C_IT_ADDRI | I2C_IT_RXI | I2C_IT_TX
1195:Drivers/STM32F3xx_HAL_Driver/Src/stm32f3xx_hal_i2c.c ****     I2C_Enable_IRQ(hi2c, I2C_XFER_TX_IT);
 1839              		.loc 1 1195 0
 1840 00c2 0121     		movs	r1, #1
 1841 00c4 F868     		ldr	r0, [r7, #12]
ARM GAS  /tmp/ccy0jiyr.s 			page 54


 1842 00c6 FFF7FEFF 		bl	I2C_Enable_IRQ
1196:Drivers/STM32F3xx_HAL_Driver/Src/stm32f3xx_hal_i2c.c **** 
1197:Drivers/STM32F3xx_HAL_Driver/Src/stm32f3xx_hal_i2c.c ****     return HAL_OK;
 1843              		.loc 1 1197 0
 1844 00ca 0023     		movs	r3, #0
 1845 00cc 00E0     		b	.L83
 1846              	.L81:
1198:Drivers/STM32F3xx_HAL_Driver/Src/stm32f3xx_hal_i2c.c ****   }
1199:Drivers/STM32F3xx_HAL_Driver/Src/stm32f3xx_hal_i2c.c ****   else
1200:Drivers/STM32F3xx_HAL_Driver/Src/stm32f3xx_hal_i2c.c ****   {
1201:Drivers/STM32F3xx_HAL_Driver/Src/stm32f3xx_hal_i2c.c ****     return HAL_BUSY;
 1847              		.loc 1 1201 0
 1848 00ce 0223     		movs	r3, #2
 1849              	.L83:
1202:Drivers/STM32F3xx_HAL_Driver/Src/stm32f3xx_hal_i2c.c ****   }
1203:Drivers/STM32F3xx_HAL_Driver/Src/stm32f3xx_hal_i2c.c **** }
 1850              		.loc 1 1203 0
 1851 00d0 1846     		mov	r0, r3
 1852 00d2 1837     		adds	r7, r7, #24
 1853              	.LCFI45:
 1854              		.cfi_def_cfa_offset 8
 1855 00d4 BD46     		mov	sp, r7
 1856              	.LCFI46:
 1857              		.cfi_def_cfa_register 13
 1858              		@ sp needed
 1859 00d6 80BD     		pop	{r7, pc}
 1860              	.L88:
 1861              		.align	2
 1862              	.L87:
 1863 00d8 0000FFFF 		.word	-65536
 1864 00dc 00000000 		.word	I2C_Master_ISR_IT
 1865              		.cfi_endproc
 1866              	.LFE703:
 1868              		.section	.text.HAL_I2C_Master_Receive_IT,"ax",%progbits
 1869              		.align	1
 1870              		.global	HAL_I2C_Master_Receive_IT
 1871              		.syntax unified
 1872              		.thumb
 1873              		.thumb_func
 1874              		.fpu fpv4-sp-d16
 1876              	HAL_I2C_Master_Receive_IT:
 1877              	.LFB704:
1204:Drivers/STM32F3xx_HAL_Driver/Src/stm32f3xx_hal_i2c.c **** 
1205:Drivers/STM32F3xx_HAL_Driver/Src/stm32f3xx_hal_i2c.c **** /**
1206:Drivers/STM32F3xx_HAL_Driver/Src/stm32f3xx_hal_i2c.c ****   * @brief  Receive in master mode an amount of data in non-blocking mode with Interrupt
1207:Drivers/STM32F3xx_HAL_Driver/Src/stm32f3xx_hal_i2c.c ****   * @param  hi2c Pointer to a I2C_HandleTypeDef structure that contains
1208:Drivers/STM32F3xx_HAL_Driver/Src/stm32f3xx_hal_i2c.c ****   *                the configuration information for the specified I2C.
1209:Drivers/STM32F3xx_HAL_Driver/Src/stm32f3xx_hal_i2c.c ****   * @param  DevAddress Target device address: The device 7 bits address value
1210:Drivers/STM32F3xx_HAL_Driver/Src/stm32f3xx_hal_i2c.c ****   *         in datasheet must be shift at right before call interface
1211:Drivers/STM32F3xx_HAL_Driver/Src/stm32f3xx_hal_i2c.c ****   * @param  pData Pointer to data buffer
1212:Drivers/STM32F3xx_HAL_Driver/Src/stm32f3xx_hal_i2c.c ****   * @param  Size Amount of data to be sent
1213:Drivers/STM32F3xx_HAL_Driver/Src/stm32f3xx_hal_i2c.c ****   * @retval HAL status
1214:Drivers/STM32F3xx_HAL_Driver/Src/stm32f3xx_hal_i2c.c ****   */
1215:Drivers/STM32F3xx_HAL_Driver/Src/stm32f3xx_hal_i2c.c **** HAL_StatusTypeDef HAL_I2C_Master_Receive_IT(I2C_HandleTypeDef *hi2c, uint16_t DevAddress, uint8_t *
1216:Drivers/STM32F3xx_HAL_Driver/Src/stm32f3xx_hal_i2c.c **** {
 1878              		.loc 1 1216 0
 1879              		.cfi_startproc
ARM GAS  /tmp/ccy0jiyr.s 			page 55


 1880              		@ args = 0, pretend = 0, frame = 24
 1881              		@ frame_needed = 1, uses_anonymous_args = 0
 1882 0000 80B5     		push	{r7, lr}
 1883              	.LCFI47:
 1884              		.cfi_def_cfa_offset 8
 1885              		.cfi_offset 7, -8
 1886              		.cfi_offset 14, -4
 1887 0002 88B0     		sub	sp, sp, #32
 1888              	.LCFI48:
 1889              		.cfi_def_cfa_offset 40
 1890 0004 02AF     		add	r7, sp, #8
 1891              	.LCFI49:
 1892              		.cfi_def_cfa 7, 32
 1893 0006 F860     		str	r0, [r7, #12]
 1894 0008 7A60     		str	r2, [r7, #4]
 1895 000a 1A46     		mov	r2, r3
 1896 000c 0B46     		mov	r3, r1	@ movhi
 1897 000e 7B81     		strh	r3, [r7, #10]	@ movhi
 1898 0010 1346     		mov	r3, r2	@ movhi
 1899 0012 3B81     		strh	r3, [r7, #8]	@ movhi
1217:Drivers/STM32F3xx_HAL_Driver/Src/stm32f3xx_hal_i2c.c ****   uint32_t xfermode = 0U;
 1900              		.loc 1 1217 0
 1901 0014 0023     		movs	r3, #0
 1902 0016 7B61     		str	r3, [r7, #20]
1218:Drivers/STM32F3xx_HAL_Driver/Src/stm32f3xx_hal_i2c.c **** 
1219:Drivers/STM32F3xx_HAL_Driver/Src/stm32f3xx_hal_i2c.c ****   if (hi2c->State == HAL_I2C_STATE_READY)
 1903              		.loc 1 1219 0
 1904 0018 FB68     		ldr	r3, [r7, #12]
 1905 001a 93F84130 		ldrb	r3, [r3, #65]
 1906 001e DBB2     		uxtb	r3, r3
 1907 0020 202B     		cmp	r3, #32
 1908 0022 54D1     		bne	.L90
1220:Drivers/STM32F3xx_HAL_Driver/Src/stm32f3xx_hal_i2c.c ****   {
1221:Drivers/STM32F3xx_HAL_Driver/Src/stm32f3xx_hal_i2c.c ****     if (__HAL_I2C_GET_FLAG(hi2c, I2C_FLAG_BUSY) == SET)
 1909              		.loc 1 1221 0
 1910 0024 FB68     		ldr	r3, [r7, #12]
 1911 0026 1B68     		ldr	r3, [r3]
 1912 0028 9B69     		ldr	r3, [r3, #24]
 1913 002a 03F40043 		and	r3, r3, #32768
 1914 002e B3F5004F 		cmp	r3, #32768
 1915 0032 01D1     		bne	.L91
1222:Drivers/STM32F3xx_HAL_Driver/Src/stm32f3xx_hal_i2c.c ****     {
1223:Drivers/STM32F3xx_HAL_Driver/Src/stm32f3xx_hal_i2c.c ****       return HAL_BUSY;
 1916              		.loc 1 1223 0
 1917 0034 0223     		movs	r3, #2
 1918 0036 4BE0     		b	.L92
 1919              	.L91:
1224:Drivers/STM32F3xx_HAL_Driver/Src/stm32f3xx_hal_i2c.c ****     }
1225:Drivers/STM32F3xx_HAL_Driver/Src/stm32f3xx_hal_i2c.c **** 
1226:Drivers/STM32F3xx_HAL_Driver/Src/stm32f3xx_hal_i2c.c ****     /* Process Locked */
1227:Drivers/STM32F3xx_HAL_Driver/Src/stm32f3xx_hal_i2c.c ****     __HAL_LOCK(hi2c);
 1920              		.loc 1 1227 0
 1921 0038 FB68     		ldr	r3, [r7, #12]
 1922 003a 93F84030 		ldrb	r3, [r3, #64]	@ zero_extendqisi2
 1923 003e 012B     		cmp	r3, #1
 1924 0040 01D1     		bne	.L93
 1925              		.loc 1 1227 0 is_stmt 0 discriminator 1
ARM GAS  /tmp/ccy0jiyr.s 			page 56


 1926 0042 0223     		movs	r3, #2
 1927 0044 44E0     		b	.L92
 1928              	.L93:
 1929              		.loc 1 1227 0 discriminator 2
 1930 0046 FB68     		ldr	r3, [r7, #12]
 1931 0048 0122     		movs	r2, #1
 1932 004a 83F84020 		strb	r2, [r3, #64]
1228:Drivers/STM32F3xx_HAL_Driver/Src/stm32f3xx_hal_i2c.c **** 
1229:Drivers/STM32F3xx_HAL_Driver/Src/stm32f3xx_hal_i2c.c ****     hi2c->State       = HAL_I2C_STATE_BUSY_RX;
 1933              		.loc 1 1229 0 is_stmt 1 discriminator 2
 1934 004e FB68     		ldr	r3, [r7, #12]
 1935 0050 2222     		movs	r2, #34
 1936 0052 83F84120 		strb	r2, [r3, #65]
1230:Drivers/STM32F3xx_HAL_Driver/Src/stm32f3xx_hal_i2c.c ****     hi2c->Mode        = HAL_I2C_MODE_MASTER;
 1937              		.loc 1 1230 0 discriminator 2
 1938 0056 FB68     		ldr	r3, [r7, #12]
 1939 0058 1022     		movs	r2, #16
 1940 005a 83F84220 		strb	r2, [r3, #66]
1231:Drivers/STM32F3xx_HAL_Driver/Src/stm32f3xx_hal_i2c.c ****     hi2c->ErrorCode   = HAL_I2C_ERROR_NONE;
 1941              		.loc 1 1231 0 discriminator 2
 1942 005e FB68     		ldr	r3, [r7, #12]
 1943 0060 0022     		movs	r2, #0
 1944 0062 5A64     		str	r2, [r3, #68]
1232:Drivers/STM32F3xx_HAL_Driver/Src/stm32f3xx_hal_i2c.c **** 
1233:Drivers/STM32F3xx_HAL_Driver/Src/stm32f3xx_hal_i2c.c ****     /* Prepare transfer parameters */
1234:Drivers/STM32F3xx_HAL_Driver/Src/stm32f3xx_hal_i2c.c ****     hi2c->pBuffPtr    = pData;
 1945              		.loc 1 1234 0 discriminator 2
 1946 0064 FB68     		ldr	r3, [r7, #12]
 1947 0066 7A68     		ldr	r2, [r7, #4]
 1948 0068 5A62     		str	r2, [r3, #36]
1235:Drivers/STM32F3xx_HAL_Driver/Src/stm32f3xx_hal_i2c.c ****     hi2c->XferCount   = Size;
 1949              		.loc 1 1235 0 discriminator 2
 1950 006a FB68     		ldr	r3, [r7, #12]
 1951 006c 3A89     		ldrh	r2, [r7, #8]	@ movhi
 1952 006e 5A85     		strh	r2, [r3, #42]	@ movhi
1236:Drivers/STM32F3xx_HAL_Driver/Src/stm32f3xx_hal_i2c.c ****     hi2c->XferOptions = I2C_NO_OPTION_FRAME;
 1953              		.loc 1 1236 0 discriminator 2
 1954 0070 FB68     		ldr	r3, [r7, #12]
 1955 0072 194A     		ldr	r2, .L96
 1956 0074 DA62     		str	r2, [r3, #44]
1237:Drivers/STM32F3xx_HAL_Driver/Src/stm32f3xx_hal_i2c.c ****     hi2c->XferISR     = I2C_Master_ISR_IT;
 1957              		.loc 1 1237 0 discriminator 2
 1958 0076 FB68     		ldr	r3, [r7, #12]
 1959 0078 184A     		ldr	r2, .L96+4
 1960 007a 5A63     		str	r2, [r3, #52]
1238:Drivers/STM32F3xx_HAL_Driver/Src/stm32f3xx_hal_i2c.c **** 
1239:Drivers/STM32F3xx_HAL_Driver/Src/stm32f3xx_hal_i2c.c ****     if (hi2c->XferCount > MAX_NBYTE_SIZE)
 1961              		.loc 1 1239 0 discriminator 2
 1962 007c FB68     		ldr	r3, [r7, #12]
 1963 007e 5B8D     		ldrh	r3, [r3, #42]	@ movhi
 1964 0080 9BB2     		uxth	r3, r3
 1965 0082 FF2B     		cmp	r3, #255
 1966 0084 06D9     		bls	.L94
1240:Drivers/STM32F3xx_HAL_Driver/Src/stm32f3xx_hal_i2c.c ****     {
1241:Drivers/STM32F3xx_HAL_Driver/Src/stm32f3xx_hal_i2c.c ****       hi2c->XferSize = MAX_NBYTE_SIZE;
 1967              		.loc 1 1241 0
 1968 0086 FB68     		ldr	r3, [r7, #12]
ARM GAS  /tmp/ccy0jiyr.s 			page 57


 1969 0088 FF22     		movs	r2, #255
 1970 008a 1A85     		strh	r2, [r3, #40]	@ movhi
1242:Drivers/STM32F3xx_HAL_Driver/Src/stm32f3xx_hal_i2c.c ****       xfermode = I2C_RELOAD_MODE;
 1971              		.loc 1 1242 0
 1972 008c 4FF08073 		mov	r3, #16777216
 1973 0090 7B61     		str	r3, [r7, #20]
 1974 0092 07E0     		b	.L95
 1975              	.L94:
1243:Drivers/STM32F3xx_HAL_Driver/Src/stm32f3xx_hal_i2c.c ****     }
1244:Drivers/STM32F3xx_HAL_Driver/Src/stm32f3xx_hal_i2c.c ****     else
1245:Drivers/STM32F3xx_HAL_Driver/Src/stm32f3xx_hal_i2c.c ****     {
1246:Drivers/STM32F3xx_HAL_Driver/Src/stm32f3xx_hal_i2c.c ****       hi2c->XferSize = hi2c->XferCount;
 1976              		.loc 1 1246 0
 1977 0094 FB68     		ldr	r3, [r7, #12]
 1978 0096 5B8D     		ldrh	r3, [r3, #42]	@ movhi
 1979 0098 9AB2     		uxth	r2, r3
 1980 009a FB68     		ldr	r3, [r7, #12]
 1981 009c 1A85     		strh	r2, [r3, #40]	@ movhi
1247:Drivers/STM32F3xx_HAL_Driver/Src/stm32f3xx_hal_i2c.c ****       xfermode = I2C_AUTOEND_MODE;
 1982              		.loc 1 1247 0
 1983 009e 4FF00073 		mov	r3, #33554432
 1984 00a2 7B61     		str	r3, [r7, #20]
 1985              	.L95:
1248:Drivers/STM32F3xx_HAL_Driver/Src/stm32f3xx_hal_i2c.c ****     }
1249:Drivers/STM32F3xx_HAL_Driver/Src/stm32f3xx_hal_i2c.c **** 
1250:Drivers/STM32F3xx_HAL_Driver/Src/stm32f3xx_hal_i2c.c ****     /* Send Slave Address */
1251:Drivers/STM32F3xx_HAL_Driver/Src/stm32f3xx_hal_i2c.c ****     /* Set NBYTES to write and reload if hi2c->XferCount > MAX_NBYTE_SIZE */
1252:Drivers/STM32F3xx_HAL_Driver/Src/stm32f3xx_hal_i2c.c ****     I2C_TransferConfig(hi2c, DevAddress, hi2c->XferSize, xfermode, I2C_GENERATE_START_READ);
 1986              		.loc 1 1252 0
 1987 00a4 FB68     		ldr	r3, [r7, #12]
 1988 00a6 1B8D     		ldrh	r3, [r3, #40]
 1989 00a8 DAB2     		uxtb	r2, r3
 1990 00aa 7989     		ldrh	r1, [r7, #10]
 1991 00ac 4FF41053 		mov	r3, #9216
 1992 00b0 0093     		str	r3, [sp]
 1993 00b2 7B69     		ldr	r3, [r7, #20]
 1994 00b4 F868     		ldr	r0, [r7, #12]
 1995 00b6 FFF7FEFF 		bl	I2C_TransferConfig
1253:Drivers/STM32F3xx_HAL_Driver/Src/stm32f3xx_hal_i2c.c **** 
1254:Drivers/STM32F3xx_HAL_Driver/Src/stm32f3xx_hal_i2c.c ****     /* Process Unlocked */
1255:Drivers/STM32F3xx_HAL_Driver/Src/stm32f3xx_hal_i2c.c ****     __HAL_UNLOCK(hi2c);
 1996              		.loc 1 1255 0
 1997 00ba FB68     		ldr	r3, [r7, #12]
 1998 00bc 0022     		movs	r2, #0
 1999 00be 83F84020 		strb	r2, [r3, #64]
1256:Drivers/STM32F3xx_HAL_Driver/Src/stm32f3xx_hal_i2c.c **** 
1257:Drivers/STM32F3xx_HAL_Driver/Src/stm32f3xx_hal_i2c.c ****     /* Note : The I2C interrupts must be enabled after unlocking current process
1258:Drivers/STM32F3xx_HAL_Driver/Src/stm32f3xx_hal_i2c.c ****               to avoid the risk of I2C interrupt handle execution before current
1259:Drivers/STM32F3xx_HAL_Driver/Src/stm32f3xx_hal_i2c.c ****               process unlock */
1260:Drivers/STM32F3xx_HAL_Driver/Src/stm32f3xx_hal_i2c.c **** 
1261:Drivers/STM32F3xx_HAL_Driver/Src/stm32f3xx_hal_i2c.c ****     /* Enable ERR, TC, STOP, NACK, RXI interrupt */
1262:Drivers/STM32F3xx_HAL_Driver/Src/stm32f3xx_hal_i2c.c ****     /* possible to enable all of these */
1263:Drivers/STM32F3xx_HAL_Driver/Src/stm32f3xx_hal_i2c.c ****     /* I2C_IT_ERRI | I2C_IT_TCI| I2C_IT_STOPI| I2C_IT_NACKI | I2C_IT_ADDRI | I2C_IT_RXI | I2C_IT_TX
1264:Drivers/STM32F3xx_HAL_Driver/Src/stm32f3xx_hal_i2c.c ****     I2C_Enable_IRQ(hi2c, I2C_XFER_RX_IT);
 2000              		.loc 1 1264 0
 2001 00c2 0221     		movs	r1, #2
 2002 00c4 F868     		ldr	r0, [r7, #12]
ARM GAS  /tmp/ccy0jiyr.s 			page 58


 2003 00c6 FFF7FEFF 		bl	I2C_Enable_IRQ
1265:Drivers/STM32F3xx_HAL_Driver/Src/stm32f3xx_hal_i2c.c **** 
1266:Drivers/STM32F3xx_HAL_Driver/Src/stm32f3xx_hal_i2c.c ****     return HAL_OK;
 2004              		.loc 1 1266 0
 2005 00ca 0023     		movs	r3, #0
 2006 00cc 00E0     		b	.L92
 2007              	.L90:
1267:Drivers/STM32F3xx_HAL_Driver/Src/stm32f3xx_hal_i2c.c ****   }
1268:Drivers/STM32F3xx_HAL_Driver/Src/stm32f3xx_hal_i2c.c ****   else
1269:Drivers/STM32F3xx_HAL_Driver/Src/stm32f3xx_hal_i2c.c ****   {
1270:Drivers/STM32F3xx_HAL_Driver/Src/stm32f3xx_hal_i2c.c ****     return HAL_BUSY;
 2008              		.loc 1 1270 0
 2009 00ce 0223     		movs	r3, #2
 2010              	.L92:
1271:Drivers/STM32F3xx_HAL_Driver/Src/stm32f3xx_hal_i2c.c ****   }
1272:Drivers/STM32F3xx_HAL_Driver/Src/stm32f3xx_hal_i2c.c **** }
 2011              		.loc 1 1272 0
 2012 00d0 1846     		mov	r0, r3
 2013 00d2 1837     		adds	r7, r7, #24
 2014              	.LCFI50:
 2015              		.cfi_def_cfa_offset 8
 2016 00d4 BD46     		mov	sp, r7
 2017              	.LCFI51:
 2018              		.cfi_def_cfa_register 13
 2019              		@ sp needed
 2020 00d6 80BD     		pop	{r7, pc}
 2021              	.L97:
 2022              		.align	2
 2023              	.L96:
 2024 00d8 0000FFFF 		.word	-65536
 2025 00dc 00000000 		.word	I2C_Master_ISR_IT
 2026              		.cfi_endproc
 2027              	.LFE704:
 2029              		.section	.text.HAL_I2C_Slave_Transmit_IT,"ax",%progbits
 2030              		.align	1
 2031              		.global	HAL_I2C_Slave_Transmit_IT
 2032              		.syntax unified
 2033              		.thumb
 2034              		.thumb_func
 2035              		.fpu fpv4-sp-d16
 2037              	HAL_I2C_Slave_Transmit_IT:
 2038              	.LFB705:
1273:Drivers/STM32F3xx_HAL_Driver/Src/stm32f3xx_hal_i2c.c **** 
1274:Drivers/STM32F3xx_HAL_Driver/Src/stm32f3xx_hal_i2c.c **** /**
1275:Drivers/STM32F3xx_HAL_Driver/Src/stm32f3xx_hal_i2c.c ****   * @brief  Transmit in slave mode an amount of data in non-blocking mode with Interrupt
1276:Drivers/STM32F3xx_HAL_Driver/Src/stm32f3xx_hal_i2c.c ****   * @param  hi2c Pointer to a I2C_HandleTypeDef structure that contains
1277:Drivers/STM32F3xx_HAL_Driver/Src/stm32f3xx_hal_i2c.c ****   *                the configuration information for the specified I2C.
1278:Drivers/STM32F3xx_HAL_Driver/Src/stm32f3xx_hal_i2c.c ****   * @param  pData Pointer to data buffer
1279:Drivers/STM32F3xx_HAL_Driver/Src/stm32f3xx_hal_i2c.c ****   * @param  Size Amount of data to be sent
1280:Drivers/STM32F3xx_HAL_Driver/Src/stm32f3xx_hal_i2c.c ****   * @retval HAL status
1281:Drivers/STM32F3xx_HAL_Driver/Src/stm32f3xx_hal_i2c.c ****   */
1282:Drivers/STM32F3xx_HAL_Driver/Src/stm32f3xx_hal_i2c.c **** HAL_StatusTypeDef HAL_I2C_Slave_Transmit_IT(I2C_HandleTypeDef *hi2c, uint8_t *pData, uint16_t Size)
1283:Drivers/STM32F3xx_HAL_Driver/Src/stm32f3xx_hal_i2c.c **** {
 2039              		.loc 1 1283 0
 2040              		.cfi_startproc
 2041              		@ args = 0, pretend = 0, frame = 16
 2042              		@ frame_needed = 1, uses_anonymous_args = 0
ARM GAS  /tmp/ccy0jiyr.s 			page 59


 2043 0000 80B5     		push	{r7, lr}
 2044              	.LCFI52:
 2045              		.cfi_def_cfa_offset 8
 2046              		.cfi_offset 7, -8
 2047              		.cfi_offset 14, -4
 2048 0002 84B0     		sub	sp, sp, #16
 2049              	.LCFI53:
 2050              		.cfi_def_cfa_offset 24
 2051 0004 00AF     		add	r7, sp, #0
 2052              	.LCFI54:
 2053              		.cfi_def_cfa_register 7
 2054 0006 F860     		str	r0, [r7, #12]
 2055 0008 B960     		str	r1, [r7, #8]
 2056 000a 1346     		mov	r3, r2
 2057 000c FB80     		strh	r3, [r7, #6]	@ movhi
1284:Drivers/STM32F3xx_HAL_Driver/Src/stm32f3xx_hal_i2c.c ****   if (hi2c->State == HAL_I2C_STATE_READY)
 2058              		.loc 1 1284 0
 2059 000e FB68     		ldr	r3, [r7, #12]
 2060 0010 93F84130 		ldrb	r3, [r3, #65]
 2061 0014 DBB2     		uxtb	r3, r3
 2062 0016 202B     		cmp	r3, #32
 2063 0018 38D1     		bne	.L99
1285:Drivers/STM32F3xx_HAL_Driver/Src/stm32f3xx_hal_i2c.c ****   {
1286:Drivers/STM32F3xx_HAL_Driver/Src/stm32f3xx_hal_i2c.c ****     /* Process Locked */
1287:Drivers/STM32F3xx_HAL_Driver/Src/stm32f3xx_hal_i2c.c ****     __HAL_LOCK(hi2c);
 2064              		.loc 1 1287 0
 2065 001a FB68     		ldr	r3, [r7, #12]
 2066 001c 93F84030 		ldrb	r3, [r3, #64]	@ zero_extendqisi2
 2067 0020 012B     		cmp	r3, #1
 2068 0022 01D1     		bne	.L100
 2069              		.loc 1 1287 0 is_stmt 0 discriminator 1
 2070 0024 0223     		movs	r3, #2
 2071 0026 32E0     		b	.L101
 2072              	.L100:
 2073              		.loc 1 1287 0 discriminator 2
 2074 0028 FB68     		ldr	r3, [r7, #12]
 2075 002a 0122     		movs	r2, #1
 2076 002c 83F84020 		strb	r2, [r3, #64]
1288:Drivers/STM32F3xx_HAL_Driver/Src/stm32f3xx_hal_i2c.c **** 
1289:Drivers/STM32F3xx_HAL_Driver/Src/stm32f3xx_hal_i2c.c ****     hi2c->State       = HAL_I2C_STATE_BUSY_TX;
 2077              		.loc 1 1289 0 is_stmt 1 discriminator 2
 2078 0030 FB68     		ldr	r3, [r7, #12]
 2079 0032 2122     		movs	r2, #33
 2080 0034 83F84120 		strb	r2, [r3, #65]
1290:Drivers/STM32F3xx_HAL_Driver/Src/stm32f3xx_hal_i2c.c ****     hi2c->Mode        = HAL_I2C_MODE_SLAVE;
 2081              		.loc 1 1290 0 discriminator 2
 2082 0038 FB68     		ldr	r3, [r7, #12]
 2083 003a 2022     		movs	r2, #32
 2084 003c 83F84220 		strb	r2, [r3, #66]
1291:Drivers/STM32F3xx_HAL_Driver/Src/stm32f3xx_hal_i2c.c ****     hi2c->ErrorCode   = HAL_I2C_ERROR_NONE;
 2085              		.loc 1 1291 0 discriminator 2
 2086 0040 FB68     		ldr	r3, [r7, #12]
 2087 0042 0022     		movs	r2, #0
 2088 0044 5A64     		str	r2, [r3, #68]
1292:Drivers/STM32F3xx_HAL_Driver/Src/stm32f3xx_hal_i2c.c **** 
1293:Drivers/STM32F3xx_HAL_Driver/Src/stm32f3xx_hal_i2c.c ****     /* Enable Address Acknowledge */
1294:Drivers/STM32F3xx_HAL_Driver/Src/stm32f3xx_hal_i2c.c ****     hi2c->Instance->CR2 &= ~I2C_CR2_NACK;
ARM GAS  /tmp/ccy0jiyr.s 			page 60


 2089              		.loc 1 1294 0 discriminator 2
 2090 0046 FB68     		ldr	r3, [r7, #12]
 2091 0048 1B68     		ldr	r3, [r3]
 2092 004a 5A68     		ldr	r2, [r3, #4]
 2093 004c FB68     		ldr	r3, [r7, #12]
 2094 004e 1B68     		ldr	r3, [r3]
 2095 0050 22F40042 		bic	r2, r2, #32768
 2096 0054 5A60     		str	r2, [r3, #4]
1295:Drivers/STM32F3xx_HAL_Driver/Src/stm32f3xx_hal_i2c.c **** 
1296:Drivers/STM32F3xx_HAL_Driver/Src/stm32f3xx_hal_i2c.c ****     /* Prepare transfer parameters */
1297:Drivers/STM32F3xx_HAL_Driver/Src/stm32f3xx_hal_i2c.c ****     hi2c->pBuffPtr    = pData;
 2097              		.loc 1 1297 0 discriminator 2
 2098 0056 FB68     		ldr	r3, [r7, #12]
 2099 0058 BA68     		ldr	r2, [r7, #8]
 2100 005a 5A62     		str	r2, [r3, #36]
1298:Drivers/STM32F3xx_HAL_Driver/Src/stm32f3xx_hal_i2c.c ****     hi2c->XferCount   = Size;
 2101              		.loc 1 1298 0 discriminator 2
 2102 005c FB68     		ldr	r3, [r7, #12]
 2103 005e FA88     		ldrh	r2, [r7, #6]	@ movhi
 2104 0060 5A85     		strh	r2, [r3, #42]	@ movhi
1299:Drivers/STM32F3xx_HAL_Driver/Src/stm32f3xx_hal_i2c.c ****     hi2c->XferSize    = hi2c->XferCount;
 2105              		.loc 1 1299 0 discriminator 2
 2106 0062 FB68     		ldr	r3, [r7, #12]
 2107 0064 5B8D     		ldrh	r3, [r3, #42]	@ movhi
 2108 0066 9AB2     		uxth	r2, r3
 2109 0068 FB68     		ldr	r3, [r7, #12]
 2110 006a 1A85     		strh	r2, [r3, #40]	@ movhi
1300:Drivers/STM32F3xx_HAL_Driver/Src/stm32f3xx_hal_i2c.c ****     hi2c->XferOptions = I2C_NO_OPTION_FRAME;
 2111              		.loc 1 1300 0 discriminator 2
 2112 006c FB68     		ldr	r3, [r7, #12]
 2113 006e 0A4A     		ldr	r2, .L102
 2114 0070 DA62     		str	r2, [r3, #44]
1301:Drivers/STM32F3xx_HAL_Driver/Src/stm32f3xx_hal_i2c.c ****     hi2c->XferISR     = I2C_Slave_ISR_IT;
 2115              		.loc 1 1301 0 discriminator 2
 2116 0072 FB68     		ldr	r3, [r7, #12]
 2117 0074 094A     		ldr	r2, .L102+4
 2118 0076 5A63     		str	r2, [r3, #52]
1302:Drivers/STM32F3xx_HAL_Driver/Src/stm32f3xx_hal_i2c.c **** 
1303:Drivers/STM32F3xx_HAL_Driver/Src/stm32f3xx_hal_i2c.c ****     /* Process Unlocked */
1304:Drivers/STM32F3xx_HAL_Driver/Src/stm32f3xx_hal_i2c.c ****     __HAL_UNLOCK(hi2c);
 2119              		.loc 1 1304 0 discriminator 2
 2120 0078 FB68     		ldr	r3, [r7, #12]
 2121 007a 0022     		movs	r2, #0
 2122 007c 83F84020 		strb	r2, [r3, #64]
1305:Drivers/STM32F3xx_HAL_Driver/Src/stm32f3xx_hal_i2c.c **** 
1306:Drivers/STM32F3xx_HAL_Driver/Src/stm32f3xx_hal_i2c.c ****     /* Note : The I2C interrupts must be enabled after unlocking current process
1307:Drivers/STM32F3xx_HAL_Driver/Src/stm32f3xx_hal_i2c.c ****               to avoid the risk of I2C interrupt handle execution before current
1308:Drivers/STM32F3xx_HAL_Driver/Src/stm32f3xx_hal_i2c.c ****               process unlock */
1309:Drivers/STM32F3xx_HAL_Driver/Src/stm32f3xx_hal_i2c.c **** 
1310:Drivers/STM32F3xx_HAL_Driver/Src/stm32f3xx_hal_i2c.c ****     /* Enable ERR, TC, STOP, NACK, TXI interrupt */
1311:Drivers/STM32F3xx_HAL_Driver/Src/stm32f3xx_hal_i2c.c ****     /* possible to enable all of these */
1312:Drivers/STM32F3xx_HAL_Driver/Src/stm32f3xx_hal_i2c.c ****     /* I2C_IT_ERRI | I2C_IT_TCI| I2C_IT_STOPI| I2C_IT_NACKI | I2C_IT_ADDRI | I2C_IT_RXI | I2C_IT_TX
1313:Drivers/STM32F3xx_HAL_Driver/Src/stm32f3xx_hal_i2c.c ****     I2C_Enable_IRQ(hi2c, I2C_XFER_TX_IT | I2C_XFER_LISTEN_IT);
 2123              		.loc 1 1313 0 discriminator 2
 2124 0080 0521     		movs	r1, #5
 2125 0082 F868     		ldr	r0, [r7, #12]
 2126 0084 FFF7FEFF 		bl	I2C_Enable_IRQ
ARM GAS  /tmp/ccy0jiyr.s 			page 61


1314:Drivers/STM32F3xx_HAL_Driver/Src/stm32f3xx_hal_i2c.c **** 
1315:Drivers/STM32F3xx_HAL_Driver/Src/stm32f3xx_hal_i2c.c ****     return HAL_OK;
 2127              		.loc 1 1315 0 discriminator 2
 2128 0088 0023     		movs	r3, #0
 2129 008a 00E0     		b	.L101
 2130              	.L99:
1316:Drivers/STM32F3xx_HAL_Driver/Src/stm32f3xx_hal_i2c.c ****   }
1317:Drivers/STM32F3xx_HAL_Driver/Src/stm32f3xx_hal_i2c.c ****   else
1318:Drivers/STM32F3xx_HAL_Driver/Src/stm32f3xx_hal_i2c.c ****   {
1319:Drivers/STM32F3xx_HAL_Driver/Src/stm32f3xx_hal_i2c.c ****     return HAL_BUSY;
 2131              		.loc 1 1319 0
 2132 008c 0223     		movs	r3, #2
 2133              	.L101:
1320:Drivers/STM32F3xx_HAL_Driver/Src/stm32f3xx_hal_i2c.c ****   }
1321:Drivers/STM32F3xx_HAL_Driver/Src/stm32f3xx_hal_i2c.c **** }
 2134              		.loc 1 1321 0
 2135 008e 1846     		mov	r0, r3
 2136 0090 1037     		adds	r7, r7, #16
 2137              	.LCFI55:
 2138              		.cfi_def_cfa_offset 8
 2139 0092 BD46     		mov	sp, r7
 2140              	.LCFI56:
 2141              		.cfi_def_cfa_register 13
 2142              		@ sp needed
 2143 0094 80BD     		pop	{r7, pc}
 2144              	.L103:
 2145 0096 00BF     		.align	2
 2146              	.L102:
 2147 0098 0000FFFF 		.word	-65536
 2148 009c 00000000 		.word	I2C_Slave_ISR_IT
 2149              		.cfi_endproc
 2150              	.LFE705:
 2152              		.section	.text.HAL_I2C_Slave_Receive_IT,"ax",%progbits
 2153              		.align	1
 2154              		.global	HAL_I2C_Slave_Receive_IT
 2155              		.syntax unified
 2156              		.thumb
 2157              		.thumb_func
 2158              		.fpu fpv4-sp-d16
 2160              	HAL_I2C_Slave_Receive_IT:
 2161              	.LFB706:
1322:Drivers/STM32F3xx_HAL_Driver/Src/stm32f3xx_hal_i2c.c **** 
1323:Drivers/STM32F3xx_HAL_Driver/Src/stm32f3xx_hal_i2c.c **** /**
1324:Drivers/STM32F3xx_HAL_Driver/Src/stm32f3xx_hal_i2c.c ****   * @brief  Receive in slave mode an amount of data in non-blocking mode with Interrupt
1325:Drivers/STM32F3xx_HAL_Driver/Src/stm32f3xx_hal_i2c.c ****   * @param  hi2c Pointer to a I2C_HandleTypeDef structure that contains
1326:Drivers/STM32F3xx_HAL_Driver/Src/stm32f3xx_hal_i2c.c ****   *                the configuration information for the specified I2C.
1327:Drivers/STM32F3xx_HAL_Driver/Src/stm32f3xx_hal_i2c.c ****   * @param  pData Pointer to data buffer
1328:Drivers/STM32F3xx_HAL_Driver/Src/stm32f3xx_hal_i2c.c ****   * @param  Size Amount of data to be sent
1329:Drivers/STM32F3xx_HAL_Driver/Src/stm32f3xx_hal_i2c.c ****   * @retval HAL status
1330:Drivers/STM32F3xx_HAL_Driver/Src/stm32f3xx_hal_i2c.c ****   */
1331:Drivers/STM32F3xx_HAL_Driver/Src/stm32f3xx_hal_i2c.c **** HAL_StatusTypeDef HAL_I2C_Slave_Receive_IT(I2C_HandleTypeDef *hi2c, uint8_t *pData, uint16_t Size)
1332:Drivers/STM32F3xx_HAL_Driver/Src/stm32f3xx_hal_i2c.c **** {
 2162              		.loc 1 1332 0
 2163              		.cfi_startproc
 2164              		@ args = 0, pretend = 0, frame = 16
 2165              		@ frame_needed = 1, uses_anonymous_args = 0
 2166 0000 80B5     		push	{r7, lr}
ARM GAS  /tmp/ccy0jiyr.s 			page 62


 2167              	.LCFI57:
 2168              		.cfi_def_cfa_offset 8
 2169              		.cfi_offset 7, -8
 2170              		.cfi_offset 14, -4
 2171 0002 84B0     		sub	sp, sp, #16
 2172              	.LCFI58:
 2173              		.cfi_def_cfa_offset 24
 2174 0004 00AF     		add	r7, sp, #0
 2175              	.LCFI59:
 2176              		.cfi_def_cfa_register 7
 2177 0006 F860     		str	r0, [r7, #12]
 2178 0008 B960     		str	r1, [r7, #8]
 2179 000a 1346     		mov	r3, r2
 2180 000c FB80     		strh	r3, [r7, #6]	@ movhi
1333:Drivers/STM32F3xx_HAL_Driver/Src/stm32f3xx_hal_i2c.c ****   if (hi2c->State == HAL_I2C_STATE_READY)
 2181              		.loc 1 1333 0
 2182 000e FB68     		ldr	r3, [r7, #12]
 2183 0010 93F84130 		ldrb	r3, [r3, #65]
 2184 0014 DBB2     		uxtb	r3, r3
 2185 0016 202B     		cmp	r3, #32
 2186 0018 38D1     		bne	.L105
1334:Drivers/STM32F3xx_HAL_Driver/Src/stm32f3xx_hal_i2c.c ****   {
1335:Drivers/STM32F3xx_HAL_Driver/Src/stm32f3xx_hal_i2c.c ****     /* Process Locked */
1336:Drivers/STM32F3xx_HAL_Driver/Src/stm32f3xx_hal_i2c.c ****     __HAL_LOCK(hi2c);
 2187              		.loc 1 1336 0
 2188 001a FB68     		ldr	r3, [r7, #12]
 2189 001c 93F84030 		ldrb	r3, [r3, #64]	@ zero_extendqisi2
 2190 0020 012B     		cmp	r3, #1
 2191 0022 01D1     		bne	.L106
 2192              		.loc 1 1336 0 is_stmt 0 discriminator 1
 2193 0024 0223     		movs	r3, #2
 2194 0026 32E0     		b	.L107
 2195              	.L106:
 2196              		.loc 1 1336 0 discriminator 2
 2197 0028 FB68     		ldr	r3, [r7, #12]
 2198 002a 0122     		movs	r2, #1
 2199 002c 83F84020 		strb	r2, [r3, #64]
1337:Drivers/STM32F3xx_HAL_Driver/Src/stm32f3xx_hal_i2c.c **** 
1338:Drivers/STM32F3xx_HAL_Driver/Src/stm32f3xx_hal_i2c.c ****     hi2c->State       = HAL_I2C_STATE_BUSY_RX;
 2200              		.loc 1 1338 0 is_stmt 1 discriminator 2
 2201 0030 FB68     		ldr	r3, [r7, #12]
 2202 0032 2222     		movs	r2, #34
 2203 0034 83F84120 		strb	r2, [r3, #65]
1339:Drivers/STM32F3xx_HAL_Driver/Src/stm32f3xx_hal_i2c.c ****     hi2c->Mode        = HAL_I2C_MODE_SLAVE;
 2204              		.loc 1 1339 0 discriminator 2
 2205 0038 FB68     		ldr	r3, [r7, #12]
 2206 003a 2022     		movs	r2, #32
 2207 003c 83F84220 		strb	r2, [r3, #66]
1340:Drivers/STM32F3xx_HAL_Driver/Src/stm32f3xx_hal_i2c.c ****     hi2c->ErrorCode   = HAL_I2C_ERROR_NONE;
 2208              		.loc 1 1340 0 discriminator 2
 2209 0040 FB68     		ldr	r3, [r7, #12]
 2210 0042 0022     		movs	r2, #0
 2211 0044 5A64     		str	r2, [r3, #68]
1341:Drivers/STM32F3xx_HAL_Driver/Src/stm32f3xx_hal_i2c.c **** 
1342:Drivers/STM32F3xx_HAL_Driver/Src/stm32f3xx_hal_i2c.c ****     /* Enable Address Acknowledge */
1343:Drivers/STM32F3xx_HAL_Driver/Src/stm32f3xx_hal_i2c.c ****     hi2c->Instance->CR2 &= ~I2C_CR2_NACK;
 2212              		.loc 1 1343 0 discriminator 2
ARM GAS  /tmp/ccy0jiyr.s 			page 63


 2213 0046 FB68     		ldr	r3, [r7, #12]
 2214 0048 1B68     		ldr	r3, [r3]
 2215 004a 5A68     		ldr	r2, [r3, #4]
 2216 004c FB68     		ldr	r3, [r7, #12]
 2217 004e 1B68     		ldr	r3, [r3]
 2218 0050 22F40042 		bic	r2, r2, #32768
 2219 0054 5A60     		str	r2, [r3, #4]
1344:Drivers/STM32F3xx_HAL_Driver/Src/stm32f3xx_hal_i2c.c **** 
1345:Drivers/STM32F3xx_HAL_Driver/Src/stm32f3xx_hal_i2c.c ****     /* Prepare transfer parameters */
1346:Drivers/STM32F3xx_HAL_Driver/Src/stm32f3xx_hal_i2c.c ****     hi2c->pBuffPtr    = pData;
 2220              		.loc 1 1346 0 discriminator 2
 2221 0056 FB68     		ldr	r3, [r7, #12]
 2222 0058 BA68     		ldr	r2, [r7, #8]
 2223 005a 5A62     		str	r2, [r3, #36]
1347:Drivers/STM32F3xx_HAL_Driver/Src/stm32f3xx_hal_i2c.c ****     hi2c->XferCount   = Size;
 2224              		.loc 1 1347 0 discriminator 2
 2225 005c FB68     		ldr	r3, [r7, #12]
 2226 005e FA88     		ldrh	r2, [r7, #6]	@ movhi
 2227 0060 5A85     		strh	r2, [r3, #42]	@ movhi
1348:Drivers/STM32F3xx_HAL_Driver/Src/stm32f3xx_hal_i2c.c ****     hi2c->XferSize    = hi2c->XferCount;
 2228              		.loc 1 1348 0 discriminator 2
 2229 0062 FB68     		ldr	r3, [r7, #12]
 2230 0064 5B8D     		ldrh	r3, [r3, #42]	@ movhi
 2231 0066 9AB2     		uxth	r2, r3
 2232 0068 FB68     		ldr	r3, [r7, #12]
 2233 006a 1A85     		strh	r2, [r3, #40]	@ movhi
1349:Drivers/STM32F3xx_HAL_Driver/Src/stm32f3xx_hal_i2c.c ****     hi2c->XferOptions = I2C_NO_OPTION_FRAME;
 2234              		.loc 1 1349 0 discriminator 2
 2235 006c FB68     		ldr	r3, [r7, #12]
 2236 006e 0A4A     		ldr	r2, .L108
 2237 0070 DA62     		str	r2, [r3, #44]
1350:Drivers/STM32F3xx_HAL_Driver/Src/stm32f3xx_hal_i2c.c ****     hi2c->XferISR     = I2C_Slave_ISR_IT;
 2238              		.loc 1 1350 0 discriminator 2
 2239 0072 FB68     		ldr	r3, [r7, #12]
 2240 0074 094A     		ldr	r2, .L108+4
 2241 0076 5A63     		str	r2, [r3, #52]
1351:Drivers/STM32F3xx_HAL_Driver/Src/stm32f3xx_hal_i2c.c **** 
1352:Drivers/STM32F3xx_HAL_Driver/Src/stm32f3xx_hal_i2c.c ****     /* Process Unlocked */
1353:Drivers/STM32F3xx_HAL_Driver/Src/stm32f3xx_hal_i2c.c ****     __HAL_UNLOCK(hi2c);
 2242              		.loc 1 1353 0 discriminator 2
 2243 0078 FB68     		ldr	r3, [r7, #12]
 2244 007a 0022     		movs	r2, #0
 2245 007c 83F84020 		strb	r2, [r3, #64]
1354:Drivers/STM32F3xx_HAL_Driver/Src/stm32f3xx_hal_i2c.c **** 
1355:Drivers/STM32F3xx_HAL_Driver/Src/stm32f3xx_hal_i2c.c ****     /* Note : The I2C interrupts must be enabled after unlocking current process
1356:Drivers/STM32F3xx_HAL_Driver/Src/stm32f3xx_hal_i2c.c ****               to avoid the risk of I2C interrupt handle execution before current
1357:Drivers/STM32F3xx_HAL_Driver/Src/stm32f3xx_hal_i2c.c ****               process unlock */
1358:Drivers/STM32F3xx_HAL_Driver/Src/stm32f3xx_hal_i2c.c **** 
1359:Drivers/STM32F3xx_HAL_Driver/Src/stm32f3xx_hal_i2c.c ****     /* Enable ERR, TC, STOP, NACK, RXI interrupt */
1360:Drivers/STM32F3xx_HAL_Driver/Src/stm32f3xx_hal_i2c.c ****     /* possible to enable all of these */
1361:Drivers/STM32F3xx_HAL_Driver/Src/stm32f3xx_hal_i2c.c ****     /* I2C_IT_ERRI | I2C_IT_TCI| I2C_IT_STOPI| I2C_IT_NACKI | I2C_IT_ADDRI | I2C_IT_RXI | I2C_IT_TX
1362:Drivers/STM32F3xx_HAL_Driver/Src/stm32f3xx_hal_i2c.c ****     I2C_Enable_IRQ(hi2c, I2C_XFER_RX_IT | I2C_XFER_LISTEN_IT);
 2246              		.loc 1 1362 0 discriminator 2
 2247 0080 0621     		movs	r1, #6
 2248 0082 F868     		ldr	r0, [r7, #12]
 2249 0084 FFF7FEFF 		bl	I2C_Enable_IRQ
1363:Drivers/STM32F3xx_HAL_Driver/Src/stm32f3xx_hal_i2c.c **** 
ARM GAS  /tmp/ccy0jiyr.s 			page 64


1364:Drivers/STM32F3xx_HAL_Driver/Src/stm32f3xx_hal_i2c.c ****     return HAL_OK;
 2250              		.loc 1 1364 0 discriminator 2
 2251 0088 0023     		movs	r3, #0
 2252 008a 00E0     		b	.L107
 2253              	.L105:
1365:Drivers/STM32F3xx_HAL_Driver/Src/stm32f3xx_hal_i2c.c ****   }
1366:Drivers/STM32F3xx_HAL_Driver/Src/stm32f3xx_hal_i2c.c ****   else
1367:Drivers/STM32F3xx_HAL_Driver/Src/stm32f3xx_hal_i2c.c ****   {
1368:Drivers/STM32F3xx_HAL_Driver/Src/stm32f3xx_hal_i2c.c ****     return HAL_BUSY;
 2254              		.loc 1 1368 0
 2255 008c 0223     		movs	r3, #2
 2256              	.L107:
1369:Drivers/STM32F3xx_HAL_Driver/Src/stm32f3xx_hal_i2c.c ****   }
1370:Drivers/STM32F3xx_HAL_Driver/Src/stm32f3xx_hal_i2c.c **** }
 2257              		.loc 1 1370 0
 2258 008e 1846     		mov	r0, r3
 2259 0090 1037     		adds	r7, r7, #16
 2260              	.LCFI60:
 2261              		.cfi_def_cfa_offset 8
 2262 0092 BD46     		mov	sp, r7
 2263              	.LCFI61:
 2264              		.cfi_def_cfa_register 13
 2265              		@ sp needed
 2266 0094 80BD     		pop	{r7, pc}
 2267              	.L109:
 2268 0096 00BF     		.align	2
 2269              	.L108:
 2270 0098 0000FFFF 		.word	-65536
 2271 009c 00000000 		.word	I2C_Slave_ISR_IT
 2272              		.cfi_endproc
 2273              	.LFE706:
 2275              		.section	.text.HAL_I2C_Master_Transmit_DMA,"ax",%progbits
 2276              		.align	1
 2277              		.global	HAL_I2C_Master_Transmit_DMA
 2278              		.syntax unified
 2279              		.thumb
 2280              		.thumb_func
 2281              		.fpu fpv4-sp-d16
 2283              	HAL_I2C_Master_Transmit_DMA:
 2284              	.LFB707:
1371:Drivers/STM32F3xx_HAL_Driver/Src/stm32f3xx_hal_i2c.c **** 
1372:Drivers/STM32F3xx_HAL_Driver/Src/stm32f3xx_hal_i2c.c **** /**
1373:Drivers/STM32F3xx_HAL_Driver/Src/stm32f3xx_hal_i2c.c ****   * @brief  Transmit in master mode an amount of data in non-blocking mode with DMA
1374:Drivers/STM32F3xx_HAL_Driver/Src/stm32f3xx_hal_i2c.c ****   * @param  hi2c Pointer to a I2C_HandleTypeDef structure that contains
1375:Drivers/STM32F3xx_HAL_Driver/Src/stm32f3xx_hal_i2c.c ****   *                the configuration information for the specified I2C.
1376:Drivers/STM32F3xx_HAL_Driver/Src/stm32f3xx_hal_i2c.c ****   * @param  DevAddress Target device address: The device 7 bits address value
1377:Drivers/STM32F3xx_HAL_Driver/Src/stm32f3xx_hal_i2c.c ****   *         in datasheet must be shift at right before call interface
1378:Drivers/STM32F3xx_HAL_Driver/Src/stm32f3xx_hal_i2c.c ****   * @param  pData Pointer to data buffer
1379:Drivers/STM32F3xx_HAL_Driver/Src/stm32f3xx_hal_i2c.c ****   * @param  Size Amount of data to be sent
1380:Drivers/STM32F3xx_HAL_Driver/Src/stm32f3xx_hal_i2c.c ****   * @retval HAL status
1381:Drivers/STM32F3xx_HAL_Driver/Src/stm32f3xx_hal_i2c.c ****   */
1382:Drivers/STM32F3xx_HAL_Driver/Src/stm32f3xx_hal_i2c.c **** HAL_StatusTypeDef HAL_I2C_Master_Transmit_DMA(I2C_HandleTypeDef *hi2c, uint16_t DevAddress, uint8_t
1383:Drivers/STM32F3xx_HAL_Driver/Src/stm32f3xx_hal_i2c.c **** {
 2285              		.loc 1 1383 0
 2286              		.cfi_startproc
 2287              		@ args = 0, pretend = 0, frame = 24
 2288              		@ frame_needed = 1, uses_anonymous_args = 0
ARM GAS  /tmp/ccy0jiyr.s 			page 65


 2289 0000 80B5     		push	{r7, lr}
 2290              	.LCFI62:
 2291              		.cfi_def_cfa_offset 8
 2292              		.cfi_offset 7, -8
 2293              		.cfi_offset 14, -4
 2294 0002 88B0     		sub	sp, sp, #32
 2295              	.LCFI63:
 2296              		.cfi_def_cfa_offset 40
 2297 0004 02AF     		add	r7, sp, #8
 2298              	.LCFI64:
 2299              		.cfi_def_cfa 7, 32
 2300 0006 F860     		str	r0, [r7, #12]
 2301 0008 7A60     		str	r2, [r7, #4]
 2302 000a 1A46     		mov	r2, r3
 2303 000c 0B46     		mov	r3, r1	@ movhi
 2304 000e 7B81     		strh	r3, [r7, #10]	@ movhi
 2305 0010 1346     		mov	r3, r2	@ movhi
 2306 0012 3B81     		strh	r3, [r7, #8]	@ movhi
1384:Drivers/STM32F3xx_HAL_Driver/Src/stm32f3xx_hal_i2c.c ****   uint32_t xfermode = 0U;
 2307              		.loc 1 1384 0
 2308 0014 0023     		movs	r3, #0
 2309 0016 7B61     		str	r3, [r7, #20]
1385:Drivers/STM32F3xx_HAL_Driver/Src/stm32f3xx_hal_i2c.c **** 
1386:Drivers/STM32F3xx_HAL_Driver/Src/stm32f3xx_hal_i2c.c ****   if (hi2c->State == HAL_I2C_STATE_READY)
 2310              		.loc 1 1386 0
 2311 0018 FB68     		ldr	r3, [r7, #12]
 2312 001a 93F84130 		ldrb	r3, [r3, #65]
 2313 001e DBB2     		uxtb	r3, r3
 2314 0020 202B     		cmp	r3, #32
 2315 0022 40F09D80 		bne	.L111
1387:Drivers/STM32F3xx_HAL_Driver/Src/stm32f3xx_hal_i2c.c ****   {
1388:Drivers/STM32F3xx_HAL_Driver/Src/stm32f3xx_hal_i2c.c ****     if (__HAL_I2C_GET_FLAG(hi2c, I2C_FLAG_BUSY) == SET)
 2316              		.loc 1 1388 0
 2317 0026 FB68     		ldr	r3, [r7, #12]
 2318 0028 1B68     		ldr	r3, [r3]
 2319 002a 9B69     		ldr	r3, [r3, #24]
 2320 002c 03F40043 		and	r3, r3, #32768
 2321 0030 B3F5004F 		cmp	r3, #32768
 2322 0034 01D1     		bne	.L112
1389:Drivers/STM32F3xx_HAL_Driver/Src/stm32f3xx_hal_i2c.c ****     {
1390:Drivers/STM32F3xx_HAL_Driver/Src/stm32f3xx_hal_i2c.c ****       return HAL_BUSY;
 2323              		.loc 1 1390 0
 2324 0036 0223     		movs	r3, #2
 2325 0038 93E0     		b	.L113
 2326              	.L112:
1391:Drivers/STM32F3xx_HAL_Driver/Src/stm32f3xx_hal_i2c.c ****     }
1392:Drivers/STM32F3xx_HAL_Driver/Src/stm32f3xx_hal_i2c.c **** 
1393:Drivers/STM32F3xx_HAL_Driver/Src/stm32f3xx_hal_i2c.c ****     /* Process Locked */
1394:Drivers/STM32F3xx_HAL_Driver/Src/stm32f3xx_hal_i2c.c ****     __HAL_LOCK(hi2c);
 2327              		.loc 1 1394 0
 2328 003a FB68     		ldr	r3, [r7, #12]
 2329 003c 93F84030 		ldrb	r3, [r3, #64]	@ zero_extendqisi2
 2330 0040 012B     		cmp	r3, #1
 2331 0042 01D1     		bne	.L114
 2332              		.loc 1 1394 0 is_stmt 0 discriminator 1
 2333 0044 0223     		movs	r3, #2
 2334 0046 8CE0     		b	.L113
ARM GAS  /tmp/ccy0jiyr.s 			page 66


 2335              	.L114:
 2336              		.loc 1 1394 0 discriminator 2
 2337 0048 FB68     		ldr	r3, [r7, #12]
 2338 004a 0122     		movs	r2, #1
 2339 004c 83F84020 		strb	r2, [r3, #64]
1395:Drivers/STM32F3xx_HAL_Driver/Src/stm32f3xx_hal_i2c.c **** 
1396:Drivers/STM32F3xx_HAL_Driver/Src/stm32f3xx_hal_i2c.c ****     hi2c->State       = HAL_I2C_STATE_BUSY_TX;
 2340              		.loc 1 1396 0 is_stmt 1 discriminator 2
 2341 0050 FB68     		ldr	r3, [r7, #12]
 2342 0052 2122     		movs	r2, #33
 2343 0054 83F84120 		strb	r2, [r3, #65]
1397:Drivers/STM32F3xx_HAL_Driver/Src/stm32f3xx_hal_i2c.c ****     hi2c->Mode        = HAL_I2C_MODE_MASTER;
 2344              		.loc 1 1397 0 discriminator 2
 2345 0058 FB68     		ldr	r3, [r7, #12]
 2346 005a 1022     		movs	r2, #16
 2347 005c 83F84220 		strb	r2, [r3, #66]
1398:Drivers/STM32F3xx_HAL_Driver/Src/stm32f3xx_hal_i2c.c ****     hi2c->ErrorCode   = HAL_I2C_ERROR_NONE;
 2348              		.loc 1 1398 0 discriminator 2
 2349 0060 FB68     		ldr	r3, [r7, #12]
 2350 0062 0022     		movs	r2, #0
 2351 0064 5A64     		str	r2, [r3, #68]
1399:Drivers/STM32F3xx_HAL_Driver/Src/stm32f3xx_hal_i2c.c **** 
1400:Drivers/STM32F3xx_HAL_Driver/Src/stm32f3xx_hal_i2c.c ****     /* Prepare transfer parameters */
1401:Drivers/STM32F3xx_HAL_Driver/Src/stm32f3xx_hal_i2c.c ****     hi2c->pBuffPtr    = pData;
 2352              		.loc 1 1401 0 discriminator 2
 2353 0066 FB68     		ldr	r3, [r7, #12]
 2354 0068 7A68     		ldr	r2, [r7, #4]
 2355 006a 5A62     		str	r2, [r3, #36]
1402:Drivers/STM32F3xx_HAL_Driver/Src/stm32f3xx_hal_i2c.c ****     hi2c->XferCount   = Size;
 2356              		.loc 1 1402 0 discriminator 2
 2357 006c FB68     		ldr	r3, [r7, #12]
 2358 006e 3A89     		ldrh	r2, [r7, #8]	@ movhi
 2359 0070 5A85     		strh	r2, [r3, #42]	@ movhi
1403:Drivers/STM32F3xx_HAL_Driver/Src/stm32f3xx_hal_i2c.c ****     hi2c->XferOptions = I2C_NO_OPTION_FRAME;
 2360              		.loc 1 1403 0 discriminator 2
 2361 0072 FB68     		ldr	r3, [r7, #12]
 2362 0074 3D4A     		ldr	r2, .L119
 2363 0076 DA62     		str	r2, [r3, #44]
1404:Drivers/STM32F3xx_HAL_Driver/Src/stm32f3xx_hal_i2c.c ****     hi2c->XferISR     = I2C_Master_ISR_DMA;
 2364              		.loc 1 1404 0 discriminator 2
 2365 0078 FB68     		ldr	r3, [r7, #12]
 2366 007a 3D4A     		ldr	r2, .L119+4
 2367 007c 5A63     		str	r2, [r3, #52]
1405:Drivers/STM32F3xx_HAL_Driver/Src/stm32f3xx_hal_i2c.c **** 
1406:Drivers/STM32F3xx_HAL_Driver/Src/stm32f3xx_hal_i2c.c ****     if (hi2c->XferCount > MAX_NBYTE_SIZE)
 2368              		.loc 1 1406 0 discriminator 2
 2369 007e FB68     		ldr	r3, [r7, #12]
 2370 0080 5B8D     		ldrh	r3, [r3, #42]	@ movhi
 2371 0082 9BB2     		uxth	r3, r3
 2372 0084 FF2B     		cmp	r3, #255
 2373 0086 06D9     		bls	.L115
1407:Drivers/STM32F3xx_HAL_Driver/Src/stm32f3xx_hal_i2c.c ****     {
1408:Drivers/STM32F3xx_HAL_Driver/Src/stm32f3xx_hal_i2c.c ****       hi2c->XferSize = MAX_NBYTE_SIZE;
 2374              		.loc 1 1408 0
 2375 0088 FB68     		ldr	r3, [r7, #12]
 2376 008a FF22     		movs	r2, #255
 2377 008c 1A85     		strh	r2, [r3, #40]	@ movhi
ARM GAS  /tmp/ccy0jiyr.s 			page 67


1409:Drivers/STM32F3xx_HAL_Driver/Src/stm32f3xx_hal_i2c.c ****       xfermode = I2C_RELOAD_MODE;
 2378              		.loc 1 1409 0
 2379 008e 4FF08073 		mov	r3, #16777216
 2380 0092 7B61     		str	r3, [r7, #20]
 2381 0094 07E0     		b	.L116
 2382              	.L115:
1410:Drivers/STM32F3xx_HAL_Driver/Src/stm32f3xx_hal_i2c.c ****     }
1411:Drivers/STM32F3xx_HAL_Driver/Src/stm32f3xx_hal_i2c.c ****     else
1412:Drivers/STM32F3xx_HAL_Driver/Src/stm32f3xx_hal_i2c.c ****     {
1413:Drivers/STM32F3xx_HAL_Driver/Src/stm32f3xx_hal_i2c.c ****       hi2c->XferSize = hi2c->XferCount;
 2383              		.loc 1 1413 0
 2384 0096 FB68     		ldr	r3, [r7, #12]
 2385 0098 5B8D     		ldrh	r3, [r3, #42]	@ movhi
 2386 009a 9AB2     		uxth	r2, r3
 2387 009c FB68     		ldr	r3, [r7, #12]
 2388 009e 1A85     		strh	r2, [r3, #40]	@ movhi
1414:Drivers/STM32F3xx_HAL_Driver/Src/stm32f3xx_hal_i2c.c ****       xfermode = I2C_AUTOEND_MODE;
 2389              		.loc 1 1414 0
 2390 00a0 4FF00073 		mov	r3, #33554432
 2391 00a4 7B61     		str	r3, [r7, #20]
 2392              	.L116:
1415:Drivers/STM32F3xx_HAL_Driver/Src/stm32f3xx_hal_i2c.c ****     }
1416:Drivers/STM32F3xx_HAL_Driver/Src/stm32f3xx_hal_i2c.c **** 
1417:Drivers/STM32F3xx_HAL_Driver/Src/stm32f3xx_hal_i2c.c ****     if (hi2c->XferSize > 0U)
 2393              		.loc 1 1417 0
 2394 00a6 FB68     		ldr	r3, [r7, #12]
 2395 00a8 1B8D     		ldrh	r3, [r3, #40]
 2396 00aa 002B     		cmp	r3, #0
 2397 00ac 3FD0     		beq	.L117
1418:Drivers/STM32F3xx_HAL_Driver/Src/stm32f3xx_hal_i2c.c ****     {
1419:Drivers/STM32F3xx_HAL_Driver/Src/stm32f3xx_hal_i2c.c ****       /* Set the I2C DMA transfer complete callback */
1420:Drivers/STM32F3xx_HAL_Driver/Src/stm32f3xx_hal_i2c.c ****       hi2c->hdmatx->XferCpltCallback = I2C_DMAMasterTransmitCplt;
 2398              		.loc 1 1420 0
 2399 00ae FB68     		ldr	r3, [r7, #12]
 2400 00b0 9B6B     		ldr	r3, [r3, #56]
 2401 00b2 304A     		ldr	r2, .L119+8
 2402 00b4 9A62     		str	r2, [r3, #40]
1421:Drivers/STM32F3xx_HAL_Driver/Src/stm32f3xx_hal_i2c.c **** 
1422:Drivers/STM32F3xx_HAL_Driver/Src/stm32f3xx_hal_i2c.c ****       /* Set the DMA error callback */
1423:Drivers/STM32F3xx_HAL_Driver/Src/stm32f3xx_hal_i2c.c ****       hi2c->hdmatx->XferErrorCallback = I2C_DMAError;
 2403              		.loc 1 1423 0
 2404 00b6 FB68     		ldr	r3, [r7, #12]
 2405 00b8 9B6B     		ldr	r3, [r3, #56]
 2406 00ba 2F4A     		ldr	r2, .L119+12
 2407 00bc 1A63     		str	r2, [r3, #48]
1424:Drivers/STM32F3xx_HAL_Driver/Src/stm32f3xx_hal_i2c.c **** 
1425:Drivers/STM32F3xx_HAL_Driver/Src/stm32f3xx_hal_i2c.c ****       /* Set the unused DMA callbacks to NULL */
1426:Drivers/STM32F3xx_HAL_Driver/Src/stm32f3xx_hal_i2c.c ****       hi2c->hdmatx->XferHalfCpltCallback = NULL;
 2408              		.loc 1 1426 0
 2409 00be FB68     		ldr	r3, [r7, #12]
 2410 00c0 9B6B     		ldr	r3, [r3, #56]
 2411 00c2 0022     		movs	r2, #0
 2412 00c4 DA62     		str	r2, [r3, #44]
1427:Drivers/STM32F3xx_HAL_Driver/Src/stm32f3xx_hal_i2c.c ****       hi2c->hdmatx->XferAbortCallback = NULL;
 2413              		.loc 1 1427 0
 2414 00c6 FB68     		ldr	r3, [r7, #12]
 2415 00c8 9B6B     		ldr	r3, [r3, #56]
ARM GAS  /tmp/ccy0jiyr.s 			page 68


 2416 00ca 0022     		movs	r2, #0
 2417 00cc 5A63     		str	r2, [r3, #52]
1428:Drivers/STM32F3xx_HAL_Driver/Src/stm32f3xx_hal_i2c.c **** 
1429:Drivers/STM32F3xx_HAL_Driver/Src/stm32f3xx_hal_i2c.c ****       /* Enable the DMA channel */
1430:Drivers/STM32F3xx_HAL_Driver/Src/stm32f3xx_hal_i2c.c ****       HAL_DMA_Start_IT(hi2c->hdmatx, (uint32_t)pData, (uint32_t)&hi2c->Instance->TXDR, hi2c->XferSi
 2418              		.loc 1 1430 0
 2419 00ce FB68     		ldr	r3, [r7, #12]
 2420 00d0 986B     		ldr	r0, [r3, #56]
 2421 00d2 7968     		ldr	r1, [r7, #4]
 2422 00d4 FB68     		ldr	r3, [r7, #12]
 2423 00d6 1B68     		ldr	r3, [r3]
 2424 00d8 2833     		adds	r3, r3, #40
 2425 00da 1A46     		mov	r2, r3
 2426 00dc FB68     		ldr	r3, [r7, #12]
 2427 00de 1B8D     		ldrh	r3, [r3, #40]
 2428 00e0 FFF7FEFF 		bl	HAL_DMA_Start_IT
1431:Drivers/STM32F3xx_HAL_Driver/Src/stm32f3xx_hal_i2c.c **** 
1432:Drivers/STM32F3xx_HAL_Driver/Src/stm32f3xx_hal_i2c.c ****       /* Send Slave Address */
1433:Drivers/STM32F3xx_HAL_Driver/Src/stm32f3xx_hal_i2c.c ****       /* Set NBYTES to write and reload if hi2c->XferCount > MAX_NBYTE_SIZE and generate RESTART */
1434:Drivers/STM32F3xx_HAL_Driver/Src/stm32f3xx_hal_i2c.c ****       I2C_TransferConfig(hi2c, DevAddress, hi2c->XferSize, xfermode, I2C_GENERATE_START_WRITE);
 2429              		.loc 1 1434 0
 2430 00e4 FB68     		ldr	r3, [r7, #12]
 2431 00e6 1B8D     		ldrh	r3, [r3, #40]
 2432 00e8 DAB2     		uxtb	r2, r3
 2433 00ea 7989     		ldrh	r1, [r7, #10]
 2434 00ec 4FF40053 		mov	r3, #8192
 2435 00f0 0093     		str	r3, [sp]
 2436 00f2 7B69     		ldr	r3, [r7, #20]
 2437 00f4 F868     		ldr	r0, [r7, #12]
 2438 00f6 FFF7FEFF 		bl	I2C_TransferConfig
1435:Drivers/STM32F3xx_HAL_Driver/Src/stm32f3xx_hal_i2c.c **** 
1436:Drivers/STM32F3xx_HAL_Driver/Src/stm32f3xx_hal_i2c.c ****       /* Update XferCount value */
1437:Drivers/STM32F3xx_HAL_Driver/Src/stm32f3xx_hal_i2c.c ****       hi2c->XferCount -= hi2c->XferSize;
 2439              		.loc 1 1437 0
 2440 00fa FB68     		ldr	r3, [r7, #12]
 2441 00fc 5B8D     		ldrh	r3, [r3, #42]	@ movhi
 2442 00fe 9AB2     		uxth	r2, r3
 2443 0100 FB68     		ldr	r3, [r7, #12]
 2444 0102 1B8D     		ldrh	r3, [r3, #40]
 2445 0104 D31A     		subs	r3, r2, r3
 2446 0106 9AB2     		uxth	r2, r3
 2447 0108 FB68     		ldr	r3, [r7, #12]
 2448 010a 5A85     		strh	r2, [r3, #42]	@ movhi
1438:Drivers/STM32F3xx_HAL_Driver/Src/stm32f3xx_hal_i2c.c **** 
1439:Drivers/STM32F3xx_HAL_Driver/Src/stm32f3xx_hal_i2c.c ****       /* Process Unlocked */
1440:Drivers/STM32F3xx_HAL_Driver/Src/stm32f3xx_hal_i2c.c ****       __HAL_UNLOCK(hi2c);
 2449              		.loc 1 1440 0
 2450 010c FB68     		ldr	r3, [r7, #12]
 2451 010e 0022     		movs	r2, #0
 2452 0110 83F84020 		strb	r2, [r3, #64]
1441:Drivers/STM32F3xx_HAL_Driver/Src/stm32f3xx_hal_i2c.c **** 
1442:Drivers/STM32F3xx_HAL_Driver/Src/stm32f3xx_hal_i2c.c ****       /* Note : The I2C interrupts must be enabled after unlocking current process
1443:Drivers/STM32F3xx_HAL_Driver/Src/stm32f3xx_hal_i2c.c ****                 to avoid the risk of I2C interrupt handle execution before current
1444:Drivers/STM32F3xx_HAL_Driver/Src/stm32f3xx_hal_i2c.c ****                 process unlock */
1445:Drivers/STM32F3xx_HAL_Driver/Src/stm32f3xx_hal_i2c.c ****       /* Enable ERR and NACK interrupts */
1446:Drivers/STM32F3xx_HAL_Driver/Src/stm32f3xx_hal_i2c.c ****       I2C_Enable_IRQ(hi2c, I2C_XFER_ERROR_IT);
 2453              		.loc 1 1446 0
ARM GAS  /tmp/ccy0jiyr.s 			page 69


 2454 0114 1121     		movs	r1, #17
 2455 0116 F868     		ldr	r0, [r7, #12]
 2456 0118 FFF7FEFF 		bl	I2C_Enable_IRQ
1447:Drivers/STM32F3xx_HAL_Driver/Src/stm32f3xx_hal_i2c.c **** 
1448:Drivers/STM32F3xx_HAL_Driver/Src/stm32f3xx_hal_i2c.c ****       /* Enable DMA Request */
1449:Drivers/STM32F3xx_HAL_Driver/Src/stm32f3xx_hal_i2c.c ****       hi2c->Instance->CR1 |= I2C_CR1_TXDMAEN;
 2457              		.loc 1 1449 0
 2458 011c FB68     		ldr	r3, [r7, #12]
 2459 011e 1B68     		ldr	r3, [r3]
 2460 0120 1A68     		ldr	r2, [r3]
 2461 0122 FB68     		ldr	r3, [r7, #12]
 2462 0124 1B68     		ldr	r3, [r3]
 2463 0126 42F48042 		orr	r2, r2, #16384
 2464 012a 1A60     		str	r2, [r3]
 2465 012c 16E0     		b	.L118
 2466              	.L117:
1450:Drivers/STM32F3xx_HAL_Driver/Src/stm32f3xx_hal_i2c.c ****     }
1451:Drivers/STM32F3xx_HAL_Driver/Src/stm32f3xx_hal_i2c.c ****     else
1452:Drivers/STM32F3xx_HAL_Driver/Src/stm32f3xx_hal_i2c.c ****     {
1453:Drivers/STM32F3xx_HAL_Driver/Src/stm32f3xx_hal_i2c.c ****       /* Update Transfer ISR function pointer */
1454:Drivers/STM32F3xx_HAL_Driver/Src/stm32f3xx_hal_i2c.c ****       hi2c->XferISR = I2C_Master_ISR_IT;
 2467              		.loc 1 1454 0
 2468 012e FB68     		ldr	r3, [r7, #12]
 2469 0130 124A     		ldr	r2, .L119+16
 2470 0132 5A63     		str	r2, [r3, #52]
1455:Drivers/STM32F3xx_HAL_Driver/Src/stm32f3xx_hal_i2c.c **** 
1456:Drivers/STM32F3xx_HAL_Driver/Src/stm32f3xx_hal_i2c.c ****       /* Send Slave Address */
1457:Drivers/STM32F3xx_HAL_Driver/Src/stm32f3xx_hal_i2c.c ****       /* Set NBYTES to write and generate START condition */
1458:Drivers/STM32F3xx_HAL_Driver/Src/stm32f3xx_hal_i2c.c ****       I2C_TransferConfig(hi2c, DevAddress, hi2c->XferSize, I2C_AUTOEND_MODE, I2C_GENERATE_START_WRI
 2471              		.loc 1 1458 0
 2472 0134 FB68     		ldr	r3, [r7, #12]
 2473 0136 1B8D     		ldrh	r3, [r3, #40]
 2474 0138 DAB2     		uxtb	r2, r3
 2475 013a 7989     		ldrh	r1, [r7, #10]
 2476 013c 4FF40053 		mov	r3, #8192
 2477 0140 0093     		str	r3, [sp]
 2478 0142 4FF00073 		mov	r3, #33554432
 2479 0146 F868     		ldr	r0, [r7, #12]
 2480 0148 FFF7FEFF 		bl	I2C_TransferConfig
1459:Drivers/STM32F3xx_HAL_Driver/Src/stm32f3xx_hal_i2c.c **** 
1460:Drivers/STM32F3xx_HAL_Driver/Src/stm32f3xx_hal_i2c.c ****       /* Process Unlocked */
1461:Drivers/STM32F3xx_HAL_Driver/Src/stm32f3xx_hal_i2c.c ****       __HAL_UNLOCK(hi2c);
 2481              		.loc 1 1461 0
 2482 014c FB68     		ldr	r3, [r7, #12]
 2483 014e 0022     		movs	r2, #0
 2484 0150 83F84020 		strb	r2, [r3, #64]
1462:Drivers/STM32F3xx_HAL_Driver/Src/stm32f3xx_hal_i2c.c **** 
1463:Drivers/STM32F3xx_HAL_Driver/Src/stm32f3xx_hal_i2c.c ****       /* Note : The I2C interrupts must be enabled after unlocking current process
1464:Drivers/STM32F3xx_HAL_Driver/Src/stm32f3xx_hal_i2c.c ****                 to avoid the risk of I2C interrupt handle execution before current
1465:Drivers/STM32F3xx_HAL_Driver/Src/stm32f3xx_hal_i2c.c ****                 process unlock */
1466:Drivers/STM32F3xx_HAL_Driver/Src/stm32f3xx_hal_i2c.c ****       /* Enable ERR, TC, STOP, NACK, TXI interrupt */
1467:Drivers/STM32F3xx_HAL_Driver/Src/stm32f3xx_hal_i2c.c ****       /* possible to enable all of these */
1468:Drivers/STM32F3xx_HAL_Driver/Src/stm32f3xx_hal_i2c.c ****       /* I2C_IT_ERRI | I2C_IT_TCI| I2C_IT_STOPI| I2C_IT_NACKI | I2C_IT_ADDRI | I2C_IT_RXI | I2C_IT_
1469:Drivers/STM32F3xx_HAL_Driver/Src/stm32f3xx_hal_i2c.c ****       I2C_Enable_IRQ(hi2c, I2C_XFER_TX_IT);
 2485              		.loc 1 1469 0
 2486 0154 0121     		movs	r1, #1
 2487 0156 F868     		ldr	r0, [r7, #12]
ARM GAS  /tmp/ccy0jiyr.s 			page 70


 2488 0158 FFF7FEFF 		bl	I2C_Enable_IRQ
 2489              	.L118:
1470:Drivers/STM32F3xx_HAL_Driver/Src/stm32f3xx_hal_i2c.c ****     }
1471:Drivers/STM32F3xx_HAL_Driver/Src/stm32f3xx_hal_i2c.c **** 
1472:Drivers/STM32F3xx_HAL_Driver/Src/stm32f3xx_hal_i2c.c ****     return HAL_OK;
 2490              		.loc 1 1472 0
 2491 015c 0023     		movs	r3, #0
 2492 015e 00E0     		b	.L113
 2493              	.L111:
1473:Drivers/STM32F3xx_HAL_Driver/Src/stm32f3xx_hal_i2c.c ****   }
1474:Drivers/STM32F3xx_HAL_Driver/Src/stm32f3xx_hal_i2c.c ****   else
1475:Drivers/STM32F3xx_HAL_Driver/Src/stm32f3xx_hal_i2c.c ****   {
1476:Drivers/STM32F3xx_HAL_Driver/Src/stm32f3xx_hal_i2c.c ****     return HAL_BUSY;
 2494              		.loc 1 1476 0
 2495 0160 0223     		movs	r3, #2
 2496              	.L113:
1477:Drivers/STM32F3xx_HAL_Driver/Src/stm32f3xx_hal_i2c.c ****   }
1478:Drivers/STM32F3xx_HAL_Driver/Src/stm32f3xx_hal_i2c.c **** }
 2497              		.loc 1 1478 0
 2498 0162 1846     		mov	r0, r3
 2499 0164 1837     		adds	r7, r7, #24
 2500              	.LCFI65:
 2501              		.cfi_def_cfa_offset 8
 2502 0166 BD46     		mov	sp, r7
 2503              	.LCFI66:
 2504              		.cfi_def_cfa_register 13
 2505              		@ sp needed
 2506 0168 80BD     		pop	{r7, pc}
 2507              	.L120:
 2508 016a 00BF     		.align	2
 2509              	.L119:
 2510 016c 0000FFFF 		.word	-65536
 2511 0170 00000000 		.word	I2C_Master_ISR_DMA
 2512 0174 00000000 		.word	I2C_DMAMasterTransmitCplt
 2513 0178 00000000 		.word	I2C_DMAError
 2514 017c 00000000 		.word	I2C_Master_ISR_IT
 2515              		.cfi_endproc
 2516              	.LFE707:
 2518              		.section	.text.HAL_I2C_Master_Receive_DMA,"ax",%progbits
 2519              		.align	1
 2520              		.global	HAL_I2C_Master_Receive_DMA
 2521              		.syntax unified
 2522              		.thumb
 2523              		.thumb_func
 2524              		.fpu fpv4-sp-d16
 2526              	HAL_I2C_Master_Receive_DMA:
 2527              	.LFB708:
1479:Drivers/STM32F3xx_HAL_Driver/Src/stm32f3xx_hal_i2c.c **** 
1480:Drivers/STM32F3xx_HAL_Driver/Src/stm32f3xx_hal_i2c.c **** /**
1481:Drivers/STM32F3xx_HAL_Driver/Src/stm32f3xx_hal_i2c.c ****   * @brief  Receive in master mode an amount of data in non-blocking mode with DMA
1482:Drivers/STM32F3xx_HAL_Driver/Src/stm32f3xx_hal_i2c.c ****   * @param  hi2c Pointer to a I2C_HandleTypeDef structure that contains
1483:Drivers/STM32F3xx_HAL_Driver/Src/stm32f3xx_hal_i2c.c ****   *                the configuration information for the specified I2C.
1484:Drivers/STM32F3xx_HAL_Driver/Src/stm32f3xx_hal_i2c.c ****   * @param  DevAddress Target device address: The device 7 bits address value
1485:Drivers/STM32F3xx_HAL_Driver/Src/stm32f3xx_hal_i2c.c ****   *         in datasheet must be shift at right before call interface
1486:Drivers/STM32F3xx_HAL_Driver/Src/stm32f3xx_hal_i2c.c ****   * @param  pData Pointer to data buffer
1487:Drivers/STM32F3xx_HAL_Driver/Src/stm32f3xx_hal_i2c.c ****   * @param  Size Amount of data to be sent
1488:Drivers/STM32F3xx_HAL_Driver/Src/stm32f3xx_hal_i2c.c ****   * @retval HAL status
ARM GAS  /tmp/ccy0jiyr.s 			page 71


1489:Drivers/STM32F3xx_HAL_Driver/Src/stm32f3xx_hal_i2c.c ****   */
1490:Drivers/STM32F3xx_HAL_Driver/Src/stm32f3xx_hal_i2c.c **** HAL_StatusTypeDef HAL_I2C_Master_Receive_DMA(I2C_HandleTypeDef *hi2c, uint16_t DevAddress, uint8_t 
1491:Drivers/STM32F3xx_HAL_Driver/Src/stm32f3xx_hal_i2c.c **** {
 2528              		.loc 1 1491 0
 2529              		.cfi_startproc
 2530              		@ args = 0, pretend = 0, frame = 24
 2531              		@ frame_needed = 1, uses_anonymous_args = 0
 2532 0000 80B5     		push	{r7, lr}
 2533              	.LCFI67:
 2534              		.cfi_def_cfa_offset 8
 2535              		.cfi_offset 7, -8
 2536              		.cfi_offset 14, -4
 2537 0002 88B0     		sub	sp, sp, #32
 2538              	.LCFI68:
 2539              		.cfi_def_cfa_offset 40
 2540 0004 02AF     		add	r7, sp, #8
 2541              	.LCFI69:
 2542              		.cfi_def_cfa 7, 32
 2543 0006 F860     		str	r0, [r7, #12]
 2544 0008 7A60     		str	r2, [r7, #4]
 2545 000a 1A46     		mov	r2, r3
 2546 000c 0B46     		mov	r3, r1	@ movhi
 2547 000e 7B81     		strh	r3, [r7, #10]	@ movhi
 2548 0010 1346     		mov	r3, r2	@ movhi
 2549 0012 3B81     		strh	r3, [r7, #8]	@ movhi
1492:Drivers/STM32F3xx_HAL_Driver/Src/stm32f3xx_hal_i2c.c ****   uint32_t xfermode = 0U;
 2550              		.loc 1 1492 0
 2551 0014 0023     		movs	r3, #0
 2552 0016 7B61     		str	r3, [r7, #20]
1493:Drivers/STM32F3xx_HAL_Driver/Src/stm32f3xx_hal_i2c.c **** 
1494:Drivers/STM32F3xx_HAL_Driver/Src/stm32f3xx_hal_i2c.c ****   if (hi2c->State == HAL_I2C_STATE_READY)
 2553              		.loc 1 1494 0
 2554 0018 FB68     		ldr	r3, [r7, #12]
 2555 001a 93F84130 		ldrb	r3, [r3, #65]
 2556 001e DBB2     		uxtb	r3, r3
 2557 0020 202B     		cmp	r3, #32
 2558 0022 40F09D80 		bne	.L122
1495:Drivers/STM32F3xx_HAL_Driver/Src/stm32f3xx_hal_i2c.c ****   {
1496:Drivers/STM32F3xx_HAL_Driver/Src/stm32f3xx_hal_i2c.c ****     if (__HAL_I2C_GET_FLAG(hi2c, I2C_FLAG_BUSY) == SET)
 2559              		.loc 1 1496 0
 2560 0026 FB68     		ldr	r3, [r7, #12]
 2561 0028 1B68     		ldr	r3, [r3]
 2562 002a 9B69     		ldr	r3, [r3, #24]
 2563 002c 03F40043 		and	r3, r3, #32768
 2564 0030 B3F5004F 		cmp	r3, #32768
 2565 0034 01D1     		bne	.L123
1497:Drivers/STM32F3xx_HAL_Driver/Src/stm32f3xx_hal_i2c.c ****     {
1498:Drivers/STM32F3xx_HAL_Driver/Src/stm32f3xx_hal_i2c.c ****       return HAL_BUSY;
 2566              		.loc 1 1498 0
 2567 0036 0223     		movs	r3, #2
 2568 0038 93E0     		b	.L124
 2569              	.L123:
1499:Drivers/STM32F3xx_HAL_Driver/Src/stm32f3xx_hal_i2c.c ****     }
1500:Drivers/STM32F3xx_HAL_Driver/Src/stm32f3xx_hal_i2c.c **** 
1501:Drivers/STM32F3xx_HAL_Driver/Src/stm32f3xx_hal_i2c.c ****     /* Process Locked */
1502:Drivers/STM32F3xx_HAL_Driver/Src/stm32f3xx_hal_i2c.c ****     __HAL_LOCK(hi2c);
 2570              		.loc 1 1502 0
ARM GAS  /tmp/ccy0jiyr.s 			page 72


 2571 003a FB68     		ldr	r3, [r7, #12]
 2572 003c 93F84030 		ldrb	r3, [r3, #64]	@ zero_extendqisi2
 2573 0040 012B     		cmp	r3, #1
 2574 0042 01D1     		bne	.L125
 2575              		.loc 1 1502 0 is_stmt 0 discriminator 1
 2576 0044 0223     		movs	r3, #2
 2577 0046 8CE0     		b	.L124
 2578              	.L125:
 2579              		.loc 1 1502 0 discriminator 2
 2580 0048 FB68     		ldr	r3, [r7, #12]
 2581 004a 0122     		movs	r2, #1
 2582 004c 83F84020 		strb	r2, [r3, #64]
1503:Drivers/STM32F3xx_HAL_Driver/Src/stm32f3xx_hal_i2c.c **** 
1504:Drivers/STM32F3xx_HAL_Driver/Src/stm32f3xx_hal_i2c.c ****     hi2c->State       = HAL_I2C_STATE_BUSY_RX;
 2583              		.loc 1 1504 0 is_stmt 1 discriminator 2
 2584 0050 FB68     		ldr	r3, [r7, #12]
 2585 0052 2222     		movs	r2, #34
