ARM GAS  /tmp/cciSetZi.s 			page 1


   1              		.cpu cortex-m4
   2              		.eabi_attribute 27, 1
   3              		.eabi_attribute 28, 1
   4              		.eabi_attribute 20, 1
   5              		.eabi_attribute 21, 1
   6              		.eabi_attribute 23, 3
   7              		.eabi_attribute 24, 1
   8              		.eabi_attribute 25, 1
   9              		.eabi_attribute 26, 1
  10              		.eabi_attribute 30, 6
  11              		.eabi_attribute 34, 1
  12              		.eabi_attribute 18, 4
  13              		.file	"ax_12a_hal.c"
  14              		.text
  15              	.Ltext0:
  16              		.cfi_sections	.debug_frame
  17              		.section	.rodata.CHANNEL_OFFSET_TAB,"a",%progbits
  18              		.align	2
  21              	CHANNEL_OFFSET_TAB:
  22 0000 08       		.byte	8
  23 0001 1C       		.byte	28
  24 0002 30       		.byte	48
  25 0003 44       		.byte	68
  26 0004 58       		.byte	88
  27 0005 6C       		.byte	108
  28 0006 80       		.byte	-128
  29              		.section	.text.AX_Receive_HAL,"ax",%progbits
  30              		.align	1
  31              		.global	AX_Receive_HAL
  32              		.syntax unified
  33              		.thumb
  34              		.thumb_func
  35              		.fpu fpv4-sp-d16
  37              	AX_Receive_HAL:
  38              	.LFB695:
  39              		.file 1 "Src/ax_12a_hal.c"
   1:Src/ax_12a_hal.c **** #include "ax_12a_hal.h"
   2:Src/ax_12a_hal.c **** 
   3:Src/ax_12a_hal.c **** #include "stm32f3xx_hal.h"
   4:Src/ax_12a_hal.c **** #include "usart.h"
   5:Src/ax_12a_hal.c **** 
   6:Src/ax_12a_hal.c **** uint8_t AX_Receive_HAL(uint8_t *buffer, uint16_t size, uint32_t timeout){
  40              		.loc 1 6 0
  41              		.cfi_startproc
  42              		@ args = 0, pretend = 0, frame = 24
  43              		@ frame_needed = 1, uses_anonymous_args = 0
  44 0000 80B5     		push	{r7, lr}
  45              	.LCFI0:
  46              		.cfi_def_cfa_offset 8
  47              		.cfi_offset 7, -8
  48              		.cfi_offset 14, -4
  49 0002 86B0     		sub	sp, sp, #24
  50              	.LCFI1:
  51              		.cfi_def_cfa_offset 32
  52 0004 00AF     		add	r7, sp, #0
  53              	.LCFI2:
  54              		.cfi_def_cfa_register 7
ARM GAS  /tmp/cciSetZi.s 			page 2


  55 0006 F860     		str	r0, [r7, #12]
  56 0008 0B46     		mov	r3, r1
  57 000a 7A60     		str	r2, [r7, #4]
  58 000c 7B81     		strh	r3, [r7, #10]	@ movhi
   7:Src/ax_12a_hal.c ****   HAL_StatusTypeDef status = HAL_UART_Receive(&huart1, buffer, size, timeout);
  59              		.loc 1 7 0
  60 000e 7A89     		ldrh	r2, [r7, #10]
  61 0010 7B68     		ldr	r3, [r7, #4]
  62 0012 F968     		ldr	r1, [r7, #12]
  63 0014 0748     		ldr	r0, .L3
  64 0016 FFF7FEFF 		bl	HAL_UART_Receive
  65 001a 0346     		mov	r3, r0
  66 001c FB75     		strb	r3, [r7, #23]
   8:Src/ax_12a_hal.c ****   return (status==HAL_OK)?0:1;
  67              		.loc 1 8 0
  68 001e FB7D     		ldrb	r3, [r7, #23]	@ zero_extendqisi2
  69 0020 002B     		cmp	r3, #0
  70 0022 14BF     		ite	ne
  71 0024 0123     		movne	r3, #1
  72 0026 0023     		moveq	r3, #0
  73 0028 DBB2     		uxtb	r3, r3
   9:Src/ax_12a_hal.c **** }
  74              		.loc 1 9 0
  75 002a 1846     		mov	r0, r3
  76 002c 1837     		adds	r7, r7, #24
  77              	.LCFI3:
  78              		.cfi_def_cfa_offset 8
  79 002e BD46     		mov	sp, r7
  80              	.LCFI4:
  81              		.cfi_def_cfa_register 13
  82              		@ sp needed
  83 0030 80BD     		pop	{r7, pc}
  84              	.L4:
  85 0032 00BF     		.align	2
  86              	.L3:
  87 0034 00000000 		.word	huart1
  88              		.cfi_endproc
  89              	.LFE695:
  91              		.section	.text.AX_Send_HAL,"ax",%progbits
  92              		.align	1
  93              		.global	AX_Send_HAL
  94              		.syntax unified
  95              		.thumb
  96              		.thumb_func
  97              		.fpu fpv4-sp-d16
  99              	AX_Send_HAL:
 100              	.LFB696:
  10:Src/ax_12a_hal.c **** 
  11:Src/ax_12a_hal.c **** uint8_t AX_Send_HAL(uint8_t *data, uint16_t size, uint32_t timeout){
 101              		.loc 1 11 0
 102              		.cfi_startproc
 103              		@ args = 0, pretend = 0, frame = 24
 104              		@ frame_needed = 1, uses_anonymous_args = 0
 105 0000 80B5     		push	{r7, lr}
 106              	.LCFI5:
 107              		.cfi_def_cfa_offset 8
 108              		.cfi_offset 7, -8
ARM GAS  /tmp/cciSetZi.s 			page 3


 109              		.cfi_offset 14, -4
 110 0002 86B0     		sub	sp, sp, #24
 111              	.LCFI6:
 112              		.cfi_def_cfa_offset 32
 113 0004 00AF     		add	r7, sp, #0
 114              	.LCFI7:
 115              		.cfi_def_cfa_register 7
 116 0006 F860     		str	r0, [r7, #12]
 117 0008 0B46     		mov	r3, r1
 118 000a 7A60     		str	r2, [r7, #4]
 119 000c 7B81     		strh	r3, [r7, #10]	@ movhi
  12:Src/ax_12a_hal.c ****   HAL_StatusTypeDef status = HAL_UART_Transmit(&huart1, data, size, timeout);
 120              		.loc 1 12 0
 121 000e 7A89     		ldrh	r2, [r7, #10]
 122 0010 7B68     		ldr	r3, [r7, #4]
 123 0012 F968     		ldr	r1, [r7, #12]
 124 0014 0748     		ldr	r0, .L7
 125 0016 FFF7FEFF 		bl	HAL_UART_Transmit
 126 001a 0346     		mov	r3, r0
 127 001c FB75     		strb	r3, [r7, #23]
  13:Src/ax_12a_hal.c ****   return (status==HAL_OK)?0:1;
 128              		.loc 1 13 0
 129 001e FB7D     		ldrb	r3, [r7, #23]	@ zero_extendqisi2
 130 0020 002B     		cmp	r3, #0
 131 0022 14BF     		ite	ne
 132 0024 0123     		movne	r3, #1
 133 0026 0023     		moveq	r3, #0
 134 0028 DBB2     		uxtb	r3, r3
  14:Src/ax_12a_hal.c **** }
 135              		.loc 1 14 0
 136 002a 1846     		mov	r0, r3
 137 002c 1837     		adds	r7, r7, #24
 138              	.LCFI8:
 139              		.cfi_def_cfa_offset 8
 140 002e BD46     		mov	sp, r7
 141              	.LCFI9:
 142              		.cfi_def_cfa_register 13
 143              		@ sp needed
 144 0030 80BD     		pop	{r7, pc}
 145              	.L8:
 146 0032 00BF     		.align	2
 147              	.L7:
 148 0034 00000000 		.word	huart1
 149              		.cfi_endproc
 150              	.LFE696:
 152              		.section	.text.AX_Set_Direction_HAL,"ax",%progbits
 153              		.align	1
 154              		.global	AX_Set_Direction_HAL
 155              		.syntax unified
 156              		.thumb
 157              		.thumb_func
 158              		.fpu fpv4-sp-d16
 160              	AX_Set_Direction_HAL:
 161              	.LFB697:
  15:Src/ax_12a_hal.c **** 
  16:Src/ax_12a_hal.c **** void AX_Set_Direction_HAL(AX_Direction dir){
 162              		.loc 1 16 0
ARM GAS  /tmp/cciSetZi.s 			page 4


 163              		.cfi_startproc
 164              		@ args = 0, pretend = 0, frame = 8
 165              		@ frame_needed = 1, uses_anonymous_args = 0
 166 0000 80B5     		push	{r7, lr}
 167              	.LCFI10:
 168              		.cfi_def_cfa_offset 8
 169              		.cfi_offset 7, -8
 170              		.cfi_offset 14, -4
 171 0002 82B0     		sub	sp, sp, #8
 172              	.LCFI11:
 173              		.cfi_def_cfa_offset 16
 174 0004 00AF     		add	r7, sp, #0
 175              	.LCFI12:
 176              		.cfi_def_cfa_register 7
 177 0006 0346     		mov	r3, r0
 178 0008 FB71     		strb	r3, [r7, #7]
  17:Src/ax_12a_hal.c ****   HAL_GPIO_WritePin(EN_Servo_GPIO_Port, EN_Servo_Pin, (dir==AX_SEND)?GPIO_PIN_SET:GPIO_PIN_RESET);
 179              		.loc 1 17 0
 180 000a FB79     		ldrb	r3, [r7, #7]	@ zero_extendqisi2
 181 000c 002B     		cmp	r3, #0
 182 000e 0CBF     		ite	eq
 183 0010 0123     		moveq	r3, #1
 184 0012 0023     		movne	r3, #0
 185 0014 DBB2     		uxtb	r3, r3
 186 0016 1A46     		mov	r2, r3
 187 0018 4FF48071 		mov	r1, #256
 188 001c 4FF09040 		mov	r0, #1207959552
 189 0020 FFF7FEFF 		bl	HAL_GPIO_WritePin
  18:Src/ax_12a_hal.c **** }
 190              		.loc 1 18 0
 191 0024 00BF     		nop
 192 0026 0837     		adds	r7, r7, #8
 193              	.LCFI13:
 194              		.cfi_def_cfa_offset 8
 195 0028 BD46     		mov	sp, r7
 196              	.LCFI14:
 197              		.cfi_def_cfa_register 13
 198              		@ sp needed
 199 002a 80BD     		pop	{r7, pc}
 200              		.cfi_endproc
 201              	.LFE697:
 203              		.text
 204              	.Letext0:
 205              		.file 2 "/usr/arm-none-eabi/include/machine/_default_types.h"
 206              		.file 3 "/usr/arm-none-eabi/include/sys/_stdint.h"
 207              		.file 4 "Inc/ax_12a.h"
 208              		.file 5 "Drivers/CMSIS/Include/core_cm4.h"
 209              		.file 6 "Drivers/CMSIS/Device/ST/STM32F3xx/Include/system_stm32f3xx.h"
 210              		.file 7 "Drivers/CMSIS/Device/ST/STM32F3xx/Include/stm32f303x8.h"
 211              		.file 8 "/usr/arm-none-eabi/include/sys/lock.h"
 212              		.file 9 "/usr/arm-none-eabi/include/sys/_types.h"
 213              		.file 10 "/usr/lib/gcc/arm-none-eabi/7.3.0/include/stddef.h"
 214              		.file 11 "/usr/arm-none-eabi/include/sys/reent.h"
 215              		.file 12 "Drivers/STM32F3xx_HAL_Driver/Inc/stm32f3xx_hal_def.h"
 216              		.file 13 "Drivers/STM32F3xx_HAL_Driver/Inc/stm32f3xx_hal_gpio.h"
 217              		.file 14 "Drivers/STM32F3xx_HAL_Driver/Inc/stm32f3xx_hal_dma.h"
 218              		.file 15 "Drivers/STM32F3xx_HAL_Driver/Inc/stm32f3xx_hal_uart.h"
ARM GAS  /tmp/cciSetZi.s 			page 5


 219              		.file 16 "Inc/crc_16.h"
 220              		.file 17 "Inc/robotronik_protocol.h"
 221              		.file 18 "/usr/arm-none-eabi/include/stdlib.h"
 222              		.file 19 "Inc/remote_call.h"
 223              		.file 20 "Inc/usart.h"
 224              		.file 21 "Drivers/STM32F3xx_HAL_Driver/Inc/stm32f3xx_ll_dma.h"
ARM GAS  /tmp/cciSetZi.s 			page 6

