ARM GAS  /tmp/cc7U8joB.s 			page 1


   1              		.cpu cortex-m4
   2              		.eabi_attribute 27, 1
   3              		.eabi_attribute 28, 1
   4              		.eabi_attribute 20, 1
   5              		.eabi_attribute 21, 1
   6              		.eabi_attribute 23, 3
   7              		.eabi_attribute 24, 1
   8              		.eabi_attribute 25, 1
   9              		.eabi_attribute 26, 1
  10              		.eabi_attribute 30, 6
  11              		.eabi_attribute 34, 1
  12              		.eabi_attribute 18, 4
  13              		.file	"stm32f3xx_hal_tim.c"
  14              		.text
  15              	.Ltext0:
  16              		.cfi_sections	.debug_frame
  17              		.section	.rodata.CHANNEL_OFFSET_TAB,"a",%progbits
  18              		.align	2
  21              	CHANNEL_OFFSET_TAB:
  22 0000 08       		.byte	8
  23 0001 1C       		.byte	28
  24 0002 30       		.byte	48
  25 0003 44       		.byte	68
  26 0004 58       		.byte	88
  27 0005 6C       		.byte	108
  28 0006 80       		.byte	-128
  29              		.section	.text.HAL_TIM_Base_Init,"ax",%progbits
  30              		.align	1
  31              		.global	HAL_TIM_Base_Init
  32              		.syntax unified
  33              		.thumb
  34              		.thumb_func
  35              		.fpu fpv4-sp-d16
  37              	HAL_TIM_Base_Init:
  38              	.LFB695:
  39              		.file 1 "Drivers/STM32F3xx_HAL_Driver/Src/stm32f3xx_hal_tim.c"
   1:Drivers/STM32F3xx_HAL_Driver/Src/stm32f3xx_hal_tim.c **** /**
   2:Drivers/STM32F3xx_HAL_Driver/Src/stm32f3xx_hal_tim.c ****   ******************************************************************************
   3:Drivers/STM32F3xx_HAL_Driver/Src/stm32f3xx_hal_tim.c ****   * @file    stm32f3xx_hal_tim.c
   4:Drivers/STM32F3xx_HAL_Driver/Src/stm32f3xx_hal_tim.c ****   * @author  MCD Application Team
   5:Drivers/STM32F3xx_HAL_Driver/Src/stm32f3xx_hal_tim.c ****   * @brief   TIM HAL module driver.
   6:Drivers/STM32F3xx_HAL_Driver/Src/stm32f3xx_hal_tim.c ****   *          This file provides firmware functions to manage the following 
   7:Drivers/STM32F3xx_HAL_Driver/Src/stm32f3xx_hal_tim.c ****   *          functionalities of the Timer (TIM) peripheral:
   8:Drivers/STM32F3xx_HAL_Driver/Src/stm32f3xx_hal_tim.c ****   *           + Time Base Initialization
   9:Drivers/STM32F3xx_HAL_Driver/Src/stm32f3xx_hal_tim.c ****   *           + Time Base Start
  10:Drivers/STM32F3xx_HAL_Driver/Src/stm32f3xx_hal_tim.c ****   *           + Time Base Start Interruption
  11:Drivers/STM32F3xx_HAL_Driver/Src/stm32f3xx_hal_tim.c ****   *           + Time Base Start DMA
  12:Drivers/STM32F3xx_HAL_Driver/Src/stm32f3xx_hal_tim.c ****   *           + Time Output Compare/PWM Initialization
  13:Drivers/STM32F3xx_HAL_Driver/Src/stm32f3xx_hal_tim.c ****   *           + Time Output Compare/PWM Channel Configuration
  14:Drivers/STM32F3xx_HAL_Driver/Src/stm32f3xx_hal_tim.c ****   *           + Time Output Compare/PWM  Start
  15:Drivers/STM32F3xx_HAL_Driver/Src/stm32f3xx_hal_tim.c ****   *           + Time Output Compare/PWM  Start Interruption
  16:Drivers/STM32F3xx_HAL_Driver/Src/stm32f3xx_hal_tim.c ****   *           + Time Output Compare/PWM Start DMA
  17:Drivers/STM32F3xx_HAL_Driver/Src/stm32f3xx_hal_tim.c ****   *           + Time Input Capture Initialization
  18:Drivers/STM32F3xx_HAL_Driver/Src/stm32f3xx_hal_tim.c ****   *           + Time Input Capture Channel Configuration
  19:Drivers/STM32F3xx_HAL_Driver/Src/stm32f3xx_hal_tim.c ****   *           + Time Input Capture Start
  20:Drivers/STM32F3xx_HAL_Driver/Src/stm32f3xx_hal_tim.c ****   *           + Time Input Capture Start Interruption 
  21:Drivers/STM32F3xx_HAL_Driver/Src/stm32f3xx_hal_tim.c ****   *           + Time Input Capture Start DMA
ARM GAS  /tmp/cc7U8joB.s 			page 2


  22:Drivers/STM32F3xx_HAL_Driver/Src/stm32f3xx_hal_tim.c ****   *           + Time One Pulse Initialization
  23:Drivers/STM32F3xx_HAL_Driver/Src/stm32f3xx_hal_tim.c ****   *           + Time One Pulse Channel Configuration
  24:Drivers/STM32F3xx_HAL_Driver/Src/stm32f3xx_hal_tim.c ****   *           + Time One Pulse Start 
  25:Drivers/STM32F3xx_HAL_Driver/Src/stm32f3xx_hal_tim.c ****   *           + Time Encoder Interface Initialization
  26:Drivers/STM32F3xx_HAL_Driver/Src/stm32f3xx_hal_tim.c ****   *           + Time Encoder Interface Start
  27:Drivers/STM32F3xx_HAL_Driver/Src/stm32f3xx_hal_tim.c ****   *           + Time Encoder Interface Start Interruption
  28:Drivers/STM32F3xx_HAL_Driver/Src/stm32f3xx_hal_tim.c ****   *           + Time Encoder Interface Start DMA
  29:Drivers/STM32F3xx_HAL_Driver/Src/stm32f3xx_hal_tim.c ****   *           + Commutation Event configuration with Interruption and DMA
  30:Drivers/STM32F3xx_HAL_Driver/Src/stm32f3xx_hal_tim.c ****   *           + Time OCRef clear configuration
  31:Drivers/STM32F3xx_HAL_Driver/Src/stm32f3xx_hal_tim.c ****   *           + Time External Clock configuration
  32:Drivers/STM32F3xx_HAL_Driver/Src/stm32f3xx_hal_tim.c ****   @verbatim
  33:Drivers/STM32F3xx_HAL_Driver/Src/stm32f3xx_hal_tim.c ****   ==============================================================================
  34:Drivers/STM32F3xx_HAL_Driver/Src/stm32f3xx_hal_tim.c ****                       ##### TIMER Generic features #####
  35:Drivers/STM32F3xx_HAL_Driver/Src/stm32f3xx_hal_tim.c ****   ==============================================================================
  36:Drivers/STM32F3xx_HAL_Driver/Src/stm32f3xx_hal_tim.c ****   [..] The Timer features include: 
  37:Drivers/STM32F3xx_HAL_Driver/Src/stm32f3xx_hal_tim.c ****        (#) 16-bit up, down, up/down auto-reload counter.
  38:Drivers/STM32F3xx_HAL_Driver/Src/stm32f3xx_hal_tim.c ****        (#) 16-bit programmable prescaler allowing dividing (also on the fly) the 
  39:Drivers/STM32F3xx_HAL_Driver/Src/stm32f3xx_hal_tim.c ****            counter clock frequency either by any factor between 1 and 65536.
  40:Drivers/STM32F3xx_HAL_Driver/Src/stm32f3xx_hal_tim.c ****        (#) Up to 4 independent channels for:
  41:Drivers/STM32F3xx_HAL_Driver/Src/stm32f3xx_hal_tim.c ****            (++) Input Capture
  42:Drivers/STM32F3xx_HAL_Driver/Src/stm32f3xx_hal_tim.c ****            (++) Output Compare
  43:Drivers/STM32F3xx_HAL_Driver/Src/stm32f3xx_hal_tim.c ****            (++) PWM generation (Edge and Center-aligned Mode)
  44:Drivers/STM32F3xx_HAL_Driver/Src/stm32f3xx_hal_tim.c ****            (++) One-pulse mode output               
  45:Drivers/STM32F3xx_HAL_Driver/Src/stm32f3xx_hal_tim.c ****    
  46:Drivers/STM32F3xx_HAL_Driver/Src/stm32f3xx_hal_tim.c ****             ##### How to use this driver #####
  47:Drivers/STM32F3xx_HAL_Driver/Src/stm32f3xx_hal_tim.c ****   ==============================================================================
  48:Drivers/STM32F3xx_HAL_Driver/Src/stm32f3xx_hal_tim.c ****     [..]
  49:Drivers/STM32F3xx_HAL_Driver/Src/stm32f3xx_hal_tim.c ****      (#) Initialize the TIM low level resources by implementing the following functions 
  50:Drivers/STM32F3xx_HAL_Driver/Src/stm32f3xx_hal_tim.c ****          depending from feature used :
  51:Drivers/STM32F3xx_HAL_Driver/Src/stm32f3xx_hal_tim.c ****            (++) Time Base : HAL_TIM_Base_MspInit() 
  52:Drivers/STM32F3xx_HAL_Driver/Src/stm32f3xx_hal_tim.c ****            (++) Input Capture : HAL_TIM_IC_MspInit()
  53:Drivers/STM32F3xx_HAL_Driver/Src/stm32f3xx_hal_tim.c ****            (++) Output Compare : HAL_TIM_OC_MspInit()
  54:Drivers/STM32F3xx_HAL_Driver/Src/stm32f3xx_hal_tim.c ****            (++) PWM generation : HAL_TIM_PWM_MspInit()
  55:Drivers/STM32F3xx_HAL_Driver/Src/stm32f3xx_hal_tim.c ****            (++) One-pulse mode output : HAL_TIM_OnePulse_MspInit()
  56:Drivers/STM32F3xx_HAL_Driver/Src/stm32f3xx_hal_tim.c ****            (++) Encoder mode output : HAL_TIM_Encoder_MspInit()
  57:Drivers/STM32F3xx_HAL_Driver/Src/stm32f3xx_hal_tim.c ****            
  58:Drivers/STM32F3xx_HAL_Driver/Src/stm32f3xx_hal_tim.c ****      (#) Initialize the TIM low level resources :
  59:Drivers/STM32F3xx_HAL_Driver/Src/stm32f3xx_hal_tim.c ****         (##) Enable the TIM interface clock using __HAL_RCC_TIMx_CLK_ENABLE  (); 
  60:Drivers/STM32F3xx_HAL_Driver/Src/stm32f3xx_hal_tim.c ****         (##) TIM pins configuration
  61:Drivers/STM32F3xx_HAL_Driver/Src/stm32f3xx_hal_tim.c ****             (+++) Enable the clock for the TIM GPIOs using the following function:
  62:Drivers/STM32F3xx_HAL_Driver/Src/stm32f3xx_hal_tim.c ****              __HAL_RCC_GPIOx_CLK_ENABLE();   
  63:Drivers/STM32F3xx_HAL_Driver/Src/stm32f3xx_hal_tim.c ****             (+++) Configure these TIM pins in Alternate function mode using HAL_GPIO_Init();  
  64:Drivers/STM32F3xx_HAL_Driver/Src/stm32f3xx_hal_tim.c **** 
  65:Drivers/STM32F3xx_HAL_Driver/Src/stm32f3xx_hal_tim.c ****      (#) The external Clock can be configured, if needed (the default clock is the 
  66:Drivers/STM32F3xx_HAL_Driver/Src/stm32f3xx_hal_tim.c ****          internal clock from the APBx), using the following function:
  67:Drivers/STM32F3xx_HAL_Driver/Src/stm32f3xx_hal_tim.c ****          HAL_TIM_ConfigClockSource, the clock configuration should be done before 
  68:Drivers/STM32F3xx_HAL_Driver/Src/stm32f3xx_hal_tim.c ****          any start function.
  69:Drivers/STM32F3xx_HAL_Driver/Src/stm32f3xx_hal_tim.c ****   
  70:Drivers/STM32F3xx_HAL_Driver/Src/stm32f3xx_hal_tim.c ****      (#) Configure the TIM in the desired functioning mode using one of the 
  71:Drivers/STM32F3xx_HAL_Driver/Src/stm32f3xx_hal_tim.c ****        Initialization function of this driver:
  72:Drivers/STM32F3xx_HAL_Driver/Src/stm32f3xx_hal_tim.c ****        (++) HAL_TIM_Base_Init: to use the Timer to generate a simple time base
  73:Drivers/STM32F3xx_HAL_Driver/Src/stm32f3xx_hal_tim.c ****        (++) HAL_TIM_OC_Init and HAL_TIM_OC_ConfigChannel: to use the Timer to generate an 
  74:Drivers/STM32F3xx_HAL_Driver/Src/stm32f3xx_hal_tim.c ****             Output Compare signal.
  75:Drivers/STM32F3xx_HAL_Driver/Src/stm32f3xx_hal_tim.c ****        (++) HAL_TIM_PWM_Init and HAL_TIM_PWM_ConfigChannel: to use the Timer to generate a 
  76:Drivers/STM32F3xx_HAL_Driver/Src/stm32f3xx_hal_tim.c ****             PWM signal.
  77:Drivers/STM32F3xx_HAL_Driver/Src/stm32f3xx_hal_tim.c ****        (++) HAL_TIM_IC_Init and HAL_TIM_IC_ConfigChannel: to use the Timer to measure an 
  78:Drivers/STM32F3xx_HAL_Driver/Src/stm32f3xx_hal_tim.c ****             external signal.
ARM GAS  /tmp/cc7U8joB.s 			page 3


  79:Drivers/STM32F3xx_HAL_Driver/Src/stm32f3xx_hal_tim.c ****          (++) HAL_TIM_OnePulse_Init and HAL_TIM_OnePulse_ConfigChannel: to use the Timer 
  80:Drivers/STM32F3xx_HAL_Driver/Src/stm32f3xx_hal_tim.c ****               in One Pulse Mode.
  81:Drivers/STM32F3xx_HAL_Driver/Src/stm32f3xx_hal_tim.c ****        (++) HAL_TIM_Encoder_Init: to use the Timer Encoder Interface.
  82:Drivers/STM32F3xx_HAL_Driver/Src/stm32f3xx_hal_tim.c **** 
  83:Drivers/STM32F3xx_HAL_Driver/Src/stm32f3xx_hal_tim.c ****      (#) Activate the TIM peripheral using one of the start functions depending from the feature us
  84:Drivers/STM32F3xx_HAL_Driver/Src/stm32f3xx_hal_tim.c ****            (++) Time Base : HAL_TIM_Base_Start(), HAL_TIM_Base_Start_DMA(), HAL_TIM_Base_Start_IT()
  85:Drivers/STM32F3xx_HAL_Driver/Src/stm32f3xx_hal_tim.c ****            (++) Input Capture :  HAL_TIM_IC_Start(), HAL_TIM_IC_Start_DMA(), HAL_TIM_IC_Start_IT()
  86:Drivers/STM32F3xx_HAL_Driver/Src/stm32f3xx_hal_tim.c ****            (++) Output Compare : HAL_TIM_OC_Start(), HAL_TIM_OC_Start_DMA(), HAL_TIM_OC_Start_IT()
  87:Drivers/STM32F3xx_HAL_Driver/Src/stm32f3xx_hal_tim.c ****            (++) PWM generation : HAL_TIM_PWM_Start(), HAL_TIM_PWM_Start_DMA(), HAL_TIM_PWM_Start_IT
  88:Drivers/STM32F3xx_HAL_Driver/Src/stm32f3xx_hal_tim.c ****            (++) One-pulse mode output : HAL_TIM_OnePulse_Start(), HAL_TIM_OnePulse_Start_IT()
  89:Drivers/STM32F3xx_HAL_Driver/Src/stm32f3xx_hal_tim.c ****            (++) Encoder mode output : HAL_TIM_Encoder_Start(), HAL_TIM_Encoder_Start_DMA(), HAL_TIM
  90:Drivers/STM32F3xx_HAL_Driver/Src/stm32f3xx_hal_tim.c **** 
  91:Drivers/STM32F3xx_HAL_Driver/Src/stm32f3xx_hal_tim.c ****      (#) The DMA Burst is managed with the two following functions:
  92:Drivers/STM32F3xx_HAL_Driver/Src/stm32f3xx_hal_tim.c ****          HAL_TIM_DMABurst_WriteStart()
  93:Drivers/STM32F3xx_HAL_Driver/Src/stm32f3xx_hal_tim.c ****          HAL_TIM_DMABurst_ReadStart()
  94:Drivers/STM32F3xx_HAL_Driver/Src/stm32f3xx_hal_tim.c ****   
  95:Drivers/STM32F3xx_HAL_Driver/Src/stm32f3xx_hal_tim.c ****   @endverbatim
  96:Drivers/STM32F3xx_HAL_Driver/Src/stm32f3xx_hal_tim.c ****   ******************************************************************************
  97:Drivers/STM32F3xx_HAL_Driver/Src/stm32f3xx_hal_tim.c ****   * @attention
  98:Drivers/STM32F3xx_HAL_Driver/Src/stm32f3xx_hal_tim.c ****   *
  99:Drivers/STM32F3xx_HAL_Driver/Src/stm32f3xx_hal_tim.c ****   * <h2><center>&copy; COPYRIGHT(c) 2016 STMicroelectronics</center></h2>
 100:Drivers/STM32F3xx_HAL_Driver/Src/stm32f3xx_hal_tim.c ****   *
 101:Drivers/STM32F3xx_HAL_Driver/Src/stm32f3xx_hal_tim.c ****   * Redistribution and use in source and binary forms, with or without modification,
 102:Drivers/STM32F3xx_HAL_Driver/Src/stm32f3xx_hal_tim.c ****   * are permitted provided that the following conditions are met:
 103:Drivers/STM32F3xx_HAL_Driver/Src/stm32f3xx_hal_tim.c ****   *   1. Redistributions of source code must retain the above copyright notice,
 104:Drivers/STM32F3xx_HAL_Driver/Src/stm32f3xx_hal_tim.c ****   *      this list of conditions and the following disclaimer.
 105:Drivers/STM32F3xx_HAL_Driver/Src/stm32f3xx_hal_tim.c ****   *   2. Redistributions in binary form must reproduce the above copyright notice,
 106:Drivers/STM32F3xx_HAL_Driver/Src/stm32f3xx_hal_tim.c ****   *      this list of conditions and the following disclaimer in the documentation
 107:Drivers/STM32F3xx_HAL_Driver/Src/stm32f3xx_hal_tim.c ****   *      and/or other materials provided with the distribution.
 108:Drivers/STM32F3xx_HAL_Driver/Src/stm32f3xx_hal_tim.c ****   *   3. Neither the name of STMicroelectronics nor the names of its contributors
 109:Drivers/STM32F3xx_HAL_Driver/Src/stm32f3xx_hal_tim.c ****   *      may be used to endorse or promote products derived from this software
 110:Drivers/STM32F3xx_HAL_Driver/Src/stm32f3xx_hal_tim.c ****   *      without specific prior written permission.
 111:Drivers/STM32F3xx_HAL_Driver/Src/stm32f3xx_hal_tim.c ****   *
 112:Drivers/STM32F3xx_HAL_Driver/Src/stm32f3xx_hal_tim.c ****   * THIS SOFTWARE IS PROVIDED BY THE COPYRIGHT HOLDERS AND CONTRIBUTORS "AS IS"
 113:Drivers/STM32F3xx_HAL_Driver/Src/stm32f3xx_hal_tim.c ****   * AND ANY EXPRESS OR IMPLIED WARRANTIES, INCLUDING, BUT NOT LIMITED TO, THE
 114:Drivers/STM32F3xx_HAL_Driver/Src/stm32f3xx_hal_tim.c ****   * IMPLIED WARRANTIES OF MERCHANTABILITY AND FITNESS FOR A PARTICULAR PURPOSE ARE
 115:Drivers/STM32F3xx_HAL_Driver/Src/stm32f3xx_hal_tim.c ****   * DISCLAIMED. IN NO EVENT SHALL THE COPYRIGHT HOLDER OR CONTRIBUTORS BE LIABLE
 116:Drivers/STM32F3xx_HAL_Driver/Src/stm32f3xx_hal_tim.c ****   * FOR ANY DIRECT, INDIRECT, INCIDENTAL, SPECIAL, EXEMPLARY, OR CONSEQUENTIAL
 117:Drivers/STM32F3xx_HAL_Driver/Src/stm32f3xx_hal_tim.c ****   * DAMAGES (INCLUDING, BUT NOT LIMITED TO, PROCUREMENT OF SUBSTITUTE GOODS OR
 118:Drivers/STM32F3xx_HAL_Driver/Src/stm32f3xx_hal_tim.c ****   * SERVICES; LOSS OF USE, DATA, OR PROFITS; OR BUSINESS INTERRUPTION) HOWEVER
 119:Drivers/STM32F3xx_HAL_Driver/Src/stm32f3xx_hal_tim.c ****   * CAUSED AND ON ANY THEORY OF LIABILITY, WHETHER IN CONTRACT, STRICT LIABILITY,
 120:Drivers/STM32F3xx_HAL_Driver/Src/stm32f3xx_hal_tim.c ****   * OR TORT (INCLUDING NEGLIGENCE OR OTHERWISE) ARISING IN ANY WAY OUT OF THE USE
 121:Drivers/STM32F3xx_HAL_Driver/Src/stm32f3xx_hal_tim.c ****   * OF THIS SOFTWARE, EVEN IF ADVISED OF THE POSSIBILITY OF SUCH DAMAGE.
 122:Drivers/STM32F3xx_HAL_Driver/Src/stm32f3xx_hal_tim.c ****   *
 123:Drivers/STM32F3xx_HAL_Driver/Src/stm32f3xx_hal_tim.c ****   ******************************************************************************  
 124:Drivers/STM32F3xx_HAL_Driver/Src/stm32f3xx_hal_tim.c ****   */ 
 125:Drivers/STM32F3xx_HAL_Driver/Src/stm32f3xx_hal_tim.c **** 
 126:Drivers/STM32F3xx_HAL_Driver/Src/stm32f3xx_hal_tim.c **** /* Includes ------------------------------------------------------------------*/
 127:Drivers/STM32F3xx_HAL_Driver/Src/stm32f3xx_hal_tim.c **** #include "stm32f3xx_hal.h"
 128:Drivers/STM32F3xx_HAL_Driver/Src/stm32f3xx_hal_tim.c **** 
 129:Drivers/STM32F3xx_HAL_Driver/Src/stm32f3xx_hal_tim.c **** /** @addtogroup STM32F3xx_HAL_Driver
 130:Drivers/STM32F3xx_HAL_Driver/Src/stm32f3xx_hal_tim.c ****   * @{
 131:Drivers/STM32F3xx_HAL_Driver/Src/stm32f3xx_hal_tim.c ****   */
 132:Drivers/STM32F3xx_HAL_Driver/Src/stm32f3xx_hal_tim.c **** 
 133:Drivers/STM32F3xx_HAL_Driver/Src/stm32f3xx_hal_tim.c **** /** @defgroup TIM TIM
 134:Drivers/STM32F3xx_HAL_Driver/Src/stm32f3xx_hal_tim.c ****   * @brief TIM HAL module driver
 135:Drivers/STM32F3xx_HAL_Driver/Src/stm32f3xx_hal_tim.c ****   * @{
ARM GAS  /tmp/cc7U8joB.s 			page 4


 136:Drivers/STM32F3xx_HAL_Driver/Src/stm32f3xx_hal_tim.c ****   */
 137:Drivers/STM32F3xx_HAL_Driver/Src/stm32f3xx_hal_tim.c **** 
 138:Drivers/STM32F3xx_HAL_Driver/Src/stm32f3xx_hal_tim.c **** #ifdef HAL_TIM_MODULE_ENABLED
 139:Drivers/STM32F3xx_HAL_Driver/Src/stm32f3xx_hal_tim.c **** 
 140:Drivers/STM32F3xx_HAL_Driver/Src/stm32f3xx_hal_tim.c **** /* Private typedef -----------------------------------------------------------*/
 141:Drivers/STM32F3xx_HAL_Driver/Src/stm32f3xx_hal_tim.c **** /* Private define ------------------------------------------------------------*/
 142:Drivers/STM32F3xx_HAL_Driver/Src/stm32f3xx_hal_tim.c **** /* Private macro -------------------------------------------------------------*/
 143:Drivers/STM32F3xx_HAL_Driver/Src/stm32f3xx_hal_tim.c **** /* Private variables ---------------------------------------------------------*/
 144:Drivers/STM32F3xx_HAL_Driver/Src/stm32f3xx_hal_tim.c **** /* Private function prototypes -----------------------------------------------*/
 145:Drivers/STM32F3xx_HAL_Driver/Src/stm32f3xx_hal_tim.c **** 
 146:Drivers/STM32F3xx_HAL_Driver/Src/stm32f3xx_hal_tim.c **** /** @defgroup TIM_Private_Functions TIM Private Functions
 147:Drivers/STM32F3xx_HAL_Driver/Src/stm32f3xx_hal_tim.c ****   * @{
 148:Drivers/STM32F3xx_HAL_Driver/Src/stm32f3xx_hal_tim.c ****   */
 149:Drivers/STM32F3xx_HAL_Driver/Src/stm32f3xx_hal_tim.c **** static void TIM_TI1_ConfigInputStage(TIM_TypeDef *TIMx, uint32_t TIM_ICPolarity, uint32_t TIM_ICFil
 150:Drivers/STM32F3xx_HAL_Driver/Src/stm32f3xx_hal_tim.c **** static void TIM_TI2_SetConfig(TIM_TypeDef *TIMx, uint32_t TIM_ICPolarity, uint32_t TIM_ICSelection,
 151:Drivers/STM32F3xx_HAL_Driver/Src/stm32f3xx_hal_tim.c ****                        uint32_t TIM_ICFilter);
 152:Drivers/STM32F3xx_HAL_Driver/Src/stm32f3xx_hal_tim.c **** static void TIM_TI2_ConfigInputStage(TIM_TypeDef *TIMx, uint32_t TIM_ICPolarity, uint32_t TIM_ICFil
 153:Drivers/STM32F3xx_HAL_Driver/Src/stm32f3xx_hal_tim.c **** static void TIM_TI3_SetConfig(TIM_TypeDef *TIMx, uint32_t TIM_ICPolarity, uint32_t TIM_ICSelection,
 154:Drivers/STM32F3xx_HAL_Driver/Src/stm32f3xx_hal_tim.c ****                        uint32_t TIM_ICFilter);
 155:Drivers/STM32F3xx_HAL_Driver/Src/stm32f3xx_hal_tim.c **** static void TIM_TI4_SetConfig(TIM_TypeDef *TIMx, uint32_t TIM_ICPolarity, uint32_t TIM_ICSelection,
 156:Drivers/STM32F3xx_HAL_Driver/Src/stm32f3xx_hal_tim.c ****                        uint32_t TIM_ICFilter);
 157:Drivers/STM32F3xx_HAL_Driver/Src/stm32f3xx_hal_tim.c **** static void TIM_ITRx_SetConfig(TIM_TypeDef* TIMx, uint16_t InputTriggerSource);
 158:Drivers/STM32F3xx_HAL_Driver/Src/stm32f3xx_hal_tim.c **** static void TIM_DMAPeriodElapsedCplt(DMA_HandleTypeDef *hdma);
 159:Drivers/STM32F3xx_HAL_Driver/Src/stm32f3xx_hal_tim.c **** static void TIM_DMATriggerCplt(DMA_HandleTypeDef *hdma);
 160:Drivers/STM32F3xx_HAL_Driver/Src/stm32f3xx_hal_tim.c **** static void TIM_SlaveTimer_SetConfig(TIM_HandleTypeDef *htim,
 161:Drivers/STM32F3xx_HAL_Driver/Src/stm32f3xx_hal_tim.c ****                                      TIM_SlaveConfigTypeDef * sSlaveConfig);
 162:Drivers/STM32F3xx_HAL_Driver/Src/stm32f3xx_hal_tim.c **** 
 163:Drivers/STM32F3xx_HAL_Driver/Src/stm32f3xx_hal_tim.c **** /**
 164:Drivers/STM32F3xx_HAL_Driver/Src/stm32f3xx_hal_tim.c ****   * @}
 165:Drivers/STM32F3xx_HAL_Driver/Src/stm32f3xx_hal_tim.c ****   */
 166:Drivers/STM32F3xx_HAL_Driver/Src/stm32f3xx_hal_tim.c **** 
 167:Drivers/STM32F3xx_HAL_Driver/Src/stm32f3xx_hal_tim.c **** /* Exported functions ---------------------------------------------------------*/
 168:Drivers/STM32F3xx_HAL_Driver/Src/stm32f3xx_hal_tim.c **** 
 169:Drivers/STM32F3xx_HAL_Driver/Src/stm32f3xx_hal_tim.c **** /** @defgroup TIM_Exported_Functions TIM Exported Functions
 170:Drivers/STM32F3xx_HAL_Driver/Src/stm32f3xx_hal_tim.c ****   * @{
 171:Drivers/STM32F3xx_HAL_Driver/Src/stm32f3xx_hal_tim.c ****   */
 172:Drivers/STM32F3xx_HAL_Driver/Src/stm32f3xx_hal_tim.c **** 
 173:Drivers/STM32F3xx_HAL_Driver/Src/stm32f3xx_hal_tim.c **** /** @defgroup TIM_Exported_Functions_Group1 Time Base functions 
 174:Drivers/STM32F3xx_HAL_Driver/Src/stm32f3xx_hal_tim.c ****  *  @brief    Time Base functions 
 175:Drivers/STM32F3xx_HAL_Driver/Src/stm32f3xx_hal_tim.c ****  *
 176:Drivers/STM32F3xx_HAL_Driver/Src/stm32f3xx_hal_tim.c **** @verbatim    
 177:Drivers/STM32F3xx_HAL_Driver/Src/stm32f3xx_hal_tim.c ****   ==============================================================================
 178:Drivers/STM32F3xx_HAL_Driver/Src/stm32f3xx_hal_tim.c ****               ##### Time Base functions #####
 179:Drivers/STM32F3xx_HAL_Driver/Src/stm32f3xx_hal_tim.c ****   ==============================================================================
 180:Drivers/STM32F3xx_HAL_Driver/Src/stm32f3xx_hal_tim.c ****   [..]  
 181:Drivers/STM32F3xx_HAL_Driver/Src/stm32f3xx_hal_tim.c ****     This section provides functions allowing to:
 182:Drivers/STM32F3xx_HAL_Driver/Src/stm32f3xx_hal_tim.c ****     (+) Initialize and configure the TIM base. 
 183:Drivers/STM32F3xx_HAL_Driver/Src/stm32f3xx_hal_tim.c ****     (+) De-initialize the TIM base.
 184:Drivers/STM32F3xx_HAL_Driver/Src/stm32f3xx_hal_tim.c ****     (+) Start the Time Base.
 185:Drivers/STM32F3xx_HAL_Driver/Src/stm32f3xx_hal_tim.c ****     (+) Stop the Time Base.
 186:Drivers/STM32F3xx_HAL_Driver/Src/stm32f3xx_hal_tim.c ****     (+) Start the Time Base and enable interrupt.
 187:Drivers/STM32F3xx_HAL_Driver/Src/stm32f3xx_hal_tim.c ****     (+) Stop the Time Base and disable interrupt.
 188:Drivers/STM32F3xx_HAL_Driver/Src/stm32f3xx_hal_tim.c ****     (+) Start the Time Base and enable DMA transfer.
 189:Drivers/STM32F3xx_HAL_Driver/Src/stm32f3xx_hal_tim.c ****     (+) Stop the Time Base and disable DMA transfer.
 190:Drivers/STM32F3xx_HAL_Driver/Src/stm32f3xx_hal_tim.c ****  
 191:Drivers/STM32F3xx_HAL_Driver/Src/stm32f3xx_hal_tim.c **** @endverbatim
 192:Drivers/STM32F3xx_HAL_Driver/Src/stm32f3xx_hal_tim.c ****   * @{
ARM GAS  /tmp/cc7U8joB.s 			page 5


 193:Drivers/STM32F3xx_HAL_Driver/Src/stm32f3xx_hal_tim.c ****   */
 194:Drivers/STM32F3xx_HAL_Driver/Src/stm32f3xx_hal_tim.c **** /**
 195:Drivers/STM32F3xx_HAL_Driver/Src/stm32f3xx_hal_tim.c ****   * @brief  Initializes the TIM Time base Unit according to the specified
 196:Drivers/STM32F3xx_HAL_Driver/Src/stm32f3xx_hal_tim.c ****   *         parameters in the TIM_HandleTypeDef and create the associated handle.
 197:Drivers/STM32F3xx_HAL_Driver/Src/stm32f3xx_hal_tim.c ****   * @param  htim TIM Base handle
 198:Drivers/STM32F3xx_HAL_Driver/Src/stm32f3xx_hal_tim.c ****   * @retval HAL status
 199:Drivers/STM32F3xx_HAL_Driver/Src/stm32f3xx_hal_tim.c ****   */
 200:Drivers/STM32F3xx_HAL_Driver/Src/stm32f3xx_hal_tim.c **** HAL_StatusTypeDef HAL_TIM_Base_Init(TIM_HandleTypeDef *htim)
 201:Drivers/STM32F3xx_HAL_Driver/Src/stm32f3xx_hal_tim.c **** { 
  40              		.loc 1 201 0
  41              		.cfi_startproc
  42              		@ args = 0, pretend = 0, frame = 8
  43              		@ frame_needed = 1, uses_anonymous_args = 0
  44 0000 80B5     		push	{r7, lr}
  45              	.LCFI0:
  46              		.cfi_def_cfa_offset 8
  47              		.cfi_offset 7, -8
  48              		.cfi_offset 14, -4
  49 0002 82B0     		sub	sp, sp, #8
  50              	.LCFI1:
  51              		.cfi_def_cfa_offset 16
  52 0004 00AF     		add	r7, sp, #0
  53              	.LCFI2:
  54              		.cfi_def_cfa_register 7
  55 0006 7860     		str	r0, [r7, #4]
 202:Drivers/STM32F3xx_HAL_Driver/Src/stm32f3xx_hal_tim.c ****   /* Check the TIM handle allocation */
 203:Drivers/STM32F3xx_HAL_Driver/Src/stm32f3xx_hal_tim.c ****   if(htim == NULL)
  56              		.loc 1 203 0
  57 0008 7B68     		ldr	r3, [r7, #4]
  58 000a 002B     		cmp	r3, #0
  59 000c 01D1     		bne	.L2
 204:Drivers/STM32F3xx_HAL_Driver/Src/stm32f3xx_hal_tim.c ****   {
 205:Drivers/STM32F3xx_HAL_Driver/Src/stm32f3xx_hal_tim.c ****     return HAL_ERROR;
  60              		.loc 1 205 0
  61 000e 0123     		movs	r3, #1
  62 0010 1DE0     		b	.L3
  63              	.L2:
 206:Drivers/STM32F3xx_HAL_Driver/Src/stm32f3xx_hal_tim.c ****   }
 207:Drivers/STM32F3xx_HAL_Driver/Src/stm32f3xx_hal_tim.c ****   
 208:Drivers/STM32F3xx_HAL_Driver/Src/stm32f3xx_hal_tim.c ****   /* Check the parameters */
 209:Drivers/STM32F3xx_HAL_Driver/Src/stm32f3xx_hal_tim.c ****   assert_param(IS_TIM_INSTANCE(htim->Instance)); 
 210:Drivers/STM32F3xx_HAL_Driver/Src/stm32f3xx_hal_tim.c ****   assert_param(IS_TIM_COUNTER_MODE(htim->Init.CounterMode));
 211:Drivers/STM32F3xx_HAL_Driver/Src/stm32f3xx_hal_tim.c ****   assert_param(IS_TIM_CLOCKDIVISION_DIV(htim->Init.ClockDivision));
 212:Drivers/STM32F3xx_HAL_Driver/Src/stm32f3xx_hal_tim.c ****   assert_param(IS_TIM_AUTORELOAD_PRELOAD(htim->Init.AutoReloadPreload));
 213:Drivers/STM32F3xx_HAL_Driver/Src/stm32f3xx_hal_tim.c ****   
 214:Drivers/STM32F3xx_HAL_Driver/Src/stm32f3xx_hal_tim.c ****   if(htim->State == HAL_TIM_STATE_RESET)
  64              		.loc 1 214 0
  65 0012 7B68     		ldr	r3, [r7, #4]
  66 0014 93F83D30 		ldrb	r3, [r3, #61]
  67 0018 DBB2     		uxtb	r3, r3
  68 001a 002B     		cmp	r3, #0
  69 001c 06D1     		bne	.L4
 215:Drivers/STM32F3xx_HAL_Driver/Src/stm32f3xx_hal_tim.c ****   {  
 216:Drivers/STM32F3xx_HAL_Driver/Src/stm32f3xx_hal_tim.c ****     /* Allocate lock resource and initialize it */
 217:Drivers/STM32F3xx_HAL_Driver/Src/stm32f3xx_hal_tim.c ****     htim->Lock = HAL_UNLOCKED;
  70              		.loc 1 217 0
  71 001e 7B68     		ldr	r3, [r7, #4]
ARM GAS  /tmp/cc7U8joB.s 			page 6


  72 0020 0022     		movs	r2, #0
  73 0022 83F83C20 		strb	r2, [r3, #60]
 218:Drivers/STM32F3xx_HAL_Driver/Src/stm32f3xx_hal_tim.c **** 
 219:Drivers/STM32F3xx_HAL_Driver/Src/stm32f3xx_hal_tim.c ****     /* Init the low level hardware : GPIO, CLOCK, NVIC */
 220:Drivers/STM32F3xx_HAL_Driver/Src/stm32f3xx_hal_tim.c ****     HAL_TIM_Base_MspInit(htim);
  74              		.loc 1 220 0
  75 0026 7868     		ldr	r0, [r7, #4]
  76 0028 FFF7FEFF 		bl	HAL_TIM_Base_MspInit
  77              	.L4:
 221:Drivers/STM32F3xx_HAL_Driver/Src/stm32f3xx_hal_tim.c ****   }
 222:Drivers/STM32F3xx_HAL_Driver/Src/stm32f3xx_hal_tim.c ****   
 223:Drivers/STM32F3xx_HAL_Driver/Src/stm32f3xx_hal_tim.c ****   /* Set the TIM state */
 224:Drivers/STM32F3xx_HAL_Driver/Src/stm32f3xx_hal_tim.c ****   htim->State= HAL_TIM_STATE_BUSY;
  78              		.loc 1 224 0
  79 002c 7B68     		ldr	r3, [r7, #4]
  80 002e 0222     		movs	r2, #2
  81 0030 83F83D20 		strb	r2, [r3, #61]
 225:Drivers/STM32F3xx_HAL_Driver/Src/stm32f3xx_hal_tim.c ****   
 226:Drivers/STM32F3xx_HAL_Driver/Src/stm32f3xx_hal_tim.c ****   /* Set the Time Base configuration */
 227:Drivers/STM32F3xx_HAL_Driver/Src/stm32f3xx_hal_tim.c ****   TIM_Base_SetConfig(htim->Instance, &htim->Init); 
  82              		.loc 1 227 0
  83 0034 7B68     		ldr	r3, [r7, #4]
  84 0036 1A68     		ldr	r2, [r3]
  85 0038 7B68     		ldr	r3, [r7, #4]
  86 003a 0433     		adds	r3, r3, #4
  87 003c 1946     		mov	r1, r3
  88 003e 1046     		mov	r0, r2
  89 0040 FFF7FEFF 		bl	TIM_Base_SetConfig
 228:Drivers/STM32F3xx_HAL_Driver/Src/stm32f3xx_hal_tim.c ****   
 229:Drivers/STM32F3xx_HAL_Driver/Src/stm32f3xx_hal_tim.c ****   /* Initialize the TIM state*/
 230:Drivers/STM32F3xx_HAL_Driver/Src/stm32f3xx_hal_tim.c ****   htim->State= HAL_TIM_STATE_READY;
  90              		.loc 1 230 0
  91 0044 7B68     		ldr	r3, [r7, #4]
  92 0046 0122     		movs	r2, #1
  93 0048 83F83D20 		strb	r2, [r3, #61]
 231:Drivers/STM32F3xx_HAL_Driver/Src/stm32f3xx_hal_tim.c ****   
 232:Drivers/STM32F3xx_HAL_Driver/Src/stm32f3xx_hal_tim.c ****   return HAL_OK;
  94              		.loc 1 232 0
  95 004c 0023     		movs	r3, #0
  96              	.L3:
 233:Drivers/STM32F3xx_HAL_Driver/Src/stm32f3xx_hal_tim.c **** }
  97              		.loc 1 233 0
  98 004e 1846     		mov	r0, r3
  99 0050 0837     		adds	r7, r7, #8
 100              	.LCFI3:
 101              		.cfi_def_cfa_offset 8
 102 0052 BD46     		mov	sp, r7
 103              	.LCFI4:
 104              		.cfi_def_cfa_register 13
 105              		@ sp needed
 106 0054 80BD     		pop	{r7, pc}
 107              		.cfi_endproc
 108              	.LFE695:
 110              		.section	.text.HAL_TIM_Base_DeInit,"ax",%progbits
 111              		.align	1
 112              		.global	HAL_TIM_Base_DeInit
 113              		.syntax unified
ARM GAS  /tmp/cc7U8joB.s 			page 7


 114              		.thumb
 115              		.thumb_func
 116              		.fpu fpv4-sp-d16
 118              	HAL_TIM_Base_DeInit:
 119              	.LFB696:
 234:Drivers/STM32F3xx_HAL_Driver/Src/stm32f3xx_hal_tim.c **** 
 235:Drivers/STM32F3xx_HAL_Driver/Src/stm32f3xx_hal_tim.c **** /**
 236:Drivers/STM32F3xx_HAL_Driver/Src/stm32f3xx_hal_tim.c ****   * @brief  DeInitializes the TIM Base peripheral 
 237:Drivers/STM32F3xx_HAL_Driver/Src/stm32f3xx_hal_tim.c ****   * @param  htim TIM Base handle
 238:Drivers/STM32F3xx_HAL_Driver/Src/stm32f3xx_hal_tim.c ****   * @retval HAL status
 239:Drivers/STM32F3xx_HAL_Driver/Src/stm32f3xx_hal_tim.c ****   */
 240:Drivers/STM32F3xx_HAL_Driver/Src/stm32f3xx_hal_tim.c **** HAL_StatusTypeDef HAL_TIM_Base_DeInit(TIM_HandleTypeDef *htim)
 241:Drivers/STM32F3xx_HAL_Driver/Src/stm32f3xx_hal_tim.c **** {
 120              		.loc 1 241 0
 121              		.cfi_startproc
 122              		@ args = 0, pretend = 0, frame = 8
 123              		@ frame_needed = 1, uses_anonymous_args = 0
 124 0000 80B5     		push	{r7, lr}
 125              	.LCFI5:
 126              		.cfi_def_cfa_offset 8
 127              		.cfi_offset 7, -8
 128              		.cfi_offset 14, -4
 129 0002 82B0     		sub	sp, sp, #8
 130              	.LCFI6:
 131              		.cfi_def_cfa_offset 16
 132 0004 00AF     		add	r7, sp, #0
 133              	.LCFI7:
 134              		.cfi_def_cfa_register 7
 135 0006 7860     		str	r0, [r7, #4]
 242:Drivers/STM32F3xx_HAL_Driver/Src/stm32f3xx_hal_tim.c ****   /* Check the parameters */
 243:Drivers/STM32F3xx_HAL_Driver/Src/stm32f3xx_hal_tim.c ****   assert_param(IS_TIM_INSTANCE(htim->Instance));
 244:Drivers/STM32F3xx_HAL_Driver/Src/stm32f3xx_hal_tim.c ****    
 245:Drivers/STM32F3xx_HAL_Driver/Src/stm32f3xx_hal_tim.c ****   htim->State = HAL_TIM_STATE_BUSY;
 136              		.loc 1 245 0
 137 0008 7B68     		ldr	r3, [r7, #4]
 138 000a 0222     		movs	r2, #2
 139 000c 83F83D20 		strb	r2, [r3, #61]
 246:Drivers/STM32F3xx_HAL_Driver/Src/stm32f3xx_hal_tim.c ****    
 247:Drivers/STM32F3xx_HAL_Driver/Src/stm32f3xx_hal_tim.c ****   /* Disable the TIM Peripheral Clock */
 248:Drivers/STM32F3xx_HAL_Driver/Src/stm32f3xx_hal_tim.c ****   __HAL_TIM_DISABLE(htim);
 140              		.loc 1 248 0
 141 0010 7B68     		ldr	r3, [r7, #4]
 142 0012 1B68     		ldr	r3, [r3]
 143 0014 1A6A     		ldr	r2, [r3, #32]
 144 0016 41F21113 		movw	r3, #4369
 145 001a 1340     		ands	r3, r3, r2
 146 001c 002B     		cmp	r3, #0
 147 001e 0FD1     		bne	.L6
 148              		.loc 1 248 0 is_stmt 0 discriminator 1
 149 0020 7B68     		ldr	r3, [r7, #4]
 150 0022 1B68     		ldr	r3, [r3]
 151 0024 1A6A     		ldr	r2, [r3, #32]
 152 0026 40F24443 		movw	r3, #1092
 153 002a 1340     		ands	r3, r3, r2
 154 002c 002B     		cmp	r3, #0
 155 002e 07D1     		bne	.L6
 156              		.loc 1 248 0 discriminator 2
ARM GAS  /tmp/cc7U8joB.s 			page 8


 157 0030 7B68     		ldr	r3, [r7, #4]
 158 0032 1B68     		ldr	r3, [r3]
 159 0034 1A68     		ldr	r2, [r3]
 160 0036 7B68     		ldr	r3, [r7, #4]
 161 0038 1B68     		ldr	r3, [r3]
 162 003a 22F00102 		bic	r2, r2, #1
 163 003e 1A60     		str	r2, [r3]
 164              	.L6:
 249:Drivers/STM32F3xx_HAL_Driver/Src/stm32f3xx_hal_tim.c ****     
 250:Drivers/STM32F3xx_HAL_Driver/Src/stm32f3xx_hal_tim.c ****   /* DeInit the low level hardware: GPIO, CLOCK, NVIC */
 251:Drivers/STM32F3xx_HAL_Driver/Src/stm32f3xx_hal_tim.c ****   HAL_TIM_Base_MspDeInit(htim);
 165              		.loc 1 251 0 is_stmt 1
 166 0040 7868     		ldr	r0, [r7, #4]
 167 0042 FFF7FEFF 		bl	HAL_TIM_Base_MspDeInit
 252:Drivers/STM32F3xx_HAL_Driver/Src/stm32f3xx_hal_tim.c ****     
 253:Drivers/STM32F3xx_HAL_Driver/Src/stm32f3xx_hal_tim.c ****   /* Change TIM state */  
 254:Drivers/STM32F3xx_HAL_Driver/Src/stm32f3xx_hal_tim.c ****   htim->State = HAL_TIM_STATE_RESET; 
 168              		.loc 1 254 0
 169 0046 7B68     		ldr	r3, [r7, #4]
 170 0048 0022     		movs	r2, #0
 171 004a 83F83D20 		strb	r2, [r3, #61]
 255:Drivers/STM32F3xx_HAL_Driver/Src/stm32f3xx_hal_tim.c ****   
 256:Drivers/STM32F3xx_HAL_Driver/Src/stm32f3xx_hal_tim.c ****   /* Release Lock */
 257:Drivers/STM32F3xx_HAL_Driver/Src/stm32f3xx_hal_tim.c ****   __HAL_UNLOCK(htim);
 172              		.loc 1 257 0
 173 004e 7B68     		ldr	r3, [r7, #4]
 174 0050 0022     		movs	r2, #0
 175 0052 83F83C20 		strb	r2, [r3, #60]
 258:Drivers/STM32F3xx_HAL_Driver/Src/stm32f3xx_hal_tim.c **** 
 259:Drivers/STM32F3xx_HAL_Driver/Src/stm32f3xx_hal_tim.c ****   return HAL_OK;
 176              		.loc 1 259 0
 177 0056 0023     		movs	r3, #0
 260:Drivers/STM32F3xx_HAL_Driver/Src/stm32f3xx_hal_tim.c **** }
 178              		.loc 1 260 0
 179 0058 1846     		mov	r0, r3
 180 005a 0837     		adds	r7, r7, #8
 181              	.LCFI8:
 182              		.cfi_def_cfa_offset 8
 183 005c BD46     		mov	sp, r7
 184              	.LCFI9:
 185              		.cfi_def_cfa_register 13
 186              		@ sp needed
 187 005e 80BD     		pop	{r7, pc}
 188              		.cfi_endproc
 189              	.LFE696:
 191              		.section	.text.HAL_TIM_Base_MspInit,"ax",%progbits
 192              		.align	1
 193              		.weak	HAL_TIM_Base_MspInit
 194              		.syntax unified
 195              		.thumb
 196              		.thumb_func
 197              		.fpu fpv4-sp-d16
 199              	HAL_TIM_Base_MspInit:
 200              	.LFB697:
 261:Drivers/STM32F3xx_HAL_Driver/Src/stm32f3xx_hal_tim.c **** 
 262:Drivers/STM32F3xx_HAL_Driver/Src/stm32f3xx_hal_tim.c **** /**
 263:Drivers/STM32F3xx_HAL_Driver/Src/stm32f3xx_hal_tim.c ****   * @brief  Initializes the TIM Base MSP.
ARM GAS  /tmp/cc7U8joB.s 			page 9


 264:Drivers/STM32F3xx_HAL_Driver/Src/stm32f3xx_hal_tim.c ****   * @param  htim TIM handle
 265:Drivers/STM32F3xx_HAL_Driver/Src/stm32f3xx_hal_tim.c ****   * @retval None
 266:Drivers/STM32F3xx_HAL_Driver/Src/stm32f3xx_hal_tim.c ****   */
 267:Drivers/STM32F3xx_HAL_Driver/Src/stm32f3xx_hal_tim.c **** __weak void HAL_TIM_Base_MspInit(TIM_HandleTypeDef *htim)
 268:Drivers/STM32F3xx_HAL_Driver/Src/stm32f3xx_hal_tim.c **** {
 201              		.loc 1 268 0
 202              		.cfi_startproc
 203              		@ args = 0, pretend = 0, frame = 8
 204              		@ frame_needed = 1, uses_anonymous_args = 0
 205              		@ link register save eliminated.
 206 0000 80B4     		push	{r7}
 207              	.LCFI10:
 208              		.cfi_def_cfa_offset 4
 209              		.cfi_offset 7, -4
 210 0002 83B0     		sub	sp, sp, #12
 211              	.LCFI11:
 212              		.cfi_def_cfa_offset 16
 213 0004 00AF     		add	r7, sp, #0
 214              	.LCFI12:
 215              		.cfi_def_cfa_register 7
 216 0006 7860     		str	r0, [r7, #4]
 269:Drivers/STM32F3xx_HAL_Driver/Src/stm32f3xx_hal_tim.c ****   /* Prevent unused argument(s) compilation warning */
 270:Drivers/STM32F3xx_HAL_Driver/Src/stm32f3xx_hal_tim.c ****   UNUSED(htim);
 271:Drivers/STM32F3xx_HAL_Driver/Src/stm32f3xx_hal_tim.c **** 
 272:Drivers/STM32F3xx_HAL_Driver/Src/stm32f3xx_hal_tim.c ****   /* NOTE : This function Should not be modified, when the callback is needed,
 273:Drivers/STM32F3xx_HAL_Driver/Src/stm32f3xx_hal_tim.c ****             the HAL_TIM_Base_MspInit could be implemented in the user file
 274:Drivers/STM32F3xx_HAL_Driver/Src/stm32f3xx_hal_tim.c ****    */
 275:Drivers/STM32F3xx_HAL_Driver/Src/stm32f3xx_hal_tim.c **** }
 217              		.loc 1 275 0
 218 0008 00BF     		nop
 219 000a 0C37     		adds	r7, r7, #12
 220              	.LCFI13:
 221              		.cfi_def_cfa_offset 4
 222 000c BD46     		mov	sp, r7
 223              	.LCFI14:
 224              		.cfi_def_cfa_register 13
 225              		@ sp needed
 226 000e 5DF8047B 		ldr	r7, [sp], #4
 227              	.LCFI15:
 228              		.cfi_restore 7
 229              		.cfi_def_cfa_offset 0
 230 0012 7047     		bx	lr
 231              		.cfi_endproc
 232              	.LFE697:
 234              		.section	.text.HAL_TIM_Base_MspDeInit,"ax",%progbits
 235              		.align	1
 236              		.weak	HAL_TIM_Base_MspDeInit
 237              		.syntax unified
 238              		.thumb
 239              		.thumb_func
 240              		.fpu fpv4-sp-d16
 242              	HAL_TIM_Base_MspDeInit:
 243              	.LFB698:
 276:Drivers/STM32F3xx_HAL_Driver/Src/stm32f3xx_hal_tim.c **** 
 277:Drivers/STM32F3xx_HAL_Driver/Src/stm32f3xx_hal_tim.c **** /**
 278:Drivers/STM32F3xx_HAL_Driver/Src/stm32f3xx_hal_tim.c ****   * @brief  DeInitializes TIM Base MSP.
 279:Drivers/STM32F3xx_HAL_Driver/Src/stm32f3xx_hal_tim.c ****   * @param  htim TIM handle
ARM GAS  /tmp/cc7U8joB.s 			page 10


 280:Drivers/STM32F3xx_HAL_Driver/Src/stm32f3xx_hal_tim.c ****   * @retval None
 281:Drivers/STM32F3xx_HAL_Driver/Src/stm32f3xx_hal_tim.c ****   */
 282:Drivers/STM32F3xx_HAL_Driver/Src/stm32f3xx_hal_tim.c **** __weak void HAL_TIM_Base_MspDeInit(TIM_HandleTypeDef *htim)
 283:Drivers/STM32F3xx_HAL_Driver/Src/stm32f3xx_hal_tim.c **** {
 244              		.loc 1 283 0
 245              		.cfi_startproc
 246              		@ args = 0, pretend = 0, frame = 8
 247              		@ frame_needed = 1, uses_anonymous_args = 0
 248              		@ link register save eliminated.
 249 0000 80B4     		push	{r7}
 250              	.LCFI16:
 251              		.cfi_def_cfa_offset 4
 252              		.cfi_offset 7, -4
 253 0002 83B0     		sub	sp, sp, #12
 254              	.LCFI17:
 255              		.cfi_def_cfa_offset 16
 256 0004 00AF     		add	r7, sp, #0
 257              	.LCFI18:
 258              		.cfi_def_cfa_register 7
 259 0006 7860     		str	r0, [r7, #4]
 284:Drivers/STM32F3xx_HAL_Driver/Src/stm32f3xx_hal_tim.c ****   /* Prevent unused argument(s) compilation warning */
 285:Drivers/STM32F3xx_HAL_Driver/Src/stm32f3xx_hal_tim.c ****   UNUSED(htim);
 286:Drivers/STM32F3xx_HAL_Driver/Src/stm32f3xx_hal_tim.c **** 
 287:Drivers/STM32F3xx_HAL_Driver/Src/stm32f3xx_hal_tim.c ****   /* NOTE : This function Should not be modified, when the callback is needed,
 288:Drivers/STM32F3xx_HAL_Driver/Src/stm32f3xx_hal_tim.c ****             the HAL_TIM_Base_MspDeInit could be implemented in the user file
 289:Drivers/STM32F3xx_HAL_Driver/Src/stm32f3xx_hal_tim.c ****    */
 290:Drivers/STM32F3xx_HAL_Driver/Src/stm32f3xx_hal_tim.c **** }
 260              		.loc 1 290 0
 261 0008 00BF     		nop
 262 000a 0C37     		adds	r7, r7, #12
 263              	.LCFI19:
 264              		.cfi_def_cfa_offset 4
 265 000c BD46     		mov	sp, r7
 266              	.LCFI20:
 267              		.cfi_def_cfa_register 13
 268              		@ sp needed
 269 000e 5DF8047B 		ldr	r7, [sp], #4
 270              	.LCFI21:
 271              		.cfi_restore 7
 272              		.cfi_def_cfa_offset 0
 273 0012 7047     		bx	lr
 274              		.cfi_endproc
 275              	.LFE698:
 277              		.section	.text.HAL_TIM_Base_Start,"ax",%progbits
 278              		.align	1
 279              		.global	HAL_TIM_Base_Start
 280              		.syntax unified
 281              		.thumb
 282              		.thumb_func
 283              		.fpu fpv4-sp-d16
 285              	HAL_TIM_Base_Start:
 286              	.LFB699:
 291:Drivers/STM32F3xx_HAL_Driver/Src/stm32f3xx_hal_tim.c **** 
 292:Drivers/STM32F3xx_HAL_Driver/Src/stm32f3xx_hal_tim.c **** 
 293:Drivers/STM32F3xx_HAL_Driver/Src/stm32f3xx_hal_tim.c **** /**
 294:Drivers/STM32F3xx_HAL_Driver/Src/stm32f3xx_hal_tim.c ****   * @brief  Starts the TIM Base generation.
 295:Drivers/STM32F3xx_HAL_Driver/Src/stm32f3xx_hal_tim.c ****   * @param  htim TIM handle
ARM GAS  /tmp/cc7U8joB.s 			page 11


 296:Drivers/STM32F3xx_HAL_Driver/Src/stm32f3xx_hal_tim.c ****   * @retval HAL status
 297:Drivers/STM32F3xx_HAL_Driver/Src/stm32f3xx_hal_tim.c **** */
 298:Drivers/STM32F3xx_HAL_Driver/Src/stm32f3xx_hal_tim.c **** HAL_StatusTypeDef HAL_TIM_Base_Start(TIM_HandleTypeDef *htim)
 299:Drivers/STM32F3xx_HAL_Driver/Src/stm32f3xx_hal_tim.c **** {
 287              		.loc 1 299 0
 288              		.cfi_startproc
 289              		@ args = 0, pretend = 0, frame = 8
 290              		@ frame_needed = 1, uses_anonymous_args = 0
 291              		@ link register save eliminated.
 292 0000 80B4     		push	{r7}
 293              	.LCFI22:
 294              		.cfi_def_cfa_offset 4
 295              		.cfi_offset 7, -4
 296 0002 83B0     		sub	sp, sp, #12
 297              	.LCFI23:
 298              		.cfi_def_cfa_offset 16
 299 0004 00AF     		add	r7, sp, #0
 300              	.LCFI24:
 301              		.cfi_def_cfa_register 7
 302 0006 7860     		str	r0, [r7, #4]
 300:Drivers/STM32F3xx_HAL_Driver/Src/stm32f3xx_hal_tim.c ****   /* Check the parameters */
 301:Drivers/STM32F3xx_HAL_Driver/Src/stm32f3xx_hal_tim.c ****   assert_param(IS_TIM_INSTANCE(htim->Instance));
 302:Drivers/STM32F3xx_HAL_Driver/Src/stm32f3xx_hal_tim.c ****   
 303:Drivers/STM32F3xx_HAL_Driver/Src/stm32f3xx_hal_tim.c ****   /* Set the TIM state */
 304:Drivers/STM32F3xx_HAL_Driver/Src/stm32f3xx_hal_tim.c ****   htim->State= HAL_TIM_STATE_BUSY;
 303              		.loc 1 304 0
 304 0008 7B68     		ldr	r3, [r7, #4]
 305 000a 0222     		movs	r2, #2
 306 000c 83F83D20 		strb	r2, [r3, #61]
 305:Drivers/STM32F3xx_HAL_Driver/Src/stm32f3xx_hal_tim.c ****   
 306:Drivers/STM32F3xx_HAL_Driver/Src/stm32f3xx_hal_tim.c ****   /* Enable the Peripheral */
 307:Drivers/STM32F3xx_HAL_Driver/Src/stm32f3xx_hal_tim.c ****   __HAL_TIM_ENABLE(htim);
 307              		.loc 1 307 0
 308 0010 7B68     		ldr	r3, [r7, #4]
 309 0012 1B68     		ldr	r3, [r3]
 310 0014 1A68     		ldr	r2, [r3]
 311 0016 7B68     		ldr	r3, [r7, #4]
 312 0018 1B68     		ldr	r3, [r3]
 313 001a 42F00102 		orr	r2, r2, #1
 314 001e 1A60     		str	r2, [r3]
 308:Drivers/STM32F3xx_HAL_Driver/Src/stm32f3xx_hal_tim.c ****   
 309:Drivers/STM32F3xx_HAL_Driver/Src/stm32f3xx_hal_tim.c ****   /* Change the TIM state*/
 310:Drivers/STM32F3xx_HAL_Driver/Src/stm32f3xx_hal_tim.c ****   htim->State= HAL_TIM_STATE_READY;
 315              		.loc 1 310 0
 316 0020 7B68     		ldr	r3, [r7, #4]
 317 0022 0122     		movs	r2, #1
 318 0024 83F83D20 		strb	r2, [r3, #61]
 311:Drivers/STM32F3xx_HAL_Driver/Src/stm32f3xx_hal_tim.c ****   
 312:Drivers/STM32F3xx_HAL_Driver/Src/stm32f3xx_hal_tim.c ****   /* Return function status */
 313:Drivers/STM32F3xx_HAL_Driver/Src/stm32f3xx_hal_tim.c ****   return HAL_OK;
 319              		.loc 1 313 0
 320 0028 0023     		movs	r3, #0
 314:Drivers/STM32F3xx_HAL_Driver/Src/stm32f3xx_hal_tim.c **** }
 321              		.loc 1 314 0
 322 002a 1846     		mov	r0, r3
 323 002c 0C37     		adds	r7, r7, #12
 324              	.LCFI25:
ARM GAS  /tmp/cc7U8joB.s 			page 12


 325              		.cfi_def_cfa_offset 4
 326 002e BD46     		mov	sp, r7
 327              	.LCFI26:
 328              		.cfi_def_cfa_register 13
 329              		@ sp needed
 330 0030 5DF8047B 		ldr	r7, [sp], #4
 331              	.LCFI27:
 332              		.cfi_restore 7
 333              		.cfi_def_cfa_offset 0
 334 0034 7047     		bx	lr
 335              		.cfi_endproc
 336              	.LFE699:
 338              		.section	.text.HAL_TIM_Base_Stop,"ax",%progbits
 339              		.align	1
 340              		.global	HAL_TIM_Base_Stop
 341              		.syntax unified
 342              		.thumb
 343              		.thumb_func
 344              		.fpu fpv4-sp-d16
 346              	HAL_TIM_Base_Stop:
 347              	.LFB700:
 315:Drivers/STM32F3xx_HAL_Driver/Src/stm32f3xx_hal_tim.c **** 
 316:Drivers/STM32F3xx_HAL_Driver/Src/stm32f3xx_hal_tim.c **** /**
 317:Drivers/STM32F3xx_HAL_Driver/Src/stm32f3xx_hal_tim.c ****   * @brief  Stops the TIM Base generation.
 318:Drivers/STM32F3xx_HAL_Driver/Src/stm32f3xx_hal_tim.c ****   * @param  htim TIM handle
 319:Drivers/STM32F3xx_HAL_Driver/Src/stm32f3xx_hal_tim.c ****   * @retval HAL status
 320:Drivers/STM32F3xx_HAL_Driver/Src/stm32f3xx_hal_tim.c **** */
 321:Drivers/STM32F3xx_HAL_Driver/Src/stm32f3xx_hal_tim.c **** HAL_StatusTypeDef HAL_TIM_Base_Stop(TIM_HandleTypeDef *htim)
 322:Drivers/STM32F3xx_HAL_Driver/Src/stm32f3xx_hal_tim.c **** {
 348              		.loc 1 322 0
 349              		.cfi_startproc
 350              		@ args = 0, pretend = 0, frame = 8
 351              		@ frame_needed = 1, uses_anonymous_args = 0
 352              		@ link register save eliminated.
 353 0000 80B4     		push	{r7}
 354              	.LCFI28:
 355              		.cfi_def_cfa_offset 4
 356              		.cfi_offset 7, -4
 357 0002 83B0     		sub	sp, sp, #12
 358              	.LCFI29:
 359              		.cfi_def_cfa_offset 16
 360 0004 00AF     		add	r7, sp, #0
 361              	.LCFI30:
 362              		.cfi_def_cfa_register 7
 363 0006 7860     		str	r0, [r7, #4]
 323:Drivers/STM32F3xx_HAL_Driver/Src/stm32f3xx_hal_tim.c ****   /* Check the parameters */
 324:Drivers/STM32F3xx_HAL_Driver/Src/stm32f3xx_hal_tim.c ****   assert_param(IS_TIM_INSTANCE(htim->Instance));
 325:Drivers/STM32F3xx_HAL_Driver/Src/stm32f3xx_hal_tim.c ****   
 326:Drivers/STM32F3xx_HAL_Driver/Src/stm32f3xx_hal_tim.c ****   /* Set the TIM state */
 327:Drivers/STM32F3xx_HAL_Driver/Src/stm32f3xx_hal_tim.c ****   htim->State= HAL_TIM_STATE_BUSY;
 364              		.loc 1 327 0
 365 0008 7B68     		ldr	r3, [r7, #4]
 366 000a 0222     		movs	r2, #2
 367 000c 83F83D20 		strb	r2, [r3, #61]
 328:Drivers/STM32F3xx_HAL_Driver/Src/stm32f3xx_hal_tim.c ****   
 329:Drivers/STM32F3xx_HAL_Driver/Src/stm32f3xx_hal_tim.c ****   /* Disable the Peripheral */
 330:Drivers/STM32F3xx_HAL_Driver/Src/stm32f3xx_hal_tim.c ****   __HAL_TIM_DISABLE(htim);
ARM GAS  /tmp/cc7U8joB.s 			page 13


 368              		.loc 1 330 0
 369 0010 7B68     		ldr	r3, [r7, #4]
 370 0012 1B68     		ldr	r3, [r3]
 371 0014 1A6A     		ldr	r2, [r3, #32]
 372 0016 41F21113 		movw	r3, #4369
 373 001a 1340     		ands	r3, r3, r2
 374 001c 002B     		cmp	r3, #0
 375 001e 0FD1     		bne	.L13
 376              		.loc 1 330 0 is_stmt 0 discriminator 1
 377 0020 7B68     		ldr	r3, [r7, #4]
 378 0022 1B68     		ldr	r3, [r3]
 379 0024 1A6A     		ldr	r2, [r3, #32]
 380 0026 40F24443 		movw	r3, #1092
 381 002a 1340     		ands	r3, r3, r2
 382 002c 002B     		cmp	r3, #0
 383 002e 07D1     		bne	.L13
 384              		.loc 1 330 0 discriminator 2
 385 0030 7B68     		ldr	r3, [r7, #4]
 386 0032 1B68     		ldr	r3, [r3]
 387 0034 1A68     		ldr	r2, [r3]
 388 0036 7B68     		ldr	r3, [r7, #4]
 389 0038 1B68     		ldr	r3, [r3]
 390 003a 22F00102 		bic	r2, r2, #1
 391 003e 1A60     		str	r2, [r3]
 392              	.L13:
 331:Drivers/STM32F3xx_HAL_Driver/Src/stm32f3xx_hal_tim.c ****   
 332:Drivers/STM32F3xx_HAL_Driver/Src/stm32f3xx_hal_tim.c ****   /* Change the TIM state*/
 333:Drivers/STM32F3xx_HAL_Driver/Src/stm32f3xx_hal_tim.c ****   htim->State= HAL_TIM_STATE_READY;
 393              		.loc 1 333 0 is_stmt 1
 394 0040 7B68     		ldr	r3, [r7, #4]
 395 0042 0122     		movs	r2, #1
 396 0044 83F83D20 		strb	r2, [r3, #61]
 334:Drivers/STM32F3xx_HAL_Driver/Src/stm32f3xx_hal_tim.c ****   
 335:Drivers/STM32F3xx_HAL_Driver/Src/stm32f3xx_hal_tim.c ****   /* Return function status */
 336:Drivers/STM32F3xx_HAL_Driver/Src/stm32f3xx_hal_tim.c ****   return HAL_OK;
 397              		.loc 1 336 0
 398 0048 0023     		movs	r3, #0
 337:Drivers/STM32F3xx_HAL_Driver/Src/stm32f3xx_hal_tim.c **** }
 399              		.loc 1 337 0
 400 004a 1846     		mov	r0, r3
 401 004c 0C37     		adds	r7, r7, #12
 402              	.LCFI31:
 403              		.cfi_def_cfa_offset 4
 404 004e BD46     		mov	sp, r7
 405              	.LCFI32:
 406              		.cfi_def_cfa_register 13
 407              		@ sp needed
 408 0050 5DF8047B 		ldr	r7, [sp], #4
 409              	.LCFI33:
 410              		.cfi_restore 7
 411              		.cfi_def_cfa_offset 0
 412 0054 7047     		bx	lr
 413              		.cfi_endproc
 414              	.LFE700:
 416              		.section	.text.HAL_TIM_Base_Start_IT,"ax",%progbits
 417              		.align	1
 418              		.global	HAL_TIM_Base_Start_IT
ARM GAS  /tmp/cc7U8joB.s 			page 14


 419              		.syntax unified
 420              		.thumb
 421              		.thumb_func
 422              		.fpu fpv4-sp-d16
 424              	HAL_TIM_Base_Start_IT:
 425              	.LFB701:
 338:Drivers/STM32F3xx_HAL_Driver/Src/stm32f3xx_hal_tim.c **** 
 339:Drivers/STM32F3xx_HAL_Driver/Src/stm32f3xx_hal_tim.c **** /**
 340:Drivers/STM32F3xx_HAL_Driver/Src/stm32f3xx_hal_tim.c ****   * @brief  Starts the TIM Base generation in interrupt mode.
 341:Drivers/STM32F3xx_HAL_Driver/Src/stm32f3xx_hal_tim.c ****   * @param  htim TIM handle
 342:Drivers/STM32F3xx_HAL_Driver/Src/stm32f3xx_hal_tim.c ****   * @retval HAL status
 343:Drivers/STM32F3xx_HAL_Driver/Src/stm32f3xx_hal_tim.c **** */
 344:Drivers/STM32F3xx_HAL_Driver/Src/stm32f3xx_hal_tim.c **** HAL_StatusTypeDef HAL_TIM_Base_Start_IT(TIM_HandleTypeDef *htim)
 345:Drivers/STM32F3xx_HAL_Driver/Src/stm32f3xx_hal_tim.c **** {
 426              		.loc 1 345 0
 427              		.cfi_startproc
 428              		@ args = 0, pretend = 0, frame = 8
 429              		@ frame_needed = 1, uses_anonymous_args = 0
 430              		@ link register save eliminated.
 431 0000 80B4     		push	{r7}
 432              	.LCFI34:
 433              		.cfi_def_cfa_offset 4
 434              		.cfi_offset 7, -4
 435 0002 83B0     		sub	sp, sp, #12
 436              	.LCFI35:
 437              		.cfi_def_cfa_offset 16
 438 0004 00AF     		add	r7, sp, #0
 439              	.LCFI36:
 440              		.cfi_def_cfa_register 7
 441 0006 7860     		str	r0, [r7, #4]
 346:Drivers/STM32F3xx_HAL_Driver/Src/stm32f3xx_hal_tim.c ****   /* Check the parameters */
 347:Drivers/STM32F3xx_HAL_Driver/Src/stm32f3xx_hal_tim.c ****   assert_param(IS_TIM_INSTANCE(htim->Instance));
 348:Drivers/STM32F3xx_HAL_Driver/Src/stm32f3xx_hal_tim.c ****   
 349:Drivers/STM32F3xx_HAL_Driver/Src/stm32f3xx_hal_tim.c ****    /* Enable the TIM Update interrupt */
 350:Drivers/STM32F3xx_HAL_Driver/Src/stm32f3xx_hal_tim.c ****    __HAL_TIM_ENABLE_IT(htim, TIM_IT_UPDATE);
 442              		.loc 1 350 0
 443 0008 7B68     		ldr	r3, [r7, #4]
 444 000a 1B68     		ldr	r3, [r3]
 445 000c DA68     		ldr	r2, [r3, #12]
 446 000e 7B68     		ldr	r3, [r7, #4]
 447 0010 1B68     		ldr	r3, [r3]
 448 0012 42F00102 		orr	r2, r2, #1
 449 0016 DA60     		str	r2, [r3, #12]
 351:Drivers/STM32F3xx_HAL_Driver/Src/stm32f3xx_hal_tim.c ****       
 352:Drivers/STM32F3xx_HAL_Driver/Src/stm32f3xx_hal_tim.c ****    /* Enable the Peripheral */
 353:Drivers/STM32F3xx_HAL_Driver/Src/stm32f3xx_hal_tim.c ****   __HAL_TIM_ENABLE(htim);
 450              		.loc 1 353 0
 451 0018 7B68     		ldr	r3, [r7, #4]
 452 001a 1B68     		ldr	r3, [r3]
 453 001c 1A68     		ldr	r2, [r3]
 454 001e 7B68     		ldr	r3, [r7, #4]
 455 0020 1B68     		ldr	r3, [r3]
 456 0022 42F00102 		orr	r2, r2, #1
 457 0026 1A60     		str	r2, [r3]
 354:Drivers/STM32F3xx_HAL_Driver/Src/stm32f3xx_hal_tim.c ****       
 355:Drivers/STM32F3xx_HAL_Driver/Src/stm32f3xx_hal_tim.c ****   /* Return function status */
 356:Drivers/STM32F3xx_HAL_Driver/Src/stm32f3xx_hal_tim.c ****   return HAL_OK;
ARM GAS  /tmp/cc7U8joB.s 			page 15


 458              		.loc 1 356 0
 459 0028 0023     		movs	r3, #0
 357:Drivers/STM32F3xx_HAL_Driver/Src/stm32f3xx_hal_tim.c **** }
 460              		.loc 1 357 0
 461 002a 1846     		mov	r0, r3
 462 002c 0C37     		adds	r7, r7, #12
 463              	.LCFI37:
 464              		.cfi_def_cfa_offset 4
 465 002e BD46     		mov	sp, r7
 466              	.LCFI38:
 467              		.cfi_def_cfa_register 13
 468              		@ sp needed
 469 0030 5DF8047B 		ldr	r7, [sp], #4
 470              	.LCFI39:
 471              		.cfi_restore 7
 472              		.cfi_def_cfa_offset 0
 473 0034 7047     		bx	lr
 474              		.cfi_endproc
 475              	.LFE701:
 477              		.section	.text.HAL_TIM_Base_Stop_IT,"ax",%progbits
 478              		.align	1
 479              		.global	HAL_TIM_Base_Stop_IT
 480              		.syntax unified
 481              		.thumb
 482              		.thumb_func
 483              		.fpu fpv4-sp-d16
 485              	HAL_TIM_Base_Stop_IT:
 486              	.LFB702:
 358:Drivers/STM32F3xx_HAL_Driver/Src/stm32f3xx_hal_tim.c **** 
 359:Drivers/STM32F3xx_HAL_Driver/Src/stm32f3xx_hal_tim.c **** /**
 360:Drivers/STM32F3xx_HAL_Driver/Src/stm32f3xx_hal_tim.c ****   * @brief  Stops the TIM Base generation in interrupt mode.
 361:Drivers/STM32F3xx_HAL_Driver/Src/stm32f3xx_hal_tim.c ****   * @param  htim TIM handle
 362:Drivers/STM32F3xx_HAL_Driver/Src/stm32f3xx_hal_tim.c ****   * @retval HAL status
 363:Drivers/STM32F3xx_HAL_Driver/Src/stm32f3xx_hal_tim.c **** */
 364:Drivers/STM32F3xx_HAL_Driver/Src/stm32f3xx_hal_tim.c **** HAL_StatusTypeDef HAL_TIM_Base_Stop_IT(TIM_HandleTypeDef *htim)
 365:Drivers/STM32F3xx_HAL_Driver/Src/stm32f3xx_hal_tim.c **** {
 487              		.loc 1 365 0
 488              		.cfi_startproc
 489              		@ args = 0, pretend = 0, frame = 8
 490              		@ frame_needed = 1, uses_anonymous_args = 0
 491              		@ link register save eliminated.
 492 0000 80B4     		push	{r7}
 493              	.LCFI40:
 494              		.cfi_def_cfa_offset 4
 495              		.cfi_offset 7, -4
 496 0002 83B0     		sub	sp, sp, #12
 497              	.LCFI41:
 498              		.cfi_def_cfa_offset 16
 499 0004 00AF     		add	r7, sp, #0
 500              	.LCFI42:
 501              		.cfi_def_cfa_register 7
 502 0006 7860     		str	r0, [r7, #4]
 366:Drivers/STM32F3xx_HAL_Driver/Src/stm32f3xx_hal_tim.c ****   /* Check the parameters */
 367:Drivers/STM32F3xx_HAL_Driver/Src/stm32f3xx_hal_tim.c ****   assert_param(IS_TIM_INSTANCE(htim->Instance));
 368:Drivers/STM32F3xx_HAL_Driver/Src/stm32f3xx_hal_tim.c ****   /* Disable the TIM Update interrupt */
 369:Drivers/STM32F3xx_HAL_Driver/Src/stm32f3xx_hal_tim.c ****   __HAL_TIM_DISABLE_IT(htim, TIM_IT_UPDATE);
 503              		.loc 1 369 0
ARM GAS  /tmp/cc7U8joB.s 			page 16


 504 0008 7B68     		ldr	r3, [r7, #4]
 505 000a 1B68     		ldr	r3, [r3]
 506 000c DA68     		ldr	r2, [r3, #12]
 507 000e 7B68     		ldr	r3, [r7, #4]
 508 0010 1B68     		ldr	r3, [r3]
 509 0012 22F00102 		bic	r2, r2, #1
 510 0016 DA60     		str	r2, [r3, #12]
 370:Drivers/STM32F3xx_HAL_Driver/Src/stm32f3xx_hal_tim.c ****       
 371:Drivers/STM32F3xx_HAL_Driver/Src/stm32f3xx_hal_tim.c ****   /* Disable the Peripheral */
 372:Drivers/STM32F3xx_HAL_Driver/Src/stm32f3xx_hal_tim.c ****   __HAL_TIM_DISABLE(htim);
 511              		.loc 1 372 0
 512 0018 7B68     		ldr	r3, [r7, #4]
 513 001a 1B68     		ldr	r3, [r3]
 514 001c 1A6A     		ldr	r2, [r3, #32]
 515 001e 41F21113 		movw	r3, #4369
 516 0022 1340     		ands	r3, r3, r2
 517 0024 002B     		cmp	r3, #0
 518 0026 0FD1     		bne	.L18
 519              		.loc 1 372 0 is_stmt 0 discriminator 1
 520 0028 7B68     		ldr	r3, [r7, #4]
 521 002a 1B68     		ldr	r3, [r3]
 522 002c 1A6A     		ldr	r2, [r3, #32]
 523 002e 40F24443 		movw	r3, #1092
 524 0032 1340     		ands	r3, r3, r2
 525 0034 002B     		cmp	r3, #0
 526 0036 07D1     		bne	.L18
 527              		.loc 1 372 0 discriminator 2
 528 0038 7B68     		ldr	r3, [r7, #4]
 529 003a 1B68     		ldr	r3, [r3]
 530 003c 1A68     		ldr	r2, [r3]
 531 003e 7B68     		ldr	r3, [r7, #4]
 532 0040 1B68     		ldr	r3, [r3]
 533 0042 22F00102 		bic	r2, r2, #1
 534 0046 1A60     		str	r2, [r3]
 535              	.L18:
 373:Drivers/STM32F3xx_HAL_Driver/Src/stm32f3xx_hal_tim.c ****     
 374:Drivers/STM32F3xx_HAL_Driver/Src/stm32f3xx_hal_tim.c ****   /* Return function status */
 375:Drivers/STM32F3xx_HAL_Driver/Src/stm32f3xx_hal_tim.c ****   return HAL_OK;
 536              		.loc 1 375 0 is_stmt 1
 537 0048 0023     		movs	r3, #0
 376:Drivers/STM32F3xx_HAL_Driver/Src/stm32f3xx_hal_tim.c **** }
 538              		.loc 1 376 0
 539 004a 1846     		mov	r0, r3
 540 004c 0C37     		adds	r7, r7, #12
 541              	.LCFI43:
 542              		.cfi_def_cfa_offset 4
 543 004e BD46     		mov	sp, r7
 544              	.LCFI44:
 545              		.cfi_def_cfa_register 13
 546              		@ sp needed
 547 0050 5DF8047B 		ldr	r7, [sp], #4
 548              	.LCFI45:
 549              		.cfi_restore 7
 550              		.cfi_def_cfa_offset 0
 551 0054 7047     		bx	lr
 552              		.cfi_endproc
 553              	.LFE702:
ARM GAS  /tmp/cc7U8joB.s 			page 17


 555              		.section	.text.HAL_TIM_Base_Start_DMA,"ax",%progbits
 556              		.align	1
 557              		.global	HAL_TIM_Base_Start_DMA
 558              		.syntax unified
 559              		.thumb
 560              		.thumb_func
 561              		.fpu fpv4-sp-d16
 563              	HAL_TIM_Base_Start_DMA:
 564              	.LFB703:
 377:Drivers/STM32F3xx_HAL_Driver/Src/stm32f3xx_hal_tim.c **** 
 378:Drivers/STM32F3xx_HAL_Driver/Src/stm32f3xx_hal_tim.c **** /**
 379:Drivers/STM32F3xx_HAL_Driver/Src/stm32f3xx_hal_tim.c ****   * @brief  Starts the TIM Base generation in DMA mode.
 380:Drivers/STM32F3xx_HAL_Driver/Src/stm32f3xx_hal_tim.c ****   * @param  htim TIM handle
 381:Drivers/STM32F3xx_HAL_Driver/Src/stm32f3xx_hal_tim.c ****   * @param  pData The source Buffer address.
 382:Drivers/STM32F3xx_HAL_Driver/Src/stm32f3xx_hal_tim.c ****   * @param  Length The length of data to be transferred from memory to peripheral.
 383:Drivers/STM32F3xx_HAL_Driver/Src/stm32f3xx_hal_tim.c ****   * @retval HAL status
 384:Drivers/STM32F3xx_HAL_Driver/Src/stm32f3xx_hal_tim.c **** */
 385:Drivers/STM32F3xx_HAL_Driver/Src/stm32f3xx_hal_tim.c **** HAL_StatusTypeDef HAL_TIM_Base_Start_DMA(TIM_HandleTypeDef *htim, uint32_t *pData, uint16_t Length)
 386:Drivers/STM32F3xx_HAL_Driver/Src/stm32f3xx_hal_tim.c **** { 
 565              		.loc 1 386 0
 566              		.cfi_startproc
 567              		@ args = 0, pretend = 0, frame = 16
 568              		@ frame_needed = 1, uses_anonymous_args = 0
 569 0000 80B5     		push	{r7, lr}
 570              	.LCFI46:
 571              		.cfi_def_cfa_offset 8
 572              		.cfi_offset 7, -8
 573              		.cfi_offset 14, -4
 574 0002 84B0     		sub	sp, sp, #16
 575              	.LCFI47:
 576              		.cfi_def_cfa_offset 24
 577 0004 00AF     		add	r7, sp, #0
 578              	.LCFI48:
 579              		.cfi_def_cfa_register 7
 580 0006 F860     		str	r0, [r7, #12]
 581 0008 B960     		str	r1, [r7, #8]
 582 000a 1346     		mov	r3, r2
 583 000c FB80     		strh	r3, [r7, #6]	@ movhi
 387:Drivers/STM32F3xx_HAL_Driver/Src/stm32f3xx_hal_tim.c ****   /* Check the parameters */
 388:Drivers/STM32F3xx_HAL_Driver/Src/stm32f3xx_hal_tim.c ****   assert_param(IS_TIM_DMA_INSTANCE(htim->Instance)); 
 389:Drivers/STM32F3xx_HAL_Driver/Src/stm32f3xx_hal_tim.c ****   
 390:Drivers/STM32F3xx_HAL_Driver/Src/stm32f3xx_hal_tim.c ****   if((htim->State == HAL_TIM_STATE_BUSY))
 584              		.loc 1 390 0
 585 000e FB68     		ldr	r3, [r7, #12]
 586 0010 93F83D30 		ldrb	r3, [r3, #61]
 587 0014 DBB2     		uxtb	r3, r3
 588 0016 022B     		cmp	r3, #2
 589 0018 01D1     		bne	.L21
 391:Drivers/STM32F3xx_HAL_Driver/Src/stm32f3xx_hal_tim.c ****   {
 392:Drivers/STM32F3xx_HAL_Driver/Src/stm32f3xx_hal_tim.c ****      return HAL_BUSY;
 590              		.loc 1 392 0
 591 001a 0223     		movs	r3, #2
 592 001c 34E0     		b	.L22
 593              	.L21:
 393:Drivers/STM32F3xx_HAL_Driver/Src/stm32f3xx_hal_tim.c ****   }
 394:Drivers/STM32F3xx_HAL_Driver/Src/stm32f3xx_hal_tim.c ****   else if((htim->State == HAL_TIM_STATE_READY))
 594              		.loc 1 394 0
ARM GAS  /tmp/cc7U8joB.s 			page 18


 595 001e FB68     		ldr	r3, [r7, #12]
 596 0020 93F83D30 		ldrb	r3, [r3, #61]
 597 0024 DBB2     		uxtb	r3, r3
 598 0026 012B     		cmp	r3, #1
 599 0028 0BD1     		bne	.L23
 395:Drivers/STM32F3xx_HAL_Driver/Src/stm32f3xx_hal_tim.c ****   {
 396:Drivers/STM32F3xx_HAL_Driver/Src/stm32f3xx_hal_tim.c ****     if((pData == 0U ) && (Length > 0U)) 
 600              		.loc 1 396 0
 601 002a BB68     		ldr	r3, [r7, #8]
 602 002c 002B     		cmp	r3, #0
 603 002e 04D1     		bne	.L24
 604              		.loc 1 396 0 is_stmt 0 discriminator 1
 605 0030 FB88     		ldrh	r3, [r7, #6]
 606 0032 002B     		cmp	r3, #0
 607 0034 01D0     		beq	.L24
 397:Drivers/STM32F3xx_HAL_Driver/Src/stm32f3xx_hal_tim.c ****     {
 398:Drivers/STM32F3xx_HAL_Driver/Src/stm32f3xx_hal_tim.c ****       return HAL_ERROR;                                    
 608              		.loc 1 398 0 is_stmt 1
 609 0036 0123     		movs	r3, #1
 610 0038 26E0     		b	.L22
 611              	.L24:
 399:Drivers/STM32F3xx_HAL_Driver/Src/stm32f3xx_hal_tim.c ****     }
 400:Drivers/STM32F3xx_HAL_Driver/Src/stm32f3xx_hal_tim.c ****     else
 401:Drivers/STM32F3xx_HAL_Driver/Src/stm32f3xx_hal_tim.c ****     {
 402:Drivers/STM32F3xx_HAL_Driver/Src/stm32f3xx_hal_tim.c ****       htim->State = HAL_TIM_STATE_BUSY;
 612              		.loc 1 402 0
 613 003a FB68     		ldr	r3, [r7, #12]
 614 003c 0222     		movs	r2, #2
 615 003e 83F83D20 		strb	r2, [r3, #61]
 616              	.L23:
 403:Drivers/STM32F3xx_HAL_Driver/Src/stm32f3xx_hal_tim.c ****     }
 404:Drivers/STM32F3xx_HAL_Driver/Src/stm32f3xx_hal_tim.c ****   }  
 405:Drivers/STM32F3xx_HAL_Driver/Src/stm32f3xx_hal_tim.c ****   /* Set the DMA Period elapsed callback */
 406:Drivers/STM32F3xx_HAL_Driver/Src/stm32f3xx_hal_tim.c ****   htim->hdma[TIM_DMA_ID_UPDATE]->XferCpltCallback = TIM_DMAPeriodElapsedCplt;
 617              		.loc 1 406 0
 618 0042 FB68     		ldr	r3, [r7, #12]
 619 0044 1B6A     		ldr	r3, [r3, #32]
 620 0046 124A     		ldr	r2, .L25
 621 0048 9A62     		str	r2, [r3, #40]
 407:Drivers/STM32F3xx_HAL_Driver/Src/stm32f3xx_hal_tim.c ****      
 408:Drivers/STM32F3xx_HAL_Driver/Src/stm32f3xx_hal_tim.c ****   /* Set the DMA error callback */
 409:Drivers/STM32F3xx_HAL_Driver/Src/stm32f3xx_hal_tim.c ****   htim->hdma[TIM_DMA_ID_UPDATE]->XferErrorCallback = TIM_DMAError ;
 622              		.loc 1 409 0
 623 004a FB68     		ldr	r3, [r7, #12]
 624 004c 1B6A     		ldr	r3, [r3, #32]
 625 004e 114A     		ldr	r2, .L25+4
 626 0050 1A63     		str	r2, [r3, #48]
 410:Drivers/STM32F3xx_HAL_Driver/Src/stm32f3xx_hal_tim.c ****   
 411:Drivers/STM32F3xx_HAL_Driver/Src/stm32f3xx_hal_tim.c ****   /* Enable the DMA channel */
 412:Drivers/STM32F3xx_HAL_Driver/Src/stm32f3xx_hal_tim.c ****   HAL_DMA_Start_IT(htim->hdma[TIM_DMA_ID_UPDATE], (uint32_t)pData, (uint32_t)&htim->Instance->ARR, 
 627              		.loc 1 412 0
 628 0052 FB68     		ldr	r3, [r7, #12]
 629 0054 186A     		ldr	r0, [r3, #32]
 630 0056 B968     		ldr	r1, [r7, #8]
 631 0058 FB68     		ldr	r3, [r7, #12]
 632 005a 1B68     		ldr	r3, [r3]
 633 005c 2C33     		adds	r3, r3, #44
ARM GAS  /tmp/cc7U8joB.s 			page 19


 634 005e 1A46     		mov	r2, r3
 635 0060 FB88     		ldrh	r3, [r7, #6]
 636 0062 FFF7FEFF 		bl	HAL_DMA_Start_IT
 413:Drivers/STM32F3xx_HAL_Driver/Src/stm32f3xx_hal_tim.c ****   
 414:Drivers/STM32F3xx_HAL_Driver/Src/stm32f3xx_hal_tim.c ****   /* Enable the TIM Update DMA request */
 415:Drivers/STM32F3xx_HAL_Driver/Src/stm32f3xx_hal_tim.c ****   __HAL_TIM_ENABLE_DMA(htim, TIM_DMA_UPDATE);
 637              		.loc 1 415 0
 638 0066 FB68     		ldr	r3, [r7, #12]
 639 0068 1B68     		ldr	r3, [r3]
 640 006a DA68     		ldr	r2, [r3, #12]
 641 006c FB68     		ldr	r3, [r7, #12]
 642 006e 1B68     		ldr	r3, [r3]
 643 0070 42F48072 		orr	r2, r2, #256
 644 0074 DA60     		str	r2, [r3, #12]
 416:Drivers/STM32F3xx_HAL_Driver/Src/stm32f3xx_hal_tim.c **** 
 417:Drivers/STM32F3xx_HAL_Driver/Src/stm32f3xx_hal_tim.c ****   /* Enable the Peripheral */
 418:Drivers/STM32F3xx_HAL_Driver/Src/stm32f3xx_hal_tim.c ****   __HAL_TIM_ENABLE(htim);  
 645              		.loc 1 418 0
 646 0076 FB68     		ldr	r3, [r7, #12]
 647 0078 1B68     		ldr	r3, [r3]
 648 007a 1A68     		ldr	r2, [r3]
 649 007c FB68     		ldr	r3, [r7, #12]
 650 007e 1B68     		ldr	r3, [r3]
 651 0080 42F00102 		orr	r2, r2, #1
 652 0084 1A60     		str	r2, [r3]
 419:Drivers/STM32F3xx_HAL_Driver/Src/stm32f3xx_hal_tim.c ****   
 420:Drivers/STM32F3xx_HAL_Driver/Src/stm32f3xx_hal_tim.c ****   /* Return function status */
 421:Drivers/STM32F3xx_HAL_Driver/Src/stm32f3xx_hal_tim.c ****   return HAL_OK;
 653              		.loc 1 421 0
 654 0086 0023     		movs	r3, #0
 655              	.L22:
 422:Drivers/STM32F3xx_HAL_Driver/Src/stm32f3xx_hal_tim.c **** }
 656              		.loc 1 422 0
 657 0088 1846     		mov	r0, r3
 658 008a 1037     		adds	r7, r7, #16
 659              	.LCFI49:
 660              		.cfi_def_cfa_offset 8
 661 008c BD46     		mov	sp, r7
 662              	.LCFI50:
 663              		.cfi_def_cfa_register 13
 664              		@ sp needed
 665 008e 80BD     		pop	{r7, pc}
 666              	.L26:
 667              		.align	2
 668              	.L25:
 669 0090 00000000 		.word	TIM_DMAPeriodElapsedCplt
 670 0094 00000000 		.word	TIM_DMAError
 671              		.cfi_endproc
 672              	.LFE703:
 674              		.section	.text.HAL_TIM_Base_Stop_DMA,"ax",%progbits
 675              		.align	1
 676              		.global	HAL_TIM_Base_Stop_DMA
 677              		.syntax unified
 678              		.thumb
 679              		.thumb_func
 680              		.fpu fpv4-sp-d16
 682              	HAL_TIM_Base_Stop_DMA:
ARM GAS  /tmp/cc7U8joB.s 			page 20


 683              	.LFB704:
 423:Drivers/STM32F3xx_HAL_Driver/Src/stm32f3xx_hal_tim.c **** 
 424:Drivers/STM32F3xx_HAL_Driver/Src/stm32f3xx_hal_tim.c **** /**
 425:Drivers/STM32F3xx_HAL_Driver/Src/stm32f3xx_hal_tim.c ****   * @brief  Stops the TIM Base generation in DMA mode.
 426:Drivers/STM32F3xx_HAL_Driver/Src/stm32f3xx_hal_tim.c ****   * @param  htim TIM handle
 427:Drivers/STM32F3xx_HAL_Driver/Src/stm32f3xx_hal_tim.c ****   * @retval HAL status
 428:Drivers/STM32F3xx_HAL_Driver/Src/stm32f3xx_hal_tim.c **** */
 429:Drivers/STM32F3xx_HAL_Driver/Src/stm32f3xx_hal_tim.c **** HAL_StatusTypeDef HAL_TIM_Base_Stop_DMA(TIM_HandleTypeDef *htim)
 430:Drivers/STM32F3xx_HAL_Driver/Src/stm32f3xx_hal_tim.c **** {
 684              		.loc 1 430 0
 685              		.cfi_startproc
 686              		@ args = 0, pretend = 0, frame = 8
 687              		@ frame_needed = 1, uses_anonymous_args = 0
 688              		@ link register save eliminated.
 689 0000 80B4     		push	{r7}
 690              	.LCFI51:
 691              		.cfi_def_cfa_offset 4
 692              		.cfi_offset 7, -4
 693 0002 83B0     		sub	sp, sp, #12
 694              	.LCFI52:
 695              		.cfi_def_cfa_offset 16
 696 0004 00AF     		add	r7, sp, #0
 697              	.LCFI53:
 698              		.cfi_def_cfa_register 7
 699 0006 7860     		str	r0, [r7, #4]
 431:Drivers/STM32F3xx_HAL_Driver/Src/stm32f3xx_hal_tim.c ****   /* Check the parameters */
 432:Drivers/STM32F3xx_HAL_Driver/Src/stm32f3xx_hal_tim.c ****   assert_param(IS_TIM_DMA_INSTANCE(htim->Instance));
 433:Drivers/STM32F3xx_HAL_Driver/Src/stm32f3xx_hal_tim.c ****   
 434:Drivers/STM32F3xx_HAL_Driver/Src/stm32f3xx_hal_tim.c ****   /* Disable the TIM Update DMA request */
 435:Drivers/STM32F3xx_HAL_Driver/Src/stm32f3xx_hal_tim.c ****   __HAL_TIM_DISABLE_DMA(htim, TIM_DMA_UPDATE);
 700              		.loc 1 435 0
 701 0008 7B68     		ldr	r3, [r7, #4]
 702 000a 1B68     		ldr	r3, [r3]
 703 000c DA68     		ldr	r2, [r3, #12]
 704 000e 7B68     		ldr	r3, [r7, #4]
 705 0010 1B68     		ldr	r3, [r3]
 706 0012 22F48072 		bic	r2, r2, #256
 707 0016 DA60     		str	r2, [r3, #12]
 436:Drivers/STM32F3xx_HAL_Driver/Src/stm32f3xx_hal_tim.c ****       
 437:Drivers/STM32F3xx_HAL_Driver/Src/stm32f3xx_hal_tim.c ****   /* Disable the Peripheral */
 438:Drivers/STM32F3xx_HAL_Driver/Src/stm32f3xx_hal_tim.c ****   __HAL_TIM_DISABLE(htim);
 708              		.loc 1 438 0
 709 0018 7B68     		ldr	r3, [r7, #4]
 710 001a 1B68     		ldr	r3, [r3]
 711 001c 1A6A     		ldr	r2, [r3, #32]
 712 001e 41F21113 		movw	r3, #4369
 713 0022 1340     		ands	r3, r3, r2
 714 0024 002B     		cmp	r3, #0
 715 0026 0FD1     		bne	.L28
 716              		.loc 1 438 0 is_stmt 0 discriminator 1
 717 0028 7B68     		ldr	r3, [r7, #4]
 718 002a 1B68     		ldr	r3, [r3]
 719 002c 1A6A     		ldr	r2, [r3, #32]
 720 002e 40F24443 		movw	r3, #1092
 721 0032 1340     		ands	r3, r3, r2
 722 0034 002B     		cmp	r3, #0
 723 0036 07D1     		bne	.L28
ARM GAS  /tmp/cc7U8joB.s 			page 21


 724              		.loc 1 438 0 discriminator 2
 725 0038 7B68     		ldr	r3, [r7, #4]
 726 003a 1B68     		ldr	r3, [r3]
 727 003c 1A68     		ldr	r2, [r3]
 728 003e 7B68     		ldr	r3, [r7, #4]
 729 0040 1B68     		ldr	r3, [r3]
 730 0042 22F00102 		bic	r2, r2, #1
 731 0046 1A60     		str	r2, [r3]
 732              	.L28:
 439:Drivers/STM32F3xx_HAL_Driver/Src/stm32f3xx_hal_tim.c ****     
 440:Drivers/STM32F3xx_HAL_Driver/Src/stm32f3xx_hal_tim.c ****   /* Change the htim state */
 441:Drivers/STM32F3xx_HAL_Driver/Src/stm32f3xx_hal_tim.c ****   htim->State = HAL_TIM_STATE_READY;
 733              		.loc 1 441 0 is_stmt 1
 734 0048 7B68     		ldr	r3, [r7, #4]
 735 004a 0122     		movs	r2, #1
 736 004c 83F83D20 		strb	r2, [r3, #61]
 442:Drivers/STM32F3xx_HAL_Driver/Src/stm32f3xx_hal_tim.c ****       
 443:Drivers/STM32F3xx_HAL_Driver/Src/stm32f3xx_hal_tim.c ****   /* Return function status */
 444:Drivers/STM32F3xx_HAL_Driver/Src/stm32f3xx_hal_tim.c ****   return HAL_OK;
 737              		.loc 1 444 0
 738 0050 0023     		movs	r3, #0
 445:Drivers/STM32F3xx_HAL_Driver/Src/stm32f3xx_hal_tim.c **** }
 739              		.loc 1 445 0
 740 0052 1846     		mov	r0, r3
 741 0054 0C37     		adds	r7, r7, #12
 742              	.LCFI54:
 743              		.cfi_def_cfa_offset 4
 744 0056 BD46     		mov	sp, r7
 745              	.LCFI55:
 746              		.cfi_def_cfa_register 13
 747              		@ sp needed
 748 0058 5DF8047B 		ldr	r7, [sp], #4
 749              	.LCFI56:
 750              		.cfi_restore 7
 751              		.cfi_def_cfa_offset 0
 752 005c 7047     		bx	lr
 753              		.cfi_endproc
 754              	.LFE704:
 756              		.section	.text.HAL_TIM_OC_Init,"ax",%progbits
 757              		.align	1
 758              		.global	HAL_TIM_OC_Init
 759              		.syntax unified
 760              		.thumb
 761              		.thumb_func
 762              		.fpu fpv4-sp-d16
 764              	HAL_TIM_OC_Init:
 765              	.LFB705:
 446:Drivers/STM32F3xx_HAL_Driver/Src/stm32f3xx_hal_tim.c **** 
 447:Drivers/STM32F3xx_HAL_Driver/Src/stm32f3xx_hal_tim.c **** /**
 448:Drivers/STM32F3xx_HAL_Driver/Src/stm32f3xx_hal_tim.c ****   * @}
 449:Drivers/STM32F3xx_HAL_Driver/Src/stm32f3xx_hal_tim.c ****   */
 450:Drivers/STM32F3xx_HAL_Driver/Src/stm32f3xx_hal_tim.c ****   
 451:Drivers/STM32F3xx_HAL_Driver/Src/stm32f3xx_hal_tim.c **** /** @defgroup TIM_Exported_Functions_Group2 Time Output Compare functions 
 452:Drivers/STM32F3xx_HAL_Driver/Src/stm32f3xx_hal_tim.c ****  *  @brief    Time Output Compare functions 
 453:Drivers/STM32F3xx_HAL_Driver/Src/stm32f3xx_hal_tim.c ****  *
 454:Drivers/STM32F3xx_HAL_Driver/Src/stm32f3xx_hal_tim.c **** @verbatim    
 455:Drivers/STM32F3xx_HAL_Driver/Src/stm32f3xx_hal_tim.c ****   ==============================================================================
ARM GAS  /tmp/cc7U8joB.s 			page 22


 456:Drivers/STM32F3xx_HAL_Driver/Src/stm32f3xx_hal_tim.c ****                   ##### Time Output Compare functions #####
 457:Drivers/STM32F3xx_HAL_Driver/Src/stm32f3xx_hal_tim.c ****   ==============================================================================
 458:Drivers/STM32F3xx_HAL_Driver/Src/stm32f3xx_hal_tim.c ****   [..]
 459:Drivers/STM32F3xx_HAL_Driver/Src/stm32f3xx_hal_tim.c ****     This section provides functions allowing to:
 460:Drivers/STM32F3xx_HAL_Driver/Src/stm32f3xx_hal_tim.c ****     (+) Initialize and configure the TIM Output Compare. 
 461:Drivers/STM32F3xx_HAL_Driver/Src/stm32f3xx_hal_tim.c ****     (+) De-initialize the TIM Output Compare.
 462:Drivers/STM32F3xx_HAL_Driver/Src/stm32f3xx_hal_tim.c ****     (+) Start the Time Output Compare.
 463:Drivers/STM32F3xx_HAL_Driver/Src/stm32f3xx_hal_tim.c ****     (+) Stop the Time Output Compare.
 464:Drivers/STM32F3xx_HAL_Driver/Src/stm32f3xx_hal_tim.c ****     (+) Start the Time Output Compare and enable interrupt.
 465:Drivers/STM32F3xx_HAL_Driver/Src/stm32f3xx_hal_tim.c ****     (+) Stop the Time Output Compare and disable interrupt.
 466:Drivers/STM32F3xx_HAL_Driver/Src/stm32f3xx_hal_tim.c ****     (+) Start the Time Output Compare and enable DMA transfer.
 467:Drivers/STM32F3xx_HAL_Driver/Src/stm32f3xx_hal_tim.c ****     (+) Stop the Time Output Compare and disable DMA transfer.
 468:Drivers/STM32F3xx_HAL_Driver/Src/stm32f3xx_hal_tim.c ****  
 469:Drivers/STM32F3xx_HAL_Driver/Src/stm32f3xx_hal_tim.c **** @endverbatim
 470:Drivers/STM32F3xx_HAL_Driver/Src/stm32f3xx_hal_tim.c ****   * @{
 471:Drivers/STM32F3xx_HAL_Driver/Src/stm32f3xx_hal_tim.c ****   */
 472:Drivers/STM32F3xx_HAL_Driver/Src/stm32f3xx_hal_tim.c **** /**
 473:Drivers/STM32F3xx_HAL_Driver/Src/stm32f3xx_hal_tim.c ****   * @brief  Initializes the TIM Output Compare according to the specified
 474:Drivers/STM32F3xx_HAL_Driver/Src/stm32f3xx_hal_tim.c ****   *         parameters in the TIM_HandleTypeDef and create the associated handle.
 475:Drivers/STM32F3xx_HAL_Driver/Src/stm32f3xx_hal_tim.c ****   * @param  htim TIM Output Compare handle
 476:Drivers/STM32F3xx_HAL_Driver/Src/stm32f3xx_hal_tim.c ****   * @retval HAL status
 477:Drivers/STM32F3xx_HAL_Driver/Src/stm32f3xx_hal_tim.c ****   */
 478:Drivers/STM32F3xx_HAL_Driver/Src/stm32f3xx_hal_tim.c **** HAL_StatusTypeDef HAL_TIM_OC_Init(TIM_HandleTypeDef* htim)
 479:Drivers/STM32F3xx_HAL_Driver/Src/stm32f3xx_hal_tim.c **** {
 766              		.loc 1 479 0
 767              		.cfi_startproc
 768              		@ args = 0, pretend = 0, frame = 8
 769              		@ frame_needed = 1, uses_anonymous_args = 0
 770 0000 80B5     		push	{r7, lr}
 771              	.LCFI57:
 772              		.cfi_def_cfa_offset 8
 773              		.cfi_offset 7, -8
 774              		.cfi_offset 14, -4
 775 0002 82B0     		sub	sp, sp, #8
 776              	.LCFI58:
 777              		.cfi_def_cfa_offset 16
 778 0004 00AF     		add	r7, sp, #0
 779              	.LCFI59:
 780              		.cfi_def_cfa_register 7
 781 0006 7860     		str	r0, [r7, #4]
 480:Drivers/STM32F3xx_HAL_Driver/Src/stm32f3xx_hal_tim.c ****   /* Check the TIM handle allocation */
 481:Drivers/STM32F3xx_HAL_Driver/Src/stm32f3xx_hal_tim.c ****   if(htim == NULL)
 782              		.loc 1 481 0
 783 0008 7B68     		ldr	r3, [r7, #4]
 784 000a 002B     		cmp	r3, #0
 785 000c 01D1     		bne	.L31
 482:Drivers/STM32F3xx_HAL_Driver/Src/stm32f3xx_hal_tim.c ****   {
 483:Drivers/STM32F3xx_HAL_Driver/Src/stm32f3xx_hal_tim.c ****     return HAL_ERROR;
 786              		.loc 1 483 0
 787 000e 0123     		movs	r3, #1
 788 0010 1DE0     		b	.L32
 789              	.L31:
 484:Drivers/STM32F3xx_HAL_Driver/Src/stm32f3xx_hal_tim.c ****   }
 485:Drivers/STM32F3xx_HAL_Driver/Src/stm32f3xx_hal_tim.c **** 
 486:Drivers/STM32F3xx_HAL_Driver/Src/stm32f3xx_hal_tim.c ****   /* Check the parameters */
 487:Drivers/STM32F3xx_HAL_Driver/Src/stm32f3xx_hal_tim.c ****   assert_param(IS_TIM_INSTANCE(htim->Instance));
 488:Drivers/STM32F3xx_HAL_Driver/Src/stm32f3xx_hal_tim.c ****   assert_param(IS_TIM_COUNTER_MODE(htim->Init.CounterMode));
ARM GAS  /tmp/cc7U8joB.s 			page 23


 489:Drivers/STM32F3xx_HAL_Driver/Src/stm32f3xx_hal_tim.c ****   assert_param(IS_TIM_CLOCKDIVISION_DIV(htim->Init.ClockDivision));
 490:Drivers/STM32F3xx_HAL_Driver/Src/stm32f3xx_hal_tim.c ****   assert_param(IS_TIM_AUTORELOAD_PRELOAD(htim->Init.AutoReloadPreload));
 491:Drivers/STM32F3xx_HAL_Driver/Src/stm32f3xx_hal_tim.c **** 
 492:Drivers/STM32F3xx_HAL_Driver/Src/stm32f3xx_hal_tim.c ****   if(htim->State == HAL_TIM_STATE_RESET)
 790              		.loc 1 492 0
 791 0012 7B68     		ldr	r3, [r7, #4]
 792 0014 93F83D30 		ldrb	r3, [r3, #61]
 793 0018 DBB2     		uxtb	r3, r3
 794 001a 002B     		cmp	r3, #0
 795 001c 06D1     		bne	.L33
 493:Drivers/STM32F3xx_HAL_Driver/Src/stm32f3xx_hal_tim.c ****   {   
 494:Drivers/STM32F3xx_HAL_Driver/Src/stm32f3xx_hal_tim.c ****     /* Allocate lock resource and initialize it */
 495:Drivers/STM32F3xx_HAL_Driver/Src/stm32f3xx_hal_tim.c ****     htim->Lock = HAL_UNLOCKED;
 796              		.loc 1 495 0
 797 001e 7B68     		ldr	r3, [r7, #4]
 798 0020 0022     		movs	r2, #0
 799 0022 83F83C20 		strb	r2, [r3, #60]
 496:Drivers/STM32F3xx_HAL_Driver/Src/stm32f3xx_hal_tim.c **** 
 497:Drivers/STM32F3xx_HAL_Driver/Src/stm32f3xx_hal_tim.c ****     /* Init the low level hardware : GPIO, CLOCK, NVIC and DMA */
 498:Drivers/STM32F3xx_HAL_Driver/Src/stm32f3xx_hal_tim.c ****     HAL_TIM_OC_MspInit(htim);
 800              		.loc 1 498 0
 801 0026 7868     		ldr	r0, [r7, #4]
 802 0028 FFF7FEFF 		bl	HAL_TIM_OC_MspInit
 803              	.L33:
 499:Drivers/STM32F3xx_HAL_Driver/Src/stm32f3xx_hal_tim.c ****   }
 500:Drivers/STM32F3xx_HAL_Driver/Src/stm32f3xx_hal_tim.c ****   
 501:Drivers/STM32F3xx_HAL_Driver/Src/stm32f3xx_hal_tim.c ****   /* Set the TIM state */
 502:Drivers/STM32F3xx_HAL_Driver/Src/stm32f3xx_hal_tim.c ****   htim->State= HAL_TIM_STATE_BUSY;
 804              		.loc 1 502 0
 805 002c 7B68     		ldr	r3, [r7, #4]
 806 002e 0222     		movs	r2, #2
 807 0030 83F83D20 		strb	r2, [r3, #61]
 503:Drivers/STM32F3xx_HAL_Driver/Src/stm32f3xx_hal_tim.c **** 
 504:Drivers/STM32F3xx_HAL_Driver/Src/stm32f3xx_hal_tim.c ****   /* Init the base time for the Output Compare */  
 505:Drivers/STM32F3xx_HAL_Driver/Src/stm32f3xx_hal_tim.c ****   TIM_Base_SetConfig(htim->Instance,  &htim->Init); 
 808              		.loc 1 505 0
 809 0034 7B68     		ldr	r3, [r7, #4]
 810 0036 1A68     		ldr	r2, [r3]
 811 0038 7B68     		ldr	r3, [r7, #4]
 812 003a 0433     		adds	r3, r3, #4
 813 003c 1946     		mov	r1, r3
 814 003e 1046     		mov	r0, r2
 815 0040 FFF7FEFF 		bl	TIM_Base_SetConfig
 506:Drivers/STM32F3xx_HAL_Driver/Src/stm32f3xx_hal_tim.c ****   
 507:Drivers/STM32F3xx_HAL_Driver/Src/stm32f3xx_hal_tim.c ****   /* Initialize the TIM state*/
 508:Drivers/STM32F3xx_HAL_Driver/Src/stm32f3xx_hal_tim.c ****   htim->State= HAL_TIM_STATE_READY;
 816              		.loc 1 508 0
 817 0044 7B68     		ldr	r3, [r7, #4]
 818 0046 0122     		movs	r2, #1
 819 0048 83F83D20 		strb	r2, [r3, #61]
 509:Drivers/STM32F3xx_HAL_Driver/Src/stm32f3xx_hal_tim.c ****   
 510:Drivers/STM32F3xx_HAL_Driver/Src/stm32f3xx_hal_tim.c ****   return HAL_OK;
 820              		.loc 1 510 0
 821 004c 0023     		movs	r3, #0
 822              	.L32:
 511:Drivers/STM32F3xx_HAL_Driver/Src/stm32f3xx_hal_tim.c **** }
 823              		.loc 1 511 0
ARM GAS  /tmp/cc7U8joB.s 			page 24


 824 004e 1846     		mov	r0, r3
 825 0050 0837     		adds	r7, r7, #8
 826              	.LCFI60:
 827              		.cfi_def_cfa_offset 8
 828 0052 BD46     		mov	sp, r7
 829              	.LCFI61:
 830              		.cfi_def_cfa_register 13
 831              		@ sp needed
 832 0054 80BD     		pop	{r7, pc}
 833              		.cfi_endproc
 834              	.LFE705:
 836              		.section	.text.HAL_TIM_OC_DeInit,"ax",%progbits
 837              		.align	1
 838              		.global	HAL_TIM_OC_DeInit
 839              		.syntax unified
 840              		.thumb
 841              		.thumb_func
 842              		.fpu fpv4-sp-d16
 844              	HAL_TIM_OC_DeInit:
 845              	.LFB706:
 512:Drivers/STM32F3xx_HAL_Driver/Src/stm32f3xx_hal_tim.c **** 
 513:Drivers/STM32F3xx_HAL_Driver/Src/stm32f3xx_hal_tim.c **** /**
 514:Drivers/STM32F3xx_HAL_Driver/Src/stm32f3xx_hal_tim.c ****   * @brief  DeInitializes the TIM peripheral 
 515:Drivers/STM32F3xx_HAL_Driver/Src/stm32f3xx_hal_tim.c ****   * @param  htim TIM Output Compare handle
 516:Drivers/STM32F3xx_HAL_Driver/Src/stm32f3xx_hal_tim.c ****   * @retval HAL status
 517:Drivers/STM32F3xx_HAL_Driver/Src/stm32f3xx_hal_tim.c ****   */
 518:Drivers/STM32F3xx_HAL_Driver/Src/stm32f3xx_hal_tim.c **** HAL_StatusTypeDef HAL_TIM_OC_DeInit(TIM_HandleTypeDef *htim)
 519:Drivers/STM32F3xx_HAL_Driver/Src/stm32f3xx_hal_tim.c **** {
 846              		.loc 1 519 0
 847              		.cfi_startproc
 848              		@ args = 0, pretend = 0, frame = 8
 849              		@ frame_needed = 1, uses_anonymous_args = 0
 850 0000 80B5     		push	{r7, lr}
 851              	.LCFI62:
 852              		.cfi_def_cfa_offset 8
 853              		.cfi_offset 7, -8
 854              		.cfi_offset 14, -4
 855 0002 82B0     		sub	sp, sp, #8
 856              	.LCFI63:
 857              		.cfi_def_cfa_offset 16
 858 0004 00AF     		add	r7, sp, #0
 859              	.LCFI64:
 860              		.cfi_def_cfa_register 7
 861 0006 7860     		str	r0, [r7, #4]
 520:Drivers/STM32F3xx_HAL_Driver/Src/stm32f3xx_hal_tim.c ****   /* Check the parameters */
 521:Drivers/STM32F3xx_HAL_Driver/Src/stm32f3xx_hal_tim.c ****   assert_param(IS_TIM_INSTANCE(htim->Instance));
 522:Drivers/STM32F3xx_HAL_Driver/Src/stm32f3xx_hal_tim.c ****   
 523:Drivers/STM32F3xx_HAL_Driver/Src/stm32f3xx_hal_tim.c ****    htim->State = HAL_TIM_STATE_BUSY;
 862              		.loc 1 523 0
 863 0008 7B68     		ldr	r3, [r7, #4]
 864 000a 0222     		movs	r2, #2
 865 000c 83F83D20 		strb	r2, [r3, #61]
 524:Drivers/STM32F3xx_HAL_Driver/Src/stm32f3xx_hal_tim.c ****    
 525:Drivers/STM32F3xx_HAL_Driver/Src/stm32f3xx_hal_tim.c ****   /* Disable the TIM Peripheral Clock */
 526:Drivers/STM32F3xx_HAL_Driver/Src/stm32f3xx_hal_tim.c ****   __HAL_TIM_DISABLE(htim);
 866              		.loc 1 526 0
 867 0010 7B68     		ldr	r3, [r7, #4]
ARM GAS  /tmp/cc7U8joB.s 			page 25


 868 0012 1B68     		ldr	r3, [r3]
 869 0014 1A6A     		ldr	r2, [r3, #32]
 870 0016 41F21113 		movw	r3, #4369
 871 001a 1340     		ands	r3, r3, r2
 872 001c 002B     		cmp	r3, #0
 873 001e 0FD1     		bne	.L35
 874              		.loc 1 526 0 is_stmt 0 discriminator 1
 875 0020 7B68     		ldr	r3, [r7, #4]
 876 0022 1B68     		ldr	r3, [r3]
 877 0024 1A6A     		ldr	r2, [r3, #32]
 878 0026 40F24443 		movw	r3, #1092
 879 002a 1340     		ands	r3, r3, r2
 880 002c 002B     		cmp	r3, #0
 881 002e 07D1     		bne	.L35
 882              		.loc 1 526 0 discriminator 2
 883 0030 7B68     		ldr	r3, [r7, #4]
 884 0032 1B68     		ldr	r3, [r3]
 885 0034 1A68     		ldr	r2, [r3]
 886 0036 7B68     		ldr	r3, [r7, #4]
 887 0038 1B68     		ldr	r3, [r3]
 888 003a 22F00102 		bic	r2, r2, #1
 889 003e 1A60     		str	r2, [r3]
 890              	.L35:
 527:Drivers/STM32F3xx_HAL_Driver/Src/stm32f3xx_hal_tim.c ****   
 528:Drivers/STM32F3xx_HAL_Driver/Src/stm32f3xx_hal_tim.c ****   /* DeInit the low level hardware: GPIO, CLOCK, NVIC and DMA */
 529:Drivers/STM32F3xx_HAL_Driver/Src/stm32f3xx_hal_tim.c ****   HAL_TIM_OC_MspDeInit(htim);
 891              		.loc 1 529 0 is_stmt 1
 892 0040 7868     		ldr	r0, [r7, #4]
 893 0042 FFF7FEFF 		bl	HAL_TIM_OC_MspDeInit
 530:Drivers/STM32F3xx_HAL_Driver/Src/stm32f3xx_hal_tim.c ****     
 531:Drivers/STM32F3xx_HAL_Driver/Src/stm32f3xx_hal_tim.c ****   /* Change TIM state */  
 532:Drivers/STM32F3xx_HAL_Driver/Src/stm32f3xx_hal_tim.c ****   htim->State = HAL_TIM_STATE_RESET; 
 894              		.loc 1 532 0
 895 0046 7B68     		ldr	r3, [r7, #4]
 896 0048 0022     		movs	r2, #0
 897 004a 83F83D20 		strb	r2, [r3, #61]
 533:Drivers/STM32F3xx_HAL_Driver/Src/stm32f3xx_hal_tim.c ****   
 534:Drivers/STM32F3xx_HAL_Driver/Src/stm32f3xx_hal_tim.c ****   /* Release Lock */
 535:Drivers/STM32F3xx_HAL_Driver/Src/stm32f3xx_hal_tim.c ****   __HAL_UNLOCK(htim);
 898              		.loc 1 535 0
 899 004e 7B68     		ldr	r3, [r7, #4]
 900 0050 0022     		movs	r2, #0
 901 0052 83F83C20 		strb	r2, [r3, #60]
 536:Drivers/STM32F3xx_HAL_Driver/Src/stm32f3xx_hal_tim.c **** 
 537:Drivers/STM32F3xx_HAL_Driver/Src/stm32f3xx_hal_tim.c ****   return HAL_OK;
 902              		.loc 1 537 0
 903 0056 0023     		movs	r3, #0
 538:Drivers/STM32F3xx_HAL_Driver/Src/stm32f3xx_hal_tim.c **** }
 904              		.loc 1 538 0
 905 0058 1846     		mov	r0, r3
 906 005a 0837     		adds	r7, r7, #8
 907              	.LCFI65:
 908              		.cfi_def_cfa_offset 8
 909 005c BD46     		mov	sp, r7
 910              	.LCFI66:
 911              		.cfi_def_cfa_register 13
 912              		@ sp needed
ARM GAS  /tmp/cc7U8joB.s 			page 26


 913 005e 80BD     		pop	{r7, pc}
 914              		.cfi_endproc
 915              	.LFE706:
 917              		.section	.text.HAL_TIM_OC_MspInit,"ax",%progbits
 918              		.align	1
 919              		.weak	HAL_TIM_OC_MspInit
 920              		.syntax unified
 921              		.thumb
 922              		.thumb_func
 923              		.fpu fpv4-sp-d16
 925              	HAL_TIM_OC_MspInit:
 926              	.LFB707:
 539:Drivers/STM32F3xx_HAL_Driver/Src/stm32f3xx_hal_tim.c **** 
 540:Drivers/STM32F3xx_HAL_Driver/Src/stm32f3xx_hal_tim.c **** /**
 541:Drivers/STM32F3xx_HAL_Driver/Src/stm32f3xx_hal_tim.c ****   * @brief  Initializes the TIM Output Compare MSP.
 542:Drivers/STM32F3xx_HAL_Driver/Src/stm32f3xx_hal_tim.c ****   * @param  htim TIM handle
 543:Drivers/STM32F3xx_HAL_Driver/Src/stm32f3xx_hal_tim.c ****   * @retval None
 544:Drivers/STM32F3xx_HAL_Driver/Src/stm32f3xx_hal_tim.c ****   */
 545:Drivers/STM32F3xx_HAL_Driver/Src/stm32f3xx_hal_tim.c **** __weak void HAL_TIM_OC_MspInit(TIM_HandleTypeDef *htim)
 546:Drivers/STM32F3xx_HAL_Driver/Src/stm32f3xx_hal_tim.c **** {
 927              		.loc 1 546 0
 928              		.cfi_startproc
 929              		@ args = 0, pretend = 0, frame = 8
 930              		@ frame_needed = 1, uses_anonymous_args = 0
 931              		@ link register save eliminated.
 932 0000 80B4     		push	{r7}
 933              	.LCFI67:
 934              		.cfi_def_cfa_offset 4
 935              		.cfi_offset 7, -4
 936 0002 83B0     		sub	sp, sp, #12
 937              	.LCFI68:
 938              		.cfi_def_cfa_offset 16
 939 0004 00AF     		add	r7, sp, #0
 940              	.LCFI69:
 941              		.cfi_def_cfa_register 7
 942 0006 7860     		str	r0, [r7, #4]
 547:Drivers/STM32F3xx_HAL_Driver/Src/stm32f3xx_hal_tim.c ****   /* Prevent unused argument(s) compilation warning */
 548:Drivers/STM32F3xx_HAL_Driver/Src/stm32f3xx_hal_tim.c ****   UNUSED(htim);
 549:Drivers/STM32F3xx_HAL_Driver/Src/stm32f3xx_hal_tim.c **** 
 550:Drivers/STM32F3xx_HAL_Driver/Src/stm32f3xx_hal_tim.c ****   /* NOTE : This function Should not be modified, when the callback is needed,
 551:Drivers/STM32F3xx_HAL_Driver/Src/stm32f3xx_hal_tim.c ****             the HAL_TIM_OC_MspInit could be implemented in the user file
 552:Drivers/STM32F3xx_HAL_Driver/Src/stm32f3xx_hal_tim.c ****    */
 553:Drivers/STM32F3xx_HAL_Driver/Src/stm32f3xx_hal_tim.c **** }
 943              		.loc 1 553 0
 944 0008 00BF     		nop
 945 000a 0C37     		adds	r7, r7, #12
 946              	.LCFI70:
 947              		.cfi_def_cfa_offset 4
 948 000c BD46     		mov	sp, r7
 949              	.LCFI71:
 950              		.cfi_def_cfa_register 13
 951              		@ sp needed
 952 000e 5DF8047B 		ldr	r7, [sp], #4
 953              	.LCFI72:
 954              		.cfi_restore 7
 955              		.cfi_def_cfa_offset 0
 956 0012 7047     		bx	lr
ARM GAS  /tmp/cc7U8joB.s 			page 27


 957              		.cfi_endproc
 958              	.LFE707:
 960              		.section	.text.HAL_TIM_OC_MspDeInit,"ax",%progbits
 961              		.align	1
 962              		.weak	HAL_TIM_OC_MspDeInit
 963              		.syntax unified
 964              		.thumb
 965              		.thumb_func
 966              		.fpu fpv4-sp-d16
 968              	HAL_TIM_OC_MspDeInit:
 969              	.LFB708:
 554:Drivers/STM32F3xx_HAL_Driver/Src/stm32f3xx_hal_tim.c **** 
 555:Drivers/STM32F3xx_HAL_Driver/Src/stm32f3xx_hal_tim.c **** /**
 556:Drivers/STM32F3xx_HAL_Driver/Src/stm32f3xx_hal_tim.c ****   * @brief  DeInitializes TIM Output Compare MSP.
 557:Drivers/STM32F3xx_HAL_Driver/Src/stm32f3xx_hal_tim.c ****   * @param  htim TIM handle
 558:Drivers/STM32F3xx_HAL_Driver/Src/stm32f3xx_hal_tim.c ****   * @retval None
 559:Drivers/STM32F3xx_HAL_Driver/Src/stm32f3xx_hal_tim.c ****   */
 560:Drivers/STM32F3xx_HAL_Driver/Src/stm32f3xx_hal_tim.c **** __weak void HAL_TIM_OC_MspDeInit(TIM_HandleTypeDef *htim)
 561:Drivers/STM32F3xx_HAL_Driver/Src/stm32f3xx_hal_tim.c **** {
 970              		.loc 1 561 0
 971              		.cfi_startproc
 972              		@ args = 0, pretend = 0, frame = 8
 973              		@ frame_needed = 1, uses_anonymous_args = 0
 974              		@ link register save eliminated.
 975 0000 80B4     		push	{r7}
 976              	.LCFI73:
 977              		.cfi_def_cfa_offset 4
 978              		.cfi_offset 7, -4
 979 0002 83B0     		sub	sp, sp, #12
 980              	.LCFI74:
 981              		.cfi_def_cfa_offset 16
 982 0004 00AF     		add	r7, sp, #0
 983              	.LCFI75:
 984              		.cfi_def_cfa_register 7
 985 0006 7860     		str	r0, [r7, #4]
 562:Drivers/STM32F3xx_HAL_Driver/Src/stm32f3xx_hal_tim.c ****   /* Prevent unused argument(s) compilation warning */
 563:Drivers/STM32F3xx_HAL_Driver/Src/stm32f3xx_hal_tim.c ****   UNUSED(htim);
 564:Drivers/STM32F3xx_HAL_Driver/Src/stm32f3xx_hal_tim.c **** 
 565:Drivers/STM32F3xx_HAL_Driver/Src/stm32f3xx_hal_tim.c ****   /* NOTE : This function Should not be modified, when the callback is needed,
 566:Drivers/STM32F3xx_HAL_Driver/Src/stm32f3xx_hal_tim.c ****             the HAL_TIM_OC_MspDeInit could be implemented in the user file
 567:Drivers/STM32F3xx_HAL_Driver/Src/stm32f3xx_hal_tim.c ****    */
 568:Drivers/STM32F3xx_HAL_Driver/Src/stm32f3xx_hal_tim.c **** }
 986              		.loc 1 568 0
 987 0008 00BF     		nop
 988 000a 0C37     		adds	r7, r7, #12
 989              	.LCFI76:
 990              		.cfi_def_cfa_offset 4
 991 000c BD46     		mov	sp, r7
 992              	.LCFI77:
 993              		.cfi_def_cfa_register 13
 994              		@ sp needed
 995 000e 5DF8047B 		ldr	r7, [sp], #4
 996              	.LCFI78:
 997              		.cfi_restore 7
 998              		.cfi_def_cfa_offset 0
 999 0012 7047     		bx	lr
 1000              		.cfi_endproc
ARM GAS  /tmp/cc7U8joB.s 			page 28


 1001              	.LFE708:
 1003              		.section	.text.HAL_TIM_OC_Start,"ax",%progbits
 1004              		.align	1
 1005              		.global	HAL_TIM_OC_Start
 1006              		.syntax unified
 1007              		.thumb
 1008              		.thumb_func
 1009              		.fpu fpv4-sp-d16
 1011              	HAL_TIM_OC_Start:
 1012              	.LFB709:
 569:Drivers/STM32F3xx_HAL_Driver/Src/stm32f3xx_hal_tim.c **** 
 570:Drivers/STM32F3xx_HAL_Driver/Src/stm32f3xx_hal_tim.c **** /**
 571:Drivers/STM32F3xx_HAL_Driver/Src/stm32f3xx_hal_tim.c ****   * @brief  Starts the TIM Output Compare signal generation.
 572:Drivers/STM32F3xx_HAL_Driver/Src/stm32f3xx_hal_tim.c ****   * @param  htim TIM Output Compare handle  
 573:Drivers/STM32F3xx_HAL_Driver/Src/stm32f3xx_hal_tim.c ****   * @param  Channel TIM Channel to be enabled
 574:Drivers/STM32F3xx_HAL_Driver/Src/stm32f3xx_hal_tim.c ****   *          This parameter can be one of the following values:
 575:Drivers/STM32F3xx_HAL_Driver/Src/stm32f3xx_hal_tim.c ****   *            @arg TIM_CHANNEL_1: TIM Channel 1 selected
 576:Drivers/STM32F3xx_HAL_Driver/Src/stm32f3xx_hal_tim.c ****   *            @arg TIM_CHANNEL_2: TIM Channel 2 selected
 577:Drivers/STM32F3xx_HAL_Driver/Src/stm32f3xx_hal_tim.c ****   *            @arg TIM_CHANNEL_3: TIM Channel 3 selected
 578:Drivers/STM32F3xx_HAL_Driver/Src/stm32f3xx_hal_tim.c ****   *            @arg TIM_CHANNEL_4: TIM Channel 4 selected   
 579:Drivers/STM32F3xx_HAL_Driver/Src/stm32f3xx_hal_tim.c ****   * @retval HAL status
 580:Drivers/STM32F3xx_HAL_Driver/Src/stm32f3xx_hal_tim.c **** */
 581:Drivers/STM32F3xx_HAL_Driver/Src/stm32f3xx_hal_tim.c **** HAL_StatusTypeDef HAL_TIM_OC_Start(TIM_HandleTypeDef *htim, uint32_t Channel)
 582:Drivers/STM32F3xx_HAL_Driver/Src/stm32f3xx_hal_tim.c **** {
 1013              		.loc 1 582 0
 1014              		.cfi_startproc
 1015              		@ args = 0, pretend = 0, frame = 8
 1016              		@ frame_needed = 1, uses_anonymous_args = 0
 1017 0000 80B5     		push	{r7, lr}
 1018              	.LCFI79:
 1019              		.cfi_def_cfa_offset 8
 1020              		.cfi_offset 7, -8
 1021              		.cfi_offset 14, -4
 1022 0002 82B0     		sub	sp, sp, #8
 1023              	.LCFI80:
 1024              		.cfi_def_cfa_offset 16
 1025 0004 00AF     		add	r7, sp, #0
 1026              	.LCFI81:
 1027              		.cfi_def_cfa_register 7
 1028 0006 7860     		str	r0, [r7, #4]
 1029 0008 3960     		str	r1, [r7]
 583:Drivers/STM32F3xx_HAL_Driver/Src/stm32f3xx_hal_tim.c ****   /* Check the parameters */
 584:Drivers/STM32F3xx_HAL_Driver/Src/stm32f3xx_hal_tim.c ****   assert_param(IS_TIM_CCX_INSTANCE(htim->Instance, Channel));
 585:Drivers/STM32F3xx_HAL_Driver/Src/stm32f3xx_hal_tim.c ****   
 586:Drivers/STM32F3xx_HAL_Driver/Src/stm32f3xx_hal_tim.c ****   /* Enable the Output compare channel */
 587:Drivers/STM32F3xx_HAL_Driver/Src/stm32f3xx_hal_tim.c ****   TIM_CCxChannelCmd(htim->Instance, Channel, TIM_CCx_ENABLE);
 1030              		.loc 1 587 0
 1031 000a 7B68     		ldr	r3, [r7, #4]
 1032 000c 1B68     		ldr	r3, [r3]
 1033 000e 0122     		movs	r2, #1
 1034 0010 3968     		ldr	r1, [r7]
 1035 0012 1846     		mov	r0, r3
 1036 0014 FFF7FEFF 		bl	TIM_CCxChannelCmd
 588:Drivers/STM32F3xx_HAL_Driver/Src/stm32f3xx_hal_tim.c ****   
 589:Drivers/STM32F3xx_HAL_Driver/Src/stm32f3xx_hal_tim.c ****   if(IS_TIM_BREAK_INSTANCE(htim->Instance) != RESET)  
 1037              		.loc 1 589 0
 1038 0018 7B68     		ldr	r3, [r7, #4]
ARM GAS  /tmp/cc7U8joB.s 			page 29


 1039 001a 1B68     		ldr	r3, [r3]
 1040 001c 154A     		ldr	r2, .L45
 1041 001e 9342     		cmp	r3, r2
 1042 0020 0ED0     		beq	.L40
 1043              		.loc 1 589 0 is_stmt 0 discriminator 2
 1044 0022 7B68     		ldr	r3, [r7, #4]
 1045 0024 1B68     		ldr	r3, [r3]
 1046 0026 144A     		ldr	r2, .L45+4
 1047 0028 9342     		cmp	r3, r2
 1048 002a 09D0     		beq	.L40
 1049              		.loc 1 589 0 discriminator 4
 1050 002c 7B68     		ldr	r3, [r7, #4]
 1051 002e 1B68     		ldr	r3, [r3]
 1052 0030 124A     		ldr	r2, .L45+8
 1053 0032 9342     		cmp	r3, r2
 1054 0034 04D0     		beq	.L40
 1055              		.loc 1 589 0 discriminator 6
 1056 0036 7B68     		ldr	r3, [r7, #4]
 1057 0038 1B68     		ldr	r3, [r3]
 1058 003a 114A     		ldr	r2, .L45+12
 1059 003c 9342     		cmp	r3, r2
 1060 003e 01D1     		bne	.L41
 1061              	.L40:
 1062              		.loc 1 589 0 discriminator 7
 1063 0040 0123     		movs	r3, #1
 1064 0042 00E0     		b	.L42
 1065              	.L41:
 1066              		.loc 1 589 0 discriminator 8
 1067 0044 0023     		movs	r3, #0
 1068              	.L42:
 1069              		.loc 1 589 0 discriminator 10
 1070 0046 002B     		cmp	r3, #0
 1071 0048 07D0     		beq	.L43
 590:Drivers/STM32F3xx_HAL_Driver/Src/stm32f3xx_hal_tim.c ****   {
 591:Drivers/STM32F3xx_HAL_Driver/Src/stm32f3xx_hal_tim.c ****     /* Enable the main output */
 592:Drivers/STM32F3xx_HAL_Driver/Src/stm32f3xx_hal_tim.c ****     __HAL_TIM_MOE_ENABLE(htim);
 1072              		.loc 1 592 0 is_stmt 1
 1073 004a 7B68     		ldr	r3, [r7, #4]
 1074 004c 1B68     		ldr	r3, [r3]
 1075 004e 5A6C     		ldr	r2, [r3, #68]
 1076 0050 7B68     		ldr	r3, [r7, #4]
 1077 0052 1B68     		ldr	r3, [r3]
 1078 0054 42F40042 		orr	r2, r2, #32768
 1079 0058 5A64     		str	r2, [r3, #68]
 1080              	.L43:
 593:Drivers/STM32F3xx_HAL_Driver/Src/stm32f3xx_hal_tim.c ****   }
 594:Drivers/STM32F3xx_HAL_Driver/Src/stm32f3xx_hal_tim.c ****   
 595:Drivers/STM32F3xx_HAL_Driver/Src/stm32f3xx_hal_tim.c ****   /* Enable the Peripheral */
 596:Drivers/STM32F3xx_HAL_Driver/Src/stm32f3xx_hal_tim.c ****   __HAL_TIM_ENABLE(htim); 
 1081              		.loc 1 596 0
 1082 005a 7B68     		ldr	r3, [r7, #4]
 1083 005c 1B68     		ldr	r3, [r3]
 1084 005e 1A68     		ldr	r2, [r3]
 1085 0060 7B68     		ldr	r3, [r7, #4]
 1086 0062 1B68     		ldr	r3, [r3]
 1087 0064 42F00102 		orr	r2, r2, #1
 1088 0068 1A60     		str	r2, [r3]
ARM GAS  /tmp/cc7U8joB.s 			page 30


 597:Drivers/STM32F3xx_HAL_Driver/Src/stm32f3xx_hal_tim.c ****   
 598:Drivers/STM32F3xx_HAL_Driver/Src/stm32f3xx_hal_tim.c ****   /* Return function status */
 599:Drivers/STM32F3xx_HAL_Driver/Src/stm32f3xx_hal_tim.c ****   return HAL_OK;
 1089              		.loc 1 599 0
 1090 006a 0023     		movs	r3, #0
 600:Drivers/STM32F3xx_HAL_Driver/Src/stm32f3xx_hal_tim.c **** }
 1091              		.loc 1 600 0
 1092 006c 1846     		mov	r0, r3
 1093 006e 0837     		adds	r7, r7, #8
 1094              	.LCFI82:
 1095              		.cfi_def_cfa_offset 8
 1096 0070 BD46     		mov	sp, r7
 1097              	.LCFI83:
 1098              		.cfi_def_cfa_register 13
 1099              		@ sp needed
 1100 0072 80BD     		pop	{r7, pc}
 1101              	.L46:
 1102              		.align	2
 1103              	.L45:
 1104 0074 002C0140 		.word	1073818624
 1105 0078 00400140 		.word	1073823744
 1106 007c 00440140 		.word	1073824768
 1107 0080 00480140 		.word	1073825792
 1108              		.cfi_endproc
 1109              	.LFE709:
 1111              		.section	.text.HAL_TIM_OC_Stop,"ax",%progbits
 1112              		.align	1
 1113              		.global	HAL_TIM_OC_Stop
 1114              		.syntax unified
 1115              		.thumb
 1116              		.thumb_func
 1117              		.fpu fpv4-sp-d16
 1119              	HAL_TIM_OC_Stop:
 1120              	.LFB710:
 601:Drivers/STM32F3xx_HAL_Driver/Src/stm32f3xx_hal_tim.c **** 
 602:Drivers/STM32F3xx_HAL_Driver/Src/stm32f3xx_hal_tim.c **** /**
 603:Drivers/STM32F3xx_HAL_Driver/Src/stm32f3xx_hal_tim.c ****   * @brief  Stops the TIM Output Compare signal generation.
 604:Drivers/STM32F3xx_HAL_Driver/Src/stm32f3xx_hal_tim.c ****   * @param  htim TIM handle
 605:Drivers/STM32F3xx_HAL_Driver/Src/stm32f3xx_hal_tim.c ****   * @param  Channel TIM Channel to be disabled
 606:Drivers/STM32F3xx_HAL_Driver/Src/stm32f3xx_hal_tim.c ****   *          This parameter can be one of the following values:
 607:Drivers/STM32F3xx_HAL_Driver/Src/stm32f3xx_hal_tim.c ****   *            @arg TIM_CHANNEL_1: TIM Channel 1 selected
 608:Drivers/STM32F3xx_HAL_Driver/Src/stm32f3xx_hal_tim.c ****   *            @arg TIM_CHANNEL_2: TIM Channel 2 selected
 609:Drivers/STM32F3xx_HAL_Driver/Src/stm32f3xx_hal_tim.c ****   *            @arg TIM_CHANNEL_3: TIM Channel 3 selected
 610:Drivers/STM32F3xx_HAL_Driver/Src/stm32f3xx_hal_tim.c ****   *            @arg TIM_CHANNEL_4: TIM Channel 4 selected
 611:Drivers/STM32F3xx_HAL_Driver/Src/stm32f3xx_hal_tim.c ****   * @retval HAL status
 612:Drivers/STM32F3xx_HAL_Driver/Src/stm32f3xx_hal_tim.c **** */
 613:Drivers/STM32F3xx_HAL_Driver/Src/stm32f3xx_hal_tim.c **** HAL_StatusTypeDef HAL_TIM_OC_Stop(TIM_HandleTypeDef *htim, uint32_t Channel)
 614:Drivers/STM32F3xx_HAL_Driver/Src/stm32f3xx_hal_tim.c **** {
 1121              		.loc 1 614 0
 1122              		.cfi_startproc
 1123              		@ args = 0, pretend = 0, frame = 8
 1124              		@ frame_needed = 1, uses_anonymous_args = 0
 1125 0000 80B5     		push	{r7, lr}
 1126              	.LCFI84:
 1127              		.cfi_def_cfa_offset 8
 1128              		.cfi_offset 7, -8
 1129              		.cfi_offset 14, -4
ARM GAS  /tmp/cc7U8joB.s 			page 31


 1130 0002 82B0     		sub	sp, sp, #8
 1131              	.LCFI85:
 1132              		.cfi_def_cfa_offset 16
 1133 0004 00AF     		add	r7, sp, #0
 1134              	.LCFI86:
 1135              		.cfi_def_cfa_register 7
 1136 0006 7860     		str	r0, [r7, #4]
 1137 0008 3960     		str	r1, [r7]
 615:Drivers/STM32F3xx_HAL_Driver/Src/stm32f3xx_hal_tim.c ****   /* Check the parameters */
 616:Drivers/STM32F3xx_HAL_Driver/Src/stm32f3xx_hal_tim.c ****   assert_param(IS_TIM_CCX_INSTANCE(htim->Instance, Channel));
 617:Drivers/STM32F3xx_HAL_Driver/Src/stm32f3xx_hal_tim.c ****   
 618:Drivers/STM32F3xx_HAL_Driver/Src/stm32f3xx_hal_tim.c ****   /* Disable the Output compare channel */
 619:Drivers/STM32F3xx_HAL_Driver/Src/stm32f3xx_hal_tim.c ****   TIM_CCxChannelCmd(htim->Instance, Channel, TIM_CCx_DISABLE);
 1138              		.loc 1 619 0
 1139 000a 7B68     		ldr	r3, [r7, #4]
 1140 000c 1B68     		ldr	r3, [r3]
 1141 000e 0022     		movs	r2, #0
 1142 0010 3968     		ldr	r1, [r7]
 1143 0012 1846     		mov	r0, r3
 1144 0014 FFF7FEFF 		bl	TIM_CCxChannelCmd
 620:Drivers/STM32F3xx_HAL_Driver/Src/stm32f3xx_hal_tim.c ****   
 621:Drivers/STM32F3xx_HAL_Driver/Src/stm32f3xx_hal_tim.c ****   if(IS_TIM_BREAK_INSTANCE(htim->Instance) != RESET)  
 1145              		.loc 1 621 0
 1146 0018 7B68     		ldr	r3, [r7, #4]
 1147 001a 1B68     		ldr	r3, [r3]
 1148 001c 254A     		ldr	r2, .L54
 1149 001e 9342     		cmp	r3, r2
 1150 0020 0ED0     		beq	.L48
 1151              		.loc 1 621 0 is_stmt 0 discriminator 2
 1152 0022 7B68     		ldr	r3, [r7, #4]
 1153 0024 1B68     		ldr	r3, [r3]
 1154 0026 244A     		ldr	r2, .L54+4
 1155 0028 9342     		cmp	r3, r2
 1156 002a 09D0     		beq	.L48
 1157              		.loc 1 621 0 discriminator 4
 1158 002c 7B68     		ldr	r3, [r7, #4]
 1159 002e 1B68     		ldr	r3, [r3]
 1160 0030 224A     		ldr	r2, .L54+8
 1161 0032 9342     		cmp	r3, r2
 1162 0034 04D0     		beq	.L48
 1163              		.loc 1 621 0 discriminator 6
 1164 0036 7B68     		ldr	r3, [r7, #4]
 1165 0038 1B68     		ldr	r3, [r3]
 1166 003a 214A     		ldr	r2, .L54+12
 1167 003c 9342     		cmp	r3, r2
 1168 003e 01D1     		bne	.L49
 1169              	.L48:
 1170              		.loc 1 621 0 discriminator 7
 1171 0040 0123     		movs	r3, #1
 1172 0042 00E0     		b	.L50
 1173              	.L49:
 1174              		.loc 1 621 0 discriminator 8
 1175 0044 0023     		movs	r3, #0
 1176              	.L50:
 1177              		.loc 1 621 0 discriminator 10
 1178 0046 002B     		cmp	r3, #0
 1179 0048 17D0     		beq	.L51
ARM GAS  /tmp/cc7U8joB.s 			page 32


 622:Drivers/STM32F3xx_HAL_Driver/Src/stm32f3xx_hal_tim.c ****   {
 623:Drivers/STM32F3xx_HAL_Driver/Src/stm32f3xx_hal_tim.c ****     /* Disable the Main Ouput */
 624:Drivers/STM32F3xx_HAL_Driver/Src/stm32f3xx_hal_tim.c ****     __HAL_TIM_MOE_DISABLE(htim);
 1180              		.loc 1 624 0 is_stmt 1
 1181 004a 7B68     		ldr	r3, [r7, #4]
 1182 004c 1B68     		ldr	r3, [r3]
 1183 004e 1A6A     		ldr	r2, [r3, #32]
 1184 0050 41F21113 		movw	r3, #4369
 1185 0054 1340     		ands	r3, r3, r2
 1186 0056 002B     		cmp	r3, #0
 1187 0058 0FD1     		bne	.L51
 1188              		.loc 1 624 0 is_stmt 0 discriminator 1
 1189 005a 7B68     		ldr	r3, [r7, #4]
 1190 005c 1B68     		ldr	r3, [r3]
 1191 005e 1A6A     		ldr	r2, [r3, #32]
 1192 0060 40F24443 		movw	r3, #1092
 1193 0064 1340     		ands	r3, r3, r2
 1194 0066 002B     		cmp	r3, #0
 1195 0068 07D1     		bne	.L51
 1196              		.loc 1 624 0 discriminator 2
 1197 006a 7B68     		ldr	r3, [r7, #4]
 1198 006c 1B68     		ldr	r3, [r3]
 1199 006e 5A6C     		ldr	r2, [r3, #68]
 1200 0070 7B68     		ldr	r3, [r7, #4]
 1201 0072 1B68     		ldr	r3, [r3]
 1202 0074 22F40042 		bic	r2, r2, #32768
 1203 0078 5A64     		str	r2, [r3, #68]
 1204              	.L51:
 625:Drivers/STM32F3xx_HAL_Driver/Src/stm32f3xx_hal_tim.c ****   }  
 626:Drivers/STM32F3xx_HAL_Driver/Src/stm32f3xx_hal_tim.c ****   
 627:Drivers/STM32F3xx_HAL_Driver/Src/stm32f3xx_hal_tim.c ****   /* Disable the Peripheral */
 628:Drivers/STM32F3xx_HAL_Driver/Src/stm32f3xx_hal_tim.c ****   __HAL_TIM_DISABLE(htim);  
 1205              		.loc 1 628 0 is_stmt 1
 1206 007a 7B68     		ldr	r3, [r7, #4]
 1207 007c 1B68     		ldr	r3, [r3]
 1208 007e 1A6A     		ldr	r2, [r3, #32]
 1209 0080 41F21113 		movw	r3, #4369
 1210 0084 1340     		ands	r3, r3, r2
 1211 0086 002B     		cmp	r3, #0
 1212 0088 0FD1     		bne	.L52
 1213              		.loc 1 628 0 is_stmt 0 discriminator 1
 1214 008a 7B68     		ldr	r3, [r7, #4]
 1215 008c 1B68     		ldr	r3, [r3]
 1216 008e 1A6A     		ldr	r2, [r3, #32]
 1217 0090 40F24443 		movw	r3, #1092
 1218 0094 1340     		ands	r3, r3, r2
 1219 0096 002B     		cmp	r3, #0
 1220 0098 07D1     		bne	.L52
 1221              		.loc 1 628 0 discriminator 2
 1222 009a 7B68     		ldr	r3, [r7, #4]
 1223 009c 1B68     		ldr	r3, [r3]
 1224 009e 1A68     		ldr	r2, [r3]
 1225 00a0 7B68     		ldr	r3, [r7, #4]
 1226 00a2 1B68     		ldr	r3, [r3]
 1227 00a4 22F00102 		bic	r2, r2, #1
 1228 00a8 1A60     		str	r2, [r3]
 1229              	.L52:
ARM GAS  /tmp/cc7U8joB.s 			page 33


 629:Drivers/STM32F3xx_HAL_Driver/Src/stm32f3xx_hal_tim.c ****   
 630:Drivers/STM32F3xx_HAL_Driver/Src/stm32f3xx_hal_tim.c ****   /* Return function status */
 631:Drivers/STM32F3xx_HAL_Driver/Src/stm32f3xx_hal_tim.c ****   return HAL_OK;
 1230              		.loc 1 631 0 is_stmt 1
 1231 00aa 0023     		movs	r3, #0
 632:Drivers/STM32F3xx_HAL_Driver/Src/stm32f3xx_hal_tim.c **** }  
 1232              		.loc 1 632 0
 1233 00ac 1846     		mov	r0, r3
 1234 00ae 0837     		adds	r7, r7, #8
 1235              	.LCFI87:
 1236              		.cfi_def_cfa_offset 8
 1237 00b0 BD46     		mov	sp, r7
 1238              	.LCFI88:
 1239              		.cfi_def_cfa_register 13
 1240              		@ sp needed
 1241 00b2 80BD     		pop	{r7, pc}
 1242              	.L55:
 1243              		.align	2
 1244              	.L54:
 1245 00b4 002C0140 		.word	1073818624
 1246 00b8 00400140 		.word	1073823744
 1247 00bc 00440140 		.word	1073824768
 1248 00c0 00480140 		.word	1073825792
 1249              		.cfi_endproc
 1250              	.LFE710:
 1252              		.section	.text.HAL_TIM_OC_Start_IT,"ax",%progbits
 1253              		.align	1
 1254              		.global	HAL_TIM_OC_Start_IT
 1255              		.syntax unified
 1256              		.thumb
 1257              		.thumb_func
 1258              		.fpu fpv4-sp-d16
 1260              	HAL_TIM_OC_Start_IT:
 1261              	.LFB711:
 633:Drivers/STM32F3xx_HAL_Driver/Src/stm32f3xx_hal_tim.c **** 
 634:Drivers/STM32F3xx_HAL_Driver/Src/stm32f3xx_hal_tim.c **** /**
 635:Drivers/STM32F3xx_HAL_Driver/Src/stm32f3xx_hal_tim.c ****   * @brief  Starts the TIM Output Compare signal generation in interrupt mode.
 636:Drivers/STM32F3xx_HAL_Driver/Src/stm32f3xx_hal_tim.c ****   * @param  htim TIM OC handle
 637:Drivers/STM32F3xx_HAL_Driver/Src/stm32f3xx_hal_tim.c ****   * @param  Channel TIM Channel to be enabled
 638:Drivers/STM32F3xx_HAL_Driver/Src/stm32f3xx_hal_tim.c ****   *          This parameter can be one of the following values:
 639:Drivers/STM32F3xx_HAL_Driver/Src/stm32f3xx_hal_tim.c ****   *            @arg TIM_CHANNEL_1: TIM Channel 1 selected
 640:Drivers/STM32F3xx_HAL_Driver/Src/stm32f3xx_hal_tim.c ****   *            @arg TIM_CHANNEL_2: TIM Channel 2 selected
 641:Drivers/STM32F3xx_HAL_Driver/Src/stm32f3xx_hal_tim.c ****   *            @arg TIM_CHANNEL_3: TIM Channel 3 selected
 642:Drivers/STM32F3xx_HAL_Driver/Src/stm32f3xx_hal_tim.c ****   *            @arg TIM_CHANNEL_4: TIM Channel 4 selected
 643:Drivers/STM32F3xx_HAL_Driver/Src/stm32f3xx_hal_tim.c ****   * @retval HAL status
 644:Drivers/STM32F3xx_HAL_Driver/Src/stm32f3xx_hal_tim.c **** */
 645:Drivers/STM32F3xx_HAL_Driver/Src/stm32f3xx_hal_tim.c **** HAL_StatusTypeDef HAL_TIM_OC_Start_IT(TIM_HandleTypeDef *htim, uint32_t Channel)
 646:Drivers/STM32F3xx_HAL_Driver/Src/stm32f3xx_hal_tim.c **** {
 1262              		.loc 1 646 0
 1263              		.cfi_startproc
 1264              		@ args = 0, pretend = 0, frame = 8
 1265              		@ frame_needed = 1, uses_anonymous_args = 0
 1266 0000 80B5     		push	{r7, lr}
 1267              	.LCFI89:
 1268              		.cfi_def_cfa_offset 8
 1269              		.cfi_offset 7, -8
 1270              		.cfi_offset 14, -4
ARM GAS  /tmp/cc7U8joB.s 			page 34


 1271 0002 82B0     		sub	sp, sp, #8
 1272              	.LCFI90:
 1273              		.cfi_def_cfa_offset 16
 1274 0004 00AF     		add	r7, sp, #0
 1275              	.LCFI91:
 1276              		.cfi_def_cfa_register 7
 1277 0006 7860     		str	r0, [r7, #4]
 1278 0008 3960     		str	r1, [r7]
 647:Drivers/STM32F3xx_HAL_Driver/Src/stm32f3xx_hal_tim.c ****   /* Check the parameters */
 648:Drivers/STM32F3xx_HAL_Driver/Src/stm32f3xx_hal_tim.c ****   assert_param(IS_TIM_CCX_INSTANCE(htim->Instance, Channel));
 649:Drivers/STM32F3xx_HAL_Driver/Src/stm32f3xx_hal_tim.c ****   
 650:Drivers/STM32F3xx_HAL_Driver/Src/stm32f3xx_hal_tim.c ****   switch (Channel)
 1279              		.loc 1 650 0
 1280 000a 3B68     		ldr	r3, [r7]
 1281 000c 0C2B     		cmp	r3, #12
 1282 000e 41D8     		bhi	.L69
 1283 0010 01A2     		adr	r2, .L59
 1284 0012 52F823F0 		ldr	pc, [r2, r3, lsl #2]
 1285 0016 00BF     		.p2align 2
 1286              	.L59:
 1287 0018 4D000000 		.word	.L58+1
 1288 001c 95000000 		.word	.L69+1
 1289 0020 95000000 		.word	.L69+1
 1290 0024 95000000 		.word	.L69+1
 1291 0028 5F000000 		.word	.L60+1
 1292 002c 95000000 		.word	.L69+1
 1293 0030 95000000 		.word	.L69+1
 1294 0034 95000000 		.word	.L69+1
 1295 0038 71000000 		.word	.L61+1
 1296 003c 95000000 		.word	.L69+1
 1297 0040 95000000 		.word	.L69+1
 1298 0044 95000000 		.word	.L69+1
 1299 0048 83000000 		.word	.L62+1
 1300              		.p2align 1
 1301              	.L58:
 651:Drivers/STM32F3xx_HAL_Driver/Src/stm32f3xx_hal_tim.c ****   {
 652:Drivers/STM32F3xx_HAL_Driver/Src/stm32f3xx_hal_tim.c ****     case TIM_CHANNEL_1:
 653:Drivers/STM32F3xx_HAL_Driver/Src/stm32f3xx_hal_tim.c ****     {       
 654:Drivers/STM32F3xx_HAL_Driver/Src/stm32f3xx_hal_tim.c ****       /* Enable the TIM Capture/Compare 1 interrupt */
 655:Drivers/STM32F3xx_HAL_Driver/Src/stm32f3xx_hal_tim.c ****       __HAL_TIM_ENABLE_IT(htim, TIM_IT_CC1);
 1302              		.loc 1 655 0
 1303 004c 7B68     		ldr	r3, [r7, #4]
 1304 004e 1B68     		ldr	r3, [r3]
 1305 0050 DA68     		ldr	r2, [r3, #12]
 1306 0052 7B68     		ldr	r3, [r7, #4]
 1307 0054 1B68     		ldr	r3, [r3]
 1308 0056 42F00202 		orr	r2, r2, #2
 1309 005a DA60     		str	r2, [r3, #12]
 656:Drivers/STM32F3xx_HAL_Driver/Src/stm32f3xx_hal_tim.c ****     }
 657:Drivers/STM32F3xx_HAL_Driver/Src/stm32f3xx_hal_tim.c ****     break;
 1310              		.loc 1 657 0
 1311 005c 1BE0     		b	.L63
 1312              	.L60:
 658:Drivers/STM32F3xx_HAL_Driver/Src/stm32f3xx_hal_tim.c ****     
 659:Drivers/STM32F3xx_HAL_Driver/Src/stm32f3xx_hal_tim.c ****     case TIM_CHANNEL_2:
 660:Drivers/STM32F3xx_HAL_Driver/Src/stm32f3xx_hal_tim.c ****     {
 661:Drivers/STM32F3xx_HAL_Driver/Src/stm32f3xx_hal_tim.c ****       /* Enable the TIM Capture/Compare 2 interrupt */
ARM GAS  /tmp/cc7U8joB.s 			page 35


 662:Drivers/STM32F3xx_HAL_Driver/Src/stm32f3xx_hal_tim.c ****       __HAL_TIM_ENABLE_IT(htim, TIM_IT_CC2);
 1313              		.loc 1 662 0
 1314 005e 7B68     		ldr	r3, [r7, #4]
 1315 0060 1B68     		ldr	r3, [r3]
 1316 0062 DA68     		ldr	r2, [r3, #12]
 1317 0064 7B68     		ldr	r3, [r7, #4]
 1318 0066 1B68     		ldr	r3, [r3]
 1319 0068 42F00402 		orr	r2, r2, #4
 1320 006c DA60     		str	r2, [r3, #12]
 663:Drivers/STM32F3xx_HAL_Driver/Src/stm32f3xx_hal_tim.c ****     }
 664:Drivers/STM32F3xx_HAL_Driver/Src/stm32f3xx_hal_tim.c ****     break;
 1321              		.loc 1 664 0
 1322 006e 12E0     		b	.L63
 1323              	.L61:
 665:Drivers/STM32F3xx_HAL_Driver/Src/stm32f3xx_hal_tim.c ****     
 666:Drivers/STM32F3xx_HAL_Driver/Src/stm32f3xx_hal_tim.c ****     case TIM_CHANNEL_3:
 667:Drivers/STM32F3xx_HAL_Driver/Src/stm32f3xx_hal_tim.c ****     {
 668:Drivers/STM32F3xx_HAL_Driver/Src/stm32f3xx_hal_tim.c ****       /* Enable the TIM Capture/Compare 3 interrupt */
 669:Drivers/STM32F3xx_HAL_Driver/Src/stm32f3xx_hal_tim.c ****       __HAL_TIM_ENABLE_IT(htim, TIM_IT_CC3);
 1324              		.loc 1 669 0
 1325 0070 7B68     		ldr	r3, [r7, #4]
 1326 0072 1B68     		ldr	r3, [r3]
 1327 0074 DA68     		ldr	r2, [r3, #12]
 1328 0076 7B68     		ldr	r3, [r7, #4]
 1329 0078 1B68     		ldr	r3, [r3]
 1330 007a 42F00802 		orr	r2, r2, #8
 1331 007e DA60     		str	r2, [r3, #12]
 670:Drivers/STM32F3xx_HAL_Driver/Src/stm32f3xx_hal_tim.c ****     }
 671:Drivers/STM32F3xx_HAL_Driver/Src/stm32f3xx_hal_tim.c ****     break;
 1332              		.loc 1 671 0
 1333 0080 09E0     		b	.L63
 1334              	.L62:
 672:Drivers/STM32F3xx_HAL_Driver/Src/stm32f3xx_hal_tim.c ****     
 673:Drivers/STM32F3xx_HAL_Driver/Src/stm32f3xx_hal_tim.c ****     case TIM_CHANNEL_4:
 674:Drivers/STM32F3xx_HAL_Driver/Src/stm32f3xx_hal_tim.c ****     {
 675:Drivers/STM32F3xx_HAL_Driver/Src/stm32f3xx_hal_tim.c ****       /* Enable the TIM Capture/Compare 4 interrupt */
 676:Drivers/STM32F3xx_HAL_Driver/Src/stm32f3xx_hal_tim.c ****       __HAL_TIM_ENABLE_IT(htim, TIM_IT_CC4);
 1335              		.loc 1 676 0
 1336 0082 7B68     		ldr	r3, [r7, #4]
 1337 0084 1B68     		ldr	r3, [r3]
 1338 0086 DA68     		ldr	r2, [r3, #12]
 1339 0088 7B68     		ldr	r3, [r7, #4]
 1340 008a 1B68     		ldr	r3, [r3]
 1341 008c 42F01002 		orr	r2, r2, #16
 1342 0090 DA60     		str	r2, [r3, #12]
 677:Drivers/STM32F3xx_HAL_Driver/Src/stm32f3xx_hal_tim.c ****     }
 678:Drivers/STM32F3xx_HAL_Driver/Src/stm32f3xx_hal_tim.c ****     break;
 1343              		.loc 1 678 0
 1344 0092 00E0     		b	.L63
 1345              	.L69:
 679:Drivers/STM32F3xx_HAL_Driver/Src/stm32f3xx_hal_tim.c ****     
 680:Drivers/STM32F3xx_HAL_Driver/Src/stm32f3xx_hal_tim.c ****     default:
 681:Drivers/STM32F3xx_HAL_Driver/Src/stm32f3xx_hal_tim.c ****     break;
 1346              		.loc 1 681 0
 1347 0094 00BF     		nop
 1348              	.L63:
 682:Drivers/STM32F3xx_HAL_Driver/Src/stm32f3xx_hal_tim.c ****   } 
ARM GAS  /tmp/cc7U8joB.s 			page 36


 683:Drivers/STM32F3xx_HAL_Driver/Src/stm32f3xx_hal_tim.c **** 
 684:Drivers/STM32F3xx_HAL_Driver/Src/stm32f3xx_hal_tim.c ****   /* Enable the Output compare channel */
 685:Drivers/STM32F3xx_HAL_Driver/Src/stm32f3xx_hal_tim.c ****   TIM_CCxChannelCmd(htim->Instance, Channel, TIM_CCx_ENABLE);
 1349              		.loc 1 685 0
 1350 0096 7B68     		ldr	r3, [r7, #4]
 1351 0098 1B68     		ldr	r3, [r3]
 1352 009a 0122     		movs	r2, #1
 1353 009c 3968     		ldr	r1, [r7]
 1354 009e 1846     		mov	r0, r3
 1355 00a0 FFF7FEFF 		bl	TIM_CCxChannelCmd
 686:Drivers/STM32F3xx_HAL_Driver/Src/stm32f3xx_hal_tim.c ****   
 687:Drivers/STM32F3xx_HAL_Driver/Src/stm32f3xx_hal_tim.c ****   if(IS_TIM_BREAK_INSTANCE(htim->Instance) != RESET)  
 1356              		.loc 1 687 0
 1357 00a4 7B68     		ldr	r3, [r7, #4]
 1358 00a6 1B68     		ldr	r3, [r3]
 1359 00a8 154A     		ldr	r2, .L70
 1360 00aa 9342     		cmp	r3, r2
 1361 00ac 0ED0     		beq	.L64
 1362              		.loc 1 687 0 is_stmt 0 discriminator 2
 1363 00ae 7B68     		ldr	r3, [r7, #4]
 1364 00b0 1B68     		ldr	r3, [r3]
 1365 00b2 144A     		ldr	r2, .L70+4
 1366 00b4 9342     		cmp	r3, r2
 1367 00b6 09D0     		beq	.L64
 1368              		.loc 1 687 0 discriminator 4
 1369 00b8 7B68     		ldr	r3, [r7, #4]
 1370 00ba 1B68     		ldr	r3, [r3]
 1371 00bc 124A     		ldr	r2, .L70+8
 1372 00be 9342     		cmp	r3, r2
 1373 00c0 04D0     		beq	.L64
 1374              		.loc 1 687 0 discriminator 6
 1375 00c2 7B68     		ldr	r3, [r7, #4]
 1376 00c4 1B68     		ldr	r3, [r3]
 1377 00c6 114A     		ldr	r2, .L70+12
 1378 00c8 9342     		cmp	r3, r2
 1379 00ca 01D1     		bne	.L65
 1380              	.L64:
 1381              		.loc 1 687 0 discriminator 7
 1382 00cc 0123     		movs	r3, #1
 1383 00ce 00E0     		b	.L66
 1384              	.L65:
 1385              		.loc 1 687 0 discriminator 8
 1386 00d0 0023     		movs	r3, #0
 1387              	.L66:
 1388              		.loc 1 687 0 discriminator 10
 1389 00d2 002B     		cmp	r3, #0
 1390 00d4 07D0     		beq	.L67
 688:Drivers/STM32F3xx_HAL_Driver/Src/stm32f3xx_hal_tim.c ****   {
 689:Drivers/STM32F3xx_HAL_Driver/Src/stm32f3xx_hal_tim.c ****     /* Enable the main output */
 690:Drivers/STM32F3xx_HAL_Driver/Src/stm32f3xx_hal_tim.c ****     __HAL_TIM_MOE_ENABLE(htim);
 1391              		.loc 1 690 0 is_stmt 1
 1392 00d6 7B68     		ldr	r3, [r7, #4]
 1393 00d8 1B68     		ldr	r3, [r3]
 1394 00da 5A6C     		ldr	r2, [r3, #68]
 1395 00dc 7B68     		ldr	r3, [r7, #4]
 1396 00de 1B68     		ldr	r3, [r3]
 1397 00e0 42F40042 		orr	r2, r2, #32768
ARM GAS  /tmp/cc7U8joB.s 			page 37


 1398 00e4 5A64     		str	r2, [r3, #68]
 1399              	.L67:
 691:Drivers/STM32F3xx_HAL_Driver/Src/stm32f3xx_hal_tim.c ****   }
 692:Drivers/STM32F3xx_HAL_Driver/Src/stm32f3xx_hal_tim.c **** 
 693:Drivers/STM32F3xx_HAL_Driver/Src/stm32f3xx_hal_tim.c ****   /* Enable the Peripheral */
 694:Drivers/STM32F3xx_HAL_Driver/Src/stm32f3xx_hal_tim.c ****   __HAL_TIM_ENABLE(htim);
 1400              		.loc 1 694 0
 1401 00e6 7B68     		ldr	r3, [r7, #4]
 1402 00e8 1B68     		ldr	r3, [r3]
 1403 00ea 1A68     		ldr	r2, [r3]
 1404 00ec 7B68     		ldr	r3, [r7, #4]
 1405 00ee 1B68     		ldr	r3, [r3]
 1406 00f0 42F00102 		orr	r2, r2, #1
 1407 00f4 1A60     		str	r2, [r3]
 695:Drivers/STM32F3xx_HAL_Driver/Src/stm32f3xx_hal_tim.c ****   
 696:Drivers/STM32F3xx_HAL_Driver/Src/stm32f3xx_hal_tim.c ****   /* Return function status */
 697:Drivers/STM32F3xx_HAL_Driver/Src/stm32f3xx_hal_tim.c ****   return HAL_OK;
 1408              		.loc 1 697 0
 1409 00f6 0023     		movs	r3, #0
 698:Drivers/STM32F3xx_HAL_Driver/Src/stm32f3xx_hal_tim.c **** }
 1410              		.loc 1 698 0
 1411 00f8 1846     		mov	r0, r3
 1412 00fa 0837     		adds	r7, r7, #8
 1413              	.LCFI92:
 1414              		.cfi_def_cfa_offset 8
 1415 00fc BD46     		mov	sp, r7
 1416              	.LCFI93:
 1417              		.cfi_def_cfa_register 13
 1418              		@ sp needed
 1419 00fe 80BD     		pop	{r7, pc}
 1420              	.L71:
 1421              		.align	2
 1422              	.L70:
 1423 0100 002C0140 		.word	1073818624
 1424 0104 00400140 		.word	1073823744
 1425 0108 00440140 		.word	1073824768
 1426 010c 00480140 		.word	1073825792
 1427              		.cfi_endproc
 1428              	.LFE711:
 1430              		.section	.text.HAL_TIM_OC_Stop_IT,"ax",%progbits
 1431              		.align	1
 1432              		.global	HAL_TIM_OC_Stop_IT
 1433              		.syntax unified
 1434              		.thumb
 1435              		.thumb_func
 1436              		.fpu fpv4-sp-d16
 1438              	HAL_TIM_OC_Stop_IT:
 1439              	.LFB712:
 699:Drivers/STM32F3xx_HAL_Driver/Src/stm32f3xx_hal_tim.c **** 
 700:Drivers/STM32F3xx_HAL_Driver/Src/stm32f3xx_hal_tim.c **** /**
 701:Drivers/STM32F3xx_HAL_Driver/Src/stm32f3xx_hal_tim.c ****   * @brief  Stops the TIM Output Compare signal generation in interrupt mode.
 702:Drivers/STM32F3xx_HAL_Driver/Src/stm32f3xx_hal_tim.c ****   * @param  htim TIM Output Compare handle
 703:Drivers/STM32F3xx_HAL_Driver/Src/stm32f3xx_hal_tim.c ****   * @param  Channel TIM Channel to be disabled
 704:Drivers/STM32F3xx_HAL_Driver/Src/stm32f3xx_hal_tim.c ****   *          This parameter can be one of the following values:
 705:Drivers/STM32F3xx_HAL_Driver/Src/stm32f3xx_hal_tim.c ****   *            @arg TIM_CHANNEL_1: TIM Channel 1 selected
 706:Drivers/STM32F3xx_HAL_Driver/Src/stm32f3xx_hal_tim.c ****   *            @arg TIM_CHANNEL_2: TIM Channel 2 selected
 707:Drivers/STM32F3xx_HAL_Driver/Src/stm32f3xx_hal_tim.c ****   *            @arg TIM_CHANNEL_3: TIM Channel 3 selected
ARM GAS  /tmp/cc7U8joB.s 			page 38


 708:Drivers/STM32F3xx_HAL_Driver/Src/stm32f3xx_hal_tim.c ****   *            @arg TIM_CHANNEL_4: TIM Channel 4 selected
 709:Drivers/STM32F3xx_HAL_Driver/Src/stm32f3xx_hal_tim.c ****   * @retval HAL status
 710:Drivers/STM32F3xx_HAL_Driver/Src/stm32f3xx_hal_tim.c **** */
 711:Drivers/STM32F3xx_HAL_Driver/Src/stm32f3xx_hal_tim.c **** HAL_StatusTypeDef HAL_TIM_OC_Stop_IT(TIM_HandleTypeDef *htim, uint32_t Channel)
 712:Drivers/STM32F3xx_HAL_Driver/Src/stm32f3xx_hal_tim.c **** {
 1440              		.loc 1 712 0
 1441              		.cfi_startproc
 1442              		@ args = 0, pretend = 0, frame = 8
 1443              		@ frame_needed = 1, uses_anonymous_args = 0
 1444 0000 80B5     		push	{r7, lr}
 1445              	.LCFI94:
 1446              		.cfi_def_cfa_offset 8
 1447              		.cfi_offset 7, -8
 1448              		.cfi_offset 14, -4
 1449 0002 82B0     		sub	sp, sp, #8
 1450              	.LCFI95:
 1451              		.cfi_def_cfa_offset 16
 1452 0004 00AF     		add	r7, sp, #0
 1453              	.LCFI96:
 1454              		.cfi_def_cfa_register 7
 1455 0006 7860     		str	r0, [r7, #4]
 1456 0008 3960     		str	r1, [r7]
 713:Drivers/STM32F3xx_HAL_Driver/Src/stm32f3xx_hal_tim.c ****   /* Check the parameters */
 714:Drivers/STM32F3xx_HAL_Driver/Src/stm32f3xx_hal_tim.c ****   assert_param(IS_TIM_CCX_INSTANCE(htim->Instance, Channel));
 715:Drivers/STM32F3xx_HAL_Driver/Src/stm32f3xx_hal_tim.c ****   
 716:Drivers/STM32F3xx_HAL_Driver/Src/stm32f3xx_hal_tim.c ****   switch (Channel)
 1457              		.loc 1 716 0
 1458 000a 3B68     		ldr	r3, [r7]
 1459 000c 0C2B     		cmp	r3, #12
 1460 000e 41D8     		bhi	.L86
 1461 0010 01A2     		adr	r2, .L75
 1462 0012 52F823F0 		ldr	pc, [r2, r3, lsl #2]
 1463 0016 00BF     		.p2align 2
 1464              	.L75:
 1465 0018 4D000000 		.word	.L74+1
 1466 001c 95000000 		.word	.L86+1
 1467 0020 95000000 		.word	.L86+1
 1468 0024 95000000 		.word	.L86+1
 1469 0028 5F000000 		.word	.L76+1
 1470 002c 95000000 		.word	.L86+1
 1471 0030 95000000 		.word	.L86+1
 1472 0034 95000000 		.word	.L86+1
 1473 0038 71000000 		.word	.L77+1
 1474 003c 95000000 		.word	.L86+1
 1475 0040 95000000 		.word	.L86+1
 1476 0044 95000000 		.word	.L86+1
 1477 0048 83000000 		.word	.L78+1
 1478              		.p2align 1
 1479              	.L74:
 717:Drivers/STM32F3xx_HAL_Driver/Src/stm32f3xx_hal_tim.c ****   {
 718:Drivers/STM32F3xx_HAL_Driver/Src/stm32f3xx_hal_tim.c ****     case TIM_CHANNEL_1:
 719:Drivers/STM32F3xx_HAL_Driver/Src/stm32f3xx_hal_tim.c ****     {       
 720:Drivers/STM32F3xx_HAL_Driver/Src/stm32f3xx_hal_tim.c ****       /* Disable the TIM Capture/Compare 1 interrupt */
 721:Drivers/STM32F3xx_HAL_Driver/Src/stm32f3xx_hal_tim.c ****       __HAL_TIM_DISABLE_IT(htim, TIM_IT_CC1);
 1480              		.loc 1 721 0
 1481 004c 7B68     		ldr	r3, [r7, #4]
 1482 004e 1B68     		ldr	r3, [r3]
ARM GAS  /tmp/cc7U8joB.s 			page 39


 1483 0050 DA68     		ldr	r2, [r3, #12]
 1484 0052 7B68     		ldr	r3, [r7, #4]
 1485 0054 1B68     		ldr	r3, [r3]
 1486 0056 22F00202 		bic	r2, r2, #2
 1487 005a DA60     		str	r2, [r3, #12]
 722:Drivers/STM32F3xx_HAL_Driver/Src/stm32f3xx_hal_tim.c ****     }
 723:Drivers/STM32F3xx_HAL_Driver/Src/stm32f3xx_hal_tim.c ****     break;
 1488              		.loc 1 723 0
 1489 005c 1BE0     		b	.L79
 1490              	.L76:
 724:Drivers/STM32F3xx_HAL_Driver/Src/stm32f3xx_hal_tim.c ****     
 725:Drivers/STM32F3xx_HAL_Driver/Src/stm32f3xx_hal_tim.c ****     case TIM_CHANNEL_2:
 726:Drivers/STM32F3xx_HAL_Driver/Src/stm32f3xx_hal_tim.c ****     {
 727:Drivers/STM32F3xx_HAL_Driver/Src/stm32f3xx_hal_tim.c ****       /* Disable the TIM Capture/Compare 2 interrupt */
 728:Drivers/STM32F3xx_HAL_Driver/Src/stm32f3xx_hal_tim.c ****       __HAL_TIM_DISABLE_IT(htim, TIM_IT_CC2);
 1491              		.loc 1 728 0
 1492 005e 7B68     		ldr	r3, [r7, #4]
 1493 0060 1B68     		ldr	r3, [r3]
 1494 0062 DA68     		ldr	r2, [r3, #12]
 1495 0064 7B68     		ldr	r3, [r7, #4]
 1496 0066 1B68     		ldr	r3, [r3]
 1497 0068 22F00402 		bic	r2, r2, #4
 1498 006c DA60     		str	r2, [r3, #12]
 729:Drivers/STM32F3xx_HAL_Driver/Src/stm32f3xx_hal_tim.c ****     }
 730:Drivers/STM32F3xx_HAL_Driver/Src/stm32f3xx_hal_tim.c ****     break;
 1499              		.loc 1 730 0
 1500 006e 12E0     		b	.L79
 1501              	.L77:
 731:Drivers/STM32F3xx_HAL_Driver/Src/stm32f3xx_hal_tim.c ****     
 732:Drivers/STM32F3xx_HAL_Driver/Src/stm32f3xx_hal_tim.c ****     case TIM_CHANNEL_3:
 733:Drivers/STM32F3xx_HAL_Driver/Src/stm32f3xx_hal_tim.c ****     {
 734:Drivers/STM32F3xx_HAL_Driver/Src/stm32f3xx_hal_tim.c ****       /* Disable the TIM Capture/Compare 3 interrupt */
 735:Drivers/STM32F3xx_HAL_Driver/Src/stm32f3xx_hal_tim.c ****       __HAL_TIM_DISABLE_IT(htim, TIM_IT_CC3);
 1502              		.loc 1 735 0
 1503 0070 7B68     		ldr	r3, [r7, #4]
 1504 0072 1B68     		ldr	r3, [r3]
 1505 0074 DA68     		ldr	r2, [r3, #12]
 1506 0076 7B68     		ldr	r3, [r7, #4]
 1507 0078 1B68     		ldr	r3, [r3]
 1508 007a 22F00802 		bic	r2, r2, #8
 1509 007e DA60     		str	r2, [r3, #12]
 736:Drivers/STM32F3xx_HAL_Driver/Src/stm32f3xx_hal_tim.c ****     }
 737:Drivers/STM32F3xx_HAL_Driver/Src/stm32f3xx_hal_tim.c ****     break;
 1510              		.loc 1 737 0
 1511 0080 09E0     		b	.L79
 1512              	.L78:
 738:Drivers/STM32F3xx_HAL_Driver/Src/stm32f3xx_hal_tim.c ****     
 739:Drivers/STM32F3xx_HAL_Driver/Src/stm32f3xx_hal_tim.c ****     case TIM_CHANNEL_4:
 740:Drivers/STM32F3xx_HAL_Driver/Src/stm32f3xx_hal_tim.c ****     {
 741:Drivers/STM32F3xx_HAL_Driver/Src/stm32f3xx_hal_tim.c ****       /* Disable the TIM Capture/Compare 4 interrupt */
 742:Drivers/STM32F3xx_HAL_Driver/Src/stm32f3xx_hal_tim.c ****       __HAL_TIM_DISABLE_IT(htim, TIM_IT_CC4);
 1513              		.loc 1 742 0
 1514 0082 7B68     		ldr	r3, [r7, #4]
 1515 0084 1B68     		ldr	r3, [r3]
 1516 0086 DA68     		ldr	r2, [r3, #12]
 1517 0088 7B68     		ldr	r3, [r7, #4]
 1518 008a 1B68     		ldr	r3, [r3]
ARM GAS  /tmp/cc7U8joB.s 			page 40


 1519 008c 22F01002 		bic	r2, r2, #16
 1520 0090 DA60     		str	r2, [r3, #12]
 743:Drivers/STM32F3xx_HAL_Driver/Src/stm32f3xx_hal_tim.c ****     }
 744:Drivers/STM32F3xx_HAL_Driver/Src/stm32f3xx_hal_tim.c ****     break;
 1521              		.loc 1 744 0
 1522 0092 00E0     		b	.L79
 1523              	.L86:
 745:Drivers/STM32F3xx_HAL_Driver/Src/stm32f3xx_hal_tim.c ****     
 746:Drivers/STM32F3xx_HAL_Driver/Src/stm32f3xx_hal_tim.c ****     default:
 747:Drivers/STM32F3xx_HAL_Driver/Src/stm32f3xx_hal_tim.c ****     break; 
 1524              		.loc 1 747 0
 1525 0094 00BF     		nop
 1526              	.L79:
 748:Drivers/STM32F3xx_HAL_Driver/Src/stm32f3xx_hal_tim.c ****   } 
 749:Drivers/STM32F3xx_HAL_Driver/Src/stm32f3xx_hal_tim.c ****   
 750:Drivers/STM32F3xx_HAL_Driver/Src/stm32f3xx_hal_tim.c ****   /* Disable the Output compare channel */
 751:Drivers/STM32F3xx_HAL_Driver/Src/stm32f3xx_hal_tim.c ****   TIM_CCxChannelCmd(htim->Instance, Channel, TIM_CCx_DISABLE); 
 1527              		.loc 1 751 0
 1528 0096 7B68     		ldr	r3, [r7, #4]
 1529 0098 1B68     		ldr	r3, [r3]
 1530 009a 0022     		movs	r2, #0
 1531 009c 3968     		ldr	r1, [r7]
 1532 009e 1846     		mov	r0, r3
 1533 00a0 FFF7FEFF 		bl	TIM_CCxChannelCmd
 752:Drivers/STM32F3xx_HAL_Driver/Src/stm32f3xx_hal_tim.c ****   
 753:Drivers/STM32F3xx_HAL_Driver/Src/stm32f3xx_hal_tim.c ****   if(IS_TIM_BREAK_INSTANCE(htim->Instance) != RESET)  
 1534              		.loc 1 753 0
 1535 00a4 7B68     		ldr	r3, [r7, #4]
 1536 00a6 1B68     		ldr	r3, [r3]
 1537 00a8 254A     		ldr	r2, .L87
 1538 00aa 9342     		cmp	r3, r2
 1539 00ac 0ED0     		beq	.L80
 1540              		.loc 1 753 0 is_stmt 0 discriminator 2
 1541 00ae 7B68     		ldr	r3, [r7, #4]
 1542 00b0 1B68     		ldr	r3, [r3]
 1543 00b2 244A     		ldr	r2, .L87+4
 1544 00b4 9342     		cmp	r3, r2
 1545 00b6 09D0     		beq	.L80
 1546              		.loc 1 753 0 discriminator 4
 1547 00b8 7B68     		ldr	r3, [r7, #4]
 1548 00ba 1B68     		ldr	r3, [r3]
 1549 00bc 224A     		ldr	r2, .L87+8
 1550 00be 9342     		cmp	r3, r2
 1551 00c0 04D0     		beq	.L80
 1552              		.loc 1 753 0 discriminator 6
 1553 00c2 7B68     		ldr	r3, [r7, #4]
 1554 00c4 1B68     		ldr	r3, [r3]
 1555 00c6 214A     		ldr	r2, .L87+12
 1556 00c8 9342     		cmp	r3, r2
 1557 00ca 01D1     		bne	.L81
 1558              	.L80:
 1559              		.loc 1 753 0 discriminator 7
 1560 00cc 0123     		movs	r3, #1
 1561 00ce 00E0     		b	.L82
 1562              	.L81:
 1563              		.loc 1 753 0 discriminator 8
 1564 00d0 0023     		movs	r3, #0
ARM GAS  /tmp/cc7U8joB.s 			page 41


 1565              	.L82:
 1566              		.loc 1 753 0 discriminator 10
 1567 00d2 002B     		cmp	r3, #0
 1568 00d4 17D0     		beq	.L83
 754:Drivers/STM32F3xx_HAL_Driver/Src/stm32f3xx_hal_tim.c ****   {
 755:Drivers/STM32F3xx_HAL_Driver/Src/stm32f3xx_hal_tim.c ****     /* Disable the Main Ouput */
 756:Drivers/STM32F3xx_HAL_Driver/Src/stm32f3xx_hal_tim.c ****     __HAL_TIM_MOE_DISABLE(htim);
 1569              		.loc 1 756 0 is_stmt 1
 1570 00d6 7B68     		ldr	r3, [r7, #4]
 1571 00d8 1B68     		ldr	r3, [r3]
 1572 00da 1A6A     		ldr	r2, [r3, #32]
 1573 00dc 41F21113 		movw	r3, #4369
 1574 00e0 1340     		ands	r3, r3, r2
 1575 00e2 002B     		cmp	r3, #0
 1576 00e4 0FD1     		bne	.L83
 1577              		.loc 1 756 0 is_stmt 0 discriminator 1
 1578 00e6 7B68     		ldr	r3, [r7, #4]
 1579 00e8 1B68     		ldr	r3, [r3]
 1580 00ea 1A6A     		ldr	r2, [r3, #32]
 1581 00ec 40F24443 		movw	r3, #1092
 1582 00f0 1340     		ands	r3, r3, r2
 1583 00f2 002B     		cmp	r3, #0
 1584 00f4 07D1     		bne	.L83
 1585              		.loc 1 756 0 discriminator 2
 1586 00f6 7B68     		ldr	r3, [r7, #4]
 1587 00f8 1B68     		ldr	r3, [r3]
 1588 00fa 5A6C     		ldr	r2, [r3, #68]
 1589 00fc 7B68     		ldr	r3, [r7, #4]
 1590 00fe 1B68     		ldr	r3, [r3]
 1591 0100 22F40042 		bic	r2, r2, #32768
 1592 0104 5A64     		str	r2, [r3, #68]
 1593              	.L83:
 757:Drivers/STM32F3xx_HAL_Driver/Src/stm32f3xx_hal_tim.c ****   }
 758:Drivers/STM32F3xx_HAL_Driver/Src/stm32f3xx_hal_tim.c ****   
 759:Drivers/STM32F3xx_HAL_Driver/Src/stm32f3xx_hal_tim.c ****   /* Disable the Peripheral */
 760:Drivers/STM32F3xx_HAL_Driver/Src/stm32f3xx_hal_tim.c ****   __HAL_TIM_DISABLE(htim);  
 1594              		.loc 1 760 0 is_stmt 1
 1595 0106 7B68     		ldr	r3, [r7, #4]
 1596 0108 1B68     		ldr	r3, [r3]
 1597 010a 1A6A     		ldr	r2, [r3, #32]
 1598 010c 41F21113 		movw	r3, #4369
 1599 0110 1340     		ands	r3, r3, r2
 1600 0112 002B     		cmp	r3, #0
 1601 0114 0FD1     		bne	.L84
 1602              		.loc 1 760 0 is_stmt 0 discriminator 1
 1603 0116 7B68     		ldr	r3, [r7, #4]
 1604 0118 1B68     		ldr	r3, [r3]
 1605 011a 1A6A     		ldr	r2, [r3, #32]
 1606 011c 40F24443 		movw	r3, #1092
 1607 0120 1340     		ands	r3, r3, r2
 1608 0122 002B     		cmp	r3, #0
 1609 0124 07D1     		bne	.L84
 1610              		.loc 1 760 0 discriminator 2
 1611 0126 7B68     		ldr	r3, [r7, #4]
 1612 0128 1B68     		ldr	r3, [r3]
 1613 012a 1A68     		ldr	r2, [r3]
 1614 012c 7B68     		ldr	r3, [r7, #4]
ARM GAS  /tmp/cc7U8joB.s 			page 42


 1615 012e 1B68     		ldr	r3, [r3]
 1616 0130 22F00102 		bic	r2, r2, #1
 1617 0134 1A60     		str	r2, [r3]
 1618              	.L84:
 761:Drivers/STM32F3xx_HAL_Driver/Src/stm32f3xx_hal_tim.c ****   
 762:Drivers/STM32F3xx_HAL_Driver/Src/stm32f3xx_hal_tim.c ****   /* Return function status */
 763:Drivers/STM32F3xx_HAL_Driver/Src/stm32f3xx_hal_tim.c ****   return HAL_OK;
 1619              		.loc 1 763 0 is_stmt 1
 1620 0136 0023     		movs	r3, #0
 764:Drivers/STM32F3xx_HAL_Driver/Src/stm32f3xx_hal_tim.c **** }
 1621              		.loc 1 764 0
 1622 0138 1846     		mov	r0, r3
 1623 013a 0837     		adds	r7, r7, #8
 1624              	.LCFI97:
 1625              		.cfi_def_cfa_offset 8
 1626 013c BD46     		mov	sp, r7
 1627              	.LCFI98:
 1628              		.cfi_def_cfa_register 13
 1629              		@ sp needed
 1630 013e 80BD     		pop	{r7, pc}
 1631              	.L88:
 1632              		.align	2
 1633              	.L87:
 1634 0140 002C0140 		.word	1073818624
 1635 0144 00400140 		.word	1073823744
 1636 0148 00440140 		.word	1073824768
 1637 014c 00480140 		.word	1073825792
 1638              		.cfi_endproc
 1639              	.LFE712:
 1641              		.section	.text.HAL_TIM_OC_Start_DMA,"ax",%progbits
 1642              		.align	1
 1643              		.global	HAL_TIM_OC_Start_DMA
 1644              		.syntax unified
 1645              		.thumb
 1646              		.thumb_func
 1647              		.fpu fpv4-sp-d16
 1649              	HAL_TIM_OC_Start_DMA:
 1650              	.LFB713:
 765:Drivers/STM32F3xx_HAL_Driver/Src/stm32f3xx_hal_tim.c **** 
 766:Drivers/STM32F3xx_HAL_Driver/Src/stm32f3xx_hal_tim.c **** /**
 767:Drivers/STM32F3xx_HAL_Driver/Src/stm32f3xx_hal_tim.c ****   * @brief  Starts the TIM Output Compare signal generation in DMA mode.
 768:Drivers/STM32F3xx_HAL_Driver/Src/stm32f3xx_hal_tim.c ****   * @param  htim TIM Output Compare handle
 769:Drivers/STM32F3xx_HAL_Driver/Src/stm32f3xx_hal_tim.c ****   * @param  Channel TIM Channel to be enabled
 770:Drivers/STM32F3xx_HAL_Driver/Src/stm32f3xx_hal_tim.c ****   *          This parameter can be one of the following values:
 771:Drivers/STM32F3xx_HAL_Driver/Src/stm32f3xx_hal_tim.c ****   *            @arg TIM_CHANNEL_1: TIM Channel 1 selected
 772:Drivers/STM32F3xx_HAL_Driver/Src/stm32f3xx_hal_tim.c ****   *            @arg TIM_CHANNEL_2: TIM Channel 2 selected
 773:Drivers/STM32F3xx_HAL_Driver/Src/stm32f3xx_hal_tim.c ****   *            @arg TIM_CHANNEL_3: TIM Channel 3 selected
 774:Drivers/STM32F3xx_HAL_Driver/Src/stm32f3xx_hal_tim.c ****   *            @arg TIM_CHANNEL_4: TIM Channel 4 selected
 775:Drivers/STM32F3xx_HAL_Driver/Src/stm32f3xx_hal_tim.c ****   * @param  pData The source Buffer address.
 776:Drivers/STM32F3xx_HAL_Driver/Src/stm32f3xx_hal_tim.c ****   * @param  Length The length of data to be transferred from memory to TIM peripheral
 777:Drivers/STM32F3xx_HAL_Driver/Src/stm32f3xx_hal_tim.c ****   * @retval HAL status
 778:Drivers/STM32F3xx_HAL_Driver/Src/stm32f3xx_hal_tim.c **** */
 779:Drivers/STM32F3xx_HAL_Driver/Src/stm32f3xx_hal_tim.c **** HAL_StatusTypeDef HAL_TIM_OC_Start_DMA(TIM_HandleTypeDef *htim, uint32_t Channel, uint32_t *pData, 
 780:Drivers/STM32F3xx_HAL_Driver/Src/stm32f3xx_hal_tim.c **** {
 1651              		.loc 1 780 0
 1652              		.cfi_startproc
 1653              		@ args = 0, pretend = 0, frame = 16
ARM GAS  /tmp/cc7U8joB.s 			page 43


 1654              		@ frame_needed = 1, uses_anonymous_args = 0
 1655 0000 80B5     		push	{r7, lr}
 1656              	.LCFI99:
 1657              		.cfi_def_cfa_offset 8
 1658              		.cfi_offset 7, -8
 1659              		.cfi_offset 14, -4
 1660 0002 84B0     		sub	sp, sp, #16
 1661              	.LCFI100:
 1662              		.cfi_def_cfa_offset 24
 1663 0004 00AF     		add	r7, sp, #0
 1664              	.LCFI101:
 1665              		.cfi_def_cfa_register 7
 1666 0006 F860     		str	r0, [r7, #12]
 1667 0008 B960     		str	r1, [r7, #8]
 1668 000a 7A60     		str	r2, [r7, #4]
 1669 000c 7B80     		strh	r3, [r7, #2]	@ movhi
 781:Drivers/STM32F3xx_HAL_Driver/Src/stm32f3xx_hal_tim.c ****   /* Check the parameters */
 782:Drivers/STM32F3xx_HAL_Driver/Src/stm32f3xx_hal_tim.c ****   assert_param(IS_TIM_CCX_INSTANCE(htim->Instance, Channel));
 783:Drivers/STM32F3xx_HAL_Driver/Src/stm32f3xx_hal_tim.c ****   
 784:Drivers/STM32F3xx_HAL_Driver/Src/stm32f3xx_hal_tim.c ****   if((htim->State == HAL_TIM_STATE_BUSY))
 1670              		.loc 1 784 0
 1671 000e FB68     		ldr	r3, [r7, #12]
 1672 0010 93F83D30 		ldrb	r3, [r3, #61]
 1673 0014 DBB2     		uxtb	r3, r3
 1674 0016 022B     		cmp	r3, #2
 1675 0018 01D1     		bne	.L90
 785:Drivers/STM32F3xx_HAL_Driver/Src/stm32f3xx_hal_tim.c ****   {
 786:Drivers/STM32F3xx_HAL_Driver/Src/stm32f3xx_hal_tim.c ****      return HAL_BUSY;
 1676              		.loc 1 786 0
 1677 001a 0223     		movs	r3, #2
 1678 001c D0E0     		b	.L91
 1679              	.L90:
 787:Drivers/STM32F3xx_HAL_Driver/Src/stm32f3xx_hal_tim.c ****   }
 788:Drivers/STM32F3xx_HAL_Driver/Src/stm32f3xx_hal_tim.c ****   else if((htim->State == HAL_TIM_STATE_READY))
 1680              		.loc 1 788 0
 1681 001e FB68     		ldr	r3, [r7, #12]
 1682 0020 93F83D30 		ldrb	r3, [r3, #61]
 1683 0024 DBB2     		uxtb	r3, r3
 1684 0026 012B     		cmp	r3, #1
 1685 0028 0BD1     		bne	.L92
 789:Drivers/STM32F3xx_HAL_Driver/Src/stm32f3xx_hal_tim.c ****   {
 790:Drivers/STM32F3xx_HAL_Driver/Src/stm32f3xx_hal_tim.c ****     if(((uint32_t)pData == 0U ) && (Length > 0U)) 
 1686              		.loc 1 790 0
 1687 002a 7B68     		ldr	r3, [r7, #4]
 1688 002c 002B     		cmp	r3, #0
 1689 002e 04D1     		bne	.L93
 1690              		.loc 1 790 0 is_stmt 0 discriminator 1
 1691 0030 7B88     		ldrh	r3, [r7, #2]
 1692 0032 002B     		cmp	r3, #0
 1693 0034 01D0     		beq	.L93
 791:Drivers/STM32F3xx_HAL_Driver/Src/stm32f3xx_hal_tim.c ****     {
 792:Drivers/STM32F3xx_HAL_Driver/Src/stm32f3xx_hal_tim.c ****       return HAL_ERROR;                                    
 1694              		.loc 1 792 0 is_stmt 1
 1695 0036 0123     		movs	r3, #1
 1696 0038 C2E0     		b	.L91
 1697              	.L93:
 793:Drivers/STM32F3xx_HAL_Driver/Src/stm32f3xx_hal_tim.c ****     }
ARM GAS  /tmp/cc7U8joB.s 			page 44


 794:Drivers/STM32F3xx_HAL_Driver/Src/stm32f3xx_hal_tim.c ****     else
 795:Drivers/STM32F3xx_HAL_Driver/Src/stm32f3xx_hal_tim.c ****     {
 796:Drivers/STM32F3xx_HAL_Driver/Src/stm32f3xx_hal_tim.c ****       htim->State = HAL_TIM_STATE_BUSY;
 1698              		.loc 1 796 0
 1699 003a FB68     		ldr	r3, [r7, #12]
 1700 003c 0222     		movs	r2, #2
 1701 003e 83F83D20 		strb	r2, [r3, #61]
 1702              	.L92:
 797:Drivers/STM32F3xx_HAL_Driver/Src/stm32f3xx_hal_tim.c ****     }
 798:Drivers/STM32F3xx_HAL_Driver/Src/stm32f3xx_hal_tim.c ****   }    
 799:Drivers/STM32F3xx_HAL_Driver/Src/stm32f3xx_hal_tim.c ****   switch (Channel)
 1703              		.loc 1 799 0
 1704 0042 BB68     		ldr	r3, [r7, #8]
 1705 0044 0C2B     		cmp	r3, #12
 1706 0046 00F28980 		bhi	.L105
 1707 004a 01A2     		adr	r2, .L96
 1708 004c 52F823F0 		ldr	pc, [r2, r3, lsl #2]
 1709              		.p2align 2
 1710              	.L96:
 1711 0050 85000000 		.word	.L95+1
 1712 0054 5D010000 		.word	.L105+1
 1713 0058 5D010000 		.word	.L105+1
 1714 005c 5D010000 		.word	.L105+1
 1715 0060 BB000000 		.word	.L97+1
 1716 0064 5D010000 		.word	.L105+1
 1717 0068 5D010000 		.word	.L105+1
 1718 006c 5D010000 		.word	.L105+1
 1719 0070 F1000000 		.word	.L98+1
 1720 0074 5D010000 		.word	.L105+1
 1721 0078 5D010000 		.word	.L105+1
 1722 007c 5D010000 		.word	.L105+1
 1723 0080 27010000 		.word	.L99+1
 1724              		.p2align 1
 1725              	.L95:
 800:Drivers/STM32F3xx_HAL_Driver/Src/stm32f3xx_hal_tim.c ****   {
 801:Drivers/STM32F3xx_HAL_Driver/Src/stm32f3xx_hal_tim.c ****     case TIM_CHANNEL_1:
 802:Drivers/STM32F3xx_HAL_Driver/Src/stm32f3xx_hal_tim.c ****     {
 803:Drivers/STM32F3xx_HAL_Driver/Src/stm32f3xx_hal_tim.c ****       /* Set the DMA Period elapsed callback */
 804:Drivers/STM32F3xx_HAL_Driver/Src/stm32f3xx_hal_tim.c ****       htim->hdma[TIM_DMA_ID_CC1]->XferCpltCallback = TIM_DMADelayPulseCplt;
 1726              		.loc 1 804 0
 1727 0084 FB68     		ldr	r3, [r7, #12]
 1728 0086 5B6A     		ldr	r3, [r3, #36]
 1729 0088 4F4A     		ldr	r2, .L106
 1730 008a 9A62     		str	r2, [r3, #40]
 805:Drivers/STM32F3xx_HAL_Driver/Src/stm32f3xx_hal_tim.c ****      
 806:Drivers/STM32F3xx_HAL_Driver/Src/stm32f3xx_hal_tim.c ****       /* Set the DMA error callback */
 807:Drivers/STM32F3xx_HAL_Driver/Src/stm32f3xx_hal_tim.c ****       htim->hdma[TIM_DMA_ID_CC1]->XferErrorCallback = TIM_DMAError ;
 1731              		.loc 1 807 0
 1732 008c FB68     		ldr	r3, [r7, #12]
 1733 008e 5B6A     		ldr	r3, [r3, #36]
 1734 0090 4E4A     		ldr	r2, .L106+4
 1735 0092 1A63     		str	r2, [r3, #48]
 808:Drivers/STM32F3xx_HAL_Driver/Src/stm32f3xx_hal_tim.c ****       
 809:Drivers/STM32F3xx_HAL_Driver/Src/stm32f3xx_hal_tim.c ****       /* Enable the DMA channel */
 810:Drivers/STM32F3xx_HAL_Driver/Src/stm32f3xx_hal_tim.c ****       HAL_DMA_Start_IT(htim->hdma[TIM_DMA_ID_CC1], (uint32_t)pData, (uint32_t)&htim->Instance->CCR1
 1736              		.loc 1 810 0
 1737 0094 FB68     		ldr	r3, [r7, #12]
ARM GAS  /tmp/cc7U8joB.s 			page 45


 1738 0096 586A     		ldr	r0, [r3, #36]
 1739 0098 7968     		ldr	r1, [r7, #4]
 1740 009a FB68     		ldr	r3, [r7, #12]
 1741 009c 1B68     		ldr	r3, [r3]
 1742 009e 3433     		adds	r3, r3, #52
 1743 00a0 1A46     		mov	r2, r3
 1744 00a2 7B88     		ldrh	r3, [r7, #2]
 1745 00a4 FFF7FEFF 		bl	HAL_DMA_Start_IT
 811:Drivers/STM32F3xx_HAL_Driver/Src/stm32f3xx_hal_tim.c ****       
 812:Drivers/STM32F3xx_HAL_Driver/Src/stm32f3xx_hal_tim.c ****       /* Enable the TIM Capture/Compare 1 DMA request */
 813:Drivers/STM32F3xx_HAL_Driver/Src/stm32f3xx_hal_tim.c ****       __HAL_TIM_ENABLE_DMA(htim, TIM_DMA_CC1);
 1746              		.loc 1 813 0
 1747 00a8 FB68     		ldr	r3, [r7, #12]
 1748 00aa 1B68     		ldr	r3, [r3]
 1749 00ac DA68     		ldr	r2, [r3, #12]
 1750 00ae FB68     		ldr	r3, [r7, #12]
 1751 00b0 1B68     		ldr	r3, [r3]
 1752 00b2 42F40072 		orr	r2, r2, #512
 1753 00b6 DA60     		str	r2, [r3, #12]
 814:Drivers/STM32F3xx_HAL_Driver/Src/stm32f3xx_hal_tim.c ****     }
 815:Drivers/STM32F3xx_HAL_Driver/Src/stm32f3xx_hal_tim.c ****     break;
 1754              		.loc 1 815 0
 1755 00b8 51E0     		b	.L100
 1756              	.L97:
 816:Drivers/STM32F3xx_HAL_Driver/Src/stm32f3xx_hal_tim.c ****     
 817:Drivers/STM32F3xx_HAL_Driver/Src/stm32f3xx_hal_tim.c ****     case TIM_CHANNEL_2:
 818:Drivers/STM32F3xx_HAL_Driver/Src/stm32f3xx_hal_tim.c ****     {
 819:Drivers/STM32F3xx_HAL_Driver/Src/stm32f3xx_hal_tim.c ****       /* Set the DMA Period elapsed callback */
 820:Drivers/STM32F3xx_HAL_Driver/Src/stm32f3xx_hal_tim.c ****       htim->hdma[TIM_DMA_ID_CC2]->XferCpltCallback = TIM_DMADelayPulseCplt;
 1757              		.loc 1 820 0
 1758 00ba FB68     		ldr	r3, [r7, #12]
 1759 00bc 9B6A     		ldr	r3, [r3, #40]
 1760 00be 424A     		ldr	r2, .L106
 1761 00c0 9A62     		str	r2, [r3, #40]
 821:Drivers/STM32F3xx_HAL_Driver/Src/stm32f3xx_hal_tim.c ****      
 822:Drivers/STM32F3xx_HAL_Driver/Src/stm32f3xx_hal_tim.c ****       /* Set the DMA error callback */
 823:Drivers/STM32F3xx_HAL_Driver/Src/stm32f3xx_hal_tim.c ****       htim->hdma[TIM_DMA_ID_CC2]->XferErrorCallback = TIM_DMAError ;
 1762              		.loc 1 823 0
 1763 00c2 FB68     		ldr	r3, [r7, #12]
 1764 00c4 9B6A     		ldr	r3, [r3, #40]
 1765 00c6 414A     		ldr	r2, .L106+4
 1766 00c8 1A63     		str	r2, [r3, #48]
 824:Drivers/STM32F3xx_HAL_Driver/Src/stm32f3xx_hal_tim.c ****       
 825:Drivers/STM32F3xx_HAL_Driver/Src/stm32f3xx_hal_tim.c ****       /* Enable the DMA channel */
 826:Drivers/STM32F3xx_HAL_Driver/Src/stm32f3xx_hal_tim.c ****       HAL_DMA_Start_IT(htim->hdma[TIM_DMA_ID_CC2], (uint32_t)pData, (uint32_t)&htim->Instance->CCR2
 1767              		.loc 1 826 0
 1768 00ca FB68     		ldr	r3, [r7, #12]
 1769 00cc 986A     		ldr	r0, [r3, #40]
 1770 00ce 7968     		ldr	r1, [r7, #4]
 1771 00d0 FB68     		ldr	r3, [r7, #12]
 1772 00d2 1B68     		ldr	r3, [r3]
 1773 00d4 3833     		adds	r3, r3, #56
 1774 00d6 1A46     		mov	r2, r3
 1775 00d8 7B88     		ldrh	r3, [r7, #2]
 1776 00da FFF7FEFF 		bl	HAL_DMA_Start_IT
 827:Drivers/STM32F3xx_HAL_Driver/Src/stm32f3xx_hal_tim.c ****       
 828:Drivers/STM32F3xx_HAL_Driver/Src/stm32f3xx_hal_tim.c ****       /* Enable the TIM Capture/Compare 2 DMA request */
ARM GAS  /tmp/cc7U8joB.s 			page 46


 829:Drivers/STM32F3xx_HAL_Driver/Src/stm32f3xx_hal_tim.c ****       __HAL_TIM_ENABLE_DMA(htim, TIM_DMA_CC2);
 1777              		.loc 1 829 0
 1778 00de FB68     		ldr	r3, [r7, #12]
 1779 00e0 1B68     		ldr	r3, [r3]
 1780 00e2 DA68     		ldr	r2, [r3, #12]
 1781 00e4 FB68     		ldr	r3, [r7, #12]
 1782 00e6 1B68     		ldr	r3, [r3]
 1783 00e8 42F48062 		orr	r2, r2, #1024
 1784 00ec DA60     		str	r2, [r3, #12]
 830:Drivers/STM32F3xx_HAL_Driver/Src/stm32f3xx_hal_tim.c ****     }
 831:Drivers/STM32F3xx_HAL_Driver/Src/stm32f3xx_hal_tim.c ****     break;
 1785              		.loc 1 831 0
 1786 00ee 36E0     		b	.L100
 1787              	.L98:
 832:Drivers/STM32F3xx_HAL_Driver/Src/stm32f3xx_hal_tim.c ****     
 833:Drivers/STM32F3xx_HAL_Driver/Src/stm32f3xx_hal_tim.c ****     case TIM_CHANNEL_3:
 834:Drivers/STM32F3xx_HAL_Driver/Src/stm32f3xx_hal_tim.c ****     {
 835:Drivers/STM32F3xx_HAL_Driver/Src/stm32f3xx_hal_tim.c ****       /* Set the DMA Period elapsed callback */
 836:Drivers/STM32F3xx_HAL_Driver/Src/stm32f3xx_hal_tim.c ****       htim->hdma[TIM_DMA_ID_CC3]->XferCpltCallback = TIM_DMADelayPulseCplt;
 1788              		.loc 1 836 0
 1789 00f0 FB68     		ldr	r3, [r7, #12]
 1790 00f2 DB6A     		ldr	r3, [r3, #44]
 1791 00f4 344A     		ldr	r2, .L106
 1792 00f6 9A62     		str	r2, [r3, #40]
 837:Drivers/STM32F3xx_HAL_Driver/Src/stm32f3xx_hal_tim.c ****      
 838:Drivers/STM32F3xx_HAL_Driver/Src/stm32f3xx_hal_tim.c ****       /* Set the DMA error callback */
 839:Drivers/STM32F3xx_HAL_Driver/Src/stm32f3xx_hal_tim.c ****       htim->hdma[TIM_DMA_ID_CC3]->XferErrorCallback = TIM_DMAError ;
 1793              		.loc 1 839 0
 1794 00f8 FB68     		ldr	r3, [r7, #12]
 1795 00fa DB6A     		ldr	r3, [r3, #44]
 1796 00fc 334A     		ldr	r2, .L106+4
 1797 00fe 1A63     		str	r2, [r3, #48]
 840:Drivers/STM32F3xx_HAL_Driver/Src/stm32f3xx_hal_tim.c ****       
 841:Drivers/STM32F3xx_HAL_Driver/Src/stm32f3xx_hal_tim.c ****       /* Enable the DMA channel */
 842:Drivers/STM32F3xx_HAL_Driver/Src/stm32f3xx_hal_tim.c ****       HAL_DMA_Start_IT(htim->hdma[TIM_DMA_ID_CC3], (uint32_t)pData, (uint32_t)&htim->Instance->CCR3
 1798              		.loc 1 842 0
 1799 0100 FB68     		ldr	r3, [r7, #12]
 1800 0102 D86A     		ldr	r0, [r3, #44]
 1801 0104 7968     		ldr	r1, [r7, #4]
 1802 0106 FB68     		ldr	r3, [r7, #12]
 1803 0108 1B68     		ldr	r3, [r3]
 1804 010a 3C33     		adds	r3, r3, #60
 1805 010c 1A46     		mov	r2, r3
 1806 010e 7B88     		ldrh	r3, [r7, #2]
 1807 0110 FFF7FEFF 		bl	HAL_DMA_Start_IT
 843:Drivers/STM32F3xx_HAL_Driver/Src/stm32f3xx_hal_tim.c ****       
 844:Drivers/STM32F3xx_HAL_Driver/Src/stm32f3xx_hal_tim.c ****       /* Enable the TIM Capture/Compare 3 DMA request */
 845:Drivers/STM32F3xx_HAL_Driver/Src/stm32f3xx_hal_tim.c ****       __HAL_TIM_ENABLE_DMA(htim, TIM_DMA_CC3);
 1808              		.loc 1 845 0
 1809 0114 FB68     		ldr	r3, [r7, #12]
 1810 0116 1B68     		ldr	r3, [r3]
 1811 0118 DA68     		ldr	r2, [r3, #12]
 1812 011a FB68     		ldr	r3, [r7, #12]
 1813 011c 1B68     		ldr	r3, [r3]
 1814 011e 42F40062 		orr	r2, r2, #2048
 1815 0122 DA60     		str	r2, [r3, #12]
 846:Drivers/STM32F3xx_HAL_Driver/Src/stm32f3xx_hal_tim.c ****     }
ARM GAS  /tmp/cc7U8joB.s 			page 47


 847:Drivers/STM32F3xx_HAL_Driver/Src/stm32f3xx_hal_tim.c ****     break;
 1816              		.loc 1 847 0
 1817 0124 1BE0     		b	.L100
 1818              	.L99:
 848:Drivers/STM32F3xx_HAL_Driver/Src/stm32f3xx_hal_tim.c ****     
 849:Drivers/STM32F3xx_HAL_Driver/Src/stm32f3xx_hal_tim.c ****     case TIM_CHANNEL_4:
 850:Drivers/STM32F3xx_HAL_Driver/Src/stm32f3xx_hal_tim.c ****     {
 851:Drivers/STM32F3xx_HAL_Driver/Src/stm32f3xx_hal_tim.c ****      /* Set the DMA Period elapsed callback */
 852:Drivers/STM32F3xx_HAL_Driver/Src/stm32f3xx_hal_tim.c ****       htim->hdma[TIM_DMA_ID_CC4]->XferCpltCallback = TIM_DMADelayPulseCplt;
 1819              		.loc 1 852 0
 1820 0126 FB68     		ldr	r3, [r7, #12]
 1821 0128 1B6B     		ldr	r3, [r3, #48]
 1822 012a 274A     		ldr	r2, .L106
 1823 012c 9A62     		str	r2, [r3, #40]
 853:Drivers/STM32F3xx_HAL_Driver/Src/stm32f3xx_hal_tim.c ****      
 854:Drivers/STM32F3xx_HAL_Driver/Src/stm32f3xx_hal_tim.c ****       /* Set the DMA error callback */
 855:Drivers/STM32F3xx_HAL_Driver/Src/stm32f3xx_hal_tim.c ****       htim->hdma[TIM_DMA_ID_CC4]->XferErrorCallback = TIM_DMAError ;
 1824              		.loc 1 855 0
 1825 012e FB68     		ldr	r3, [r7, #12]
 1826 0130 1B6B     		ldr	r3, [r3, #48]
 1827 0132 264A     		ldr	r2, .L106+4
 1828 0134 1A63     		str	r2, [r3, #48]
 856:Drivers/STM32F3xx_HAL_Driver/Src/stm32f3xx_hal_tim.c ****       
 857:Drivers/STM32F3xx_HAL_Driver/Src/stm32f3xx_hal_tim.c ****       /* Enable the DMA channel */
 858:Drivers/STM32F3xx_HAL_Driver/Src/stm32f3xx_hal_tim.c ****       HAL_DMA_Start_IT(htim->hdma[TIM_DMA_ID_CC4], (uint32_t)pData, (uint32_t)&htim->Instance->CCR4
 1829              		.loc 1 858 0
 1830 0136 FB68     		ldr	r3, [r7, #12]
 1831 0138 186B     		ldr	r0, [r3, #48]
 1832 013a 7968     		ldr	r1, [r7, #4]
 1833 013c FB68     		ldr	r3, [r7, #12]
 1834 013e 1B68     		ldr	r3, [r3]
 1835 0140 4033     		adds	r3, r3, #64
 1836 0142 1A46     		mov	r2, r3
 1837 0144 7B88     		ldrh	r3, [r7, #2]
 1838 0146 FFF7FEFF 		bl	HAL_DMA_Start_IT
 859:Drivers/STM32F3xx_HAL_Driver/Src/stm32f3xx_hal_tim.c ****       
 860:Drivers/STM32F3xx_HAL_Driver/Src/stm32f3xx_hal_tim.c ****       /* Enable the TIM Capture/Compare 4 DMA request */
 861:Drivers/STM32F3xx_HAL_Driver/Src/stm32f3xx_hal_tim.c ****       __HAL_TIM_ENABLE_DMA(htim, TIM_DMA_CC4);
 1839              		.loc 1 861 0
 1840 014a FB68     		ldr	r3, [r7, #12]
 1841 014c 1B68     		ldr	r3, [r3]
 1842 014e DA68     		ldr	r2, [r3, #12]
 1843 0150 FB68     		ldr	r3, [r7, #12]
 1844 0152 1B68     		ldr	r3, [r3]
 1845 0154 42F48052 		orr	r2, r2, #4096
 1846 0158 DA60     		str	r2, [r3, #12]
 862:Drivers/STM32F3xx_HAL_Driver/Src/stm32f3xx_hal_tim.c ****     }
 863:Drivers/STM32F3xx_HAL_Driver/Src/stm32f3xx_hal_tim.c ****     break;
 1847              		.loc 1 863 0
 1848 015a 00E0     		b	.L100
 1849              	.L105:
 864:Drivers/STM32F3xx_HAL_Driver/Src/stm32f3xx_hal_tim.c ****     
 865:Drivers/STM32F3xx_HAL_Driver/Src/stm32f3xx_hal_tim.c ****     default:
 866:Drivers/STM32F3xx_HAL_Driver/Src/stm32f3xx_hal_tim.c ****     break;
 1850              		.loc 1 866 0
 1851 015c 00BF     		nop
 1852              	.L100:
ARM GAS  /tmp/cc7U8joB.s 			page 48


 867:Drivers/STM32F3xx_HAL_Driver/Src/stm32f3xx_hal_tim.c ****   }
 868:Drivers/STM32F3xx_HAL_Driver/Src/stm32f3xx_hal_tim.c **** 
 869:Drivers/STM32F3xx_HAL_Driver/Src/stm32f3xx_hal_tim.c ****   /* Enable the Output compare channel */
 870:Drivers/STM32F3xx_HAL_Driver/Src/stm32f3xx_hal_tim.c ****   TIM_CCxChannelCmd(htim->Instance, Channel, TIM_CCx_ENABLE);
 1853              		.loc 1 870 0
 1854 015e FB68     		ldr	r3, [r7, #12]
 1855 0160 1B68     		ldr	r3, [r3]
 1856 0162 0122     		movs	r2, #1
 1857 0164 B968     		ldr	r1, [r7, #8]
 1858 0166 1846     		mov	r0, r3
 1859 0168 FFF7FEFF 		bl	TIM_CCxChannelCmd
 871:Drivers/STM32F3xx_HAL_Driver/Src/stm32f3xx_hal_tim.c ****   
 872:Drivers/STM32F3xx_HAL_Driver/Src/stm32f3xx_hal_tim.c ****   if(IS_TIM_BREAK_INSTANCE(htim->Instance) != RESET)  
 1860              		.loc 1 872 0
 1861 016c FB68     		ldr	r3, [r7, #12]
 1862 016e 1B68     		ldr	r3, [r3]
 1863 0170 174A     		ldr	r2, .L106+8
 1864 0172 9342     		cmp	r3, r2
 1865 0174 0ED0     		beq	.L101
 1866              		.loc 1 872 0 is_stmt 0 discriminator 2
 1867 0176 FB68     		ldr	r3, [r7, #12]
 1868 0178 1B68     		ldr	r3, [r3]
 1869 017a 164A     		ldr	r2, .L106+12
 1870 017c 9342     		cmp	r3, r2
 1871 017e 09D0     		beq	.L101
 1872              		.loc 1 872 0 discriminator 4
 1873 0180 FB68     		ldr	r3, [r7, #12]
 1874 0182 1B68     		ldr	r3, [r3]
 1875 0184 144A     		ldr	r2, .L106+16
 1876 0186 9342     		cmp	r3, r2
 1877 0188 04D0     		beq	.L101
 1878              		.loc 1 872 0 discriminator 6
 1879 018a FB68     		ldr	r3, [r7, #12]
 1880 018c 1B68     		ldr	r3, [r3]
 1881 018e 134A     		ldr	r2, .L106+20
 1882 0190 9342     		cmp	r3, r2
 1883 0192 01D1     		bne	.L102
 1884              	.L101:
 1885              		.loc 1 872 0 discriminator 7
 1886 0194 0123     		movs	r3, #1
 1887 0196 00E0     		b	.L103
 1888              	.L102:
 1889              		.loc 1 872 0 discriminator 8
 1890 0198 0023     		movs	r3, #0
 1891              	.L103:
 1892              		.loc 1 872 0 discriminator 10
 1893 019a 002B     		cmp	r3, #0
 1894 019c 07D0     		beq	.L104
 873:Drivers/STM32F3xx_HAL_Driver/Src/stm32f3xx_hal_tim.c ****   {
 874:Drivers/STM32F3xx_HAL_Driver/Src/stm32f3xx_hal_tim.c ****     /* Enable the main output */
 875:Drivers/STM32F3xx_HAL_Driver/Src/stm32f3xx_hal_tim.c ****     __HAL_TIM_MOE_ENABLE(htim);
 1895              		.loc 1 875 0 is_stmt 1
 1896 019e FB68     		ldr	r3, [r7, #12]
 1897 01a0 1B68     		ldr	r3, [r3]
 1898 01a2 5A6C     		ldr	r2, [r3, #68]
 1899 01a4 FB68     		ldr	r3, [r7, #12]
 1900 01a6 1B68     		ldr	r3, [r3]
ARM GAS  /tmp/cc7U8joB.s 			page 49


 1901 01a8 42F40042 		orr	r2, r2, #32768
 1902 01ac 5A64     		str	r2, [r3, #68]
 1903              	.L104:
 876:Drivers/STM32F3xx_HAL_Driver/Src/stm32f3xx_hal_tim.c ****   }  
 877:Drivers/STM32F3xx_HAL_Driver/Src/stm32f3xx_hal_tim.c ****   
 878:Drivers/STM32F3xx_HAL_Driver/Src/stm32f3xx_hal_tim.c ****   /* Enable the Peripheral */
 879:Drivers/STM32F3xx_HAL_Driver/Src/stm32f3xx_hal_tim.c ****   __HAL_TIM_ENABLE(htim); 
 1904              		.loc 1 879 0
 1905 01ae FB68     		ldr	r3, [r7, #12]
 1906 01b0 1B68     		ldr	r3, [r3]
 1907 01b2 1A68     		ldr	r2, [r3]
 1908 01b4 FB68     		ldr	r3, [r7, #12]
 1909 01b6 1B68     		ldr	r3, [r3]
 1910 01b8 42F00102 		orr	r2, r2, #1
 1911 01bc 1A60     		str	r2, [r3]
 880:Drivers/STM32F3xx_HAL_Driver/Src/stm32f3xx_hal_tim.c ****   
 881:Drivers/STM32F3xx_HAL_Driver/Src/stm32f3xx_hal_tim.c ****   /* Return function status */
 882:Drivers/STM32F3xx_HAL_Driver/Src/stm32f3xx_hal_tim.c ****   return HAL_OK;
 1912              		.loc 1 882 0
 1913 01be 0023     		movs	r3, #0
 1914              	.L91:
 883:Drivers/STM32F3xx_HAL_Driver/Src/stm32f3xx_hal_tim.c **** }
 1915              		.loc 1 883 0
 1916 01c0 1846     		mov	r0, r3
 1917 01c2 1037     		adds	r7, r7, #16
 1918              	.LCFI102:
 1919              		.cfi_def_cfa_offset 8
 1920 01c4 BD46     		mov	sp, r7
 1921              	.LCFI103:
 1922              		.cfi_def_cfa_register 13
 1923              		@ sp needed
 1924 01c6 80BD     		pop	{r7, pc}
 1925              	.L107:
 1926              		.align	2
 1927              	.L106:
 1928 01c8 00000000 		.word	TIM_DMADelayPulseCplt
 1929 01cc 00000000 		.word	TIM_DMAError
 1930 01d0 002C0140 		.word	1073818624
 1931 01d4 00400140 		.word	1073823744
 1932 01d8 00440140 		.word	1073824768
 1933 01dc 00480140 		.word	1073825792
 1934              		.cfi_endproc
 1935              	.LFE713:
 1937              		.section	.text.HAL_TIM_OC_Stop_DMA,"ax",%progbits
 1938              		.align	1
 1939              		.global	HAL_TIM_OC_Stop_DMA
 1940              		.syntax unified
 1941              		.thumb
 1942              		.thumb_func
 1943              		.fpu fpv4-sp-d16
 1945              	HAL_TIM_OC_Stop_DMA:
 1946              	.LFB714:
 884:Drivers/STM32F3xx_HAL_Driver/Src/stm32f3xx_hal_tim.c **** 
 885:Drivers/STM32F3xx_HAL_Driver/Src/stm32f3xx_hal_tim.c **** /**
 886:Drivers/STM32F3xx_HAL_Driver/Src/stm32f3xx_hal_tim.c ****   * @brief  Stops the TIM Output Compare signal generation in DMA mode.
 887:Drivers/STM32F3xx_HAL_Driver/Src/stm32f3xx_hal_tim.c ****   * @param  htim TIM Output Compare handle
 888:Drivers/STM32F3xx_HAL_Driver/Src/stm32f3xx_hal_tim.c ****   * @param  Channel TIM Channel to be disabled
ARM GAS  /tmp/cc7U8joB.s 			page 50


 889:Drivers/STM32F3xx_HAL_Driver/Src/stm32f3xx_hal_tim.c ****   *          This parameter can be one of the following values:
 890:Drivers/STM32F3xx_HAL_Driver/Src/stm32f3xx_hal_tim.c ****   *            @arg TIM_CHANNEL_1: TIM Channel 1 selected
 891:Drivers/STM32F3xx_HAL_Driver/Src/stm32f3xx_hal_tim.c ****   *            @arg TIM_CHANNEL_2: TIM Channel 2 selected
 892:Drivers/STM32F3xx_HAL_Driver/Src/stm32f3xx_hal_tim.c ****   *            @arg TIM_CHANNEL_3: TIM Channel 3 selected
 893:Drivers/STM32F3xx_HAL_Driver/Src/stm32f3xx_hal_tim.c ****   *            @arg TIM_CHANNEL_4: TIM Channel 4 selected
 894:Drivers/STM32F3xx_HAL_Driver/Src/stm32f3xx_hal_tim.c ****   * @retval HAL status
 895:Drivers/STM32F3xx_HAL_Driver/Src/stm32f3xx_hal_tim.c **** */
 896:Drivers/STM32F3xx_HAL_Driver/Src/stm32f3xx_hal_tim.c **** HAL_StatusTypeDef HAL_TIM_OC_Stop_DMA(TIM_HandleTypeDef *htim, uint32_t Channel)
 897:Drivers/STM32F3xx_HAL_Driver/Src/stm32f3xx_hal_tim.c **** {
 1947              		.loc 1 897 0
 1948              		.cfi_startproc
 1949              		@ args = 0, pretend = 0, frame = 8
 1950              		@ frame_needed = 1, uses_anonymous_args = 0
 1951 0000 80B5     		push	{r7, lr}
 1952              	.LCFI104:
 1953              		.cfi_def_cfa_offset 8
 1954              		.cfi_offset 7, -8
 1955              		.cfi_offset 14, -4
 1956 0002 82B0     		sub	sp, sp, #8
 1957              	.LCFI105:
 1958              		.cfi_def_cfa_offset 16
 1959 0004 00AF     		add	r7, sp, #0
 1960              	.LCFI106:
 1961              		.cfi_def_cfa_register 7
 1962 0006 7860     		str	r0, [r7, #4]
 1963 0008 3960     		str	r1, [r7]
 898:Drivers/STM32F3xx_HAL_Driver/Src/stm32f3xx_hal_tim.c ****   /* Check the parameters */
 899:Drivers/STM32F3xx_HAL_Driver/Src/stm32f3xx_hal_tim.c ****   assert_param(IS_TIM_CCX_INSTANCE(htim->Instance, Channel));
 900:Drivers/STM32F3xx_HAL_Driver/Src/stm32f3xx_hal_tim.c ****   
 901:Drivers/STM32F3xx_HAL_Driver/Src/stm32f3xx_hal_tim.c ****   switch (Channel)
 1964              		.loc 1 901 0
 1965 000a 3B68     		ldr	r3, [r7]
 1966 000c 0C2B     		cmp	r3, #12
 1967 000e 41D8     		bhi	.L122
 1968 0010 01A2     		adr	r2, .L111
 1969 0012 52F823F0 		ldr	pc, [r2, r3, lsl #2]
 1970 0016 00BF     		.p2align 2
 1971              	.L111:
 1972 0018 4D000000 		.word	.L110+1
 1973 001c 95000000 		.word	.L122+1
 1974 0020 95000000 		.word	.L122+1
 1975 0024 95000000 		.word	.L122+1
 1976 0028 5F000000 		.word	.L112+1
 1977 002c 95000000 		.word	.L122+1
 1978 0030 95000000 		.word	.L122+1
 1979 0034 95000000 		.word	.L122+1
 1980 0038 71000000 		.word	.L113+1
 1981 003c 95000000 		.word	.L122+1
 1982 0040 95000000 		.word	.L122+1
 1983 0044 95000000 		.word	.L122+1
 1984 0048 83000000 		.word	.L114+1
 1985              		.p2align 1
 1986              	.L110:
 902:Drivers/STM32F3xx_HAL_Driver/Src/stm32f3xx_hal_tim.c ****   {
 903:Drivers/STM32F3xx_HAL_Driver/Src/stm32f3xx_hal_tim.c ****     case TIM_CHANNEL_1:
 904:Drivers/STM32F3xx_HAL_Driver/Src/stm32f3xx_hal_tim.c ****     {       
 905:Drivers/STM32F3xx_HAL_Driver/Src/stm32f3xx_hal_tim.c ****       /* Disable the TIM Capture/Compare 1 DMA request */
ARM GAS  /tmp/cc7U8joB.s 			page 51


 906:Drivers/STM32F3xx_HAL_Driver/Src/stm32f3xx_hal_tim.c ****       __HAL_TIM_DISABLE_DMA(htim, TIM_DMA_CC1);
 1987              		.loc 1 906 0
 1988 004c 7B68     		ldr	r3, [r7, #4]
 1989 004e 1B68     		ldr	r3, [r3]
 1990 0050 DA68     		ldr	r2, [r3, #12]
 1991 0052 7B68     		ldr	r3, [r7, #4]
 1992 0054 1B68     		ldr	r3, [r3]
 1993 0056 22F40072 		bic	r2, r2, #512
 1994 005a DA60     		str	r2, [r3, #12]
 907:Drivers/STM32F3xx_HAL_Driver/Src/stm32f3xx_hal_tim.c ****     }
 908:Drivers/STM32F3xx_HAL_Driver/Src/stm32f3xx_hal_tim.c ****     break;
 1995              		.loc 1 908 0
 1996 005c 1BE0     		b	.L115
 1997              	.L112:
 909:Drivers/STM32F3xx_HAL_Driver/Src/stm32f3xx_hal_tim.c ****     
 910:Drivers/STM32F3xx_HAL_Driver/Src/stm32f3xx_hal_tim.c ****     case TIM_CHANNEL_2:
 911:Drivers/STM32F3xx_HAL_Driver/Src/stm32f3xx_hal_tim.c ****     {
 912:Drivers/STM32F3xx_HAL_Driver/Src/stm32f3xx_hal_tim.c ****       /* Disable the TIM Capture/Compare 2 DMA request */
 913:Drivers/STM32F3xx_HAL_Driver/Src/stm32f3xx_hal_tim.c ****       __HAL_TIM_DISABLE_DMA(htim, TIM_DMA_CC2);
 1998              		.loc 1 913 0
 1999 005e 7B68     		ldr	r3, [r7, #4]
 2000 0060 1B68     		ldr	r3, [r3]
 2001 0062 DA68     		ldr	r2, [r3, #12]
 2002 0064 7B68     		ldr	r3, [r7, #4]
 2003 0066 1B68     		ldr	r3, [r3]
 2004 0068 22F48062 		bic	r2, r2, #1024
 2005 006c DA60     		str	r2, [r3, #12]
 914:Drivers/STM32F3xx_HAL_Driver/Src/stm32f3xx_hal_tim.c ****     }
 915:Drivers/STM32F3xx_HAL_Driver/Src/stm32f3xx_hal_tim.c ****     break;
 2006              		.loc 1 915 0
 2007 006e 12E0     		b	.L115
 2008              	.L113:
 916:Drivers/STM32F3xx_HAL_Driver/Src/stm32f3xx_hal_tim.c ****     
 917:Drivers/STM32F3xx_HAL_Driver/Src/stm32f3xx_hal_tim.c ****     case TIM_CHANNEL_3:
 918:Drivers/STM32F3xx_HAL_Driver/Src/stm32f3xx_hal_tim.c ****     {
 919:Drivers/STM32F3xx_HAL_Driver/Src/stm32f3xx_hal_tim.c ****       /* Disable the TIM Capture/Compare 3 DMA request */
 920:Drivers/STM32F3xx_HAL_Driver/Src/stm32f3xx_hal_tim.c ****       __HAL_TIM_DISABLE_DMA(htim, TIM_DMA_CC3);
 2009              		.loc 1 920 0
 2010 0070 7B68     		ldr	r3, [r7, #4]
 2011 0072 1B68     		ldr	r3, [r3]
 2012 0074 DA68     		ldr	r2, [r3, #12]
 2013 0076 7B68     		ldr	r3, [r7, #4]
 2014 0078 1B68     		ldr	r3, [r3]
 2015 007a 22F40062 		bic	r2, r2, #2048
 2016 007e DA60     		str	r2, [r3, #12]
 921:Drivers/STM32F3xx_HAL_Driver/Src/stm32f3xx_hal_tim.c ****     }
 922:Drivers/STM32F3xx_HAL_Driver/Src/stm32f3xx_hal_tim.c ****     break;
 2017              		.loc 1 922 0
 2018 0080 09E0     		b	.L115
 2019              	.L114:
 923:Drivers/STM32F3xx_HAL_Driver/Src/stm32f3xx_hal_tim.c ****     
 924:Drivers/STM32F3xx_HAL_Driver/Src/stm32f3xx_hal_tim.c ****     case TIM_CHANNEL_4:
 925:Drivers/STM32F3xx_HAL_Driver/Src/stm32f3xx_hal_tim.c ****     {
 926:Drivers/STM32F3xx_HAL_Driver/Src/stm32f3xx_hal_tim.c ****       /* Disable the TIM Capture/Compare 4 interrupt */
 927:Drivers/STM32F3xx_HAL_Driver/Src/stm32f3xx_hal_tim.c ****       __HAL_TIM_DISABLE_DMA(htim, TIM_DMA_CC4);
 2020              		.loc 1 927 0
 2021 0082 7B68     		ldr	r3, [r7, #4]
ARM GAS  /tmp/cc7U8joB.s 			page 52


 2022 0084 1B68     		ldr	r3, [r3]
 2023 0086 DA68     		ldr	r2, [r3, #12]
 2024 0088 7B68     		ldr	r3, [r7, #4]
 2025 008a 1B68     		ldr	r3, [r3]
 2026 008c 22F48052 		bic	r2, r2, #4096
 2027 0090 DA60     		str	r2, [r3, #12]
 928:Drivers/STM32F3xx_HAL_Driver/Src/stm32f3xx_hal_tim.c ****     }
 929:Drivers/STM32F3xx_HAL_Driver/Src/stm32f3xx_hal_tim.c ****     break;
 2028              		.loc 1 929 0
 2029 0092 00E0     		b	.L115
 2030              	.L122:
 930:Drivers/STM32F3xx_HAL_Driver/Src/stm32f3xx_hal_tim.c ****     
 931:Drivers/STM32F3xx_HAL_Driver/Src/stm32f3xx_hal_tim.c ****     default:
 932:Drivers/STM32F3xx_HAL_Driver/Src/stm32f3xx_hal_tim.c ****     break;
 2031              		.loc 1 932 0
 2032 0094 00BF     		nop
 2033              	.L115:
 933:Drivers/STM32F3xx_HAL_Driver/Src/stm32f3xx_hal_tim.c ****   } 
 934:Drivers/STM32F3xx_HAL_Driver/Src/stm32f3xx_hal_tim.c ****   
 935:Drivers/STM32F3xx_HAL_Driver/Src/stm32f3xx_hal_tim.c ****   /* Disable the Output compare channel */
 936:Drivers/STM32F3xx_HAL_Driver/Src/stm32f3xx_hal_tim.c ****   TIM_CCxChannelCmd(htim->Instance, Channel, TIM_CCx_DISABLE);
 2034              		.loc 1 936 0
 2035 0096 7B68     		ldr	r3, [r7, #4]
 2036 0098 1B68     		ldr	r3, [r3]
 2037 009a 0022     		movs	r2, #0
 2038 009c 3968     		ldr	r1, [r7]
 2039 009e 1846     		mov	r0, r3
 2040 00a0 FFF7FEFF 		bl	TIM_CCxChannelCmd
 937:Drivers/STM32F3xx_HAL_Driver/Src/stm32f3xx_hal_tim.c ****   
 938:Drivers/STM32F3xx_HAL_Driver/Src/stm32f3xx_hal_tim.c ****   if(IS_TIM_BREAK_INSTANCE(htim->Instance) != RESET)  
 2041              		.loc 1 938 0
 2042 00a4 7B68     		ldr	r3, [r7, #4]
 2043 00a6 1B68     		ldr	r3, [r3]
 2044 00a8 274A     		ldr	r2, .L123
 2045 00aa 9342     		cmp	r3, r2
 2046 00ac 0ED0     		beq	.L116
 2047              		.loc 1 938 0 is_stmt 0 discriminator 2
 2048 00ae 7B68     		ldr	r3, [r7, #4]
 2049 00b0 1B68     		ldr	r3, [r3]
 2050 00b2 264A     		ldr	r2, .L123+4
 2051 00b4 9342     		cmp	r3, r2
 2052 00b6 09D0     		beq	.L116
 2053              		.loc 1 938 0 discriminator 4
 2054 00b8 7B68     		ldr	r3, [r7, #4]
 2055 00ba 1B68     		ldr	r3, [r3]
 2056 00bc 244A     		ldr	r2, .L123+8
 2057 00be 9342     		cmp	r3, r2
 2058 00c0 04D0     		beq	.L116
 2059              		.loc 1 938 0 discriminator 6
 2060 00c2 7B68     		ldr	r3, [r7, #4]
 2061 00c4 1B68     		ldr	r3, [r3]
 2062 00c6 234A     		ldr	r2, .L123+12
 2063 00c8 9342     		cmp	r3, r2
 2064 00ca 01D1     		bne	.L117
 2065              	.L116:
 2066              		.loc 1 938 0 discriminator 7
 2067 00cc 0123     		movs	r3, #1
ARM GAS  /tmp/cc7U8joB.s 			page 53


 2068 00ce 00E0     		b	.L118
 2069              	.L117:
 2070              		.loc 1 938 0 discriminator 8
 2071 00d0 0023     		movs	r3, #0
 2072              	.L118:
 2073              		.loc 1 938 0 discriminator 10
 2074 00d2 002B     		cmp	r3, #0
 2075 00d4 17D0     		beq	.L119
 939:Drivers/STM32F3xx_HAL_Driver/Src/stm32f3xx_hal_tim.c ****   {
 940:Drivers/STM32F3xx_HAL_Driver/Src/stm32f3xx_hal_tim.c ****     /* Disable the Main Ouput */
 941:Drivers/STM32F3xx_HAL_Driver/Src/stm32f3xx_hal_tim.c ****     __HAL_TIM_MOE_DISABLE(htim);
 2076              		.loc 1 941 0 is_stmt 1
 2077 00d6 7B68     		ldr	r3, [r7, #4]
 2078 00d8 1B68     		ldr	r3, [r3]
 2079 00da 1A6A     		ldr	r2, [r3, #32]
 2080 00dc 41F21113 		movw	r3, #4369
 2081 00e0 1340     		ands	r3, r3, r2
 2082 00e2 002B     		cmp	r3, #0
 2083 00e4 0FD1     		bne	.L119
 2084              		.loc 1 941 0 is_stmt 0 discriminator 1
 2085 00e6 7B68     		ldr	r3, [r7, #4]
 2086 00e8 1B68     		ldr	r3, [r3]
 2087 00ea 1A6A     		ldr	r2, [r3, #32]
 2088 00ec 40F24443 		movw	r3, #1092
 2089 00f0 1340     		ands	r3, r3, r2
 2090 00f2 002B     		cmp	r3, #0
 2091 00f4 07D1     		bne	.L119
 2092              		.loc 1 941 0 discriminator 2
 2093 00f6 7B68     		ldr	r3, [r7, #4]
 2094 00f8 1B68     		ldr	r3, [r3]
 2095 00fa 5A6C     		ldr	r2, [r3, #68]
 2096 00fc 7B68     		ldr	r3, [r7, #4]
 2097 00fe 1B68     		ldr	r3, [r3]
 2098 0100 22F40042 		bic	r2, r2, #32768
 2099 0104 5A64     		str	r2, [r3, #68]
 2100              	.L119:
 942:Drivers/STM32F3xx_HAL_Driver/Src/stm32f3xx_hal_tim.c ****   }
 943:Drivers/STM32F3xx_HAL_Driver/Src/stm32f3xx_hal_tim.c ****   
 944:Drivers/STM32F3xx_HAL_Driver/Src/stm32f3xx_hal_tim.c ****   /* Disable the Peripheral */
 945:Drivers/STM32F3xx_HAL_Driver/Src/stm32f3xx_hal_tim.c ****   __HAL_TIM_DISABLE(htim);
 2101              		.loc 1 945 0 is_stmt 1
 2102 0106 7B68     		ldr	r3, [r7, #4]
 2103 0108 1B68     		ldr	r3, [r3]
 2104 010a 1A6A     		ldr	r2, [r3, #32]
 2105 010c 41F21113 		movw	r3, #4369
 2106 0110 1340     		ands	r3, r3, r2
 2107 0112 002B     		cmp	r3, #0
 2108 0114 0FD1     		bne	.L120
 2109              		.loc 1 945 0 is_stmt 0 discriminator 1
 2110 0116 7B68     		ldr	r3, [r7, #4]
 2111 0118 1B68     		ldr	r3, [r3]
 2112 011a 1A6A     		ldr	r2, [r3, #32]
 2113 011c 40F24443 		movw	r3, #1092
 2114 0120 1340     		ands	r3, r3, r2
 2115 0122 002B     		cmp	r3, #0
 2116 0124 07D1     		bne	.L120
 2117              		.loc 1 945 0 discriminator 2
ARM GAS  /tmp/cc7U8joB.s 			page 54


 2118 0126 7B68     		ldr	r3, [r7, #4]
 2119 0128 1B68     		ldr	r3, [r3]
 2120 012a 1A68     		ldr	r2, [r3]
 2121 012c 7B68     		ldr	r3, [r7, #4]
 2122 012e 1B68     		ldr	r3, [r3]
 2123 0130 22F00102 		bic	r2, r2, #1
 2124 0134 1A60     		str	r2, [r3]
 2125              	.L120:
 946:Drivers/STM32F3xx_HAL_Driver/Src/stm32f3xx_hal_tim.c ****   
 947:Drivers/STM32F3xx_HAL_Driver/Src/stm32f3xx_hal_tim.c ****   /* Change the htim state */
 948:Drivers/STM32F3xx_HAL_Driver/Src/stm32f3xx_hal_tim.c ****   htim->State = HAL_TIM_STATE_READY;
 2126              		.loc 1 948 0 is_stmt 1
 2127 0136 7B68     		ldr	r3, [r7, #4]
 2128 0138 0122     		movs	r2, #1
 2129 013a 83F83D20 		strb	r2, [r3, #61]
 949:Drivers/STM32F3xx_HAL_Driver/Src/stm32f3xx_hal_tim.c ****   
 950:Drivers/STM32F3xx_HAL_Driver/Src/stm32f3xx_hal_tim.c ****   /* Return function status */
 951:Drivers/STM32F3xx_HAL_Driver/Src/stm32f3xx_hal_tim.c ****   return HAL_OK;
 2130              		.loc 1 951 0
 2131 013e 0023     		movs	r3, #0
 952:Drivers/STM32F3xx_HAL_Driver/Src/stm32f3xx_hal_tim.c **** }
 2132              		.loc 1 952 0
 2133 0140 1846     		mov	r0, r3
 2134 0142 0837     		adds	r7, r7, #8
 2135              	.LCFI107:
 2136              		.cfi_def_cfa_offset 8
 2137 0144 BD46     		mov	sp, r7
 2138              	.LCFI108:
 2139              		.cfi_def_cfa_register 13
 2140              		@ sp needed
 2141 0146 80BD     		pop	{r7, pc}
 2142              	.L124:
 2143              		.align	2
 2144              	.L123:
 2145 0148 002C0140 		.word	1073818624
 2146 014c 00400140 		.word	1073823744
 2147 0150 00440140 		.word	1073824768
 2148 0154 00480140 		.word	1073825792
 2149              		.cfi_endproc
 2150              	.LFE714:
 2152              		.section	.text.HAL_TIM_PWM_Init,"ax",%progbits
 2153              		.align	1
 2154              		.global	HAL_TIM_PWM_Init
 2155              		.syntax unified
 2156              		.thumb
 2157              		.thumb_func
 2158              		.fpu fpv4-sp-d16
 2160              	HAL_TIM_PWM_Init:
 2161              	.LFB715:
 953:Drivers/STM32F3xx_HAL_Driver/Src/stm32f3xx_hal_tim.c **** 
 954:Drivers/STM32F3xx_HAL_Driver/Src/stm32f3xx_hal_tim.c **** /**
 955:Drivers/STM32F3xx_HAL_Driver/Src/stm32f3xx_hal_tim.c ****   * @}
 956:Drivers/STM32F3xx_HAL_Driver/Src/stm32f3xx_hal_tim.c ****   */
 957:Drivers/STM32F3xx_HAL_Driver/Src/stm32f3xx_hal_tim.c **** 
 958:Drivers/STM32F3xx_HAL_Driver/Src/stm32f3xx_hal_tim.c **** /** @defgroup TIM_Exported_Functions_Group3 Time PWM functions 
 959:Drivers/STM32F3xx_HAL_Driver/Src/stm32f3xx_hal_tim.c ****  *  @brief    Time PWM functions 
 960:Drivers/STM32F3xx_HAL_Driver/Src/stm32f3xx_hal_tim.c ****  *
ARM GAS  /tmp/cc7U8joB.s 			page 55


 961:Drivers/STM32F3xx_HAL_Driver/Src/stm32f3xx_hal_tim.c **** @verbatim    
 962:Drivers/STM32F3xx_HAL_Driver/Src/stm32f3xx_hal_tim.c ****   ==============================================================================
 963:Drivers/STM32F3xx_HAL_Driver/Src/stm32f3xx_hal_tim.c ****                           ##### Time PWM functions #####
 964:Drivers/STM32F3xx_HAL_Driver/Src/stm32f3xx_hal_tim.c ****   ==============================================================================
 965:Drivers/STM32F3xx_HAL_Driver/Src/stm32f3xx_hal_tim.c ****   [..]  
 966:Drivers/STM32F3xx_HAL_Driver/Src/stm32f3xx_hal_tim.c ****     This section provides functions allowing to:
 967:Drivers/STM32F3xx_HAL_Driver/Src/stm32f3xx_hal_tim.c ****     (+) Initialize and configure the TIM OPWM. 
 968:Drivers/STM32F3xx_HAL_Driver/Src/stm32f3xx_hal_tim.c ****     (+) De-initialize the TIM PWM.
 969:Drivers/STM32F3xx_HAL_Driver/Src/stm32f3xx_hal_tim.c ****     (+) Start the Time PWM.
 970:Drivers/STM32F3xx_HAL_Driver/Src/stm32f3xx_hal_tim.c ****     (+) Stop the Time PWM.
 971:Drivers/STM32F3xx_HAL_Driver/Src/stm32f3xx_hal_tim.c ****     (+) Start the Time PWM and enable interrupt.
 972:Drivers/STM32F3xx_HAL_Driver/Src/stm32f3xx_hal_tim.c ****     (+) Stop the Time PWM and disable interrupt.
 973:Drivers/STM32F3xx_HAL_Driver/Src/stm32f3xx_hal_tim.c ****     (+) Start the Time PWM and enable DMA transfer.
 974:Drivers/STM32F3xx_HAL_Driver/Src/stm32f3xx_hal_tim.c ****     (+) Stop the Time PWM and disable DMA transfer.
 975:Drivers/STM32F3xx_HAL_Driver/Src/stm32f3xx_hal_tim.c ****  
 976:Drivers/STM32F3xx_HAL_Driver/Src/stm32f3xx_hal_tim.c **** @endverbatim
 977:Drivers/STM32F3xx_HAL_Driver/Src/stm32f3xx_hal_tim.c ****   * @{
 978:Drivers/STM32F3xx_HAL_Driver/Src/stm32f3xx_hal_tim.c ****   */
 979:Drivers/STM32F3xx_HAL_Driver/Src/stm32f3xx_hal_tim.c **** /**
 980:Drivers/STM32F3xx_HAL_Driver/Src/stm32f3xx_hal_tim.c ****   * @brief  Initializes the TIM PWM Time Base according to the specified
 981:Drivers/STM32F3xx_HAL_Driver/Src/stm32f3xx_hal_tim.c ****   *         parameters in the TIM_HandleTypeDef and create the associated handle.
 982:Drivers/STM32F3xx_HAL_Driver/Src/stm32f3xx_hal_tim.c ****   * @param  htim TIM handle
 983:Drivers/STM32F3xx_HAL_Driver/Src/stm32f3xx_hal_tim.c ****   * @retval HAL status
 984:Drivers/STM32F3xx_HAL_Driver/Src/stm32f3xx_hal_tim.c ****   */
 985:Drivers/STM32F3xx_HAL_Driver/Src/stm32f3xx_hal_tim.c **** HAL_StatusTypeDef HAL_TIM_PWM_Init(TIM_HandleTypeDef *htim)
 986:Drivers/STM32F3xx_HAL_Driver/Src/stm32f3xx_hal_tim.c **** {
 2162              		.loc 1 986 0
 2163              		.cfi_startproc
 2164              		@ args = 0, pretend = 0, frame = 8
 2165              		@ frame_needed = 1, uses_anonymous_args = 0
 2166 0000 80B5     		push	{r7, lr}
 2167              	.LCFI109:
 2168              		.cfi_def_cfa_offset 8
 2169              		.cfi_offset 7, -8
 2170              		.cfi_offset 14, -4
 2171 0002 82B0     		sub	sp, sp, #8
 2172              	.LCFI110:
 2173              		.cfi_def_cfa_offset 16
 2174 0004 00AF     		add	r7, sp, #0
 2175              	.LCFI111:
 2176              		.cfi_def_cfa_register 7
 2177 0006 7860     		str	r0, [r7, #4]
 987:Drivers/STM32F3xx_HAL_Driver/Src/stm32f3xx_hal_tim.c ****   /* Check the TIM handle allocation */
 988:Drivers/STM32F3xx_HAL_Driver/Src/stm32f3xx_hal_tim.c ****   if(htim == NULL)
 2178              		.loc 1 988 0
 2179 0008 7B68     		ldr	r3, [r7, #4]
 2180 000a 002B     		cmp	r3, #0
 2181 000c 01D1     		bne	.L126
 989:Drivers/STM32F3xx_HAL_Driver/Src/stm32f3xx_hal_tim.c ****   {
 990:Drivers/STM32F3xx_HAL_Driver/Src/stm32f3xx_hal_tim.c ****     return HAL_ERROR;
 2182              		.loc 1 990 0
 2183 000e 0123     		movs	r3, #1
 2184 0010 1DE0     		b	.L127
 2185              	.L126:
 991:Drivers/STM32F3xx_HAL_Driver/Src/stm32f3xx_hal_tim.c ****   }
 992:Drivers/STM32F3xx_HAL_Driver/Src/stm32f3xx_hal_tim.c **** 
 993:Drivers/STM32F3xx_HAL_Driver/Src/stm32f3xx_hal_tim.c ****   /* Check the parameters */
ARM GAS  /tmp/cc7U8joB.s 			page 56


 994:Drivers/STM32F3xx_HAL_Driver/Src/stm32f3xx_hal_tim.c ****   assert_param(IS_TIM_INSTANCE(htim->Instance));
 995:Drivers/STM32F3xx_HAL_Driver/Src/stm32f3xx_hal_tim.c ****   assert_param(IS_TIM_COUNTER_MODE(htim->Init.CounterMode));
 996:Drivers/STM32F3xx_HAL_Driver/Src/stm32f3xx_hal_tim.c ****   assert_param(IS_TIM_CLOCKDIVISION_DIV(htim->Init.ClockDivision));
 997:Drivers/STM32F3xx_HAL_Driver/Src/stm32f3xx_hal_tim.c ****   assert_param(IS_TIM_AUTORELOAD_PRELOAD(htim->Init.AutoReloadPreload));
 998:Drivers/STM32F3xx_HAL_Driver/Src/stm32f3xx_hal_tim.c **** 
 999:Drivers/STM32F3xx_HAL_Driver/Src/stm32f3xx_hal_tim.c ****   if(htim->State == HAL_TIM_STATE_RESET)
 2186              		.loc 1 999 0
 2187 0012 7B68     		ldr	r3, [r7, #4]
 2188 0014 93F83D30 		ldrb	r3, [r3, #61]
 2189 0018 DBB2     		uxtb	r3, r3
 2190 001a 002B     		cmp	r3, #0
 2191 001c 06D1     		bne	.L128
1000:Drivers/STM32F3xx_HAL_Driver/Src/stm32f3xx_hal_tim.c ****   {
1001:Drivers/STM32F3xx_HAL_Driver/Src/stm32f3xx_hal_tim.c ****     /* Allocate lock resource and initialize it */
1002:Drivers/STM32F3xx_HAL_Driver/Src/stm32f3xx_hal_tim.c ****     htim->Lock = HAL_UNLOCKED;
 2192              		.loc 1 1002 0
 2193 001e 7B68     		ldr	r3, [r7, #4]
 2194 0020 0022     		movs	r2, #0
 2195 0022 83F83C20 		strb	r2, [r3, #60]
1003:Drivers/STM32F3xx_HAL_Driver/Src/stm32f3xx_hal_tim.c **** 
1004:Drivers/STM32F3xx_HAL_Driver/Src/stm32f3xx_hal_tim.c ****     /* Init the low level hardware : GPIO, CLOCK, NVIC and DMA */
1005:Drivers/STM32F3xx_HAL_Driver/Src/stm32f3xx_hal_tim.c ****     HAL_TIM_PWM_MspInit(htim);
 2196              		.loc 1 1005 0
 2197 0026 7868     		ldr	r0, [r7, #4]
 2198 0028 FFF7FEFF 		bl	HAL_TIM_PWM_MspInit
 2199              	.L128:
1006:Drivers/STM32F3xx_HAL_Driver/Src/stm32f3xx_hal_tim.c ****   }
1007:Drivers/STM32F3xx_HAL_Driver/Src/stm32f3xx_hal_tim.c **** 
1008:Drivers/STM32F3xx_HAL_Driver/Src/stm32f3xx_hal_tim.c ****   /* Set the TIM state */
1009:Drivers/STM32F3xx_HAL_Driver/Src/stm32f3xx_hal_tim.c ****   htim->State= HAL_TIM_STATE_BUSY;
 2200              		.loc 1 1009 0
 2201 002c 7B68     		ldr	r3, [r7, #4]
 2202 002e 0222     		movs	r2, #2
 2203 0030 83F83D20 		strb	r2, [r3, #61]
1010:Drivers/STM32F3xx_HAL_Driver/Src/stm32f3xx_hal_tim.c ****  
1011:Drivers/STM32F3xx_HAL_Driver/Src/stm32f3xx_hal_tim.c ****   /* Init the base time for the PWM */  
1012:Drivers/STM32F3xx_HAL_Driver/Src/stm32f3xx_hal_tim.c ****   TIM_Base_SetConfig(htim->Instance, &htim->Init); 
 2204              		.loc 1 1012 0
 2205 0034 7B68     		ldr	r3, [r7, #4]
 2206 0036 1A68     		ldr	r2, [r3]
 2207 0038 7B68     		ldr	r3, [r7, #4]
 2208 003a 0433     		adds	r3, r3, #4
 2209 003c 1946     		mov	r1, r3
 2210 003e 1046     		mov	r0, r2
 2211 0040 FFF7FEFF 		bl	TIM_Base_SetConfig
1013:Drivers/STM32F3xx_HAL_Driver/Src/stm32f3xx_hal_tim.c ****    
1014:Drivers/STM32F3xx_HAL_Driver/Src/stm32f3xx_hal_tim.c ****   /* Initialize the TIM state*/
1015:Drivers/STM32F3xx_HAL_Driver/Src/stm32f3xx_hal_tim.c ****   htim->State= HAL_TIM_STATE_READY;
 2212              		.loc 1 1015 0
 2213 0044 7B68     		ldr	r3, [r7, #4]
 2214 0046 0122     		movs	r2, #1
 2215 0048 83F83D20 		strb	r2, [r3, #61]
1016:Drivers/STM32F3xx_HAL_Driver/Src/stm32f3xx_hal_tim.c ****   
1017:Drivers/STM32F3xx_HAL_Driver/Src/stm32f3xx_hal_tim.c ****   return HAL_OK;
 2216              		.loc 1 1017 0
 2217 004c 0023     		movs	r3, #0
 2218              	.L127:
ARM GAS  /tmp/cc7U8joB.s 			page 57


1018:Drivers/STM32F3xx_HAL_Driver/Src/stm32f3xx_hal_tim.c **** }
 2219              		.loc 1 1018 0
 2220 004e 1846     		mov	r0, r3
 2221 0050 0837     		adds	r7, r7, #8
 2222              	.LCFI112:
 2223              		.cfi_def_cfa_offset 8
 2224 0052 BD46     		mov	sp, r7
 2225              	.LCFI113:
 2226              		.cfi_def_cfa_register 13
 2227              		@ sp needed
 2228 0054 80BD     		pop	{r7, pc}
 2229              		.cfi_endproc
 2230              	.LFE715:
 2232              		.section	.text.HAL_TIM_PWM_DeInit,"ax",%progbits
 2233              		.align	1
 2234              		.global	HAL_TIM_PWM_DeInit
 2235              		.syntax unified
 2236              		.thumb
 2237              		.thumb_func
 2238              		.fpu fpv4-sp-d16
 2240              	HAL_TIM_PWM_DeInit:
 2241              	.LFB716:
1019:Drivers/STM32F3xx_HAL_Driver/Src/stm32f3xx_hal_tim.c **** 
1020:Drivers/STM32F3xx_HAL_Driver/Src/stm32f3xx_hal_tim.c **** /**
1021:Drivers/STM32F3xx_HAL_Driver/Src/stm32f3xx_hal_tim.c ****   * @brief  DeInitializes the TIM peripheral 
1022:Drivers/STM32F3xx_HAL_Driver/Src/stm32f3xx_hal_tim.c ****   * @param  htim TIM handle
1023:Drivers/STM32F3xx_HAL_Driver/Src/stm32f3xx_hal_tim.c ****   * @retval HAL status
1024:Drivers/STM32F3xx_HAL_Driver/Src/stm32f3xx_hal_tim.c ****   */
1025:Drivers/STM32F3xx_HAL_Driver/Src/stm32f3xx_hal_tim.c **** HAL_StatusTypeDef HAL_TIM_PWM_DeInit(TIM_HandleTypeDef *htim)
1026:Drivers/STM32F3xx_HAL_Driver/Src/stm32f3xx_hal_tim.c **** {
 2242              		.loc 1 1026 0
 2243              		.cfi_startproc
 2244              		@ args = 0, pretend = 0, frame = 8
 2245              		@ frame_needed = 1, uses_anonymous_args = 0
 2246 0000 80B5     		push	{r7, lr}
 2247              	.LCFI114:
 2248              		.cfi_def_cfa_offset 8
 2249              		.cfi_offset 7, -8
 2250              		.cfi_offset 14, -4
 2251 0002 82B0     		sub	sp, sp, #8
 2252              	.LCFI115:
 2253              		.cfi_def_cfa_offset 16
 2254 0004 00AF     		add	r7, sp, #0
 2255              	.LCFI116:
 2256              		.cfi_def_cfa_register 7
 2257 0006 7860     		str	r0, [r7, #4]
1027:Drivers/STM32F3xx_HAL_Driver/Src/stm32f3xx_hal_tim.c ****   /* Check the parameters */
1028:Drivers/STM32F3xx_HAL_Driver/Src/stm32f3xx_hal_tim.c ****   assert_param(IS_TIM_INSTANCE(htim->Instance));
1029:Drivers/STM32F3xx_HAL_Driver/Src/stm32f3xx_hal_tim.c ****   
1030:Drivers/STM32F3xx_HAL_Driver/Src/stm32f3xx_hal_tim.c ****   htim->State = HAL_TIM_STATE_BUSY;
 2258              		.loc 1 1030 0
 2259 0008 7B68     		ldr	r3, [r7, #4]
 2260 000a 0222     		movs	r2, #2
 2261 000c 83F83D20 		strb	r2, [r3, #61]
1031:Drivers/STM32F3xx_HAL_Driver/Src/stm32f3xx_hal_tim.c ****   
1032:Drivers/STM32F3xx_HAL_Driver/Src/stm32f3xx_hal_tim.c ****   /* Disable the TIM Peripheral Clock */
1033:Drivers/STM32F3xx_HAL_Driver/Src/stm32f3xx_hal_tim.c ****   __HAL_TIM_DISABLE(htim);
ARM GAS  /tmp/cc7U8joB.s 			page 58


 2262              		.loc 1 1033 0
 2263 0010 7B68     		ldr	r3, [r7, #4]
 2264 0012 1B68     		ldr	r3, [r3]
 2265 0014 1A6A     		ldr	r2, [r3, #32]
 2266 0016 41F21113 		movw	r3, #4369
 2267 001a 1340     		ands	r3, r3, r2
 2268 001c 002B     		cmp	r3, #0
 2269 001e 0FD1     		bne	.L130
 2270              		.loc 1 1033 0 is_stmt 0 discriminator 1
 2271 0020 7B68     		ldr	r3, [r7, #4]
 2272 0022 1B68     		ldr	r3, [r3]
 2273 0024 1A6A     		ldr	r2, [r3, #32]
 2274 0026 40F24443 		movw	r3, #1092
 2275 002a 1340     		ands	r3, r3, r2
 2276 002c 002B     		cmp	r3, #0
 2277 002e 07D1     		bne	.L130
 2278              		.loc 1 1033 0 discriminator 2
 2279 0030 7B68     		ldr	r3, [r7, #4]
 2280 0032 1B68     		ldr	r3, [r3]
 2281 0034 1A68     		ldr	r2, [r3]
 2282 0036 7B68     		ldr	r3, [r7, #4]
 2283 0038 1B68     		ldr	r3, [r3]
 2284 003a 22F00102 		bic	r2, r2, #1
 2285 003e 1A60     		str	r2, [r3]
 2286              	.L130:
1034:Drivers/STM32F3xx_HAL_Driver/Src/stm32f3xx_hal_tim.c ****     
1035:Drivers/STM32F3xx_HAL_Driver/Src/stm32f3xx_hal_tim.c ****   /* DeInit the low level hardware: GPIO, CLOCK, NVIC and DMA */
1036:Drivers/STM32F3xx_HAL_Driver/Src/stm32f3xx_hal_tim.c ****   HAL_TIM_PWM_MspDeInit(htim);
 2287              		.loc 1 1036 0 is_stmt 1
 2288 0040 7868     		ldr	r0, [r7, #4]
 2289 0042 FFF7FEFF 		bl	HAL_TIM_PWM_MspDeInit
1037:Drivers/STM32F3xx_HAL_Driver/Src/stm32f3xx_hal_tim.c ****     
1038:Drivers/STM32F3xx_HAL_Driver/Src/stm32f3xx_hal_tim.c ****   /* Change TIM state */  
1039:Drivers/STM32F3xx_HAL_Driver/Src/stm32f3xx_hal_tim.c ****   htim->State = HAL_TIM_STATE_RESET; 
 2290              		.loc 1 1039 0
 2291 0046 7B68     		ldr	r3, [r7, #4]
 2292 0048 0022     		movs	r2, #0
 2293 004a 83F83D20 		strb	r2, [r3, #61]
1040:Drivers/STM32F3xx_HAL_Driver/Src/stm32f3xx_hal_tim.c ****   
1041:Drivers/STM32F3xx_HAL_Driver/Src/stm32f3xx_hal_tim.c ****   /* Release Lock */
1042:Drivers/STM32F3xx_HAL_Driver/Src/stm32f3xx_hal_tim.c ****   __HAL_UNLOCK(htim);
 2294              		.loc 1 1042 0
 2295 004e 7B68     		ldr	r3, [r7, #4]
 2296 0050 0022     		movs	r2, #0
 2297 0052 83F83C20 		strb	r2, [r3, #60]
1043:Drivers/STM32F3xx_HAL_Driver/Src/stm32f3xx_hal_tim.c **** 
1044:Drivers/STM32F3xx_HAL_Driver/Src/stm32f3xx_hal_tim.c ****   return HAL_OK;
 2298              		.loc 1 1044 0
 2299 0056 0023     		movs	r3, #0
1045:Drivers/STM32F3xx_HAL_Driver/Src/stm32f3xx_hal_tim.c **** }
 2300              		.loc 1 1045 0
 2301 0058 1846     		mov	r0, r3
 2302 005a 0837     		adds	r7, r7, #8
 2303              	.LCFI117:
 2304              		.cfi_def_cfa_offset 8
 2305 005c BD46     		mov	sp, r7
 2306              	.LCFI118:
ARM GAS  /tmp/cc7U8joB.s 			page 59


 2307              		.cfi_def_cfa_register 13
 2308              		@ sp needed
 2309 005e 80BD     		pop	{r7, pc}
 2310              		.cfi_endproc
 2311              	.LFE716:
 2313              		.section	.text.HAL_TIM_PWM_MspInit,"ax",%progbits
 2314              		.align	1
 2315              		.weak	HAL_TIM_PWM_MspInit
 2316              		.syntax unified
 2317              		.thumb
 2318              		.thumb_func
 2319              		.fpu fpv4-sp-d16
 2321              	HAL_TIM_PWM_MspInit:
 2322              	.LFB717:
1046:Drivers/STM32F3xx_HAL_Driver/Src/stm32f3xx_hal_tim.c **** 
1047:Drivers/STM32F3xx_HAL_Driver/Src/stm32f3xx_hal_tim.c **** /**
1048:Drivers/STM32F3xx_HAL_Driver/Src/stm32f3xx_hal_tim.c ****   * @brief  Initializes the TIM PWM MSP.
1049:Drivers/STM32F3xx_HAL_Driver/Src/stm32f3xx_hal_tim.c ****   * @param  htim TIM handle
1050:Drivers/STM32F3xx_HAL_Driver/Src/stm32f3xx_hal_tim.c ****   * @retval None
1051:Drivers/STM32F3xx_HAL_Driver/Src/stm32f3xx_hal_tim.c ****   */
1052:Drivers/STM32F3xx_HAL_Driver/Src/stm32f3xx_hal_tim.c **** __weak void HAL_TIM_PWM_MspInit(TIM_HandleTypeDef *htim)
1053:Drivers/STM32F3xx_HAL_Driver/Src/stm32f3xx_hal_tim.c **** {
 2323              		.loc 1 1053 0
 2324              		.cfi_startproc
 2325              		@ args = 0, pretend = 0, frame = 8
 2326              		@ frame_needed = 1, uses_anonymous_args = 0
 2327              		@ link register save eliminated.
 2328 0000 80B4     		push	{r7}
 2329              	.LCFI119:
 2330              		.cfi_def_cfa_offset 4
 2331              		.cfi_offset 7, -4
 2332 0002 83B0     		sub	sp, sp, #12
 2333              	.LCFI120:
 2334              		.cfi_def_cfa_offset 16
 2335 0004 00AF     		add	r7, sp, #0
 2336              	.LCFI121:
 2337              		.cfi_def_cfa_register 7
 2338 0006 7860     		str	r0, [r7, #4]
1054:Drivers/STM32F3xx_HAL_Driver/Src/stm32f3xx_hal_tim.c ****   /* Prevent unused argument(s) compilation warning */
1055:Drivers/STM32F3xx_HAL_Driver/Src/stm32f3xx_hal_tim.c ****   UNUSED(htim);
1056:Drivers/STM32F3xx_HAL_Driver/Src/stm32f3xx_hal_tim.c **** 
1057:Drivers/STM32F3xx_HAL_Driver/Src/stm32f3xx_hal_tim.c ****   /* NOTE : This function Should not be modified, when the callback is needed,
1058:Drivers/STM32F3xx_HAL_Driver/Src/stm32f3xx_hal_tim.c ****             the HAL_TIM_PWM_MspInit could be implemented in the user file
1059:Drivers/STM32F3xx_HAL_Driver/Src/stm32f3xx_hal_tim.c ****    */
1060:Drivers/STM32F3xx_HAL_Driver/Src/stm32f3xx_hal_tim.c **** }
 2339              		.loc 1 1060 0
 2340 0008 00BF     		nop
 2341 000a 0C37     		adds	r7, r7, #12
 2342              	.LCFI122:
 2343              		.cfi_def_cfa_offset 4
 2344 000c BD46     		mov	sp, r7
 2345              	.LCFI123:
 2346              		.cfi_def_cfa_register 13
 2347              		@ sp needed
 2348 000e 5DF8047B 		ldr	r7, [sp], #4
 2349              	.LCFI124:
 2350              		.cfi_restore 7
ARM GAS  /tmp/cc7U8joB.s 			page 60


 2351              		.cfi_def_cfa_offset 0
 2352 0012 7047     		bx	lr
 2353              		.cfi_endproc
 2354              	.LFE717:
 2356              		.section	.text.HAL_TIM_PWM_MspDeInit,"ax",%progbits
 2357              		.align	1
 2358              		.weak	HAL_TIM_PWM_MspDeInit
 2359              		.syntax unified
 2360              		.thumb
 2361              		.thumb_func
 2362              		.fpu fpv4-sp-d16
 2364              	HAL_TIM_PWM_MspDeInit:
 2365              	.LFB718:
1061:Drivers/STM32F3xx_HAL_Driver/Src/stm32f3xx_hal_tim.c **** 
1062:Drivers/STM32F3xx_HAL_Driver/Src/stm32f3xx_hal_tim.c **** /**
1063:Drivers/STM32F3xx_HAL_Driver/Src/stm32f3xx_hal_tim.c ****   * @brief  DeInitializes TIM PWM MSP.
1064:Drivers/STM32F3xx_HAL_Driver/Src/stm32f3xx_hal_tim.c ****   * @param  htim TIM handle
1065:Drivers/STM32F3xx_HAL_Driver/Src/stm32f3xx_hal_tim.c ****   * @retval None
1066:Drivers/STM32F3xx_HAL_Driver/Src/stm32f3xx_hal_tim.c ****   */
1067:Drivers/STM32F3xx_HAL_Driver/Src/stm32f3xx_hal_tim.c **** __weak void HAL_TIM_PWM_MspDeInit(TIM_HandleTypeDef *htim)
1068:Drivers/STM32F3xx_HAL_Driver/Src/stm32f3xx_hal_tim.c **** {
 2366              		.loc 1 1068 0
 2367              		.cfi_startproc
 2368              		@ args = 0, pretend = 0, frame = 8
 2369              		@ frame_needed = 1, uses_anonymous_args = 0
 2370              		@ link register save eliminated.
 2371 0000 80B4     		push	{r7}
 2372              	.LCFI125:
 2373              		.cfi_def_cfa_offset 4
 2374              		.cfi_offset 7, -4
 2375 0002 83B0     		sub	sp, sp, #12
 2376              	.LCFI126:
 2377              		.cfi_def_cfa_offset 16
 2378 0004 00AF     		add	r7, sp, #0
 2379              	.LCFI127:
 2380              		.cfi_def_cfa_register 7
 2381 0006 7860     		str	r0, [r7, #4]
1069:Drivers/STM32F3xx_HAL_Driver/Src/stm32f3xx_hal_tim.c ****   /* Prevent unused argument(s) compilation warning */
1070:Drivers/STM32F3xx_HAL_Driver/Src/stm32f3xx_hal_tim.c ****   UNUSED(htim);
1071:Drivers/STM32F3xx_HAL_Driver/Src/stm32f3xx_hal_tim.c **** 
1072:Drivers/STM32F3xx_HAL_Driver/Src/stm32f3xx_hal_tim.c ****   /* NOTE : This function Should not be modified, when the callback is needed,
1073:Drivers/STM32F3xx_HAL_Driver/Src/stm32f3xx_hal_tim.c ****             the HAL_TIM_PWM_MspDeInit could be implemented in the user file
1074:Drivers/STM32F3xx_HAL_Driver/Src/stm32f3xx_hal_tim.c ****    */
1075:Drivers/STM32F3xx_HAL_Driver/Src/stm32f3xx_hal_tim.c **** }
 2382              		.loc 1 1075 0
 2383 0008 00BF     		nop
 2384 000a 0C37     		adds	r7, r7, #12
 2385              	.LCFI128:
 2386              		.cfi_def_cfa_offset 4
 2387 000c BD46     		mov	sp, r7
 2388              	.LCFI129:
 2389              		.cfi_def_cfa_register 13
 2390              		@ sp needed
 2391 000e 5DF8047B 		ldr	r7, [sp], #4
 2392              	.LCFI130:
 2393              		.cfi_restore 7
 2394              		.cfi_def_cfa_offset 0
ARM GAS  /tmp/cc7U8joB.s 			page 61


 2395 0012 7047     		bx	lr
 2396              		.cfi_endproc
 2397              	.LFE718:
 2399              		.section	.text.HAL_TIM_PWM_Start,"ax",%progbits
 2400              		.align	1
 2401              		.global	HAL_TIM_PWM_Start
 2402              		.syntax unified
 2403              		.thumb
 2404              		.thumb_func
 2405              		.fpu fpv4-sp-d16
 2407              	HAL_TIM_PWM_Start:
 2408              	.LFB719:
1076:Drivers/STM32F3xx_HAL_Driver/Src/stm32f3xx_hal_tim.c **** 
1077:Drivers/STM32F3xx_HAL_Driver/Src/stm32f3xx_hal_tim.c **** /**
1078:Drivers/STM32F3xx_HAL_Driver/Src/stm32f3xx_hal_tim.c ****   * @brief  Starts the PWM signal generation.
1079:Drivers/STM32F3xx_HAL_Driver/Src/stm32f3xx_hal_tim.c ****   * @param  htim TIM handle
1080:Drivers/STM32F3xx_HAL_Driver/Src/stm32f3xx_hal_tim.c ****   * @param  Channel TIM Channels to be enabled
1081:Drivers/STM32F3xx_HAL_Driver/Src/stm32f3xx_hal_tim.c ****   *          This parameter can be one of the following values:
1082:Drivers/STM32F3xx_HAL_Driver/Src/stm32f3xx_hal_tim.c ****   *            @arg TIM_CHANNEL_1: TIM Channel 1 selected
1083:Drivers/STM32F3xx_HAL_Driver/Src/stm32f3xx_hal_tim.c ****   *            @arg TIM_CHANNEL_2: TIM Channel 2 selected
1084:Drivers/STM32F3xx_HAL_Driver/Src/stm32f3xx_hal_tim.c ****   *            @arg TIM_CHANNEL_3: TIM Channel 3 selected
1085:Drivers/STM32F3xx_HAL_Driver/Src/stm32f3xx_hal_tim.c ****   *            @arg TIM_CHANNEL_4: TIM Channel 4 selected
1086:Drivers/STM32F3xx_HAL_Driver/Src/stm32f3xx_hal_tim.c ****   * @retval HAL status
1087:Drivers/STM32F3xx_HAL_Driver/Src/stm32f3xx_hal_tim.c **** */
1088:Drivers/STM32F3xx_HAL_Driver/Src/stm32f3xx_hal_tim.c **** HAL_StatusTypeDef HAL_TIM_PWM_Start(TIM_HandleTypeDef *htim, uint32_t Channel)
1089:Drivers/STM32F3xx_HAL_Driver/Src/stm32f3xx_hal_tim.c **** {
 2409              		.loc 1 1089 0
 2410              		.cfi_startproc
 2411              		@ args = 0, pretend = 0, frame = 8
 2412              		@ frame_needed = 1, uses_anonymous_args = 0
 2413 0000 80B5     		push	{r7, lr}
 2414              	.LCFI131:
 2415              		.cfi_def_cfa_offset 8
 2416              		.cfi_offset 7, -8
 2417              		.cfi_offset 14, -4
 2418 0002 82B0     		sub	sp, sp, #8
 2419              	.LCFI132:
 2420              		.cfi_def_cfa_offset 16
 2421 0004 00AF     		add	r7, sp, #0
 2422              	.LCFI133:
 2423              		.cfi_def_cfa_register 7
 2424 0006 7860     		str	r0, [r7, #4]
 2425 0008 3960     		str	r1, [r7]
1090:Drivers/STM32F3xx_HAL_Driver/Src/stm32f3xx_hal_tim.c ****   /* Check the parameters */
1091:Drivers/STM32F3xx_HAL_Driver/Src/stm32f3xx_hal_tim.c ****   assert_param(IS_TIM_CCX_INSTANCE(htim->Instance, Channel));
1092:Drivers/STM32F3xx_HAL_Driver/Src/stm32f3xx_hal_tim.c ****   
1093:Drivers/STM32F3xx_HAL_Driver/Src/stm32f3xx_hal_tim.c ****   /* Enable the Capture compare channel */
1094:Drivers/STM32F3xx_HAL_Driver/Src/stm32f3xx_hal_tim.c ****   TIM_CCxChannelCmd(htim->Instance, Channel, TIM_CCx_ENABLE);
 2426              		.loc 1 1094 0
 2427 000a 7B68     		ldr	r3, [r7, #4]
 2428 000c 1B68     		ldr	r3, [r3]
 2429 000e 0122     		movs	r2, #1
 2430 0010 3968     		ldr	r1, [r7]
 2431 0012 1846     		mov	r0, r3
 2432 0014 FFF7FEFF 		bl	TIM_CCxChannelCmd
1095:Drivers/STM32F3xx_HAL_Driver/Src/stm32f3xx_hal_tim.c ****   
1096:Drivers/STM32F3xx_HAL_Driver/Src/stm32f3xx_hal_tim.c ****   if(IS_TIM_BREAK_INSTANCE(htim->Instance) != RESET)  
ARM GAS  /tmp/cc7U8joB.s 			page 62


 2433              		.loc 1 1096 0
 2434 0018 7B68     		ldr	r3, [r7, #4]
 2435 001a 1B68     		ldr	r3, [r3]
 2436 001c 154A     		ldr	r2, .L140
 2437 001e 9342     		cmp	r3, r2
 2438 0020 0ED0     		beq	.L135
 2439              		.loc 1 1096 0 is_stmt 0 discriminator 2
 2440 0022 7B68     		ldr	r3, [r7, #4]
 2441 0024 1B68     		ldr	r3, [r3]
 2442 0026 144A     		ldr	r2, .L140+4
 2443 0028 9342     		cmp	r3, r2
 2444 002a 09D0     		beq	.L135
 2445              		.loc 1 1096 0 discriminator 4
 2446 002c 7B68     		ldr	r3, [r7, #4]
 2447 002e 1B68     		ldr	r3, [r3]
 2448 0030 124A     		ldr	r2, .L140+8
 2449 0032 9342     		cmp	r3, r2
 2450 0034 04D0     		beq	.L135
 2451              		.loc 1 1096 0 discriminator 6
 2452 0036 7B68     		ldr	r3, [r7, #4]
 2453 0038 1B68     		ldr	r3, [r3]
 2454 003a 114A     		ldr	r2, .L140+12
 2455 003c 9342     		cmp	r3, r2
 2456 003e 01D1     		bne	.L136
 2457              	.L135:
 2458              		.loc 1 1096 0 discriminator 7
 2459 0040 0123     		movs	r3, #1
 2460 0042 00E0     		b	.L137
 2461              	.L136:
 2462              		.loc 1 1096 0 discriminator 8
 2463 0044 0023     		movs	r3, #0
 2464              	.L137:
 2465              		.loc 1 1096 0 discriminator 10
 2466 0046 002B     		cmp	r3, #0
 2467 0048 07D0     		beq	.L138
1097:Drivers/STM32F3xx_HAL_Driver/Src/stm32f3xx_hal_tim.c ****   {
1098:Drivers/STM32F3xx_HAL_Driver/Src/stm32f3xx_hal_tim.c ****     /* Enable the main output */
1099:Drivers/STM32F3xx_HAL_Driver/Src/stm32f3xx_hal_tim.c ****     __HAL_TIM_MOE_ENABLE(htim);
 2468              		.loc 1 1099 0 is_stmt 1
 2469 004a 7B68     		ldr	r3, [r7, #4]
 2470 004c 1B68     		ldr	r3, [r3]
 2471 004e 5A6C     		ldr	r2, [r3, #68]
 2472 0050 7B68     		ldr	r3, [r7, #4]
 2473 0052 1B68     		ldr	r3, [r3]
 2474 0054 42F40042 		orr	r2, r2, #32768
 2475 0058 5A64     		str	r2, [r3, #68]
 2476              	.L138:
1100:Drivers/STM32F3xx_HAL_Driver/Src/stm32f3xx_hal_tim.c ****   }
1101:Drivers/STM32F3xx_HAL_Driver/Src/stm32f3xx_hal_tim.c ****     
1102:Drivers/STM32F3xx_HAL_Driver/Src/stm32f3xx_hal_tim.c ****   /* Enable the Peripheral */
1103:Drivers/STM32F3xx_HAL_Driver/Src/stm32f3xx_hal_tim.c ****   __HAL_TIM_ENABLE(htim);
 2477              		.loc 1 1103 0
 2478 005a 7B68     		ldr	r3, [r7, #4]
 2479 005c 1B68     		ldr	r3, [r3]
 2480 005e 1A68     		ldr	r2, [r3]
 2481 0060 7B68     		ldr	r3, [r7, #4]
 2482 0062 1B68     		ldr	r3, [r3]
ARM GAS  /tmp/cc7U8joB.s 			page 63


 2483 0064 42F00102 		orr	r2, r2, #1
 2484 0068 1A60     		str	r2, [r3]
1104:Drivers/STM32F3xx_HAL_Driver/Src/stm32f3xx_hal_tim.c ****   
1105:Drivers/STM32F3xx_HAL_Driver/Src/stm32f3xx_hal_tim.c ****   /* Return function status */
1106:Drivers/STM32F3xx_HAL_Driver/Src/stm32f3xx_hal_tim.c ****   return HAL_OK;
 2485              		.loc 1 1106 0
 2486 006a 0023     		movs	r3, #0
1107:Drivers/STM32F3xx_HAL_Driver/Src/stm32f3xx_hal_tim.c **** } 
 2487              		.loc 1 1107 0
 2488 006c 1846     		mov	r0, r3
 2489 006e 0837     		adds	r7, r7, #8
 2490              	.LCFI134:
 2491              		.cfi_def_cfa_offset 8
 2492 0070 BD46     		mov	sp, r7
 2493              	.LCFI135:
 2494              		.cfi_def_cfa_register 13
 2495              		@ sp needed
 2496 0072 80BD     		pop	{r7, pc}
 2497              	.L141:
 2498              		.align	2
 2499              	.L140:
 2500 0074 002C0140 		.word	1073818624
 2501 0078 00400140 		.word	1073823744
 2502 007c 00440140 		.word	1073824768
 2503 0080 00480140 		.word	1073825792
 2504              		.cfi_endproc
 2505              	.LFE719:
 2507              		.section	.text.HAL_TIM_PWM_Stop,"ax",%progbits
 2508              		.align	1
 2509              		.global	HAL_TIM_PWM_Stop
 2510              		.syntax unified
 2511              		.thumb
 2512              		.thumb_func
 2513              		.fpu fpv4-sp-d16
 2515              	HAL_TIM_PWM_Stop:
 2516              	.LFB720:
1108:Drivers/STM32F3xx_HAL_Driver/Src/stm32f3xx_hal_tim.c **** 
1109:Drivers/STM32F3xx_HAL_Driver/Src/stm32f3xx_hal_tim.c **** /**
1110:Drivers/STM32F3xx_HAL_Driver/Src/stm32f3xx_hal_tim.c ****   * @brief  Stops the PWM signal generation.
1111:Drivers/STM32F3xx_HAL_Driver/Src/stm32f3xx_hal_tim.c ****   * @param  htim TIM handle
1112:Drivers/STM32F3xx_HAL_Driver/Src/stm32f3xx_hal_tim.c ****   * @param  Channel TIM Channels to be disabled
1113:Drivers/STM32F3xx_HAL_Driver/Src/stm32f3xx_hal_tim.c ****   *          This parameter can be one of the following values:
1114:Drivers/STM32F3xx_HAL_Driver/Src/stm32f3xx_hal_tim.c ****   *            @arg TIM_CHANNEL_1: TIM Channel 1 selected
1115:Drivers/STM32F3xx_HAL_Driver/Src/stm32f3xx_hal_tim.c ****   *            @arg TIM_CHANNEL_2: TIM Channel 2 selected
1116:Drivers/STM32F3xx_HAL_Driver/Src/stm32f3xx_hal_tim.c ****   *            @arg TIM_CHANNEL_3: TIM Channel 3 selected
1117:Drivers/STM32F3xx_HAL_Driver/Src/stm32f3xx_hal_tim.c ****   *            @arg TIM_CHANNEL_4: TIM Channel 4 selected
1118:Drivers/STM32F3xx_HAL_Driver/Src/stm32f3xx_hal_tim.c ****   * @retval HAL status
1119:Drivers/STM32F3xx_HAL_Driver/Src/stm32f3xx_hal_tim.c **** */
1120:Drivers/STM32F3xx_HAL_Driver/Src/stm32f3xx_hal_tim.c **** HAL_StatusTypeDef HAL_TIM_PWM_Stop(TIM_HandleTypeDef *htim, uint32_t Channel)
1121:Drivers/STM32F3xx_HAL_Driver/Src/stm32f3xx_hal_tim.c **** {   
 2517              		.loc 1 1121 0
 2518              		.cfi_startproc
 2519              		@ args = 0, pretend = 0, frame = 8
 2520              		@ frame_needed = 1, uses_anonymous_args = 0
 2521 0000 80B5     		push	{r7, lr}
 2522              	.LCFI136:
 2523              		.cfi_def_cfa_offset 8
ARM GAS  /tmp/cc7U8joB.s 			page 64


 2524              		.cfi_offset 7, -8
 2525              		.cfi_offset 14, -4
 2526 0002 82B0     		sub	sp, sp, #8
 2527              	.LCFI137:
 2528              		.cfi_def_cfa_offset 16
 2529 0004 00AF     		add	r7, sp, #0
 2530              	.LCFI138:
 2531              		.cfi_def_cfa_register 7
 2532 0006 7860     		str	r0, [r7, #4]
 2533 0008 3960     		str	r1, [r7]
1122:Drivers/STM32F3xx_HAL_Driver/Src/stm32f3xx_hal_tim.c ****   /* Check the parameters */
1123:Drivers/STM32F3xx_HAL_Driver/Src/stm32f3xx_hal_tim.c ****   assert_param(IS_TIM_CCX_INSTANCE(htim->Instance, Channel));
1124:Drivers/STM32F3xx_HAL_Driver/Src/stm32f3xx_hal_tim.c ****     
1125:Drivers/STM32F3xx_HAL_Driver/Src/stm32f3xx_hal_tim.c ****   /* Disable the Capture compare channel */
1126:Drivers/STM32F3xx_HAL_Driver/Src/stm32f3xx_hal_tim.c ****   TIM_CCxChannelCmd(htim->Instance, Channel, TIM_CCx_DISABLE);
 2534              		.loc 1 1126 0
 2535 000a 7B68     		ldr	r3, [r7, #4]
 2536 000c 1B68     		ldr	r3, [r3]
 2537 000e 0022     		movs	r2, #0
 2538 0010 3968     		ldr	r1, [r7]
 2539 0012 1846     		mov	r0, r3
 2540 0014 FFF7FEFF 		bl	TIM_CCxChannelCmd
1127:Drivers/STM32F3xx_HAL_Driver/Src/stm32f3xx_hal_tim.c ****   
1128:Drivers/STM32F3xx_HAL_Driver/Src/stm32f3xx_hal_tim.c ****   if(IS_TIM_BREAK_INSTANCE(htim->Instance) != RESET)  
 2541              		.loc 1 1128 0
 2542 0018 7B68     		ldr	r3, [r7, #4]
 2543 001a 1B68     		ldr	r3, [r3]
 2544 001c 274A     		ldr	r2, .L149
 2545 001e 9342     		cmp	r3, r2
 2546 0020 0ED0     		beq	.L143
 2547              		.loc 1 1128 0 is_stmt 0 discriminator 2
 2548 0022 7B68     		ldr	r3, [r7, #4]
 2549 0024 1B68     		ldr	r3, [r3]
 2550 0026 264A     		ldr	r2, .L149+4
 2551 0028 9342     		cmp	r3, r2
 2552 002a 09D0     		beq	.L143
 2553              		.loc 1 1128 0 discriminator 4
 2554 002c 7B68     		ldr	r3, [r7, #4]
 2555 002e 1B68     		ldr	r3, [r3]
 2556 0030 244A     		ldr	r2, .L149+8
 2557 0032 9342     		cmp	r3, r2
 2558 0034 04D0     		beq	.L143
 2559              		.loc 1 1128 0 discriminator 6
 2560 0036 7B68     		ldr	r3, [r7, #4]
 2561 0038 1B68     		ldr	r3, [r3]
 2562 003a 234A     		ldr	r2, .L149+12
 2563 003c 9342     		cmp	r3, r2
 2564 003e 01D1     		bne	.L144
 2565              	.L143:
 2566              		.loc 1 1128 0 discriminator 7
 2567 0040 0123     		movs	r3, #1
 2568 0042 00E0     		b	.L145
 2569              	.L144:
 2570              		.loc 1 1128 0 discriminator 8
 2571 0044 0023     		movs	r3, #0
 2572              	.L145:
 2573              		.loc 1 1128 0 discriminator 10
ARM GAS  /tmp/cc7U8joB.s 			page 65


 2574 0046 002B     		cmp	r3, #0
 2575 0048 17D0     		beq	.L146
1129:Drivers/STM32F3xx_HAL_Driver/Src/stm32f3xx_hal_tim.c ****   {
1130:Drivers/STM32F3xx_HAL_Driver/Src/stm32f3xx_hal_tim.c ****     /* Disable the Main Ouput */
1131:Drivers/STM32F3xx_HAL_Driver/Src/stm32f3xx_hal_tim.c ****     __HAL_TIM_MOE_DISABLE(htim);
 2576              		.loc 1 1131 0 is_stmt 1
 2577 004a 7B68     		ldr	r3, [r7, #4]
 2578 004c 1B68     		ldr	r3, [r3]
 2579 004e 1A6A     		ldr	r2, [r3, #32]
 2580 0050 41F21113 		movw	r3, #4369
 2581 0054 1340     		ands	r3, r3, r2
 2582 0056 002B     		cmp	r3, #0
 2583 0058 0FD1     		bne	.L146
 2584              		.loc 1 1131 0 is_stmt 0 discriminator 1
 2585 005a 7B68     		ldr	r3, [r7, #4]
 2586 005c 1B68     		ldr	r3, [r3]
 2587 005e 1A6A     		ldr	r2, [r3, #32]
 2588 0060 40F24443 		movw	r3, #1092
 2589 0064 1340     		ands	r3, r3, r2
 2590 0066 002B     		cmp	r3, #0
 2591 0068 07D1     		bne	.L146
 2592              		.loc 1 1131 0 discriminator 2
 2593 006a 7B68     		ldr	r3, [r7, #4]
 2594 006c 1B68     		ldr	r3, [r3]
 2595 006e 5A6C     		ldr	r2, [r3, #68]
 2596 0070 7B68     		ldr	r3, [r7, #4]
 2597 0072 1B68     		ldr	r3, [r3]
 2598 0074 22F40042 		bic	r2, r2, #32768
 2599 0078 5A64     		str	r2, [r3, #68]
 2600              	.L146:
1132:Drivers/STM32F3xx_HAL_Driver/Src/stm32f3xx_hal_tim.c ****   }
1133:Drivers/STM32F3xx_HAL_Driver/Src/stm32f3xx_hal_tim.c ****   
1134:Drivers/STM32F3xx_HAL_Driver/Src/stm32f3xx_hal_tim.c ****   /* Disable the Peripheral */
1135:Drivers/STM32F3xx_HAL_Driver/Src/stm32f3xx_hal_tim.c ****   __HAL_TIM_DISABLE(htim);
 2601              		.loc 1 1135 0 is_stmt 1
 2602 007a 7B68     		ldr	r3, [r7, #4]
 2603 007c 1B68     		ldr	r3, [r3]
 2604 007e 1A6A     		ldr	r2, [r3, #32]
 2605 0080 41F21113 		movw	r3, #4369
 2606 0084 1340     		ands	r3, r3, r2
 2607 0086 002B     		cmp	r3, #0
 2608 0088 0FD1     		bne	.L147
 2609              		.loc 1 1135 0 is_stmt 0 discriminator 1
 2610 008a 7B68     		ldr	r3, [r7, #4]
 2611 008c 1B68     		ldr	r3, [r3]
 2612 008e 1A6A     		ldr	r2, [r3, #32]
 2613 0090 40F24443 		movw	r3, #1092
 2614 0094 1340     		ands	r3, r3, r2
 2615 0096 002B     		cmp	r3, #0
 2616 0098 07D1     		bne	.L147
 2617              		.loc 1 1135 0 discriminator 2
 2618 009a 7B68     		ldr	r3, [r7, #4]
 2619 009c 1B68     		ldr	r3, [r3]
 2620 009e 1A68     		ldr	r2, [r3]
 2621 00a0 7B68     		ldr	r3, [r7, #4]
 2622 00a2 1B68     		ldr	r3, [r3]
 2623 00a4 22F00102 		bic	r2, r2, #1
ARM GAS  /tmp/cc7U8joB.s 			page 66


 2624 00a8 1A60     		str	r2, [r3]
 2625              	.L147:
1136:Drivers/STM32F3xx_HAL_Driver/Src/stm32f3xx_hal_tim.c ****   
1137:Drivers/STM32F3xx_HAL_Driver/Src/stm32f3xx_hal_tim.c ****   /* Change the htim state */
1138:Drivers/STM32F3xx_HAL_Driver/Src/stm32f3xx_hal_tim.c ****   htim->State = HAL_TIM_STATE_READY;
 2626              		.loc 1 1138 0 is_stmt 1
 2627 00aa 7B68     		ldr	r3, [r7, #4]
 2628 00ac 0122     		movs	r2, #1
 2629 00ae 83F83D20 		strb	r2, [r3, #61]
1139:Drivers/STM32F3xx_HAL_Driver/Src/stm32f3xx_hal_tim.c ****   
1140:Drivers/STM32F3xx_HAL_Driver/Src/stm32f3xx_hal_tim.c ****   /* Return function status */
1141:Drivers/STM32F3xx_HAL_Driver/Src/stm32f3xx_hal_tim.c ****   return HAL_OK;
 2630              		.loc 1 1141 0
 2631 00b2 0023     		movs	r3, #0
1142:Drivers/STM32F3xx_HAL_Driver/Src/stm32f3xx_hal_tim.c **** } 
 2632              		.loc 1 1142 0
 2633 00b4 1846     		mov	r0, r3
 2634 00b6 0837     		adds	r7, r7, #8
 2635              	.LCFI139:
 2636              		.cfi_def_cfa_offset 8
 2637 00b8 BD46     		mov	sp, r7
 2638              	.LCFI140:
 2639              		.cfi_def_cfa_register 13
 2640              		@ sp needed
 2641 00ba 80BD     		pop	{r7, pc}
 2642              	.L150:
 2643              		.align	2
 2644              	.L149:
 2645 00bc 002C0140 		.word	1073818624
 2646 00c0 00400140 		.word	1073823744
 2647 00c4 00440140 		.word	1073824768
 2648 00c8 00480140 		.word	1073825792
 2649              		.cfi_endproc
 2650              	.LFE720:
 2652              		.section	.text.HAL_TIM_PWM_Start_IT,"ax",%progbits
 2653              		.align	1
 2654              		.global	HAL_TIM_PWM_Start_IT
 2655              		.syntax unified
 2656              		.thumb
 2657              		.thumb_func
 2658              		.fpu fpv4-sp-d16
 2660              	HAL_TIM_PWM_Start_IT:
 2661              	.LFB721:
1143:Drivers/STM32F3xx_HAL_Driver/Src/stm32f3xx_hal_tim.c **** 
1144:Drivers/STM32F3xx_HAL_Driver/Src/stm32f3xx_hal_tim.c **** /**
1145:Drivers/STM32F3xx_HAL_Driver/Src/stm32f3xx_hal_tim.c ****   * @brief  Starts the PWM signal generation in interrupt mode.
1146:Drivers/STM32F3xx_HAL_Driver/Src/stm32f3xx_hal_tim.c ****   * @param  htim TIM handle
1147:Drivers/STM32F3xx_HAL_Driver/Src/stm32f3xx_hal_tim.c ****   * @param  Channel TIM Channels to be enabled
1148:Drivers/STM32F3xx_HAL_Driver/Src/stm32f3xx_hal_tim.c ****   *          This parameter can be one of the following values:
1149:Drivers/STM32F3xx_HAL_Driver/Src/stm32f3xx_hal_tim.c ****   *            @arg TIM_CHANNEL_1: TIM Channel 1 selected
1150:Drivers/STM32F3xx_HAL_Driver/Src/stm32f3xx_hal_tim.c ****   *            @arg TIM_CHANNEL_2: TIM Channel 2 selected
1151:Drivers/STM32F3xx_HAL_Driver/Src/stm32f3xx_hal_tim.c ****   *            @arg TIM_CHANNEL_3: TIM Channel 3 selected
1152:Drivers/STM32F3xx_HAL_Driver/Src/stm32f3xx_hal_tim.c ****   *            @arg TIM_CHANNEL_4: TIM Channel 4 selected
1153:Drivers/STM32F3xx_HAL_Driver/Src/stm32f3xx_hal_tim.c ****   * @retval HAL status
1154:Drivers/STM32F3xx_HAL_Driver/Src/stm32f3xx_hal_tim.c **** */
1155:Drivers/STM32F3xx_HAL_Driver/Src/stm32f3xx_hal_tim.c **** HAL_StatusTypeDef HAL_TIM_PWM_Start_IT(TIM_HandleTypeDef *htim, uint32_t Channel)
1156:Drivers/STM32F3xx_HAL_Driver/Src/stm32f3xx_hal_tim.c **** {
ARM GAS  /tmp/cc7U8joB.s 			page 67


 2662              		.loc 1 1156 0
 2663              		.cfi_startproc
 2664              		@ args = 0, pretend = 0, frame = 8
 2665              		@ frame_needed = 1, uses_anonymous_args = 0
 2666 0000 80B5     		push	{r7, lr}
 2667              	.LCFI141:
 2668              		.cfi_def_cfa_offset 8
 2669              		.cfi_offset 7, -8
 2670              		.cfi_offset 14, -4
 2671 0002 82B0     		sub	sp, sp, #8
 2672              	.LCFI142:
 2673              		.cfi_def_cfa_offset 16
 2674 0004 00AF     		add	r7, sp, #0
 2675              	.LCFI143:
 2676              		.cfi_def_cfa_register 7
 2677 0006 7860     		str	r0, [r7, #4]
 2678 0008 3960     		str	r1, [r7]
1157:Drivers/STM32F3xx_HAL_Driver/Src/stm32f3xx_hal_tim.c ****   /* Check the parameters */
1158:Drivers/STM32F3xx_HAL_Driver/Src/stm32f3xx_hal_tim.c ****   assert_param(IS_TIM_CCX_INSTANCE(htim->Instance, Channel));
1159:Drivers/STM32F3xx_HAL_Driver/Src/stm32f3xx_hal_tim.c ****   
1160:Drivers/STM32F3xx_HAL_Driver/Src/stm32f3xx_hal_tim.c ****   switch (Channel)
 2679              		.loc 1 1160 0
 2680 000a 3B68     		ldr	r3, [r7]
 2681 000c 0C2B     		cmp	r3, #12
 2682 000e 41D8     		bhi	.L164
 2683 0010 01A2     		adr	r2, .L154
 2684 0012 52F823F0 		ldr	pc, [r2, r3, lsl #2]
 2685 0016 00BF     		.p2align 2
 2686              	.L154:
 2687 0018 4D000000 		.word	.L153+1
 2688 001c 95000000 		.word	.L164+1
 2689 0020 95000000 		.word	.L164+1
 2690 0024 95000000 		.word	.L164+1
 2691 0028 5F000000 		.word	.L155+1
 2692 002c 95000000 		.word	.L164+1
 2693 0030 95000000 		.word	.L164+1
 2694 0034 95000000 		.word	.L164+1
 2695 0038 71000000 		.word	.L156+1
 2696 003c 95000000 		.word	.L164+1
 2697 0040 95000000 		.word	.L164+1
 2698 0044 95000000 		.word	.L164+1
 2699 0048 83000000 		.word	.L157+1
 2700              		.p2align 1
 2701              	.L153:
1161:Drivers/STM32F3xx_HAL_Driver/Src/stm32f3xx_hal_tim.c ****   {
1162:Drivers/STM32F3xx_HAL_Driver/Src/stm32f3xx_hal_tim.c ****     case TIM_CHANNEL_1:
1163:Drivers/STM32F3xx_HAL_Driver/Src/stm32f3xx_hal_tim.c ****     {       
1164:Drivers/STM32F3xx_HAL_Driver/Src/stm32f3xx_hal_tim.c ****       /* Enable the TIM Capture/Compare 1 interrupt */
1165:Drivers/STM32F3xx_HAL_Driver/Src/stm32f3xx_hal_tim.c ****       __HAL_TIM_ENABLE_IT(htim, TIM_IT_CC1);
 2702              		.loc 1 1165 0
 2703 004c 7B68     		ldr	r3, [r7, #4]
 2704 004e 1B68     		ldr	r3, [r3]
 2705 0050 DA68     		ldr	r2, [r3, #12]
 2706 0052 7B68     		ldr	r3, [r7, #4]
 2707 0054 1B68     		ldr	r3, [r3]
 2708 0056 42F00202 		orr	r2, r2, #2
 2709 005a DA60     		str	r2, [r3, #12]
ARM GAS  /tmp/cc7U8joB.s 			page 68


1166:Drivers/STM32F3xx_HAL_Driver/Src/stm32f3xx_hal_tim.c ****     }
1167:Drivers/STM32F3xx_HAL_Driver/Src/stm32f3xx_hal_tim.c ****     break;
 2710              		.loc 1 1167 0
 2711 005c 1BE0     		b	.L158
 2712              	.L155:
1168:Drivers/STM32F3xx_HAL_Driver/Src/stm32f3xx_hal_tim.c ****     
1169:Drivers/STM32F3xx_HAL_Driver/Src/stm32f3xx_hal_tim.c ****     case TIM_CHANNEL_2:
1170:Drivers/STM32F3xx_HAL_Driver/Src/stm32f3xx_hal_tim.c ****     {
1171:Drivers/STM32F3xx_HAL_Driver/Src/stm32f3xx_hal_tim.c ****       /* Enable the TIM Capture/Compare 2 interrupt */
1172:Drivers/STM32F3xx_HAL_Driver/Src/stm32f3xx_hal_tim.c ****       __HAL_TIM_ENABLE_IT(htim, TIM_IT_CC2);
 2713              		.loc 1 1172 0
 2714 005e 7B68     		ldr	r3, [r7, #4]
 2715 0060 1B68     		ldr	r3, [r3]
 2716 0062 DA68     		ldr	r2, [r3, #12]
 2717 0064 7B68     		ldr	r3, [r7, #4]
 2718 0066 1B68     		ldr	r3, [r3]
 2719 0068 42F00402 		orr	r2, r2, #4
 2720 006c DA60     		str	r2, [r3, #12]
1173:Drivers/STM32F3xx_HAL_Driver/Src/stm32f3xx_hal_tim.c ****     }
1174:Drivers/STM32F3xx_HAL_Driver/Src/stm32f3xx_hal_tim.c ****     break;
 2721              		.loc 1 1174 0
 2722 006e 12E0     		b	.L158
 2723              	.L156:
1175:Drivers/STM32F3xx_HAL_Driver/Src/stm32f3xx_hal_tim.c ****     
1176:Drivers/STM32F3xx_HAL_Driver/Src/stm32f3xx_hal_tim.c ****     case TIM_CHANNEL_3:
1177:Drivers/STM32F3xx_HAL_Driver/Src/stm32f3xx_hal_tim.c ****     {
1178:Drivers/STM32F3xx_HAL_Driver/Src/stm32f3xx_hal_tim.c ****       /* Enable the TIM Capture/Compare 3 interrupt */
1179:Drivers/STM32F3xx_HAL_Driver/Src/stm32f3xx_hal_tim.c ****       __HAL_TIM_ENABLE_IT(htim, TIM_IT_CC3);
 2724              		.loc 1 1179 0
 2725 0070 7B68     		ldr	r3, [r7, #4]
 2726 0072 1B68     		ldr	r3, [r3]
 2727 0074 DA68     		ldr	r2, [r3, #12]
 2728 0076 7B68     		ldr	r3, [r7, #4]
 2729 0078 1B68     		ldr	r3, [r3]
 2730 007a 42F00802 		orr	r2, r2, #8
 2731 007e DA60     		str	r2, [r3, #12]
1180:Drivers/STM32F3xx_HAL_Driver/Src/stm32f3xx_hal_tim.c ****     }
1181:Drivers/STM32F3xx_HAL_Driver/Src/stm32f3xx_hal_tim.c ****     break;
 2732              		.loc 1 1181 0
 2733 0080 09E0     		b	.L158
 2734              	.L157:
1182:Drivers/STM32F3xx_HAL_Driver/Src/stm32f3xx_hal_tim.c ****     
1183:Drivers/STM32F3xx_HAL_Driver/Src/stm32f3xx_hal_tim.c ****     case TIM_CHANNEL_4:
1184:Drivers/STM32F3xx_HAL_Driver/Src/stm32f3xx_hal_tim.c ****     {
1185:Drivers/STM32F3xx_HAL_Driver/Src/stm32f3xx_hal_tim.c ****       /* Enable the TIM Capture/Compare 4 interrupt */
1186:Drivers/STM32F3xx_HAL_Driver/Src/stm32f3xx_hal_tim.c ****       __HAL_TIM_ENABLE_IT(htim, TIM_IT_CC4);
 2735              		.loc 1 1186 0
 2736 0082 7B68     		ldr	r3, [r7, #4]
 2737 0084 1B68     		ldr	r3, [r3]
 2738 0086 DA68     		ldr	r2, [r3, #12]
 2739 0088 7B68     		ldr	r3, [r7, #4]
 2740 008a 1B68     		ldr	r3, [r3]
 2741 008c 42F01002 		orr	r2, r2, #16
 2742 0090 DA60     		str	r2, [r3, #12]
1187:Drivers/STM32F3xx_HAL_Driver/Src/stm32f3xx_hal_tim.c ****     }
1188:Drivers/STM32F3xx_HAL_Driver/Src/stm32f3xx_hal_tim.c ****     break;
 2743              		.loc 1 1188 0
ARM GAS  /tmp/cc7U8joB.s 			page 69


 2744 0092 00E0     		b	.L158
 2745              	.L164:
1189:Drivers/STM32F3xx_HAL_Driver/Src/stm32f3xx_hal_tim.c ****     
1190:Drivers/STM32F3xx_HAL_Driver/Src/stm32f3xx_hal_tim.c ****     default:
1191:Drivers/STM32F3xx_HAL_Driver/Src/stm32f3xx_hal_tim.c ****     break;
 2746              		.loc 1 1191 0
 2747 0094 00BF     		nop
 2748              	.L158:
1192:Drivers/STM32F3xx_HAL_Driver/Src/stm32f3xx_hal_tim.c ****   } 
1193:Drivers/STM32F3xx_HAL_Driver/Src/stm32f3xx_hal_tim.c ****   
1194:Drivers/STM32F3xx_HAL_Driver/Src/stm32f3xx_hal_tim.c ****   /* Enable the Capture compare channel */
1195:Drivers/STM32F3xx_HAL_Driver/Src/stm32f3xx_hal_tim.c ****   TIM_CCxChannelCmd(htim->Instance, Channel, TIM_CCx_ENABLE);
 2749              		.loc 1 1195 0
 2750 0096 7B68     		ldr	r3, [r7, #4]
 2751 0098 1B68     		ldr	r3, [r3]
 2752 009a 0122     		movs	r2, #1
 2753 009c 3968     		ldr	r1, [r7]
 2754 009e 1846     		mov	r0, r3
 2755 00a0 FFF7FEFF 		bl	TIM_CCxChannelCmd
1196:Drivers/STM32F3xx_HAL_Driver/Src/stm32f3xx_hal_tim.c ****   
1197:Drivers/STM32F3xx_HAL_Driver/Src/stm32f3xx_hal_tim.c ****   if(IS_TIM_BREAK_INSTANCE(htim->Instance) != RESET)  
 2756              		.loc 1 1197 0
 2757 00a4 7B68     		ldr	r3, [r7, #4]
 2758 00a6 1B68     		ldr	r3, [r3]
 2759 00a8 154A     		ldr	r2, .L165
 2760 00aa 9342     		cmp	r3, r2
 2761 00ac 0ED0     		beq	.L159
 2762              		.loc 1 1197 0 is_stmt 0 discriminator 2
 2763 00ae 7B68     		ldr	r3, [r7, #4]
 2764 00b0 1B68     		ldr	r3, [r3]
 2765 00b2 144A     		ldr	r2, .L165+4
 2766 00b4 9342     		cmp	r3, r2
 2767 00b6 09D0     		beq	.L159
 2768              		.loc 1 1197 0 discriminator 4
 2769 00b8 7B68     		ldr	r3, [r7, #4]
 2770 00ba 1B68     		ldr	r3, [r3]
 2771 00bc 124A     		ldr	r2, .L165+8
 2772 00be 9342     		cmp	r3, r2
 2773 00c0 04D0     		beq	.L159
 2774              		.loc 1 1197 0 discriminator 6
 2775 00c2 7B68     		ldr	r3, [r7, #4]
 2776 00c4 1B68     		ldr	r3, [r3]
 2777 00c6 114A     		ldr	r2, .L165+12
 2778 00c8 9342     		cmp	r3, r2
 2779 00ca 01D1     		bne	.L160
 2780              	.L159:
 2781              		.loc 1 1197 0 discriminator 7
 2782 00cc 0123     		movs	r3, #1
 2783 00ce 00E0     		b	.L161
 2784              	.L160:
 2785              		.loc 1 1197 0 discriminator 8
 2786 00d0 0023     		movs	r3, #0
 2787              	.L161:
 2788              		.loc 1 1197 0 discriminator 10
 2789 00d2 002B     		cmp	r3, #0
 2790 00d4 07D0     		beq	.L162
1198:Drivers/STM32F3xx_HAL_Driver/Src/stm32f3xx_hal_tim.c ****   {
ARM GAS  /tmp/cc7U8joB.s 			page 70


1199:Drivers/STM32F3xx_HAL_Driver/Src/stm32f3xx_hal_tim.c ****     /* Enable the main output */
1200:Drivers/STM32F3xx_HAL_Driver/Src/stm32f3xx_hal_tim.c ****     __HAL_TIM_MOE_ENABLE(htim);
 2791              		.loc 1 1200 0 is_stmt 1
 2792 00d6 7B68     		ldr	r3, [r7, #4]
 2793 00d8 1B68     		ldr	r3, [r3]
 2794 00da 5A6C     		ldr	r2, [r3, #68]
 2795 00dc 7B68     		ldr	r3, [r7, #4]
 2796 00de 1B68     		ldr	r3, [r3]
 2797 00e0 42F40042 		orr	r2, r2, #32768
 2798 00e4 5A64     		str	r2, [r3, #68]
 2799              	.L162:
1201:Drivers/STM32F3xx_HAL_Driver/Src/stm32f3xx_hal_tim.c ****   }
1202:Drivers/STM32F3xx_HAL_Driver/Src/stm32f3xx_hal_tim.c **** 
1203:Drivers/STM32F3xx_HAL_Driver/Src/stm32f3xx_hal_tim.c ****   /* Enable the Peripheral */
1204:Drivers/STM32F3xx_HAL_Driver/Src/stm32f3xx_hal_tim.c ****   __HAL_TIM_ENABLE(htim);
 2800              		.loc 1 1204 0
 2801 00e6 7B68     		ldr	r3, [r7, #4]
 2802 00e8 1B68     		ldr	r3, [r3]
 2803 00ea 1A68     		ldr	r2, [r3]
 2804 00ec 7B68     		ldr	r3, [r7, #4]
 2805 00ee 1B68     		ldr	r3, [r3]
 2806 00f0 42F00102 		orr	r2, r2, #1
 2807 00f4 1A60     		str	r2, [r3]
1205:Drivers/STM32F3xx_HAL_Driver/Src/stm32f3xx_hal_tim.c ****   
1206:Drivers/STM32F3xx_HAL_Driver/Src/stm32f3xx_hal_tim.c ****   /* Return function status */
1207:Drivers/STM32F3xx_HAL_Driver/Src/stm32f3xx_hal_tim.c ****   return HAL_OK;
 2808              		.loc 1 1207 0
 2809 00f6 0023     		movs	r3, #0
1208:Drivers/STM32F3xx_HAL_Driver/Src/stm32f3xx_hal_tim.c **** } 
 2810              		.loc 1 1208 0
 2811 00f8 1846     		mov	r0, r3
 2812 00fa 0837     		adds	r7, r7, #8
 2813              	.LCFI144:
 2814              		.cfi_def_cfa_offset 8
 2815 00fc BD46     		mov	sp, r7
 2816              	.LCFI145:
 2817              		.cfi_def_cfa_register 13
 2818              		@ sp needed
 2819 00fe 80BD     		pop	{r7, pc}
 2820              	.L166:
 2821              		.align	2
 2822              	.L165:
 2823 0100 002C0140 		.word	1073818624
 2824 0104 00400140 		.word	1073823744
 2825 0108 00440140 		.word	1073824768
 2826 010c 00480140 		.word	1073825792
 2827              		.cfi_endproc
 2828              	.LFE721:
 2830              		.section	.text.HAL_TIM_PWM_Stop_IT,"ax",%progbits
 2831              		.align	1
 2832              		.global	HAL_TIM_PWM_Stop_IT
 2833              		.syntax unified
 2834              		.thumb
 2835              		.thumb_func
 2836              		.fpu fpv4-sp-d16
 2838              	HAL_TIM_PWM_Stop_IT:
 2839              	.LFB722:
ARM GAS  /tmp/cc7U8joB.s 			page 71


1209:Drivers/STM32F3xx_HAL_Driver/Src/stm32f3xx_hal_tim.c **** 
1210:Drivers/STM32F3xx_HAL_Driver/Src/stm32f3xx_hal_tim.c **** /**
1211:Drivers/STM32F3xx_HAL_Driver/Src/stm32f3xx_hal_tim.c ****   * @brief  Stops the PWM signal generation in interrupt mode.
1212:Drivers/STM32F3xx_HAL_Driver/Src/stm32f3xx_hal_tim.c ****   * @param  htim TIM handle
1213:Drivers/STM32F3xx_HAL_Driver/Src/stm32f3xx_hal_tim.c ****   * @param  Channel TIM Channels to be disabled
1214:Drivers/STM32F3xx_HAL_Driver/Src/stm32f3xx_hal_tim.c ****   *          This parameter can be one of the following values:
1215:Drivers/STM32F3xx_HAL_Driver/Src/stm32f3xx_hal_tim.c ****   *            @arg TIM_CHANNEL_1: TIM Channel 1 selected
1216:Drivers/STM32F3xx_HAL_Driver/Src/stm32f3xx_hal_tim.c ****   *            @arg TIM_CHANNEL_2: TIM Channel 2 selected
1217:Drivers/STM32F3xx_HAL_Driver/Src/stm32f3xx_hal_tim.c ****   *            @arg TIM_CHANNEL_3: TIM Channel 3 selected
1218:Drivers/STM32F3xx_HAL_Driver/Src/stm32f3xx_hal_tim.c ****   *            @arg TIM_CHANNEL_4: TIM Channel 4 selected
1219:Drivers/STM32F3xx_HAL_Driver/Src/stm32f3xx_hal_tim.c ****   * @retval HAL status
1220:Drivers/STM32F3xx_HAL_Driver/Src/stm32f3xx_hal_tim.c **** */
1221:Drivers/STM32F3xx_HAL_Driver/Src/stm32f3xx_hal_tim.c **** HAL_StatusTypeDef HAL_TIM_PWM_Stop_IT (TIM_HandleTypeDef *htim, uint32_t Channel)
1222:Drivers/STM32F3xx_HAL_Driver/Src/stm32f3xx_hal_tim.c **** {
 2840              		.loc 1 1222 0
 2841              		.cfi_startproc
 2842              		@ args = 0, pretend = 0, frame = 8
 2843              		@ frame_needed = 1, uses_anonymous_args = 0
 2844 0000 80B5     		push	{r7, lr}
 2845              	.LCFI146:
 2846              		.cfi_def_cfa_offset 8
 2847              		.cfi_offset 7, -8
 2848              		.cfi_offset 14, -4
 2849 0002 82B0     		sub	sp, sp, #8
 2850              	.LCFI147:
 2851              		.cfi_def_cfa_offset 16
 2852 0004 00AF     		add	r7, sp, #0
 2853              	.LCFI148:
 2854              		.cfi_def_cfa_register 7
 2855 0006 7860     		str	r0, [r7, #4]
 2856 0008 3960     		str	r1, [r7]
1223:Drivers/STM32F3xx_HAL_Driver/Src/stm32f3xx_hal_tim.c ****   /* Check the parameters */
1224:Drivers/STM32F3xx_HAL_Driver/Src/stm32f3xx_hal_tim.c ****   assert_param(IS_TIM_CCX_INSTANCE(htim->Instance, Channel));
1225:Drivers/STM32F3xx_HAL_Driver/Src/stm32f3xx_hal_tim.c ****   
1226:Drivers/STM32F3xx_HAL_Driver/Src/stm32f3xx_hal_tim.c ****   switch (Channel)
 2857              		.loc 1 1226 0
 2858 000a 3B68     		ldr	r3, [r7]
 2859 000c 0C2B     		cmp	r3, #12
 2860 000e 41D8     		bhi	.L181
 2861 0010 01A2     		adr	r2, .L170
 2862 0012 52F823F0 		ldr	pc, [r2, r3, lsl #2]
 2863 0016 00BF     		.p2align 2
 2864              	.L170:
 2865 0018 4D000000 		.word	.L169+1
 2866 001c 95000000 		.word	.L181+1
 2867 0020 95000000 		.word	.L181+1
 2868 0024 95000000 		.word	.L181+1
 2869 0028 5F000000 		.word	.L171+1
 2870 002c 95000000 		.word	.L181+1
 2871 0030 95000000 		.word	.L181+1
 2872 0034 95000000 		.word	.L181+1
 2873 0038 71000000 		.word	.L172+1
 2874 003c 95000000 		.word	.L181+1
 2875 0040 95000000 		.word	.L181+1
 2876 0044 95000000 		.word	.L181+1
 2877 0048 83000000 		.word	.L173+1
 2878              		.p2align 1
ARM GAS  /tmp/cc7U8joB.s 			page 72


 2879              	.L169:
1227:Drivers/STM32F3xx_HAL_Driver/Src/stm32f3xx_hal_tim.c ****   {
1228:Drivers/STM32F3xx_HAL_Driver/Src/stm32f3xx_hal_tim.c ****     case TIM_CHANNEL_1:
1229:Drivers/STM32F3xx_HAL_Driver/Src/stm32f3xx_hal_tim.c ****     {       
1230:Drivers/STM32F3xx_HAL_Driver/Src/stm32f3xx_hal_tim.c ****       /* Disable the TIM Capture/Compare 1 interrupt */
1231:Drivers/STM32F3xx_HAL_Driver/Src/stm32f3xx_hal_tim.c ****       __HAL_TIM_DISABLE_IT(htim, TIM_IT_CC1);
 2880              		.loc 1 1231 0
 2881 004c 7B68     		ldr	r3, [r7, #4]
 2882 004e 1B68     		ldr	r3, [r3]
 2883 0050 DA68     		ldr	r2, [r3, #12]
 2884 0052 7B68     		ldr	r3, [r7, #4]
 2885 0054 1B68     		ldr	r3, [r3]
 2886 0056 22F00202 		bic	r2, r2, #2
 2887 005a DA60     		str	r2, [r3, #12]
1232:Drivers/STM32F3xx_HAL_Driver/Src/stm32f3xx_hal_tim.c ****     }
1233:Drivers/STM32F3xx_HAL_Driver/Src/stm32f3xx_hal_tim.c ****     break;
 2888              		.loc 1 1233 0
 2889 005c 1BE0     		b	.L174
 2890              	.L171:
1234:Drivers/STM32F3xx_HAL_Driver/Src/stm32f3xx_hal_tim.c ****     
1235:Drivers/STM32F3xx_HAL_Driver/Src/stm32f3xx_hal_tim.c ****     case TIM_CHANNEL_2:
1236:Drivers/STM32F3xx_HAL_Driver/Src/stm32f3xx_hal_tim.c ****     {
1237:Drivers/STM32F3xx_HAL_Driver/Src/stm32f3xx_hal_tim.c ****       /* Disable the TIM Capture/Compare 2 interrupt */
1238:Drivers/STM32F3xx_HAL_Driver/Src/stm32f3xx_hal_tim.c ****       __HAL_TIM_DISABLE_IT(htim, TIM_IT_CC2);
 2891              		.loc 1 1238 0
 2892 005e 7B68     		ldr	r3, [r7, #4]
 2893 0060 1B68     		ldr	r3, [r3]
 2894 0062 DA68     		ldr	r2, [r3, #12]
 2895 0064 7B68     		ldr	r3, [r7, #4]
 2896 0066 1B68     		ldr	r3, [r3]
 2897 0068 22F00402 		bic	r2, r2, #4
 2898 006c DA60     		str	r2, [r3, #12]
1239:Drivers/STM32F3xx_HAL_Driver/Src/stm32f3xx_hal_tim.c ****     }
1240:Drivers/STM32F3xx_HAL_Driver/Src/stm32f3xx_hal_tim.c ****     break;
 2899              		.loc 1 1240 0
 2900 006e 12E0     		b	.L174
 2901              	.L172:
1241:Drivers/STM32F3xx_HAL_Driver/Src/stm32f3xx_hal_tim.c ****     
1242:Drivers/STM32F3xx_HAL_Driver/Src/stm32f3xx_hal_tim.c ****     case TIM_CHANNEL_3:
1243:Drivers/STM32F3xx_HAL_Driver/Src/stm32f3xx_hal_tim.c ****     {
1244:Drivers/STM32F3xx_HAL_Driver/Src/stm32f3xx_hal_tim.c ****       /* Disable the TIM Capture/Compare 3 interrupt */
1245:Drivers/STM32F3xx_HAL_Driver/Src/stm32f3xx_hal_tim.c ****       __HAL_TIM_DISABLE_IT(htim, TIM_IT_CC3);
 2902              		.loc 1 1245 0
 2903 0070 7B68     		ldr	r3, [r7, #4]
 2904 0072 1B68     		ldr	r3, [r3]
 2905 0074 DA68     		ldr	r2, [r3, #12]
 2906 0076 7B68     		ldr	r3, [r7, #4]
 2907 0078 1B68     		ldr	r3, [r3]
 2908 007a 22F00802 		bic	r2, r2, #8
 2909 007e DA60     		str	r2, [r3, #12]
1246:Drivers/STM32F3xx_HAL_Driver/Src/stm32f3xx_hal_tim.c ****     }
1247:Drivers/STM32F3xx_HAL_Driver/Src/stm32f3xx_hal_tim.c ****     break;
 2910              		.loc 1 1247 0
 2911 0080 09E0     		b	.L174
 2912              	.L173:
1248:Drivers/STM32F3xx_HAL_Driver/Src/stm32f3xx_hal_tim.c ****     
1249:Drivers/STM32F3xx_HAL_Driver/Src/stm32f3xx_hal_tim.c ****     case TIM_CHANNEL_4:
ARM GAS  /tmp/cc7U8joB.s 			page 73


1250:Drivers/STM32F3xx_HAL_Driver/Src/stm32f3xx_hal_tim.c ****     {
1251:Drivers/STM32F3xx_HAL_Driver/Src/stm32f3xx_hal_tim.c ****       /* Disable the TIM Capture/Compare 4 interrupt */
1252:Drivers/STM32F3xx_HAL_Driver/Src/stm32f3xx_hal_tim.c ****       __HAL_TIM_DISABLE_IT(htim, TIM_IT_CC4);
 2913              		.loc 1 1252 0
 2914 0082 7B68     		ldr	r3, [r7, #4]
 2915 0084 1B68     		ldr	r3, [r3]
 2916 0086 DA68     		ldr	r2, [r3, #12]
 2917 0088 7B68     		ldr	r3, [r7, #4]
 2918 008a 1B68     		ldr	r3, [r3]
 2919 008c 22F01002 		bic	r2, r2, #16
 2920 0090 DA60     		str	r2, [r3, #12]
1253:Drivers/STM32F3xx_HAL_Driver/Src/stm32f3xx_hal_tim.c ****     }
1254:Drivers/STM32F3xx_HAL_Driver/Src/stm32f3xx_hal_tim.c ****     break;
 2921              		.loc 1 1254 0
 2922 0092 00E0     		b	.L174
 2923              	.L181:
1255:Drivers/STM32F3xx_HAL_Driver/Src/stm32f3xx_hal_tim.c ****     
1256:Drivers/STM32F3xx_HAL_Driver/Src/stm32f3xx_hal_tim.c ****     default:
1257:Drivers/STM32F3xx_HAL_Driver/Src/stm32f3xx_hal_tim.c ****     break; 
 2924              		.loc 1 1257 0
 2925 0094 00BF     		nop
 2926              	.L174:
1258:Drivers/STM32F3xx_HAL_Driver/Src/stm32f3xx_hal_tim.c ****   }
1259:Drivers/STM32F3xx_HAL_Driver/Src/stm32f3xx_hal_tim.c ****   
1260:Drivers/STM32F3xx_HAL_Driver/Src/stm32f3xx_hal_tim.c ****   /* Disable the Capture compare channel */
1261:Drivers/STM32F3xx_HAL_Driver/Src/stm32f3xx_hal_tim.c ****   TIM_CCxChannelCmd(htim->Instance, Channel, TIM_CCx_DISABLE);
 2927              		.loc 1 1261 0
 2928 0096 7B68     		ldr	r3, [r7, #4]
 2929 0098 1B68     		ldr	r3, [r3]
 2930 009a 0022     		movs	r2, #0
 2931 009c 3968     		ldr	r1, [r7]
 2932 009e 1846     		mov	r0, r3
 2933 00a0 FFF7FEFF 		bl	TIM_CCxChannelCmd
1262:Drivers/STM32F3xx_HAL_Driver/Src/stm32f3xx_hal_tim.c ****   
1263:Drivers/STM32F3xx_HAL_Driver/Src/stm32f3xx_hal_tim.c ****   if(IS_TIM_BREAK_INSTANCE(htim->Instance) != RESET)  
 2934              		.loc 1 1263 0
 2935 00a4 7B68     		ldr	r3, [r7, #4]
 2936 00a6 1B68     		ldr	r3, [r3]
 2937 00a8 254A     		ldr	r2, .L182
 2938 00aa 9342     		cmp	r3, r2
 2939 00ac 0ED0     		beq	.L175
 2940              		.loc 1 1263 0 is_stmt 0 discriminator 2
 2941 00ae 7B68     		ldr	r3, [r7, #4]
 2942 00b0 1B68     		ldr	r3, [r3]
 2943 00b2 244A     		ldr	r2, .L182+4
 2944 00b4 9342     		cmp	r3, r2
 2945 00b6 09D0     		beq	.L175
 2946              		.loc 1 1263 0 discriminator 4
 2947 00b8 7B68     		ldr	r3, [r7, #4]
 2948 00ba 1B68     		ldr	r3, [r3]
 2949 00bc 224A     		ldr	r2, .L182+8
 2950 00be 9342     		cmp	r3, r2
 2951 00c0 04D0     		beq	.L175
 2952              		.loc 1 1263 0 discriminator 6
 2953 00c2 7B68     		ldr	r3, [r7, #4]
 2954 00c4 1B68     		ldr	r3, [r3]
 2955 00c6 214A     		ldr	r2, .L182+12
ARM GAS  /tmp/cc7U8joB.s 			page 74


 2956 00c8 9342     		cmp	r3, r2
 2957 00ca 01D1     		bne	.L176
 2958              	.L175:
 2959              		.loc 1 1263 0 discriminator 7
 2960 00cc 0123     		movs	r3, #1
 2961 00ce 00E0     		b	.L177
 2962              	.L176:
 2963              		.loc 1 1263 0 discriminator 8
 2964 00d0 0023     		movs	r3, #0
 2965              	.L177:
 2966              		.loc 1 1263 0 discriminator 10
 2967 00d2 002B     		cmp	r3, #0
 2968 00d4 17D0     		beq	.L178
1264:Drivers/STM32F3xx_HAL_Driver/Src/stm32f3xx_hal_tim.c ****   {
1265:Drivers/STM32F3xx_HAL_Driver/Src/stm32f3xx_hal_tim.c ****     /* Disable the Main Ouput */
1266:Drivers/STM32F3xx_HAL_Driver/Src/stm32f3xx_hal_tim.c ****     __HAL_TIM_MOE_DISABLE(htim);
 2969              		.loc 1 1266 0 is_stmt 1
 2970 00d6 7B68     		ldr	r3, [r7, #4]
 2971 00d8 1B68     		ldr	r3, [r3]
 2972 00da 1A6A     		ldr	r2, [r3, #32]
 2973 00dc 41F21113 		movw	r3, #4369
 2974 00e0 1340     		ands	r3, r3, r2
 2975 00e2 002B     		cmp	r3, #0
 2976 00e4 0FD1     		bne	.L178
 2977              		.loc 1 1266 0 is_stmt 0 discriminator 1
 2978 00e6 7B68     		ldr	r3, [r7, #4]
 2979 00e8 1B68     		ldr	r3, [r3]
 2980 00ea 1A6A     		ldr	r2, [r3, #32]
 2981 00ec 40F24443 		movw	r3, #1092
 2982 00f0 1340     		ands	r3, r3, r2
 2983 00f2 002B     		cmp	r3, #0
 2984 00f4 07D1     		bne	.L178
 2985              		.loc 1 1266 0 discriminator 2
 2986 00f6 7B68     		ldr	r3, [r7, #4]
 2987 00f8 1B68     		ldr	r3, [r3]
 2988 00fa 5A6C     		ldr	r2, [r3, #68]
 2989 00fc 7B68     		ldr	r3, [r7, #4]
 2990 00fe 1B68     		ldr	r3, [r3]
 2991 0100 22F40042 		bic	r2, r2, #32768
 2992 0104 5A64     		str	r2, [r3, #68]
 2993              	.L178:
1267:Drivers/STM32F3xx_HAL_Driver/Src/stm32f3xx_hal_tim.c ****   }
1268:Drivers/STM32F3xx_HAL_Driver/Src/stm32f3xx_hal_tim.c ****   
1269:Drivers/STM32F3xx_HAL_Driver/Src/stm32f3xx_hal_tim.c ****   /* Disable the Peripheral */
1270:Drivers/STM32F3xx_HAL_Driver/Src/stm32f3xx_hal_tim.c ****   __HAL_TIM_DISABLE(htim);
 2994              		.loc 1 1270 0 is_stmt 1
 2995 0106 7B68     		ldr	r3, [r7, #4]
 2996 0108 1B68     		ldr	r3, [r3]
 2997 010a 1A6A     		ldr	r2, [r3, #32]
 2998 010c 41F21113 		movw	r3, #4369
 2999 0110 1340     		ands	r3, r3, r2
 3000 0112 002B     		cmp	r3, #0
 3001 0114 0FD1     		bne	.L179
 3002              		.loc 1 1270 0 is_stmt 0 discriminator 1
 3003 0116 7B68     		ldr	r3, [r7, #4]
 3004 0118 1B68     		ldr	r3, [r3]
 3005 011a 1A6A     		ldr	r2, [r3, #32]
ARM GAS  /tmp/cc7U8joB.s 			page 75


 3006 011c 40F24443 		movw	r3, #1092
 3007 0120 1340     		ands	r3, r3, r2
 3008 0122 002B     		cmp	r3, #0
 3009 0124 07D1     		bne	.L179
 3010              		.loc 1 1270 0 discriminator 2
 3011 0126 7B68     		ldr	r3, [r7, #4]
 3012 0128 1B68     		ldr	r3, [r3]
 3013 012a 1A68     		ldr	r2, [r3]
 3014 012c 7B68     		ldr	r3, [r7, #4]
 3015 012e 1B68     		ldr	r3, [r3]
 3016 0130 22F00102 		bic	r2, r2, #1
 3017 0134 1A60     		str	r2, [r3]
 3018              	.L179:
1271:Drivers/STM32F3xx_HAL_Driver/Src/stm32f3xx_hal_tim.c ****   
1272:Drivers/STM32F3xx_HAL_Driver/Src/stm32f3xx_hal_tim.c ****   /* Return function status */
1273:Drivers/STM32F3xx_HAL_Driver/Src/stm32f3xx_hal_tim.c ****   return HAL_OK;
 3019              		.loc 1 1273 0 is_stmt 1
 3020 0136 0023     		movs	r3, #0
1274:Drivers/STM32F3xx_HAL_Driver/Src/stm32f3xx_hal_tim.c **** } 
 3021              		.loc 1 1274 0
 3022 0138 1846     		mov	r0, r3
 3023 013a 0837     		adds	r7, r7, #8
 3024              	.LCFI149:
 3025              		.cfi_def_cfa_offset 8
 3026 013c BD46     		mov	sp, r7
 3027              	.LCFI150:
 3028              		.cfi_def_cfa_register 13
 3029              		@ sp needed
 3030 013e 80BD     		pop	{r7, pc}
 3031              	.L183:
 3032              		.align	2
 3033              	.L182:
 3034 0140 002C0140 		.word	1073818624
 3035 0144 00400140 		.word	1073823744
 3036 0148 00440140 		.word	1073824768
 3037 014c 00480140 		.word	1073825792
 3038              		.cfi_endproc
 3039              	.LFE722:
 3041              		.section	.text.HAL_TIM_PWM_Start_DMA,"ax",%progbits
 3042              		.align	1
 3043              		.global	HAL_TIM_PWM_Start_DMA
 3044              		.syntax unified
 3045              		.thumb
 3046              		.thumb_func
 3047              		.fpu fpv4-sp-d16
 3049              	HAL_TIM_PWM_Start_DMA:
 3050              	.LFB723:
1275:Drivers/STM32F3xx_HAL_Driver/Src/stm32f3xx_hal_tim.c **** 
1276:Drivers/STM32F3xx_HAL_Driver/Src/stm32f3xx_hal_tim.c **** /**
1277:Drivers/STM32F3xx_HAL_Driver/Src/stm32f3xx_hal_tim.c ****   * @brief  Starts the TIM PWM signal generation in DMA mode.
1278:Drivers/STM32F3xx_HAL_Driver/Src/stm32f3xx_hal_tim.c ****   * @param  htim TIM handle
1279:Drivers/STM32F3xx_HAL_Driver/Src/stm32f3xx_hal_tim.c ****   * @param  Channel TIM Channels to be enabled
1280:Drivers/STM32F3xx_HAL_Driver/Src/stm32f3xx_hal_tim.c ****   *          This parameter can be one of the following values:
1281:Drivers/STM32F3xx_HAL_Driver/Src/stm32f3xx_hal_tim.c ****   *            @arg TIM_CHANNEL_1: TIM Channel 1 selected
1282:Drivers/STM32F3xx_HAL_Driver/Src/stm32f3xx_hal_tim.c ****   *            @arg TIM_CHANNEL_2: TIM Channel 2 selected
1283:Drivers/STM32F3xx_HAL_Driver/Src/stm32f3xx_hal_tim.c ****   *            @arg TIM_CHANNEL_3: TIM Channel 3 selected
1284:Drivers/STM32F3xx_HAL_Driver/Src/stm32f3xx_hal_tim.c ****   *            @arg TIM_CHANNEL_4: TIM Channel 4 selected
ARM GAS  /tmp/cc7U8joB.s 			page 76


1285:Drivers/STM32F3xx_HAL_Driver/Src/stm32f3xx_hal_tim.c ****   * @param  pData The source Buffer address.
1286:Drivers/STM32F3xx_HAL_Driver/Src/stm32f3xx_hal_tim.c ****   * @param  Length The length of data to be transferred from memory to TIM peripheral
1287:Drivers/STM32F3xx_HAL_Driver/Src/stm32f3xx_hal_tim.c ****   * @retval HAL status
1288:Drivers/STM32F3xx_HAL_Driver/Src/stm32f3xx_hal_tim.c **** */
1289:Drivers/STM32F3xx_HAL_Driver/Src/stm32f3xx_hal_tim.c **** HAL_StatusTypeDef HAL_TIM_PWM_Start_DMA(TIM_HandleTypeDef *htim, uint32_t Channel, uint32_t *pData,
1290:Drivers/STM32F3xx_HAL_Driver/Src/stm32f3xx_hal_tim.c **** {
 3051              		.loc 1 1290 0
 3052              		.cfi_startproc
 3053              		@ args = 0, pretend = 0, frame = 16
 3054              		@ frame_needed = 1, uses_anonymous_args = 0
 3055 0000 80B5     		push	{r7, lr}
 3056              	.LCFI151:
 3057              		.cfi_def_cfa_offset 8
 3058              		.cfi_offset 7, -8
 3059              		.cfi_offset 14, -4
 3060 0002 84B0     		sub	sp, sp, #16
 3061              	.LCFI152:
 3062              		.cfi_def_cfa_offset 24
 3063 0004 00AF     		add	r7, sp, #0
 3064              	.LCFI153:
 3065              		.cfi_def_cfa_register 7
 3066 0006 F860     		str	r0, [r7, #12]
 3067 0008 B960     		str	r1, [r7, #8]
 3068 000a 7A60     		str	r2, [r7, #4]
 3069 000c 7B80     		strh	r3, [r7, #2]	@ movhi
1291:Drivers/STM32F3xx_HAL_Driver/Src/stm32f3xx_hal_tim.c ****   /* Check the parameters */
1292:Drivers/STM32F3xx_HAL_Driver/Src/stm32f3xx_hal_tim.c ****   assert_param(IS_TIM_CCX_INSTANCE(htim->Instance, Channel));
1293:Drivers/STM32F3xx_HAL_Driver/Src/stm32f3xx_hal_tim.c ****   
1294:Drivers/STM32F3xx_HAL_Driver/Src/stm32f3xx_hal_tim.c ****   if((htim->State == HAL_TIM_STATE_BUSY))
 3070              		.loc 1 1294 0
 3071 000e FB68     		ldr	r3, [r7, #12]
 3072 0010 93F83D30 		ldrb	r3, [r3, #61]
 3073 0014 DBB2     		uxtb	r3, r3
 3074 0016 022B     		cmp	r3, #2
 3075 0018 01D1     		bne	.L185
1295:Drivers/STM32F3xx_HAL_Driver/Src/stm32f3xx_hal_tim.c ****   {
1296:Drivers/STM32F3xx_HAL_Driver/Src/stm32f3xx_hal_tim.c ****      return HAL_BUSY;
 3076              		.loc 1 1296 0
 3077 001a 0223     		movs	r3, #2
 3078 001c D0E0     		b	.L186
 3079              	.L185:
1297:Drivers/STM32F3xx_HAL_Driver/Src/stm32f3xx_hal_tim.c ****   }
1298:Drivers/STM32F3xx_HAL_Driver/Src/stm32f3xx_hal_tim.c ****   else if((htim->State == HAL_TIM_STATE_READY))
 3080              		.loc 1 1298 0
 3081 001e FB68     		ldr	r3, [r7, #12]
 3082 0020 93F83D30 		ldrb	r3, [r3, #61]
 3083 0024 DBB2     		uxtb	r3, r3
 3084 0026 012B     		cmp	r3, #1
 3085 0028 0BD1     		bne	.L187
1299:Drivers/STM32F3xx_HAL_Driver/Src/stm32f3xx_hal_tim.c ****   {
1300:Drivers/STM32F3xx_HAL_Driver/Src/stm32f3xx_hal_tim.c ****     if(((uint32_t)pData == 0U ) && (Length > 0U)) 
 3086              		.loc 1 1300 0
 3087 002a 7B68     		ldr	r3, [r7, #4]
 3088 002c 002B     		cmp	r3, #0
 3089 002e 04D1     		bne	.L188
 3090              		.loc 1 1300 0 is_stmt 0 discriminator 1
 3091 0030 7B88     		ldrh	r3, [r7, #2]
ARM GAS  /tmp/cc7U8joB.s 			page 77


 3092 0032 002B     		cmp	r3, #0
 3093 0034 01D0     		beq	.L188
1301:Drivers/STM32F3xx_HAL_Driver/Src/stm32f3xx_hal_tim.c ****     {
1302:Drivers/STM32F3xx_HAL_Driver/Src/stm32f3xx_hal_tim.c ****       return HAL_ERROR;                                    
 3094              		.loc 1 1302 0 is_stmt 1
 3095 0036 0123     		movs	r3, #1
 3096 0038 C2E0     		b	.L186
 3097              	.L188:
1303:Drivers/STM32F3xx_HAL_Driver/Src/stm32f3xx_hal_tim.c ****     }
1304:Drivers/STM32F3xx_HAL_Driver/Src/stm32f3xx_hal_tim.c ****     else
1305:Drivers/STM32F3xx_HAL_Driver/Src/stm32f3xx_hal_tim.c ****     {
1306:Drivers/STM32F3xx_HAL_Driver/Src/stm32f3xx_hal_tim.c ****       htim->State = HAL_TIM_STATE_BUSY;
 3098              		.loc 1 1306 0
 3099 003a FB68     		ldr	r3, [r7, #12]
 3100 003c 0222     		movs	r2, #2
 3101 003e 83F83D20 		strb	r2, [r3, #61]
 3102              	.L187:
1307:Drivers/STM32F3xx_HAL_Driver/Src/stm32f3xx_hal_tim.c ****     }
1308:Drivers/STM32F3xx_HAL_Driver/Src/stm32f3xx_hal_tim.c ****   }    
1309:Drivers/STM32F3xx_HAL_Driver/Src/stm32f3xx_hal_tim.c ****   switch (Channel)
 3103              		.loc 1 1309 0
 3104 0042 BB68     		ldr	r3, [r7, #8]
 3105 0044 0C2B     		cmp	r3, #12
 3106 0046 00F28980 		bhi	.L200
 3107 004a 01A2     		adr	r2, .L191
 3108 004c 52F823F0 		ldr	pc, [r2, r3, lsl #2]
 3109              		.p2align 2
 3110              	.L191:
 3111 0050 85000000 		.word	.L190+1
 3112 0054 5D010000 		.word	.L200+1
 3113 0058 5D010000 		.word	.L200+1
 3114 005c 5D010000 		.word	.L200+1
 3115 0060 BB000000 		.word	.L192+1
 3116 0064 5D010000 		.word	.L200+1
 3117 0068 5D010000 		.word	.L200+1
 3118 006c 5D010000 		.word	.L200+1
 3119 0070 F1000000 		.word	.L193+1
 3120 0074 5D010000 		.word	.L200+1
 3121 0078 5D010000 		.word	.L200+1
 3122 007c 5D010000 		.word	.L200+1
 3123 0080 27010000 		.word	.L194+1
 3124              		.p2align 1
 3125              	.L190:
1310:Drivers/STM32F3xx_HAL_Driver/Src/stm32f3xx_hal_tim.c ****   {
1311:Drivers/STM32F3xx_HAL_Driver/Src/stm32f3xx_hal_tim.c ****     case TIM_CHANNEL_1:
1312:Drivers/STM32F3xx_HAL_Driver/Src/stm32f3xx_hal_tim.c ****     {
1313:Drivers/STM32F3xx_HAL_Driver/Src/stm32f3xx_hal_tim.c ****       /* Set the DMA Period elapsed callback */
1314:Drivers/STM32F3xx_HAL_Driver/Src/stm32f3xx_hal_tim.c ****       htim->hdma[TIM_DMA_ID_CC1]->XferCpltCallback = TIM_DMADelayPulseCplt;
 3126              		.loc 1 1314 0
 3127 0084 FB68     		ldr	r3, [r7, #12]
 3128 0086 5B6A     		ldr	r3, [r3, #36]
 3129 0088 4F4A     		ldr	r2, .L201
 3130 008a 9A62     		str	r2, [r3, #40]
1315:Drivers/STM32F3xx_HAL_Driver/Src/stm32f3xx_hal_tim.c ****      
1316:Drivers/STM32F3xx_HAL_Driver/Src/stm32f3xx_hal_tim.c ****       /* Set the DMA error callback */
1317:Drivers/STM32F3xx_HAL_Driver/Src/stm32f3xx_hal_tim.c ****       htim->hdma[TIM_DMA_ID_CC1]->XferErrorCallback = TIM_DMAError ;
 3131              		.loc 1 1317 0
ARM GAS  /tmp/cc7U8joB.s 			page 78


 3132 008c FB68     		ldr	r3, [r7, #12]
 3133 008e 5B6A     		ldr	r3, [r3, #36]
 3134 0090 4E4A     		ldr	r2, .L201+4
 3135 0092 1A63     		str	r2, [r3, #48]
1318:Drivers/STM32F3xx_HAL_Driver/Src/stm32f3xx_hal_tim.c ****       
1319:Drivers/STM32F3xx_HAL_Driver/Src/stm32f3xx_hal_tim.c ****       /* Enable the DMA channel */
1320:Drivers/STM32F3xx_HAL_Driver/Src/stm32f3xx_hal_tim.c ****       HAL_DMA_Start_IT(htim->hdma[TIM_DMA_ID_CC1], (uint32_t)pData, (uint32_t)&htim->Instance->CCR1
 3136              		.loc 1 1320 0
 3137 0094 FB68     		ldr	r3, [r7, #12]
 3138 0096 586A     		ldr	r0, [r3, #36]
 3139 0098 7968     		ldr	r1, [r7, #4]
 3140 009a FB68     		ldr	r3, [r7, #12]
 3141 009c 1B68     		ldr	r3, [r3]
 3142 009e 3433     		adds	r3, r3, #52
 3143 00a0 1A46     		mov	r2, r3
 3144 00a2 7B88     		ldrh	r3, [r7, #2]
 3145 00a4 FFF7FEFF 		bl	HAL_DMA_Start_IT
1321:Drivers/STM32F3xx_HAL_Driver/Src/stm32f3xx_hal_tim.c ****       
1322:Drivers/STM32F3xx_HAL_Driver/Src/stm32f3xx_hal_tim.c ****       /* Enable the TIM Capture/Compare 1 DMA request */
1323:Drivers/STM32F3xx_HAL_Driver/Src/stm32f3xx_hal_tim.c ****       __HAL_TIM_ENABLE_DMA(htim, TIM_DMA_CC1);
 3146              		.loc 1 1323 0
 3147 00a8 FB68     		ldr	r3, [r7, #12]
 3148 00aa 1B68     		ldr	r3, [r3]
 3149 00ac DA68     		ldr	r2, [r3, #12]
 3150 00ae FB68     		ldr	r3, [r7, #12]
 3151 00b0 1B68     		ldr	r3, [r3]
 3152 00b2 42F40072 		orr	r2, r2, #512
 3153 00b6 DA60     		str	r2, [r3, #12]
1324:Drivers/STM32F3xx_HAL_Driver/Src/stm32f3xx_hal_tim.c ****     }
1325:Drivers/STM32F3xx_HAL_Driver/Src/stm32f3xx_hal_tim.c ****     break;
 3154              		.loc 1 1325 0
 3155 00b8 51E0     		b	.L195
 3156              	.L192:
1326:Drivers/STM32F3xx_HAL_Driver/Src/stm32f3xx_hal_tim.c ****     
1327:Drivers/STM32F3xx_HAL_Driver/Src/stm32f3xx_hal_tim.c ****     case TIM_CHANNEL_2:
1328:Drivers/STM32F3xx_HAL_Driver/Src/stm32f3xx_hal_tim.c ****     {
1329:Drivers/STM32F3xx_HAL_Driver/Src/stm32f3xx_hal_tim.c ****       /* Set the DMA Period elapsed callback */
1330:Drivers/STM32F3xx_HAL_Driver/Src/stm32f3xx_hal_tim.c ****       htim->hdma[TIM_DMA_ID_CC2]->XferCpltCallback = TIM_DMADelayPulseCplt;
 3157              		.loc 1 1330 0
 3158 00ba FB68     		ldr	r3, [r7, #12]
 3159 00bc 9B6A     		ldr	r3, [r3, #40]
 3160 00be 424A     		ldr	r2, .L201
 3161 00c0 9A62     		str	r2, [r3, #40]
1331:Drivers/STM32F3xx_HAL_Driver/Src/stm32f3xx_hal_tim.c ****      
1332:Drivers/STM32F3xx_HAL_Driver/Src/stm32f3xx_hal_tim.c ****       /* Set the DMA error callback */
1333:Drivers/STM32F3xx_HAL_Driver/Src/stm32f3xx_hal_tim.c ****       htim->hdma[TIM_DMA_ID_CC2]->XferErrorCallback = TIM_DMAError ;
 3162              		.loc 1 1333 0
 3163 00c2 FB68     		ldr	r3, [r7, #12]
 3164 00c4 9B6A     		ldr	r3, [r3, #40]
 3165 00c6 414A     		ldr	r2, .L201+4
 3166 00c8 1A63     		str	r2, [r3, #48]
1334:Drivers/STM32F3xx_HAL_Driver/Src/stm32f3xx_hal_tim.c ****       
1335:Drivers/STM32F3xx_HAL_Driver/Src/stm32f3xx_hal_tim.c ****       /* Enable the DMA channel */
1336:Drivers/STM32F3xx_HAL_Driver/Src/stm32f3xx_hal_tim.c ****       HAL_DMA_Start_IT(htim->hdma[TIM_DMA_ID_CC2], (uint32_t)pData, (uint32_t)&htim->Instance->CCR2
 3167              		.loc 1 1336 0
 3168 00ca FB68     		ldr	r3, [r7, #12]
 3169 00cc 986A     		ldr	r0, [r3, #40]
ARM GAS  /tmp/cc7U8joB.s 			page 79


 3170 00ce 7968     		ldr	r1, [r7, #4]
 3171 00d0 FB68     		ldr	r3, [r7, #12]
 3172 00d2 1B68     		ldr	r3, [r3]
 3173 00d4 3833     		adds	r3, r3, #56
 3174 00d6 1A46     		mov	r2, r3
 3175 00d8 7B88     		ldrh	r3, [r7, #2]
 3176 00da FFF7FEFF 		bl	HAL_DMA_Start_IT
1337:Drivers/STM32F3xx_HAL_Driver/Src/stm32f3xx_hal_tim.c ****       
1338:Drivers/STM32F3xx_HAL_Driver/Src/stm32f3xx_hal_tim.c ****       /* Enable the TIM Capture/Compare 2 DMA request */
1339:Drivers/STM32F3xx_HAL_Driver/Src/stm32f3xx_hal_tim.c ****       __HAL_TIM_ENABLE_DMA(htim, TIM_DMA_CC2);
 3177              		.loc 1 1339 0
 3178 00de FB68     		ldr	r3, [r7, #12]
 3179 00e0 1B68     		ldr	r3, [r3]
 3180 00e2 DA68     		ldr	r2, [r3, #12]
 3181 00e4 FB68     		ldr	r3, [r7, #12]
 3182 00e6 1B68     		ldr	r3, [r3]
 3183 00e8 42F48062 		orr	r2, r2, #1024
 3184 00ec DA60     		str	r2, [r3, #12]
1340:Drivers/STM32F3xx_HAL_Driver/Src/stm32f3xx_hal_tim.c ****     }
1341:Drivers/STM32F3xx_HAL_Driver/Src/stm32f3xx_hal_tim.c ****     break;
 3185              		.loc 1 1341 0
 3186 00ee 36E0     		b	.L195
 3187              	.L193:
1342:Drivers/STM32F3xx_HAL_Driver/Src/stm32f3xx_hal_tim.c ****     
1343:Drivers/STM32F3xx_HAL_Driver/Src/stm32f3xx_hal_tim.c ****     case TIM_CHANNEL_3:
1344:Drivers/STM32F3xx_HAL_Driver/Src/stm32f3xx_hal_tim.c ****     {
1345:Drivers/STM32F3xx_HAL_Driver/Src/stm32f3xx_hal_tim.c ****       /* Set the DMA Period elapsed callback */
1346:Drivers/STM32F3xx_HAL_Driver/Src/stm32f3xx_hal_tim.c ****       htim->hdma[TIM_DMA_ID_CC3]->XferCpltCallback = TIM_DMADelayPulseCplt;
 3188              		.loc 1 1346 0
 3189 00f0 FB68     		ldr	r3, [r7, #12]
 3190 00f2 DB6A     		ldr	r3, [r3, #44]
 3191 00f4 344A     		ldr	r2, .L201
 3192 00f6 9A62     		str	r2, [r3, #40]
1347:Drivers/STM32F3xx_HAL_Driver/Src/stm32f3xx_hal_tim.c ****      
1348:Drivers/STM32F3xx_HAL_Driver/Src/stm32f3xx_hal_tim.c ****       /* Set the DMA error callback */
1349:Drivers/STM32F3xx_HAL_Driver/Src/stm32f3xx_hal_tim.c ****       htim->hdma[TIM_DMA_ID_CC3]->XferErrorCallback = TIM_DMAError ;
 3193              		.loc 1 1349 0
 3194 00f8 FB68     		ldr	r3, [r7, #12]
 3195 00fa DB6A     		ldr	r3, [r3, #44]
 3196 00fc 334A     		ldr	r2, .L201+4
 3197 00fe 1A63     		str	r2, [r3, #48]
1350:Drivers/STM32F3xx_HAL_Driver/Src/stm32f3xx_hal_tim.c ****       
1351:Drivers/STM32F3xx_HAL_Driver/Src/stm32f3xx_hal_tim.c ****       /* Enable the DMA channel */
1352:Drivers/STM32F3xx_HAL_Driver/Src/stm32f3xx_hal_tim.c ****       HAL_DMA_Start_IT(htim->hdma[TIM_DMA_ID_CC3], (uint32_t)pData, (uint32_t)&htim->Instance->CCR3
 3198              		.loc 1 1352 0
 3199 0100 FB68     		ldr	r3, [r7, #12]
 3200 0102 D86A     		ldr	r0, [r3, #44]
 3201 0104 7968     		ldr	r1, [r7, #4]
 3202 0106 FB68     		ldr	r3, [r7, #12]
 3203 0108 1B68     		ldr	r3, [r3]
 3204 010a 3C33     		adds	r3, r3, #60
 3205 010c 1A46     		mov	r2, r3
 3206 010e 7B88     		ldrh	r3, [r7, #2]
 3207 0110 FFF7FEFF 		bl	HAL_DMA_Start_IT
1353:Drivers/STM32F3xx_HAL_Driver/Src/stm32f3xx_hal_tim.c ****       
1354:Drivers/STM32F3xx_HAL_Driver/Src/stm32f3xx_hal_tim.c ****       /* Enable the TIM Output Capture/Compare 3 request */
1355:Drivers/STM32F3xx_HAL_Driver/Src/stm32f3xx_hal_tim.c ****       __HAL_TIM_ENABLE_DMA(htim, TIM_DMA_CC3);
ARM GAS  /tmp/cc7U8joB.s 			page 80


 3208              		.loc 1 1355 0
 3209 0114 FB68     		ldr	r3, [r7, #12]
 3210 0116 1B68     		ldr	r3, [r3]
 3211 0118 DA68     		ldr	r2, [r3, #12]
 3212 011a FB68     		ldr	r3, [r7, #12]
 3213 011c 1B68     		ldr	r3, [r3]
 3214 011e 42F40062 		orr	r2, r2, #2048
 3215 0122 DA60     		str	r2, [r3, #12]
1356:Drivers/STM32F3xx_HAL_Driver/Src/stm32f3xx_hal_tim.c ****     }
1357:Drivers/STM32F3xx_HAL_Driver/Src/stm32f3xx_hal_tim.c ****     break;
 3216              		.loc 1 1357 0
 3217 0124 1BE0     		b	.L195
 3218              	.L194:
1358:Drivers/STM32F3xx_HAL_Driver/Src/stm32f3xx_hal_tim.c ****     
1359:Drivers/STM32F3xx_HAL_Driver/Src/stm32f3xx_hal_tim.c ****     case TIM_CHANNEL_4:
1360:Drivers/STM32F3xx_HAL_Driver/Src/stm32f3xx_hal_tim.c ****     {
1361:Drivers/STM32F3xx_HAL_Driver/Src/stm32f3xx_hal_tim.c ****      /* Set the DMA Period elapsed callback */
1362:Drivers/STM32F3xx_HAL_Driver/Src/stm32f3xx_hal_tim.c ****       htim->hdma[TIM_DMA_ID_CC4]->XferCpltCallback = TIM_DMADelayPulseCplt;
 3219              		.loc 1 1362 0
 3220 0126 FB68     		ldr	r3, [r7, #12]
 3221 0128 1B6B     		ldr	r3, [r3, #48]
 3222 012a 274A     		ldr	r2, .L201
 3223 012c 9A62     		str	r2, [r3, #40]
1363:Drivers/STM32F3xx_HAL_Driver/Src/stm32f3xx_hal_tim.c ****      
1364:Drivers/STM32F3xx_HAL_Driver/Src/stm32f3xx_hal_tim.c ****       /* Set the DMA error callback */
1365:Drivers/STM32F3xx_HAL_Driver/Src/stm32f3xx_hal_tim.c ****       htim->hdma[TIM_DMA_ID_CC4]->XferErrorCallback = TIM_DMAError ;
 3224              		.loc 1 1365 0
 3225 012e FB68     		ldr	r3, [r7, #12]
 3226 0130 1B6B     		ldr	r3, [r3, #48]
 3227 0132 264A     		ldr	r2, .L201+4
 3228 0134 1A63     		str	r2, [r3, #48]
1366:Drivers/STM32F3xx_HAL_Driver/Src/stm32f3xx_hal_tim.c ****       
1367:Drivers/STM32F3xx_HAL_Driver/Src/stm32f3xx_hal_tim.c ****       /* Enable the DMA channel */
1368:Drivers/STM32F3xx_HAL_Driver/Src/stm32f3xx_hal_tim.c ****       HAL_DMA_Start_IT(htim->hdma[TIM_DMA_ID_CC4], (uint32_t)pData, (uint32_t)&htim->Instance->CCR4
 3229              		.loc 1 1368 0
 3230 0136 FB68     		ldr	r3, [r7, #12]
 3231 0138 186B     		ldr	r0, [r3, #48]
 3232 013a 7968     		ldr	r1, [r7, #4]
 3233 013c FB68     		ldr	r3, [r7, #12]
 3234 013e 1B68     		ldr	r3, [r3]
 3235 0140 4033     		adds	r3, r3, #64
 3236 0142 1A46     		mov	r2, r3
 3237 0144 7B88     		ldrh	r3, [r7, #2]
 3238 0146 FFF7FEFF 		bl	HAL_DMA_Start_IT
1369:Drivers/STM32F3xx_HAL_Driver/Src/stm32f3xx_hal_tim.c ****       
1370:Drivers/STM32F3xx_HAL_Driver/Src/stm32f3xx_hal_tim.c ****       /* Enable the TIM Capture/Compare 4 DMA request */
1371:Drivers/STM32F3xx_HAL_Driver/Src/stm32f3xx_hal_tim.c ****       __HAL_TIM_ENABLE_DMA(htim, TIM_DMA_CC4);
 3239              		.loc 1 1371 0
 3240 014a FB68     		ldr	r3, [r7, #12]
 3241 014c 1B68     		ldr	r3, [r3]
 3242 014e DA68     		ldr	r2, [r3, #12]
 3243 0150 FB68     		ldr	r3, [r7, #12]
 3244 0152 1B68     		ldr	r3, [r3]
 3245 0154 42F48052 		orr	r2, r2, #4096
 3246 0158 DA60     		str	r2, [r3, #12]
1372:Drivers/STM32F3xx_HAL_Driver/Src/stm32f3xx_hal_tim.c ****     }
1373:Drivers/STM32F3xx_HAL_Driver/Src/stm32f3xx_hal_tim.c ****     break;
ARM GAS  /tmp/cc7U8joB.s 			page 81


 3247              		.loc 1 1373 0
 3248 015a 00E0     		b	.L195
 3249              	.L200:
1374:Drivers/STM32F3xx_HAL_Driver/Src/stm32f3xx_hal_tim.c ****     
1375:Drivers/STM32F3xx_HAL_Driver/Src/stm32f3xx_hal_tim.c ****     default:
1376:Drivers/STM32F3xx_HAL_Driver/Src/stm32f3xx_hal_tim.c ****     break;
 3250              		.loc 1 1376 0
 3251 015c 00BF     		nop
 3252              	.L195:
1377:Drivers/STM32F3xx_HAL_Driver/Src/stm32f3xx_hal_tim.c ****   }
1378:Drivers/STM32F3xx_HAL_Driver/Src/stm32f3xx_hal_tim.c **** 
1379:Drivers/STM32F3xx_HAL_Driver/Src/stm32f3xx_hal_tim.c ****   /* Enable the Capture compare channel */
1380:Drivers/STM32F3xx_HAL_Driver/Src/stm32f3xx_hal_tim.c ****   TIM_CCxChannelCmd(htim->Instance, Channel, TIM_CCx_ENABLE);
 3253              		.loc 1 1380 0
 3254 015e FB68     		ldr	r3, [r7, #12]
 3255 0160 1B68     		ldr	r3, [r3]
