ARM GAS  /tmp/ccinMcHI.s 			page 1


   1              		.syntax unified
   2              		.cpu cortex-m4
   3              		.eabi_attribute 27, 1
   4              		.eabi_attribute 28, 1
   5              		.fpu fpv4-sp-d16
   6              		.eabi_attribute 20, 1
   7              		.eabi_attribute 21, 1
   8              		.eabi_attribute 23, 3
   9              		.eabi_attribute 24, 1
  10              		.eabi_attribute 25, 1
  11              		.eabi_attribute 26, 1
  12              		.eabi_attribute 30, 2
  13              		.eabi_attribute 34, 1
  14              		.eabi_attribute 18, 4
  15              		.thumb
  16              		.file	"stm32f3xx_hal_uart.c"
  17              		.text
  18              	.Ltext0:
  19              		.cfi_sections	.debug_frame
  20              		.section	.text.HAL_UART_MspInit,"ax",%progbits
  21              		.align	2
  22              		.weak	HAL_UART_MspInit
  23              		.thumb
  24              		.thumb_func
  26              	HAL_UART_MspInit:
  27              	.LFB697:
  28              		.file 1 "Drivers/STM32F3xx_HAL_Driver/Src/stm32f3xx_hal_uart.c"
   1:Drivers/STM32F3xx_HAL_Driver/Src/stm32f3xx_hal_uart.c **** /**
   2:Drivers/STM32F3xx_HAL_Driver/Src/stm32f3xx_hal_uart.c ****   ******************************************************************************
   3:Drivers/STM32F3xx_HAL_Driver/Src/stm32f3xx_hal_uart.c ****   * @file    stm32f3xx_hal_uart.c
   4:Drivers/STM32F3xx_HAL_Driver/Src/stm32f3xx_hal_uart.c ****   * @author  MCD Application Team
   5:Drivers/STM32F3xx_HAL_Driver/Src/stm32f3xx_hal_uart.c ****   * @brief   UART HAL module driver.
   6:Drivers/STM32F3xx_HAL_Driver/Src/stm32f3xx_hal_uart.c ****   *          This file provides firmware functions to manage the following 
   7:Drivers/STM32F3xx_HAL_Driver/Src/stm32f3xx_hal_uart.c ****   *          functionalities of the Universal Asynchronous Receiver Transmitter (UART) peripheral:
   8:Drivers/STM32F3xx_HAL_Driver/Src/stm32f3xx_hal_uart.c ****   *           + Initialization and de-initialization functions
   9:Drivers/STM32F3xx_HAL_Driver/Src/stm32f3xx_hal_uart.c ****   *           + IO operation functions
  10:Drivers/STM32F3xx_HAL_Driver/Src/stm32f3xx_hal_uart.c ****   *           + Peripheral Control functions
  11:Drivers/STM32F3xx_HAL_Driver/Src/stm32f3xx_hal_uart.c ****   *           + Peripheral State and Errors functions
  12:Drivers/STM32F3xx_HAL_Driver/Src/stm32f3xx_hal_uart.c ****   *
  13:Drivers/STM32F3xx_HAL_Driver/Src/stm32f3xx_hal_uart.c ****   @verbatim
  14:Drivers/STM32F3xx_HAL_Driver/Src/stm32f3xx_hal_uart.c ****  ===============================================================================
  15:Drivers/STM32F3xx_HAL_Driver/Src/stm32f3xx_hal_uart.c ****                         ##### How to use this driver #####
  16:Drivers/STM32F3xx_HAL_Driver/Src/stm32f3xx_hal_uart.c ****  ===============================================================================
  17:Drivers/STM32F3xx_HAL_Driver/Src/stm32f3xx_hal_uart.c ****   [..]
  18:Drivers/STM32F3xx_HAL_Driver/Src/stm32f3xx_hal_uart.c ****     The UART HAL driver can be used as follows:
  19:Drivers/STM32F3xx_HAL_Driver/Src/stm32f3xx_hal_uart.c **** 
  20:Drivers/STM32F3xx_HAL_Driver/Src/stm32f3xx_hal_uart.c ****     (#) Declare a UART_HandleTypeDef handle structure (eg. UART_HandleTypeDef huart).
  21:Drivers/STM32F3xx_HAL_Driver/Src/stm32f3xx_hal_uart.c ****     (#) Initialize the UART low level resources by implementing the HAL_UART_MspInit() API:
  22:Drivers/STM32F3xx_HAL_Driver/Src/stm32f3xx_hal_uart.c ****         (++) Enable the USARTx interface clock.
  23:Drivers/STM32F3xx_HAL_Driver/Src/stm32f3xx_hal_uart.c ****         (++) UART pins configuration:
  24:Drivers/STM32F3xx_HAL_Driver/Src/stm32f3xx_hal_uart.c ****             (+++) Enable the clock for the UART GPIOs.
  25:Drivers/STM32F3xx_HAL_Driver/Src/stm32f3xx_hal_uart.c ****             (+++) Configure these UART pins as alternate function pull-up.
  26:Drivers/STM32F3xx_HAL_Driver/Src/stm32f3xx_hal_uart.c ****         (++) NVIC configuration if you need to use interrupt process (HAL_UART_Transmit_IT()
  27:Drivers/STM32F3xx_HAL_Driver/Src/stm32f3xx_hal_uart.c ****              and HAL_UART_Receive_IT() APIs):
  28:Drivers/STM32F3xx_HAL_Driver/Src/stm32f3xx_hal_uart.c ****             (+++) Configure the USARTx interrupt priority.
  29:Drivers/STM32F3xx_HAL_Driver/Src/stm32f3xx_hal_uart.c ****             (+++) Enable the NVIC USART IRQ handle.
  30:Drivers/STM32F3xx_HAL_Driver/Src/stm32f3xx_hal_uart.c ****         (++) UART interrupts handling:
ARM GAS  /tmp/ccinMcHI.s 			page 2


  31:Drivers/STM32F3xx_HAL_Driver/Src/stm32f3xx_hal_uart.c ****               -@@-  The specific UART interrupts (Transmission complete interrupt,
  32:Drivers/STM32F3xx_HAL_Driver/Src/stm32f3xx_hal_uart.c ****                 RXNE interrupt and Error Interrupts) are managed using the macros
  33:Drivers/STM32F3xx_HAL_Driver/Src/stm32f3xx_hal_uart.c ****                 __HAL_UART_ENABLE_IT() and __HAL_UART_DISABLE_IT() inside the transmit and receive 
  34:Drivers/STM32F3xx_HAL_Driver/Src/stm32f3xx_hal_uart.c ****         (++) DMA Configuration if you need to use DMA process (HAL_UART_Transmit_DMA()
  35:Drivers/STM32F3xx_HAL_Driver/Src/stm32f3xx_hal_uart.c ****              and HAL_UART_Receive_DMA() APIs):
  36:Drivers/STM32F3xx_HAL_Driver/Src/stm32f3xx_hal_uart.c ****             (+++) Declare a DMA handle structure for the Tx/Rx channel.
  37:Drivers/STM32F3xx_HAL_Driver/Src/stm32f3xx_hal_uart.c ****             (+++) Enable the DMAx interface clock.
  38:Drivers/STM32F3xx_HAL_Driver/Src/stm32f3xx_hal_uart.c ****             (+++) Configure the declared DMA handle structure with the required Tx/Rx parameters.
  39:Drivers/STM32F3xx_HAL_Driver/Src/stm32f3xx_hal_uart.c ****             (+++) Configure the DMA Tx/Rx channel.
  40:Drivers/STM32F3xx_HAL_Driver/Src/stm32f3xx_hal_uart.c ****             (+++) Associate the initialized DMA handle to the UART DMA Tx/Rx handle.
  41:Drivers/STM32F3xx_HAL_Driver/Src/stm32f3xx_hal_uart.c ****             (+++) Configure the priority and enable the NVIC for the transfer complete interrupt on
  42:Drivers/STM32F3xx_HAL_Driver/Src/stm32f3xx_hal_uart.c **** 
  43:Drivers/STM32F3xx_HAL_Driver/Src/stm32f3xx_hal_uart.c ****     (#) Program the Baud Rate, Word Length, Stop Bit, Parity, Hardware
  44:Drivers/STM32F3xx_HAL_Driver/Src/stm32f3xx_hal_uart.c ****         flow control and Mode (Receiver/Transmitter) in the huart handle Init structure.
  45:Drivers/STM32F3xx_HAL_Driver/Src/stm32f3xx_hal_uart.c **** 
  46:Drivers/STM32F3xx_HAL_Driver/Src/stm32f3xx_hal_uart.c ****     (#) If required, program UART advanced features (TX/RX pins swap, auto Baud rate detection,...)
  47:Drivers/STM32F3xx_HAL_Driver/Src/stm32f3xx_hal_uart.c ****         in the huart handle AdvancedInit structure.
  48:Drivers/STM32F3xx_HAL_Driver/Src/stm32f3xx_hal_uart.c **** 
  49:Drivers/STM32F3xx_HAL_Driver/Src/stm32f3xx_hal_uart.c ****     (#) For the UART asynchronous mode, initialize the UART registers by calling
  50:Drivers/STM32F3xx_HAL_Driver/Src/stm32f3xx_hal_uart.c ****         the HAL_UART_Init() API.
  51:Drivers/STM32F3xx_HAL_Driver/Src/stm32f3xx_hal_uart.c **** 
  52:Drivers/STM32F3xx_HAL_Driver/Src/stm32f3xx_hal_uart.c ****     (#) For the UART Half duplex mode, initialize the UART registers by calling
  53:Drivers/STM32F3xx_HAL_Driver/Src/stm32f3xx_hal_uart.c ****         the HAL_HalfDuplex_Init() API.
  54:Drivers/STM32F3xx_HAL_Driver/Src/stm32f3xx_hal_uart.c **** 
  55:Drivers/STM32F3xx_HAL_Driver/Src/stm32f3xx_hal_uart.c ****     (#) For the UART LIN (Local Interconnection Network) mode, initialize the UART registers
  56:Drivers/STM32F3xx_HAL_Driver/Src/stm32f3xx_hal_uart.c ****         by calling the HAL_LIN_Init() API.
  57:Drivers/STM32F3xx_HAL_Driver/Src/stm32f3xx_hal_uart.c **** 
  58:Drivers/STM32F3xx_HAL_Driver/Src/stm32f3xx_hal_uart.c ****     (#) For the UART Multiprocessor mode, initialize the UART registers
  59:Drivers/STM32F3xx_HAL_Driver/Src/stm32f3xx_hal_uart.c ****         by calling the HAL_MultiProcessor_Init() API.
  60:Drivers/STM32F3xx_HAL_Driver/Src/stm32f3xx_hal_uart.c **** 
  61:Drivers/STM32F3xx_HAL_Driver/Src/stm32f3xx_hal_uart.c ****     (#) For the UART RS485 Driver Enabled mode, initialize the UART registers
  62:Drivers/STM32F3xx_HAL_Driver/Src/stm32f3xx_hal_uart.c ****         by calling the HAL_RS485Ex_Init() API.
  63:Drivers/STM32F3xx_HAL_Driver/Src/stm32f3xx_hal_uart.c **** 
  64:Drivers/STM32F3xx_HAL_Driver/Src/stm32f3xx_hal_uart.c ****    [..]
  65:Drivers/STM32F3xx_HAL_Driver/Src/stm32f3xx_hal_uart.c ****     (@) These APIs (HAL_UART_Init(), HAL_HalfDuplex_Init(), HAL_MultiProcessor_Init(),
  66:Drivers/STM32F3xx_HAL_Driver/Src/stm32f3xx_hal_uart.c ****         also configure the low level Hardware (GPIO, CLOCK, CORTEX...etc) by
  67:Drivers/STM32F3xx_HAL_Driver/Src/stm32f3xx_hal_uart.c ****         calling the customized HAL_UART_MspInit() API.
  68:Drivers/STM32F3xx_HAL_Driver/Src/stm32f3xx_hal_uart.c **** 
  69:Drivers/STM32F3xx_HAL_Driver/Src/stm32f3xx_hal_uart.c ****    [..]
  70:Drivers/STM32F3xx_HAL_Driver/Src/stm32f3xx_hal_uart.c ****    [..] Three operation modes are available within this driver :
  71:Drivers/STM32F3xx_HAL_Driver/Src/stm32f3xx_hal_uart.c ****   
  72:Drivers/STM32F3xx_HAL_Driver/Src/stm32f3xx_hal_uart.c ****      *** Polling mode IO operation ***
  73:Drivers/STM32F3xx_HAL_Driver/Src/stm32f3xx_hal_uart.c ****      =================================
  74:Drivers/STM32F3xx_HAL_Driver/Src/stm32f3xx_hal_uart.c ****      [..]
  75:Drivers/STM32F3xx_HAL_Driver/Src/stm32f3xx_hal_uart.c ****        (+) Send an amount of data in blocking mode using HAL_UART_Transmit()
  76:Drivers/STM32F3xx_HAL_Driver/Src/stm32f3xx_hal_uart.c ****        (+) Receive an amount of data in blocking mode using HAL_UART_Receive()
  77:Drivers/STM32F3xx_HAL_Driver/Src/stm32f3xx_hal_uart.c **** 
  78:Drivers/STM32F3xx_HAL_Driver/Src/stm32f3xx_hal_uart.c ****      *** Interrupt mode IO operation ***
  79:Drivers/STM32F3xx_HAL_Driver/Src/stm32f3xx_hal_uart.c ****      ===================================
  80:Drivers/STM32F3xx_HAL_Driver/Src/stm32f3xx_hal_uart.c ****      [..]
  81:Drivers/STM32F3xx_HAL_Driver/Src/stm32f3xx_hal_uart.c ****        (+) Send an amount of data in non blocking mode using HAL_UART_Transmit_IT()
  82:Drivers/STM32F3xx_HAL_Driver/Src/stm32f3xx_hal_uart.c ****        (+) At transmission end of half transfer HAL_UART_TxHalfCpltCallback is executed and user ca
  83:Drivers/STM32F3xx_HAL_Driver/Src/stm32f3xx_hal_uart.c ****             add his own code by customization of function pointer HAL_UART_TxHalfCpltCallback
  84:Drivers/STM32F3xx_HAL_Driver/Src/stm32f3xx_hal_uart.c ****        (+) At transmission end of transfer HAL_UART_TxCpltCallback is executed and user can
  85:Drivers/STM32F3xx_HAL_Driver/Src/stm32f3xx_hal_uart.c ****             add his own code by customization of function pointer HAL_UART_TxCpltCallback
  86:Drivers/STM32F3xx_HAL_Driver/Src/stm32f3xx_hal_uart.c ****        (+) Receive an amount of data in non blocking mode using HAL_UART_Receive_IT()
  87:Drivers/STM32F3xx_HAL_Driver/Src/stm32f3xx_hal_uart.c ****        (+) At reception end of half transfer HAL_UART_RxHalfCpltCallback is executed and user can
ARM GAS  /tmp/ccinMcHI.s 			page 3


  88:Drivers/STM32F3xx_HAL_Driver/Src/stm32f3xx_hal_uart.c ****             add his own code by customization of function pointer HAL_UART_RxHalfCpltCallback
  89:Drivers/STM32F3xx_HAL_Driver/Src/stm32f3xx_hal_uart.c ****        (+) At reception end of transfer HAL_UART_RxCpltCallback is executed and user can
  90:Drivers/STM32F3xx_HAL_Driver/Src/stm32f3xx_hal_uart.c ****             add his own code by customization of function pointer HAL_UART_RxCpltCallback
  91:Drivers/STM32F3xx_HAL_Driver/Src/stm32f3xx_hal_uart.c ****        (+) In case of transfer Error, HAL_UART_ErrorCallback() function is executed and user can
  92:Drivers/STM32F3xx_HAL_Driver/Src/stm32f3xx_hal_uart.c ****             add his own code by customization of function pointer HAL_UART_ErrorCallback
  93:Drivers/STM32F3xx_HAL_Driver/Src/stm32f3xx_hal_uart.c **** 
  94:Drivers/STM32F3xx_HAL_Driver/Src/stm32f3xx_hal_uart.c ****      *** DMA mode IO operation ***
  95:Drivers/STM32F3xx_HAL_Driver/Src/stm32f3xx_hal_uart.c ****      ==============================
  96:Drivers/STM32F3xx_HAL_Driver/Src/stm32f3xx_hal_uart.c ****      [..]
  97:Drivers/STM32F3xx_HAL_Driver/Src/stm32f3xx_hal_uart.c ****        (+) Send an amount of data in non blocking mode (DMA) using HAL_UART_Transmit_DMA()
  98:Drivers/STM32F3xx_HAL_Driver/Src/stm32f3xx_hal_uart.c ****        (+) At transmission end of half transfer HAL_UART_TxHalfCpltCallback is executed and user ca
  99:Drivers/STM32F3xx_HAL_Driver/Src/stm32f3xx_hal_uart.c ****             add his own code by customization of function pointer HAL_UART_TxHalfCpltCallback
 100:Drivers/STM32F3xx_HAL_Driver/Src/stm32f3xx_hal_uart.c ****        (+) At transmission end of transfer HAL_UART_TxCpltCallback is executed and user can
 101:Drivers/STM32F3xx_HAL_Driver/Src/stm32f3xx_hal_uart.c ****             add his own code by customization of function pointer HAL_UART_TxCpltCallback
 102:Drivers/STM32F3xx_HAL_Driver/Src/stm32f3xx_hal_uart.c ****        (+) Receive an amount of data in non blocking mode (DMA) using HAL_UART_Receive_DMA()
 103:Drivers/STM32F3xx_HAL_Driver/Src/stm32f3xx_hal_uart.c ****        (+) At reception end of half transfer HAL_UART_RxHalfCpltCallback is executed and user can
 104:Drivers/STM32F3xx_HAL_Driver/Src/stm32f3xx_hal_uart.c ****             add his own code by customization of function pointer HAL_UART_RxHalfCpltCallback
 105:Drivers/STM32F3xx_HAL_Driver/Src/stm32f3xx_hal_uart.c ****        (+) At reception end of transfer HAL_UART_RxCpltCallback is executed and user can
 106:Drivers/STM32F3xx_HAL_Driver/Src/stm32f3xx_hal_uart.c ****             add his own code by customization of function pointer HAL_UART_RxCpltCallback
 107:Drivers/STM32F3xx_HAL_Driver/Src/stm32f3xx_hal_uart.c ****        (+) In case of transfer Error, HAL_UART_ErrorCallback() function is executed and user can
 108:Drivers/STM32F3xx_HAL_Driver/Src/stm32f3xx_hal_uart.c ****             add his own code by customization of function pointer HAL_UART_ErrorCallback
 109:Drivers/STM32F3xx_HAL_Driver/Src/stm32f3xx_hal_uart.c ****        (+) Pause the DMA Transfer using HAL_UART_DMAPause()
 110:Drivers/STM32F3xx_HAL_Driver/Src/stm32f3xx_hal_uart.c ****        (+) Resume the DMA Transfer using HAL_UART_DMAResume()
 111:Drivers/STM32F3xx_HAL_Driver/Src/stm32f3xx_hal_uart.c ****        (+) Stop the DMA Transfer using HAL_UART_DMAStop()
 112:Drivers/STM32F3xx_HAL_Driver/Src/stm32f3xx_hal_uart.c **** 
 113:Drivers/STM32F3xx_HAL_Driver/Src/stm32f3xx_hal_uart.c ****      *** UART HAL driver macros list ***
 114:Drivers/STM32F3xx_HAL_Driver/Src/stm32f3xx_hal_uart.c ****      =============================================
 115:Drivers/STM32F3xx_HAL_Driver/Src/stm32f3xx_hal_uart.c ****      [..]
 116:Drivers/STM32F3xx_HAL_Driver/Src/stm32f3xx_hal_uart.c ****        Below the list of most used macros in UART HAL driver.
 117:Drivers/STM32F3xx_HAL_Driver/Src/stm32f3xx_hal_uart.c **** 
 118:Drivers/STM32F3xx_HAL_Driver/Src/stm32f3xx_hal_uart.c ****       (+) __HAL_UART_ENABLE: Enable the UART peripheral
 119:Drivers/STM32F3xx_HAL_Driver/Src/stm32f3xx_hal_uart.c ****       (+) __HAL_UART_DISABLE: Disable the UART peripheral
 120:Drivers/STM32F3xx_HAL_Driver/Src/stm32f3xx_hal_uart.c ****       (+) __HAL_UART_GET_FLAG : Check whether the specified UART flag is set or not
 121:Drivers/STM32F3xx_HAL_Driver/Src/stm32f3xx_hal_uart.c ****       (+) __HAL_UART_CLEAR_FLAG : Clear the specified UART pending flag
 122:Drivers/STM32F3xx_HAL_Driver/Src/stm32f3xx_hal_uart.c ****       (+) __HAL_UART_ENABLE_IT: Enable the specified UART interrupt
 123:Drivers/STM32F3xx_HAL_Driver/Src/stm32f3xx_hal_uart.c ****       (+) __HAL_UART_DISABLE_IT: Disable the specified UART interrupt
 124:Drivers/STM32F3xx_HAL_Driver/Src/stm32f3xx_hal_uart.c **** 
 125:Drivers/STM32F3xx_HAL_Driver/Src/stm32f3xx_hal_uart.c ****      [..]
 126:Drivers/STM32F3xx_HAL_Driver/Src/stm32f3xx_hal_uart.c ****        (@) You can refer to the UART HAL driver header file for more useful macros
 127:Drivers/STM32F3xx_HAL_Driver/Src/stm32f3xx_hal_uart.c **** 
 128:Drivers/STM32F3xx_HAL_Driver/Src/stm32f3xx_hal_uart.c ****   @endverbatim
 129:Drivers/STM32F3xx_HAL_Driver/Src/stm32f3xx_hal_uart.c ****   ******************************************************************************
 130:Drivers/STM32F3xx_HAL_Driver/Src/stm32f3xx_hal_uart.c ****   * @attention
 131:Drivers/STM32F3xx_HAL_Driver/Src/stm32f3xx_hal_uart.c ****   *
 132:Drivers/STM32F3xx_HAL_Driver/Src/stm32f3xx_hal_uart.c ****   * <h2><center>&copy; COPYRIGHT(c) 2016 STMicroelectronics</center></h2>
 133:Drivers/STM32F3xx_HAL_Driver/Src/stm32f3xx_hal_uart.c ****   *
 134:Drivers/STM32F3xx_HAL_Driver/Src/stm32f3xx_hal_uart.c ****   * Redistribution and use in source and binary forms, with or without modification,
 135:Drivers/STM32F3xx_HAL_Driver/Src/stm32f3xx_hal_uart.c ****   * are permitted provided that the following conditions are met:
 136:Drivers/STM32F3xx_HAL_Driver/Src/stm32f3xx_hal_uart.c ****   *   1. Redistributions of source code must retain the above copyright notice,
 137:Drivers/STM32F3xx_HAL_Driver/Src/stm32f3xx_hal_uart.c ****   *      this list of conditions and the following disclaimer.
 138:Drivers/STM32F3xx_HAL_Driver/Src/stm32f3xx_hal_uart.c ****   *   2. Redistributions in binary form must reproduce the above copyright notice,
 139:Drivers/STM32F3xx_HAL_Driver/Src/stm32f3xx_hal_uart.c ****   *      this list of conditions and the following disclaimer in the documentation
 140:Drivers/STM32F3xx_HAL_Driver/Src/stm32f3xx_hal_uart.c ****   *      and/or other materials provided with the distribution.
 141:Drivers/STM32F3xx_HAL_Driver/Src/stm32f3xx_hal_uart.c ****   *   3. Neither the name of STMicroelectronics nor the names of its contributors
 142:Drivers/STM32F3xx_HAL_Driver/Src/stm32f3xx_hal_uart.c ****   *      may be used to endorse or promote products derived from this software
 143:Drivers/STM32F3xx_HAL_Driver/Src/stm32f3xx_hal_uart.c ****   *      without specific prior written permission.
 144:Drivers/STM32F3xx_HAL_Driver/Src/stm32f3xx_hal_uart.c ****   *
ARM GAS  /tmp/ccinMcHI.s 			page 4


 145:Drivers/STM32F3xx_HAL_Driver/Src/stm32f3xx_hal_uart.c ****   * THIS SOFTWARE IS PROVIDED BY THE COPYRIGHT HOLDERS AND CONTRIBUTORS "AS IS"
 146:Drivers/STM32F3xx_HAL_Driver/Src/stm32f3xx_hal_uart.c ****   * AND ANY EXPRESS OR IMPLIED WARRANTIES, INCLUDING, BUT NOT LIMITED TO, THE
 147:Drivers/STM32F3xx_HAL_Driver/Src/stm32f3xx_hal_uart.c ****   * IMPLIED WARRANTIES OF MERCHANTABILITY AND FITNESS FOR A PARTICULAR PURPOSE ARE
 148:Drivers/STM32F3xx_HAL_Driver/Src/stm32f3xx_hal_uart.c ****   * DISCLAIMED. IN NO EVENT SHALL THE COPYRIGHT HOLDER OR CONTRIBUTORS BE LIABLE
 149:Drivers/STM32F3xx_HAL_Driver/Src/stm32f3xx_hal_uart.c ****   * FOR ANY DIRECT, INDIRECT, INCIDENTAL, SPECIAL, EXEMPLARY, OR CONSEQUENTIAL
 150:Drivers/STM32F3xx_HAL_Driver/Src/stm32f3xx_hal_uart.c ****   * DAMAGES (INCLUDING, BUT NOT LIMITED TO, PROCUREMENT OF SUBSTITUTE GOODS OR
 151:Drivers/STM32F3xx_HAL_Driver/Src/stm32f3xx_hal_uart.c ****   * SERVICES; LOSS OF USE, DATA, OR PROFITS; OR BUSINESS INTERRUPTION) HOWEVER
 152:Drivers/STM32F3xx_HAL_Driver/Src/stm32f3xx_hal_uart.c ****   * CAUSED AND ON ANY THEORY OF LIABILITY, WHETHER IN CONTRACT, STRICT LIABILITY,
 153:Drivers/STM32F3xx_HAL_Driver/Src/stm32f3xx_hal_uart.c ****   * OR TORT (INCLUDING NEGLIGENCE OR OTHERWISE) ARISING IN ANY WAY OUT OF THE USE
 154:Drivers/STM32F3xx_HAL_Driver/Src/stm32f3xx_hal_uart.c ****   * OF THIS SOFTWARE, EVEN IF ADVISED OF THE POSSIBILITY OF SUCH DAMAGE.
 155:Drivers/STM32F3xx_HAL_Driver/Src/stm32f3xx_hal_uart.c ****   *
 156:Drivers/STM32F3xx_HAL_Driver/Src/stm32f3xx_hal_uart.c ****   ******************************************************************************
 157:Drivers/STM32F3xx_HAL_Driver/Src/stm32f3xx_hal_uart.c ****   */
 158:Drivers/STM32F3xx_HAL_Driver/Src/stm32f3xx_hal_uart.c **** 
 159:Drivers/STM32F3xx_HAL_Driver/Src/stm32f3xx_hal_uart.c **** /* Includes ------------------------------------------------------------------*/
 160:Drivers/STM32F3xx_HAL_Driver/Src/stm32f3xx_hal_uart.c **** #include "stm32f3xx_hal.h"
 161:Drivers/STM32F3xx_HAL_Driver/Src/stm32f3xx_hal_uart.c **** 
 162:Drivers/STM32F3xx_HAL_Driver/Src/stm32f3xx_hal_uart.c **** /** @addtogroup STM32F3xx_HAL_Driver
 163:Drivers/STM32F3xx_HAL_Driver/Src/stm32f3xx_hal_uart.c ****   * @{
 164:Drivers/STM32F3xx_HAL_Driver/Src/stm32f3xx_hal_uart.c ****   */
 165:Drivers/STM32F3xx_HAL_Driver/Src/stm32f3xx_hal_uart.c **** 
 166:Drivers/STM32F3xx_HAL_Driver/Src/stm32f3xx_hal_uart.c **** /** @defgroup UART UART
 167:Drivers/STM32F3xx_HAL_Driver/Src/stm32f3xx_hal_uart.c ****   * @brief UART HAL module driver
 168:Drivers/STM32F3xx_HAL_Driver/Src/stm32f3xx_hal_uart.c ****   * @{
 169:Drivers/STM32F3xx_HAL_Driver/Src/stm32f3xx_hal_uart.c ****   */
 170:Drivers/STM32F3xx_HAL_Driver/Src/stm32f3xx_hal_uart.c **** 
 171:Drivers/STM32F3xx_HAL_Driver/Src/stm32f3xx_hal_uart.c **** #ifdef HAL_UART_MODULE_ENABLED
 172:Drivers/STM32F3xx_HAL_Driver/Src/stm32f3xx_hal_uart.c **** 
 173:Drivers/STM32F3xx_HAL_Driver/Src/stm32f3xx_hal_uart.c **** /* Private typedef -----------------------------------------------------------*/
 174:Drivers/STM32F3xx_HAL_Driver/Src/stm32f3xx_hal_uart.c **** /* Private define ------------------------------------------------------------*/
 175:Drivers/STM32F3xx_HAL_Driver/Src/stm32f3xx_hal_uart.c **** /** @defgroup UART_Private_Constants UART Private Constants
 176:Drivers/STM32F3xx_HAL_Driver/Src/stm32f3xx_hal_uart.c ****   * @{
 177:Drivers/STM32F3xx_HAL_Driver/Src/stm32f3xx_hal_uart.c ****   */
 178:Drivers/STM32F3xx_HAL_Driver/Src/stm32f3xx_hal_uart.c **** #define UART_CR1_FIELDS  ((uint32_t)(USART_CR1_M | USART_CR1_PCE | USART_CR1_PS | \
 179:Drivers/STM32F3xx_HAL_Driver/Src/stm32f3xx_hal_uart.c ****                                      USART_CR1_TE | USART_CR1_RE | USART_CR1_OVER8)) /*!< UART or U
 180:Drivers/STM32F3xx_HAL_Driver/Src/stm32f3xx_hal_uart.c **** /**
 181:Drivers/STM32F3xx_HAL_Driver/Src/stm32f3xx_hal_uart.c ****   * @}
 182:Drivers/STM32F3xx_HAL_Driver/Src/stm32f3xx_hal_uart.c ****   */
 183:Drivers/STM32F3xx_HAL_Driver/Src/stm32f3xx_hal_uart.c **** 
 184:Drivers/STM32F3xx_HAL_Driver/Src/stm32f3xx_hal_uart.c **** /* Private macros ------------------------------------------------------------*/
 185:Drivers/STM32F3xx_HAL_Driver/Src/stm32f3xx_hal_uart.c **** /* Private variables ---------------------------------------------------------*/
 186:Drivers/STM32F3xx_HAL_Driver/Src/stm32f3xx_hal_uart.c **** /* Private function prototypes -----------------------------------------------*/
 187:Drivers/STM32F3xx_HAL_Driver/Src/stm32f3xx_hal_uart.c **** /** @addtogroup UART_Private_Functions
 188:Drivers/STM32F3xx_HAL_Driver/Src/stm32f3xx_hal_uart.c ****   * @{
 189:Drivers/STM32F3xx_HAL_Driver/Src/stm32f3xx_hal_uart.c ****   */
 190:Drivers/STM32F3xx_HAL_Driver/Src/stm32f3xx_hal_uart.c **** static void UART_EndTxTransfer(UART_HandleTypeDef *huart);
 191:Drivers/STM32F3xx_HAL_Driver/Src/stm32f3xx_hal_uart.c **** static void UART_EndRxTransfer(UART_HandleTypeDef *huart);
 192:Drivers/STM32F3xx_HAL_Driver/Src/stm32f3xx_hal_uart.c **** static void UART_DMATransmitCplt(DMA_HandleTypeDef *hdma);
 193:Drivers/STM32F3xx_HAL_Driver/Src/stm32f3xx_hal_uart.c **** static void UART_DMATxHalfCplt(DMA_HandleTypeDef *hdma);
 194:Drivers/STM32F3xx_HAL_Driver/Src/stm32f3xx_hal_uart.c **** static void UART_DMAReceiveCplt(DMA_HandleTypeDef *hdma);
 195:Drivers/STM32F3xx_HAL_Driver/Src/stm32f3xx_hal_uart.c **** static void UART_DMARxHalfCplt(DMA_HandleTypeDef *hdma);
 196:Drivers/STM32F3xx_HAL_Driver/Src/stm32f3xx_hal_uart.c **** static void UART_DMAError(DMA_HandleTypeDef *hdma);
 197:Drivers/STM32F3xx_HAL_Driver/Src/stm32f3xx_hal_uart.c **** static void UART_DMAAbortOnError(DMA_HandleTypeDef *hdma);
 198:Drivers/STM32F3xx_HAL_Driver/Src/stm32f3xx_hal_uart.c **** static void UART_DMATxAbortCallback(DMA_HandleTypeDef *hdma);
 199:Drivers/STM32F3xx_HAL_Driver/Src/stm32f3xx_hal_uart.c **** static void UART_DMARxAbortCallback(DMA_HandleTypeDef *hdma);
 200:Drivers/STM32F3xx_HAL_Driver/Src/stm32f3xx_hal_uart.c **** static void UART_DMATxOnlyAbortCallback(DMA_HandleTypeDef *hdma);
 201:Drivers/STM32F3xx_HAL_Driver/Src/stm32f3xx_hal_uart.c **** static void UART_DMARxOnlyAbortCallback(DMA_HandleTypeDef *hdma);
ARM GAS  /tmp/ccinMcHI.s 			page 5


 202:Drivers/STM32F3xx_HAL_Driver/Src/stm32f3xx_hal_uart.c **** HAL_StatusTypeDef UART_Transmit_IT(UART_HandleTypeDef *huart);
 203:Drivers/STM32F3xx_HAL_Driver/Src/stm32f3xx_hal_uart.c **** HAL_StatusTypeDef UART_EndTransmit_IT(UART_HandleTypeDef *huart);
 204:Drivers/STM32F3xx_HAL_Driver/Src/stm32f3xx_hal_uart.c **** HAL_StatusTypeDef UART_Receive_IT(UART_HandleTypeDef *huart);
 205:Drivers/STM32F3xx_HAL_Driver/Src/stm32f3xx_hal_uart.c **** /**
 206:Drivers/STM32F3xx_HAL_Driver/Src/stm32f3xx_hal_uart.c ****   * @}
 207:Drivers/STM32F3xx_HAL_Driver/Src/stm32f3xx_hal_uart.c ****   */
 208:Drivers/STM32F3xx_HAL_Driver/Src/stm32f3xx_hal_uart.c **** 
 209:Drivers/STM32F3xx_HAL_Driver/Src/stm32f3xx_hal_uart.c **** /* Exported functions --------------------------------------------------------*/
 210:Drivers/STM32F3xx_HAL_Driver/Src/stm32f3xx_hal_uart.c **** 
 211:Drivers/STM32F3xx_HAL_Driver/Src/stm32f3xx_hal_uart.c **** /** @defgroup UART_Exported_Functions UART Exported Functions
 212:Drivers/STM32F3xx_HAL_Driver/Src/stm32f3xx_hal_uart.c ****   * @{
 213:Drivers/STM32F3xx_HAL_Driver/Src/stm32f3xx_hal_uart.c ****   */
 214:Drivers/STM32F3xx_HAL_Driver/Src/stm32f3xx_hal_uart.c **** 
 215:Drivers/STM32F3xx_HAL_Driver/Src/stm32f3xx_hal_uart.c **** /** @defgroup UART_Exported_Functions_Group1 Initialization and de-initialization functions
 216:Drivers/STM32F3xx_HAL_Driver/Src/stm32f3xx_hal_uart.c ****   *  @brief    Initialization and Configuration functions
 217:Drivers/STM32F3xx_HAL_Driver/Src/stm32f3xx_hal_uart.c ****   *
 218:Drivers/STM32F3xx_HAL_Driver/Src/stm32f3xx_hal_uart.c **** @verbatim
 219:Drivers/STM32F3xx_HAL_Driver/Src/stm32f3xx_hal_uart.c **** ===============================================================================
 220:Drivers/STM32F3xx_HAL_Driver/Src/stm32f3xx_hal_uart.c ****             ##### Initialization and Configuration functions #####
 221:Drivers/STM32F3xx_HAL_Driver/Src/stm32f3xx_hal_uart.c ****  ===============================================================================
 222:Drivers/STM32F3xx_HAL_Driver/Src/stm32f3xx_hal_uart.c ****     [..]
 223:Drivers/STM32F3xx_HAL_Driver/Src/stm32f3xx_hal_uart.c ****     This subsection provides a set of functions allowing to initialize the USARTx or the UARTy
 224:Drivers/STM32F3xx_HAL_Driver/Src/stm32f3xx_hal_uart.c ****     in asynchronous mode.
 225:Drivers/STM32F3xx_HAL_Driver/Src/stm32f3xx_hal_uart.c ****       (+) For the asynchronous mode the parameters below can be configured:
 226:Drivers/STM32F3xx_HAL_Driver/Src/stm32f3xx_hal_uart.c ****         (++) Baud Rate
 227:Drivers/STM32F3xx_HAL_Driver/Src/stm32f3xx_hal_uart.c ****         (++) Word Length
 228:Drivers/STM32F3xx_HAL_Driver/Src/stm32f3xx_hal_uart.c ****         (++) Stop Bit
 229:Drivers/STM32F3xx_HAL_Driver/Src/stm32f3xx_hal_uart.c ****         (++) Parity
 230:Drivers/STM32F3xx_HAL_Driver/Src/stm32f3xx_hal_uart.c ****         (++) Hardware flow control
 231:Drivers/STM32F3xx_HAL_Driver/Src/stm32f3xx_hal_uart.c ****         (++) Receiver/transmitter modes
 232:Drivers/STM32F3xx_HAL_Driver/Src/stm32f3xx_hal_uart.c ****         (++) Over Sampling Method
 233:Drivers/STM32F3xx_HAL_Driver/Src/stm32f3xx_hal_uart.c ****         (++) One-Bit Sampling Method
 234:Drivers/STM32F3xx_HAL_Driver/Src/stm32f3xx_hal_uart.c ****       (+) For the asynchronous mode, the following advanced features can be configured as well:
 235:Drivers/STM32F3xx_HAL_Driver/Src/stm32f3xx_hal_uart.c ****         (++) TX and/or RX pin level inversion
 236:Drivers/STM32F3xx_HAL_Driver/Src/stm32f3xx_hal_uart.c ****         (++) data logical level inversion
 237:Drivers/STM32F3xx_HAL_Driver/Src/stm32f3xx_hal_uart.c ****         (++) RX and TX pins swap
 238:Drivers/STM32F3xx_HAL_Driver/Src/stm32f3xx_hal_uart.c ****         (++) RX overrun detection disabling
 239:Drivers/STM32F3xx_HAL_Driver/Src/stm32f3xx_hal_uart.c ****         (++) DMA disabling on RX error
 240:Drivers/STM32F3xx_HAL_Driver/Src/stm32f3xx_hal_uart.c ****         (++) MSB first on communication line
 241:Drivers/STM32F3xx_HAL_Driver/Src/stm32f3xx_hal_uart.c ****         (++) auto Baud rate detection
 242:Drivers/STM32F3xx_HAL_Driver/Src/stm32f3xx_hal_uart.c ****     [..]
 243:Drivers/STM32F3xx_HAL_Driver/Src/stm32f3xx_hal_uart.c ****     The HAL_UART_Init(), HAL_HalfDuplex_Init(), HAL_LIN_Init() and HAL_MultiProcessor_Init()
 244:Drivers/STM32F3xx_HAL_Driver/Src/stm32f3xx_hal_uart.c ****     API follow respectively the UART asynchronous, UART Half duplex, UART LIN mode and
 245:Drivers/STM32F3xx_HAL_Driver/Src/stm32f3xx_hal_uart.c ****     multiprocessor configuration procedures (details for the procedures are available in reference 
 246:Drivers/STM32F3xx_HAL_Driver/Src/stm32f3xx_hal_uart.c **** 
 247:Drivers/STM32F3xx_HAL_Driver/Src/stm32f3xx_hal_uart.c **** @endverbatim
 248:Drivers/STM32F3xx_HAL_Driver/Src/stm32f3xx_hal_uart.c ****   * @{
 249:Drivers/STM32F3xx_HAL_Driver/Src/stm32f3xx_hal_uart.c ****   */
 250:Drivers/STM32F3xx_HAL_Driver/Src/stm32f3xx_hal_uart.c **** 
 251:Drivers/STM32F3xx_HAL_Driver/Src/stm32f3xx_hal_uart.c **** /*
 252:Drivers/STM32F3xx_HAL_Driver/Src/stm32f3xx_hal_uart.c ****   Additional Table: If the parity is enabled, then the MSB bit of the data written
 253:Drivers/STM32F3xx_HAL_Driver/Src/stm32f3xx_hal_uart.c ****                     in the data register is transmitted but is changed by the parity bit.
 254:Drivers/STM32F3xx_HAL_Driver/Src/stm32f3xx_hal_uart.c ****                     According to device capability (support or not of 7-bit word length),
 255:Drivers/STM32F3xx_HAL_Driver/Src/stm32f3xx_hal_uart.c ****                     frame length is either defined by the M bit (8-bits or 9-bits)
 256:Drivers/STM32F3xx_HAL_Driver/Src/stm32f3xx_hal_uart.c ****                     or by the M1 and M0 bits (7-bit, 8-bit or 9-bit).
 257:Drivers/STM32F3xx_HAL_Driver/Src/stm32f3xx_hal_uart.c ****                     Possible UART frame formats are as listed in the following table:
 258:Drivers/STM32F3xx_HAL_Driver/Src/stm32f3xx_hal_uart.c **** 
ARM GAS  /tmp/ccinMcHI.s 			page 6


 259:Drivers/STM32F3xx_HAL_Driver/Src/stm32f3xx_hal_uart.c ****       Table 1. UART frame format.             
 260:Drivers/STM32F3xx_HAL_Driver/Src/stm32f3xx_hal_uart.c ****       +-----------------------------------------------------------------------+
 261:Drivers/STM32F3xx_HAL_Driver/Src/stm32f3xx_hal_uart.c ****       |       M bit       |  PCE bit  |             UART frame                |
 262:Drivers/STM32F3xx_HAL_Driver/Src/stm32f3xx_hal_uart.c ****       |-------------------|-----------|---------------------------------------|
 263:Drivers/STM32F3xx_HAL_Driver/Src/stm32f3xx_hal_uart.c ****       |         0         |     0     |    | SB |    8-bit data   | STB |     |
 264:Drivers/STM32F3xx_HAL_Driver/Src/stm32f3xx_hal_uart.c ****       |-------------------|-----------|---------------------------------------|
 265:Drivers/STM32F3xx_HAL_Driver/Src/stm32f3xx_hal_uart.c ****       |         0         |     1     |    | SB | 7-bit data | PB | STB |     |
 266:Drivers/STM32F3xx_HAL_Driver/Src/stm32f3xx_hal_uart.c ****       |-------------------|-----------|---------------------------------------|
 267:Drivers/STM32F3xx_HAL_Driver/Src/stm32f3xx_hal_uart.c ****       |         1         |     0     |    | SB |    9-bit data   | STB |     |
 268:Drivers/STM32F3xx_HAL_Driver/Src/stm32f3xx_hal_uart.c ****       |-------------------|-----------|---------------------------------------|
 269:Drivers/STM32F3xx_HAL_Driver/Src/stm32f3xx_hal_uart.c ****       |         1         |     1     |    | SB | 8-bit data | PB | STB |     |
 270:Drivers/STM32F3xx_HAL_Driver/Src/stm32f3xx_hal_uart.c ****       +-----------------------------------------------------------------------+
 271:Drivers/STM32F3xx_HAL_Driver/Src/stm32f3xx_hal_uart.c ****       |  M1 bit |  M0 bit |  PCE bit  |             UART frame                |
 272:Drivers/STM32F3xx_HAL_Driver/Src/stm32f3xx_hal_uart.c ****       |---------|---------|-----------|---------------------------------------|
 273:Drivers/STM32F3xx_HAL_Driver/Src/stm32f3xx_hal_uart.c ****       |    0    |    0    |     0     |    | SB |    8 bit data   | STB |     |
 274:Drivers/STM32F3xx_HAL_Driver/Src/stm32f3xx_hal_uart.c ****       |---------|---------|-----------|---------------------------------------|
 275:Drivers/STM32F3xx_HAL_Driver/Src/stm32f3xx_hal_uart.c ****       |    0    |    0    |     1     |    | SB | 7 bit data | PB | STB |     |
 276:Drivers/STM32F3xx_HAL_Driver/Src/stm32f3xx_hal_uart.c ****       |---------|---------|-----------|---------------------------------------|
 277:Drivers/STM32F3xx_HAL_Driver/Src/stm32f3xx_hal_uart.c ****       |    0    |    1    |     0     |    | SB |    9 bit data   | STB |     |
 278:Drivers/STM32F3xx_HAL_Driver/Src/stm32f3xx_hal_uart.c ****       |---------|---------|-----------|---------------------------------------|
 279:Drivers/STM32F3xx_HAL_Driver/Src/stm32f3xx_hal_uart.c ****       |    0    |    1    |     1     |    | SB | 8 bit data | PB | STB |     |
 280:Drivers/STM32F3xx_HAL_Driver/Src/stm32f3xx_hal_uart.c ****       |---------|---------|-----------|---------------------------------------|
 281:Drivers/STM32F3xx_HAL_Driver/Src/stm32f3xx_hal_uart.c ****       |    1    |    0    |     0     |    | SB |    7 bit data   | STB |     |
 282:Drivers/STM32F3xx_HAL_Driver/Src/stm32f3xx_hal_uart.c ****       |---------|---------|-----------|---------------------------------------|
 283:Drivers/STM32F3xx_HAL_Driver/Src/stm32f3xx_hal_uart.c ****       |    1    |    0    |     1     |    | SB | 6 bit data | PB | STB |     |
 284:Drivers/STM32F3xx_HAL_Driver/Src/stm32f3xx_hal_uart.c ****       +-----------------------------------------------------------------------+
 285:Drivers/STM32F3xx_HAL_Driver/Src/stm32f3xx_hal_uart.c **** 
 286:Drivers/STM32F3xx_HAL_Driver/Src/stm32f3xx_hal_uart.c **** */
 287:Drivers/STM32F3xx_HAL_Driver/Src/stm32f3xx_hal_uart.c **** 
 288:Drivers/STM32F3xx_HAL_Driver/Src/stm32f3xx_hal_uart.c **** /**
 289:Drivers/STM32F3xx_HAL_Driver/Src/stm32f3xx_hal_uart.c ****   * @brief Initialize the UART mode according to the specified
 290:Drivers/STM32F3xx_HAL_Driver/Src/stm32f3xx_hal_uart.c ****   *        parameters in the UART_InitTypeDef and initialize the associated handle.
 291:Drivers/STM32F3xx_HAL_Driver/Src/stm32f3xx_hal_uart.c ****   * @param huart UART handle.
 292:Drivers/STM32F3xx_HAL_Driver/Src/stm32f3xx_hal_uart.c ****   * @retval HAL status
 293:Drivers/STM32F3xx_HAL_Driver/Src/stm32f3xx_hal_uart.c ****   */
 294:Drivers/STM32F3xx_HAL_Driver/Src/stm32f3xx_hal_uart.c **** HAL_StatusTypeDef HAL_UART_Init(UART_HandleTypeDef *huart)
 295:Drivers/STM32F3xx_HAL_Driver/Src/stm32f3xx_hal_uart.c **** {
 296:Drivers/STM32F3xx_HAL_Driver/Src/stm32f3xx_hal_uart.c ****   /* Check the UART handle allocation */
 297:Drivers/STM32F3xx_HAL_Driver/Src/stm32f3xx_hal_uart.c ****   if(huart == NULL)
 298:Drivers/STM32F3xx_HAL_Driver/Src/stm32f3xx_hal_uart.c ****   {
 299:Drivers/STM32F3xx_HAL_Driver/Src/stm32f3xx_hal_uart.c ****     return HAL_ERROR;
 300:Drivers/STM32F3xx_HAL_Driver/Src/stm32f3xx_hal_uart.c ****   }
 301:Drivers/STM32F3xx_HAL_Driver/Src/stm32f3xx_hal_uart.c **** 
 302:Drivers/STM32F3xx_HAL_Driver/Src/stm32f3xx_hal_uart.c ****   if(huart->Init.HwFlowCtl != UART_HWCONTROL_NONE)
 303:Drivers/STM32F3xx_HAL_Driver/Src/stm32f3xx_hal_uart.c ****   {
 304:Drivers/STM32F3xx_HAL_Driver/Src/stm32f3xx_hal_uart.c ****     /* Check the parameters */
 305:Drivers/STM32F3xx_HAL_Driver/Src/stm32f3xx_hal_uart.c ****     assert_param(IS_UART_HWFLOW_INSTANCE(huart->Instance));
 306:Drivers/STM32F3xx_HAL_Driver/Src/stm32f3xx_hal_uart.c ****   }
 307:Drivers/STM32F3xx_HAL_Driver/Src/stm32f3xx_hal_uart.c ****   else
 308:Drivers/STM32F3xx_HAL_Driver/Src/stm32f3xx_hal_uart.c ****   {
 309:Drivers/STM32F3xx_HAL_Driver/Src/stm32f3xx_hal_uart.c ****     /* Check the parameters */
 310:Drivers/STM32F3xx_HAL_Driver/Src/stm32f3xx_hal_uart.c ****     assert_param(IS_UART_INSTANCE(huart->Instance));
 311:Drivers/STM32F3xx_HAL_Driver/Src/stm32f3xx_hal_uart.c ****   }
 312:Drivers/STM32F3xx_HAL_Driver/Src/stm32f3xx_hal_uart.c **** 
 313:Drivers/STM32F3xx_HAL_Driver/Src/stm32f3xx_hal_uart.c ****   if(huart->gState == HAL_UART_STATE_RESET)
 314:Drivers/STM32F3xx_HAL_Driver/Src/stm32f3xx_hal_uart.c ****   {
 315:Drivers/STM32F3xx_HAL_Driver/Src/stm32f3xx_hal_uart.c ****     /* Allocate lock resource and initialize it */
ARM GAS  /tmp/ccinMcHI.s 			page 7


 316:Drivers/STM32F3xx_HAL_Driver/Src/stm32f3xx_hal_uart.c ****     huart->Lock = HAL_UNLOCKED;
 317:Drivers/STM32F3xx_HAL_Driver/Src/stm32f3xx_hal_uart.c **** 
 318:Drivers/STM32F3xx_HAL_Driver/Src/stm32f3xx_hal_uart.c ****     /* Init the low level hardware : GPIO, CLOCK */
 319:Drivers/STM32F3xx_HAL_Driver/Src/stm32f3xx_hal_uart.c ****     HAL_UART_MspInit(huart);
 320:Drivers/STM32F3xx_HAL_Driver/Src/stm32f3xx_hal_uart.c ****   }
 321:Drivers/STM32F3xx_HAL_Driver/Src/stm32f3xx_hal_uart.c **** 
 322:Drivers/STM32F3xx_HAL_Driver/Src/stm32f3xx_hal_uart.c ****   huart->gState = HAL_UART_STATE_BUSY;
 323:Drivers/STM32F3xx_HAL_Driver/Src/stm32f3xx_hal_uart.c **** 
 324:Drivers/STM32F3xx_HAL_Driver/Src/stm32f3xx_hal_uart.c ****   /* Disable the Peripheral */
 325:Drivers/STM32F3xx_HAL_Driver/Src/stm32f3xx_hal_uart.c ****   __HAL_UART_DISABLE(huart);
 326:Drivers/STM32F3xx_HAL_Driver/Src/stm32f3xx_hal_uart.c **** 
 327:Drivers/STM32F3xx_HAL_Driver/Src/stm32f3xx_hal_uart.c ****   /* Set the UART Communication parameters */
 328:Drivers/STM32F3xx_HAL_Driver/Src/stm32f3xx_hal_uart.c ****   if (UART_SetConfig(huart) == HAL_ERROR)
 329:Drivers/STM32F3xx_HAL_Driver/Src/stm32f3xx_hal_uart.c ****   {
 330:Drivers/STM32F3xx_HAL_Driver/Src/stm32f3xx_hal_uart.c ****     return HAL_ERROR;
 331:Drivers/STM32F3xx_HAL_Driver/Src/stm32f3xx_hal_uart.c ****   }
 332:Drivers/STM32F3xx_HAL_Driver/Src/stm32f3xx_hal_uart.c **** 
 333:Drivers/STM32F3xx_HAL_Driver/Src/stm32f3xx_hal_uart.c ****   if (huart->AdvancedInit.AdvFeatureInit != UART_ADVFEATURE_NO_INIT)
 334:Drivers/STM32F3xx_HAL_Driver/Src/stm32f3xx_hal_uart.c ****   {
 335:Drivers/STM32F3xx_HAL_Driver/Src/stm32f3xx_hal_uart.c ****     UART_AdvFeatureConfig(huart);
 336:Drivers/STM32F3xx_HAL_Driver/Src/stm32f3xx_hal_uart.c ****   }
 337:Drivers/STM32F3xx_HAL_Driver/Src/stm32f3xx_hal_uart.c **** 
 338:Drivers/STM32F3xx_HAL_Driver/Src/stm32f3xx_hal_uart.c ****   /* In asynchronous mode, the following bits must be kept cleared:
 339:Drivers/STM32F3xx_HAL_Driver/Src/stm32f3xx_hal_uart.c ****   - LINEN and CLKEN bits in the USART_CR2 register,
 340:Drivers/STM32F3xx_HAL_Driver/Src/stm32f3xx_hal_uart.c ****   - SCEN, HDSEL and IREN  bits in the USART_CR3 register.*/
 341:Drivers/STM32F3xx_HAL_Driver/Src/stm32f3xx_hal_uart.c ****   CLEAR_BIT(huart->Instance->CR2, (USART_CR2_LINEN | USART_CR2_CLKEN));
 342:Drivers/STM32F3xx_HAL_Driver/Src/stm32f3xx_hal_uart.c ****   CLEAR_BIT(huart->Instance->CR3, (USART_CR3_SCEN | USART_CR3_HDSEL | USART_CR3_IREN));
 343:Drivers/STM32F3xx_HAL_Driver/Src/stm32f3xx_hal_uart.c **** 
 344:Drivers/STM32F3xx_HAL_Driver/Src/stm32f3xx_hal_uart.c ****   /* Enable the Peripheral */
 345:Drivers/STM32F3xx_HAL_Driver/Src/stm32f3xx_hal_uart.c ****   __HAL_UART_ENABLE(huart);
 346:Drivers/STM32F3xx_HAL_Driver/Src/stm32f3xx_hal_uart.c **** 
 347:Drivers/STM32F3xx_HAL_Driver/Src/stm32f3xx_hal_uart.c ****   /* TEACK and/or REACK to check before moving huart->gState and huart->RxState to Ready */
 348:Drivers/STM32F3xx_HAL_Driver/Src/stm32f3xx_hal_uart.c ****   return (UART_CheckIdleState(huart));
 349:Drivers/STM32F3xx_HAL_Driver/Src/stm32f3xx_hal_uart.c **** }
 350:Drivers/STM32F3xx_HAL_Driver/Src/stm32f3xx_hal_uart.c **** 
 351:Drivers/STM32F3xx_HAL_Driver/Src/stm32f3xx_hal_uart.c **** /**
 352:Drivers/STM32F3xx_HAL_Driver/Src/stm32f3xx_hal_uart.c ****   * @brief Initialize the half-duplex mode according to the specified
 353:Drivers/STM32F3xx_HAL_Driver/Src/stm32f3xx_hal_uart.c ****   *        parameters in the UART_InitTypeDef and creates the associated handle.
 354:Drivers/STM32F3xx_HAL_Driver/Src/stm32f3xx_hal_uart.c ****   * @param huart UART handle.
 355:Drivers/STM32F3xx_HAL_Driver/Src/stm32f3xx_hal_uart.c ****   * @retval HAL status
 356:Drivers/STM32F3xx_HAL_Driver/Src/stm32f3xx_hal_uart.c ****   */
 357:Drivers/STM32F3xx_HAL_Driver/Src/stm32f3xx_hal_uart.c **** HAL_StatusTypeDef HAL_HalfDuplex_Init(UART_HandleTypeDef *huart)
 358:Drivers/STM32F3xx_HAL_Driver/Src/stm32f3xx_hal_uart.c **** {
 359:Drivers/STM32F3xx_HAL_Driver/Src/stm32f3xx_hal_uart.c ****   /* Check the UART handle allocation */
 360:Drivers/STM32F3xx_HAL_Driver/Src/stm32f3xx_hal_uart.c ****   if(huart == NULL)
 361:Drivers/STM32F3xx_HAL_Driver/Src/stm32f3xx_hal_uart.c ****   {
 362:Drivers/STM32F3xx_HAL_Driver/Src/stm32f3xx_hal_uart.c ****     return HAL_ERROR;
 363:Drivers/STM32F3xx_HAL_Driver/Src/stm32f3xx_hal_uart.c ****   }
 364:Drivers/STM32F3xx_HAL_Driver/Src/stm32f3xx_hal_uart.c **** 
 365:Drivers/STM32F3xx_HAL_Driver/Src/stm32f3xx_hal_uart.c ****   /* Check UART instance */
 366:Drivers/STM32F3xx_HAL_Driver/Src/stm32f3xx_hal_uart.c ****   assert_param(IS_UART_HALFDUPLEX_INSTANCE(huart->Instance));
 367:Drivers/STM32F3xx_HAL_Driver/Src/stm32f3xx_hal_uart.c **** 
 368:Drivers/STM32F3xx_HAL_Driver/Src/stm32f3xx_hal_uart.c ****   if(huart->gState == HAL_UART_STATE_RESET)
 369:Drivers/STM32F3xx_HAL_Driver/Src/stm32f3xx_hal_uart.c ****   {
 370:Drivers/STM32F3xx_HAL_Driver/Src/stm32f3xx_hal_uart.c ****     /* Allocate lock resource and initialize it */
 371:Drivers/STM32F3xx_HAL_Driver/Src/stm32f3xx_hal_uart.c ****     huart->Lock = HAL_UNLOCKED;
 372:Drivers/STM32F3xx_HAL_Driver/Src/stm32f3xx_hal_uart.c **** 
ARM GAS  /tmp/ccinMcHI.s 			page 8


 373:Drivers/STM32F3xx_HAL_Driver/Src/stm32f3xx_hal_uart.c ****     /* Init the low level hardware : GPIO, CLOCK */
 374:Drivers/STM32F3xx_HAL_Driver/Src/stm32f3xx_hal_uart.c ****     HAL_UART_MspInit(huart);
 375:Drivers/STM32F3xx_HAL_Driver/Src/stm32f3xx_hal_uart.c ****   }
 376:Drivers/STM32F3xx_HAL_Driver/Src/stm32f3xx_hal_uart.c **** 
 377:Drivers/STM32F3xx_HAL_Driver/Src/stm32f3xx_hal_uart.c ****   huart->gState = HAL_UART_STATE_BUSY;
 378:Drivers/STM32F3xx_HAL_Driver/Src/stm32f3xx_hal_uart.c **** 
 379:Drivers/STM32F3xx_HAL_Driver/Src/stm32f3xx_hal_uart.c ****   /* Disable the Peripheral */
 380:Drivers/STM32F3xx_HAL_Driver/Src/stm32f3xx_hal_uart.c ****   __HAL_UART_DISABLE(huart);
 381:Drivers/STM32F3xx_HAL_Driver/Src/stm32f3xx_hal_uart.c **** 
 382:Drivers/STM32F3xx_HAL_Driver/Src/stm32f3xx_hal_uart.c ****   /* Set the UART Communication parameters */
 383:Drivers/STM32F3xx_HAL_Driver/Src/stm32f3xx_hal_uart.c ****   if (UART_SetConfig(huart) == HAL_ERROR)
 384:Drivers/STM32F3xx_HAL_Driver/Src/stm32f3xx_hal_uart.c ****   {
 385:Drivers/STM32F3xx_HAL_Driver/Src/stm32f3xx_hal_uart.c ****     return HAL_ERROR;
 386:Drivers/STM32F3xx_HAL_Driver/Src/stm32f3xx_hal_uart.c ****   }
 387:Drivers/STM32F3xx_HAL_Driver/Src/stm32f3xx_hal_uart.c **** 
 388:Drivers/STM32F3xx_HAL_Driver/Src/stm32f3xx_hal_uart.c ****   if (huart->AdvancedInit.AdvFeatureInit != UART_ADVFEATURE_NO_INIT)
 389:Drivers/STM32F3xx_HAL_Driver/Src/stm32f3xx_hal_uart.c ****   {
 390:Drivers/STM32F3xx_HAL_Driver/Src/stm32f3xx_hal_uart.c ****     UART_AdvFeatureConfig(huart);
 391:Drivers/STM32F3xx_HAL_Driver/Src/stm32f3xx_hal_uart.c ****   }
 392:Drivers/STM32F3xx_HAL_Driver/Src/stm32f3xx_hal_uart.c **** 
 393:Drivers/STM32F3xx_HAL_Driver/Src/stm32f3xx_hal_uart.c ****   /* In half-duplex mode, the following bits must be kept cleared:
 394:Drivers/STM32F3xx_HAL_Driver/Src/stm32f3xx_hal_uart.c ****   - LINEN and CLKEN bits in the USART_CR2 register,
 395:Drivers/STM32F3xx_HAL_Driver/Src/stm32f3xx_hal_uart.c ****   - SCEN and IREN bits in the USART_CR3 register.*/
 396:Drivers/STM32F3xx_HAL_Driver/Src/stm32f3xx_hal_uart.c ****   CLEAR_BIT(huart->Instance->CR2, (USART_CR2_LINEN | USART_CR2_CLKEN));
 397:Drivers/STM32F3xx_HAL_Driver/Src/stm32f3xx_hal_uart.c ****   CLEAR_BIT(huart->Instance->CR3, (USART_CR3_IREN | USART_CR3_SCEN));
 398:Drivers/STM32F3xx_HAL_Driver/Src/stm32f3xx_hal_uart.c **** 
 399:Drivers/STM32F3xx_HAL_Driver/Src/stm32f3xx_hal_uart.c ****   /* Enable the Half-Duplex mode by setting the HDSEL bit in the CR3 register */
 400:Drivers/STM32F3xx_HAL_Driver/Src/stm32f3xx_hal_uart.c ****   SET_BIT(huart->Instance->CR3, USART_CR3_HDSEL);
 401:Drivers/STM32F3xx_HAL_Driver/Src/stm32f3xx_hal_uart.c **** 
 402:Drivers/STM32F3xx_HAL_Driver/Src/stm32f3xx_hal_uart.c ****   /* Enable the Peripheral */
 403:Drivers/STM32F3xx_HAL_Driver/Src/stm32f3xx_hal_uart.c ****   __HAL_UART_ENABLE(huart);
 404:Drivers/STM32F3xx_HAL_Driver/Src/stm32f3xx_hal_uart.c **** 
 405:Drivers/STM32F3xx_HAL_Driver/Src/stm32f3xx_hal_uart.c ****   /* TEACK and/or REACK to check before moving huart->gState and huart->RxState to Ready */
 406:Drivers/STM32F3xx_HAL_Driver/Src/stm32f3xx_hal_uart.c ****   return (UART_CheckIdleState(huart));
 407:Drivers/STM32F3xx_HAL_Driver/Src/stm32f3xx_hal_uart.c **** }
 408:Drivers/STM32F3xx_HAL_Driver/Src/stm32f3xx_hal_uart.c **** 
 409:Drivers/STM32F3xx_HAL_Driver/Src/stm32f3xx_hal_uart.c **** 
 410:Drivers/STM32F3xx_HAL_Driver/Src/stm32f3xx_hal_uart.c **** /**
 411:Drivers/STM32F3xx_HAL_Driver/Src/stm32f3xx_hal_uart.c ****   * @brief Initialize the LIN mode according to the specified
 412:Drivers/STM32F3xx_HAL_Driver/Src/stm32f3xx_hal_uart.c ****   *        parameters in the UART_InitTypeDef and creates the associated handle .
 413:Drivers/STM32F3xx_HAL_Driver/Src/stm32f3xx_hal_uart.c ****   * @param huart UART handle.
 414:Drivers/STM32F3xx_HAL_Driver/Src/stm32f3xx_hal_uart.c ****   * @param BreakDetectLength specifies the LIN break detection length.
 415:Drivers/STM32F3xx_HAL_Driver/Src/stm32f3xx_hal_uart.c ****   *        This parameter can be one of the following values:
 416:Drivers/STM32F3xx_HAL_Driver/Src/stm32f3xx_hal_uart.c ****   *          @arg @ref UART_LINBREAKDETECTLENGTH_10B 10-bit break detection
 417:Drivers/STM32F3xx_HAL_Driver/Src/stm32f3xx_hal_uart.c ****   *          @arg @ref UART_LINBREAKDETECTLENGTH_11B 11-bit break detection
 418:Drivers/STM32F3xx_HAL_Driver/Src/stm32f3xx_hal_uart.c ****   * @retval HAL status
 419:Drivers/STM32F3xx_HAL_Driver/Src/stm32f3xx_hal_uart.c ****   */
 420:Drivers/STM32F3xx_HAL_Driver/Src/stm32f3xx_hal_uart.c **** HAL_StatusTypeDef HAL_LIN_Init(UART_HandleTypeDef *huart, uint32_t BreakDetectLength)
 421:Drivers/STM32F3xx_HAL_Driver/Src/stm32f3xx_hal_uart.c **** {
 422:Drivers/STM32F3xx_HAL_Driver/Src/stm32f3xx_hal_uart.c ****   /* Check the UART handle allocation */
 423:Drivers/STM32F3xx_HAL_Driver/Src/stm32f3xx_hal_uart.c ****   if(huart == NULL)
 424:Drivers/STM32F3xx_HAL_Driver/Src/stm32f3xx_hal_uart.c ****   {
 425:Drivers/STM32F3xx_HAL_Driver/Src/stm32f3xx_hal_uart.c ****     return HAL_ERROR;
 426:Drivers/STM32F3xx_HAL_Driver/Src/stm32f3xx_hal_uart.c ****   }
 427:Drivers/STM32F3xx_HAL_Driver/Src/stm32f3xx_hal_uart.c **** 
 428:Drivers/STM32F3xx_HAL_Driver/Src/stm32f3xx_hal_uart.c ****   /* Check the LIN UART instance */
 429:Drivers/STM32F3xx_HAL_Driver/Src/stm32f3xx_hal_uart.c ****   assert_param(IS_UART_LIN_INSTANCE(huart->Instance));
ARM GAS  /tmp/ccinMcHI.s 			page 9


 430:Drivers/STM32F3xx_HAL_Driver/Src/stm32f3xx_hal_uart.c ****   /* Check the Break detection length parameter */
 431:Drivers/STM32F3xx_HAL_Driver/Src/stm32f3xx_hal_uart.c ****   assert_param(IS_UART_LIN_BREAK_DETECT_LENGTH(BreakDetectLength));
 432:Drivers/STM32F3xx_HAL_Driver/Src/stm32f3xx_hal_uart.c **** 
 433:Drivers/STM32F3xx_HAL_Driver/Src/stm32f3xx_hal_uart.c ****   /* LIN mode limited to 16-bit oversampling only */
 434:Drivers/STM32F3xx_HAL_Driver/Src/stm32f3xx_hal_uart.c ****   if(huart->Init.OverSampling == UART_OVERSAMPLING_8)
 435:Drivers/STM32F3xx_HAL_Driver/Src/stm32f3xx_hal_uart.c ****   {
 436:Drivers/STM32F3xx_HAL_Driver/Src/stm32f3xx_hal_uart.c ****     return HAL_ERROR;
 437:Drivers/STM32F3xx_HAL_Driver/Src/stm32f3xx_hal_uart.c ****   }
 438:Drivers/STM32F3xx_HAL_Driver/Src/stm32f3xx_hal_uart.c ****   /* LIN mode limited to 8-bit data length */
 439:Drivers/STM32F3xx_HAL_Driver/Src/stm32f3xx_hal_uart.c ****   if(huart->Init.WordLength != UART_WORDLENGTH_8B)
 440:Drivers/STM32F3xx_HAL_Driver/Src/stm32f3xx_hal_uart.c ****   {
 441:Drivers/STM32F3xx_HAL_Driver/Src/stm32f3xx_hal_uart.c ****     return HAL_ERROR;
 442:Drivers/STM32F3xx_HAL_Driver/Src/stm32f3xx_hal_uart.c ****   }
 443:Drivers/STM32F3xx_HAL_Driver/Src/stm32f3xx_hal_uart.c **** 
 444:Drivers/STM32F3xx_HAL_Driver/Src/stm32f3xx_hal_uart.c ****   if(huart->gState == HAL_UART_STATE_RESET)
 445:Drivers/STM32F3xx_HAL_Driver/Src/stm32f3xx_hal_uart.c ****   {
 446:Drivers/STM32F3xx_HAL_Driver/Src/stm32f3xx_hal_uart.c ****     /* Allocate lock resource and initialize it */
 447:Drivers/STM32F3xx_HAL_Driver/Src/stm32f3xx_hal_uart.c ****     huart->Lock = HAL_UNLOCKED;
 448:Drivers/STM32F3xx_HAL_Driver/Src/stm32f3xx_hal_uart.c **** 
 449:Drivers/STM32F3xx_HAL_Driver/Src/stm32f3xx_hal_uart.c ****     /* Init the low level hardware : GPIO, CLOCK */
 450:Drivers/STM32F3xx_HAL_Driver/Src/stm32f3xx_hal_uart.c ****     HAL_UART_MspInit(huart);
 451:Drivers/STM32F3xx_HAL_Driver/Src/stm32f3xx_hal_uart.c ****   }
 452:Drivers/STM32F3xx_HAL_Driver/Src/stm32f3xx_hal_uart.c **** 
 453:Drivers/STM32F3xx_HAL_Driver/Src/stm32f3xx_hal_uart.c ****   huart->gState = HAL_UART_STATE_BUSY;
 454:Drivers/STM32F3xx_HAL_Driver/Src/stm32f3xx_hal_uart.c **** 
 455:Drivers/STM32F3xx_HAL_Driver/Src/stm32f3xx_hal_uart.c ****   /* Disable the Peripheral */
 456:Drivers/STM32F3xx_HAL_Driver/Src/stm32f3xx_hal_uart.c ****   __HAL_UART_DISABLE(huart);
 457:Drivers/STM32F3xx_HAL_Driver/Src/stm32f3xx_hal_uart.c **** 
 458:Drivers/STM32F3xx_HAL_Driver/Src/stm32f3xx_hal_uart.c ****   /* Set the UART Communication parameters */
 459:Drivers/STM32F3xx_HAL_Driver/Src/stm32f3xx_hal_uart.c ****   if (UART_SetConfig(huart) == HAL_ERROR)
 460:Drivers/STM32F3xx_HAL_Driver/Src/stm32f3xx_hal_uart.c ****   {
 461:Drivers/STM32F3xx_HAL_Driver/Src/stm32f3xx_hal_uart.c ****     return HAL_ERROR;
 462:Drivers/STM32F3xx_HAL_Driver/Src/stm32f3xx_hal_uart.c ****   }
 463:Drivers/STM32F3xx_HAL_Driver/Src/stm32f3xx_hal_uart.c **** 
 464:Drivers/STM32F3xx_HAL_Driver/Src/stm32f3xx_hal_uart.c ****   if (huart->AdvancedInit.AdvFeatureInit != UART_ADVFEATURE_NO_INIT)
 465:Drivers/STM32F3xx_HAL_Driver/Src/stm32f3xx_hal_uart.c ****   {
 466:Drivers/STM32F3xx_HAL_Driver/Src/stm32f3xx_hal_uart.c ****     UART_AdvFeatureConfig(huart);
 467:Drivers/STM32F3xx_HAL_Driver/Src/stm32f3xx_hal_uart.c ****   }
 468:Drivers/STM32F3xx_HAL_Driver/Src/stm32f3xx_hal_uart.c **** 
 469:Drivers/STM32F3xx_HAL_Driver/Src/stm32f3xx_hal_uart.c ****   /* In LIN mode, the following bits must be kept cleared:
 470:Drivers/STM32F3xx_HAL_Driver/Src/stm32f3xx_hal_uart.c ****   - LINEN and CLKEN bits in the USART_CR2 register,
 471:Drivers/STM32F3xx_HAL_Driver/Src/stm32f3xx_hal_uart.c ****   - SCEN and IREN bits in the USART_CR3 register.*/
 472:Drivers/STM32F3xx_HAL_Driver/Src/stm32f3xx_hal_uart.c ****   CLEAR_BIT(huart->Instance->CR2, USART_CR2_CLKEN);
 473:Drivers/STM32F3xx_HAL_Driver/Src/stm32f3xx_hal_uart.c ****   CLEAR_BIT(huart->Instance->CR3, (USART_CR3_HDSEL | USART_CR3_IREN | USART_CR3_SCEN));
 474:Drivers/STM32F3xx_HAL_Driver/Src/stm32f3xx_hal_uart.c **** 
 475:Drivers/STM32F3xx_HAL_Driver/Src/stm32f3xx_hal_uart.c ****   /* Enable the LIN mode by setting the LINEN bit in the CR2 register */
 476:Drivers/STM32F3xx_HAL_Driver/Src/stm32f3xx_hal_uart.c ****   SET_BIT(huart->Instance->CR2, USART_CR2_LINEN);
 477:Drivers/STM32F3xx_HAL_Driver/Src/stm32f3xx_hal_uart.c **** 
 478:Drivers/STM32F3xx_HAL_Driver/Src/stm32f3xx_hal_uart.c ****   /* Set the USART LIN Break detection length. */
 479:Drivers/STM32F3xx_HAL_Driver/Src/stm32f3xx_hal_uart.c ****   MODIFY_REG(huart->Instance->CR2, USART_CR2_LBDL, BreakDetectLength);
 480:Drivers/STM32F3xx_HAL_Driver/Src/stm32f3xx_hal_uart.c **** 
 481:Drivers/STM32F3xx_HAL_Driver/Src/stm32f3xx_hal_uart.c ****   /* Enable the Peripheral */
 482:Drivers/STM32F3xx_HAL_Driver/Src/stm32f3xx_hal_uart.c ****   __HAL_UART_ENABLE(huart);
 483:Drivers/STM32F3xx_HAL_Driver/Src/stm32f3xx_hal_uart.c **** 
 484:Drivers/STM32F3xx_HAL_Driver/Src/stm32f3xx_hal_uart.c ****   /* TEACK and/or REACK to check before moving huart->gState and huart->RxState to Ready */
 485:Drivers/STM32F3xx_HAL_Driver/Src/stm32f3xx_hal_uart.c ****   return (UART_CheckIdleState(huart));
 486:Drivers/STM32F3xx_HAL_Driver/Src/stm32f3xx_hal_uart.c **** }
ARM GAS  /tmp/ccinMcHI.s 			page 10


 487:Drivers/STM32F3xx_HAL_Driver/Src/stm32f3xx_hal_uart.c **** 
 488:Drivers/STM32F3xx_HAL_Driver/Src/stm32f3xx_hal_uart.c **** 
 489:Drivers/STM32F3xx_HAL_Driver/Src/stm32f3xx_hal_uart.c **** /**
 490:Drivers/STM32F3xx_HAL_Driver/Src/stm32f3xx_hal_uart.c ****   * @brief Initialize the multiprocessor mode according to the specified
 491:Drivers/STM32F3xx_HAL_Driver/Src/stm32f3xx_hal_uart.c ****   *        parameters in the UART_InitTypeDef and initialize the associated handle.
 492:Drivers/STM32F3xx_HAL_Driver/Src/stm32f3xx_hal_uart.c ****   * @param huart UART handle.
 493:Drivers/STM32F3xx_HAL_Driver/Src/stm32f3xx_hal_uart.c ****   * @param Address UART node address (4-, 6-, 7- or 8-bit long).
 494:Drivers/STM32F3xx_HAL_Driver/Src/stm32f3xx_hal_uart.c ****   * @param WakeUpMethod specifies the UART wakeup method.
 495:Drivers/STM32F3xx_HAL_Driver/Src/stm32f3xx_hal_uart.c ****   *        This parameter can be one of the following values:
 496:Drivers/STM32F3xx_HAL_Driver/Src/stm32f3xx_hal_uart.c ****   *          @arg @ref UART_WAKEUPMETHOD_IDLELINE WakeUp by an idle line detection
 497:Drivers/STM32F3xx_HAL_Driver/Src/stm32f3xx_hal_uart.c ****   *          @arg @ref UART_WAKEUPMETHOD_ADDRESSMARK WakeUp by an address mark
 498:Drivers/STM32F3xx_HAL_Driver/Src/stm32f3xx_hal_uart.c ****   * @note  If the user resorts to idle line detection wake up, the Address parameter
 499:Drivers/STM32F3xx_HAL_Driver/Src/stm32f3xx_hal_uart.c ****   *        is useless and ignored by the initialization function.
 500:Drivers/STM32F3xx_HAL_Driver/Src/stm32f3xx_hal_uart.c ****   * @note  If the user resorts to address mark wake up, the address length detection
 501:Drivers/STM32F3xx_HAL_Driver/Src/stm32f3xx_hal_uart.c ****   *        is configured by default to 4 bits only. For the UART to be able to
 502:Drivers/STM32F3xx_HAL_Driver/Src/stm32f3xx_hal_uart.c ****   *        manage 6-, 7- or 8-bit long addresses detection, the API
 503:Drivers/STM32F3xx_HAL_Driver/Src/stm32f3xx_hal_uart.c ****   *        HAL_MultiProcessorEx_AddressLength_Set() must be called after
 504:Drivers/STM32F3xx_HAL_Driver/Src/stm32f3xx_hal_uart.c ****   *        HAL_MultiProcessor_Init().
 505:Drivers/STM32F3xx_HAL_Driver/Src/stm32f3xx_hal_uart.c ****   * @retval HAL status
 506:Drivers/STM32F3xx_HAL_Driver/Src/stm32f3xx_hal_uart.c ****   */
 507:Drivers/STM32F3xx_HAL_Driver/Src/stm32f3xx_hal_uart.c **** HAL_StatusTypeDef HAL_MultiProcessor_Init(UART_HandleTypeDef *huart, uint8_t Address, uint32_t Wake
 508:Drivers/STM32F3xx_HAL_Driver/Src/stm32f3xx_hal_uart.c **** {
 509:Drivers/STM32F3xx_HAL_Driver/Src/stm32f3xx_hal_uart.c ****   /* Check the UART handle allocation */
 510:Drivers/STM32F3xx_HAL_Driver/Src/stm32f3xx_hal_uart.c ****   if(huart == NULL)
 511:Drivers/STM32F3xx_HAL_Driver/Src/stm32f3xx_hal_uart.c ****   {
 512:Drivers/STM32F3xx_HAL_Driver/Src/stm32f3xx_hal_uart.c ****     return HAL_ERROR;
 513:Drivers/STM32F3xx_HAL_Driver/Src/stm32f3xx_hal_uart.c ****   }
 514:Drivers/STM32F3xx_HAL_Driver/Src/stm32f3xx_hal_uart.c **** 
 515:Drivers/STM32F3xx_HAL_Driver/Src/stm32f3xx_hal_uart.c ****   /* Check the wake up method parameter */
 516:Drivers/STM32F3xx_HAL_Driver/Src/stm32f3xx_hal_uart.c ****   assert_param(IS_UART_WAKEUPMETHOD(WakeUpMethod));
 517:Drivers/STM32F3xx_HAL_Driver/Src/stm32f3xx_hal_uart.c **** 
 518:Drivers/STM32F3xx_HAL_Driver/Src/stm32f3xx_hal_uart.c ****   if(huart->gState == HAL_UART_STATE_RESET)
 519:Drivers/STM32F3xx_HAL_Driver/Src/stm32f3xx_hal_uart.c ****   {
 520:Drivers/STM32F3xx_HAL_Driver/Src/stm32f3xx_hal_uart.c ****     /* Allocate lock resource and initialize it */
 521:Drivers/STM32F3xx_HAL_Driver/Src/stm32f3xx_hal_uart.c ****     huart->Lock = HAL_UNLOCKED;
 522:Drivers/STM32F3xx_HAL_Driver/Src/stm32f3xx_hal_uart.c **** 
 523:Drivers/STM32F3xx_HAL_Driver/Src/stm32f3xx_hal_uart.c ****     /* Init the low level hardware : GPIO, CLOCK */
 524:Drivers/STM32F3xx_HAL_Driver/Src/stm32f3xx_hal_uart.c ****     HAL_UART_MspInit(huart);
 525:Drivers/STM32F3xx_HAL_Driver/Src/stm32f3xx_hal_uart.c ****   }
 526:Drivers/STM32F3xx_HAL_Driver/Src/stm32f3xx_hal_uart.c **** 
 527:Drivers/STM32F3xx_HAL_Driver/Src/stm32f3xx_hal_uart.c ****   huart->gState = HAL_UART_STATE_BUSY;
 528:Drivers/STM32F3xx_HAL_Driver/Src/stm32f3xx_hal_uart.c **** 
 529:Drivers/STM32F3xx_HAL_Driver/Src/stm32f3xx_hal_uart.c ****   /* Disable the Peripheral */
 530:Drivers/STM32F3xx_HAL_Driver/Src/stm32f3xx_hal_uart.c ****   __HAL_UART_DISABLE(huart);
 531:Drivers/STM32F3xx_HAL_Driver/Src/stm32f3xx_hal_uart.c **** 
 532:Drivers/STM32F3xx_HAL_Driver/Src/stm32f3xx_hal_uart.c ****   /* Set the UART Communication parameters */
 533:Drivers/STM32F3xx_HAL_Driver/Src/stm32f3xx_hal_uart.c ****   if (UART_SetConfig(huart) == HAL_ERROR)
 534:Drivers/STM32F3xx_HAL_Driver/Src/stm32f3xx_hal_uart.c ****   {
 535:Drivers/STM32F3xx_HAL_Driver/Src/stm32f3xx_hal_uart.c ****     return HAL_ERROR;
 536:Drivers/STM32F3xx_HAL_Driver/Src/stm32f3xx_hal_uart.c ****   }
 537:Drivers/STM32F3xx_HAL_Driver/Src/stm32f3xx_hal_uart.c **** 
 538:Drivers/STM32F3xx_HAL_Driver/Src/stm32f3xx_hal_uart.c ****   if (huart->AdvancedInit.AdvFeatureInit != UART_ADVFEATURE_NO_INIT)
 539:Drivers/STM32F3xx_HAL_Driver/Src/stm32f3xx_hal_uart.c ****   {
 540:Drivers/STM32F3xx_HAL_Driver/Src/stm32f3xx_hal_uart.c ****     UART_AdvFeatureConfig(huart);
 541:Drivers/STM32F3xx_HAL_Driver/Src/stm32f3xx_hal_uart.c ****   }
 542:Drivers/STM32F3xx_HAL_Driver/Src/stm32f3xx_hal_uart.c **** 
 543:Drivers/STM32F3xx_HAL_Driver/Src/stm32f3xx_hal_uart.c ****   /* In multiprocessor mode, the following bits must be kept cleared:
ARM GAS  /tmp/ccinMcHI.s 			page 11


 544:Drivers/STM32F3xx_HAL_Driver/Src/stm32f3xx_hal_uart.c ****   - LINEN and CLKEN bits in the USART_CR2 register,
 545:Drivers/STM32F3xx_HAL_Driver/Src/stm32f3xx_hal_uart.c ****   - SCEN, HDSEL and IREN  bits in the USART_CR3 register. */
 546:Drivers/STM32F3xx_HAL_Driver/Src/stm32f3xx_hal_uart.c ****   CLEAR_BIT(huart->Instance->CR2, (USART_CR2_LINEN | USART_CR2_CLKEN));
 547:Drivers/STM32F3xx_HAL_Driver/Src/stm32f3xx_hal_uart.c ****   CLEAR_BIT(huart->Instance->CR3, (USART_CR3_SCEN | USART_CR3_HDSEL | USART_CR3_IREN));
 548:Drivers/STM32F3xx_HAL_Driver/Src/stm32f3xx_hal_uart.c **** 
 549:Drivers/STM32F3xx_HAL_Driver/Src/stm32f3xx_hal_uart.c ****   if (WakeUpMethod == UART_WAKEUPMETHOD_ADDRESSMARK)
 550:Drivers/STM32F3xx_HAL_Driver/Src/stm32f3xx_hal_uart.c ****   {
 551:Drivers/STM32F3xx_HAL_Driver/Src/stm32f3xx_hal_uart.c ****     /* If address mark wake up method is chosen, set the USART address node */
 552:Drivers/STM32F3xx_HAL_Driver/Src/stm32f3xx_hal_uart.c ****     MODIFY_REG(huart->Instance->CR2, USART_CR2_ADD, ((uint32_t)Address << UART_CR2_ADDRESS_LSB_POS)
 553:Drivers/STM32F3xx_HAL_Driver/Src/stm32f3xx_hal_uart.c ****   }
 554:Drivers/STM32F3xx_HAL_Driver/Src/stm32f3xx_hal_uart.c **** 
 555:Drivers/STM32F3xx_HAL_Driver/Src/stm32f3xx_hal_uart.c ****   /* Set the wake up method by setting the WAKE bit in the CR1 register */
 556:Drivers/STM32F3xx_HAL_Driver/Src/stm32f3xx_hal_uart.c ****   MODIFY_REG(huart->Instance->CR1, USART_CR1_WAKE, WakeUpMethod);
 557:Drivers/STM32F3xx_HAL_Driver/Src/stm32f3xx_hal_uart.c **** 
 558:Drivers/STM32F3xx_HAL_Driver/Src/stm32f3xx_hal_uart.c ****   /* Enable the Peripheral */
 559:Drivers/STM32F3xx_HAL_Driver/Src/stm32f3xx_hal_uart.c ****   __HAL_UART_ENABLE(huart);
 560:Drivers/STM32F3xx_HAL_Driver/Src/stm32f3xx_hal_uart.c **** 
 561:Drivers/STM32F3xx_HAL_Driver/Src/stm32f3xx_hal_uart.c ****   /* TEACK and/or REACK to check before moving huart->gState and huart->RxState to Ready */
 562:Drivers/STM32F3xx_HAL_Driver/Src/stm32f3xx_hal_uart.c ****   return (UART_CheckIdleState(huart));
 563:Drivers/STM32F3xx_HAL_Driver/Src/stm32f3xx_hal_uart.c **** }
 564:Drivers/STM32F3xx_HAL_Driver/Src/stm32f3xx_hal_uart.c **** 
 565:Drivers/STM32F3xx_HAL_Driver/Src/stm32f3xx_hal_uart.c **** 
 566:Drivers/STM32F3xx_HAL_Driver/Src/stm32f3xx_hal_uart.c **** /**
 567:Drivers/STM32F3xx_HAL_Driver/Src/stm32f3xx_hal_uart.c ****   * @brief DeInitialize the UART peripheral.
 568:Drivers/STM32F3xx_HAL_Driver/Src/stm32f3xx_hal_uart.c ****   * @param huart UART handle.
 569:Drivers/STM32F3xx_HAL_Driver/Src/stm32f3xx_hal_uart.c ****   * @retval HAL status
 570:Drivers/STM32F3xx_HAL_Driver/Src/stm32f3xx_hal_uart.c ****   */
 571:Drivers/STM32F3xx_HAL_Driver/Src/stm32f3xx_hal_uart.c **** HAL_StatusTypeDef HAL_UART_DeInit(UART_HandleTypeDef *huart)
 572:Drivers/STM32F3xx_HAL_Driver/Src/stm32f3xx_hal_uart.c **** {
 573:Drivers/STM32F3xx_HAL_Driver/Src/stm32f3xx_hal_uart.c ****   /* Check the UART handle allocation */
 574:Drivers/STM32F3xx_HAL_Driver/Src/stm32f3xx_hal_uart.c ****   if(huart == NULL)
 575:Drivers/STM32F3xx_HAL_Driver/Src/stm32f3xx_hal_uart.c ****   {
 576:Drivers/STM32F3xx_HAL_Driver/Src/stm32f3xx_hal_uart.c ****     return HAL_ERROR;
 577:Drivers/STM32F3xx_HAL_Driver/Src/stm32f3xx_hal_uart.c ****   }
 578:Drivers/STM32F3xx_HAL_Driver/Src/stm32f3xx_hal_uart.c **** 
 579:Drivers/STM32F3xx_HAL_Driver/Src/stm32f3xx_hal_uart.c ****   /* Check the parameters */
 580:Drivers/STM32F3xx_HAL_Driver/Src/stm32f3xx_hal_uart.c ****   assert_param(IS_UART_INSTANCE(huart->Instance));
 581:Drivers/STM32F3xx_HAL_Driver/Src/stm32f3xx_hal_uart.c **** 
 582:Drivers/STM32F3xx_HAL_Driver/Src/stm32f3xx_hal_uart.c ****   huart->gState = HAL_UART_STATE_BUSY;
 583:Drivers/STM32F3xx_HAL_Driver/Src/stm32f3xx_hal_uart.c **** 
 584:Drivers/STM32F3xx_HAL_Driver/Src/stm32f3xx_hal_uart.c ****   /* Disable the Peripheral */
 585:Drivers/STM32F3xx_HAL_Driver/Src/stm32f3xx_hal_uart.c ****   __HAL_UART_DISABLE(huart);
 586:Drivers/STM32F3xx_HAL_Driver/Src/stm32f3xx_hal_uart.c **** 
 587:Drivers/STM32F3xx_HAL_Driver/Src/stm32f3xx_hal_uart.c ****   huart->Instance->CR1 = 0x0U;
 588:Drivers/STM32F3xx_HAL_Driver/Src/stm32f3xx_hal_uart.c ****   huart->Instance->CR2 = 0x0U;
 589:Drivers/STM32F3xx_HAL_Driver/Src/stm32f3xx_hal_uart.c ****   huart->Instance->CR3 = 0x0U;
 590:Drivers/STM32F3xx_HAL_Driver/Src/stm32f3xx_hal_uart.c **** 
 591:Drivers/STM32F3xx_HAL_Driver/Src/stm32f3xx_hal_uart.c ****   /* DeInit the low level hardware */
 592:Drivers/STM32F3xx_HAL_Driver/Src/stm32f3xx_hal_uart.c ****   HAL_UART_MspDeInit(huart);
 593:Drivers/STM32F3xx_HAL_Driver/Src/stm32f3xx_hal_uart.c **** 
 594:Drivers/STM32F3xx_HAL_Driver/Src/stm32f3xx_hal_uart.c ****   huart->ErrorCode = HAL_UART_ERROR_NONE;
 595:Drivers/STM32F3xx_HAL_Driver/Src/stm32f3xx_hal_uart.c ****   huart->gState    = HAL_UART_STATE_RESET;
 596:Drivers/STM32F3xx_HAL_Driver/Src/stm32f3xx_hal_uart.c ****   huart->RxState   = HAL_UART_STATE_RESET;
 597:Drivers/STM32F3xx_HAL_Driver/Src/stm32f3xx_hal_uart.c **** 
 598:Drivers/STM32F3xx_HAL_Driver/Src/stm32f3xx_hal_uart.c ****   /* Process Unlock */
 599:Drivers/STM32F3xx_HAL_Driver/Src/stm32f3xx_hal_uart.c ****   __HAL_UNLOCK(huart);
 600:Drivers/STM32F3xx_HAL_Driver/Src/stm32f3xx_hal_uart.c **** 
ARM GAS  /tmp/ccinMcHI.s 			page 12


 601:Drivers/STM32F3xx_HAL_Driver/Src/stm32f3xx_hal_uart.c ****   return HAL_OK;
 602:Drivers/STM32F3xx_HAL_Driver/Src/stm32f3xx_hal_uart.c **** }
 603:Drivers/STM32F3xx_HAL_Driver/Src/stm32f3xx_hal_uart.c **** 
 604:Drivers/STM32F3xx_HAL_Driver/Src/stm32f3xx_hal_uart.c **** /**
 605:Drivers/STM32F3xx_HAL_Driver/Src/stm32f3xx_hal_uart.c ****   * @brief Initialize the UART MSP.
 606:Drivers/STM32F3xx_HAL_Driver/Src/stm32f3xx_hal_uart.c ****   * @param huart UART handle.
 607:Drivers/STM32F3xx_HAL_Driver/Src/stm32f3xx_hal_uart.c ****   * @retval None
 608:Drivers/STM32F3xx_HAL_Driver/Src/stm32f3xx_hal_uart.c ****   */
 609:Drivers/STM32F3xx_HAL_Driver/Src/stm32f3xx_hal_uart.c **** __weak void HAL_UART_MspInit(UART_HandleTypeDef *huart)
 610:Drivers/STM32F3xx_HAL_Driver/Src/stm32f3xx_hal_uart.c **** {
  29              		.loc 1 610 0
  30              		.cfi_startproc
  31              		@ args = 0, pretend = 0, frame = 0
  32              		@ frame_needed = 0, uses_anonymous_args = 0
  33              		@ link register save eliminated.
  34              	.LVL0:
  35 0000 7047     		bx	lr
  36              		.cfi_endproc
  37              	.LFE697:
  39 0002 00BF     		.section	.text.HAL_UART_MspDeInit,"ax",%progbits
  40              		.align	2
  41              		.weak	HAL_UART_MspDeInit
  42              		.thumb
  43              		.thumb_func
  45              	HAL_UART_MspDeInit:
  46              	.LFB698:
 611:Drivers/STM32F3xx_HAL_Driver/Src/stm32f3xx_hal_uart.c ****   /* Prevent unused argument(s) compilation warning */
 612:Drivers/STM32F3xx_HAL_Driver/Src/stm32f3xx_hal_uart.c ****   UNUSED(huart);
 613:Drivers/STM32F3xx_HAL_Driver/Src/stm32f3xx_hal_uart.c **** 
 614:Drivers/STM32F3xx_HAL_Driver/Src/stm32f3xx_hal_uart.c ****   /* NOTE : This function should not be modified, when the callback is needed,
 615:Drivers/STM32F3xx_HAL_Driver/Src/stm32f3xx_hal_uart.c ****             the HAL_UART_MspInit can be implemented in the user file
 616:Drivers/STM32F3xx_HAL_Driver/Src/stm32f3xx_hal_uart.c ****    */
 617:Drivers/STM32F3xx_HAL_Driver/Src/stm32f3xx_hal_uart.c **** }
 618:Drivers/STM32F3xx_HAL_Driver/Src/stm32f3xx_hal_uart.c **** 
 619:Drivers/STM32F3xx_HAL_Driver/Src/stm32f3xx_hal_uart.c **** /**
 620:Drivers/STM32F3xx_HAL_Driver/Src/stm32f3xx_hal_uart.c ****   * @brief DeInitialize the UART MSP.
 621:Drivers/STM32F3xx_HAL_Driver/Src/stm32f3xx_hal_uart.c ****   * @param huart UART handle.
 622:Drivers/STM32F3xx_HAL_Driver/Src/stm32f3xx_hal_uart.c ****   * @retval None
 623:Drivers/STM32F3xx_HAL_Driver/Src/stm32f3xx_hal_uart.c ****   */
 624:Drivers/STM32F3xx_HAL_Driver/Src/stm32f3xx_hal_uart.c **** __weak void HAL_UART_MspDeInit(UART_HandleTypeDef *huart)
 625:Drivers/STM32F3xx_HAL_Driver/Src/stm32f3xx_hal_uart.c **** {
  47              		.loc 1 625 0
  48              		.cfi_startproc
  49              		@ args = 0, pretend = 0, frame = 0
  50              		@ frame_needed = 0, uses_anonymous_args = 0
  51              		@ link register save eliminated.
  52              	.LVL1:
  53 0000 7047     		bx	lr
  54              		.cfi_endproc
  55              	.LFE698:
  57 0002 00BF     		.section	.text.HAL_UART_DeInit,"ax",%progbits
  58              		.align	2
  59              		.global	HAL_UART_DeInit
  60              		.thumb
  61              		.thumb_func
  63              	HAL_UART_DeInit:
  64              	.LFB696:
ARM GAS  /tmp/ccinMcHI.s 			page 13


 572:Drivers/STM32F3xx_HAL_Driver/Src/stm32f3xx_hal_uart.c ****   /* Check the UART handle allocation */
  65              		.loc 1 572 0
  66              		.cfi_startproc
  67              		@ args = 0, pretend = 0, frame = 0
  68              		@ frame_needed = 0, uses_anonymous_args = 0
  69              	.LVL2:
 574:Drivers/STM32F3xx_HAL_Driver/Src/stm32f3xx_hal_uart.c ****   {
  70              		.loc 1 574 0
  71 0000 C0B1     		cbz	r0, .L5
 572:Drivers/STM32F3xx_HAL_Driver/Src/stm32f3xx_hal_uart.c ****   /* Check the UART handle allocation */
  72              		.loc 1 572 0
  73 0002 38B5     		push	{r3, r4, r5, lr}
  74              	.LCFI0:
  75              		.cfi_def_cfa_offset 16
  76              		.cfi_offset 3, -16
  77              		.cfi_offset 4, -12
  78              		.cfi_offset 5, -8
  79              		.cfi_offset 14, -4
 582:Drivers/STM32F3xx_HAL_Driver/Src/stm32f3xx_hal_uart.c **** 
  80              		.loc 1 582 0
  81 0004 2422     		movs	r2, #36
 585:Drivers/STM32F3xx_HAL_Driver/Src/stm32f3xx_hal_uart.c **** 
  82              		.loc 1 585 0
  83 0006 0368     		ldr	r3, [r0]
 582:Drivers/STM32F3xx_HAL_Driver/Src/stm32f3xx_hal_uart.c **** 
  84              		.loc 1 582 0
  85 0008 80F86920 		strb	r2, [r0, #105]
 585:Drivers/STM32F3xx_HAL_Driver/Src/stm32f3xx_hal_uart.c **** 
  86              		.loc 1 585 0
  87 000c 1A68     		ldr	r2, [r3]
 587:Drivers/STM32F3xx_HAL_Driver/Src/stm32f3xx_hal_uart.c ****   huart->Instance->CR2 = 0x0U;
  88              		.loc 1 587 0
  89 000e 0025     		movs	r5, #0
  90 0010 0446     		mov	r4, r0
 585:Drivers/STM32F3xx_HAL_Driver/Src/stm32f3xx_hal_uart.c **** 
  91              		.loc 1 585 0
  92 0012 22F00102 		bic	r2, r2, #1
  93 0016 1A60     		str	r2, [r3]
 587:Drivers/STM32F3xx_HAL_Driver/Src/stm32f3xx_hal_uart.c ****   huart->Instance->CR2 = 0x0U;
  94              		.loc 1 587 0
  95 0018 1D60     		str	r5, [r3]
 588:Drivers/STM32F3xx_HAL_Driver/Src/stm32f3xx_hal_uart.c ****   huart->Instance->CR3 = 0x0U;
  96              		.loc 1 588 0
  97 001a 5D60     		str	r5, [r3, #4]
 589:Drivers/STM32F3xx_HAL_Driver/Src/stm32f3xx_hal_uart.c **** 
  98              		.loc 1 589 0
  99 001c 9D60     		str	r5, [r3, #8]
 592:Drivers/STM32F3xx_HAL_Driver/Src/stm32f3xx_hal_uart.c **** 
 100              		.loc 1 592 0
 101 001e FFF7FEFF 		bl	HAL_UART_MspDeInit
 102              	.LVL3:
 594:Drivers/STM32F3xx_HAL_Driver/Src/stm32f3xx_hal_uart.c ****   huart->gState    = HAL_UART_STATE_RESET;
 103              		.loc 1 594 0
 104 0022 E566     		str	r5, [r4, #108]
 599:Drivers/STM32F3xx_HAL_Driver/Src/stm32f3xx_hal_uart.c **** 
 105              		.loc 1 599 0
 106 0024 84F86850 		strb	r5, [r4, #104]
ARM GAS  /tmp/ccinMcHI.s 			page 14


 595:Drivers/STM32F3xx_HAL_Driver/Src/stm32f3xx_hal_uart.c ****   huart->RxState   = HAL_UART_STATE_RESET;
 107              		.loc 1 595 0
 108 0028 84F86950 		strb	r5, [r4, #105]
 601:Drivers/STM32F3xx_HAL_Driver/Src/stm32f3xx_hal_uart.c **** }
 109              		.loc 1 601 0
 110 002c 2846     		mov	r0, r5
 596:Drivers/STM32F3xx_HAL_Driver/Src/stm32f3xx_hal_uart.c **** 
 111              		.loc 1 596 0
 112 002e 84F86A50 		strb	r5, [r4, #106]
 601:Drivers/STM32F3xx_HAL_Driver/Src/stm32f3xx_hal_uart.c **** }
 113              		.loc 1 601 0
 114 0032 38BD     		pop	{r3, r4, r5, pc}
 115              	.LVL4:
 116              	.L5:
 117              	.LCFI1:
 118              		.cfi_def_cfa_offset 0
 119              		.cfi_restore 3
 120              		.cfi_restore 4
 121              		.cfi_restore 5
 122              		.cfi_restore 14
 576:Drivers/STM32F3xx_HAL_Driver/Src/stm32f3xx_hal_uart.c ****   }
 123              		.loc 1 576 0
 124 0034 0120     		movs	r0, #1
 125              	.LVL5:
 126 0036 7047     		bx	lr
 127              		.cfi_endproc
 128              	.LFE696:
 130              		.section	.text.HAL_UART_Transmit_IT,"ax",%progbits
 131              		.align	2
 132              		.global	HAL_UART_Transmit_IT
 133              		.thumb
 134              		.thumb_func
 136              	HAL_UART_Transmit_IT:
 137              	.LFB701:
 626:Drivers/STM32F3xx_HAL_Driver/Src/stm32f3xx_hal_uart.c ****   /* Prevent unused argument(s) compilation warning */
 627:Drivers/STM32F3xx_HAL_Driver/Src/stm32f3xx_hal_uart.c ****   UNUSED(huart);
 628:Drivers/STM32F3xx_HAL_Driver/Src/stm32f3xx_hal_uart.c **** 
 629:Drivers/STM32F3xx_HAL_Driver/Src/stm32f3xx_hal_uart.c ****   /* NOTE : This function should not be modified, when the callback is needed,
 630:Drivers/STM32F3xx_HAL_Driver/Src/stm32f3xx_hal_uart.c ****             the HAL_UART_MspDeInit can be implemented in the user file
 631:Drivers/STM32F3xx_HAL_Driver/Src/stm32f3xx_hal_uart.c ****    */
 632:Drivers/STM32F3xx_HAL_Driver/Src/stm32f3xx_hal_uart.c **** }
 633:Drivers/STM32F3xx_HAL_Driver/Src/stm32f3xx_hal_uart.c **** 
 634:Drivers/STM32F3xx_HAL_Driver/Src/stm32f3xx_hal_uart.c **** /**
 635:Drivers/STM32F3xx_HAL_Driver/Src/stm32f3xx_hal_uart.c ****   * @}
 636:Drivers/STM32F3xx_HAL_Driver/Src/stm32f3xx_hal_uart.c ****   */
 637:Drivers/STM32F3xx_HAL_Driver/Src/stm32f3xx_hal_uart.c **** 
 638:Drivers/STM32F3xx_HAL_Driver/Src/stm32f3xx_hal_uart.c **** /** @defgroup UART_Exported_Functions_Group2 IO operation functions
 639:Drivers/STM32F3xx_HAL_Driver/Src/stm32f3xx_hal_uart.c ****   * @brief UART Transmit/Receive functions
 640:Drivers/STM32F3xx_HAL_Driver/Src/stm32f3xx_hal_uart.c ****   *
 641:Drivers/STM32F3xx_HAL_Driver/Src/stm32f3xx_hal_uart.c **** @verbatim
 642:Drivers/STM32F3xx_HAL_Driver/Src/stm32f3xx_hal_uart.c ****  ===============================================================================
 643:Drivers/STM32F3xx_HAL_Driver/Src/stm32f3xx_hal_uart.c ****                       ##### IO operation functions #####
 644:Drivers/STM32F3xx_HAL_Driver/Src/stm32f3xx_hal_uart.c ****  ===============================================================================
 645:Drivers/STM32F3xx_HAL_Driver/Src/stm32f3xx_hal_uart.c ****     This subsection provides a set of functions allowing to manage the UART asynchronous
 646:Drivers/STM32F3xx_HAL_Driver/Src/stm32f3xx_hal_uart.c ****     and Half duplex data transfers.
 647:Drivers/STM32F3xx_HAL_Driver/Src/stm32f3xx_hal_uart.c **** 
 648:Drivers/STM32F3xx_HAL_Driver/Src/stm32f3xx_hal_uart.c ****     (#) There are two mode of transfer:
ARM GAS  /tmp/ccinMcHI.s 			page 15


 649:Drivers/STM32F3xx_HAL_Driver/Src/stm32f3xx_hal_uart.c ****        (++) Blocking mode: The communication is performed in polling mode.
 650:Drivers/STM32F3xx_HAL_Driver/Src/stm32f3xx_hal_uart.c ****            The HAL status of all data processing is returned by the same function
 651:Drivers/STM32F3xx_HAL_Driver/Src/stm32f3xx_hal_uart.c ****            after finishing transfer.
 652:Drivers/STM32F3xx_HAL_Driver/Src/stm32f3xx_hal_uart.c ****        (++) Non-Blocking mode: The communication is performed using Interrupts
 653:Drivers/STM32F3xx_HAL_Driver/Src/stm32f3xx_hal_uart.c ****            or DMA, These API's return the HAL status.
 654:Drivers/STM32F3xx_HAL_Driver/Src/stm32f3xx_hal_uart.c ****            The end of the data processing will be indicated through the
 655:Drivers/STM32F3xx_HAL_Driver/Src/stm32f3xx_hal_uart.c ****            dedicated UART IRQ when using Interrupt mode or the DMA IRQ when
 656:Drivers/STM32F3xx_HAL_Driver/Src/stm32f3xx_hal_uart.c ****            using DMA mode.
 657:Drivers/STM32F3xx_HAL_Driver/Src/stm32f3xx_hal_uart.c ****            The HAL_UART_TxCpltCallback(), HAL_UART_RxCpltCallback() user callbacks
 658:Drivers/STM32F3xx_HAL_Driver/Src/stm32f3xx_hal_uart.c ****            will be executed respectively at the end of the transmit or Receive process
 659:Drivers/STM32F3xx_HAL_Driver/Src/stm32f3xx_hal_uart.c ****            The HAL_UART_ErrorCallback()user callback will be executed when a communication error is
 660:Drivers/STM32F3xx_HAL_Driver/Src/stm32f3xx_hal_uart.c **** 
 661:Drivers/STM32F3xx_HAL_Driver/Src/stm32f3xx_hal_uart.c ****     (#) Blocking mode API's are :
 662:Drivers/STM32F3xx_HAL_Driver/Src/stm32f3xx_hal_uart.c ****         (++) HAL_UART_Transmit()
 663:Drivers/STM32F3xx_HAL_Driver/Src/stm32f3xx_hal_uart.c ****         (++) HAL_UART_Receive()
 664:Drivers/STM32F3xx_HAL_Driver/Src/stm32f3xx_hal_uart.c **** 
 665:Drivers/STM32F3xx_HAL_Driver/Src/stm32f3xx_hal_uart.c ****     (#) Non-Blocking mode API's with Interrupt are :
 666:Drivers/STM32F3xx_HAL_Driver/Src/stm32f3xx_hal_uart.c ****         (++) HAL_UART_Transmit_IT()
 667:Drivers/STM32F3xx_HAL_Driver/Src/stm32f3xx_hal_uart.c ****         (++) HAL_UART_Receive_IT()
 668:Drivers/STM32F3xx_HAL_Driver/Src/stm32f3xx_hal_uart.c ****         (++) HAL_UART_IRQHandler()
 669:Drivers/STM32F3xx_HAL_Driver/Src/stm32f3xx_hal_uart.c **** 
 670:Drivers/STM32F3xx_HAL_Driver/Src/stm32f3xx_hal_uart.c ****     (#) Non-Blocking mode API's with DMA are :
 671:Drivers/STM32F3xx_HAL_Driver/Src/stm32f3xx_hal_uart.c ****         (++) HAL_UART_Transmit_DMA()
 672:Drivers/STM32F3xx_HAL_Driver/Src/stm32f3xx_hal_uart.c ****         (++) HAL_UART_Receive_DMA()
 673:Drivers/STM32F3xx_HAL_Driver/Src/stm32f3xx_hal_uart.c ****         (++) HAL_UART_DMAPause()
 674:Drivers/STM32F3xx_HAL_Driver/Src/stm32f3xx_hal_uart.c ****         (++) HAL_UART_DMAResume()
 675:Drivers/STM32F3xx_HAL_Driver/Src/stm32f3xx_hal_uart.c ****         (++) HAL_UART_DMAStop()
 676:Drivers/STM32F3xx_HAL_Driver/Src/stm32f3xx_hal_uart.c **** 
 677:Drivers/STM32F3xx_HAL_Driver/Src/stm32f3xx_hal_uart.c ****     (#) A set of Transfer Complete Callbacks are provided in Non_Blocking mode:
 678:Drivers/STM32F3xx_HAL_Driver/Src/stm32f3xx_hal_uart.c ****         (++) HAL_UART_TxHalfCpltCallback()
 679:Drivers/STM32F3xx_HAL_Driver/Src/stm32f3xx_hal_uart.c ****         (++) HAL_UART_TxCpltCallback()
 680:Drivers/STM32F3xx_HAL_Driver/Src/stm32f3xx_hal_uart.c ****         (++) HAL_UART_RxHalfCpltCallback()
 681:Drivers/STM32F3xx_HAL_Driver/Src/stm32f3xx_hal_uart.c ****         (++) HAL_UART_RxCpltCallback()
 682:Drivers/STM32F3xx_HAL_Driver/Src/stm32f3xx_hal_uart.c ****         (++) HAL_UART_ErrorCallback()
 683:Drivers/STM32F3xx_HAL_Driver/Src/stm32f3xx_hal_uart.c **** 
 684:Drivers/STM32F3xx_HAL_Driver/Src/stm32f3xx_hal_uart.c ****     (#) Non-Blocking mode transfers could be aborted using Abort API's :
 685:Drivers/STM32F3xx_HAL_Driver/Src/stm32f3xx_hal_uart.c ****         (++) HAL_UART_Abort()
 686:Drivers/STM32F3xx_HAL_Driver/Src/stm32f3xx_hal_uart.c ****         (++) HAL_UART_AbortTransmit()
 687:Drivers/STM32F3xx_HAL_Driver/Src/stm32f3xx_hal_uart.c ****         (++) HAL_UART_AbortReceive()
 688:Drivers/STM32F3xx_HAL_Driver/Src/stm32f3xx_hal_uart.c ****         (++) HAL_UART_Abort_IT()
 689:Drivers/STM32F3xx_HAL_Driver/Src/stm32f3xx_hal_uart.c ****         (++) HAL_UART_AbortTransmit_IT()
 690:Drivers/STM32F3xx_HAL_Driver/Src/stm32f3xx_hal_uart.c ****         (++) HAL_UART_AbortReceive_IT()
 691:Drivers/STM32F3xx_HAL_Driver/Src/stm32f3xx_hal_uart.c **** 
 692:Drivers/STM32F3xx_HAL_Driver/Src/stm32f3xx_hal_uart.c ****     (#) For Abort services based on interrupts (HAL_UART_Abortxxx_IT), a set of Abort Complete Call
 693:Drivers/STM32F3xx_HAL_Driver/Src/stm32f3xx_hal_uart.c ****         (++) HAL_UART_AbortCpltCallback()
 694:Drivers/STM32F3xx_HAL_Driver/Src/stm32f3xx_hal_uart.c ****         (++) HAL_UART_AbortTransmitCpltCallback()
 695:Drivers/STM32F3xx_HAL_Driver/Src/stm32f3xx_hal_uart.c ****         (++) HAL_UART_AbortReceiveCpltCallback()
 696:Drivers/STM32F3xx_HAL_Driver/Src/stm32f3xx_hal_uart.c **** 
 697:Drivers/STM32F3xx_HAL_Driver/Src/stm32f3xx_hal_uart.c ****     (#) In Non-Blocking mode transfers, possible errors are split into 2 categories.
 698:Drivers/STM32F3xx_HAL_Driver/Src/stm32f3xx_hal_uart.c ****         Errors are handled as follows :
 699:Drivers/STM32F3xx_HAL_Driver/Src/stm32f3xx_hal_uart.c ****         (++) Error is considered as Recoverable and non blocking : Transfer could go till end, but 
 700:Drivers/STM32F3xx_HAL_Driver/Src/stm32f3xx_hal_uart.c ****              to be evaluated by user : this concerns Frame Error, Parity Error or Noise Error in In
 701:Drivers/STM32F3xx_HAL_Driver/Src/stm32f3xx_hal_uart.c ****              Received character is then retrieved and stored in Rx buffer, Error code is set to all
 702:Drivers/STM32F3xx_HAL_Driver/Src/stm32f3xx_hal_uart.c ****              and HAL_UART_ErrorCallback() user callback is executed. Transfer is kept ongoing on UA
 703:Drivers/STM32F3xx_HAL_Driver/Src/stm32f3xx_hal_uart.c ****              If user wants to abort it, Abort services should be called by user.
 704:Drivers/STM32F3xx_HAL_Driver/Src/stm32f3xx_hal_uart.c ****         (++) Error is considered as Blocking : Transfer could not be completed properly and is abor
 705:Drivers/STM32F3xx_HAL_Driver/Src/stm32f3xx_hal_uart.c ****              This concerns Overrun Error In Interrupt mode reception and all errors in DMA mode.
ARM GAS  /tmp/ccinMcHI.s 			page 16


 706:Drivers/STM32F3xx_HAL_Driver/Src/stm32f3xx_hal_uart.c ****              Error code is set to allow user to identify error type, and HAL_UART_ErrorCallback() u
 707:Drivers/STM32F3xx_HAL_Driver/Src/stm32f3xx_hal_uart.c **** 
 708:Drivers/STM32F3xx_HAL_Driver/Src/stm32f3xx_hal_uart.c ****     -@- In the Half duplex communication, it is forbidden to run the transmit
 709:Drivers/STM32F3xx_HAL_Driver/Src/stm32f3xx_hal_uart.c ****         and receive process in parallel, the UART state HAL_UART_STATE_BUSY_TX_RX can't be useful.
 710:Drivers/STM32F3xx_HAL_Driver/Src/stm32f3xx_hal_uart.c **** 
 711:Drivers/STM32F3xx_HAL_Driver/Src/stm32f3xx_hal_uart.c **** @endverbatim
 712:Drivers/STM32F3xx_HAL_Driver/Src/stm32f3xx_hal_uart.c ****   * @{
 713:Drivers/STM32F3xx_HAL_Driver/Src/stm32f3xx_hal_uart.c ****   */
 714:Drivers/STM32F3xx_HAL_Driver/Src/stm32f3xx_hal_uart.c **** 
 715:Drivers/STM32F3xx_HAL_Driver/Src/stm32f3xx_hal_uart.c **** /**
 716:Drivers/STM32F3xx_HAL_Driver/Src/stm32f3xx_hal_uart.c ****   * @brief Send an amount of data in blocking mode.
 717:Drivers/STM32F3xx_HAL_Driver/Src/stm32f3xx_hal_uart.c ****   * @param huart UART handle.
 718:Drivers/STM32F3xx_HAL_Driver/Src/stm32f3xx_hal_uart.c ****   * @param pData Pointer to data buffer.
 719:Drivers/STM32F3xx_HAL_Driver/Src/stm32f3xx_hal_uart.c ****   * @param Size Amount of data to be sent.
 720:Drivers/STM32F3xx_HAL_Driver/Src/stm32f3xx_hal_uart.c ****   * @param Timeout Timeout duration.
 721:Drivers/STM32F3xx_HAL_Driver/Src/stm32f3xx_hal_uart.c ****   * @retval HAL status
 722:Drivers/STM32F3xx_HAL_Driver/Src/stm32f3xx_hal_uart.c ****   */
 723:Drivers/STM32F3xx_HAL_Driver/Src/stm32f3xx_hal_uart.c **** HAL_StatusTypeDef HAL_UART_Transmit(UART_HandleTypeDef *huart, uint8_t *pData, uint16_t Size, uint3
 724:Drivers/STM32F3xx_HAL_Driver/Src/stm32f3xx_hal_uart.c **** {
 725:Drivers/STM32F3xx_HAL_Driver/Src/stm32f3xx_hal_uart.c ****   uint16_t* tmp;
 726:Drivers/STM32F3xx_HAL_Driver/Src/stm32f3xx_hal_uart.c ****   uint32_t tickstart = 0U;
 727:Drivers/STM32F3xx_HAL_Driver/Src/stm32f3xx_hal_uart.c **** 
 728:Drivers/STM32F3xx_HAL_Driver/Src/stm32f3xx_hal_uart.c ****   /* Check that a Tx process is not already ongoing */
 729:Drivers/STM32F3xx_HAL_Driver/Src/stm32f3xx_hal_uart.c ****   if(huart->gState == HAL_UART_STATE_READY)
 730:Drivers/STM32F3xx_HAL_Driver/Src/stm32f3xx_hal_uart.c ****   {
 731:Drivers/STM32F3xx_HAL_Driver/Src/stm32f3xx_hal_uart.c ****     if((pData == NULL ) || (Size == 0U))
 732:Drivers/STM32F3xx_HAL_Driver/Src/stm32f3xx_hal_uart.c ****     {
 733:Drivers/STM32F3xx_HAL_Driver/Src/stm32f3xx_hal_uart.c ****       return  HAL_ERROR;
 734:Drivers/STM32F3xx_HAL_Driver/Src/stm32f3xx_hal_uart.c ****     }
 735:Drivers/STM32F3xx_HAL_Driver/Src/stm32f3xx_hal_uart.c **** 
 736:Drivers/STM32F3xx_HAL_Driver/Src/stm32f3xx_hal_uart.c ****     /* Process Locked */
 737:Drivers/STM32F3xx_HAL_Driver/Src/stm32f3xx_hal_uart.c ****     __HAL_LOCK(huart);
 738:Drivers/STM32F3xx_HAL_Driver/Src/stm32f3xx_hal_uart.c **** 
 739:Drivers/STM32F3xx_HAL_Driver/Src/stm32f3xx_hal_uart.c ****     huart->ErrorCode = HAL_UART_ERROR_NONE;
 740:Drivers/STM32F3xx_HAL_Driver/Src/stm32f3xx_hal_uart.c ****     huart->gState = HAL_UART_STATE_BUSY_TX;
 741:Drivers/STM32F3xx_HAL_Driver/Src/stm32f3xx_hal_uart.c **** 
 742:Drivers/STM32F3xx_HAL_Driver/Src/stm32f3xx_hal_uart.c ****     /* Init tickstart for timeout managment*/
 743:Drivers/STM32F3xx_HAL_Driver/Src/stm32f3xx_hal_uart.c ****     tickstart = HAL_GetTick();
 744:Drivers/STM32F3xx_HAL_Driver/Src/stm32f3xx_hal_uart.c **** 
 745:Drivers/STM32F3xx_HAL_Driver/Src/stm32f3xx_hal_uart.c ****     huart->TxXferSize = Size;
 746:Drivers/STM32F3xx_HAL_Driver/Src/stm32f3xx_hal_uart.c ****     huart->TxXferCount = Size;
 747:Drivers/STM32F3xx_HAL_Driver/Src/stm32f3xx_hal_uart.c ****     while(huart->TxXferCount > 0U)
 748:Drivers/STM32F3xx_HAL_Driver/Src/stm32f3xx_hal_uart.c ****     {
 749:Drivers/STM32F3xx_HAL_Driver/Src/stm32f3xx_hal_uart.c ****       huart->TxXferCount--;
 750:Drivers/STM32F3xx_HAL_Driver/Src/stm32f3xx_hal_uart.c ****       if(UART_WaitOnFlagUntilTimeout(huart, UART_FLAG_TXE, RESET, tickstart, Timeout) != HAL_OK)
 751:Drivers/STM32F3xx_HAL_Driver/Src/stm32f3xx_hal_uart.c ****       {
 752:Drivers/STM32F3xx_HAL_Driver/Src/stm32f3xx_hal_uart.c ****         return HAL_TIMEOUT;
 753:Drivers/STM32F3xx_HAL_Driver/Src/stm32f3xx_hal_uart.c ****       }
 754:Drivers/STM32F3xx_HAL_Driver/Src/stm32f3xx_hal_uart.c ****       if ((huart->Init.WordLength == UART_WORDLENGTH_9B) && (huart->Init.Parity == UART_PARITY_NONE
 755:Drivers/STM32F3xx_HAL_Driver/Src/stm32f3xx_hal_uart.c ****       {
 756:Drivers/STM32F3xx_HAL_Driver/Src/stm32f3xx_hal_uart.c ****         tmp = (uint16_t*) pData;
 757:Drivers/STM32F3xx_HAL_Driver/Src/stm32f3xx_hal_uart.c ****         huart->Instance->TDR = (*tmp & (uint16_t)0x01FFU);
 758:Drivers/STM32F3xx_HAL_Driver/Src/stm32f3xx_hal_uart.c ****         pData += 2U;
 759:Drivers/STM32F3xx_HAL_Driver/Src/stm32f3xx_hal_uart.c ****       }
 760:Drivers/STM32F3xx_HAL_Driver/Src/stm32f3xx_hal_uart.c ****       else
 761:Drivers/STM32F3xx_HAL_Driver/Src/stm32f3xx_hal_uart.c ****       {
 762:Drivers/STM32F3xx_HAL_Driver/Src/stm32f3xx_hal_uart.c ****         huart->Instance->TDR = (*pData++ & (uint8_t)0xFFU);
ARM GAS  /tmp/ccinMcHI.s 			page 17


 763:Drivers/STM32F3xx_HAL_Driver/Src/stm32f3xx_hal_uart.c ****       }
 764:Drivers/STM32F3xx_HAL_Driver/Src/stm32f3xx_hal_uart.c ****     }
 765:Drivers/STM32F3xx_HAL_Driver/Src/stm32f3xx_hal_uart.c ****     if(UART_WaitOnFlagUntilTimeout(huart, UART_FLAG_TC, RESET, tickstart, Timeout) != HAL_OK)
 766:Drivers/STM32F3xx_HAL_Driver/Src/stm32f3xx_hal_uart.c ****     {
 767:Drivers/STM32F3xx_HAL_Driver/Src/stm32f3xx_hal_uart.c ****       return HAL_TIMEOUT;
 768:Drivers/STM32F3xx_HAL_Driver/Src/stm32f3xx_hal_uart.c ****     }
 769:Drivers/STM32F3xx_HAL_Driver/Src/stm32f3xx_hal_uart.c **** 
 770:Drivers/STM32F3xx_HAL_Driver/Src/stm32f3xx_hal_uart.c ****     /* At end of Tx process, restore huart->gState to Ready */
 771:Drivers/STM32F3xx_HAL_Driver/Src/stm32f3xx_hal_uart.c ****     huart->gState = HAL_UART_STATE_READY;
 772:Drivers/STM32F3xx_HAL_Driver/Src/stm32f3xx_hal_uart.c **** 
 773:Drivers/STM32F3xx_HAL_Driver/Src/stm32f3xx_hal_uart.c ****     /* Process Unlocked */
 774:Drivers/STM32F3xx_HAL_Driver/Src/stm32f3xx_hal_uart.c ****     __HAL_UNLOCK(huart);
 775:Drivers/STM32F3xx_HAL_Driver/Src/stm32f3xx_hal_uart.c **** 
 776:Drivers/STM32F3xx_HAL_Driver/Src/stm32f3xx_hal_uart.c ****     return HAL_OK;
 777:Drivers/STM32F3xx_HAL_Driver/Src/stm32f3xx_hal_uart.c ****   }
 778:Drivers/STM32F3xx_HAL_Driver/Src/stm32f3xx_hal_uart.c ****   else
 779:Drivers/STM32F3xx_HAL_Driver/Src/stm32f3xx_hal_uart.c ****   {
 780:Drivers/STM32F3xx_HAL_Driver/Src/stm32f3xx_hal_uart.c ****     return HAL_BUSY;
 781:Drivers/STM32F3xx_HAL_Driver/Src/stm32f3xx_hal_uart.c ****   }
 782:Drivers/STM32F3xx_HAL_Driver/Src/stm32f3xx_hal_uart.c **** }
 783:Drivers/STM32F3xx_HAL_Driver/Src/stm32f3xx_hal_uart.c **** 
 784:Drivers/STM32F3xx_HAL_Driver/Src/stm32f3xx_hal_uart.c **** /**
 785:Drivers/STM32F3xx_HAL_Driver/Src/stm32f3xx_hal_uart.c ****   * @brief Receive an amount of data in blocking mode.
 786:Drivers/STM32F3xx_HAL_Driver/Src/stm32f3xx_hal_uart.c ****   * @param huart UART handle.
 787:Drivers/STM32F3xx_HAL_Driver/Src/stm32f3xx_hal_uart.c ****   * @param pData pointer to data buffer.
 788:Drivers/STM32F3xx_HAL_Driver/Src/stm32f3xx_hal_uart.c ****   * @param Size amount of data to be received.
 789:Drivers/STM32F3xx_HAL_Driver/Src/stm32f3xx_hal_uart.c ****   * @param Timeout Timeout duration.
 790:Drivers/STM32F3xx_HAL_Driver/Src/stm32f3xx_hal_uart.c ****   * @retval HAL status
 791:Drivers/STM32F3xx_HAL_Driver/Src/stm32f3xx_hal_uart.c ****   */
 792:Drivers/STM32F3xx_HAL_Driver/Src/stm32f3xx_hal_uart.c **** HAL_StatusTypeDef HAL_UART_Receive(UART_HandleTypeDef *huart, uint8_t *pData, uint16_t Size, uint32
 793:Drivers/STM32F3xx_HAL_Driver/Src/stm32f3xx_hal_uart.c **** {
 794:Drivers/STM32F3xx_HAL_Driver/Src/stm32f3xx_hal_uart.c ****   uint16_t* tmp;
 795:Drivers/STM32F3xx_HAL_Driver/Src/stm32f3xx_hal_uart.c ****   uint16_t uhMask;
 796:Drivers/STM32F3xx_HAL_Driver/Src/stm32f3xx_hal_uart.c ****   uint32_t tickstart = 0U;
 797:Drivers/STM32F3xx_HAL_Driver/Src/stm32f3xx_hal_uart.c **** 
 798:Drivers/STM32F3xx_HAL_Driver/Src/stm32f3xx_hal_uart.c ****   /* Check that a Rx process is not already ongoing */
 799:Drivers/STM32F3xx_HAL_Driver/Src/stm32f3xx_hal_uart.c ****   if(huart->RxState == HAL_UART_STATE_READY)
 800:Drivers/STM32F3xx_HAL_Driver/Src/stm32f3xx_hal_uart.c ****   {
 801:Drivers/STM32F3xx_HAL_Driver/Src/stm32f3xx_hal_uart.c ****     if((pData == NULL ) || (Size == 0U))
 802:Drivers/STM32F3xx_HAL_Driver/Src/stm32f3xx_hal_uart.c ****     {
 803:Drivers/STM32F3xx_HAL_Driver/Src/stm32f3xx_hal_uart.c ****       return  HAL_ERROR;
 804:Drivers/STM32F3xx_HAL_Driver/Src/stm32f3xx_hal_uart.c ****     }
 805:Drivers/STM32F3xx_HAL_Driver/Src/stm32f3xx_hal_uart.c **** 
 806:Drivers/STM32F3xx_HAL_Driver/Src/stm32f3xx_hal_uart.c ****     /* Process Locked */
 807:Drivers/STM32F3xx_HAL_Driver/Src/stm32f3xx_hal_uart.c ****     __HAL_LOCK(huart);
 808:Drivers/STM32F3xx_HAL_Driver/Src/stm32f3xx_hal_uart.c **** 
 809:Drivers/STM32F3xx_HAL_Driver/Src/stm32f3xx_hal_uart.c ****     huart->ErrorCode = HAL_UART_ERROR_NONE;
 810:Drivers/STM32F3xx_HAL_Driver/Src/stm32f3xx_hal_uart.c ****     huart->RxState = HAL_UART_STATE_BUSY_RX;
 811:Drivers/STM32F3xx_HAL_Driver/Src/stm32f3xx_hal_uart.c **** 
 812:Drivers/STM32F3xx_HAL_Driver/Src/stm32f3xx_hal_uart.c ****     /* Init tickstart for timeout managment*/
 813:Drivers/STM32F3xx_HAL_Driver/Src/stm32f3xx_hal_uart.c ****     tickstart = HAL_GetTick();
 814:Drivers/STM32F3xx_HAL_Driver/Src/stm32f3xx_hal_uart.c **** 
 815:Drivers/STM32F3xx_HAL_Driver/Src/stm32f3xx_hal_uart.c ****     huart->RxXferSize = Size;
 816:Drivers/STM32F3xx_HAL_Driver/Src/stm32f3xx_hal_uart.c ****     huart->RxXferCount = Size;
 817:Drivers/STM32F3xx_HAL_Driver/Src/stm32f3xx_hal_uart.c **** 
 818:Drivers/STM32F3xx_HAL_Driver/Src/stm32f3xx_hal_uart.c ****     /* Computation of UART mask to apply to RDR register */
 819:Drivers/STM32F3xx_HAL_Driver/Src/stm32f3xx_hal_uart.c ****     UART_MASK_COMPUTATION(huart);
ARM GAS  /tmp/ccinMcHI.s 			page 18


 820:Drivers/STM32F3xx_HAL_Driver/Src/stm32f3xx_hal_uart.c ****     uhMask = huart->Mask;
 821:Drivers/STM32F3xx_HAL_Driver/Src/stm32f3xx_hal_uart.c **** 
 822:Drivers/STM32F3xx_HAL_Driver/Src/stm32f3xx_hal_uart.c ****     /* as long as data have to be received */
 823:Drivers/STM32F3xx_HAL_Driver/Src/stm32f3xx_hal_uart.c ****     while(huart->RxXferCount > 0U)
 824:Drivers/STM32F3xx_HAL_Driver/Src/stm32f3xx_hal_uart.c ****     {
 825:Drivers/STM32F3xx_HAL_Driver/Src/stm32f3xx_hal_uart.c ****       huart->RxXferCount--;
 826:Drivers/STM32F3xx_HAL_Driver/Src/stm32f3xx_hal_uart.c ****       if(UART_WaitOnFlagUntilTimeout(huart, UART_FLAG_RXNE, RESET, tickstart, Timeout) != HAL_OK)
 827:Drivers/STM32F3xx_HAL_Driver/Src/stm32f3xx_hal_uart.c ****       {
 828:Drivers/STM32F3xx_HAL_Driver/Src/stm32f3xx_hal_uart.c ****         return HAL_TIMEOUT;
 829:Drivers/STM32F3xx_HAL_Driver/Src/stm32f3xx_hal_uart.c ****       }
 830:Drivers/STM32F3xx_HAL_Driver/Src/stm32f3xx_hal_uart.c ****       if ((huart->Init.WordLength == UART_WORDLENGTH_9B) && (huart->Init.Parity == UART_PARITY_NONE
 831:Drivers/STM32F3xx_HAL_Driver/Src/stm32f3xx_hal_uart.c ****       {
 832:Drivers/STM32F3xx_HAL_Driver/Src/stm32f3xx_hal_uart.c ****         tmp = (uint16_t*) pData ;
 833:Drivers/STM32F3xx_HAL_Driver/Src/stm32f3xx_hal_uart.c ****         *tmp = (uint16_t)(huart->Instance->RDR & uhMask);
 834:Drivers/STM32F3xx_HAL_Driver/Src/stm32f3xx_hal_uart.c ****         pData +=2U;
 835:Drivers/STM32F3xx_HAL_Driver/Src/stm32f3xx_hal_uart.c ****       }
 836:Drivers/STM32F3xx_HAL_Driver/Src/stm32f3xx_hal_uart.c ****       else
 837:Drivers/STM32F3xx_HAL_Driver/Src/stm32f3xx_hal_uart.c ****       {
 838:Drivers/STM32F3xx_HAL_Driver/Src/stm32f3xx_hal_uart.c ****         *pData++ = (uint8_t)(huart->Instance->RDR & (uint8_t)uhMask);
 839:Drivers/STM32F3xx_HAL_Driver/Src/stm32f3xx_hal_uart.c ****       }
 840:Drivers/STM32F3xx_HAL_Driver/Src/stm32f3xx_hal_uart.c ****     }
 841:Drivers/STM32F3xx_HAL_Driver/Src/stm32f3xx_hal_uart.c **** 
 842:Drivers/STM32F3xx_HAL_Driver/Src/stm32f3xx_hal_uart.c ****     /* At end of Rx process, restore huart->RxState to Ready */
 843:Drivers/STM32F3xx_HAL_Driver/Src/stm32f3xx_hal_uart.c ****     huart->RxState = HAL_UART_STATE_READY;
 844:Drivers/STM32F3xx_HAL_Driver/Src/stm32f3xx_hal_uart.c **** 
 845:Drivers/STM32F3xx_HAL_Driver/Src/stm32f3xx_hal_uart.c ****     /* Process Unlocked */
 846:Drivers/STM32F3xx_HAL_Driver/Src/stm32f3xx_hal_uart.c ****     __HAL_UNLOCK(huart);
 847:Drivers/STM32F3xx_HAL_Driver/Src/stm32f3xx_hal_uart.c **** 
 848:Drivers/STM32F3xx_HAL_Driver/Src/stm32f3xx_hal_uart.c ****     return HAL_OK;
 849:Drivers/STM32F3xx_HAL_Driver/Src/stm32f3xx_hal_uart.c ****   }
 850:Drivers/STM32F3xx_HAL_Driver/Src/stm32f3xx_hal_uart.c ****   else
 851:Drivers/STM32F3xx_HAL_Driver/Src/stm32f3xx_hal_uart.c ****   {
 852:Drivers/STM32F3xx_HAL_Driver/Src/stm32f3xx_hal_uart.c ****     return HAL_BUSY;
 853:Drivers/STM32F3xx_HAL_Driver/Src/stm32f3xx_hal_uart.c ****   }
 854:Drivers/STM32F3xx_HAL_Driver/Src/stm32f3xx_hal_uart.c **** }
 855:Drivers/STM32F3xx_HAL_Driver/Src/stm32f3xx_hal_uart.c **** 
 856:Drivers/STM32F3xx_HAL_Driver/Src/stm32f3xx_hal_uart.c **** /**
 857:Drivers/STM32F3xx_HAL_Driver/Src/stm32f3xx_hal_uart.c ****   * @brief Send an amount of data in interrupt mode.
 858:Drivers/STM32F3xx_HAL_Driver/Src/stm32f3xx_hal_uart.c ****   * @param huart UART handle.
 859:Drivers/STM32F3xx_HAL_Driver/Src/stm32f3xx_hal_uart.c ****   * @param pData pointer to data buffer.
 860:Drivers/STM32F3xx_HAL_Driver/Src/stm32f3xx_hal_uart.c ****   * @param Size amount of data to be sent.
 861:Drivers/STM32F3xx_HAL_Driver/Src/stm32f3xx_hal_uart.c ****   * @retval HAL status
 862:Drivers/STM32F3xx_HAL_Driver/Src/stm32f3xx_hal_uart.c ****   */
 863:Drivers/STM32F3xx_HAL_Driver/Src/stm32f3xx_hal_uart.c **** HAL_StatusTypeDef HAL_UART_Transmit_IT(UART_HandleTypeDef *huart, uint8_t *pData, uint16_t Size)
 864:Drivers/STM32F3xx_HAL_Driver/Src/stm32f3xx_hal_uart.c **** {
 138              		.loc 1 864 0
 139              		.cfi_startproc
 140              		@ args = 0, pretend = 0, frame = 0
 141              		@ frame_needed = 0, uses_anonymous_args = 0
 142              		@ link register save eliminated.
 143              	.LVL6:
 865:Drivers/STM32F3xx_HAL_Driver/Src/stm32f3xx_hal_uart.c ****   /* Check that a Tx process is not already ongoing */
 866:Drivers/STM32F3xx_HAL_Driver/Src/stm32f3xx_hal_uart.c ****   if(huart->gState == HAL_UART_STATE_READY)
 144              		.loc 1 866 0
 145 0000 90F86930 		ldrb	r3, [r0, #105]	@ zero_extendqisi2
 146 0004 202B     		cmp	r3, #32
 147 0006 01D0     		beq	.L17
ARM GAS  /tmp/ccinMcHI.s 			page 19


 148              	.L14:
 867:Drivers/STM32F3xx_HAL_Driver/Src/stm32f3xx_hal_uart.c ****   {
 868:Drivers/STM32F3xx_HAL_Driver/Src/stm32f3xx_hal_uart.c ****     if((pData == NULL ) || (Size == 0U))
 869:Drivers/STM32F3xx_HAL_Driver/Src/stm32f3xx_hal_uart.c ****     {
 870:Drivers/STM32F3xx_HAL_Driver/Src/stm32f3xx_hal_uart.c ****       return HAL_ERROR;
 871:Drivers/STM32F3xx_HAL_Driver/Src/stm32f3xx_hal_uart.c ****     }
 872:Drivers/STM32F3xx_HAL_Driver/Src/stm32f3xx_hal_uart.c **** 
 873:Drivers/STM32F3xx_HAL_Driver/Src/stm32f3xx_hal_uart.c ****     /* Process Locked */
 874:Drivers/STM32F3xx_HAL_Driver/Src/stm32f3xx_hal_uart.c ****     __HAL_LOCK(huart);
 875:Drivers/STM32F3xx_HAL_Driver/Src/stm32f3xx_hal_uart.c **** 
 876:Drivers/STM32F3xx_HAL_Driver/Src/stm32f3xx_hal_uart.c ****     huart->pTxBuffPtr = pData;
 877:Drivers/STM32F3xx_HAL_Driver/Src/stm32f3xx_hal_uart.c ****     huart->TxXferSize = Size;
 878:Drivers/STM32F3xx_HAL_Driver/Src/stm32f3xx_hal_uart.c ****     huart->TxXferCount = Size;
 879:Drivers/STM32F3xx_HAL_Driver/Src/stm32f3xx_hal_uart.c **** 
 880:Drivers/STM32F3xx_HAL_Driver/Src/stm32f3xx_hal_uart.c ****     huart->ErrorCode = HAL_UART_ERROR_NONE;
 881:Drivers/STM32F3xx_HAL_Driver/Src/stm32f3xx_hal_uart.c ****     huart->gState = HAL_UART_STATE_BUSY_TX;
 882:Drivers/STM32F3xx_HAL_Driver/Src/stm32f3xx_hal_uart.c **** 
 883:Drivers/STM32F3xx_HAL_Driver/Src/stm32f3xx_hal_uart.c ****     /* Process Unlocked */
 884:Drivers/STM32F3xx_HAL_Driver/Src/stm32f3xx_hal_uart.c ****     __HAL_UNLOCK(huart);
 885:Drivers/STM32F3xx_HAL_Driver/Src/stm32f3xx_hal_uart.c **** 
 886:Drivers/STM32F3xx_HAL_Driver/Src/stm32f3xx_hal_uart.c ****     /* Enable the UART Transmit Data Register Empty Interrupt */
 887:Drivers/STM32F3xx_HAL_Driver/Src/stm32f3xx_hal_uart.c ****     SET_BIT(huart->Instance->CR1, USART_CR1_TXEIE);
 888:Drivers/STM32F3xx_HAL_Driver/Src/stm32f3xx_hal_uart.c **** 
 889:Drivers/STM32F3xx_HAL_Driver/Src/stm32f3xx_hal_uart.c ****     return HAL_OK;
 890:Drivers/STM32F3xx_HAL_Driver/Src/stm32f3xx_hal_uart.c ****   }
 891:Drivers/STM32F3xx_HAL_Driver/Src/stm32f3xx_hal_uart.c ****   else
 892:Drivers/STM32F3xx_HAL_Driver/Src/stm32f3xx_hal_uart.c ****   {
 893:Drivers/STM32F3xx_HAL_Driver/Src/stm32f3xx_hal_uart.c ****     return HAL_BUSY;
 149              		.loc 1 893 0
 150 0008 0220     		movs	r0, #2
 151              	.LVL7:
 152 000a 7047     		bx	lr
 153              	.LVL8:
 154              	.L17:
 868:Drivers/STM32F3xx_HAL_Driver/Src/stm32f3xx_hal_uart.c ****     {
 155              		.loc 1 868 0
 156 000c C9B1     		cbz	r1, .L13
 868:Drivers/STM32F3xx_HAL_Driver/Src/stm32f3xx_hal_uart.c ****     {
 157              		.loc 1 868 0 is_stmt 0 discriminator 1
 158 000e C2B1     		cbz	r2, .L13
 874:Drivers/STM32F3xx_HAL_Driver/Src/stm32f3xx_hal_uart.c **** 
 159              		.loc 1 874 0 is_stmt 1
 160 0010 90F86830 		ldrb	r3, [r0, #104]	@ zero_extendqisi2
 161 0014 012B     		cmp	r3, #1
 162 0016 F7D0     		beq	.L14
 864:Drivers/STM32F3xx_HAL_Driver/Src/stm32f3xx_hal_uart.c ****   /* Check that a Tx process is not already ongoing */
 163              		.loc 1 864 0 discriminator 2
 164 0018 30B4     		push	{r4, r5}
 165              	.LCFI2:
 166              		.cfi_def_cfa_offset 8
 167              		.cfi_offset 4, -8
 168              		.cfi_offset 5, -4
 880:Drivers/STM32F3xx_HAL_Driver/Src/stm32f3xx_hal_uart.c ****     huart->gState = HAL_UART_STATE_BUSY_TX;
 169              		.loc 1 880 0 discriminator 2
 170 001a 0023     		movs	r3, #0
 887:Drivers/STM32F3xx_HAL_Driver/Src/stm32f3xx_hal_uart.c **** 
 171              		.loc 1 887 0 discriminator 2
ARM GAS  /tmp/ccinMcHI.s 			page 20


 172 001c 0568     		ldr	r5, [r0]
 878:Drivers/STM32F3xx_HAL_Driver/Src/stm32f3xx_hal_uart.c **** 
 173              		.loc 1 878 0 discriminator 2
 174 001e A0F85220 		strh	r2, [r0, #82]	@ movhi
 881:Drivers/STM32F3xx_HAL_Driver/Src/stm32f3xx_hal_uart.c **** 
 175              		.loc 1 881 0 discriminator 2
 176 0022 2124     		movs	r4, #33
 880:Drivers/STM32F3xx_HAL_Driver/Src/stm32f3xx_hal_uart.c ****     huart->gState = HAL_UART_STATE_BUSY_TX;
 177              		.loc 1 880 0 discriminator 2
 178 0024 C366     		str	r3, [r0, #108]
 881:Drivers/STM32F3xx_HAL_Driver/Src/stm32f3xx_hal_uart.c **** 
 179              		.loc 1 881 0 discriminator 2
 180 0026 80F86940 		strb	r4, [r0, #105]
 887:Drivers/STM32F3xx_HAL_Driver/Src/stm32f3xx_hal_uart.c **** 
 181              		.loc 1 887 0 discriminator 2
 182 002a 2C68     		ldr	r4, [r5]
 876:Drivers/STM32F3xx_HAL_Driver/Src/stm32f3xx_hal_uart.c ****     huart->TxXferSize = Size;
 183              		.loc 1 876 0 discriminator 2
 184 002c C164     		str	r1, [r0, #76]
 887:Drivers/STM32F3xx_HAL_Driver/Src/stm32f3xx_hal_uart.c **** 
 185              		.loc 1 887 0 discriminator 2
 186 002e 44F08001 		orr	r1, r4, #128
 187              	.LVL9:
 877:Drivers/STM32F3xx_HAL_Driver/Src/stm32f3xx_hal_uart.c ****     huart->TxXferCount = Size;
 188              		.loc 1 877 0 discriminator 2
 189 0032 A0F85020 		strh	r2, [r0, #80]	@ movhi
 884:Drivers/STM32F3xx_HAL_Driver/Src/stm32f3xx_hal_uart.c **** 
 190              		.loc 1 884 0 discriminator 2
 191 0036 80F86830 		strb	r3, [r0, #104]
 889:Drivers/STM32F3xx_HAL_Driver/Src/stm32f3xx_hal_uart.c ****   }
 192              		.loc 1 889 0 discriminator 2
 193 003a 1846     		mov	r0, r3
 194              	.LVL10:
 887:Drivers/STM32F3xx_HAL_Driver/Src/stm32f3xx_hal_uart.c **** 
 195              		.loc 1 887 0 discriminator 2
 196 003c 2960     		str	r1, [r5]
 894:Drivers/STM32F3xx_HAL_Driver/Src/stm32f3xx_hal_uart.c ****   }
 895:Drivers/STM32F3xx_HAL_Driver/Src/stm32f3xx_hal_uart.c **** }
 197              		.loc 1 895 0 discriminator 2
 198 003e 30BC     		pop	{r4, r5}
 199              	.LCFI3:
 200              		.cfi_restore 5
 201              		.cfi_restore 4
 202              		.cfi_def_cfa_offset 0
 203 0040 7047     		bx	lr
 204              	.LVL11:
 205              	.L13:
 870:Drivers/STM32F3xx_HAL_Driver/Src/stm32f3xx_hal_uart.c ****     }
 206              		.loc 1 870 0
 207 0042 0120     		movs	r0, #1
 208              	.LVL12:
 209 0044 7047     		bx	lr
 210              		.cfi_endproc
 211              	.LFE701:
 213 0046 00BF     		.section	.text.HAL_UART_Receive_IT,"ax",%progbits
 214              		.align	2
 215              		.global	HAL_UART_Receive_IT
ARM GAS  /tmp/ccinMcHI.s 			page 21


 216              		.thumb
 217              		.thumb_func
 219              	HAL_UART_Receive_IT:
 220              	.LFB702:
 896:Drivers/STM32F3xx_HAL_Driver/Src/stm32f3xx_hal_uart.c **** 
 897:Drivers/STM32F3xx_HAL_Driver/Src/stm32f3xx_hal_uart.c **** /**
 898:Drivers/STM32F3xx_HAL_Driver/Src/stm32f3xx_hal_uart.c ****   * @brief Receive an amount of data in interrupt mode.
 899:Drivers/STM32F3xx_HAL_Driver/Src/stm32f3xx_hal_uart.c ****   * @param huart UART handle.
 900:Drivers/STM32F3xx_HAL_Driver/Src/stm32f3xx_hal_uart.c ****   * @param pData pointer to data buffer.
 901:Drivers/STM32F3xx_HAL_Driver/Src/stm32f3xx_hal_uart.c ****   * @param Size amount of data to be received.
 902:Drivers/STM32F3xx_HAL_Driver/Src/stm32f3xx_hal_uart.c ****   * @retval HAL status
 903:Drivers/STM32F3xx_HAL_Driver/Src/stm32f3xx_hal_uart.c ****   */
 904:Drivers/STM32F3xx_HAL_Driver/Src/stm32f3xx_hal_uart.c **** HAL_StatusTypeDef HAL_UART_Receive_IT(UART_HandleTypeDef *huart, uint8_t *pData, uint16_t Size)
 905:Drivers/STM32F3xx_HAL_Driver/Src/stm32f3xx_hal_uart.c **** {
 221              		.loc 1 905 0
 222              		.cfi_startproc
 223              		@ args = 0, pretend = 0, frame = 0
 224              		@ frame_needed = 0, uses_anonymous_args = 0
 225              		@ link register save eliminated.
 226              	.LVL13:
 906:Drivers/STM32F3xx_HAL_Driver/Src/stm32f3xx_hal_uart.c ****   /* Check that a Rx process is not already ongoing */
 907:Drivers/STM32F3xx_HAL_Driver/Src/stm32f3xx_hal_uart.c ****   if(huart->RxState == HAL_UART_STATE_READY)
 227              		.loc 1 907 0
 228 0000 90F86A30 		ldrb	r3, [r0, #106]	@ zero_extendqisi2
 229 0004 202B     		cmp	r3, #32
 230 0006 01D0     		beq	.L35
 231              	.L28:
 908:Drivers/STM32F3xx_HAL_Driver/Src/stm32f3xx_hal_uart.c ****   {
 909:Drivers/STM32F3xx_HAL_Driver/Src/stm32f3xx_hal_uart.c ****     if((pData == NULL ) || (Size == 0U))
 910:Drivers/STM32F3xx_HAL_Driver/Src/stm32f3xx_hal_uart.c ****     {
 911:Drivers/STM32F3xx_HAL_Driver/Src/stm32f3xx_hal_uart.c ****       return HAL_ERROR;
 912:Drivers/STM32F3xx_HAL_Driver/Src/stm32f3xx_hal_uart.c ****     }
 913:Drivers/STM32F3xx_HAL_Driver/Src/stm32f3xx_hal_uart.c **** 
 914:Drivers/STM32F3xx_HAL_Driver/Src/stm32f3xx_hal_uart.c ****     /* Process Locked */
 915:Drivers/STM32F3xx_HAL_Driver/Src/stm32f3xx_hal_uart.c ****     __HAL_LOCK(huart);
 916:Drivers/STM32F3xx_HAL_Driver/Src/stm32f3xx_hal_uart.c **** 
 917:Drivers/STM32F3xx_HAL_Driver/Src/stm32f3xx_hal_uart.c ****     huart->pRxBuffPtr = pData;
 918:Drivers/STM32F3xx_HAL_Driver/Src/stm32f3xx_hal_uart.c ****     huart->RxXferSize = Size;
 919:Drivers/STM32F3xx_HAL_Driver/Src/stm32f3xx_hal_uart.c ****     huart->RxXferCount = Size;
 920:Drivers/STM32F3xx_HAL_Driver/Src/stm32f3xx_hal_uart.c **** 
 921:Drivers/STM32F3xx_HAL_Driver/Src/stm32f3xx_hal_uart.c ****     /* Computation of UART mask to apply to RDR register */
 922:Drivers/STM32F3xx_HAL_Driver/Src/stm32f3xx_hal_uart.c ****     UART_MASK_COMPUTATION(huart);
 923:Drivers/STM32F3xx_HAL_Driver/Src/stm32f3xx_hal_uart.c **** 
 924:Drivers/STM32F3xx_HAL_Driver/Src/stm32f3xx_hal_uart.c ****     huart->ErrorCode = HAL_UART_ERROR_NONE;
 925:Drivers/STM32F3xx_HAL_Driver/Src/stm32f3xx_hal_uart.c ****     huart->RxState = HAL_UART_STATE_BUSY_RX;
 926:Drivers/STM32F3xx_HAL_Driver/Src/stm32f3xx_hal_uart.c **** 
 927:Drivers/STM32F3xx_HAL_Driver/Src/stm32f3xx_hal_uart.c ****     /* Process Unlocked */
 928:Drivers/STM32F3xx_HAL_Driver/Src/stm32f3xx_hal_uart.c ****     __HAL_UNLOCK(huart);
 929:Drivers/STM32F3xx_HAL_Driver/Src/stm32f3xx_hal_uart.c **** 
 930:Drivers/STM32F3xx_HAL_Driver/Src/stm32f3xx_hal_uart.c ****     /* Enable the UART Error Interrupt: (Frame error, noise error, overrun error) */
 931:Drivers/STM32F3xx_HAL_Driver/Src/stm32f3xx_hal_uart.c ****     SET_BIT(huart->Instance->CR3, USART_CR3_EIE);
 932:Drivers/STM32F3xx_HAL_Driver/Src/stm32f3xx_hal_uart.c **** 
 933:Drivers/STM32F3xx_HAL_Driver/Src/stm32f3xx_hal_uart.c ****     /* Enable the UART Parity Error and Data Register not empty Interrupts */
 934:Drivers/STM32F3xx_HAL_Driver/Src/stm32f3xx_hal_uart.c ****     SET_BIT(huart->Instance->CR1, USART_CR1_PEIE | USART_CR1_RXNEIE);
 935:Drivers/STM32F3xx_HAL_Driver/Src/stm32f3xx_hal_uart.c **** 
 936:Drivers/STM32F3xx_HAL_Driver/Src/stm32f3xx_hal_uart.c ****     return HAL_OK;
 937:Drivers/STM32F3xx_HAL_Driver/Src/stm32f3xx_hal_uart.c ****   }
ARM GAS  /tmp/ccinMcHI.s 			page 22


 938:Drivers/STM32F3xx_HAL_Driver/Src/stm32f3xx_hal_uart.c ****   else
 939:Drivers/STM32F3xx_HAL_Driver/Src/stm32f3xx_hal_uart.c ****   {
 940:Drivers/STM32F3xx_HAL_Driver/Src/stm32f3xx_hal_uart.c ****     return HAL_BUSY;
 232              		.loc 1 940 0
 233 0008 0220     		movs	r0, #2
 234              	.LVL14:
 941:Drivers/STM32F3xx_HAL_Driver/Src/stm32f3xx_hal_uart.c ****   }
 942:Drivers/STM32F3xx_HAL_Driver/Src/stm32f3xx_hal_uart.c **** }
 235              		.loc 1 942 0
 236 000a 7047     		bx	lr
 237              	.LVL15:
 238              	.L35:
 909:Drivers/STM32F3xx_HAL_Driver/Src/stm32f3xx_hal_uart.c ****     {
 239              		.loc 1 909 0
 240 000c 49B3     		cbz	r1, .L27
 909:Drivers/STM32F3xx_HAL_Driver/Src/stm32f3xx_hal_uart.c ****     {
 241              		.loc 1 909 0 is_stmt 0 discriminator 1
 242 000e 42B3     		cbz	r2, .L27
 915:Drivers/STM32F3xx_HAL_Driver/Src/stm32f3xx_hal_uart.c **** 
 243              		.loc 1 915 0 is_stmt 1
 244 0010 90F86830 		ldrb	r3, [r0, #104]	@ zero_extendqisi2
 245 0014 012B     		cmp	r3, #1
 246 0016 F7D0     		beq	.L28
 922:Drivers/STM32F3xx_HAL_Driver/Src/stm32f3xx_hal_uart.c **** 
 247              		.loc 1 922 0 discriminator 2
 248 0018 8368     		ldr	r3, [r0, #8]
 917:Drivers/STM32F3xx_HAL_Driver/Src/stm32f3xx_hal_uart.c ****     huart->RxXferSize = Size;
 249              		.loc 1 917 0 discriminator 2
 250 001a 4165     		str	r1, [r0, #84]
 922:Drivers/STM32F3xx_HAL_Driver/Src/stm32f3xx_hal_uart.c **** 
 251              		.loc 1 922 0 discriminator 2
 252 001c B3F5805F 		cmp	r3, #4096
 915:Drivers/STM32F3xx_HAL_Driver/Src/stm32f3xx_hal_uart.c **** 
 253              		.loc 1 915 0 discriminator 2
 254 0020 4FF00101 		mov	r1, #1
 255              	.LVL16:
 918:Drivers/STM32F3xx_HAL_Driver/Src/stm32f3xx_hal_uart.c ****     huart->RxXferCount = Size;
 256              		.loc 1 918 0 discriminator 2
 257 0024 A0F85820 		strh	r2, [r0, #88]	@ movhi
 919:Drivers/STM32F3xx_HAL_Driver/Src/stm32f3xx_hal_uart.c **** 
 258              		.loc 1 919 0 discriminator 2
 259 0028 A0F85A20 		strh	r2, [r0, #90]	@ movhi
 915:Drivers/STM32F3xx_HAL_Driver/Src/stm32f3xx_hal_uart.c **** 
 260              		.loc 1 915 0 discriminator 2
 261 002c 80F86810 		strb	r1, [r0, #104]
 922:Drivers/STM32F3xx_HAL_Driver/Src/stm32f3xx_hal_uart.c **** 
 262              		.loc 1 922 0 discriminator 2
 263 0030 27D0     		beq	.L36
 264 0032 C3B9     		cbnz	r3, .L23
 922:Drivers/STM32F3xx_HAL_Driver/Src/stm32f3xx_hal_uart.c **** 
 265              		.loc 1 922 0 is_stmt 0 discriminator 5
 266 0034 0369     		ldr	r3, [r0, #16]
 267 0036 03B3     		cbz	r3, .L21
 268              	.L24:
 922:Drivers/STM32F3xx_HAL_Driver/Src/stm32f3xx_hal_uart.c **** 
 269              		.loc 1 922 0 discriminator 8
 270 0038 7F23     		movs	r3, #127
ARM GAS  /tmp/ccinMcHI.s 			page 23


 271 003a A0F85C30 		strh	r3, [r0, #92]	@ movhi
 272              	.L22:
 931:Drivers/STM32F3xx_HAL_Driver/Src/stm32f3xx_hal_uart.c **** 
 273              		.loc 1 931 0 is_stmt 1
 274 003e 0268     		ldr	r2, [r0]
 275              	.LVL17:
 924:Drivers/STM32F3xx_HAL_Driver/Src/stm32f3xx_hal_uart.c ****     huart->RxState = HAL_UART_STATE_BUSY_RX;
 276              		.loc 1 924 0
 277 0040 0023     		movs	r3, #0
 925:Drivers/STM32F3xx_HAL_Driver/Src/stm32f3xx_hal_uart.c **** 
 278              		.loc 1 925 0
 279 0042 2221     		movs	r1, #34
 924:Drivers/STM32F3xx_HAL_Driver/Src/stm32f3xx_hal_uart.c ****     huart->RxState = HAL_UART_STATE_BUSY_RX;
 280              		.loc 1 924 0
 281 0044 C366     		str	r3, [r0, #108]
 925:Drivers/STM32F3xx_HAL_Driver/Src/stm32f3xx_hal_uart.c **** 
 282              		.loc 1 925 0
 283 0046 80F86A10 		strb	r1, [r0, #106]
 931:Drivers/STM32F3xx_HAL_Driver/Src/stm32f3xx_hal_uart.c **** 
 284              		.loc 1 931 0
 285 004a 9168     		ldr	r1, [r2, #8]
 928:Drivers/STM32F3xx_HAL_Driver/Src/stm32f3xx_hal_uart.c **** 
 286              		.loc 1 928 0
 287 004c 80F86830 		strb	r3, [r0, #104]
 931:Drivers/STM32F3xx_HAL_Driver/Src/stm32f3xx_hal_uart.c **** 
 288              		.loc 1 931 0
 289 0050 41F00101 		orr	r1, r1, #1
 290 0054 9160     		str	r1, [r2, #8]
 934:Drivers/STM32F3xx_HAL_Driver/Src/stm32f3xx_hal_uart.c **** 
 291              		.loc 1 934 0
 292 0056 1168     		ldr	r1, [r2]
 293 0058 41F49071 		orr	r1, r1, #288
 936:Drivers/STM32F3xx_HAL_Driver/Src/stm32f3xx_hal_uart.c ****   }
 294              		.loc 1 936 0
 295 005c 1846     		mov	r0, r3
 296              	.LVL18:
 934:Drivers/STM32F3xx_HAL_Driver/Src/stm32f3xx_hal_uart.c **** 
 297              		.loc 1 934 0
 298 005e 1160     		str	r1, [r2]
 936:Drivers/STM32F3xx_HAL_Driver/Src/stm32f3xx_hal_uart.c ****   }
 299              		.loc 1 936 0
 300 0060 7047     		bx	lr
 301              	.LVL19:
 302              	.L27:
 911:Drivers/STM32F3xx_HAL_Driver/Src/stm32f3xx_hal_uart.c ****     }
 303              		.loc 1 911 0
 304 0062 0120     		movs	r0, #1
 305              	.LVL20:
 306 0064 7047     		bx	lr
 307              	.LVL21:
 308              	.L23:
 922:Drivers/STM32F3xx_HAL_Driver/Src/stm32f3xx_hal_uart.c **** 
 309              		.loc 1 922 0 discriminator 6
 310 0066 B3F1805F 		cmp	r3, #268435456
 311 006a E8D1     		bne	.L22
 922:Drivers/STM32F3xx_HAL_Driver/Src/stm32f3xx_hal_uart.c **** 
 312              		.loc 1 922 0 is_stmt 0 discriminator 9
ARM GAS  /tmp/ccinMcHI.s 			page 24


 313 006c 0369     		ldr	r3, [r0, #16]
 314 006e 002B     		cmp	r3, #0
 315 0070 E2D0     		beq	.L24
 922:Drivers/STM32F3xx_HAL_Driver/Src/stm32f3xx_hal_uart.c **** 
 316              		.loc 1 922 0 discriminator 11
 317 0072 3F23     		movs	r3, #63
 318 0074 A0F85C30 		strh	r3, [r0, #92]	@ movhi
 319 0078 E1E7     		b	.L22
 320              	.L21:
 922:Drivers/STM32F3xx_HAL_Driver/Src/stm32f3xx_hal_uart.c **** 
 321              		.loc 1 922 0 discriminator 4
 322 007a FF23     		movs	r3, #255
 323 007c A0F85C30 		strh	r3, [r0, #92]	@ movhi
 324 0080 DDE7     		b	.L22
 325              	.L36:
 922:Drivers/STM32F3xx_HAL_Driver/Src/stm32f3xx_hal_uart.c **** 
 326              		.loc 1 922 0 discriminator 1
 327 0082 0369     		ldr	r3, [r0, #16]
 328 0084 002B     		cmp	r3, #0
 329 0086 F8D1     		bne	.L21
 922:Drivers/STM32F3xx_HAL_Driver/Src/stm32f3xx_hal_uart.c **** 
 330              		.loc 1 922 0 discriminator 3
 331 0088 40F2FF13 		movw	r3, #511
 332 008c A0F85C30 		strh	r3, [r0, #92]	@ movhi
 333 0090 D5E7     		b	.L22
 334              		.cfi_endproc
 335              	.LFE702:
 337 0092 00BF     		.section	.text.HAL_UART_Transmit_DMA,"ax",%progbits
 338              		.align	2
 339              		.global	HAL_UART_Transmit_DMA
 340              		.thumb
 341              		.thumb_func
 343              	HAL_UART_Transmit_DMA:
 344              	.LFB703:
 943:Drivers/STM32F3xx_HAL_Driver/Src/stm32f3xx_hal_uart.c **** 
 944:Drivers/STM32F3xx_HAL_Driver/Src/stm32f3xx_hal_uart.c **** /**
 945:Drivers/STM32F3xx_HAL_Driver/Src/stm32f3xx_hal_uart.c ****   * @brief Send an amount of data in DMA mode.
 946:Drivers/STM32F3xx_HAL_Driver/Src/stm32f3xx_hal_uart.c ****   * @param huart UART handle.
 947:Drivers/STM32F3xx_HAL_Driver/Src/stm32f3xx_hal_uart.c ****   * @param pData pointer to data buffer.
 948:Drivers/STM32F3xx_HAL_Driver/Src/stm32f3xx_hal_uart.c ****   * @param Size amount of data to be sent.
 949:Drivers/STM32F3xx_HAL_Driver/Src/stm32f3xx_hal_uart.c ****   * @note This function starts a DMA transfer in interrupt mode meaning that
 950:Drivers/STM32F3xx_HAL_Driver/Src/stm32f3xx_hal_uart.c ****   *       DMA half transfer complete, DMA transfer complete and DMA transfer
 951:Drivers/STM32F3xx_HAL_Driver/Src/stm32f3xx_hal_uart.c ****   *       error interrupts are enabled
 952:Drivers/STM32F3xx_HAL_Driver/Src/stm32f3xx_hal_uart.c ****   * @retval HAL status
 953:Drivers/STM32F3xx_HAL_Driver/Src/stm32f3xx_hal_uart.c ****   */
 954:Drivers/STM32F3xx_HAL_Driver/Src/stm32f3xx_hal_uart.c **** HAL_StatusTypeDef HAL_UART_Transmit_DMA(UART_HandleTypeDef *huart, uint8_t *pData, uint16_t Size)
 955:Drivers/STM32F3xx_HAL_Driver/Src/stm32f3xx_hal_uart.c **** {
 345              		.loc 1 955 0 is_stmt 1
 346              		.cfi_startproc
 347              		@ args = 0, pretend = 0, frame = 0
 348              		@ frame_needed = 0, uses_anonymous_args = 0
 349              	.LVL22:
 350 0000 2DE9F843 		push	{r3, r4, r5, r6, r7, r8, r9, lr}
 351              	.LCFI4:
 352              		.cfi_def_cfa_offset 32
 353              		.cfi_offset 3, -32
 354              		.cfi_offset 4, -28
ARM GAS  /tmp/ccinMcHI.s 			page 25


 355              		.cfi_offset 5, -24
 356              		.cfi_offset 6, -20
 357              		.cfi_offset 7, -16
 358              		.cfi_offset 8, -12
 359              		.cfi_offset 9, -8
 360              		.cfi_offset 14, -4
 361              		.loc 1 955 0
 362 0004 0446     		mov	r4, r0
 956:Drivers/STM32F3xx_HAL_Driver/Src/stm32f3xx_hal_uart.c ****   /* Check if UART instance supports continuous communication using DMA */
 957:Drivers/STM32F3xx_HAL_Driver/Src/stm32f3xx_hal_uart.c ****   assert_param(IS_UART_DMA_INSTANCE(huart->Instance));
 958:Drivers/STM32F3xx_HAL_Driver/Src/stm32f3xx_hal_uart.c **** 
 959:Drivers/STM32F3xx_HAL_Driver/Src/stm32f3xx_hal_uart.c ****   /* Check that a Tx process is not already ongoing */
 960:Drivers/STM32F3xx_HAL_Driver/Src/stm32f3xx_hal_uart.c ****   if(huart->gState == HAL_UART_STATE_READY)
 363              		.loc 1 960 0
 364 0006 90F86900 		ldrb	r0, [r0, #105]	@ zero_extendqisi2
 365              	.LVL23:
 366 000a 2028     		cmp	r0, #32
 367 000c 02D0     		beq	.L44
 368              	.L42:
 961:Drivers/STM32F3xx_HAL_Driver/Src/stm32f3xx_hal_uart.c ****   {
 962:Drivers/STM32F3xx_HAL_Driver/Src/stm32f3xx_hal_uart.c ****     if((pData == NULL ) || (Size == 0U))
 963:Drivers/STM32F3xx_HAL_Driver/Src/stm32f3xx_hal_uart.c ****     {
 964:Drivers/STM32F3xx_HAL_Driver/Src/stm32f3xx_hal_uart.c ****       return HAL_ERROR;
 965:Drivers/STM32F3xx_HAL_Driver/Src/stm32f3xx_hal_uart.c ****     }
 966:Drivers/STM32F3xx_HAL_Driver/Src/stm32f3xx_hal_uart.c **** 
 967:Drivers/STM32F3xx_HAL_Driver/Src/stm32f3xx_hal_uart.c ****     /* Process Locked */
 968:Drivers/STM32F3xx_HAL_Driver/Src/stm32f3xx_hal_uart.c ****     __HAL_LOCK(huart);
 969:Drivers/STM32F3xx_HAL_Driver/Src/stm32f3xx_hal_uart.c **** 
 970:Drivers/STM32F3xx_HAL_Driver/Src/stm32f3xx_hal_uart.c ****     huart->pTxBuffPtr = pData;
 971:Drivers/STM32F3xx_HAL_Driver/Src/stm32f3xx_hal_uart.c ****     huart->TxXferSize = Size;
 972:Drivers/STM32F3xx_HAL_Driver/Src/stm32f3xx_hal_uart.c ****     huart->TxXferCount = Size;
 973:Drivers/STM32F3xx_HAL_Driver/Src/stm32f3xx_hal_uart.c **** 
 974:Drivers/STM32F3xx_HAL_Driver/Src/stm32f3xx_hal_uart.c ****     huart->ErrorCode = HAL_UART_ERROR_NONE;
 975:Drivers/STM32F3xx_HAL_Driver/Src/stm32f3xx_hal_uart.c ****     huart->gState = HAL_UART_STATE_BUSY_TX;
 976:Drivers/STM32F3xx_HAL_Driver/Src/stm32f3xx_hal_uart.c **** 
 977:Drivers/STM32F3xx_HAL_Driver/Src/stm32f3xx_hal_uart.c ****     /* Set the UART DMA transfer complete callback */
 978:Drivers/STM32F3xx_HAL_Driver/Src/stm32f3xx_hal_uart.c ****     huart->hdmatx->XferCpltCallback = UART_DMATransmitCplt;
 979:Drivers/STM32F3xx_HAL_Driver/Src/stm32f3xx_hal_uart.c **** 
 980:Drivers/STM32F3xx_HAL_Driver/Src/stm32f3xx_hal_uart.c ****     /* Set the UART DMA Half transfer complete callback */
 981:Drivers/STM32F3xx_HAL_Driver/Src/stm32f3xx_hal_uart.c ****     huart->hdmatx->XferHalfCpltCallback = UART_DMATxHalfCplt;
 982:Drivers/STM32F3xx_HAL_Driver/Src/stm32f3xx_hal_uart.c **** 
 983:Drivers/STM32F3xx_HAL_Driver/Src/stm32f3xx_hal_uart.c ****     /* Set the DMA error callback */
 984:Drivers/STM32F3xx_HAL_Driver/Src/stm32f3xx_hal_uart.c ****     huart->hdmatx->XferErrorCallback = UART_DMAError;
 985:Drivers/STM32F3xx_HAL_Driver/Src/stm32f3xx_hal_uart.c **** 
 986:Drivers/STM32F3xx_HAL_Driver/Src/stm32f3xx_hal_uart.c ****     /* Set the DMA abort callback */
 987:Drivers/STM32F3xx_HAL_Driver/Src/stm32f3xx_hal_uart.c ****     huart->hdmatx->XferAbortCallback = NULL;
 988:Drivers/STM32F3xx_HAL_Driver/Src/stm32f3xx_hal_uart.c **** 
 989:Drivers/STM32F3xx_HAL_Driver/Src/stm32f3xx_hal_uart.c ****     /* Enable the UART transmit DMA channel */
 990:Drivers/STM32F3xx_HAL_Driver/Src/stm32f3xx_hal_uart.c ****     HAL_DMA_Start_IT(huart->hdmatx, (uint32_t)huart->pTxBuffPtr, (uint32_t)&huart->Instance->TDR, S
 991:Drivers/STM32F3xx_HAL_Driver/Src/stm32f3xx_hal_uart.c **** 
 992:Drivers/STM32F3xx_HAL_Driver/Src/stm32f3xx_hal_uart.c ****     /* Clear the TC flag in the ICR register */
 993:Drivers/STM32F3xx_HAL_Driver/Src/stm32f3xx_hal_uart.c ****     __HAL_UART_CLEAR_FLAG(huart, UART_CLEAR_TCF);
 994:Drivers/STM32F3xx_HAL_Driver/Src/stm32f3xx_hal_uart.c **** 
 995:Drivers/STM32F3xx_HAL_Driver/Src/stm32f3xx_hal_uart.c ****     /* Process Unlocked */
 996:Drivers/STM32F3xx_HAL_Driver/Src/stm32f3xx_hal_uart.c ****     __HAL_UNLOCK(huart);
 997:Drivers/STM32F3xx_HAL_Driver/Src/stm32f3xx_hal_uart.c **** 
 998:Drivers/STM32F3xx_HAL_Driver/Src/stm32f3xx_hal_uart.c ****     /* Enable the DMA transfer for transmit request by setting the DMAT bit
ARM GAS  /tmp/ccinMcHI.s 			page 26


 999:Drivers/STM32F3xx_HAL_Driver/Src/stm32f3xx_hal_uart.c ****        in the UART CR3 register */
1000:Drivers/STM32F3xx_HAL_Driver/Src/stm32f3xx_hal_uart.c ****     SET_BIT(huart->Instance->CR3, USART_CR3_DMAT);
1001:Drivers/STM32F3xx_HAL_Driver/Src/stm32f3xx_hal_uart.c **** 
1002:Drivers/STM32F3xx_HAL_Driver/Src/stm32f3xx_hal_uart.c ****     return HAL_OK;
1003:Drivers/STM32F3xx_HAL_Driver/Src/stm32f3xx_hal_uart.c ****   }
1004:Drivers/STM32F3xx_HAL_Driver/Src/stm32f3xx_hal_uart.c ****   else
1005:Drivers/STM32F3xx_HAL_Driver/Src/stm32f3xx_hal_uart.c ****   {
1006:Drivers/STM32F3xx_HAL_Driver/Src/stm32f3xx_hal_uart.c ****     return HAL_BUSY;
 369              		.loc 1 1006 0
 370 000e 0220     		movs	r0, #2
1007:Drivers/STM32F3xx_HAL_Driver/Src/stm32f3xx_hal_uart.c ****   }
1008:Drivers/STM32F3xx_HAL_Driver/Src/stm32f3xx_hal_uart.c **** }
 371              		.loc 1 1008 0
 372 0010 BDE8F883 		pop	{r3, r4, r5, r6, r7, r8, r9, pc}
 373              	.LVL24:
 374              	.L44:
 962:Drivers/STM32F3xx_HAL_Driver/Src/stm32f3xx_hal_uart.c ****     {
 375              		.loc 1 962 0
 376 0014 99B3     		cbz	r1, .L41
 962:Drivers/STM32F3xx_HAL_Driver/Src/stm32f3xx_hal_uart.c ****     {
 377              		.loc 1 962 0 is_stmt 0 discriminator 1
 378 0016 92B3     		cbz	r2, .L41
 968:Drivers/STM32F3xx_HAL_Driver/Src/stm32f3xx_hal_uart.c **** 
 379              		.loc 1 968 0 is_stmt 1
 380 0018 94F86800 		ldrb	r0, [r4, #104]	@ zero_extendqisi2
 381 001c 0128     		cmp	r0, #1
 382 001e F6D0     		beq	.L42
 978:Drivers/STM32F3xx_HAL_Driver/Src/stm32f3xx_hal_uart.c **** 
 383              		.loc 1 978 0 discriminator 2
 384 0020 266E     		ldr	r6, [r4, #96]
 990:Drivers/STM32F3xx_HAL_Driver/Src/stm32f3xx_hal_uart.c **** 
 385              		.loc 1 990 0 discriminator 2
 386 0022 2768     		ldr	r7, [r4]
 981:Drivers/STM32F3xx_HAL_Driver/Src/stm32f3xx_hal_uart.c **** 
 387              		.loc 1 981 0 discriminator 2
 388 0024 DFF85CC0 		ldr	ip, .L45
 984:Drivers/STM32F3xx_HAL_Driver/Src/stm32f3xx_hal_uart.c **** 
 389              		.loc 1 984 0 discriminator 2
 390 0028 DFF85CE0 		ldr	lr, .L45+4
 978:Drivers/STM32F3xx_HAL_Driver/Src/stm32f3xx_hal_uart.c **** 
 391              		.loc 1 978 0 discriminator 2
 392 002c DFF85C80 		ldr	r8, .L45+8
 972:Drivers/STM32F3xx_HAL_Driver/Src/stm32f3xx_hal_uart.c **** 
 393              		.loc 1 972 0 discriminator 2
 394 0030 A4F85220 		strh	r2, [r4, #82]	@ movhi
 974:Drivers/STM32F3xx_HAL_Driver/Src/stm32f3xx_hal_uart.c ****     huart->gState = HAL_UART_STATE_BUSY_TX;
 395              		.loc 1 974 0 discriminator 2
 396 0034 0025     		movs	r5, #0
 968:Drivers/STM32F3xx_HAL_Driver/Src/stm32f3xx_hal_uart.c **** 
 397              		.loc 1 968 0 discriminator 2
 398 0036 4FF00109 		mov	r9, #1
 975:Drivers/STM32F3xx_HAL_Driver/Src/stm32f3xx_hal_uart.c **** 
 399              		.loc 1 975 0 discriminator 2
 400 003a 2120     		movs	r0, #33
 971:Drivers/STM32F3xx_HAL_Driver/Src/stm32f3xx_hal_uart.c ****     huart->TxXferCount = Size;
 401              		.loc 1 971 0 discriminator 2
 402 003c A4F85020 		strh	r2, [r4, #80]	@ movhi
ARM GAS  /tmp/ccinMcHI.s 			page 27


 974:Drivers/STM32F3xx_HAL_Driver/Src/stm32f3xx_hal_uart.c ****     huart->gState = HAL_UART_STATE_BUSY_TX;
 403              		.loc 1 974 0 discriminator 2
 404 0040 E566     		str	r5, [r4, #108]
 970:Drivers/STM32F3xx_HAL_Driver/Src/stm32f3xx_hal_uart.c ****     huart->TxXferSize = Size;
 405              		.loc 1 970 0 discriminator 2
 406 0042 E164     		str	r1, [r4, #76]
 975:Drivers/STM32F3xx_HAL_Driver/Src/stm32f3xx_hal_uart.c **** 
 407              		.loc 1 975 0 discriminator 2
 408 0044 84F86900 		strb	r0, [r4, #105]
 968:Drivers/STM32F3xx_HAL_Driver/Src/stm32f3xx_hal_uart.c **** 
 409              		.loc 1 968 0 discriminator 2
 410 0048 84F86890 		strb	r9, [r4, #104]
 990:Drivers/STM32F3xx_HAL_Driver/Src/stm32f3xx_hal_uart.c **** 
 411              		.loc 1 990 0 discriminator 2
 412 004c 1346     		mov	r3, r2
 413 004e 3046     		mov	r0, r6
 414 0050 07F12802 		add	r2, r7, #40
 415              	.LVL25:
 987:Drivers/STM32F3xx_HAL_Driver/Src/stm32f3xx_hal_uart.c **** 
 416              		.loc 1 987 0 discriminator 2
 417 0054 7563     		str	r5, [r6, #52]
 978:Drivers/STM32F3xx_HAL_Driver/Src/stm32f3xx_hal_uart.c **** 
 418              		.loc 1 978 0 discriminator 2
 419 0056 C6F82880 		str	r8, [r6, #40]
 981:Drivers/STM32F3xx_HAL_Driver/Src/stm32f3xx_hal_uart.c **** 
 420              		.loc 1 981 0 discriminator 2
 421 005a C6F82CC0 		str	ip, [r6, #44]
 984:Drivers/STM32F3xx_HAL_Driver/Src/stm32f3xx_hal_uart.c **** 
 422              		.loc 1 984 0 discriminator 2
 423 005e C6F830E0 		str	lr, [r6, #48]
 990:Drivers/STM32F3xx_HAL_Driver/Src/stm32f3xx_hal_uart.c **** 
 424              		.loc 1 990 0 discriminator 2
 425 0062 FFF7FEFF 		bl	HAL_DMA_Start_IT
 426              	.LVL26:
 993:Drivers/STM32F3xx_HAL_Driver/Src/stm32f3xx_hal_uart.c **** 
 427              		.loc 1 993 0 discriminator 2
 428 0066 2368     		ldr	r3, [r4]
 429 0068 4022     		movs	r2, #64
 430 006a 1A62     		str	r2, [r3, #32]
1000:Drivers/STM32F3xx_HAL_Driver/Src/stm32f3xx_hal_uart.c **** 
 431              		.loc 1 1000 0 discriminator 2
 432 006c 9A68     		ldr	r2, [r3, #8]
 996:Drivers/STM32F3xx_HAL_Driver/Src/stm32f3xx_hal_uart.c **** 
 433              		.loc 1 996 0 discriminator 2
 434 006e 84F86850 		strb	r5, [r4, #104]
1000:Drivers/STM32F3xx_HAL_Driver/Src/stm32f3xx_hal_uart.c **** 
 435              		.loc 1 1000 0 discriminator 2
 436 0072 42F08002 		orr	r2, r2, #128
1002:Drivers/STM32F3xx_HAL_Driver/Src/stm32f3xx_hal_uart.c ****   }
 437              		.loc 1 1002 0 discriminator 2
 438 0076 2846     		mov	r0, r5
1000:Drivers/STM32F3xx_HAL_Driver/Src/stm32f3xx_hal_uart.c **** 
 439              		.loc 1 1000 0 discriminator 2
 440 0078 9A60     		str	r2, [r3, #8]
1002:Drivers/STM32F3xx_HAL_Driver/Src/stm32f3xx_hal_uart.c ****   }
 441              		.loc 1 1002 0 discriminator 2
 442 007a BDE8F883 		pop	{r3, r4, r5, r6, r7, r8, r9, pc}
ARM GAS  /tmp/ccinMcHI.s 			page 28


 443              	.LVL27:
 444              	.L41:
 964:Drivers/STM32F3xx_HAL_Driver/Src/stm32f3xx_hal_uart.c ****     }
 445              		.loc 1 964 0
 446 007e 0120     		movs	r0, #1
 447 0080 BDE8F883 		pop	{r3, r4, r5, r6, r7, r8, r9, pc}
 448              	.LVL28:
 449              	.L46:
 450              		.align	2
 451              	.L45:
 452 0084 00000000 		.word	UART_DMATxHalfCplt
 453 0088 00000000 		.word	UART_DMAError
 454 008c 00000000 		.word	UART_DMATransmitCplt
 455              		.cfi_endproc
 456              	.LFE703:
 458              		.section	.text.HAL_UART_Receive_DMA,"ax",%progbits
 459              		.align	2
 460              		.global	HAL_UART_Receive_DMA
 461              		.thumb
 462              		.thumb_func
 464              	HAL_UART_Receive_DMA:
 465              	.LFB704:
1009:Drivers/STM32F3xx_HAL_Driver/Src/stm32f3xx_hal_uart.c **** 
1010:Drivers/STM32F3xx_HAL_Driver/Src/stm32f3xx_hal_uart.c **** /**
1011:Drivers/STM32F3xx_HAL_Driver/Src/stm32f3xx_hal_uart.c ****   * @brief Receive an amount of data in DMA mode.
1012:Drivers/STM32F3xx_HAL_Driver/Src/stm32f3xx_hal_uart.c ****   * @param huart UART handle.
1013:Drivers/STM32F3xx_HAL_Driver/Src/stm32f3xx_hal_uart.c ****   * @param pData pointer to data buffer.
1014:Drivers/STM32F3xx_HAL_Driver/Src/stm32f3xx_hal_uart.c ****   * @param Size amount of data to be received.
1015:Drivers/STM32F3xx_HAL_Driver/Src/stm32f3xx_hal_uart.c ****   * @note   When the UART parity is enabled (PCE = 1), the received data contain
1016:Drivers/STM32F3xx_HAL_Driver/Src/stm32f3xx_hal_uart.c ****   *         the parity bit (MSB position).
1017:Drivers/STM32F3xx_HAL_Driver/Src/stm32f3xx_hal_uart.c ****   * @note This function starts a DMA transfer in interrupt mode meaning that
1018:Drivers/STM32F3xx_HAL_Driver/Src/stm32f3xx_hal_uart.c ****   *       DMA half transfer complete, DMA transfer complete and DMA transfer
1019:Drivers/STM32F3xx_HAL_Driver/Src/stm32f3xx_hal_uart.c ****   *       error interrupts are enabled
1020:Drivers/STM32F3xx_HAL_Driver/Src/stm32f3xx_hal_uart.c ****   * @retval HAL status
1021:Drivers/STM32F3xx_HAL_Driver/Src/stm32f3xx_hal_uart.c ****   */
1022:Drivers/STM32F3xx_HAL_Driver/Src/stm32f3xx_hal_uart.c **** HAL_StatusTypeDef HAL_UART_Receive_DMA(UART_HandleTypeDef *huart, uint8_t *pData, uint16_t Size)
1023:Drivers/STM32F3xx_HAL_Driver/Src/stm32f3xx_hal_uart.c **** {
 466              		.loc 1 1023 0
 467              		.cfi_startproc
 468              		@ args = 0, pretend = 0, frame = 0
 469              		@ frame_needed = 0, uses_anonymous_args = 0
 470              	.LVL29:
 471 0000 2DE9F843 		push	{r3, r4, r5, r6, r7, r8, r9, lr}
 472              	.LCFI5:
 473              		.cfi_def_cfa_offset 32
 474              		.cfi_offset 3, -32
 475              		.cfi_offset 4, -28
 476              		.cfi_offset 5, -24
 477              		.cfi_offset 6, -20
 478              		.cfi_offset 7, -16
 479              		.cfi_offset 8, -12
 480              		.cfi_offset 9, -8
 481              		.cfi_offset 14, -4
 482              		.loc 1 1023 0
 483 0004 0446     		mov	r4, r0
1024:Drivers/STM32F3xx_HAL_Driver/Src/stm32f3xx_hal_uart.c ****   /* Check if UART instance supports continuous communication using DMA */
1025:Drivers/STM32F3xx_HAL_Driver/Src/stm32f3xx_hal_uart.c ****   assert_param(IS_UART_DMA_INSTANCE(huart->Instance));
ARM GAS  /tmp/ccinMcHI.s 			page 29


1026:Drivers/STM32F3xx_HAL_Driver/Src/stm32f3xx_hal_uart.c **** 
1027:Drivers/STM32F3xx_HAL_Driver/Src/stm32f3xx_hal_uart.c ****   /* Check that a Rx process is not already ongoing */
1028:Drivers/STM32F3xx_HAL_Driver/Src/stm32f3xx_hal_uart.c ****   if(huart->RxState == HAL_UART_STATE_READY)
 484              		.loc 1 1028 0
 485 0006 90F86A00 		ldrb	r0, [r0, #106]	@ zero_extendqisi2
 486              	.LVL30:
 487 000a 2028     		cmp	r0, #32
 488 000c 02D0     		beq	.L54
 489              	.LVL31:
 490              	.L52:
1029:Drivers/STM32F3xx_HAL_Driver/Src/stm32f3xx_hal_uart.c ****   {
1030:Drivers/STM32F3xx_HAL_Driver/Src/stm32f3xx_hal_uart.c ****     if((pData == NULL ) || (Size == 0U))
1031:Drivers/STM32F3xx_HAL_Driver/Src/stm32f3xx_hal_uart.c ****     {
1032:Drivers/STM32F3xx_HAL_Driver/Src/stm32f3xx_hal_uart.c ****       return HAL_ERROR;
1033:Drivers/STM32F3xx_HAL_Driver/Src/stm32f3xx_hal_uart.c ****     }
1034:Drivers/STM32F3xx_HAL_Driver/Src/stm32f3xx_hal_uart.c **** 
1035:Drivers/STM32F3xx_HAL_Driver/Src/stm32f3xx_hal_uart.c ****     /* Process Locked */
1036:Drivers/STM32F3xx_HAL_Driver/Src/stm32f3xx_hal_uart.c ****     __HAL_LOCK(huart);
1037:Drivers/STM32F3xx_HAL_Driver/Src/stm32f3xx_hal_uart.c **** 
1038:Drivers/STM32F3xx_HAL_Driver/Src/stm32f3xx_hal_uart.c ****     huart->pRxBuffPtr = pData;
1039:Drivers/STM32F3xx_HAL_Driver/Src/stm32f3xx_hal_uart.c ****     huart->RxXferSize = Size;
1040:Drivers/STM32F3xx_HAL_Driver/Src/stm32f3xx_hal_uart.c **** 
1041:Drivers/STM32F3xx_HAL_Driver/Src/stm32f3xx_hal_uart.c ****     huart->ErrorCode = HAL_UART_ERROR_NONE;
1042:Drivers/STM32F3xx_HAL_Driver/Src/stm32f3xx_hal_uart.c ****     huart->RxState = HAL_UART_STATE_BUSY_RX;
1043:Drivers/STM32F3xx_HAL_Driver/Src/stm32f3xx_hal_uart.c **** 
1044:Drivers/STM32F3xx_HAL_Driver/Src/stm32f3xx_hal_uart.c ****     /* Set the UART DMA transfer complete callback */
1045:Drivers/STM32F3xx_HAL_Driver/Src/stm32f3xx_hal_uart.c ****     huart->hdmarx->XferCpltCallback = UART_DMAReceiveCplt;
1046:Drivers/STM32F3xx_HAL_Driver/Src/stm32f3xx_hal_uart.c **** 
1047:Drivers/STM32F3xx_HAL_Driver/Src/stm32f3xx_hal_uart.c ****     /* Set the UART DMA Half transfer complete callback */
1048:Drivers/STM32F3xx_HAL_Driver/Src/stm32f3xx_hal_uart.c ****     huart->hdmarx->XferHalfCpltCallback = UART_DMARxHalfCplt;
1049:Drivers/STM32F3xx_HAL_Driver/Src/stm32f3xx_hal_uart.c **** 
1050:Drivers/STM32F3xx_HAL_Driver/Src/stm32f3xx_hal_uart.c ****     /* Set the DMA error callback */
1051:Drivers/STM32F3xx_HAL_Driver/Src/stm32f3xx_hal_uart.c ****     huart->hdmarx->XferErrorCallback = UART_DMAError;
1052:Drivers/STM32F3xx_HAL_Driver/Src/stm32f3xx_hal_uart.c **** 
1053:Drivers/STM32F3xx_HAL_Driver/Src/stm32f3xx_hal_uart.c ****     /* Set the DMA abort callback */
1054:Drivers/STM32F3xx_HAL_Driver/Src/stm32f3xx_hal_uart.c ****     huart->hdmarx->XferAbortCallback = NULL;
1055:Drivers/STM32F3xx_HAL_Driver/Src/stm32f3xx_hal_uart.c **** 
1056:Drivers/STM32F3xx_HAL_Driver/Src/stm32f3xx_hal_uart.c ****     /* Enable the DMA channel */
1057:Drivers/STM32F3xx_HAL_Driver/Src/stm32f3xx_hal_uart.c ****     HAL_DMA_Start_IT(huart->hdmarx, (uint32_t)&huart->Instance->RDR, (uint32_t)huart->pRxBuffPtr, S
1058:Drivers/STM32F3xx_HAL_Driver/Src/stm32f3xx_hal_uart.c **** 
1059:Drivers/STM32F3xx_HAL_Driver/Src/stm32f3xx_hal_uart.c ****     /* Process Unlocked */
1060:Drivers/STM32F3xx_HAL_Driver/Src/stm32f3xx_hal_uart.c ****     __HAL_UNLOCK(huart);
1061:Drivers/STM32F3xx_HAL_Driver/Src/stm32f3xx_hal_uart.c **** 
1062:Drivers/STM32F3xx_HAL_Driver/Src/stm32f3xx_hal_uart.c ****     /* Enable the UART Parity Error Interrupt */
1063:Drivers/STM32F3xx_HAL_Driver/Src/stm32f3xx_hal_uart.c ****     SET_BIT(huart->Instance->CR1, USART_CR1_PEIE);
1064:Drivers/STM32F3xx_HAL_Driver/Src/stm32f3xx_hal_uart.c **** 
1065:Drivers/STM32F3xx_HAL_Driver/Src/stm32f3xx_hal_uart.c ****     /* Enable the UART Error Interrupt: (Frame error, noise error, overrun error) */
1066:Drivers/STM32F3xx_HAL_Driver/Src/stm32f3xx_hal_uart.c ****     SET_BIT(huart->Instance->CR3, USART_CR3_EIE);
1067:Drivers/STM32F3xx_HAL_Driver/Src/stm32f3xx_hal_uart.c **** 
1068:Drivers/STM32F3xx_HAL_Driver/Src/stm32f3xx_hal_uart.c ****     /* Enable the DMA transfer for the receiver request by setting the DMAR bit
1069:Drivers/STM32F3xx_HAL_Driver/Src/stm32f3xx_hal_uart.c ****        in the UART CR3 register */
1070:Drivers/STM32F3xx_HAL_Driver/Src/stm32f3xx_hal_uart.c ****     SET_BIT(huart->Instance->CR3, USART_CR3_DMAR);
1071:Drivers/STM32F3xx_HAL_Driver/Src/stm32f3xx_hal_uart.c **** 
1072:Drivers/STM32F3xx_HAL_Driver/Src/stm32f3xx_hal_uart.c ****     return HAL_OK;
1073:Drivers/STM32F3xx_HAL_Driver/Src/stm32f3xx_hal_uart.c ****   }
1074:Drivers/STM32F3xx_HAL_Driver/Src/stm32f3xx_hal_uart.c ****   else
1075:Drivers/STM32F3xx_HAL_Driver/Src/stm32f3xx_hal_uart.c ****   {
ARM GAS  /tmp/ccinMcHI.s 			page 30


1076:Drivers/STM32F3xx_HAL_Driver/Src/stm32f3xx_hal_uart.c ****     return HAL_BUSY;
 491              		.loc 1 1076 0
 492 000e 0220     		movs	r0, #2
1077:Drivers/STM32F3xx_HAL_Driver/Src/stm32f3xx_hal_uart.c ****   }
1078:Drivers/STM32F3xx_HAL_Driver/Src/stm32f3xx_hal_uart.c **** }
 493              		.loc 1 1078 0
 494 0010 BDE8F883 		pop	{r3, r4, r5, r6, r7, r8, r9, pc}
 495              	.LVL32:
 496              	.L54:
1030:Drivers/STM32F3xx_HAL_Driver/Src/stm32f3xx_hal_uart.c ****     {
 497              		.loc 1 1030 0
 498 0014 0029     		cmp	r1, #0
 499 0016 39D0     		beq	.L51
 500 0018 1346     		mov	r3, r2
1030:Drivers/STM32F3xx_HAL_Driver/Src/stm32f3xx_hal_uart.c ****     {
 501              		.loc 1 1030 0 is_stmt 0 discriminator 1
 502 001a 002A     		cmp	r2, #0
 503 001c 36D0     		beq	.L51
1036:Drivers/STM32F3xx_HAL_Driver/Src/stm32f3xx_hal_uart.c **** 
 504              		.loc 1 1036 0 is_stmt 1
 505 001e 94F86820 		ldrb	r2, [r4, #104]	@ zero_extendqisi2
 506              	.LVL33:
 507 0022 012A     		cmp	r2, #1
 508 0024 F3D0     		beq	.L52
1045:Drivers/STM32F3xx_HAL_Driver/Src/stm32f3xx_hal_uart.c **** 
 509              		.loc 1 1045 0 discriminator 2
 510 0026 666E     		ldr	r6, [r4, #100]
1057:Drivers/STM32F3xx_HAL_Driver/Src/stm32f3xx_hal_uart.c **** 
 511              		.loc 1 1057 0 discriminator 2
 512 0028 2768     		ldr	r7, [r4]
1048:Drivers/STM32F3xx_HAL_Driver/Src/stm32f3xx_hal_uart.c **** 
 513              		.loc 1 1048 0 discriminator 2
 514 002a DFF868C0 		ldr	ip, .L55
1051:Drivers/STM32F3xx_HAL_Driver/Src/stm32f3xx_hal_uart.c **** 
 515              		.loc 1 1051 0 discriminator 2
 516 002e DFF868E0 		ldr	lr, .L55+4
1045:Drivers/STM32F3xx_HAL_Driver/Src/stm32f3xx_hal_uart.c **** 
 517              		.loc 1 1045 0 discriminator 2
 518 0032 DFF86880 		ldr	r8, .L55+8
1038:Drivers/STM32F3xx_HAL_Driver/Src/stm32f3xx_hal_uart.c ****     huart->RxXferSize = Size;
 519              		.loc 1 1038 0 discriminator 2
 520 0036 6165     		str	r1, [r4, #84]
1041:Drivers/STM32F3xx_HAL_Driver/Src/stm32f3xx_hal_uart.c ****     huart->RxState = HAL_UART_STATE_BUSY_RX;
 521              		.loc 1 1041 0 discriminator 2
 522 0038 0025     		movs	r5, #0
1036:Drivers/STM32F3xx_HAL_Driver/Src/stm32f3xx_hal_uart.c **** 
 523              		.loc 1 1036 0 discriminator 2
 524 003a 4FF00109 		mov	r9, #1
1042:Drivers/STM32F3xx_HAL_Driver/Src/stm32f3xx_hal_uart.c **** 
 525              		.loc 1 1042 0 discriminator 2
 526 003e 2220     		movs	r0, #34
1039:Drivers/STM32F3xx_HAL_Driver/Src/stm32f3xx_hal_uart.c **** 
 527              		.loc 1 1039 0 discriminator 2
 528 0040 A4F85830 		strh	r3, [r4, #88]	@ movhi
1041:Drivers/STM32F3xx_HAL_Driver/Src/stm32f3xx_hal_uart.c ****     huart->RxState = HAL_UART_STATE_BUSY_RX;
 529              		.loc 1 1041 0 discriminator 2
 530 0044 E566     		str	r5, [r4, #108]
ARM GAS  /tmp/ccinMcHI.s 			page 31


1036:Drivers/STM32F3xx_HAL_Driver/Src/stm32f3xx_hal_uart.c **** 
 531              		.loc 1 1036 0 discriminator 2
 532 0046 84F86890 		strb	r9, [r4, #104]
1042:Drivers/STM32F3xx_HAL_Driver/Src/stm32f3xx_hal_uart.c **** 
 533              		.loc 1 1042 0 discriminator 2
 534 004a 84F86A00 		strb	r0, [r4, #106]
1057:Drivers/STM32F3xx_HAL_Driver/Src/stm32f3xx_hal_uart.c **** 
 535              		.loc 1 1057 0 discriminator 2
 536 004e 0A46     		mov	r2, r1
 537 0050 3046     		mov	r0, r6
1054:Drivers/STM32F3xx_HAL_Driver/Src/stm32f3xx_hal_uart.c **** 
 538              		.loc 1 1054 0 discriminator 2
 539 0052 7563     		str	r5, [r6, #52]
1045:Drivers/STM32F3xx_HAL_Driver/Src/stm32f3xx_hal_uart.c **** 
 540              		.loc 1 1045 0 discriminator 2
 541 0054 C6F82880 		str	r8, [r6, #40]
1048:Drivers/STM32F3xx_HAL_Driver/Src/stm32f3xx_hal_uart.c **** 
 542              		.loc 1 1048 0 discriminator 2
 543 0058 C6F82CC0 		str	ip, [r6, #44]
1051:Drivers/STM32F3xx_HAL_Driver/Src/stm32f3xx_hal_uart.c **** 
 544              		.loc 1 1051 0 discriminator 2
 545 005c C6F830E0 		str	lr, [r6, #48]
1057:Drivers/STM32F3xx_HAL_Driver/Src/stm32f3xx_hal_uart.c **** 
 546              		.loc 1 1057 0 discriminator 2
 547 0060 07F12401 		add	r1, r7, #36
 548              	.LVL34:
 549 0064 FFF7FEFF 		bl	HAL_DMA_Start_IT
 550              	.LVL35:
1063:Drivers/STM32F3xx_HAL_Driver/Src/stm32f3xx_hal_uart.c **** 
 551              		.loc 1 1063 0 discriminator 2
 552 0068 2368     		ldr	r3, [r4]
1060:Drivers/STM32F3xx_HAL_Driver/Src/stm32f3xx_hal_uart.c **** 
 553              		.loc 1 1060 0 discriminator 2
 554 006a 84F86850 		strb	r5, [r4, #104]
1063:Drivers/STM32F3xx_HAL_Driver/Src/stm32f3xx_hal_uart.c **** 
 555              		.loc 1 1063 0 discriminator 2
 556 006e 1A68     		ldr	r2, [r3]
 557 0070 42F48072 		orr	r2, r2, #256
 558 0074 1A60     		str	r2, [r3]
1066:Drivers/STM32F3xx_HAL_Driver/Src/stm32f3xx_hal_uart.c **** 
 559              		.loc 1 1066 0 discriminator 2
 560 0076 9A68     		ldr	r2, [r3, #8]
 561 0078 42EA0902 		orr	r2, r2, r9
 562 007c 9A60     		str	r2, [r3, #8]
1070:Drivers/STM32F3xx_HAL_Driver/Src/stm32f3xx_hal_uart.c **** 
 563              		.loc 1 1070 0 discriminator 2
 564 007e 9A68     		ldr	r2, [r3, #8]
 565 0080 42F04002 		orr	r2, r2, #64
1072:Drivers/STM32F3xx_HAL_Driver/Src/stm32f3xx_hal_uart.c ****   }
 566              		.loc 1 1072 0 discriminator 2
 567 0084 2846     		mov	r0, r5
1070:Drivers/STM32F3xx_HAL_Driver/Src/stm32f3xx_hal_uart.c **** 
 568              		.loc 1 1070 0 discriminator 2
 569 0086 9A60     		str	r2, [r3, #8]
1072:Drivers/STM32F3xx_HAL_Driver/Src/stm32f3xx_hal_uart.c ****   }
 570              		.loc 1 1072 0 discriminator 2
 571 0088 BDE8F883 		pop	{r3, r4, r5, r6, r7, r8, r9, pc}
ARM GAS  /tmp/ccinMcHI.s 			page 32


 572              	.LVL36:
 573              	.L51:
1032:Drivers/STM32F3xx_HAL_Driver/Src/stm32f3xx_hal_uart.c ****     }
 574              		.loc 1 1032 0
 575 008c 0120     		movs	r0, #1
 576 008e BDE8F883 		pop	{r3, r4, r5, r6, r7, r8, r9, pc}
 577              	.LVL37:
 578              	.L56:
 579 0092 00BF     		.align	2
 580              	.L55:
 581 0094 00000000 		.word	UART_DMARxHalfCplt
 582 0098 00000000 		.word	UART_DMAError
 583 009c 00000000 		.word	UART_DMAReceiveCplt
 584              		.cfi_endproc
 585              	.LFE704:
 587              		.section	.text.HAL_UART_DMAPause,"ax",%progbits
 588              		.align	2
 589              		.global	HAL_UART_DMAPause
 590              		.thumb
 591              		.thumb_func
 593              	HAL_UART_DMAPause:
 594              	.LFB705:
1079:Drivers/STM32F3xx_HAL_Driver/Src/stm32f3xx_hal_uart.c **** 
1080:Drivers/STM32F3xx_HAL_Driver/Src/stm32f3xx_hal_uart.c **** /**
1081:Drivers/STM32F3xx_HAL_Driver/Src/stm32f3xx_hal_uart.c ****   * @brief  Pause the DMA Transfer.
1082:Drivers/STM32F3xx_HAL_Driver/Src/stm32f3xx_hal_uart.c ****   * @param  huart UART handle.
1083:Drivers/STM32F3xx_HAL_Driver/Src/stm32f3xx_hal_uart.c ****   * @retval HAL status
1084:Drivers/STM32F3xx_HAL_Driver/Src/stm32f3xx_hal_uart.c ****   */
1085:Drivers/STM32F3xx_HAL_Driver/Src/stm32f3xx_hal_uart.c **** HAL_StatusTypeDef HAL_UART_DMAPause(UART_HandleTypeDef *huart)
1086:Drivers/STM32F3xx_HAL_Driver/Src/stm32f3xx_hal_uart.c **** {
 595              		.loc 1 1086 0
 596              		.cfi_startproc
 597              		@ args = 0, pretend = 0, frame = 0
 598              		@ frame_needed = 0, uses_anonymous_args = 0
 599              		@ link register save eliminated.
 600              	.LVL38:
1087:Drivers/STM32F3xx_HAL_Driver/Src/stm32f3xx_hal_uart.c ****   /* Process Locked */
1088:Drivers/STM32F3xx_HAL_Driver/Src/stm32f3xx_hal_uart.c ****   __HAL_LOCK(huart);
 601              		.loc 1 1088 0
 602 0000 90F86830 		ldrb	r3, [r0, #104]	@ zero_extendqisi2
 603 0004 012B     		cmp	r3, #1
 604 0006 0FD0     		beq	.L61
1089:Drivers/STM32F3xx_HAL_Driver/Src/stm32f3xx_hal_uart.c **** 
1090:Drivers/STM32F3xx_HAL_Driver/Src/stm32f3xx_hal_uart.c ****   if ((huart->gState == HAL_UART_STATE_BUSY_TX) &&
 605              		.loc 1 1090 0 discriminator 2
 606 0008 90F86930 		ldrb	r3, [r0, #105]	@ zero_extendqisi2
1088:Drivers/STM32F3xx_HAL_Driver/Src/stm32f3xx_hal_uart.c **** 
 607              		.loc 1 1088 0 discriminator 2
 608 000c 0122     		movs	r2, #1
 609              		.loc 1 1090 0 discriminator 2
 610 000e 212B     		cmp	r3, #33
1088:Drivers/STM32F3xx_HAL_Driver/Src/stm32f3xx_hal_uart.c **** 
 611              		.loc 1 1088 0 discriminator 2
 612 0010 80F86820 		strb	r2, [r0, #104]
 613              		.loc 1 1090 0 discriminator 2
 614 0014 1BD0     		beq	.L68
 615              	.L59:
ARM GAS  /tmp/ccinMcHI.s 			page 33


1091:Drivers/STM32F3xx_HAL_Driver/Src/stm32f3xx_hal_uart.c ****       (HAL_IS_BIT_SET(huart->Instance->CR3, USART_CR3_DMAT)))
1092:Drivers/STM32F3xx_HAL_Driver/Src/stm32f3xx_hal_uart.c ****   {
1093:Drivers/STM32F3xx_HAL_Driver/Src/stm32f3xx_hal_uart.c ****     /* Disable the UART DMA Tx request */
1094:Drivers/STM32F3xx_HAL_Driver/Src/stm32f3xx_hal_uart.c ****     CLEAR_BIT(huart->Instance->CR3, USART_CR3_DMAT);
1095:Drivers/STM32F3xx_HAL_Driver/Src/stm32f3xx_hal_uart.c ****   }
1096:Drivers/STM32F3xx_HAL_Driver/Src/stm32f3xx_hal_uart.c ****   if ((huart->RxState == HAL_UART_STATE_BUSY_RX) &&
 616              		.loc 1 1096 0
 617 0016 90F86A30 		ldrb	r3, [r0, #106]	@ zero_extendqisi2
 618 001a 222B     		cmp	r3, #34
 619 001c 06D0     		beq	.L69
 620              	.L60:
1097:Drivers/STM32F3xx_HAL_Driver/Src/stm32f3xx_hal_uart.c ****       (HAL_IS_BIT_SET(huart->Instance->CR3, USART_CR3_DMAR)))
1098:Drivers/STM32F3xx_HAL_Driver/Src/stm32f3xx_hal_uart.c ****   {
1099:Drivers/STM32F3xx_HAL_Driver/Src/stm32f3xx_hal_uart.c ****     /* Disable PE and ERR (Frame error, noise error, overrun error) interrupts */
1100:Drivers/STM32F3xx_HAL_Driver/Src/stm32f3xx_hal_uart.c ****     CLEAR_BIT(huart->Instance->CR1, USART_CR1_PEIE);
1101:Drivers/STM32F3xx_HAL_Driver/Src/stm32f3xx_hal_uart.c ****     CLEAR_BIT(huart->Instance->CR3, USART_CR3_EIE);
1102:Drivers/STM32F3xx_HAL_Driver/Src/stm32f3xx_hal_uart.c **** 
1103:Drivers/STM32F3xx_HAL_Driver/Src/stm32f3xx_hal_uart.c ****     /* Disable the UART DMA Rx request */
1104:Drivers/STM32F3xx_HAL_Driver/Src/stm32f3xx_hal_uart.c ****     CLEAR_BIT(huart->Instance->CR3, USART_CR3_DMAR);
1105:Drivers/STM32F3xx_HAL_Driver/Src/stm32f3xx_hal_uart.c ****   }
1106:Drivers/STM32F3xx_HAL_Driver/Src/stm32f3xx_hal_uart.c **** 
1107:Drivers/STM32F3xx_HAL_Driver/Src/stm32f3xx_hal_uart.c ****   /* Process Unlocked */
1108:Drivers/STM32F3xx_HAL_Driver/Src/stm32f3xx_hal_uart.c ****   __HAL_UNLOCK(huart);
 621              		.loc 1 1108 0
 622 001e 0023     		movs	r3, #0
 623 0020 80F86830 		strb	r3, [r0, #104]
1109:Drivers/STM32F3xx_HAL_Driver/Src/stm32f3xx_hal_uart.c **** 
1110:Drivers/STM32F3xx_HAL_Driver/Src/stm32f3xx_hal_uart.c ****   return HAL_OK;
 624              		.loc 1 1110 0
 625 0024 1846     		mov	r0, r3
 626              	.LVL39:
 627 0026 7047     		bx	lr
 628              	.LVL40:
 629              	.L61:
1088:Drivers/STM32F3xx_HAL_Driver/Src/stm32f3xx_hal_uart.c **** 
 630              		.loc 1 1088 0
 631 0028 0220     		movs	r0, #2
 632              	.LVL41:
1111:Drivers/STM32F3xx_HAL_Driver/Src/stm32f3xx_hal_uart.c **** }
 633              		.loc 1 1111 0
 634 002a 7047     		bx	lr
 635              	.LVL42:
 636              	.L69:
1097:Drivers/STM32F3xx_HAL_Driver/Src/stm32f3xx_hal_uart.c ****   {
 637              		.loc 1 1097 0 discriminator 1
 638 002c 0368     		ldr	r3, [r0]
 639 002e 9A68     		ldr	r2, [r3, #8]
1096:Drivers/STM32F3xx_HAL_Driver/Src/stm32f3xx_hal_uart.c ****       (HAL_IS_BIT_SET(huart->Instance->CR3, USART_CR3_DMAR)))
 640              		.loc 1 1096 0 discriminator 1
 641 0030 5206     		lsls	r2, r2, #25
 642 0032 F4D5     		bpl	.L60
1100:Drivers/STM32F3xx_HAL_Driver/Src/stm32f3xx_hal_uart.c ****     CLEAR_BIT(huart->Instance->CR3, USART_CR3_EIE);
 643              		.loc 1 1100 0
 644 0034 1A68     		ldr	r2, [r3]
 645 0036 22F48072 		bic	r2, r2, #256
 646 003a 1A60     		str	r2, [r3]
1101:Drivers/STM32F3xx_HAL_Driver/Src/stm32f3xx_hal_uart.c **** 
ARM GAS  /tmp/ccinMcHI.s 			page 34


 647              		.loc 1 1101 0
 648 003c 9A68     		ldr	r2, [r3, #8]
 649 003e 22F00102 		bic	r2, r2, #1
 650 0042 9A60     		str	r2, [r3, #8]
1104:Drivers/STM32F3xx_HAL_Driver/Src/stm32f3xx_hal_uart.c ****   }
 651              		.loc 1 1104 0
 652 0044 9A68     		ldr	r2, [r3, #8]
 653 0046 22F04002 		bic	r2, r2, #64
 654 004a 9A60     		str	r2, [r3, #8]
 655 004c E7E7     		b	.L60
 656              	.L68:
1091:Drivers/STM32F3xx_HAL_Driver/Src/stm32f3xx_hal_uart.c ****   {
 657              		.loc 1 1091 0 discriminator 1
 658 004e 0368     		ldr	r3, [r0]
 659 0050 9A68     		ldr	r2, [r3, #8]
1090:Drivers/STM32F3xx_HAL_Driver/Src/stm32f3xx_hal_uart.c ****       (HAL_IS_BIT_SET(huart->Instance->CR3, USART_CR3_DMAT)))
 660              		.loc 1 1090 0 discriminator 1
 661 0052 1106     		lsls	r1, r2, #24
 662 0054 DFD5     		bpl	.L59
1094:Drivers/STM32F3xx_HAL_Driver/Src/stm32f3xx_hal_uart.c ****   }
 663              		.loc 1 1094 0
 664 0056 9A68     		ldr	r2, [r3, #8]
 665 0058 22F08002 		bic	r2, r2, #128
 666 005c 9A60     		str	r2, [r3, #8]
 667 005e DAE7     		b	.L59
 668              		.cfi_endproc
 669              	.LFE705:
 671              		.section	.text.HAL_UART_DMAResume,"ax",%progbits
 672              		.align	2
 673              		.global	HAL_UART_DMAResume
 674              		.thumb
 675              		.thumb_func
 677              	HAL_UART_DMAResume:
 678              	.LFB706:
1112:Drivers/STM32F3xx_HAL_Driver/Src/stm32f3xx_hal_uart.c **** 
1113:Drivers/STM32F3xx_HAL_Driver/Src/stm32f3xx_hal_uart.c **** /**
1114:Drivers/STM32F3xx_HAL_Driver/Src/stm32f3xx_hal_uart.c ****   * @brief  Resume the DMA Transfer.
1115:Drivers/STM32F3xx_HAL_Driver/Src/stm32f3xx_hal_uart.c ****   * @param  huart UART handle.
1116:Drivers/STM32F3xx_HAL_Driver/Src/stm32f3xx_hal_uart.c ****   * @retval HAL status
1117:Drivers/STM32F3xx_HAL_Driver/Src/stm32f3xx_hal_uart.c ****   */
1118:Drivers/STM32F3xx_HAL_Driver/Src/stm32f3xx_hal_uart.c **** HAL_StatusTypeDef HAL_UART_DMAResume(UART_HandleTypeDef *huart)
1119:Drivers/STM32F3xx_HAL_Driver/Src/stm32f3xx_hal_uart.c **** {
 679              		.loc 1 1119 0
 680              		.cfi_startproc
 681              		@ args = 0, pretend = 0, frame = 0
 682              		@ frame_needed = 0, uses_anonymous_args = 0
 683              		@ link register save eliminated.
 684              	.LVL43:
1120:Drivers/STM32F3xx_HAL_Driver/Src/stm32f3xx_hal_uart.c ****   /* Process Locked */
1121:Drivers/STM32F3xx_HAL_Driver/Src/stm32f3xx_hal_uart.c ****   __HAL_LOCK(huart);
 685              		.loc 1 1121 0
 686 0000 90F86830 		ldrb	r3, [r0, #104]	@ zero_extendqisi2
 687 0004 012B     		cmp	r3, #1
 688 0006 0FD0     		beq	.L74
1122:Drivers/STM32F3xx_HAL_Driver/Src/stm32f3xx_hal_uart.c **** 
1123:Drivers/STM32F3xx_HAL_Driver/Src/stm32f3xx_hal_uart.c ****   if(huart->gState == HAL_UART_STATE_BUSY_TX)
 689              		.loc 1 1123 0 discriminator 2
ARM GAS  /tmp/ccinMcHI.s 			page 35


 690 0008 90F86930 		ldrb	r3, [r0, #105]	@ zero_extendqisi2
1121:Drivers/STM32F3xx_HAL_Driver/Src/stm32f3xx_hal_uart.c **** 
 691              		.loc 1 1121 0 discriminator 2
 692 000c 0122     		movs	r2, #1
 693              		.loc 1 1123 0 discriminator 2
 694 000e 212B     		cmp	r3, #33
1121:Drivers/STM32F3xx_HAL_Driver/Src/stm32f3xx_hal_uart.c **** 
 695              		.loc 1 1121 0 discriminator 2
 696 0010 80F86820 		strb	r2, [r0, #104]
 697              		.loc 1 1123 0 discriminator 2
 698 0014 1ED0     		beq	.L75
1124:Drivers/STM32F3xx_HAL_Driver/Src/stm32f3xx_hal_uart.c ****   {
1125:Drivers/STM32F3xx_HAL_Driver/Src/stm32f3xx_hal_uart.c ****     /* Enable the UART DMA Tx request */
1126:Drivers/STM32F3xx_HAL_Driver/Src/stm32f3xx_hal_uart.c ****     SET_BIT(huart->Instance->CR3, USART_CR3_DMAT);
1127:Drivers/STM32F3xx_HAL_Driver/Src/stm32f3xx_hal_uart.c ****   }
1128:Drivers/STM32F3xx_HAL_Driver/Src/stm32f3xx_hal_uart.c ****   if(huart->RxState == HAL_UART_STATE_BUSY_RX)
 699              		.loc 1 1128 0
 700 0016 90F86A30 		ldrb	r3, [r0, #106]	@ zero_extendqisi2
 701 001a 222B     		cmp	r3, #34
 702 001c 06D0     		beq	.L76
 703              	.L73:
1129:Drivers/STM32F3xx_HAL_Driver/Src/stm32f3xx_hal_uart.c ****   {
1130:Drivers/STM32F3xx_HAL_Driver/Src/stm32f3xx_hal_uart.c ****     /* Clear the Overrun flag before resuming the Rx transfer */
1131:Drivers/STM32F3xx_HAL_Driver/Src/stm32f3xx_hal_uart.c ****     __HAL_UART_CLEAR_FLAG(huart, UART_CLEAR_OREF);
1132:Drivers/STM32F3xx_HAL_Driver/Src/stm32f3xx_hal_uart.c **** 
1133:Drivers/STM32F3xx_HAL_Driver/Src/stm32f3xx_hal_uart.c ****     /* Reenable PE and ERR (Frame error, noise error, overrun error) interrupts */
1134:Drivers/STM32F3xx_HAL_Driver/Src/stm32f3xx_hal_uart.c ****     SET_BIT(huart->Instance->CR1, USART_CR1_PEIE);
1135:Drivers/STM32F3xx_HAL_Driver/Src/stm32f3xx_hal_uart.c ****     SET_BIT(huart->Instance->CR3, USART_CR3_EIE);
1136:Drivers/STM32F3xx_HAL_Driver/Src/stm32f3xx_hal_uart.c **** 
1137:Drivers/STM32F3xx_HAL_Driver/Src/stm32f3xx_hal_uart.c ****     /* Enable the UART DMA Rx request */
1138:Drivers/STM32F3xx_HAL_Driver/Src/stm32f3xx_hal_uart.c ****     SET_BIT(huart->Instance->CR3, USART_CR3_DMAR);
1139:Drivers/STM32F3xx_HAL_Driver/Src/stm32f3xx_hal_uart.c ****   }
1140:Drivers/STM32F3xx_HAL_Driver/Src/stm32f3xx_hal_uart.c **** 
1141:Drivers/STM32F3xx_HAL_Driver/Src/stm32f3xx_hal_uart.c ****   /* Process Unlocked */
1142:Drivers/STM32F3xx_HAL_Driver/Src/stm32f3xx_hal_uart.c ****   __HAL_UNLOCK(huart);
 704              		.loc 1 1142 0
 705 001e 0023     		movs	r3, #0
 706 0020 80F86830 		strb	r3, [r0, #104]
1143:Drivers/STM32F3xx_HAL_Driver/Src/stm32f3xx_hal_uart.c **** 
1144:Drivers/STM32F3xx_HAL_Driver/Src/stm32f3xx_hal_uart.c ****   return HAL_OK;
 707              		.loc 1 1144 0
 708 0024 1846     		mov	r0, r3
 709              	.LVL44:
 710 0026 7047     		bx	lr
 711              	.LVL45:
 712              	.L74:
1121:Drivers/STM32F3xx_HAL_Driver/Src/stm32f3xx_hal_uart.c **** 
 713              		.loc 1 1121 0
 714 0028 0220     		movs	r0, #2
 715              	.LVL46:
1145:Drivers/STM32F3xx_HAL_Driver/Src/stm32f3xx_hal_uart.c **** }
 716              		.loc 1 1145 0
 717 002a 7047     		bx	lr
 718              	.LVL47:
 719              	.L76:
1131:Drivers/STM32F3xx_HAL_Driver/Src/stm32f3xx_hal_uart.c **** 
 720              		.loc 1 1131 0
ARM GAS  /tmp/ccinMcHI.s 			page 36


 721 002c 0368     		ldr	r3, [r0]
 722 002e 0822     		movs	r2, #8
 723 0030 1A62     		str	r2, [r3, #32]
1134:Drivers/STM32F3xx_HAL_Driver/Src/stm32f3xx_hal_uart.c ****     SET_BIT(huart->Instance->CR3, USART_CR3_EIE);
 724              		.loc 1 1134 0
 725 0032 1A68     		ldr	r2, [r3]
 726 0034 42F48072 		orr	r2, r2, #256
 727 0038 1A60     		str	r2, [r3]
1135:Drivers/STM32F3xx_HAL_Driver/Src/stm32f3xx_hal_uart.c **** 
 728              		.loc 1 1135 0
 729 003a 9A68     		ldr	r2, [r3, #8]
 730 003c 42F00102 		orr	r2, r2, #1
 731 0040 9A60     		str	r2, [r3, #8]
1138:Drivers/STM32F3xx_HAL_Driver/Src/stm32f3xx_hal_uart.c ****   }
 732              		.loc 1 1138 0
 733 0042 9A68     		ldr	r2, [r3, #8]
 734 0044 42F04002 		orr	r2, r2, #64
 735 0048 9A60     		str	r2, [r3, #8]
1142:Drivers/STM32F3xx_HAL_Driver/Src/stm32f3xx_hal_uart.c **** 
 736              		.loc 1 1142 0
 737 004a 0023     		movs	r3, #0
 738 004c 80F86830 		strb	r3, [r0, #104]
1144:Drivers/STM32F3xx_HAL_Driver/Src/stm32f3xx_hal_uart.c **** }
 739              		.loc 1 1144 0
 740 0050 1846     		mov	r0, r3
 741              	.LVL48:
 742 0052 7047     		bx	lr
 743              	.LVL49:
 744              	.L75:
1126:Drivers/STM32F3xx_HAL_Driver/Src/stm32f3xx_hal_uart.c ****   }
 745              		.loc 1 1126 0
 746 0054 0268     		ldr	r2, [r0]
 747 0056 9368     		ldr	r3, [r2, #8]
 748 0058 43F08003 		orr	r3, r3, #128
 749 005c 9360     		str	r3, [r2, #8]
1128:Drivers/STM32F3xx_HAL_Driver/Src/stm32f3xx_hal_uart.c ****   {
 750              		.loc 1 1128 0
 751 005e 90F86A30 		ldrb	r3, [r0, #106]	@ zero_extendqisi2
 752 0062 222B     		cmp	r3, #34
 753 0064 DBD1     		bne	.L73
 754 0066 E1E7     		b	.L76
 755              		.cfi_endproc
 756              	.LFE706:
 758              		.section	.text.HAL_UART_DMAStop,"ax",%progbits
 759              		.align	2
 760              		.global	HAL_UART_DMAStop
 761              		.thumb
 762              		.thumb_func
 764              	HAL_UART_DMAStop:
 765              	.LFB707:
1146:Drivers/STM32F3xx_HAL_Driver/Src/stm32f3xx_hal_uart.c **** 
1147:Drivers/STM32F3xx_HAL_Driver/Src/stm32f3xx_hal_uart.c **** /**
1148:Drivers/STM32F3xx_HAL_Driver/Src/stm32f3xx_hal_uart.c ****   * @brief  Stop the DMA Transfer.
1149:Drivers/STM32F3xx_HAL_Driver/Src/stm32f3xx_hal_uart.c ****   * @param  huart UART handle.
1150:Drivers/STM32F3xx_HAL_Driver/Src/stm32f3xx_hal_uart.c ****   * @retval HAL status
1151:Drivers/STM32F3xx_HAL_Driver/Src/stm32f3xx_hal_uart.c ****   */
1152:Drivers/STM32F3xx_HAL_Driver/Src/stm32f3xx_hal_uart.c **** HAL_StatusTypeDef HAL_UART_DMAStop(UART_HandleTypeDef *huart)
ARM GAS  /tmp/ccinMcHI.s 			page 37


1153:Drivers/STM32F3xx_HAL_Driver/Src/stm32f3xx_hal_uart.c **** {
 766              		.loc 1 1153 0
 767              		.cfi_startproc
 768              		@ args = 0, pretend = 0, frame = 0
 769              		@ frame_needed = 0, uses_anonymous_args = 0
 770              	.LVL50:
1154:Drivers/STM32F3xx_HAL_Driver/Src/stm32f3xx_hal_uart.c ****   /* The Lock is not implemented on this API to allow the user application
1155:Drivers/STM32F3xx_HAL_Driver/Src/stm32f3xx_hal_uart.c ****      to call the HAL UART API under callbacks HAL_UART_TxCpltCallback() / HAL_UART_RxCpltCallback()
1156:Drivers/STM32F3xx_HAL_Driver/Src/stm32f3xx_hal_uart.c ****      HAL_UART_TxHalfCpltCallback / HAL_UART_RxHalfCpltCallback: 
1157:Drivers/STM32F3xx_HAL_Driver/Src/stm32f3xx_hal_uart.c ****      indeed, when HAL_DMA_Abort() API is called, the DMA TX/RX Transfer or Half Transfer complete  
1158:Drivers/STM32F3xx_HAL_Driver/Src/stm32f3xx_hal_uart.c ****      interrupt is generated if the DMA transfer interruption occurs at the middle or at the end of 
1159:Drivers/STM32F3xx_HAL_Driver/Src/stm32f3xx_hal_uart.c ****      the stream and the corresponding call back is executed. */
1160:Drivers/STM32F3xx_HAL_Driver/Src/stm32f3xx_hal_uart.c **** 
1161:Drivers/STM32F3xx_HAL_Driver/Src/stm32f3xx_hal_uart.c ****   /* Stop UART DMA Tx request if ongoing */
1162:Drivers/STM32F3xx_HAL_Driver/Src/stm32f3xx_hal_uart.c ****   if ((huart->gState == HAL_UART_STATE_BUSY_TX) &&
 771              		.loc 1 1162 0
 772 0000 90F86930 		ldrb	r3, [r0, #105]	@ zero_extendqisi2
 773 0004 212B     		cmp	r3, #33
1153:Drivers/STM32F3xx_HAL_Driver/Src/stm32f3xx_hal_uart.c ****   /* The Lock is not implemented on this API to allow the user application
 774              		.loc 1 1153 0
 775 0006 10B5     		push	{r4, lr}
 776              	.LCFI6:
 777              		.cfi_def_cfa_offset 8
 778              		.cfi_offset 4, -8
 779              		.cfi_offset 14, -4
1153:Drivers/STM32F3xx_HAL_Driver/Src/stm32f3xx_hal_uart.c ****   /* The Lock is not implemented on this API to allow the user application
 780              		.loc 1 1153 0
 781 0008 0446     		mov	r4, r0
 782              		.loc 1 1162 0
 783 000a 1FD0     		beq	.L95
 784              	.LVL51:
 785              	.L78:
1163:Drivers/STM32F3xx_HAL_Driver/Src/stm32f3xx_hal_uart.c ****       (HAL_IS_BIT_SET(huart->Instance->CR3, USART_CR3_DMAT)))
1164:Drivers/STM32F3xx_HAL_Driver/Src/stm32f3xx_hal_uart.c ****   {
1165:Drivers/STM32F3xx_HAL_Driver/Src/stm32f3xx_hal_uart.c ****     CLEAR_BIT(huart->Instance->CR3, USART_CR3_DMAT);
1166:Drivers/STM32F3xx_HAL_Driver/Src/stm32f3xx_hal_uart.c **** 
1167:Drivers/STM32F3xx_HAL_Driver/Src/stm32f3xx_hal_uart.c ****     /* Abort the UART DMA Tx channel */
1168:Drivers/STM32F3xx_HAL_Driver/Src/stm32f3xx_hal_uart.c ****     if(huart->hdmatx != NULL)
1169:Drivers/STM32F3xx_HAL_Driver/Src/stm32f3xx_hal_uart.c ****     {
1170:Drivers/STM32F3xx_HAL_Driver/Src/stm32f3xx_hal_uart.c ****       HAL_DMA_Abort(huart->hdmatx);
1171:Drivers/STM32F3xx_HAL_Driver/Src/stm32f3xx_hal_uart.c ****     }
1172:Drivers/STM32F3xx_HAL_Driver/Src/stm32f3xx_hal_uart.c **** 
1173:Drivers/STM32F3xx_HAL_Driver/Src/stm32f3xx_hal_uart.c ****     UART_EndTxTransfer(huart);
1174:Drivers/STM32F3xx_HAL_Driver/Src/stm32f3xx_hal_uart.c ****   }
1175:Drivers/STM32F3xx_HAL_Driver/Src/stm32f3xx_hal_uart.c **** 
1176:Drivers/STM32F3xx_HAL_Driver/Src/stm32f3xx_hal_uart.c ****   /* Stop UART DMA Rx request if ongoing */
1177:Drivers/STM32F3xx_HAL_Driver/Src/stm32f3xx_hal_uart.c ****   if ((huart->RxState == HAL_UART_STATE_BUSY_RX) &&
 786              		.loc 1 1177 0
 787 000c 94F86A30 		ldrb	r3, [r4, #106]	@ zero_extendqisi2
 788 0010 222B     		cmp	r3, #34
 789 0012 01D0     		beq	.L96
 790              	.L80:
1178:Drivers/STM32F3xx_HAL_Driver/Src/stm32f3xx_hal_uart.c ****       (HAL_IS_BIT_SET(huart->Instance->CR3, USART_CR3_DMAR)))
1179:Drivers/STM32F3xx_HAL_Driver/Src/stm32f3xx_hal_uart.c ****   {
1180:Drivers/STM32F3xx_HAL_Driver/Src/stm32f3xx_hal_uart.c ****     CLEAR_BIT(huart->Instance->CR3, USART_CR3_DMAR);
1181:Drivers/STM32F3xx_HAL_Driver/Src/stm32f3xx_hal_uart.c **** 
1182:Drivers/STM32F3xx_HAL_Driver/Src/stm32f3xx_hal_uart.c ****     /* Abort the UART DMA Rx channel */
ARM GAS  /tmp/ccinMcHI.s 			page 38


1183:Drivers/STM32F3xx_HAL_Driver/Src/stm32f3xx_hal_uart.c ****     if(huart->hdmarx != NULL)
1184:Drivers/STM32F3xx_HAL_Driver/Src/stm32f3xx_hal_uart.c ****     {
1185:Drivers/STM32F3xx_HAL_Driver/Src/stm32f3xx_hal_uart.c ****       HAL_DMA_Abort(huart->hdmarx);
1186:Drivers/STM32F3xx_HAL_Driver/Src/stm32f3xx_hal_uart.c ****     }
1187:Drivers/STM32F3xx_HAL_Driver/Src/stm32f3xx_hal_uart.c **** 
1188:Drivers/STM32F3xx_HAL_Driver/Src/stm32f3xx_hal_uart.c ****     UART_EndRxTransfer(huart);
1189:Drivers/STM32F3xx_HAL_Driver/Src/stm32f3xx_hal_uart.c ****   }
1190:Drivers/STM32F3xx_HAL_Driver/Src/stm32f3xx_hal_uart.c **** 
1191:Drivers/STM32F3xx_HAL_Driver/Src/stm32f3xx_hal_uart.c ****   return HAL_OK;
1192:Drivers/STM32F3xx_HAL_Driver/Src/stm32f3xx_hal_uart.c **** }
 791              		.loc 1 1192 0
 792 0014 0020     		movs	r0, #0
 793 0016 10BD     		pop	{r4, pc}
 794              	.LVL52:
 795              	.L96:
1178:Drivers/STM32F3xx_HAL_Driver/Src/stm32f3xx_hal_uart.c ****       (HAL_IS_BIT_SET(huart->Instance->CR3, USART_CR3_DMAR)))
 796              		.loc 1 1178 0 discriminator 1
 797 0018 2368     		ldr	r3, [r4]
 798 001a 9A68     		ldr	r2, [r3, #8]
1177:Drivers/STM32F3xx_HAL_Driver/Src/stm32f3xx_hal_uart.c ****       (HAL_IS_BIT_SET(huart->Instance->CR3, USART_CR3_DMAR)))
 799              		.loc 1 1177 0 discriminator 1
 800 001c 5206     		lsls	r2, r2, #25
 801 001e F9D5     		bpl	.L80
1180:Drivers/STM32F3xx_HAL_Driver/Src/stm32f3xx_hal_uart.c **** 
 802              		.loc 1 1180 0
 803 0020 9A68     		ldr	r2, [r3, #8]
1183:Drivers/STM32F3xx_HAL_Driver/Src/stm32f3xx_hal_uart.c ****     {
 804              		.loc 1 1183 0
 805 0022 606E     		ldr	r0, [r4, #100]
1180:Drivers/STM32F3xx_HAL_Driver/Src/stm32f3xx_hal_uart.c **** 
 806              		.loc 1 1180 0
 807 0024 22F04002 		bic	r2, r2, #64
 808 0028 9A60     		str	r2, [r3, #8]
1183:Drivers/STM32F3xx_HAL_Driver/Src/stm32f3xx_hal_uart.c ****     {
 809              		.loc 1 1183 0
 810 002a 10B1     		cbz	r0, .L81
1185:Drivers/STM32F3xx_HAL_Driver/Src/stm32f3xx_hal_uart.c ****     }
 811              		.loc 1 1185 0
 812 002c FFF7FEFF 		bl	HAL_DMA_Abort
 813              	.LVL53:
 814 0030 2368     		ldr	r3, [r4]
 815              	.L81:
 816              	.LVL54:
 817              	.LBB14:
 818              	.LBB15:
1193:Drivers/STM32F3xx_HAL_Driver/Src/stm32f3xx_hal_uart.c **** 
1194:Drivers/STM32F3xx_HAL_Driver/Src/stm32f3xx_hal_uart.c **** /**
1195:Drivers/STM32F3xx_HAL_Driver/Src/stm32f3xx_hal_uart.c ****   * @brief  Abort ongoing transfers (blocking mode).
1196:Drivers/STM32F3xx_HAL_Driver/Src/stm32f3xx_hal_uart.c ****   * @param  huart UART handle.
1197:Drivers/STM32F3xx_HAL_Driver/Src/stm32f3xx_hal_uart.c ****   * @note   This procedure could be used for aborting any ongoing transfer started in Interrupt or 
1198:Drivers/STM32F3xx_HAL_Driver/Src/stm32f3xx_hal_uart.c ****   *         This procedure performs following operations :
1199:Drivers/STM32F3xx_HAL_Driver/Src/stm32f3xx_hal_uart.c ****   *           - Disable UART Interrupts (Tx and Rx)
1200:Drivers/STM32F3xx_HAL_Driver/Src/stm32f3xx_hal_uart.c ****   *           - Disable the DMA transfer in the peripheral register (if enabled)
1201:Drivers/STM32F3xx_HAL_Driver/Src/stm32f3xx_hal_uart.c ****   *           - Abort DMA transfer by calling HAL_DMA_Abort (in case of transfer in DMA mode)
1202:Drivers/STM32F3xx_HAL_Driver/Src/stm32f3xx_hal_uart.c ****   *           - Set handle State to READY
1203:Drivers/STM32F3xx_HAL_Driver/Src/stm32f3xx_hal_uart.c ****   * @note   This procedure is executed in blocking mode : when exiting function, Abort is considere
1204:Drivers/STM32F3xx_HAL_Driver/Src/stm32f3xx_hal_uart.c ****   * @retval HAL status
ARM GAS  /tmp/ccinMcHI.s 			page 39


1205:Drivers/STM32F3xx_HAL_Driver/Src/stm32f3xx_hal_uart.c **** */
1206:Drivers/STM32F3xx_HAL_Driver/Src/stm32f3xx_hal_uart.c **** HAL_StatusTypeDef HAL_UART_Abort(UART_HandleTypeDef *huart)
1207:Drivers/STM32F3xx_HAL_Driver/Src/stm32f3xx_hal_uart.c **** {
1208:Drivers/STM32F3xx_HAL_Driver/Src/stm32f3xx_hal_uart.c ****   /* Disable TXEIE, TCIE, RXNE, PE and ERR (Frame error, noise error, overrun error) interrupts */
1209:Drivers/STM32F3xx_HAL_Driver/Src/stm32f3xx_hal_uart.c ****   CLEAR_BIT(huart->Instance->CR1, (USART_CR1_RXNEIE | USART_CR1_PEIE | USART_CR1_TXEIE | USART_CR1_
1210:Drivers/STM32F3xx_HAL_Driver/Src/stm32f3xx_hal_uart.c ****   CLEAR_BIT(huart->Instance->CR3, USART_CR3_EIE);
1211:Drivers/STM32F3xx_HAL_Driver/Src/stm32f3xx_hal_uart.c **** 
1212:Drivers/STM32F3xx_HAL_Driver/Src/stm32f3xx_hal_uart.c ****   /* Disable the UART DMA Tx request if enabled */
1213:Drivers/STM32F3xx_HAL_Driver/Src/stm32f3xx_hal_uart.c ****   if (HAL_IS_BIT_SET(huart->Instance->CR3, USART_CR3_DMAT))
1214:Drivers/STM32F3xx_HAL_Driver/Src/stm32f3xx_hal_uart.c ****   {
1215:Drivers/STM32F3xx_HAL_Driver/Src/stm32f3xx_hal_uart.c ****     CLEAR_BIT(huart->Instance->CR3, USART_CR3_DMAT);
1216:Drivers/STM32F3xx_HAL_Driver/Src/stm32f3xx_hal_uart.c **** 
1217:Drivers/STM32F3xx_HAL_Driver/Src/stm32f3xx_hal_uart.c ****     /* Abort the UART DMA Tx channel : use blocking DMA Abort API (no callback) */
1218:Drivers/STM32F3xx_HAL_Driver/Src/stm32f3xx_hal_uart.c ****     if(huart->hdmatx != NULL)
1219:Drivers/STM32F3xx_HAL_Driver/Src/stm32f3xx_hal_uart.c ****     {
1220:Drivers/STM32F3xx_HAL_Driver/Src/stm32f3xx_hal_uart.c ****       /* Set the UART DMA Abort callback to Null. 
1221:Drivers/STM32F3xx_HAL_Driver/Src/stm32f3xx_hal_uart.c ****          No call back execution at end of DMA abort procedure */
1222:Drivers/STM32F3xx_HAL_Driver/Src/stm32f3xx_hal_uart.c ****       huart->hdmatx->XferAbortCallback = NULL;
1223:Drivers/STM32F3xx_HAL_Driver/Src/stm32f3xx_hal_uart.c **** 
1224:Drivers/STM32F3xx_HAL_Driver/Src/stm32f3xx_hal_uart.c ****       HAL_DMA_Abort(huart->hdmatx);
1225:Drivers/STM32F3xx_HAL_Driver/Src/stm32f3xx_hal_uart.c ****     }
1226:Drivers/STM32F3xx_HAL_Driver/Src/stm32f3xx_hal_uart.c ****   }
1227:Drivers/STM32F3xx_HAL_Driver/Src/stm32f3xx_hal_uart.c **** 
1228:Drivers/STM32F3xx_HAL_Driver/Src/stm32f3xx_hal_uart.c ****   /* Disable the UART DMA Rx request if enabled */
1229:Drivers/STM32F3xx_HAL_Driver/Src/stm32f3xx_hal_uart.c ****   if (HAL_IS_BIT_SET(huart->Instance->CR3, USART_CR3_DMAR))
1230:Drivers/STM32F3xx_HAL_Driver/Src/stm32f3xx_hal_uart.c ****   {
1231:Drivers/STM32F3xx_HAL_Driver/Src/stm32f3xx_hal_uart.c ****     CLEAR_BIT(huart->Instance->CR3, USART_CR3_DMAR);
1232:Drivers/STM32F3xx_HAL_Driver/Src/stm32f3xx_hal_uart.c **** 
1233:Drivers/STM32F3xx_HAL_Driver/Src/stm32f3xx_hal_uart.c ****     /* Abort the UART DMA Rx channel : use blocking DMA Abort API (no callback) */
1234:Drivers/STM32F3xx_HAL_Driver/Src/stm32f3xx_hal_uart.c ****     if(huart->hdmarx != NULL)
1235:Drivers/STM32F3xx_HAL_Driver/Src/stm32f3xx_hal_uart.c ****     {
1236:Drivers/STM32F3xx_HAL_Driver/Src/stm32f3xx_hal_uart.c ****       /* Set the UART DMA Abort callback to Null. 
1237:Drivers/STM32F3xx_HAL_Driver/Src/stm32f3xx_hal_uart.c ****          No call back execution at end of DMA abort procedure */
1238:Drivers/STM32F3xx_HAL_Driver/Src/stm32f3xx_hal_uart.c ****       huart->hdmarx->XferAbortCallback = NULL;
1239:Drivers/STM32F3xx_HAL_Driver/Src/stm32f3xx_hal_uart.c **** 
1240:Drivers/STM32F3xx_HAL_Driver/Src/stm32f3xx_hal_uart.c ****       HAL_DMA_Abort(huart->hdmarx);
1241:Drivers/STM32F3xx_HAL_Driver/Src/stm32f3xx_hal_uart.c ****     }
1242:Drivers/STM32F3xx_HAL_Driver/Src/stm32f3xx_hal_uart.c ****   }
1243:Drivers/STM32F3xx_HAL_Driver/Src/stm32f3xx_hal_uart.c **** 
1244:Drivers/STM32F3xx_HAL_Driver/Src/stm32f3xx_hal_uart.c ****   /* Reset Tx and Rx transfer counters */
1245:Drivers/STM32F3xx_HAL_Driver/Src/stm32f3xx_hal_uart.c ****   huart->TxXferCount = 0U; 
1246:Drivers/STM32F3xx_HAL_Driver/Src/stm32f3xx_hal_uart.c ****   huart->RxXferCount = 0U; 
1247:Drivers/STM32F3xx_HAL_Driver/Src/stm32f3xx_hal_uart.c **** 
1248:Drivers/STM32F3xx_HAL_Driver/Src/stm32f3xx_hal_uart.c ****   /* Clear the Error flags in the ICR register */
1249:Drivers/STM32F3xx_HAL_Driver/Src/stm32f3xx_hal_uart.c ****   __HAL_UART_CLEAR_FLAG(huart, UART_CLEAR_OREF | UART_CLEAR_NEF | UART_CLEAR_PEF | UART_CLEAR_FEF);
1250:Drivers/STM32F3xx_HAL_Driver/Src/stm32f3xx_hal_uart.c **** 
1251:Drivers/STM32F3xx_HAL_Driver/Src/stm32f3xx_hal_uart.c ****   /* Restore huart->gState and huart->RxState to Ready */
1252:Drivers/STM32F3xx_HAL_Driver/Src/stm32f3xx_hal_uart.c ****   huart->gState  = HAL_UART_STATE_READY;
1253:Drivers/STM32F3xx_HAL_Driver/Src/stm32f3xx_hal_uart.c ****   huart->RxState = HAL_UART_STATE_READY;
1254:Drivers/STM32F3xx_HAL_Driver/Src/stm32f3xx_hal_uart.c **** 
1255:Drivers/STM32F3xx_HAL_Driver/Src/stm32f3xx_hal_uart.c ****   /* Reset Handle ErrorCode to No Error */
1256:Drivers/STM32F3xx_HAL_Driver/Src/stm32f3xx_hal_uart.c ****   huart->ErrorCode = HAL_UART_ERROR_NONE;
1257:Drivers/STM32F3xx_HAL_Driver/Src/stm32f3xx_hal_uart.c **** 
1258:Drivers/STM32F3xx_HAL_Driver/Src/stm32f3xx_hal_uart.c ****   return HAL_OK;
1259:Drivers/STM32F3xx_HAL_Driver/Src/stm32f3xx_hal_uart.c **** }
1260:Drivers/STM32F3xx_HAL_Driver/Src/stm32f3xx_hal_uart.c **** 
1261:Drivers/STM32F3xx_HAL_Driver/Src/stm32f3xx_hal_uart.c **** /**
ARM GAS  /tmp/ccinMcHI.s 			page 40


1262:Drivers/STM32F3xx_HAL_Driver/Src/stm32f3xx_hal_uart.c ****   * @brief  Abort ongoing Transmit transfer (blocking mode).
1263:Drivers/STM32F3xx_HAL_Driver/Src/stm32f3xx_hal_uart.c ****   * @param  huart UART handle.
1264:Drivers/STM32F3xx_HAL_Driver/Src/stm32f3xx_hal_uart.c ****   * @note   This procedure could be used for aborting any ongoing Tx transfer started in Interrupt 
1265:Drivers/STM32F3xx_HAL_Driver/Src/stm32f3xx_hal_uart.c ****   *         This procedure performs following operations :
1266:Drivers/STM32F3xx_HAL_Driver/Src/stm32f3xx_hal_uart.c ****   *           - Disable UART Interrupts (Tx)
1267:Drivers/STM32F3xx_HAL_Driver/Src/stm32f3xx_hal_uart.c ****   *           - Disable the DMA transfer in the peripheral register (if enabled)
1268:Drivers/STM32F3xx_HAL_Driver/Src/stm32f3xx_hal_uart.c ****   *           - Abort DMA transfer by calling HAL_DMA_Abort (in case of transfer in DMA mode)
1269:Drivers/STM32F3xx_HAL_Driver/Src/stm32f3xx_hal_uart.c ****   *           - Set handle State to READY
1270:Drivers/STM32F3xx_HAL_Driver/Src/stm32f3xx_hal_uart.c ****   * @note   This procedure is executed in blocking mode : when exiting function, Abort is considere
1271:Drivers/STM32F3xx_HAL_Driver/Src/stm32f3xx_hal_uart.c ****   * @retval HAL status
1272:Drivers/STM32F3xx_HAL_Driver/Src/stm32f3xx_hal_uart.c **** */
1273:Drivers/STM32F3xx_HAL_Driver/Src/stm32f3xx_hal_uart.c **** HAL_StatusTypeDef HAL_UART_AbortTransmit(UART_HandleTypeDef *huart)
1274:Drivers/STM32F3xx_HAL_Driver/Src/stm32f3xx_hal_uart.c **** {
1275:Drivers/STM32F3xx_HAL_Driver/Src/stm32f3xx_hal_uart.c ****   /* Disable TXEIE and TCIE interrupts */
1276:Drivers/STM32F3xx_HAL_Driver/Src/stm32f3xx_hal_uart.c ****   CLEAR_BIT(huart->Instance->CR1, (USART_CR1_TXEIE | USART_CR1_TCIE));
1277:Drivers/STM32F3xx_HAL_Driver/Src/stm32f3xx_hal_uart.c **** 
1278:Drivers/STM32F3xx_HAL_Driver/Src/stm32f3xx_hal_uart.c ****   /* Disable the UART DMA Tx request if enabled */
1279:Drivers/STM32F3xx_HAL_Driver/Src/stm32f3xx_hal_uart.c ****   if (HAL_IS_BIT_SET(huart->Instance->CR3, USART_CR3_DMAT))
1280:Drivers/STM32F3xx_HAL_Driver/Src/stm32f3xx_hal_uart.c ****   {
1281:Drivers/STM32F3xx_HAL_Driver/Src/stm32f3xx_hal_uart.c ****     CLEAR_BIT(huart->Instance->CR3, USART_CR3_DMAT);
1282:Drivers/STM32F3xx_HAL_Driver/Src/stm32f3xx_hal_uart.c **** 
1283:Drivers/STM32F3xx_HAL_Driver/Src/stm32f3xx_hal_uart.c ****     /* Abort the UART DMA Tx channel : use blocking DMA Abort API (no callback) */
1284:Drivers/STM32F3xx_HAL_Driver/Src/stm32f3xx_hal_uart.c ****     if(huart->hdmatx != NULL)
1285:Drivers/STM32F3xx_HAL_Driver/Src/stm32f3xx_hal_uart.c ****     {
1286:Drivers/STM32F3xx_HAL_Driver/Src/stm32f3xx_hal_uart.c ****       /* Set the UART DMA Abort callback to Null. 
1287:Drivers/STM32F3xx_HAL_Driver/Src/stm32f3xx_hal_uart.c ****          No call back execution at end of DMA abort procedure */
1288:Drivers/STM32F3xx_HAL_Driver/Src/stm32f3xx_hal_uart.c ****       huart->hdmatx->XferAbortCallback = NULL;
1289:Drivers/STM32F3xx_HAL_Driver/Src/stm32f3xx_hal_uart.c **** 
1290:Drivers/STM32F3xx_HAL_Driver/Src/stm32f3xx_hal_uart.c ****       HAL_DMA_Abort(huart->hdmatx);
1291:Drivers/STM32F3xx_HAL_Driver/Src/stm32f3xx_hal_uart.c ****     }
1292:Drivers/STM32F3xx_HAL_Driver/Src/stm32f3xx_hal_uart.c ****   }
1293:Drivers/STM32F3xx_HAL_Driver/Src/stm32f3xx_hal_uart.c **** 
1294:Drivers/STM32F3xx_HAL_Driver/Src/stm32f3xx_hal_uart.c ****   /* Reset Tx transfer counter */
1295:Drivers/STM32F3xx_HAL_Driver/Src/stm32f3xx_hal_uart.c ****   huart->TxXferCount = 0U; 
1296:Drivers/STM32F3xx_HAL_Driver/Src/stm32f3xx_hal_uart.c **** 
1297:Drivers/STM32F3xx_HAL_Driver/Src/stm32f3xx_hal_uart.c ****   /* Restore huart->gState to Ready */
1298:Drivers/STM32F3xx_HAL_Driver/Src/stm32f3xx_hal_uart.c ****   huart->gState = HAL_UART_STATE_READY;
1299:Drivers/STM32F3xx_HAL_Driver/Src/stm32f3xx_hal_uart.c **** 
1300:Drivers/STM32F3xx_HAL_Driver/Src/stm32f3xx_hal_uart.c ****   return HAL_OK;
1301:Drivers/STM32F3xx_HAL_Driver/Src/stm32f3xx_hal_uart.c **** }
1302:Drivers/STM32F3xx_HAL_Driver/Src/stm32f3xx_hal_uart.c **** 
1303:Drivers/STM32F3xx_HAL_Driver/Src/stm32f3xx_hal_uart.c **** /**
1304:Drivers/STM32F3xx_HAL_Driver/Src/stm32f3xx_hal_uart.c ****   * @brief  Abort ongoing Receive transfer (blocking mode).
1305:Drivers/STM32F3xx_HAL_Driver/Src/stm32f3xx_hal_uart.c ****   * @param  huart UART handle.
1306:Drivers/STM32F3xx_HAL_Driver/Src/stm32f3xx_hal_uart.c ****   * @note   This procedure could be used for aborting any ongoing Rx transfer started in Interrupt 
1307:Drivers/STM32F3xx_HAL_Driver/Src/stm32f3xx_hal_uart.c ****   *         This procedure performs following operations :
1308:Drivers/STM32F3xx_HAL_Driver/Src/stm32f3xx_hal_uart.c ****   *           - Disable UART Interrupts (Rx)
1309:Drivers/STM32F3xx_HAL_Driver/Src/stm32f3xx_hal_uart.c ****   *           - Disable the DMA transfer in the peripheral register (if enabled)
1310:Drivers/STM32F3xx_HAL_Driver/Src/stm32f3xx_hal_uart.c ****   *           - Abort DMA transfer by calling HAL_DMA_Abort (in case of transfer in DMA mode)
1311:Drivers/STM32F3xx_HAL_Driver/Src/stm32f3xx_hal_uart.c ****   *           - Set handle State to READY
1312:Drivers/STM32F3xx_HAL_Driver/Src/stm32f3xx_hal_uart.c ****   * @note   This procedure is executed in blocking mode : when exiting function, Abort is considere
1313:Drivers/STM32F3xx_HAL_Driver/Src/stm32f3xx_hal_uart.c ****   * @retval HAL status
1314:Drivers/STM32F3xx_HAL_Driver/Src/stm32f3xx_hal_uart.c **** */
1315:Drivers/STM32F3xx_HAL_Driver/Src/stm32f3xx_hal_uart.c **** HAL_StatusTypeDef HAL_UART_AbortReceive(UART_HandleTypeDef *huart)
1316:Drivers/STM32F3xx_HAL_Driver/Src/stm32f3xx_hal_uart.c **** {
1317:Drivers/STM32F3xx_HAL_Driver/Src/stm32f3xx_hal_uart.c ****   /* Disable RXNE, PE and ERR (Frame error, noise error, overrun error) interrupts */
1318:Drivers/STM32F3xx_HAL_Driver/Src/stm32f3xx_hal_uart.c ****   CLEAR_BIT(huart->Instance->CR1, (USART_CR1_RXNEIE | USART_CR1_PEIE));
ARM GAS  /tmp/ccinMcHI.s 			page 41


1319:Drivers/STM32F3xx_HAL_Driver/Src/stm32f3xx_hal_uart.c ****   CLEAR_BIT(huart->Instance->CR3, USART_CR3_EIE);
1320:Drivers/STM32F3xx_HAL_Driver/Src/stm32f3xx_hal_uart.c **** 
1321:Drivers/STM32F3xx_HAL_Driver/Src/stm32f3xx_hal_uart.c ****   /* Disable the UART DMA Rx request if enabled */
1322:Drivers/STM32F3xx_HAL_Driver/Src/stm32f3xx_hal_uart.c ****   if (HAL_IS_BIT_SET(huart->Instance->CR3, USART_CR3_DMAR))
1323:Drivers/STM32F3xx_HAL_Driver/Src/stm32f3xx_hal_uart.c ****   {
1324:Drivers/STM32F3xx_HAL_Driver/Src/stm32f3xx_hal_uart.c ****     CLEAR_BIT(huart->Instance->CR3, USART_CR3_DMAR);
1325:Drivers/STM32F3xx_HAL_Driver/Src/stm32f3xx_hal_uart.c **** 
1326:Drivers/STM32F3xx_HAL_Driver/Src/stm32f3xx_hal_uart.c ****     /* Abort the UART DMA Rx channel : use blocking DMA Abort API (no callback) */
1327:Drivers/STM32F3xx_HAL_Driver/Src/stm32f3xx_hal_uart.c ****     if(huart->hdmarx != NULL)
1328:Drivers/STM32F3xx_HAL_Driver/Src/stm32f3xx_hal_uart.c ****     {
1329:Drivers/STM32F3xx_HAL_Driver/Src/stm32f3xx_hal_uart.c ****       /* Set the UART DMA Abort callback to Null. 
1330:Drivers/STM32F3xx_HAL_Driver/Src/stm32f3xx_hal_uart.c ****          No call back execution at end of DMA abort procedure */
1331:Drivers/STM32F3xx_HAL_Driver/Src/stm32f3xx_hal_uart.c ****       huart->hdmarx->XferAbortCallback = NULL;
1332:Drivers/STM32F3xx_HAL_Driver/Src/stm32f3xx_hal_uart.c **** 
1333:Drivers/STM32F3xx_HAL_Driver/Src/stm32f3xx_hal_uart.c ****       HAL_DMA_Abort(huart->hdmarx);
1334:Drivers/STM32F3xx_HAL_Driver/Src/stm32f3xx_hal_uart.c ****     }
1335:Drivers/STM32F3xx_HAL_Driver/Src/stm32f3xx_hal_uart.c ****   }
1336:Drivers/STM32F3xx_HAL_Driver/Src/stm32f3xx_hal_uart.c **** 
1337:Drivers/STM32F3xx_HAL_Driver/Src/stm32f3xx_hal_uart.c ****   /* Reset Rx transfer counter */
1338:Drivers/STM32F3xx_HAL_Driver/Src/stm32f3xx_hal_uart.c ****   huart->RxXferCount = 0U; 
1339:Drivers/STM32F3xx_HAL_Driver/Src/stm32f3xx_hal_uart.c **** 
1340:Drivers/STM32F3xx_HAL_Driver/Src/stm32f3xx_hal_uart.c ****   /* Clear the Error flags in the ICR register */
1341:Drivers/STM32F3xx_HAL_Driver/Src/stm32f3xx_hal_uart.c ****   __HAL_UART_CLEAR_FLAG(huart, UART_CLEAR_OREF | UART_CLEAR_NEF | UART_CLEAR_PEF | UART_CLEAR_FEF);
1342:Drivers/STM32F3xx_HAL_Driver/Src/stm32f3xx_hal_uart.c **** 
1343:Drivers/STM32F3xx_HAL_Driver/Src/stm32f3xx_hal_uart.c ****   /* Restore huart->RxState to Ready */
1344:Drivers/STM32F3xx_HAL_Driver/Src/stm32f3xx_hal_uart.c ****   huart->RxState = HAL_UART_STATE_READY;
1345:Drivers/STM32F3xx_HAL_Driver/Src/stm32f3xx_hal_uart.c **** 
1346:Drivers/STM32F3xx_HAL_Driver/Src/stm32f3xx_hal_uart.c ****   return HAL_OK;
1347:Drivers/STM32F3xx_HAL_Driver/Src/stm32f3xx_hal_uart.c **** }
1348:Drivers/STM32F3xx_HAL_Driver/Src/stm32f3xx_hal_uart.c **** 
1349:Drivers/STM32F3xx_HAL_Driver/Src/stm32f3xx_hal_uart.c **** /**
1350:Drivers/STM32F3xx_HAL_Driver/Src/stm32f3xx_hal_uart.c ****   * @brief  Abort ongoing transfers (Interrupt mode).
1351:Drivers/STM32F3xx_HAL_Driver/Src/stm32f3xx_hal_uart.c ****   * @param  huart UART handle.
1352:Drivers/STM32F3xx_HAL_Driver/Src/stm32f3xx_hal_uart.c ****   * @note   This procedure could be used for aborting any ongoing transfer started in Interrupt or 
1353:Drivers/STM32F3xx_HAL_Driver/Src/stm32f3xx_hal_uart.c ****   *         This procedure performs following operations :
1354:Drivers/STM32F3xx_HAL_Driver/Src/stm32f3xx_hal_uart.c ****   *           - Disable UART Interrupts (Tx and Rx)
1355:Drivers/STM32F3xx_HAL_Driver/Src/stm32f3xx_hal_uart.c ****   *           - Disable the DMA transfer in the peripheral register (if enabled)
1356:Drivers/STM32F3xx_HAL_Driver/Src/stm32f3xx_hal_uart.c ****   *           - Abort DMA transfer by calling HAL_DMA_Abort_IT (in case of transfer in DMA mode)
1357:Drivers/STM32F3xx_HAL_Driver/Src/stm32f3xx_hal_uart.c ****   *           - Set handle State to READY
1358:Drivers/STM32F3xx_HAL_Driver/Src/stm32f3xx_hal_uart.c ****   *           - At abort completion, call user abort complete callback
1359:Drivers/STM32F3xx_HAL_Driver/Src/stm32f3xx_hal_uart.c ****   * @note   This procedure is executed in Interrupt mode, meaning that abort procedure could be
1360:Drivers/STM32F3xx_HAL_Driver/Src/stm32f3xx_hal_uart.c ****   *         considered as completed only when user abort complete callback is executed (not when ex
1361:Drivers/STM32F3xx_HAL_Driver/Src/stm32f3xx_hal_uart.c ****   * @retval HAL status
1362:Drivers/STM32F3xx_HAL_Driver/Src/stm32f3xx_hal_uart.c **** */
1363:Drivers/STM32F3xx_HAL_Driver/Src/stm32f3xx_hal_uart.c **** HAL_StatusTypeDef HAL_UART_Abort_IT(UART_HandleTypeDef *huart)
1364:Drivers/STM32F3xx_HAL_Driver/Src/stm32f3xx_hal_uart.c **** {
1365:Drivers/STM32F3xx_HAL_Driver/Src/stm32f3xx_hal_uart.c ****   uint32_t abortcplt = 1U;
1366:Drivers/STM32F3xx_HAL_Driver/Src/stm32f3xx_hal_uart.c ****   
1367:Drivers/STM32F3xx_HAL_Driver/Src/stm32f3xx_hal_uart.c ****   /* Disable TXEIE, TCIE, RXNE, PE and ERR (Frame error, noise error, overrun error) interrupts */
1368:Drivers/STM32F3xx_HAL_Driver/Src/stm32f3xx_hal_uart.c ****   CLEAR_BIT(huart->Instance->CR1, (USART_CR1_RXNEIE | USART_CR1_PEIE | USART_CR1_TXEIE | USART_CR1_
1369:Drivers/STM32F3xx_HAL_Driver/Src/stm32f3xx_hal_uart.c ****   CLEAR_BIT(huart->Instance->CR3, USART_CR3_EIE);
1370:Drivers/STM32F3xx_HAL_Driver/Src/stm32f3xx_hal_uart.c **** 
1371:Drivers/STM32F3xx_HAL_Driver/Src/stm32f3xx_hal_uart.c ****   /* If DMA Tx and/or DMA Rx Handles are associated to UART Handle, DMA Abort complete callbacks sh
1372:Drivers/STM32F3xx_HAL_Driver/Src/stm32f3xx_hal_uart.c ****      before any call to DMA Abort functions */
1373:Drivers/STM32F3xx_HAL_Driver/Src/stm32f3xx_hal_uart.c ****   /* DMA Tx Handle is valid */
1374:Drivers/STM32F3xx_HAL_Driver/Src/stm32f3xx_hal_uart.c ****   if(huart->hdmatx != NULL)
1375:Drivers/STM32F3xx_HAL_Driver/Src/stm32f3xx_hal_uart.c ****   {
ARM GAS  /tmp/ccinMcHI.s 			page 42


1376:Drivers/STM32F3xx_HAL_Driver/Src/stm32f3xx_hal_uart.c ****     /* Set DMA Abort Complete callback if UART DMA Tx request if enabled.
1377:Drivers/STM32F3xx_HAL_Driver/Src/stm32f3xx_hal_uart.c ****        Otherwise, set it to NULL */
1378:Drivers/STM32F3xx_HAL_Driver/Src/stm32f3xx_hal_uart.c ****     if(HAL_IS_BIT_SET(huart->Instance->CR3, USART_CR3_DMAT))
1379:Drivers/STM32F3xx_HAL_Driver/Src/stm32f3xx_hal_uart.c ****     {
1380:Drivers/STM32F3xx_HAL_Driver/Src/stm32f3xx_hal_uart.c ****       huart->hdmatx->XferAbortCallback = UART_DMATxAbortCallback;
1381:Drivers/STM32F3xx_HAL_Driver/Src/stm32f3xx_hal_uart.c ****     }
1382:Drivers/STM32F3xx_HAL_Driver/Src/stm32f3xx_hal_uart.c ****     else
1383:Drivers/STM32F3xx_HAL_Driver/Src/stm32f3xx_hal_uart.c ****     {
1384:Drivers/STM32F3xx_HAL_Driver/Src/stm32f3xx_hal_uart.c ****       huart->hdmatx->XferAbortCallback = NULL;
1385:Drivers/STM32F3xx_HAL_Driver/Src/stm32f3xx_hal_uart.c ****     }
1386:Drivers/STM32F3xx_HAL_Driver/Src/stm32f3xx_hal_uart.c ****   }
1387:Drivers/STM32F3xx_HAL_Driver/Src/stm32f3xx_hal_uart.c ****   /* DMA Rx Handle is valid */
1388:Drivers/STM32F3xx_HAL_Driver/Src/stm32f3xx_hal_uart.c ****   if(huart->hdmarx != NULL)
1389:Drivers/STM32F3xx_HAL_Driver/Src/stm32f3xx_hal_uart.c ****   {
1390:Drivers/STM32F3xx_HAL_Driver/Src/stm32f3xx_hal_uart.c ****     /* Set DMA Abort Complete callback if UART DMA Rx request if enabled.
1391:Drivers/STM32F3xx_HAL_Driver/Src/stm32f3xx_hal_uart.c ****        Otherwise, set it to NULL */
1392:Drivers/STM32F3xx_HAL_Driver/Src/stm32f3xx_hal_uart.c ****     if(HAL_IS_BIT_SET(huart->Instance->CR3, USART_CR3_DMAR))
1393:Drivers/STM32F3xx_HAL_Driver/Src/stm32f3xx_hal_uart.c ****     {
1394:Drivers/STM32F3xx_HAL_Driver/Src/stm32f3xx_hal_uart.c ****       huart->hdmarx->XferAbortCallback = UART_DMARxAbortCallback;
1395:Drivers/STM32F3xx_HAL_Driver/Src/stm32f3xx_hal_uart.c ****     }
1396:Drivers/STM32F3xx_HAL_Driver/Src/stm32f3xx_hal_uart.c ****     else
1397:Drivers/STM32F3xx_HAL_Driver/Src/stm32f3xx_hal_uart.c ****     {
1398:Drivers/STM32F3xx_HAL_Driver/Src/stm32f3xx_hal_uart.c ****       huart->hdmarx->XferAbortCallback = NULL;
1399:Drivers/STM32F3xx_HAL_Driver/Src/stm32f3xx_hal_uart.c ****     }
1400:Drivers/STM32F3xx_HAL_Driver/Src/stm32f3xx_hal_uart.c ****   }
1401:Drivers/STM32F3xx_HAL_Driver/Src/stm32f3xx_hal_uart.c ****   
1402:Drivers/STM32F3xx_HAL_Driver/Src/stm32f3xx_hal_uart.c ****   /* Disable the UART DMA Tx request if enabled */
1403:Drivers/STM32F3xx_HAL_Driver/Src/stm32f3xx_hal_uart.c ****   if(HAL_IS_BIT_SET(huart->Instance->CR3, USART_CR3_DMAT))
1404:Drivers/STM32F3xx_HAL_Driver/Src/stm32f3xx_hal_uart.c ****   {
1405:Drivers/STM32F3xx_HAL_Driver/Src/stm32f3xx_hal_uart.c ****     /* Disable DMA Tx at UART level */
1406:Drivers/STM32F3xx_HAL_Driver/Src/stm32f3xx_hal_uart.c ****     CLEAR_BIT(huart->Instance->CR3, USART_CR3_DMAT);
1407:Drivers/STM32F3xx_HAL_Driver/Src/stm32f3xx_hal_uart.c **** 
1408:Drivers/STM32F3xx_HAL_Driver/Src/stm32f3xx_hal_uart.c ****     /* Abort the UART DMA Tx channel : use non blocking DMA Abort API (callback) */
1409:Drivers/STM32F3xx_HAL_Driver/Src/stm32f3xx_hal_uart.c ****     if(huart->hdmatx != NULL)
1410:Drivers/STM32F3xx_HAL_Driver/Src/stm32f3xx_hal_uart.c ****     {
1411:Drivers/STM32F3xx_HAL_Driver/Src/stm32f3xx_hal_uart.c ****       /* UART Tx DMA Abort callback has already been initialised : 
1412:Drivers/STM32F3xx_HAL_Driver/Src/stm32f3xx_hal_uart.c ****          will lead to call HAL_UART_AbortCpltCallback() at end of DMA abort procedure */
1413:Drivers/STM32F3xx_HAL_Driver/Src/stm32f3xx_hal_uart.c **** 
1414:Drivers/STM32F3xx_HAL_Driver/Src/stm32f3xx_hal_uart.c ****       /* Abort DMA TX */
1415:Drivers/STM32F3xx_HAL_Driver/Src/stm32f3xx_hal_uart.c ****       if(HAL_DMA_Abort_IT(huart->hdmatx) != HAL_OK)
1416:Drivers/STM32F3xx_HAL_Driver/Src/stm32f3xx_hal_uart.c ****       {
1417:Drivers/STM32F3xx_HAL_Driver/Src/stm32f3xx_hal_uart.c ****         huart->hdmatx->XferAbortCallback = NULL;
1418:Drivers/STM32F3xx_HAL_Driver/Src/stm32f3xx_hal_uart.c ****       }
1419:Drivers/STM32F3xx_HAL_Driver/Src/stm32f3xx_hal_uart.c ****       else
1420:Drivers/STM32F3xx_HAL_Driver/Src/stm32f3xx_hal_uart.c ****       {
1421:Drivers/STM32F3xx_HAL_Driver/Src/stm32f3xx_hal_uart.c ****         abortcplt = 0U;
1422:Drivers/STM32F3xx_HAL_Driver/Src/stm32f3xx_hal_uart.c ****       }
1423:Drivers/STM32F3xx_HAL_Driver/Src/stm32f3xx_hal_uart.c ****     }
1424:Drivers/STM32F3xx_HAL_Driver/Src/stm32f3xx_hal_uart.c ****   }
1425:Drivers/STM32F3xx_HAL_Driver/Src/stm32f3xx_hal_uart.c **** 
1426:Drivers/STM32F3xx_HAL_Driver/Src/stm32f3xx_hal_uart.c ****   /* Disable the UART DMA Rx request if enabled */
1427:Drivers/STM32F3xx_HAL_Driver/Src/stm32f3xx_hal_uart.c ****   if (HAL_IS_BIT_SET(huart->Instance->CR3, USART_CR3_DMAR))
1428:Drivers/STM32F3xx_HAL_Driver/Src/stm32f3xx_hal_uart.c ****   {
1429:Drivers/STM32F3xx_HAL_Driver/Src/stm32f3xx_hal_uart.c ****     CLEAR_BIT(huart->Instance->CR3, USART_CR3_DMAR);
1430:Drivers/STM32F3xx_HAL_Driver/Src/stm32f3xx_hal_uart.c **** 
1431:Drivers/STM32F3xx_HAL_Driver/Src/stm32f3xx_hal_uart.c ****     /* Abort the UART DMA Rx channel : use non blocking DMA Abort API (callback) */
1432:Drivers/STM32F3xx_HAL_Driver/Src/stm32f3xx_hal_uart.c ****     if(huart->hdmarx != NULL)
ARM GAS  /tmp/ccinMcHI.s 			page 43


1433:Drivers/STM32F3xx_HAL_Driver/Src/stm32f3xx_hal_uart.c ****     {
1434:Drivers/STM32F3xx_HAL_Driver/Src/stm32f3xx_hal_uart.c ****       /* UART Rx DMA Abort callback has already been initialised : 
1435:Drivers/STM32F3xx_HAL_Driver/Src/stm32f3xx_hal_uart.c ****          will lead to call HAL_UART_AbortCpltCallback() at end of DMA abort procedure */
1436:Drivers/STM32F3xx_HAL_Driver/Src/stm32f3xx_hal_uart.c **** 
1437:Drivers/STM32F3xx_HAL_Driver/Src/stm32f3xx_hal_uart.c ****       /* Abort DMA RX */
1438:Drivers/STM32F3xx_HAL_Driver/Src/stm32f3xx_hal_uart.c ****       if(HAL_DMA_Abort_IT(huart->hdmarx) != HAL_OK)
1439:Drivers/STM32F3xx_HAL_Driver/Src/stm32f3xx_hal_uart.c ****       {
1440:Drivers/STM32F3xx_HAL_Driver/Src/stm32f3xx_hal_uart.c ****         huart->hdmarx->XferAbortCallback = NULL;
1441:Drivers/STM32F3xx_HAL_Driver/Src/stm32f3xx_hal_uart.c ****         abortcplt = 1U;
1442:Drivers/STM32F3xx_HAL_Driver/Src/stm32f3xx_hal_uart.c ****       }
1443:Drivers/STM32F3xx_HAL_Driver/Src/stm32f3xx_hal_uart.c ****       else
1444:Drivers/STM32F3xx_HAL_Driver/Src/stm32f3xx_hal_uart.c ****       {
1445:Drivers/STM32F3xx_HAL_Driver/Src/stm32f3xx_hal_uart.c ****         abortcplt = 0U;
1446:Drivers/STM32F3xx_HAL_Driver/Src/stm32f3xx_hal_uart.c ****       }
1447:Drivers/STM32F3xx_HAL_Driver/Src/stm32f3xx_hal_uart.c ****     }
1448:Drivers/STM32F3xx_HAL_Driver/Src/stm32f3xx_hal_uart.c ****   }
1449:Drivers/STM32F3xx_HAL_Driver/Src/stm32f3xx_hal_uart.c **** 
1450:Drivers/STM32F3xx_HAL_Driver/Src/stm32f3xx_hal_uart.c ****   /* if no DMA abort complete callback execution is required => call user Abort Complete callback *
1451:Drivers/STM32F3xx_HAL_Driver/Src/stm32f3xx_hal_uart.c ****   if (abortcplt == 1U)
1452:Drivers/STM32F3xx_HAL_Driver/Src/stm32f3xx_hal_uart.c ****   {
1453:Drivers/STM32F3xx_HAL_Driver/Src/stm32f3xx_hal_uart.c ****     /* Reset Tx and Rx transfer counters */
1454:Drivers/STM32F3xx_HAL_Driver/Src/stm32f3xx_hal_uart.c ****     huart->TxXferCount = 0U; 
1455:Drivers/STM32F3xx_HAL_Driver/Src/stm32f3xx_hal_uart.c ****     huart->RxXferCount = 0U;
1456:Drivers/STM32F3xx_HAL_Driver/Src/stm32f3xx_hal_uart.c **** 
1457:Drivers/STM32F3xx_HAL_Driver/Src/stm32f3xx_hal_uart.c ****     /* Reset errorCode */
1458:Drivers/STM32F3xx_HAL_Driver/Src/stm32f3xx_hal_uart.c ****     huart->ErrorCode = HAL_UART_ERROR_NONE;
1459:Drivers/STM32F3xx_HAL_Driver/Src/stm32f3xx_hal_uart.c **** 
1460:Drivers/STM32F3xx_HAL_Driver/Src/stm32f3xx_hal_uart.c ****     /* Clear the Error flags in the ICR register */
1461:Drivers/STM32F3xx_HAL_Driver/Src/stm32f3xx_hal_uart.c ****     __HAL_UART_CLEAR_FLAG(huart, UART_CLEAR_OREF | UART_CLEAR_NEF | UART_CLEAR_PEF | UART_CLEAR_FEF
1462:Drivers/STM32F3xx_HAL_Driver/Src/stm32f3xx_hal_uart.c **** 
1463:Drivers/STM32F3xx_HAL_Driver/Src/stm32f3xx_hal_uart.c ****     /* Restore huart->gState and huart->RxState to Ready */
1464:Drivers/STM32F3xx_HAL_Driver/Src/stm32f3xx_hal_uart.c ****     huart->gState  = HAL_UART_STATE_READY;
1465:Drivers/STM32F3xx_HAL_Driver/Src/stm32f3xx_hal_uart.c ****     huart->RxState = HAL_UART_STATE_READY;
1466:Drivers/STM32F3xx_HAL_Driver/Src/stm32f3xx_hal_uart.c **** 
1467:Drivers/STM32F3xx_HAL_Driver/Src/stm32f3xx_hal_uart.c ****     /* As no DMA to be aborted, call directly user Abort complete callback */
1468:Drivers/STM32F3xx_HAL_Driver/Src/stm32f3xx_hal_uart.c ****     HAL_UART_AbortCpltCallback(huart);
1469:Drivers/STM32F3xx_HAL_Driver/Src/stm32f3xx_hal_uart.c ****   }
1470:Drivers/STM32F3xx_HAL_Driver/Src/stm32f3xx_hal_uart.c **** 
1471:Drivers/STM32F3xx_HAL_Driver/Src/stm32f3xx_hal_uart.c ****   return HAL_OK;
1472:Drivers/STM32F3xx_HAL_Driver/Src/stm32f3xx_hal_uart.c **** }
1473:Drivers/STM32F3xx_HAL_Driver/Src/stm32f3xx_hal_uart.c **** 
1474:Drivers/STM32F3xx_HAL_Driver/Src/stm32f3xx_hal_uart.c **** /**
1475:Drivers/STM32F3xx_HAL_Driver/Src/stm32f3xx_hal_uart.c ****   * @brief  Abort ongoing Transmit transfer (Interrupt mode).
1476:Drivers/STM32F3xx_HAL_Driver/Src/stm32f3xx_hal_uart.c ****   * @param  huart UART handle.
1477:Drivers/STM32F3xx_HAL_Driver/Src/stm32f3xx_hal_uart.c ****   * @note   This procedure could be used for aborting any ongoing Tx transfer started in Interrupt 
1478:Drivers/STM32F3xx_HAL_Driver/Src/stm32f3xx_hal_uart.c ****   *         This procedure performs following operations :
1479:Drivers/STM32F3xx_HAL_Driver/Src/stm32f3xx_hal_uart.c ****   *           - Disable UART Interrupts (Tx)
1480:Drivers/STM32F3xx_HAL_Driver/Src/stm32f3xx_hal_uart.c ****   *           - Disable the DMA transfer in the peripheral register (if enabled)
1481:Drivers/STM32F3xx_HAL_Driver/Src/stm32f3xx_hal_uart.c ****   *           - Abort DMA transfer by calling HAL_DMA_Abort_IT (in case of transfer in DMA mode)
1482:Drivers/STM32F3xx_HAL_Driver/Src/stm32f3xx_hal_uart.c ****   *           - Set handle State to READY
1483:Drivers/STM32F3xx_HAL_Driver/Src/stm32f3xx_hal_uart.c ****   *           - At abort completion, call user abort complete callback
1484:Drivers/STM32F3xx_HAL_Driver/Src/stm32f3xx_hal_uart.c ****   * @note   This procedure is executed in Interrupt mode, meaning that abort procedure could be
1485:Drivers/STM32F3xx_HAL_Driver/Src/stm32f3xx_hal_uart.c ****   *         considered as completed only when user abort complete callback is executed (not when ex
1486:Drivers/STM32F3xx_HAL_Driver/Src/stm32f3xx_hal_uart.c ****   * @retval HAL status
1487:Drivers/STM32F3xx_HAL_Driver/Src/stm32f3xx_hal_uart.c **** */
1488:Drivers/STM32F3xx_HAL_Driver/Src/stm32f3xx_hal_uart.c **** HAL_StatusTypeDef HAL_UART_AbortTransmit_IT(UART_HandleTypeDef *huart)
1489:Drivers/STM32F3xx_HAL_Driver/Src/stm32f3xx_hal_uart.c **** {
ARM GAS  /tmp/ccinMcHI.s 			page 44


1490:Drivers/STM32F3xx_HAL_Driver/Src/stm32f3xx_hal_uart.c ****   /* Disable TXEIE and TCIE interrupts */
1491:Drivers/STM32F3xx_HAL_Driver/Src/stm32f3xx_hal_uart.c ****   CLEAR_BIT(huart->Instance->CR1, (USART_CR1_TXEIE | USART_CR1_TCIE));
1492:Drivers/STM32F3xx_HAL_Driver/Src/stm32f3xx_hal_uart.c **** 
1493:Drivers/STM32F3xx_HAL_Driver/Src/stm32f3xx_hal_uart.c ****   /* Disable the UART DMA Tx request if enabled */
1494:Drivers/STM32F3xx_HAL_Driver/Src/stm32f3xx_hal_uart.c ****   if (HAL_IS_BIT_SET(huart->Instance->CR3, USART_CR3_DMAT))
1495:Drivers/STM32F3xx_HAL_Driver/Src/stm32f3xx_hal_uart.c ****   {
1496:Drivers/STM32F3xx_HAL_Driver/Src/stm32f3xx_hal_uart.c ****     CLEAR_BIT(huart->Instance->CR3, USART_CR3_DMAT);
1497:Drivers/STM32F3xx_HAL_Driver/Src/stm32f3xx_hal_uart.c **** 
1498:Drivers/STM32F3xx_HAL_Driver/Src/stm32f3xx_hal_uart.c ****     /* Abort the UART DMA Tx channel : use non blocking DMA Abort API (callback) */
1499:Drivers/STM32F3xx_HAL_Driver/Src/stm32f3xx_hal_uart.c ****     if(huart->hdmatx != NULL)
1500:Drivers/STM32F3xx_HAL_Driver/Src/stm32f3xx_hal_uart.c ****     {
1501:Drivers/STM32F3xx_HAL_Driver/Src/stm32f3xx_hal_uart.c ****       /* Set the UART DMA Abort callback : 
1502:Drivers/STM32F3xx_HAL_Driver/Src/stm32f3xx_hal_uart.c ****          will lead to call HAL_UART_AbortCpltCallback() at end of DMA abort procedure */
1503:Drivers/STM32F3xx_HAL_Driver/Src/stm32f3xx_hal_uart.c ****       huart->hdmatx->XferAbortCallback = UART_DMATxOnlyAbortCallback;
1504:Drivers/STM32F3xx_HAL_Driver/Src/stm32f3xx_hal_uart.c **** 
1505:Drivers/STM32F3xx_HAL_Driver/Src/stm32f3xx_hal_uart.c ****       /* Abort DMA TX */
1506:Drivers/STM32F3xx_HAL_Driver/Src/stm32f3xx_hal_uart.c ****       if(HAL_DMA_Abort_IT(huart->hdmatx) != HAL_OK)
1507:Drivers/STM32F3xx_HAL_Driver/Src/stm32f3xx_hal_uart.c ****       {
1508:Drivers/STM32F3xx_HAL_Driver/Src/stm32f3xx_hal_uart.c ****         /* Call Directly huart->hdmatx->XferAbortCallback function in case of error */
1509:Drivers/STM32F3xx_HAL_Driver/Src/stm32f3xx_hal_uart.c ****         huart->hdmatx->XferAbortCallback(huart->hdmatx);
1510:Drivers/STM32F3xx_HAL_Driver/Src/stm32f3xx_hal_uart.c ****       }
1511:Drivers/STM32F3xx_HAL_Driver/Src/stm32f3xx_hal_uart.c ****     }
1512:Drivers/STM32F3xx_HAL_Driver/Src/stm32f3xx_hal_uart.c ****     else
1513:Drivers/STM32F3xx_HAL_Driver/Src/stm32f3xx_hal_uart.c ****     {
1514:Drivers/STM32F3xx_HAL_Driver/Src/stm32f3xx_hal_uart.c ****       /* Reset Tx transfer counter */
1515:Drivers/STM32F3xx_HAL_Driver/Src/stm32f3xx_hal_uart.c ****       huart->TxXferCount = 0U; 
1516:Drivers/STM32F3xx_HAL_Driver/Src/stm32f3xx_hal_uart.c **** 
1517:Drivers/STM32F3xx_HAL_Driver/Src/stm32f3xx_hal_uart.c ****       /* Restore huart->gState to Ready */
1518:Drivers/STM32F3xx_HAL_Driver/Src/stm32f3xx_hal_uart.c ****       huart->gState = HAL_UART_STATE_READY;
1519:Drivers/STM32F3xx_HAL_Driver/Src/stm32f3xx_hal_uart.c **** 
1520:Drivers/STM32F3xx_HAL_Driver/Src/stm32f3xx_hal_uart.c ****       /* As no DMA to be aborted, call directly user Abort complete callback */
1521:Drivers/STM32F3xx_HAL_Driver/Src/stm32f3xx_hal_uart.c ****       HAL_UART_AbortTransmitCpltCallback(huart);
1522:Drivers/STM32F3xx_HAL_Driver/Src/stm32f3xx_hal_uart.c ****     }
1523:Drivers/STM32F3xx_HAL_Driver/Src/stm32f3xx_hal_uart.c ****   }
1524:Drivers/STM32F3xx_HAL_Driver/Src/stm32f3xx_hal_uart.c ****   else
1525:Drivers/STM32F3xx_HAL_Driver/Src/stm32f3xx_hal_uart.c ****   {
1526:Drivers/STM32F3xx_HAL_Driver/Src/stm32f3xx_hal_uart.c ****     /* Reset Tx transfer counter */
1527:Drivers/STM32F3xx_HAL_Driver/Src/stm32f3xx_hal_uart.c ****     huart->TxXferCount = 0U; 
1528:Drivers/STM32F3xx_HAL_Driver/Src/stm32f3xx_hal_uart.c **** 
1529:Drivers/STM32F3xx_HAL_Driver/Src/stm32f3xx_hal_uart.c ****     /* Restore huart->gState to Ready */
1530:Drivers/STM32F3xx_HAL_Driver/Src/stm32f3xx_hal_uart.c ****     huart->gState = HAL_UART_STATE_READY;
1531:Drivers/STM32F3xx_HAL_Driver/Src/stm32f3xx_hal_uart.c **** 
1532:Drivers/STM32F3xx_HAL_Driver/Src/stm32f3xx_hal_uart.c ****     /* As no DMA to be aborted, call directly user Abort complete callback */
1533:Drivers/STM32F3xx_HAL_Driver/Src/stm32f3xx_hal_uart.c ****     HAL_UART_AbortTransmitCpltCallback(huart);
1534:Drivers/STM32F3xx_HAL_Driver/Src/stm32f3xx_hal_uart.c ****   }
1535:Drivers/STM32F3xx_HAL_Driver/Src/stm32f3xx_hal_uart.c **** 
1536:Drivers/STM32F3xx_HAL_Driver/Src/stm32f3xx_hal_uart.c ****   return HAL_OK;
1537:Drivers/STM32F3xx_HAL_Driver/Src/stm32f3xx_hal_uart.c **** }
1538:Drivers/STM32F3xx_HAL_Driver/Src/stm32f3xx_hal_uart.c **** 
1539:Drivers/STM32F3xx_HAL_Driver/Src/stm32f3xx_hal_uart.c **** /**
1540:Drivers/STM32F3xx_HAL_Driver/Src/stm32f3xx_hal_uart.c ****   * @brief  Abort ongoing Receive transfer (Interrupt mode).
1541:Drivers/STM32F3xx_HAL_Driver/Src/stm32f3xx_hal_uart.c ****   * @param  huart UART handle.
1542:Drivers/STM32F3xx_HAL_Driver/Src/stm32f3xx_hal_uart.c ****   * @note   This procedure could be used for aborting any ongoing Rx transfer started in Interrupt 
1543:Drivers/STM32F3xx_HAL_Driver/Src/stm32f3xx_hal_uart.c ****   *         This procedure performs following operations :
1544:Drivers/STM32F3xx_HAL_Driver/Src/stm32f3xx_hal_uart.c ****   *           - Disable UART Interrupts (Rx)
1545:Drivers/STM32F3xx_HAL_Driver/Src/stm32f3xx_hal_uart.c ****   *           - Disable the DMA transfer in the peripheral register (if enabled)
1546:Drivers/STM32F3xx_HAL_Driver/Src/stm32f3xx_hal_uart.c ****   *           - Abort DMA transfer by calling HAL_DMA_Abort_IT (in case of transfer in DMA mode)
ARM GAS  /tmp/ccinMcHI.s 			page 45


1547:Drivers/STM32F3xx_HAL_Driver/Src/stm32f3xx_hal_uart.c ****   *           - Set handle State to READY
1548:Drivers/STM32F3xx_HAL_Driver/Src/stm32f3xx_hal_uart.c ****   *           - At abort completion, call user abort complete callback
1549:Drivers/STM32F3xx_HAL_Driver/Src/stm32f3xx_hal_uart.c ****   * @note   This procedure is executed in Interrupt mode, meaning that abort procedure could be
1550:Drivers/STM32F3xx_HAL_Driver/Src/stm32f3xx_hal_uart.c ****   *         considered as completed only when user abort complete callback is executed (not when ex
1551:Drivers/STM32F3xx_HAL_Driver/Src/stm32f3xx_hal_uart.c ****   * @retval HAL status
1552:Drivers/STM32F3xx_HAL_Driver/Src/stm32f3xx_hal_uart.c **** */
1553:Drivers/STM32F3xx_HAL_Driver/Src/stm32f3xx_hal_uart.c **** HAL_StatusTypeDef HAL_UART_AbortReceive_IT(UART_HandleTypeDef *huart)
1554:Drivers/STM32F3xx_HAL_Driver/Src/stm32f3xx_hal_uart.c **** {
1555:Drivers/STM32F3xx_HAL_Driver/Src/stm32f3xx_hal_uart.c ****   /* Disable RXNE, PE and ERR (Frame error, noise error, overrun error) interrupts */
1556:Drivers/STM32F3xx_HAL_Driver/Src/stm32f3xx_hal_uart.c ****   CLEAR_BIT(huart->Instance->CR1, (USART_CR1_RXNEIE | USART_CR1_PEIE));
1557:Drivers/STM32F3xx_HAL_Driver/Src/stm32f3xx_hal_uart.c ****   CLEAR_BIT(huart->Instance->CR3, USART_CR3_EIE);
1558:Drivers/STM32F3xx_HAL_Driver/Src/stm32f3xx_hal_uart.c **** 
1559:Drivers/STM32F3xx_HAL_Driver/Src/stm32f3xx_hal_uart.c ****   /* Disable the UART DMA Rx request if enabled */
1560:Drivers/STM32F3xx_HAL_Driver/Src/stm32f3xx_hal_uart.c ****   if (HAL_IS_BIT_SET(huart->Instance->CR3, USART_CR3_DMAR))
1561:Drivers/STM32F3xx_HAL_Driver/Src/stm32f3xx_hal_uart.c ****   {
1562:Drivers/STM32F3xx_HAL_Driver/Src/stm32f3xx_hal_uart.c ****     CLEAR_BIT(huart->Instance->CR3, USART_CR3_DMAR);
1563:Drivers/STM32F3xx_HAL_Driver/Src/stm32f3xx_hal_uart.c **** 
1564:Drivers/STM32F3xx_HAL_Driver/Src/stm32f3xx_hal_uart.c ****     /* Abort the UART DMA Rx channel : use non blocking DMA Abort API (callback) */
1565:Drivers/STM32F3xx_HAL_Driver/Src/stm32f3xx_hal_uart.c ****     if(huart->hdmarx != NULL)
1566:Drivers/STM32F3xx_HAL_Driver/Src/stm32f3xx_hal_uart.c ****     {
1567:Drivers/STM32F3xx_HAL_Driver/Src/stm32f3xx_hal_uart.c ****       /* Set the UART DMA Abort callback : 
1568:Drivers/STM32F3xx_HAL_Driver/Src/stm32f3xx_hal_uart.c ****          will lead to call HAL_UART_AbortCpltCallback() at end of DMA abort procedure */
1569:Drivers/STM32F3xx_HAL_Driver/Src/stm32f3xx_hal_uart.c ****       huart->hdmarx->XferAbortCallback = UART_DMARxOnlyAbortCallback;
1570:Drivers/STM32F3xx_HAL_Driver/Src/stm32f3xx_hal_uart.c **** 
1571:Drivers/STM32F3xx_HAL_Driver/Src/stm32f3xx_hal_uart.c ****       /* Abort DMA RX */
1572:Drivers/STM32F3xx_HAL_Driver/Src/stm32f3xx_hal_uart.c ****       if(HAL_DMA_Abort_IT(huart->hdmarx) != HAL_OK)
1573:Drivers/STM32F3xx_HAL_Driver/Src/stm32f3xx_hal_uart.c ****       {
1574:Drivers/STM32F3xx_HAL_Driver/Src/stm32f3xx_hal_uart.c ****         /* Call Directly huart->hdmarx->XferAbortCallback function in case of error */
1575:Drivers/STM32F3xx_HAL_Driver/Src/stm32f3xx_hal_uart.c ****         huart->hdmarx->XferAbortCallback(huart->hdmarx);
1576:Drivers/STM32F3xx_HAL_Driver/Src/stm32f3xx_hal_uart.c ****       }
1577:Drivers/STM32F3xx_HAL_Driver/Src/stm32f3xx_hal_uart.c ****     }
1578:Drivers/STM32F3xx_HAL_Driver/Src/stm32f3xx_hal_uart.c ****     else
1579:Drivers/STM32F3xx_HAL_Driver/Src/stm32f3xx_hal_uart.c ****     {
1580:Drivers/STM32F3xx_HAL_Driver/Src/stm32f3xx_hal_uart.c ****       /* Reset Rx transfer counter */
1581:Drivers/STM32F3xx_HAL_Driver/Src/stm32f3xx_hal_uart.c ****       huart->RxXferCount = 0U; 
1582:Drivers/STM32F3xx_HAL_Driver/Src/stm32f3xx_hal_uart.c **** 
1583:Drivers/STM32F3xx_HAL_Driver/Src/stm32f3xx_hal_uart.c ****       /* Clear the Error flags in the ICR register */
1584:Drivers/STM32F3xx_HAL_Driver/Src/stm32f3xx_hal_uart.c ****       __HAL_UART_CLEAR_FLAG(huart, UART_CLEAR_OREF | UART_CLEAR_NEF | UART_CLEAR_PEF | UART_CLEAR_F
1585:Drivers/STM32F3xx_HAL_Driver/Src/stm32f3xx_hal_uart.c **** 
1586:Drivers/STM32F3xx_HAL_Driver/Src/stm32f3xx_hal_uart.c ****       /* Restore huart->RxState to Ready */
1587:Drivers/STM32F3xx_HAL_Driver/Src/stm32f3xx_hal_uart.c ****       huart->RxState = HAL_UART_STATE_READY;
1588:Drivers/STM32F3xx_HAL_Driver/Src/stm32f3xx_hal_uart.c **** 
1589:Drivers/STM32F3xx_HAL_Driver/Src/stm32f3xx_hal_uart.c ****       /* As no DMA to be aborted, call directly user Abort complete callback */
1590:Drivers/STM32F3xx_HAL_Driver/Src/stm32f3xx_hal_uart.c ****       HAL_UART_AbortReceiveCpltCallback(huart);
1591:Drivers/STM32F3xx_HAL_Driver/Src/stm32f3xx_hal_uart.c ****     }
1592:Drivers/STM32F3xx_HAL_Driver/Src/stm32f3xx_hal_uart.c ****   }
1593:Drivers/STM32F3xx_HAL_Driver/Src/stm32f3xx_hal_uart.c ****   else
1594:Drivers/STM32F3xx_HAL_Driver/Src/stm32f3xx_hal_uart.c ****   {
1595:Drivers/STM32F3xx_HAL_Driver/Src/stm32f3xx_hal_uart.c ****     /* Reset Rx transfer counter */
1596:Drivers/STM32F3xx_HAL_Driver/Src/stm32f3xx_hal_uart.c ****     huart->RxXferCount = 0U; 
1597:Drivers/STM32F3xx_HAL_Driver/Src/stm32f3xx_hal_uart.c **** 
1598:Drivers/STM32F3xx_HAL_Driver/Src/stm32f3xx_hal_uart.c ****     /* Clear the Error flags in the ICR register */
1599:Drivers/STM32F3xx_HAL_Driver/Src/stm32f3xx_hal_uart.c ****     __HAL_UART_CLEAR_FLAG(huart, UART_CLEAR_OREF | UART_CLEAR_NEF | UART_CLEAR_PEF | UART_CLEAR_FEF
1600:Drivers/STM32F3xx_HAL_Driver/Src/stm32f3xx_hal_uart.c **** 
1601:Drivers/STM32F3xx_HAL_Driver/Src/stm32f3xx_hal_uart.c ****     /* Restore huart->RxState to Ready */
1602:Drivers/STM32F3xx_HAL_Driver/Src/stm32f3xx_hal_uart.c ****     huart->RxState = HAL_UART_STATE_READY;
1603:Drivers/STM32F3xx_HAL_Driver/Src/stm32f3xx_hal_uart.c **** 
ARM GAS  /tmp/ccinMcHI.s 			page 46


1604:Drivers/STM32F3xx_HAL_Driver/Src/stm32f3xx_hal_uart.c ****     /* As no DMA to be aborted, call directly user Abort complete callback */
1605:Drivers/STM32F3xx_HAL_Driver/Src/stm32f3xx_hal_uart.c ****     HAL_UART_AbortReceiveCpltCallback(huart);
1606:Drivers/STM32F3xx_HAL_Driver/Src/stm32f3xx_hal_uart.c ****   }
1607:Drivers/STM32F3xx_HAL_Driver/Src/stm32f3xx_hal_uart.c **** 
1608:Drivers/STM32F3xx_HAL_Driver/Src/stm32f3xx_hal_uart.c ****   return HAL_OK;
1609:Drivers/STM32F3xx_HAL_Driver/Src/stm32f3xx_hal_uart.c **** }
1610:Drivers/STM32F3xx_HAL_Driver/Src/stm32f3xx_hal_uart.c **** 
1611:Drivers/STM32F3xx_HAL_Driver/Src/stm32f3xx_hal_uart.c **** /**
1612:Drivers/STM32F3xx_HAL_Driver/Src/stm32f3xx_hal_uart.c ****   * @brief Handle UART interrupt request.
1613:Drivers/STM32F3xx_HAL_Driver/Src/stm32f3xx_hal_uart.c ****   * @param huart UART handle.
1614:Drivers/STM32F3xx_HAL_Driver/Src/stm32f3xx_hal_uart.c ****   * @retval None
1615:Drivers/STM32F3xx_HAL_Driver/Src/stm32f3xx_hal_uart.c ****   */
1616:Drivers/STM32F3xx_HAL_Driver/Src/stm32f3xx_hal_uart.c **** void HAL_UART_IRQHandler(UART_HandleTypeDef *huart)
1617:Drivers/STM32F3xx_HAL_Driver/Src/stm32f3xx_hal_uart.c **** {
1618:Drivers/STM32F3xx_HAL_Driver/Src/stm32f3xx_hal_uart.c ****   uint32_t isrflags   = READ_REG(huart->Instance->ISR);
1619:Drivers/STM32F3xx_HAL_Driver/Src/stm32f3xx_hal_uart.c ****   uint32_t cr1its     = READ_REG(huart->Instance->CR1);
1620:Drivers/STM32F3xx_HAL_Driver/Src/stm32f3xx_hal_uart.c ****   uint32_t cr3its;
1621:Drivers/STM32F3xx_HAL_Driver/Src/stm32f3xx_hal_uart.c ****   uint32_t errorflags;
1622:Drivers/STM32F3xx_HAL_Driver/Src/stm32f3xx_hal_uart.c **** 
1623:Drivers/STM32F3xx_HAL_Driver/Src/stm32f3xx_hal_uart.c ****   /* If no error occurs */
1624:Drivers/STM32F3xx_HAL_Driver/Src/stm32f3xx_hal_uart.c ****   errorflags = (isrflags & (uint32_t)(USART_ISR_PE | USART_ISR_FE | USART_ISR_ORE | USART_ISR_NE));
1625:Drivers/STM32F3xx_HAL_Driver/Src/stm32f3xx_hal_uart.c ****   if (errorflags == RESET)
1626:Drivers/STM32F3xx_HAL_Driver/Src/stm32f3xx_hal_uart.c ****   {
1627:Drivers/STM32F3xx_HAL_Driver/Src/stm32f3xx_hal_uart.c ****     /* UART in mode Receiver ---------------------------------------------------*/
1628:Drivers/STM32F3xx_HAL_Driver/Src/stm32f3xx_hal_uart.c ****     if(((isrflags & USART_ISR_RXNE) != RESET) && ((cr1its & USART_CR1_RXNEIE) != RESET))
1629:Drivers/STM32F3xx_HAL_Driver/Src/stm32f3xx_hal_uart.c ****     {
1630:Drivers/STM32F3xx_HAL_Driver/Src/stm32f3xx_hal_uart.c ****       UART_Receive_IT(huart);
1631:Drivers/STM32F3xx_HAL_Driver/Src/stm32f3xx_hal_uart.c ****       return;
1632:Drivers/STM32F3xx_HAL_Driver/Src/stm32f3xx_hal_uart.c ****     }
1633:Drivers/STM32F3xx_HAL_Driver/Src/stm32f3xx_hal_uart.c ****   }  
1634:Drivers/STM32F3xx_HAL_Driver/Src/stm32f3xx_hal_uart.c **** 
1635:Drivers/STM32F3xx_HAL_Driver/Src/stm32f3xx_hal_uart.c ****   /* If some errors occur */
1636:Drivers/STM32F3xx_HAL_Driver/Src/stm32f3xx_hal_uart.c ****   cr3its = READ_REG(huart->Instance->CR3);
1637:Drivers/STM32F3xx_HAL_Driver/Src/stm32f3xx_hal_uart.c ****   if(   (errorflags != RESET)
1638:Drivers/STM32F3xx_HAL_Driver/Src/stm32f3xx_hal_uart.c ****      && (   ((cr3its & USART_CR3_EIE) != RESET)
1639:Drivers/STM32F3xx_HAL_Driver/Src/stm32f3xx_hal_uart.c ****          || ((cr1its & (USART_CR1_RXNEIE | USART_CR1_PEIE)) != RESET)) )
1640:Drivers/STM32F3xx_HAL_Driver/Src/stm32f3xx_hal_uart.c ****   {
1641:Drivers/STM32F3xx_HAL_Driver/Src/stm32f3xx_hal_uart.c ****     /* UART parity error interrupt occurred -------------------------------------*/
1642:Drivers/STM32F3xx_HAL_Driver/Src/stm32f3xx_hal_uart.c ****     if(((isrflags & USART_ISR_PE) != RESET) && ((cr1its & USART_CR1_PEIE) != RESET))
1643:Drivers/STM32F3xx_HAL_Driver/Src/stm32f3xx_hal_uart.c ****     {
1644:Drivers/STM32F3xx_HAL_Driver/Src/stm32f3xx_hal_uart.c ****       __HAL_UART_CLEAR_IT(huart, UART_CLEAR_PEF);
1645:Drivers/STM32F3xx_HAL_Driver/Src/stm32f3xx_hal_uart.c **** 
1646:Drivers/STM32F3xx_HAL_Driver/Src/stm32f3xx_hal_uart.c ****       huart->ErrorCode |= HAL_UART_ERROR_PE;
1647:Drivers/STM32F3xx_HAL_Driver/Src/stm32f3xx_hal_uart.c ****     }
1648:Drivers/STM32F3xx_HAL_Driver/Src/stm32f3xx_hal_uart.c **** 
1649:Drivers/STM32F3xx_HAL_Driver/Src/stm32f3xx_hal_uart.c ****     /* UART frame error interrupt occurred --------------------------------------*/
1650:Drivers/STM32F3xx_HAL_Driver/Src/stm32f3xx_hal_uart.c ****     if(((isrflags & USART_ISR_FE) != RESET) && ((cr3its & USART_CR3_EIE) != RESET))
1651:Drivers/STM32F3xx_HAL_Driver/Src/stm32f3xx_hal_uart.c ****     {
1652:Drivers/STM32F3xx_HAL_Driver/Src/stm32f3xx_hal_uart.c ****       __HAL_UART_CLEAR_IT(huart, UART_CLEAR_FEF);
1653:Drivers/STM32F3xx_HAL_Driver/Src/stm32f3xx_hal_uart.c **** 
1654:Drivers/STM32F3xx_HAL_Driver/Src/stm32f3xx_hal_uart.c ****       huart->ErrorCode |= HAL_UART_ERROR_FE;
1655:Drivers/STM32F3xx_HAL_Driver/Src/stm32f3xx_hal_uart.c ****     }
1656:Drivers/STM32F3xx_HAL_Driver/Src/stm32f3xx_hal_uart.c **** 
1657:Drivers/STM32F3xx_HAL_Driver/Src/stm32f3xx_hal_uart.c ****     /* UART noise error interrupt occurred --------------------------------------*/
1658:Drivers/STM32F3xx_HAL_Driver/Src/stm32f3xx_hal_uart.c ****     if(((isrflags & USART_ISR_NE) != RESET) && ((cr3its & USART_CR3_EIE) != RESET))
1659:Drivers/STM32F3xx_HAL_Driver/Src/stm32f3xx_hal_uart.c ****     {
1660:Drivers/STM32F3xx_HAL_Driver/Src/stm32f3xx_hal_uart.c ****       __HAL_UART_CLEAR_IT(huart, UART_CLEAR_NEF);
ARM GAS  /tmp/ccinMcHI.s 			page 47


1661:Drivers/STM32F3xx_HAL_Driver/Src/stm32f3xx_hal_uart.c **** 
1662:Drivers/STM32F3xx_HAL_Driver/Src/stm32f3xx_hal_uart.c ****       huart->ErrorCode |= HAL_UART_ERROR_NE;
1663:Drivers/STM32F3xx_HAL_Driver/Src/stm32f3xx_hal_uart.c ****     }
1664:Drivers/STM32F3xx_HAL_Driver/Src/stm32f3xx_hal_uart.c ****     
1665:Drivers/STM32F3xx_HAL_Driver/Src/stm32f3xx_hal_uart.c ****     /* UART Over-Run interrupt occurred -----------------------------------------*/
1666:Drivers/STM32F3xx_HAL_Driver/Src/stm32f3xx_hal_uart.c ****     if(((isrflags & USART_ISR_ORE) != RESET) &&
1667:Drivers/STM32F3xx_HAL_Driver/Src/stm32f3xx_hal_uart.c ****        (((cr1its & USART_CR1_RXNEIE) != RESET) || ((cr3its & USART_CR3_EIE) != RESET)))
1668:Drivers/STM32F3xx_HAL_Driver/Src/stm32f3xx_hal_uart.c ****     {
1669:Drivers/STM32F3xx_HAL_Driver/Src/stm32f3xx_hal_uart.c ****       __HAL_UART_CLEAR_IT(huart, UART_CLEAR_OREF);
1670:Drivers/STM32F3xx_HAL_Driver/Src/stm32f3xx_hal_uart.c **** 
1671:Drivers/STM32F3xx_HAL_Driver/Src/stm32f3xx_hal_uart.c ****       huart->ErrorCode |= HAL_UART_ERROR_ORE;
1672:Drivers/STM32F3xx_HAL_Driver/Src/stm32f3xx_hal_uart.c ****     }
1673:Drivers/STM32F3xx_HAL_Driver/Src/stm32f3xx_hal_uart.c **** 
1674:Drivers/STM32F3xx_HAL_Driver/Src/stm32f3xx_hal_uart.c ****     /* Call UART Error Call back function if need be --------------------------*/
1675:Drivers/STM32F3xx_HAL_Driver/Src/stm32f3xx_hal_uart.c ****     if(huart->ErrorCode != HAL_UART_ERROR_NONE)
1676:Drivers/STM32F3xx_HAL_Driver/Src/stm32f3xx_hal_uart.c ****     {
1677:Drivers/STM32F3xx_HAL_Driver/Src/stm32f3xx_hal_uart.c ****       /* UART in mode Receiver ---------------------------------------------------*/
1678:Drivers/STM32F3xx_HAL_Driver/Src/stm32f3xx_hal_uart.c ****       if(((isrflags & USART_ISR_RXNE) != RESET) && ((cr1its & USART_CR1_RXNEIE) != RESET))
1679:Drivers/STM32F3xx_HAL_Driver/Src/stm32f3xx_hal_uart.c ****       {
1680:Drivers/STM32F3xx_HAL_Driver/Src/stm32f3xx_hal_uart.c ****         UART_Receive_IT(huart);
1681:Drivers/STM32F3xx_HAL_Driver/Src/stm32f3xx_hal_uart.c ****       }
1682:Drivers/STM32F3xx_HAL_Driver/Src/stm32f3xx_hal_uart.c **** 
1683:Drivers/STM32F3xx_HAL_Driver/Src/stm32f3xx_hal_uart.c ****       /* If Overrun error occurs, or if any error occurs in DMA mode reception,
1684:Drivers/STM32F3xx_HAL_Driver/Src/stm32f3xx_hal_uart.c ****          consider error as blocking */
1685:Drivers/STM32F3xx_HAL_Driver/Src/stm32f3xx_hal_uart.c ****       if (((huart->ErrorCode & HAL_UART_ERROR_ORE) != RESET) ||
1686:Drivers/STM32F3xx_HAL_Driver/Src/stm32f3xx_hal_uart.c ****           (HAL_IS_BIT_SET(huart->Instance->CR3, USART_CR3_DMAR)))
1687:Drivers/STM32F3xx_HAL_Driver/Src/stm32f3xx_hal_uart.c ****       {  
1688:Drivers/STM32F3xx_HAL_Driver/Src/stm32f3xx_hal_uart.c ****         /* Blocking error : transfer is aborted
1689:Drivers/STM32F3xx_HAL_Driver/Src/stm32f3xx_hal_uart.c ****            Set the UART state ready to be able to start again the process,
1690:Drivers/STM32F3xx_HAL_Driver/Src/stm32f3xx_hal_uart.c ****            Disable Rx Interrupts, and disable Rx DMA request, if ongoing */
1691:Drivers/STM32F3xx_HAL_Driver/Src/stm32f3xx_hal_uart.c ****         UART_EndRxTransfer(huart);
1692:Drivers/STM32F3xx_HAL_Driver/Src/stm32f3xx_hal_uart.c **** 
1693:Drivers/STM32F3xx_HAL_Driver/Src/stm32f3xx_hal_uart.c ****         /* Disable the UART DMA Rx request if enabled */
1694:Drivers/STM32F3xx_HAL_Driver/Src/stm32f3xx_hal_uart.c ****         if (HAL_IS_BIT_SET(huart->Instance->CR3, USART_CR3_DMAR))
1695:Drivers/STM32F3xx_HAL_Driver/Src/stm32f3xx_hal_uart.c ****         {
1696:Drivers/STM32F3xx_HAL_Driver/Src/stm32f3xx_hal_uart.c ****           CLEAR_BIT(huart->Instance->CR3, USART_CR3_DMAR);
1697:Drivers/STM32F3xx_HAL_Driver/Src/stm32f3xx_hal_uart.c **** 
1698:Drivers/STM32F3xx_HAL_Driver/Src/stm32f3xx_hal_uart.c ****           /* Abort the UART DMA Rx channel */
1699:Drivers/STM32F3xx_HAL_Driver/Src/stm32f3xx_hal_uart.c ****           if(huart->hdmarx != NULL)
1700:Drivers/STM32F3xx_HAL_Driver/Src/stm32f3xx_hal_uart.c ****           {
1701:Drivers/STM32F3xx_HAL_Driver/Src/stm32f3xx_hal_uart.c ****             /* Set the UART DMA Abort callback : 
1702:Drivers/STM32F3xx_HAL_Driver/Src/stm32f3xx_hal_uart.c ****                will lead to call HAL_UART_ErrorCallback() at end of DMA abort procedure */
1703:Drivers/STM32F3xx_HAL_Driver/Src/stm32f3xx_hal_uart.c ****             huart->hdmarx->XferAbortCallback = UART_DMAAbortOnError;
1704:Drivers/STM32F3xx_HAL_Driver/Src/stm32f3xx_hal_uart.c **** 
1705:Drivers/STM32F3xx_HAL_Driver/Src/stm32f3xx_hal_uart.c ****             /* Abort DMA RX */
1706:Drivers/STM32F3xx_HAL_Driver/Src/stm32f3xx_hal_uart.c ****             if(HAL_DMA_Abort_IT(huart->hdmarx) != HAL_OK)
1707:Drivers/STM32F3xx_HAL_Driver/Src/stm32f3xx_hal_uart.c ****             {
1708:Drivers/STM32F3xx_HAL_Driver/Src/stm32f3xx_hal_uart.c ****               /* Call Directly huart->hdmarx->XferAbortCallback function in case of error */
1709:Drivers/STM32F3xx_HAL_Driver/Src/stm32f3xx_hal_uart.c ****               huart->hdmarx->XferAbortCallback(huart->hdmarx);
1710:Drivers/STM32F3xx_HAL_Driver/Src/stm32f3xx_hal_uart.c ****             }
1711:Drivers/STM32F3xx_HAL_Driver/Src/stm32f3xx_hal_uart.c ****           }
1712:Drivers/STM32F3xx_HAL_Driver/Src/stm32f3xx_hal_uart.c ****           else
1713:Drivers/STM32F3xx_HAL_Driver/Src/stm32f3xx_hal_uart.c ****           {
1714:Drivers/STM32F3xx_HAL_Driver/Src/stm32f3xx_hal_uart.c ****             /* Call user error callback */
1715:Drivers/STM32F3xx_HAL_Driver/Src/stm32f3xx_hal_uart.c ****             HAL_UART_ErrorCallback(huart);
1716:Drivers/STM32F3xx_HAL_Driver/Src/stm32f3xx_hal_uart.c ****           }
1717:Drivers/STM32F3xx_HAL_Driver/Src/stm32f3xx_hal_uart.c ****         }
ARM GAS  /tmp/ccinMcHI.s 			page 48


1718:Drivers/STM32F3xx_HAL_Driver/Src/stm32f3xx_hal_uart.c ****         else
1719:Drivers/STM32F3xx_HAL_Driver/Src/stm32f3xx_hal_uart.c ****         {
1720:Drivers/STM32F3xx_HAL_Driver/Src/stm32f3xx_hal_uart.c ****           /* Call user error callback */
1721:Drivers/STM32F3xx_HAL_Driver/Src/stm32f3xx_hal_uart.c ****           HAL_UART_ErrorCallback(huart);
1722:Drivers/STM32F3xx_HAL_Driver/Src/stm32f3xx_hal_uart.c ****         }
1723:Drivers/STM32F3xx_HAL_Driver/Src/stm32f3xx_hal_uart.c ****       }
1724:Drivers/STM32F3xx_HAL_Driver/Src/stm32f3xx_hal_uart.c ****       else
1725:Drivers/STM32F3xx_HAL_Driver/Src/stm32f3xx_hal_uart.c ****       {
1726:Drivers/STM32F3xx_HAL_Driver/Src/stm32f3xx_hal_uart.c ****         /* Non Blocking error : transfer could go on. 
1727:Drivers/STM32F3xx_HAL_Driver/Src/stm32f3xx_hal_uart.c ****            Error is notified to user through user error callback */
1728:Drivers/STM32F3xx_HAL_Driver/Src/stm32f3xx_hal_uart.c ****         HAL_UART_ErrorCallback(huart);
1729:Drivers/STM32F3xx_HAL_Driver/Src/stm32f3xx_hal_uart.c ****         huart->ErrorCode = HAL_UART_ERROR_NONE;
1730:Drivers/STM32F3xx_HAL_Driver/Src/stm32f3xx_hal_uart.c ****       }
1731:Drivers/STM32F3xx_HAL_Driver/Src/stm32f3xx_hal_uart.c ****     }
1732:Drivers/STM32F3xx_HAL_Driver/Src/stm32f3xx_hal_uart.c ****     return;
1733:Drivers/STM32F3xx_HAL_Driver/Src/stm32f3xx_hal_uart.c **** 
1734:Drivers/STM32F3xx_HAL_Driver/Src/stm32f3xx_hal_uart.c ****   } /* End if some error occurs */
1735:Drivers/STM32F3xx_HAL_Driver/Src/stm32f3xx_hal_uart.c **** 
1736:Drivers/STM32F3xx_HAL_Driver/Src/stm32f3xx_hal_uart.c ****   /* UART wakeup from Stop mode interrupt occurred ---------------------------*/
1737:Drivers/STM32F3xx_HAL_Driver/Src/stm32f3xx_hal_uart.c ****   if(((isrflags & USART_ISR_WUF) != RESET) && ((cr3its & USART_CR3_WUFIE) != RESET))
1738:Drivers/STM32F3xx_HAL_Driver/Src/stm32f3xx_hal_uart.c ****   {
1739:Drivers/STM32F3xx_HAL_Driver/Src/stm32f3xx_hal_uart.c ****     __HAL_UART_CLEAR_IT(huart, UART_CLEAR_WUF);
1740:Drivers/STM32F3xx_HAL_Driver/Src/stm32f3xx_hal_uart.c ****     /* Set the UART state ready to be able to start again the process */
1741:Drivers/STM32F3xx_HAL_Driver/Src/stm32f3xx_hal_uart.c ****     huart->gState  = HAL_UART_STATE_READY;
1742:Drivers/STM32F3xx_HAL_Driver/Src/stm32f3xx_hal_uart.c ****     huart->RxState = HAL_UART_STATE_READY;
1743:Drivers/STM32F3xx_HAL_Driver/Src/stm32f3xx_hal_uart.c ****     HAL_UARTEx_WakeupCallback(huart);
1744:Drivers/STM32F3xx_HAL_Driver/Src/stm32f3xx_hal_uart.c ****     return;
1745:Drivers/STM32F3xx_HAL_Driver/Src/stm32f3xx_hal_uart.c ****   }
1746:Drivers/STM32F3xx_HAL_Driver/Src/stm32f3xx_hal_uart.c **** 
1747:Drivers/STM32F3xx_HAL_Driver/Src/stm32f3xx_hal_uart.c ****   /* UART in mode Transmitter ------------------------------------------------*/
1748:Drivers/STM32F3xx_HAL_Driver/Src/stm32f3xx_hal_uart.c ****   if(((isrflags & USART_ISR_TXE) != RESET) && ((cr1its & USART_CR1_TXEIE) != RESET))
1749:Drivers/STM32F3xx_HAL_Driver/Src/stm32f3xx_hal_uart.c ****   {
1750:Drivers/STM32F3xx_HAL_Driver/Src/stm32f3xx_hal_uart.c ****     UART_Transmit_IT(huart);
1751:Drivers/STM32F3xx_HAL_Driver/Src/stm32f3xx_hal_uart.c ****     return;
1752:Drivers/STM32F3xx_HAL_Driver/Src/stm32f3xx_hal_uart.c ****   }
1753:Drivers/STM32F3xx_HAL_Driver/Src/stm32f3xx_hal_uart.c **** 
1754:Drivers/STM32F3xx_HAL_Driver/Src/stm32f3xx_hal_uart.c ****   /* UART in mode Transmitter (transmission end) -----------------------------*/
1755:Drivers/STM32F3xx_HAL_Driver/Src/stm32f3xx_hal_uart.c ****   if(((isrflags & USART_ISR_TC) != RESET) && ((cr1its & USART_CR1_TCIE) != RESET))
1756:Drivers/STM32F3xx_HAL_Driver/Src/stm32f3xx_hal_uart.c ****   {
1757:Drivers/STM32F3xx_HAL_Driver/Src/stm32f3xx_hal_uart.c ****     UART_EndTransmit_IT(huart);
1758:Drivers/STM32F3xx_HAL_Driver/Src/stm32f3xx_hal_uart.c ****     return;
1759:Drivers/STM32F3xx_HAL_Driver/Src/stm32f3xx_hal_uart.c ****   }
1760:Drivers/STM32F3xx_HAL_Driver/Src/stm32f3xx_hal_uart.c **** 
1761:Drivers/STM32F3xx_HAL_Driver/Src/stm32f3xx_hal_uart.c **** }
1762:Drivers/STM32F3xx_HAL_Driver/Src/stm32f3xx_hal_uart.c **** 
1763:Drivers/STM32F3xx_HAL_Driver/Src/stm32f3xx_hal_uart.c **** /**
1764:Drivers/STM32F3xx_HAL_Driver/Src/stm32f3xx_hal_uart.c ****   * @brief Tx Transfer completed callback.
1765:Drivers/STM32F3xx_HAL_Driver/Src/stm32f3xx_hal_uart.c ****   * @param huart UART handle.
1766:Drivers/STM32F3xx_HAL_Driver/Src/stm32f3xx_hal_uart.c ****   * @retval None
1767:Drivers/STM32F3xx_HAL_Driver/Src/stm32f3xx_hal_uart.c ****   */
1768:Drivers/STM32F3xx_HAL_Driver/Src/stm32f3xx_hal_uart.c **** __weak void HAL_UART_TxCpltCallback(UART_HandleTypeDef *huart)
1769:Drivers/STM32F3xx_HAL_Driver/Src/stm32f3xx_hal_uart.c **** {
1770:Drivers/STM32F3xx_HAL_Driver/Src/stm32f3xx_hal_uart.c ****   /* Prevent unused argument(s) compilation warning */
1771:Drivers/STM32F3xx_HAL_Driver/Src/stm32f3xx_hal_uart.c ****   UNUSED(huart);
1772:Drivers/STM32F3xx_HAL_Driver/Src/stm32f3xx_hal_uart.c **** 
1773:Drivers/STM32F3xx_HAL_Driver/Src/stm32f3xx_hal_uart.c ****   /* NOTE : This function should not be modified, when the callback is needed,
1774:Drivers/STM32F3xx_HAL_Driver/Src/stm32f3xx_hal_uart.c ****             the HAL_UART_TxCpltCallback can be implemented in the user file.
ARM GAS  /tmp/ccinMcHI.s 			page 49


1775:Drivers/STM32F3xx_HAL_Driver/Src/stm32f3xx_hal_uart.c ****    */
1776:Drivers/STM32F3xx_HAL_Driver/Src/stm32f3xx_hal_uart.c **** }
1777:Drivers/STM32F3xx_HAL_Driver/Src/stm32f3xx_hal_uart.c **** 
1778:Drivers/STM32F3xx_HAL_Driver/Src/stm32f3xx_hal_uart.c **** /**
1779:Drivers/STM32F3xx_HAL_Driver/Src/stm32f3xx_hal_uart.c ****   * @brief  Tx Half Transfer completed callback.
1780:Drivers/STM32F3xx_HAL_Driver/Src/stm32f3xx_hal_uart.c ****   * @param  huart UART handle.
1781:Drivers/STM32F3xx_HAL_Driver/Src/stm32f3xx_hal_uart.c ****   * @retval None
1782:Drivers/STM32F3xx_HAL_Driver/Src/stm32f3xx_hal_uart.c ****   */
1783:Drivers/STM32F3xx_HAL_Driver/Src/stm32f3xx_hal_uart.c **** __weak void HAL_UART_TxHalfCpltCallback(UART_HandleTypeDef *huart)
1784:Drivers/STM32F3xx_HAL_Driver/Src/stm32f3xx_hal_uart.c **** {
1785:Drivers/STM32F3xx_HAL_Driver/Src/stm32f3xx_hal_uart.c ****   /* Prevent unused argument(s) compilation warning */
1786:Drivers/STM32F3xx_HAL_Driver/Src/stm32f3xx_hal_uart.c ****   UNUSED(huart);
1787:Drivers/STM32F3xx_HAL_Driver/Src/stm32f3xx_hal_uart.c **** 
1788:Drivers/STM32F3xx_HAL_Driver/Src/stm32f3xx_hal_uart.c ****   /* NOTE: This function should not be modified, when the callback is needed,
1789:Drivers/STM32F3xx_HAL_Driver/Src/stm32f3xx_hal_uart.c ****            the HAL_UART_TxHalfCpltCallback can be implemented in the user file.
1790:Drivers/STM32F3xx_HAL_Driver/Src/stm32f3xx_hal_uart.c ****    */
1791:Drivers/STM32F3xx_HAL_Driver/Src/stm32f3xx_hal_uart.c **** }
1792:Drivers/STM32F3xx_HAL_Driver/Src/stm32f3xx_hal_uart.c **** 
1793:Drivers/STM32F3xx_HAL_Driver/Src/stm32f3xx_hal_uart.c **** /**
1794:Drivers/STM32F3xx_HAL_Driver/Src/stm32f3xx_hal_uart.c ****   * @brief Rx Transfer completed callback.
1795:Drivers/STM32F3xx_HAL_Driver/Src/stm32f3xx_hal_uart.c ****   * @param huart UART handle.
1796:Drivers/STM32F3xx_HAL_Driver/Src/stm32f3xx_hal_uart.c ****   * @retval None
1797:Drivers/STM32F3xx_HAL_Driver/Src/stm32f3xx_hal_uart.c ****   */
1798:Drivers/STM32F3xx_HAL_Driver/Src/stm32f3xx_hal_uart.c **** __weak void HAL_UART_RxCpltCallback(UART_HandleTypeDef *huart)
1799:Drivers/STM32F3xx_HAL_Driver/Src/stm32f3xx_hal_uart.c **** {
1800:Drivers/STM32F3xx_HAL_Driver/Src/stm32f3xx_hal_uart.c ****   /* Prevent unused argument(s) compilation warning */
1801:Drivers/STM32F3xx_HAL_Driver/Src/stm32f3xx_hal_uart.c ****   UNUSED(huart);
1802:Drivers/STM32F3xx_HAL_Driver/Src/stm32f3xx_hal_uart.c **** 
1803:Drivers/STM32F3xx_HAL_Driver/Src/stm32f3xx_hal_uart.c ****   /* NOTE : This function should not be modified, when the callback is needed,
1804:Drivers/STM32F3xx_HAL_Driver/Src/stm32f3xx_hal_uart.c ****             the HAL_UART_RxCpltCallback can be implemented in the user file.
1805:Drivers/STM32F3xx_HAL_Driver/Src/stm32f3xx_hal_uart.c ****    */
1806:Drivers/STM32F3xx_HAL_Driver/Src/stm32f3xx_hal_uart.c **** }
1807:Drivers/STM32F3xx_HAL_Driver/Src/stm32f3xx_hal_uart.c **** 
1808:Drivers/STM32F3xx_HAL_Driver/Src/stm32f3xx_hal_uart.c **** /**
1809:Drivers/STM32F3xx_HAL_Driver/Src/stm32f3xx_hal_uart.c ****   * @brief  Rx Half Transfer completed callback.
1810:Drivers/STM32F3xx_HAL_Driver/Src/stm32f3xx_hal_uart.c ****   * @param  huart UART handle.
1811:Drivers/STM32F3xx_HAL_Driver/Src/stm32f3xx_hal_uart.c ****   * @retval None
1812:Drivers/STM32F3xx_HAL_Driver/Src/stm32f3xx_hal_uart.c ****   */
1813:Drivers/STM32F3xx_HAL_Driver/Src/stm32f3xx_hal_uart.c **** __weak void HAL_UART_RxHalfCpltCallback(UART_HandleTypeDef *huart)
1814:Drivers/STM32F3xx_HAL_Driver/Src/stm32f3xx_hal_uart.c **** {
1815:Drivers/STM32F3xx_HAL_Driver/Src/stm32f3xx_hal_uart.c ****   /* Prevent unused argument(s) compilation warning */
1816:Drivers/STM32F3xx_HAL_Driver/Src/stm32f3xx_hal_uart.c ****   UNUSED(huart);
1817:Drivers/STM32F3xx_HAL_Driver/Src/stm32f3xx_hal_uart.c **** 
1818:Drivers/STM32F3xx_HAL_Driver/Src/stm32f3xx_hal_uart.c ****   /* NOTE: This function should not be modified, when the callback is needed,
1819:Drivers/STM32F3xx_HAL_Driver/Src/stm32f3xx_hal_uart.c ****            the HAL_UART_RxHalfCpltCallback can be implemented in the user file.
1820:Drivers/STM32F3xx_HAL_Driver/Src/stm32f3xx_hal_uart.c ****    */
1821:Drivers/STM32F3xx_HAL_Driver/Src/stm32f3xx_hal_uart.c **** }
1822:Drivers/STM32F3xx_HAL_Driver/Src/stm32f3xx_hal_uart.c **** 
1823:Drivers/STM32F3xx_HAL_Driver/Src/stm32f3xx_hal_uart.c **** /**
1824:Drivers/STM32F3xx_HAL_Driver/Src/stm32f3xx_hal_uart.c ****   * @brief UART error callback.
1825:Drivers/STM32F3xx_HAL_Driver/Src/stm32f3xx_hal_uart.c ****   * @param huart UART handle.
1826:Drivers/STM32F3xx_HAL_Driver/Src/stm32f3xx_hal_uart.c ****   * @retval None
1827:Drivers/STM32F3xx_HAL_Driver/Src/stm32f3xx_hal_uart.c ****   */
1828:Drivers/STM32F3xx_HAL_Driver/Src/stm32f3xx_hal_uart.c **** __weak void HAL_UART_ErrorCallback(UART_HandleTypeDef *huart)
1829:Drivers/STM32F3xx_HAL_Driver/Src/stm32f3xx_hal_uart.c **** {
1830:Drivers/STM32F3xx_HAL_Driver/Src/stm32f3xx_hal_uart.c ****   /* Prevent unused argument(s) compilation warning */
1831:Drivers/STM32F3xx_HAL_Driver/Src/stm32f3xx_hal_uart.c ****   UNUSED(huart);
ARM GAS  /tmp/ccinMcHI.s 			page 50


1832:Drivers/STM32F3xx_HAL_Driver/Src/stm32f3xx_hal_uart.c **** 
1833:Drivers/STM32F3xx_HAL_Driver/Src/stm32f3xx_hal_uart.c ****   /* NOTE : This function should not be modified, when the callback is needed,
1834:Drivers/STM32F3xx_HAL_Driver/Src/stm32f3xx_hal_uart.c ****             the HAL_UART_ErrorCallback can be implemented in the user file.
1835:Drivers/STM32F3xx_HAL_Driver/Src/stm32f3xx_hal_uart.c ****    */
1836:Drivers/STM32F3xx_HAL_Driver/Src/stm32f3xx_hal_uart.c **** }
1837:Drivers/STM32F3xx_HAL_Driver/Src/stm32f3xx_hal_uart.c **** 
1838:Drivers/STM32F3xx_HAL_Driver/Src/stm32f3xx_hal_uart.c **** /**
1839:Drivers/STM32F3xx_HAL_Driver/Src/stm32f3xx_hal_uart.c ****   * @brief  UART Abort Complete callback.
1840:Drivers/STM32F3xx_HAL_Driver/Src/stm32f3xx_hal_uart.c ****   * @param  huart UART handle.
1841:Drivers/STM32F3xx_HAL_Driver/Src/stm32f3xx_hal_uart.c ****   * @retval None
1842:Drivers/STM32F3xx_HAL_Driver/Src/stm32f3xx_hal_uart.c ****   */
1843:Drivers/STM32F3xx_HAL_Driver/Src/stm32f3xx_hal_uart.c **** __weak void HAL_UART_AbortCpltCallback (UART_HandleTypeDef *huart)
1844:Drivers/STM32F3xx_HAL_Driver/Src/stm32f3xx_hal_uart.c **** {
1845:Drivers/STM32F3xx_HAL_Driver/Src/stm32f3xx_hal_uart.c ****   /* Prevent unused argument(s) compilation warning */
1846:Drivers/STM32F3xx_HAL_Driver/Src/stm32f3xx_hal_uart.c ****   UNUSED(huart);
1847:Drivers/STM32F3xx_HAL_Driver/Src/stm32f3xx_hal_uart.c **** 
1848:Drivers/STM32F3xx_HAL_Driver/Src/stm32f3xx_hal_uart.c ****   /* NOTE : This function should not be modified, when the callback is needed,
1849:Drivers/STM32F3xx_HAL_Driver/Src/stm32f3xx_hal_uart.c ****             the HAL_UART_AbortCpltCallback can be implemented in the user file.
1850:Drivers/STM32F3xx_HAL_Driver/Src/stm32f3xx_hal_uart.c ****    */
1851:Drivers/STM32F3xx_HAL_Driver/Src/stm32f3xx_hal_uart.c **** }
1852:Drivers/STM32F3xx_HAL_Driver/Src/stm32f3xx_hal_uart.c **** 
1853:Drivers/STM32F3xx_HAL_Driver/Src/stm32f3xx_hal_uart.c **** /**
1854:Drivers/STM32F3xx_HAL_Driver/Src/stm32f3xx_hal_uart.c ****   * @brief  UART Abort Complete callback.
1855:Drivers/STM32F3xx_HAL_Driver/Src/stm32f3xx_hal_uart.c ****   * @param  huart UART handle.
1856:Drivers/STM32F3xx_HAL_Driver/Src/stm32f3xx_hal_uart.c ****   * @retval None
1857:Drivers/STM32F3xx_HAL_Driver/Src/stm32f3xx_hal_uart.c ****   */
1858:Drivers/STM32F3xx_HAL_Driver/Src/stm32f3xx_hal_uart.c **** __weak void HAL_UART_AbortTransmitCpltCallback (UART_HandleTypeDef *huart)
1859:Drivers/STM32F3xx_HAL_Driver/Src/stm32f3xx_hal_uart.c **** {
1860:Drivers/STM32F3xx_HAL_Driver/Src/stm32f3xx_hal_uart.c ****   /* Prevent unused argument(s) compilation warning */
1861:Drivers/STM32F3xx_HAL_Driver/Src/stm32f3xx_hal_uart.c ****   UNUSED(huart);
1862:Drivers/STM32F3xx_HAL_Driver/Src/stm32f3xx_hal_uart.c **** 
1863:Drivers/STM32F3xx_HAL_Driver/Src/stm32f3xx_hal_uart.c ****   /* NOTE : This function should not be modified, when the callback is needed,
1864:Drivers/STM32F3xx_HAL_Driver/Src/stm32f3xx_hal_uart.c ****             the HAL_UART_AbortTransmitCpltCallback can be implemented in the user file.
1865:Drivers/STM32F3xx_HAL_Driver/Src/stm32f3xx_hal_uart.c ****    */
1866:Drivers/STM32F3xx_HAL_Driver/Src/stm32f3xx_hal_uart.c **** }
1867:Drivers/STM32F3xx_HAL_Driver/Src/stm32f3xx_hal_uart.c **** 
1868:Drivers/STM32F3xx_HAL_Driver/Src/stm32f3xx_hal_uart.c **** /**
1869:Drivers/STM32F3xx_HAL_Driver/Src/stm32f3xx_hal_uart.c ****   * @brief  UART Abort Receive Complete callback.
1870:Drivers/STM32F3xx_HAL_Driver/Src/stm32f3xx_hal_uart.c ****   * @param  huart UART handle.
1871:Drivers/STM32F3xx_HAL_Driver/Src/stm32f3xx_hal_uart.c ****   * @retval None
1872:Drivers/STM32F3xx_HAL_Driver/Src/stm32f3xx_hal_uart.c ****   */
1873:Drivers/STM32F3xx_HAL_Driver/Src/stm32f3xx_hal_uart.c **** __weak void HAL_UART_AbortReceiveCpltCallback (UART_HandleTypeDef *huart)
1874:Drivers/STM32F3xx_HAL_Driver/Src/stm32f3xx_hal_uart.c **** {
1875:Drivers/STM32F3xx_HAL_Driver/Src/stm32f3xx_hal_uart.c ****   /* Prevent unused argument(s) compilation warning */
1876:Drivers/STM32F3xx_HAL_Driver/Src/stm32f3xx_hal_uart.c ****   UNUSED(huart);
1877:Drivers/STM32F3xx_HAL_Driver/Src/stm32f3xx_hal_uart.c **** 
1878:Drivers/STM32F3xx_HAL_Driver/Src/stm32f3xx_hal_uart.c ****   /* NOTE : This function should not be modified, when the callback is needed,
1879:Drivers/STM32F3xx_HAL_Driver/Src/stm32f3xx_hal_uart.c ****             the HAL_UART_AbortReceiveCpltCallback can be implemented in the user file.
1880:Drivers/STM32F3xx_HAL_Driver/Src/stm32f3xx_hal_uart.c ****    */
1881:Drivers/STM32F3xx_HAL_Driver/Src/stm32f3xx_hal_uart.c **** }
1882:Drivers/STM32F3xx_HAL_Driver/Src/stm32f3xx_hal_uart.c **** 
1883:Drivers/STM32F3xx_HAL_Driver/Src/stm32f3xx_hal_uart.c **** /**
1884:Drivers/STM32F3xx_HAL_Driver/Src/stm32f3xx_hal_uart.c ****   * @}
1885:Drivers/STM32F3xx_HAL_Driver/Src/stm32f3xx_hal_uart.c ****   */
1886:Drivers/STM32F3xx_HAL_Driver/Src/stm32f3xx_hal_uart.c **** 
1887:Drivers/STM32F3xx_HAL_Driver/Src/stm32f3xx_hal_uart.c **** /** @defgroup UART_Exported_Functions_Group3 Peripheral Control functions
1888:Drivers/STM32F3xx_HAL_Driver/Src/stm32f3xx_hal_uart.c ****   *  @brief   UART control functions
ARM GAS  /tmp/ccinMcHI.s 			page 51


1889:Drivers/STM32F3xx_HAL_Driver/Src/stm32f3xx_hal_uart.c ****   *
1890:Drivers/STM32F3xx_HAL_Driver/Src/stm32f3xx_hal_uart.c **** @verbatim
1891:Drivers/STM32F3xx_HAL_Driver/Src/stm32f3xx_hal_uart.c ****  ===============================================================================
1892:Drivers/STM32F3xx_HAL_Driver/Src/stm32f3xx_hal_uart.c ****                       ##### Peripheral Control functions #####
1893:Drivers/STM32F3xx_HAL_Driver/Src/stm32f3xx_hal_uart.c ****  ===============================================================================
1894:Drivers/STM32F3xx_HAL_Driver/Src/stm32f3xx_hal_uart.c ****     [..]
1895:Drivers/STM32F3xx_HAL_Driver/Src/stm32f3xx_hal_uart.c ****     This subsection provides a set of functions allowing to control the UART.
1896:Drivers/STM32F3xx_HAL_Driver/Src/stm32f3xx_hal_uart.c ****      (+) HAL_MultiProcessor_EnableMuteMode() API enables mute mode
1897:Drivers/STM32F3xx_HAL_Driver/Src/stm32f3xx_hal_uart.c ****      (+) HAL_MultiProcessor_DisableMuteMode() API disables mute mode
1898:Drivers/STM32F3xx_HAL_Driver/Src/stm32f3xx_hal_uart.c ****      (+) HAL_MultiProcessor_EnterMuteMode() API enters mute mode
1899:Drivers/STM32F3xx_HAL_Driver/Src/stm32f3xx_hal_uart.c ****      (+) HAL_HalfDuplex_EnableTransmitter() API disables receiver and enables transmitter
1900:Drivers/STM32F3xx_HAL_Driver/Src/stm32f3xx_hal_uart.c ****      (+) HAL_HalfDuplex_EnableReceiver() API disables transmitter and enables receiver
1901:Drivers/STM32F3xx_HAL_Driver/Src/stm32f3xx_hal_uart.c ****      (+) HAL_LIN_SendBreak() API transmits the break characters
1902:Drivers/STM32F3xx_HAL_Driver/Src/stm32f3xx_hal_uart.c **** @endverbatim
1903:Drivers/STM32F3xx_HAL_Driver/Src/stm32f3xx_hal_uart.c ****   * @{
1904:Drivers/STM32F3xx_HAL_Driver/Src/stm32f3xx_hal_uart.c ****   */
1905:Drivers/STM32F3xx_HAL_Driver/Src/stm32f3xx_hal_uart.c **** 
1906:Drivers/STM32F3xx_HAL_Driver/Src/stm32f3xx_hal_uart.c **** /**
1907:Drivers/STM32F3xx_HAL_Driver/Src/stm32f3xx_hal_uart.c ****   * @brief Enable UART in mute mode (does not mean UART enters mute mode;
1908:Drivers/STM32F3xx_HAL_Driver/Src/stm32f3xx_hal_uart.c ****   * to enter mute mode, HAL_MultiProcessor_EnterMuteMode() API must be called).
1909:Drivers/STM32F3xx_HAL_Driver/Src/stm32f3xx_hal_uart.c ****   * @param huart UART handle.
1910:Drivers/STM32F3xx_HAL_Driver/Src/stm32f3xx_hal_uart.c ****   * @retval HAL status
1911:Drivers/STM32F3xx_HAL_Driver/Src/stm32f3xx_hal_uart.c ****   */
1912:Drivers/STM32F3xx_HAL_Driver/Src/stm32f3xx_hal_uart.c **** HAL_StatusTypeDef HAL_MultiProcessor_EnableMuteMode(UART_HandleTypeDef *huart)
1913:Drivers/STM32F3xx_HAL_Driver/Src/stm32f3xx_hal_uart.c **** {
1914:Drivers/STM32F3xx_HAL_Driver/Src/stm32f3xx_hal_uart.c ****   /* Process Locked */
1915:Drivers/STM32F3xx_HAL_Driver/Src/stm32f3xx_hal_uart.c ****   __HAL_LOCK(huart);
1916:Drivers/STM32F3xx_HAL_Driver/Src/stm32f3xx_hal_uart.c **** 
1917:Drivers/STM32F3xx_HAL_Driver/Src/stm32f3xx_hal_uart.c ****   huart->gState = HAL_UART_STATE_BUSY;
1918:Drivers/STM32F3xx_HAL_Driver/Src/stm32f3xx_hal_uart.c **** 
1919:Drivers/STM32F3xx_HAL_Driver/Src/stm32f3xx_hal_uart.c ****   /* Enable USART mute mode by setting the MME bit in the CR1 register */
1920:Drivers/STM32F3xx_HAL_Driver/Src/stm32f3xx_hal_uart.c ****   SET_BIT(huart->Instance->CR1, USART_CR1_MME);
1921:Drivers/STM32F3xx_HAL_Driver/Src/stm32f3xx_hal_uart.c **** 
1922:Drivers/STM32F3xx_HAL_Driver/Src/stm32f3xx_hal_uart.c ****   huart->gState = HAL_UART_STATE_READY;
1923:Drivers/STM32F3xx_HAL_Driver/Src/stm32f3xx_hal_uart.c **** 
1924:Drivers/STM32F3xx_HAL_Driver/Src/stm32f3xx_hal_uart.c ****   return (UART_CheckIdleState(huart));
1925:Drivers/STM32F3xx_HAL_Driver/Src/stm32f3xx_hal_uart.c **** }
1926:Drivers/STM32F3xx_HAL_Driver/Src/stm32f3xx_hal_uart.c **** 
1927:Drivers/STM32F3xx_HAL_Driver/Src/stm32f3xx_hal_uart.c **** /**
1928:Drivers/STM32F3xx_HAL_Driver/Src/stm32f3xx_hal_uart.c ****   * @brief  Disable UART mute mode (does not mean the UART actually exits mute mode
1929:Drivers/STM32F3xx_HAL_Driver/Src/stm32f3xx_hal_uart.c ****   *         as it may not have been in mute mode at this very moment).
1930:Drivers/STM32F3xx_HAL_Driver/Src/stm32f3xx_hal_uart.c ****   * @param  huart UART handle.
1931:Drivers/STM32F3xx_HAL_Driver/Src/stm32f3xx_hal_uart.c ****   * @retval HAL status
1932:Drivers/STM32F3xx_HAL_Driver/Src/stm32f3xx_hal_uart.c ****   */
1933:Drivers/STM32F3xx_HAL_Driver/Src/stm32f3xx_hal_uart.c **** HAL_StatusTypeDef HAL_MultiProcessor_DisableMuteMode(UART_HandleTypeDef *huart)
1934:Drivers/STM32F3xx_HAL_Driver/Src/stm32f3xx_hal_uart.c **** {
1935:Drivers/STM32F3xx_HAL_Driver/Src/stm32f3xx_hal_uart.c ****   /* Process Locked */
1936:Drivers/STM32F3xx_HAL_Driver/Src/stm32f3xx_hal_uart.c ****   __HAL_LOCK(huart);
1937:Drivers/STM32F3xx_HAL_Driver/Src/stm32f3xx_hal_uart.c **** 
1938:Drivers/STM32F3xx_HAL_Driver/Src/stm32f3xx_hal_uart.c ****   huart->gState = HAL_UART_STATE_BUSY;
1939:Drivers/STM32F3xx_HAL_Driver/Src/stm32f3xx_hal_uart.c **** 
1940:Drivers/STM32F3xx_HAL_Driver/Src/stm32f3xx_hal_uart.c ****    /* Disable USART mute mode by clearing the MME bit in the CR1 register */
1941:Drivers/STM32F3xx_HAL_Driver/Src/stm32f3xx_hal_uart.c ****   CLEAR_BIT(huart->Instance->CR1, USART_CR1_MME);
1942:Drivers/STM32F3xx_HAL_Driver/Src/stm32f3xx_hal_uart.c **** 
1943:Drivers/STM32F3xx_HAL_Driver/Src/stm32f3xx_hal_uart.c ****   huart->gState = HAL_UART_STATE_READY;
1944:Drivers/STM32F3xx_HAL_Driver/Src/stm32f3xx_hal_uart.c **** 
1945:Drivers/STM32F3xx_HAL_Driver/Src/stm32f3xx_hal_uart.c ****   return (UART_CheckIdleState(huart));
ARM GAS  /tmp/ccinMcHI.s 			page 52


1946:Drivers/STM32F3xx_HAL_Driver/Src/stm32f3xx_hal_uart.c **** }
1947:Drivers/STM32F3xx_HAL_Driver/Src/stm32f3xx_hal_uart.c **** 
1948:Drivers/STM32F3xx_HAL_Driver/Src/stm32f3xx_hal_uart.c **** /**
1949:Drivers/STM32F3xx_HAL_Driver/Src/stm32f3xx_hal_uart.c ****   * @brief Enter UART mute mode (means UART actually enters mute mode).
1950:Drivers/STM32F3xx_HAL_Driver/Src/stm32f3xx_hal_uart.c ****   * @note  To exit from mute mode, HAL_MultiProcessor_DisableMuteMode() API must be called.
1951:Drivers/STM32F3xx_HAL_Driver/Src/stm32f3xx_hal_uart.c ****   * @param huart UART handle.
1952:Drivers/STM32F3xx_HAL_Driver/Src/stm32f3xx_hal_uart.c ****   * @retval None
1953:Drivers/STM32F3xx_HAL_Driver/Src/stm32f3xx_hal_uart.c ****   */
1954:Drivers/STM32F3xx_HAL_Driver/Src/stm32f3xx_hal_uart.c **** void HAL_MultiProcessor_EnterMuteMode(UART_HandleTypeDef *huart)
1955:Drivers/STM32F3xx_HAL_Driver/Src/stm32f3xx_hal_uart.c **** {
1956:Drivers/STM32F3xx_HAL_Driver/Src/stm32f3xx_hal_uart.c ****   __HAL_UART_SEND_REQ(huart, UART_MUTE_MODE_REQUEST);
1957:Drivers/STM32F3xx_HAL_Driver/Src/stm32f3xx_hal_uart.c **** }
1958:Drivers/STM32F3xx_HAL_Driver/Src/stm32f3xx_hal_uart.c **** 
1959:Drivers/STM32F3xx_HAL_Driver/Src/stm32f3xx_hal_uart.c **** /**
1960:Drivers/STM32F3xx_HAL_Driver/Src/stm32f3xx_hal_uart.c ****   * @brief  Enable the UART transmitter and disable the UART receiver.
1961:Drivers/STM32F3xx_HAL_Driver/Src/stm32f3xx_hal_uart.c ****   * @param  huart UART handle.
1962:Drivers/STM32F3xx_HAL_Driver/Src/stm32f3xx_hal_uart.c ****   * @retval HAL status
1963:Drivers/STM32F3xx_HAL_Driver/Src/stm32f3xx_hal_uart.c ****   */
1964:Drivers/STM32F3xx_HAL_Driver/Src/stm32f3xx_hal_uart.c **** HAL_StatusTypeDef HAL_HalfDuplex_EnableTransmitter(UART_HandleTypeDef *huart)
1965:Drivers/STM32F3xx_HAL_Driver/Src/stm32f3xx_hal_uart.c **** {
1966:Drivers/STM32F3xx_HAL_Driver/Src/stm32f3xx_hal_uart.c ****   /* Process Locked */
1967:Drivers/STM32F3xx_HAL_Driver/Src/stm32f3xx_hal_uart.c ****   __HAL_LOCK(huart);
1968:Drivers/STM32F3xx_HAL_Driver/Src/stm32f3xx_hal_uart.c ****   huart->gState = HAL_UART_STATE_BUSY;
1969:Drivers/STM32F3xx_HAL_Driver/Src/stm32f3xx_hal_uart.c **** 
1970:Drivers/STM32F3xx_HAL_Driver/Src/stm32f3xx_hal_uart.c ****   /* Clear TE and RE bits */
1971:Drivers/STM32F3xx_HAL_Driver/Src/stm32f3xx_hal_uart.c ****   CLEAR_BIT(huart->Instance->CR1, (USART_CR1_TE | USART_CR1_RE));
1972:Drivers/STM32F3xx_HAL_Driver/Src/stm32f3xx_hal_uart.c ****   /* Enable the USART's transmit interface by setting the TE bit in the USART CR1 register */
1973:Drivers/STM32F3xx_HAL_Driver/Src/stm32f3xx_hal_uart.c ****   SET_BIT(huart->Instance->CR1, USART_CR1_TE);
1974:Drivers/STM32F3xx_HAL_Driver/Src/stm32f3xx_hal_uart.c **** 
1975:Drivers/STM32F3xx_HAL_Driver/Src/stm32f3xx_hal_uart.c ****   huart->gState = HAL_UART_STATE_READY;
1976:Drivers/STM32F3xx_HAL_Driver/Src/stm32f3xx_hal_uart.c **** 
1977:Drivers/STM32F3xx_HAL_Driver/Src/stm32f3xx_hal_uart.c ****   /* Process Unlocked */
1978:Drivers/STM32F3xx_HAL_Driver/Src/stm32f3xx_hal_uart.c ****   __HAL_UNLOCK(huart);
1979:Drivers/STM32F3xx_HAL_Driver/Src/stm32f3xx_hal_uart.c **** 
1980:Drivers/STM32F3xx_HAL_Driver/Src/stm32f3xx_hal_uart.c ****   return HAL_OK;
1981:Drivers/STM32F3xx_HAL_Driver/Src/stm32f3xx_hal_uart.c **** }
1982:Drivers/STM32F3xx_HAL_Driver/Src/stm32f3xx_hal_uart.c **** 
1983:Drivers/STM32F3xx_HAL_Driver/Src/stm32f3xx_hal_uart.c **** /**
1984:Drivers/STM32F3xx_HAL_Driver/Src/stm32f3xx_hal_uart.c ****   * @brief  Enable the UART receiver and disable the UART transmitter.
1985:Drivers/STM32F3xx_HAL_Driver/Src/stm32f3xx_hal_uart.c ****   * @param  huart UART handle.
1986:Drivers/STM32F3xx_HAL_Driver/Src/stm32f3xx_hal_uart.c ****   * @retval HAL status.
1987:Drivers/STM32F3xx_HAL_Driver/Src/stm32f3xx_hal_uart.c ****   */
1988:Drivers/STM32F3xx_HAL_Driver/Src/stm32f3xx_hal_uart.c **** HAL_StatusTypeDef HAL_HalfDuplex_EnableReceiver(UART_HandleTypeDef *huart)
1989:Drivers/STM32F3xx_HAL_Driver/Src/stm32f3xx_hal_uart.c **** {
1990:Drivers/STM32F3xx_HAL_Driver/Src/stm32f3xx_hal_uart.c ****   /* Process Locked */
1991:Drivers/STM32F3xx_HAL_Driver/Src/stm32f3xx_hal_uart.c ****   __HAL_LOCK(huart);
1992:Drivers/STM32F3xx_HAL_Driver/Src/stm32f3xx_hal_uart.c ****   huart->gState = HAL_UART_STATE_BUSY;
1993:Drivers/STM32F3xx_HAL_Driver/Src/stm32f3xx_hal_uart.c **** 
1994:Drivers/STM32F3xx_HAL_Driver/Src/stm32f3xx_hal_uart.c ****   /* Clear TE and RE bits */
1995:Drivers/STM32F3xx_HAL_Driver/Src/stm32f3xx_hal_uart.c ****   CLEAR_BIT(huart->Instance->CR1, (USART_CR1_TE | USART_CR1_RE));
1996:Drivers/STM32F3xx_HAL_Driver/Src/stm32f3xx_hal_uart.c ****   /* Enable the USART's receive interface by setting the RE bit in the USART CR1 register */
1997:Drivers/STM32F3xx_HAL_Driver/Src/stm32f3xx_hal_uart.c ****   SET_BIT(huart->Instance->CR1, USART_CR1_RE);
1998:Drivers/STM32F3xx_HAL_Driver/Src/stm32f3xx_hal_uart.c **** 
1999:Drivers/STM32F3xx_HAL_Driver/Src/stm32f3xx_hal_uart.c ****   huart->gState = HAL_UART_STATE_READY;
2000:Drivers/STM32F3xx_HAL_Driver/Src/stm32f3xx_hal_uart.c ****   /* Process Unlocked */
2001:Drivers/STM32F3xx_HAL_Driver/Src/stm32f3xx_hal_uart.c ****   __HAL_UNLOCK(huart);
2002:Drivers/STM32F3xx_HAL_Driver/Src/stm32f3xx_hal_uart.c **** 
ARM GAS  /tmp/ccinMcHI.s 			page 53


2003:Drivers/STM32F3xx_HAL_Driver/Src/stm32f3xx_hal_uart.c ****   return HAL_OK;
2004:Drivers/STM32F3xx_HAL_Driver/Src/stm32f3xx_hal_uart.c **** }
2005:Drivers/STM32F3xx_HAL_Driver/Src/stm32f3xx_hal_uart.c **** 
2006:Drivers/STM32F3xx_HAL_Driver/Src/stm32f3xx_hal_uart.c **** 
2007:Drivers/STM32F3xx_HAL_Driver/Src/stm32f3xx_hal_uart.c **** /**
2008:Drivers/STM32F3xx_HAL_Driver/Src/stm32f3xx_hal_uart.c ****   * @brief  Transmit break characters.
2009:Drivers/STM32F3xx_HAL_Driver/Src/stm32f3xx_hal_uart.c ****   * @param  huart UART handle.
2010:Drivers/STM32F3xx_HAL_Driver/Src/stm32f3xx_hal_uart.c ****   * @retval HAL status
2011:Drivers/STM32F3xx_HAL_Driver/Src/stm32f3xx_hal_uart.c ****   */
2012:Drivers/STM32F3xx_HAL_Driver/Src/stm32f3xx_hal_uart.c **** HAL_StatusTypeDef HAL_LIN_SendBreak(UART_HandleTypeDef *huart)
2013:Drivers/STM32F3xx_HAL_Driver/Src/stm32f3xx_hal_uart.c **** {
2014:Drivers/STM32F3xx_HAL_Driver/Src/stm32f3xx_hal_uart.c ****   /* Check the parameters */
2015:Drivers/STM32F3xx_HAL_Driver/Src/stm32f3xx_hal_uart.c ****   assert_param(IS_UART_LIN_INSTANCE(huart->Instance));
2016:Drivers/STM32F3xx_HAL_Driver/Src/stm32f3xx_hal_uart.c **** 
2017:Drivers/STM32F3xx_HAL_Driver/Src/stm32f3xx_hal_uart.c ****   /* Process Locked */
2018:Drivers/STM32F3xx_HAL_Driver/Src/stm32f3xx_hal_uart.c ****   __HAL_LOCK(huart);
2019:Drivers/STM32F3xx_HAL_Driver/Src/stm32f3xx_hal_uart.c **** 
2020:Drivers/STM32F3xx_HAL_Driver/Src/stm32f3xx_hal_uart.c ****   huart->gState = HAL_UART_STATE_BUSY;
2021:Drivers/STM32F3xx_HAL_Driver/Src/stm32f3xx_hal_uart.c **** 
2022:Drivers/STM32F3xx_HAL_Driver/Src/stm32f3xx_hal_uart.c ****   /* Send break characters */
2023:Drivers/STM32F3xx_HAL_Driver/Src/stm32f3xx_hal_uart.c ****   huart->Instance->RQR |= UART_SENDBREAK_REQUEST;
2024:Drivers/STM32F3xx_HAL_Driver/Src/stm32f3xx_hal_uart.c **** 
2025:Drivers/STM32F3xx_HAL_Driver/Src/stm32f3xx_hal_uart.c ****   huart->gState = HAL_UART_STATE_READY;
2026:Drivers/STM32F3xx_HAL_Driver/Src/stm32f3xx_hal_uart.c **** 
2027:Drivers/STM32F3xx_HAL_Driver/Src/stm32f3xx_hal_uart.c ****   /* Process Unlocked */
2028:Drivers/STM32F3xx_HAL_Driver/Src/stm32f3xx_hal_uart.c ****   __HAL_UNLOCK(huart);
2029:Drivers/STM32F3xx_HAL_Driver/Src/stm32f3xx_hal_uart.c **** 
2030:Drivers/STM32F3xx_HAL_Driver/Src/stm32f3xx_hal_uart.c ****   return HAL_OK;
2031:Drivers/STM32F3xx_HAL_Driver/Src/stm32f3xx_hal_uart.c **** }
2032:Drivers/STM32F3xx_HAL_Driver/Src/stm32f3xx_hal_uart.c **** 
2033:Drivers/STM32F3xx_HAL_Driver/Src/stm32f3xx_hal_uart.c **** 
2034:Drivers/STM32F3xx_HAL_Driver/Src/stm32f3xx_hal_uart.c **** /**
2035:Drivers/STM32F3xx_HAL_Driver/Src/stm32f3xx_hal_uart.c ****   * @}
2036:Drivers/STM32F3xx_HAL_Driver/Src/stm32f3xx_hal_uart.c ****   */
2037:Drivers/STM32F3xx_HAL_Driver/Src/stm32f3xx_hal_uart.c **** 
2038:Drivers/STM32F3xx_HAL_Driver/Src/stm32f3xx_hal_uart.c **** /** @defgroup UART_Exported_Functions_Group4 Peripheral State and Error functions
2039:Drivers/STM32F3xx_HAL_Driver/Src/stm32f3xx_hal_uart.c ****  *  @brief   UART Peripheral State functions
2040:Drivers/STM32F3xx_HAL_Driver/Src/stm32f3xx_hal_uart.c ****  *
2041:Drivers/STM32F3xx_HAL_Driver/Src/stm32f3xx_hal_uart.c **** @verbatim
2042:Drivers/STM32F3xx_HAL_Driver/Src/stm32f3xx_hal_uart.c ****   ==============================================================================
2043:Drivers/STM32F3xx_HAL_Driver/Src/stm32f3xx_hal_uart.c ****             ##### Peripheral State and Error functions #####
2044:Drivers/STM32F3xx_HAL_Driver/Src/stm32f3xx_hal_uart.c ****   ==============================================================================
2045:Drivers/STM32F3xx_HAL_Driver/Src/stm32f3xx_hal_uart.c ****     [..]
2046:Drivers/STM32F3xx_HAL_Driver/Src/stm32f3xx_hal_uart.c ****     This subsection provides functions allowing to :
2047:Drivers/STM32F3xx_HAL_Driver/Src/stm32f3xx_hal_uart.c ****       (+) Return the UART handle state.
2048:Drivers/STM32F3xx_HAL_Driver/Src/stm32f3xx_hal_uart.c ****       (+) Return the UART handle error code
2049:Drivers/STM32F3xx_HAL_Driver/Src/stm32f3xx_hal_uart.c **** 
2050:Drivers/STM32F3xx_HAL_Driver/Src/stm32f3xx_hal_uart.c **** @endverbatim
2051:Drivers/STM32F3xx_HAL_Driver/Src/stm32f3xx_hal_uart.c ****   * @{
2052:Drivers/STM32F3xx_HAL_Driver/Src/stm32f3xx_hal_uart.c ****   */
2053:Drivers/STM32F3xx_HAL_Driver/Src/stm32f3xx_hal_uart.c **** 
2054:Drivers/STM32F3xx_HAL_Driver/Src/stm32f3xx_hal_uart.c **** /**
2055:Drivers/STM32F3xx_HAL_Driver/Src/stm32f3xx_hal_uart.c ****   * @brief  Return the UART handle state.
2056:Drivers/STM32F3xx_HAL_Driver/Src/stm32f3xx_hal_uart.c ****   * @param  huart Pointer to a UART_HandleTypeDef structure that contains
2057:Drivers/STM32F3xx_HAL_Driver/Src/stm32f3xx_hal_uart.c ****   *               the configuration information for the specified UART.
2058:Drivers/STM32F3xx_HAL_Driver/Src/stm32f3xx_hal_uart.c ****   * @retval HAL state
2059:Drivers/STM32F3xx_HAL_Driver/Src/stm32f3xx_hal_uart.c ****   */
ARM GAS  /tmp/ccinMcHI.s 			page 54


2060:Drivers/STM32F3xx_HAL_Driver/Src/stm32f3xx_hal_uart.c **** HAL_UART_StateTypeDef HAL_UART_GetState(UART_HandleTypeDef *huart)
2061:Drivers/STM32F3xx_HAL_Driver/Src/stm32f3xx_hal_uart.c **** {
2062:Drivers/STM32F3xx_HAL_Driver/Src/stm32f3xx_hal_uart.c ****   uint32_t temp1= 0x00U, temp2 = 0x00U;
2063:Drivers/STM32F3xx_HAL_Driver/Src/stm32f3xx_hal_uart.c ****   temp1 = huart->gState;
2064:Drivers/STM32F3xx_HAL_Driver/Src/stm32f3xx_hal_uart.c ****   temp2 = huart->RxState;
2065:Drivers/STM32F3xx_HAL_Driver/Src/stm32f3xx_hal_uart.c **** 
2066:Drivers/STM32F3xx_HAL_Driver/Src/stm32f3xx_hal_uart.c ****   return (HAL_UART_StateTypeDef)(temp1 | temp2);
2067:Drivers/STM32F3xx_HAL_Driver/Src/stm32f3xx_hal_uart.c **** }
2068:Drivers/STM32F3xx_HAL_Driver/Src/stm32f3xx_hal_uart.c **** 
2069:Drivers/STM32F3xx_HAL_Driver/Src/stm32f3xx_hal_uart.c **** /**
2070:Drivers/STM32F3xx_HAL_Driver/Src/stm32f3xx_hal_uart.c ****   * @brief  Return the UART handle error code.
2071:Drivers/STM32F3xx_HAL_Driver/Src/stm32f3xx_hal_uart.c ****   * @param  huart Pointer to a UART_HandleTypeDef structure that contains
2072:Drivers/STM32F3xx_HAL_Driver/Src/stm32f3xx_hal_uart.c ****   *               the configuration information for the specified UART.
2073:Drivers/STM32F3xx_HAL_Driver/Src/stm32f3xx_hal_uart.c ****   * @retval UART Error Code
2074:Drivers/STM32F3xx_HAL_Driver/Src/stm32f3xx_hal_uart.c ****   */
2075:Drivers/STM32F3xx_HAL_Driver/Src/stm32f3xx_hal_uart.c **** uint32_t HAL_UART_GetError(UART_HandleTypeDef *huart)
2076:Drivers/STM32F3xx_HAL_Driver/Src/stm32f3xx_hal_uart.c **** {
2077:Drivers/STM32F3xx_HAL_Driver/Src/stm32f3xx_hal_uart.c ****   return huart->ErrorCode;
2078:Drivers/STM32F3xx_HAL_Driver/Src/stm32f3xx_hal_uart.c **** }
2079:Drivers/STM32F3xx_HAL_Driver/Src/stm32f3xx_hal_uart.c **** /**
2080:Drivers/STM32F3xx_HAL_Driver/Src/stm32f3xx_hal_uart.c ****   * @}
2081:Drivers/STM32F3xx_HAL_Driver/Src/stm32f3xx_hal_uart.c ****   */
2082:Drivers/STM32F3xx_HAL_Driver/Src/stm32f3xx_hal_uart.c **** 
2083:Drivers/STM32F3xx_HAL_Driver/Src/stm32f3xx_hal_uart.c **** /**
2084:Drivers/STM32F3xx_HAL_Driver/Src/stm32f3xx_hal_uart.c ****   * @}
2085:Drivers/STM32F3xx_HAL_Driver/Src/stm32f3xx_hal_uart.c ****   */
2086:Drivers/STM32F3xx_HAL_Driver/Src/stm32f3xx_hal_uart.c **** 
2087:Drivers/STM32F3xx_HAL_Driver/Src/stm32f3xx_hal_uart.c **** /** @defgroup UART_Private_Functions UART Private Functions
2088:Drivers/STM32F3xx_HAL_Driver/Src/stm32f3xx_hal_uart.c ****   * @{
2089:Drivers/STM32F3xx_HAL_Driver/Src/stm32f3xx_hal_uart.c ****   */
2090:Drivers/STM32F3xx_HAL_Driver/Src/stm32f3xx_hal_uart.c **** 
2091:Drivers/STM32F3xx_HAL_Driver/Src/stm32f3xx_hal_uart.c **** /**
2092:Drivers/STM32F3xx_HAL_Driver/Src/stm32f3xx_hal_uart.c ****   * @brief Configure the UART peripheral.
2093:Drivers/STM32F3xx_HAL_Driver/Src/stm32f3xx_hal_uart.c ****   * @param huart UART handle.
2094:Drivers/STM32F3xx_HAL_Driver/Src/stm32f3xx_hal_uart.c ****   * @retval HAL status
2095:Drivers/STM32F3xx_HAL_Driver/Src/stm32f3xx_hal_uart.c ****   */
2096:Drivers/STM32F3xx_HAL_Driver/Src/stm32f3xx_hal_uart.c **** HAL_StatusTypeDef UART_SetConfig(UART_HandleTypeDef *huart)
