ARM GAS  /tmp/cc3fRK7k.s 			page 1


   1              		.cpu cortex-m4
   2              		.eabi_attribute 27, 1
   3              		.eabi_attribute 28, 1
   4              		.eabi_attribute 20, 1
   5              		.eabi_attribute 21, 1
   6              		.eabi_attribute 23, 3
   7              		.eabi_attribute 24, 1
   8              		.eabi_attribute 25, 1
   9              		.eabi_attribute 26, 1
  10              		.eabi_attribute 30, 6
  11              		.eabi_attribute 34, 1
  12              		.eabi_attribute 18, 4
  13              		.file	"stm32f3xx_ll_exti.c"
  14              		.text
  15              	.Ltext0:
  16              		.cfi_sections	.debug_frame
  17              		.section	.rodata.CHANNEL_OFFSET_TAB,"a",%progbits
  18              		.align	2
  21              	CHANNEL_OFFSET_TAB:
  22 0000 08       		.byte	8
  23 0001 1C       		.byte	28
  24 0002 30       		.byte	48
  25 0003 44       		.byte	68
  26 0004 58       		.byte	88
  27 0005 6C       		.byte	108
  28 0006 80       		.byte	-128
  29              		.section	.text.LL_EXTI_EnableIT_0_31,"ax",%progbits
  30              		.align	1
  31              		.syntax unified
  32              		.thumb
  33              		.thumb_func
  34              		.fpu fpv4-sp-d16
  36              	LL_EXTI_EnableIT_0_31:
  37              	.LFB663:
  38              		.file 1 "Drivers/STM32F3xx_HAL_Driver/Inc/stm32f3xx_ll_exti.h"
   1:Drivers/STM32F3xx_HAL_Driver/Inc/stm32f3xx_ll_exti.h **** /**
   2:Drivers/STM32F3xx_HAL_Driver/Inc/stm32f3xx_ll_exti.h ****   ******************************************************************************
   3:Drivers/STM32F3xx_HAL_Driver/Inc/stm32f3xx_ll_exti.h ****   * @file    stm32f3xx_ll_exti.h
   4:Drivers/STM32F3xx_HAL_Driver/Inc/stm32f3xx_ll_exti.h ****   * @author  MCD Application Team
   5:Drivers/STM32F3xx_HAL_Driver/Inc/stm32f3xx_ll_exti.h ****   * @brief   Header file of EXTI LL module.
   6:Drivers/STM32F3xx_HAL_Driver/Inc/stm32f3xx_ll_exti.h ****   ******************************************************************************
   7:Drivers/STM32F3xx_HAL_Driver/Inc/stm32f3xx_ll_exti.h ****   * @attention
   8:Drivers/STM32F3xx_HAL_Driver/Inc/stm32f3xx_ll_exti.h ****   *
   9:Drivers/STM32F3xx_HAL_Driver/Inc/stm32f3xx_ll_exti.h ****   * <h2><center>&copy; COPYRIGHT(c) 2016 STMicroelectronics</center></h2>
  10:Drivers/STM32F3xx_HAL_Driver/Inc/stm32f3xx_ll_exti.h ****   *
  11:Drivers/STM32F3xx_HAL_Driver/Inc/stm32f3xx_ll_exti.h ****   * Redistribution and use in source and binary forms, with or without modification,
  12:Drivers/STM32F3xx_HAL_Driver/Inc/stm32f3xx_ll_exti.h ****   * are permitted provided that the following conditions are met:
  13:Drivers/STM32F3xx_HAL_Driver/Inc/stm32f3xx_ll_exti.h ****   *   1. Redistributions of source code must retain the above copyright notice,
  14:Drivers/STM32F3xx_HAL_Driver/Inc/stm32f3xx_ll_exti.h ****   *      this list of conditions and the following disclaimer.
  15:Drivers/STM32F3xx_HAL_Driver/Inc/stm32f3xx_ll_exti.h ****   *   2. Redistributions in binary form must reproduce the above copyright notice,
  16:Drivers/STM32F3xx_HAL_Driver/Inc/stm32f3xx_ll_exti.h ****   *      this list of conditions and the following disclaimer in the documentation
  17:Drivers/STM32F3xx_HAL_Driver/Inc/stm32f3xx_ll_exti.h ****   *      and/or other materials provided with the distribution.
  18:Drivers/STM32F3xx_HAL_Driver/Inc/stm32f3xx_ll_exti.h ****   *   3. Neither the name of STMicroelectronics nor the names of its contributors
  19:Drivers/STM32F3xx_HAL_Driver/Inc/stm32f3xx_ll_exti.h ****   *      may be used to endorse or promote products derived from this software
  20:Drivers/STM32F3xx_HAL_Driver/Inc/stm32f3xx_ll_exti.h ****   *      without specific prior written permission.
  21:Drivers/STM32F3xx_HAL_Driver/Inc/stm32f3xx_ll_exti.h ****   *
  22:Drivers/STM32F3xx_HAL_Driver/Inc/stm32f3xx_ll_exti.h ****   * THIS SOFTWARE IS PROVIDED BY THE COPYRIGHT HOLDERS AND CONTRIBUTORS "AS IS"
ARM GAS  /tmp/cc3fRK7k.s 			page 2


  23:Drivers/STM32F3xx_HAL_Driver/Inc/stm32f3xx_ll_exti.h ****   * AND ANY EXPRESS OR IMPLIED WARRANTIES, INCLUDING, BUT NOT LIMITED TO, THE
  24:Drivers/STM32F3xx_HAL_Driver/Inc/stm32f3xx_ll_exti.h ****   * IMPLIED WARRANTIES OF MERCHANTABILITY AND FITNESS FOR A PARTICULAR PURPOSE ARE
  25:Drivers/STM32F3xx_HAL_Driver/Inc/stm32f3xx_ll_exti.h ****   * DISCLAIMED. IN NO EVENT SHALL THE COPYRIGHT HOLDER OR CONTRIBUTORS BE LIABLE
  26:Drivers/STM32F3xx_HAL_Driver/Inc/stm32f3xx_ll_exti.h ****   * FOR ANY DIRECT, INDIRECT, INCIDENTAL, SPECIAL, EXEMPLARY, OR CONSEQUENTIAL
  27:Drivers/STM32F3xx_HAL_Driver/Inc/stm32f3xx_ll_exti.h ****   * DAMAGES (INCLUDING, BUT NOT LIMITED TO, PROCUREMENT OF SUBSTITUTE GOODS OR
  28:Drivers/STM32F3xx_HAL_Driver/Inc/stm32f3xx_ll_exti.h ****   * SERVICES; LOSS OF USE, DATA, OR PROFITS; OR BUSINESS INTERRUPTION) HOWEVER
  29:Drivers/STM32F3xx_HAL_Driver/Inc/stm32f3xx_ll_exti.h ****   * CAUSED AND ON ANY THEORY OF LIABILITY, WHETHER IN CONTRACT, STRICT LIABILITY,
  30:Drivers/STM32F3xx_HAL_Driver/Inc/stm32f3xx_ll_exti.h ****   * OR TORT (INCLUDING NEGLIGENCE OR OTHERWISE) ARISING IN ANY WAY OUT OF THE USE
  31:Drivers/STM32F3xx_HAL_Driver/Inc/stm32f3xx_ll_exti.h ****   * OF THIS SOFTWARE, EVEN IF ADVISED OF THE POSSIBILITY OF SUCH DAMAGE.
  32:Drivers/STM32F3xx_HAL_Driver/Inc/stm32f3xx_ll_exti.h ****   *
  33:Drivers/STM32F3xx_HAL_Driver/Inc/stm32f3xx_ll_exti.h ****   ******************************************************************************
  34:Drivers/STM32F3xx_HAL_Driver/Inc/stm32f3xx_ll_exti.h ****   */
  35:Drivers/STM32F3xx_HAL_Driver/Inc/stm32f3xx_ll_exti.h **** 
  36:Drivers/STM32F3xx_HAL_Driver/Inc/stm32f3xx_ll_exti.h **** /* Define to prevent recursive inclusion -------------------------------------*/
  37:Drivers/STM32F3xx_HAL_Driver/Inc/stm32f3xx_ll_exti.h **** #ifndef __STM32F3xx_LL_EXTI_H
  38:Drivers/STM32F3xx_HAL_Driver/Inc/stm32f3xx_ll_exti.h **** #define __STM32F3xx_LL_EXTI_H
  39:Drivers/STM32F3xx_HAL_Driver/Inc/stm32f3xx_ll_exti.h **** 
  40:Drivers/STM32F3xx_HAL_Driver/Inc/stm32f3xx_ll_exti.h **** #ifdef __cplusplus
  41:Drivers/STM32F3xx_HAL_Driver/Inc/stm32f3xx_ll_exti.h **** extern "C" {
  42:Drivers/STM32F3xx_HAL_Driver/Inc/stm32f3xx_ll_exti.h **** #endif
  43:Drivers/STM32F3xx_HAL_Driver/Inc/stm32f3xx_ll_exti.h **** 
  44:Drivers/STM32F3xx_HAL_Driver/Inc/stm32f3xx_ll_exti.h **** /* Includes ------------------------------------------------------------------*/
  45:Drivers/STM32F3xx_HAL_Driver/Inc/stm32f3xx_ll_exti.h **** #include "stm32f3xx.h"
  46:Drivers/STM32F3xx_HAL_Driver/Inc/stm32f3xx_ll_exti.h **** 
  47:Drivers/STM32F3xx_HAL_Driver/Inc/stm32f3xx_ll_exti.h **** /** @addtogroup STM32F3xx_LL_Driver
  48:Drivers/STM32F3xx_HAL_Driver/Inc/stm32f3xx_ll_exti.h ****   * @{
  49:Drivers/STM32F3xx_HAL_Driver/Inc/stm32f3xx_ll_exti.h ****   */
  50:Drivers/STM32F3xx_HAL_Driver/Inc/stm32f3xx_ll_exti.h **** 
  51:Drivers/STM32F3xx_HAL_Driver/Inc/stm32f3xx_ll_exti.h **** #if defined (EXTI)
  52:Drivers/STM32F3xx_HAL_Driver/Inc/stm32f3xx_ll_exti.h **** 
  53:Drivers/STM32F3xx_HAL_Driver/Inc/stm32f3xx_ll_exti.h **** /** @defgroup EXTI_LL EXTI
  54:Drivers/STM32F3xx_HAL_Driver/Inc/stm32f3xx_ll_exti.h ****   * @{
  55:Drivers/STM32F3xx_HAL_Driver/Inc/stm32f3xx_ll_exti.h ****   */
  56:Drivers/STM32F3xx_HAL_Driver/Inc/stm32f3xx_ll_exti.h **** 
  57:Drivers/STM32F3xx_HAL_Driver/Inc/stm32f3xx_ll_exti.h **** /* Private types -------------------------------------------------------------*/
  58:Drivers/STM32F3xx_HAL_Driver/Inc/stm32f3xx_ll_exti.h **** /* Private variables ---------------------------------------------------------*/
  59:Drivers/STM32F3xx_HAL_Driver/Inc/stm32f3xx_ll_exti.h **** /* Private constants ---------------------------------------------------------*/
  60:Drivers/STM32F3xx_HAL_Driver/Inc/stm32f3xx_ll_exti.h **** /* Private Macros ------------------------------------------------------------*/
  61:Drivers/STM32F3xx_HAL_Driver/Inc/stm32f3xx_ll_exti.h **** #if defined(USE_FULL_LL_DRIVER)
  62:Drivers/STM32F3xx_HAL_Driver/Inc/stm32f3xx_ll_exti.h **** /** @defgroup EXTI_LL_Private_Macros EXTI Private Macros
  63:Drivers/STM32F3xx_HAL_Driver/Inc/stm32f3xx_ll_exti.h ****   * @{
  64:Drivers/STM32F3xx_HAL_Driver/Inc/stm32f3xx_ll_exti.h ****   */
  65:Drivers/STM32F3xx_HAL_Driver/Inc/stm32f3xx_ll_exti.h **** /**
  66:Drivers/STM32F3xx_HAL_Driver/Inc/stm32f3xx_ll_exti.h ****   * @}
  67:Drivers/STM32F3xx_HAL_Driver/Inc/stm32f3xx_ll_exti.h ****   */
  68:Drivers/STM32F3xx_HAL_Driver/Inc/stm32f3xx_ll_exti.h **** #endif /*USE_FULL_LL_DRIVER*/
  69:Drivers/STM32F3xx_HAL_Driver/Inc/stm32f3xx_ll_exti.h **** /* Exported types ------------------------------------------------------------*/
  70:Drivers/STM32F3xx_HAL_Driver/Inc/stm32f3xx_ll_exti.h **** #if defined(USE_FULL_LL_DRIVER)
  71:Drivers/STM32F3xx_HAL_Driver/Inc/stm32f3xx_ll_exti.h **** /** @defgroup EXTI_LL_ES_INIT EXTI Exported Init structure
  72:Drivers/STM32F3xx_HAL_Driver/Inc/stm32f3xx_ll_exti.h ****   * @{
  73:Drivers/STM32F3xx_HAL_Driver/Inc/stm32f3xx_ll_exti.h ****   */
  74:Drivers/STM32F3xx_HAL_Driver/Inc/stm32f3xx_ll_exti.h **** typedef struct
  75:Drivers/STM32F3xx_HAL_Driver/Inc/stm32f3xx_ll_exti.h **** {
  76:Drivers/STM32F3xx_HAL_Driver/Inc/stm32f3xx_ll_exti.h **** 
  77:Drivers/STM32F3xx_HAL_Driver/Inc/stm32f3xx_ll_exti.h ****   uint32_t Line_0_31;           /*!< Specifies the EXTI lines to be enabled or disabled for Lines i
  78:Drivers/STM32F3xx_HAL_Driver/Inc/stm32f3xx_ll_exti.h ****                                      This parameter can be any combination of @ref EXTI_LL_EC_LINE 
  79:Drivers/STM32F3xx_HAL_Driver/Inc/stm32f3xx_ll_exti.h **** #if defined(EXTI_32_63_SUPPORT)
ARM GAS  /tmp/cc3fRK7k.s 			page 3


  80:Drivers/STM32F3xx_HAL_Driver/Inc/stm32f3xx_ll_exti.h **** 
  81:Drivers/STM32F3xx_HAL_Driver/Inc/stm32f3xx_ll_exti.h ****   uint32_t Line_32_63;          /*!< Specifies the EXTI lines to be enabled or disabled for Lines i
  82:Drivers/STM32F3xx_HAL_Driver/Inc/stm32f3xx_ll_exti.h ****                                      This parameter can be any combination of @ref EXTI_LL_EC_LINE 
  83:Drivers/STM32F3xx_HAL_Driver/Inc/stm32f3xx_ll_exti.h **** #endif
  84:Drivers/STM32F3xx_HAL_Driver/Inc/stm32f3xx_ll_exti.h **** 
  85:Drivers/STM32F3xx_HAL_Driver/Inc/stm32f3xx_ll_exti.h ****   FunctionalState LineCommand;  /*!< Specifies the new state of the selected EXTI lines.
  86:Drivers/STM32F3xx_HAL_Driver/Inc/stm32f3xx_ll_exti.h ****                                      This parameter can be set either to ENABLE or DISABLE */
  87:Drivers/STM32F3xx_HAL_Driver/Inc/stm32f3xx_ll_exti.h **** 
  88:Drivers/STM32F3xx_HAL_Driver/Inc/stm32f3xx_ll_exti.h ****   uint8_t Mode;                 /*!< Specifies the mode for the EXTI lines.
  89:Drivers/STM32F3xx_HAL_Driver/Inc/stm32f3xx_ll_exti.h ****                                      This parameter can be a value of @ref EXTI_LL_EC_MODE. */
  90:Drivers/STM32F3xx_HAL_Driver/Inc/stm32f3xx_ll_exti.h **** 
  91:Drivers/STM32F3xx_HAL_Driver/Inc/stm32f3xx_ll_exti.h ****   uint8_t Trigger;              /*!< Specifies the trigger signal active edge for the EXTI lines.
  92:Drivers/STM32F3xx_HAL_Driver/Inc/stm32f3xx_ll_exti.h ****                                      This parameter can be a value of @ref EXTI_LL_EC_TRIGGER. */
  93:Drivers/STM32F3xx_HAL_Driver/Inc/stm32f3xx_ll_exti.h **** } LL_EXTI_InitTypeDef;
  94:Drivers/STM32F3xx_HAL_Driver/Inc/stm32f3xx_ll_exti.h **** 
  95:Drivers/STM32F3xx_HAL_Driver/Inc/stm32f3xx_ll_exti.h **** /**
  96:Drivers/STM32F3xx_HAL_Driver/Inc/stm32f3xx_ll_exti.h ****   * @}
  97:Drivers/STM32F3xx_HAL_Driver/Inc/stm32f3xx_ll_exti.h ****   */
  98:Drivers/STM32F3xx_HAL_Driver/Inc/stm32f3xx_ll_exti.h **** #endif /*USE_FULL_LL_DRIVER*/
  99:Drivers/STM32F3xx_HAL_Driver/Inc/stm32f3xx_ll_exti.h **** 
 100:Drivers/STM32F3xx_HAL_Driver/Inc/stm32f3xx_ll_exti.h **** /* Exported constants --------------------------------------------------------*/
 101:Drivers/STM32F3xx_HAL_Driver/Inc/stm32f3xx_ll_exti.h **** /** @defgroup EXTI_LL_Exported_Constants EXTI Exported Constants
 102:Drivers/STM32F3xx_HAL_Driver/Inc/stm32f3xx_ll_exti.h ****   * @{
 103:Drivers/STM32F3xx_HAL_Driver/Inc/stm32f3xx_ll_exti.h ****   */
 104:Drivers/STM32F3xx_HAL_Driver/Inc/stm32f3xx_ll_exti.h **** 
 105:Drivers/STM32F3xx_HAL_Driver/Inc/stm32f3xx_ll_exti.h **** /** @defgroup EXTI_LL_EC_LINE LINE
 106:Drivers/STM32F3xx_HAL_Driver/Inc/stm32f3xx_ll_exti.h ****   * @{
 107:Drivers/STM32F3xx_HAL_Driver/Inc/stm32f3xx_ll_exti.h ****   */
 108:Drivers/STM32F3xx_HAL_Driver/Inc/stm32f3xx_ll_exti.h **** #define LL_EXTI_LINE_0                 EXTI_IMR_IM0           /*!< Extended line 0 */
 109:Drivers/STM32F3xx_HAL_Driver/Inc/stm32f3xx_ll_exti.h **** #define LL_EXTI_LINE_1                 EXTI_IMR_IM1           /*!< Extended line 1 */
 110:Drivers/STM32F3xx_HAL_Driver/Inc/stm32f3xx_ll_exti.h **** #define LL_EXTI_LINE_2                 EXTI_IMR_IM2           /*!< Extended line 2 */
 111:Drivers/STM32F3xx_HAL_Driver/Inc/stm32f3xx_ll_exti.h **** #define LL_EXTI_LINE_3                 EXTI_IMR_IM3           /*!< Extended line 3 */
 112:Drivers/STM32F3xx_HAL_Driver/Inc/stm32f3xx_ll_exti.h **** #define LL_EXTI_LINE_4                 EXTI_IMR_IM4           /*!< Extended line 4 */
 113:Drivers/STM32F3xx_HAL_Driver/Inc/stm32f3xx_ll_exti.h **** #define LL_EXTI_LINE_5                 EXTI_IMR_IM5           /*!< Extended line 5 */
 114:Drivers/STM32F3xx_HAL_Driver/Inc/stm32f3xx_ll_exti.h **** #define LL_EXTI_LINE_6                 EXTI_IMR_IM6           /*!< Extended line 6 */
 115:Drivers/STM32F3xx_HAL_Driver/Inc/stm32f3xx_ll_exti.h **** #define LL_EXTI_LINE_7                 EXTI_IMR_IM7           /*!< Extended line 7 */
 116:Drivers/STM32F3xx_HAL_Driver/Inc/stm32f3xx_ll_exti.h **** #define LL_EXTI_LINE_8                 EXTI_IMR_IM8           /*!< Extended line 8 */
 117:Drivers/STM32F3xx_HAL_Driver/Inc/stm32f3xx_ll_exti.h **** #define LL_EXTI_LINE_9                 EXTI_IMR_IM9           /*!< Extended line 9 */
 118:Drivers/STM32F3xx_HAL_Driver/Inc/stm32f3xx_ll_exti.h **** #define LL_EXTI_LINE_10                EXTI_IMR_IM10          /*!< Extended line 10 */
 119:Drivers/STM32F3xx_HAL_Driver/Inc/stm32f3xx_ll_exti.h **** #define LL_EXTI_LINE_11                EXTI_IMR_IM11          /*!< Extended line 11 */
 120:Drivers/STM32F3xx_HAL_Driver/Inc/stm32f3xx_ll_exti.h **** #define LL_EXTI_LINE_12                EXTI_IMR_IM12          /*!< Extended line 12 */
 121:Drivers/STM32F3xx_HAL_Driver/Inc/stm32f3xx_ll_exti.h **** #define LL_EXTI_LINE_13                EXTI_IMR_IM13          /*!< Extended line 13 */
 122:Drivers/STM32F3xx_HAL_Driver/Inc/stm32f3xx_ll_exti.h **** #define LL_EXTI_LINE_14                EXTI_IMR_IM14          /*!< Extended line 14 */
 123:Drivers/STM32F3xx_HAL_Driver/Inc/stm32f3xx_ll_exti.h **** #define LL_EXTI_LINE_15                EXTI_IMR_IM15          /*!< Extended line 15 */
 124:Drivers/STM32F3xx_HAL_Driver/Inc/stm32f3xx_ll_exti.h **** #if defined(EXTI_IMR_IM16)
 125:Drivers/STM32F3xx_HAL_Driver/Inc/stm32f3xx_ll_exti.h **** #define LL_EXTI_LINE_16                EXTI_IMR_IM16          /*!< Extended line 16 */
 126:Drivers/STM32F3xx_HAL_Driver/Inc/stm32f3xx_ll_exti.h **** #endif
 127:Drivers/STM32F3xx_HAL_Driver/Inc/stm32f3xx_ll_exti.h **** #define LL_EXTI_LINE_17                EXTI_IMR_IM17          /*!< Extended line 17 */
 128:Drivers/STM32F3xx_HAL_Driver/Inc/stm32f3xx_ll_exti.h **** #if defined(EXTI_IMR_IM18)
 129:Drivers/STM32F3xx_HAL_Driver/Inc/stm32f3xx_ll_exti.h **** #define LL_EXTI_LINE_18                EXTI_IMR_IM18          /*!< Extended line 18 */
 130:Drivers/STM32F3xx_HAL_Driver/Inc/stm32f3xx_ll_exti.h **** #endif
 131:Drivers/STM32F3xx_HAL_Driver/Inc/stm32f3xx_ll_exti.h **** #define LL_EXTI_LINE_19                EXTI_IMR_IM19          /*!< Extended line 19 */
 132:Drivers/STM32F3xx_HAL_Driver/Inc/stm32f3xx_ll_exti.h **** #if defined(EXTI_IMR_IM20)
 133:Drivers/STM32F3xx_HAL_Driver/Inc/stm32f3xx_ll_exti.h **** #define LL_EXTI_LINE_20                EXTI_IMR_IM20          /*!< Extended line 20 */
 134:Drivers/STM32F3xx_HAL_Driver/Inc/stm32f3xx_ll_exti.h **** #endif
 135:Drivers/STM32F3xx_HAL_Driver/Inc/stm32f3xx_ll_exti.h **** #if defined(EXTI_IMR_IM21)
 136:Drivers/STM32F3xx_HAL_Driver/Inc/stm32f3xx_ll_exti.h **** #define LL_EXTI_LINE_21                EXTI_IMR_IM21          /*!< Extended line 21 */
ARM GAS  /tmp/cc3fRK7k.s 			page 4


 137:Drivers/STM32F3xx_HAL_Driver/Inc/stm32f3xx_ll_exti.h **** #endif
 138:Drivers/STM32F3xx_HAL_Driver/Inc/stm32f3xx_ll_exti.h **** #if defined(EXTI_IMR_IM22)
 139:Drivers/STM32F3xx_HAL_Driver/Inc/stm32f3xx_ll_exti.h **** #define LL_EXTI_LINE_22                EXTI_IMR_IM22          /*!< Extended line 22 */
 140:Drivers/STM32F3xx_HAL_Driver/Inc/stm32f3xx_ll_exti.h **** #endif
 141:Drivers/STM32F3xx_HAL_Driver/Inc/stm32f3xx_ll_exti.h **** #define LL_EXTI_LINE_23                EXTI_IMR_IM23          /*!< Extended line 23 */
 142:Drivers/STM32F3xx_HAL_Driver/Inc/stm32f3xx_ll_exti.h **** #if defined(EXTI_IMR_IM24)
 143:Drivers/STM32F3xx_HAL_Driver/Inc/stm32f3xx_ll_exti.h **** #define LL_EXTI_LINE_24                EXTI_IMR_IM24          /*!< Extended line 24 */
 144:Drivers/STM32F3xx_HAL_Driver/Inc/stm32f3xx_ll_exti.h **** #endif
 145:Drivers/STM32F3xx_HAL_Driver/Inc/stm32f3xx_ll_exti.h **** #if defined(EXTI_IMR_IM25)
 146:Drivers/STM32F3xx_HAL_Driver/Inc/stm32f3xx_ll_exti.h **** #define LL_EXTI_LINE_25                EXTI_IMR_IM25          /*!< Extended line 25 */
 147:Drivers/STM32F3xx_HAL_Driver/Inc/stm32f3xx_ll_exti.h **** #endif
 148:Drivers/STM32F3xx_HAL_Driver/Inc/stm32f3xx_ll_exti.h **** #if defined(EXTI_IMR_IM26)
 149:Drivers/STM32F3xx_HAL_Driver/Inc/stm32f3xx_ll_exti.h **** #define LL_EXTI_LINE_26                EXTI_IMR_IM26          /*!< Extended line 26 */
 150:Drivers/STM32F3xx_HAL_Driver/Inc/stm32f3xx_ll_exti.h **** #endif
 151:Drivers/STM32F3xx_HAL_Driver/Inc/stm32f3xx_ll_exti.h **** #if defined(EXTI_IMR_IM27)
 152:Drivers/STM32F3xx_HAL_Driver/Inc/stm32f3xx_ll_exti.h **** #define LL_EXTI_LINE_27                EXTI_IMR_IM27          /*!< Extended line 27 */
 153:Drivers/STM32F3xx_HAL_Driver/Inc/stm32f3xx_ll_exti.h **** #endif
 154:Drivers/STM32F3xx_HAL_Driver/Inc/stm32f3xx_ll_exti.h **** #if defined(EXTI_IMR_IM28)
 155:Drivers/STM32F3xx_HAL_Driver/Inc/stm32f3xx_ll_exti.h **** #define LL_EXTI_LINE_28                EXTI_IMR_IM28          /*!< Extended line 28 */
 156:Drivers/STM32F3xx_HAL_Driver/Inc/stm32f3xx_ll_exti.h **** #endif
 157:Drivers/STM32F3xx_HAL_Driver/Inc/stm32f3xx_ll_exti.h **** #if defined(EXTI_IMR_IM29)
 158:Drivers/STM32F3xx_HAL_Driver/Inc/stm32f3xx_ll_exti.h **** #define LL_EXTI_LINE_29                EXTI_IMR_IM29          /*!< Extended line 29 */
 159:Drivers/STM32F3xx_HAL_Driver/Inc/stm32f3xx_ll_exti.h **** #endif
 160:Drivers/STM32F3xx_HAL_Driver/Inc/stm32f3xx_ll_exti.h **** #if defined(EXTI_IMR_IM30)
 161:Drivers/STM32F3xx_HAL_Driver/Inc/stm32f3xx_ll_exti.h **** #define LL_EXTI_LINE_30                EXTI_IMR_IM30          /*!< Extended line 30 */
 162:Drivers/STM32F3xx_HAL_Driver/Inc/stm32f3xx_ll_exti.h **** #endif
 163:Drivers/STM32F3xx_HAL_Driver/Inc/stm32f3xx_ll_exti.h **** #if defined(EXTI_IMR_IM31)
 164:Drivers/STM32F3xx_HAL_Driver/Inc/stm32f3xx_ll_exti.h **** #define LL_EXTI_LINE_31                EXTI_IMR_IM31          /*!< Extended line 31 */
 165:Drivers/STM32F3xx_HAL_Driver/Inc/stm32f3xx_ll_exti.h **** #endif
 166:Drivers/STM32F3xx_HAL_Driver/Inc/stm32f3xx_ll_exti.h **** #define LL_EXTI_LINE_ALL_0_31          EXTI_IMR_IM            /*!< All Extended line not reserved*/
 167:Drivers/STM32F3xx_HAL_Driver/Inc/stm32f3xx_ll_exti.h **** 
 168:Drivers/STM32F3xx_HAL_Driver/Inc/stm32f3xx_ll_exti.h **** #if defined(EXTI_32_63_SUPPORT)
 169:Drivers/STM32F3xx_HAL_Driver/Inc/stm32f3xx_ll_exti.h **** #define LL_EXTI_LINE_32                EXTI_IMR2_IM32          /*!< Extended line 32 */
 170:Drivers/STM32F3xx_HAL_Driver/Inc/stm32f3xx_ll_exti.h **** #if defined(EXTI_IMR2_IM33)
 171:Drivers/STM32F3xx_HAL_Driver/Inc/stm32f3xx_ll_exti.h **** #define LL_EXTI_LINE_33                EXTI_IMR2_IM33          /*!< Extended line 33 */
 172:Drivers/STM32F3xx_HAL_Driver/Inc/stm32f3xx_ll_exti.h **** #endif
 173:Drivers/STM32F3xx_HAL_Driver/Inc/stm32f3xx_ll_exti.h **** #if defined(EXTI_IMR2_IM34)
 174:Drivers/STM32F3xx_HAL_Driver/Inc/stm32f3xx_ll_exti.h **** #define LL_EXTI_LINE_34                EXTI_IMR2_IM34          /*!< Extended line 34 */
 175:Drivers/STM32F3xx_HAL_Driver/Inc/stm32f3xx_ll_exti.h **** #endif
 176:Drivers/STM32F3xx_HAL_Driver/Inc/stm32f3xx_ll_exti.h **** #if defined(EXTI_IMR2_IM35)
 177:Drivers/STM32F3xx_HAL_Driver/Inc/stm32f3xx_ll_exti.h **** #define LL_EXTI_LINE_35                EXTI_IMR2_IM35          /*!< Extended line 35 */
 178:Drivers/STM32F3xx_HAL_Driver/Inc/stm32f3xx_ll_exti.h **** #endif
 179:Drivers/STM32F3xx_HAL_Driver/Inc/stm32f3xx_ll_exti.h **** #if defined(EXTI_IMR2_IM36)
 180:Drivers/STM32F3xx_HAL_Driver/Inc/stm32f3xx_ll_exti.h **** #define LL_EXTI_LINE_36                EXTI_IMR2_IM36          /*!< Extended line 36 */
 181:Drivers/STM32F3xx_HAL_Driver/Inc/stm32f3xx_ll_exti.h **** #endif
 182:Drivers/STM32F3xx_HAL_Driver/Inc/stm32f3xx_ll_exti.h **** #if defined(EXTI_IMR2_IM37)
 183:Drivers/STM32F3xx_HAL_Driver/Inc/stm32f3xx_ll_exti.h **** #define LL_EXTI_LINE_37                EXTI_IMR2_IM37          /*!< Extended line 37 */
 184:Drivers/STM32F3xx_HAL_Driver/Inc/stm32f3xx_ll_exti.h **** #endif
 185:Drivers/STM32F3xx_HAL_Driver/Inc/stm32f3xx_ll_exti.h **** #if defined(EXTI_IMR2_IM38)
 186:Drivers/STM32F3xx_HAL_Driver/Inc/stm32f3xx_ll_exti.h **** #define LL_EXTI_LINE_38                EXTI_IMR2_IM38          /*!< Extended line 38 */
 187:Drivers/STM32F3xx_HAL_Driver/Inc/stm32f3xx_ll_exti.h **** #endif
 188:Drivers/STM32F3xx_HAL_Driver/Inc/stm32f3xx_ll_exti.h **** #if defined(EXTI_IMR2_IM39)
 189:Drivers/STM32F3xx_HAL_Driver/Inc/stm32f3xx_ll_exti.h **** #define LL_EXTI_LINE_39                EXTI_IMR2_IM39          /*!< Extended line 39 */
 190:Drivers/STM32F3xx_HAL_Driver/Inc/stm32f3xx_ll_exti.h **** #endif
 191:Drivers/STM32F3xx_HAL_Driver/Inc/stm32f3xx_ll_exti.h **** #if defined(EXTI_IMR2_IM40)
 192:Drivers/STM32F3xx_HAL_Driver/Inc/stm32f3xx_ll_exti.h **** #define LL_EXTI_LINE_40                EXTI_IMR2_IM40          /*!< Extended line 40 */
 193:Drivers/STM32F3xx_HAL_Driver/Inc/stm32f3xx_ll_exti.h **** #endif
ARM GAS  /tmp/cc3fRK7k.s 			page 5


 194:Drivers/STM32F3xx_HAL_Driver/Inc/stm32f3xx_ll_exti.h **** #define LL_EXTI_LINE_ALL_32_63         EXTI_IMR2_IM            /*!< All Extended line not reserved*
 195:Drivers/STM32F3xx_HAL_Driver/Inc/stm32f3xx_ll_exti.h **** 
 196:Drivers/STM32F3xx_HAL_Driver/Inc/stm32f3xx_ll_exti.h **** #endif
 197:Drivers/STM32F3xx_HAL_Driver/Inc/stm32f3xx_ll_exti.h **** 
 198:Drivers/STM32F3xx_HAL_Driver/Inc/stm32f3xx_ll_exti.h **** #define LL_EXTI_LINE_ALL               (0xFFFFFFFFU)  /*!< All Extended line */
 199:Drivers/STM32F3xx_HAL_Driver/Inc/stm32f3xx_ll_exti.h **** 
 200:Drivers/STM32F3xx_HAL_Driver/Inc/stm32f3xx_ll_exti.h **** #if defined(USE_FULL_LL_DRIVER)
 201:Drivers/STM32F3xx_HAL_Driver/Inc/stm32f3xx_ll_exti.h **** #define LL_EXTI_LINE_NONE              (0x00000000U)  /*!< None Extended line */
 202:Drivers/STM32F3xx_HAL_Driver/Inc/stm32f3xx_ll_exti.h **** #endif /*USE_FULL_LL_DRIVER*/
 203:Drivers/STM32F3xx_HAL_Driver/Inc/stm32f3xx_ll_exti.h **** 
 204:Drivers/STM32F3xx_HAL_Driver/Inc/stm32f3xx_ll_exti.h **** /**
 205:Drivers/STM32F3xx_HAL_Driver/Inc/stm32f3xx_ll_exti.h ****   * @}
 206:Drivers/STM32F3xx_HAL_Driver/Inc/stm32f3xx_ll_exti.h ****   */
 207:Drivers/STM32F3xx_HAL_Driver/Inc/stm32f3xx_ll_exti.h **** #if defined(USE_FULL_LL_DRIVER)
 208:Drivers/STM32F3xx_HAL_Driver/Inc/stm32f3xx_ll_exti.h **** 
 209:Drivers/STM32F3xx_HAL_Driver/Inc/stm32f3xx_ll_exti.h **** /** @defgroup EXTI_LL_EC_MODE Mode
 210:Drivers/STM32F3xx_HAL_Driver/Inc/stm32f3xx_ll_exti.h ****   * @{
 211:Drivers/STM32F3xx_HAL_Driver/Inc/stm32f3xx_ll_exti.h ****   */
 212:Drivers/STM32F3xx_HAL_Driver/Inc/stm32f3xx_ll_exti.h **** #define LL_EXTI_MODE_IT                 ((uint8_t)0x00U) /*!< Interrupt Mode */
 213:Drivers/STM32F3xx_HAL_Driver/Inc/stm32f3xx_ll_exti.h **** #define LL_EXTI_MODE_EVENT              ((uint8_t)0x01U) /*!< Event Mode */
 214:Drivers/STM32F3xx_HAL_Driver/Inc/stm32f3xx_ll_exti.h **** #define LL_EXTI_MODE_IT_EVENT           ((uint8_t)0x02U) /*!< Interrupt & Event Mode */
 215:Drivers/STM32F3xx_HAL_Driver/Inc/stm32f3xx_ll_exti.h **** /**
 216:Drivers/STM32F3xx_HAL_Driver/Inc/stm32f3xx_ll_exti.h ****   * @}
 217:Drivers/STM32F3xx_HAL_Driver/Inc/stm32f3xx_ll_exti.h ****   */
 218:Drivers/STM32F3xx_HAL_Driver/Inc/stm32f3xx_ll_exti.h **** 
 219:Drivers/STM32F3xx_HAL_Driver/Inc/stm32f3xx_ll_exti.h **** /** @defgroup EXTI_LL_EC_TRIGGER Edge Trigger
 220:Drivers/STM32F3xx_HAL_Driver/Inc/stm32f3xx_ll_exti.h ****   * @{
 221:Drivers/STM32F3xx_HAL_Driver/Inc/stm32f3xx_ll_exti.h ****   */
 222:Drivers/STM32F3xx_HAL_Driver/Inc/stm32f3xx_ll_exti.h **** #define LL_EXTI_TRIGGER_NONE            ((uint8_t)0x00U) /*!< No Trigger Mode */
 223:Drivers/STM32F3xx_HAL_Driver/Inc/stm32f3xx_ll_exti.h **** #define LL_EXTI_TRIGGER_RISING          ((uint8_t)0x01U) /*!< Trigger Rising Mode */
 224:Drivers/STM32F3xx_HAL_Driver/Inc/stm32f3xx_ll_exti.h **** #define LL_EXTI_TRIGGER_FALLING         ((uint8_t)0x02U) /*!< Trigger Falling Mode */
 225:Drivers/STM32F3xx_HAL_Driver/Inc/stm32f3xx_ll_exti.h **** #define LL_EXTI_TRIGGER_RISING_FALLING  ((uint8_t)0x03U) /*!< Trigger Rising & Falling Mode */
 226:Drivers/STM32F3xx_HAL_Driver/Inc/stm32f3xx_ll_exti.h **** 
 227:Drivers/STM32F3xx_HAL_Driver/Inc/stm32f3xx_ll_exti.h **** /**
 228:Drivers/STM32F3xx_HAL_Driver/Inc/stm32f3xx_ll_exti.h ****   * @}
 229:Drivers/STM32F3xx_HAL_Driver/Inc/stm32f3xx_ll_exti.h ****   */
 230:Drivers/STM32F3xx_HAL_Driver/Inc/stm32f3xx_ll_exti.h **** 
 231:Drivers/STM32F3xx_HAL_Driver/Inc/stm32f3xx_ll_exti.h **** 
 232:Drivers/STM32F3xx_HAL_Driver/Inc/stm32f3xx_ll_exti.h **** #endif /*USE_FULL_LL_DRIVER*/
 233:Drivers/STM32F3xx_HAL_Driver/Inc/stm32f3xx_ll_exti.h **** 
 234:Drivers/STM32F3xx_HAL_Driver/Inc/stm32f3xx_ll_exti.h **** 
 235:Drivers/STM32F3xx_HAL_Driver/Inc/stm32f3xx_ll_exti.h **** /**
 236:Drivers/STM32F3xx_HAL_Driver/Inc/stm32f3xx_ll_exti.h ****   * @}
 237:Drivers/STM32F3xx_HAL_Driver/Inc/stm32f3xx_ll_exti.h ****   */
 238:Drivers/STM32F3xx_HAL_Driver/Inc/stm32f3xx_ll_exti.h **** 
 239:Drivers/STM32F3xx_HAL_Driver/Inc/stm32f3xx_ll_exti.h **** /* Exported macro ------------------------------------------------------------*/
 240:Drivers/STM32F3xx_HAL_Driver/Inc/stm32f3xx_ll_exti.h **** /** @defgroup EXTI_LL_Exported_Macros EXTI Exported Macros
 241:Drivers/STM32F3xx_HAL_Driver/Inc/stm32f3xx_ll_exti.h ****   * @{
 242:Drivers/STM32F3xx_HAL_Driver/Inc/stm32f3xx_ll_exti.h ****   */
 243:Drivers/STM32F3xx_HAL_Driver/Inc/stm32f3xx_ll_exti.h **** 
 244:Drivers/STM32F3xx_HAL_Driver/Inc/stm32f3xx_ll_exti.h **** /** @defgroup EXTI_LL_EM_WRITE_READ Common Write and read registers Macros
 245:Drivers/STM32F3xx_HAL_Driver/Inc/stm32f3xx_ll_exti.h ****   * @{
 246:Drivers/STM32F3xx_HAL_Driver/Inc/stm32f3xx_ll_exti.h ****   */
 247:Drivers/STM32F3xx_HAL_Driver/Inc/stm32f3xx_ll_exti.h **** 
 248:Drivers/STM32F3xx_HAL_Driver/Inc/stm32f3xx_ll_exti.h **** /**
 249:Drivers/STM32F3xx_HAL_Driver/Inc/stm32f3xx_ll_exti.h ****   * @brief  Write a value in EXTI register
 250:Drivers/STM32F3xx_HAL_Driver/Inc/stm32f3xx_ll_exti.h ****   * @param  __REG__ Register to be written
ARM GAS  /tmp/cc3fRK7k.s 			page 6


 251:Drivers/STM32F3xx_HAL_Driver/Inc/stm32f3xx_ll_exti.h ****   * @param  __VALUE__ Value to be written in the register
 252:Drivers/STM32F3xx_HAL_Driver/Inc/stm32f3xx_ll_exti.h ****   * @retval None
 253:Drivers/STM32F3xx_HAL_Driver/Inc/stm32f3xx_ll_exti.h ****   */
 254:Drivers/STM32F3xx_HAL_Driver/Inc/stm32f3xx_ll_exti.h **** #define LL_EXTI_WriteReg(__REG__, __VALUE__) WRITE_REG(EXTI->__REG__, (__VALUE__))
 255:Drivers/STM32F3xx_HAL_Driver/Inc/stm32f3xx_ll_exti.h **** 
 256:Drivers/STM32F3xx_HAL_Driver/Inc/stm32f3xx_ll_exti.h **** /**
 257:Drivers/STM32F3xx_HAL_Driver/Inc/stm32f3xx_ll_exti.h ****   * @brief  Read a value in EXTI register
 258:Drivers/STM32F3xx_HAL_Driver/Inc/stm32f3xx_ll_exti.h ****   * @param  __REG__ Register to be read
 259:Drivers/STM32F3xx_HAL_Driver/Inc/stm32f3xx_ll_exti.h ****   * @retval Register value
 260:Drivers/STM32F3xx_HAL_Driver/Inc/stm32f3xx_ll_exti.h ****   */
 261:Drivers/STM32F3xx_HAL_Driver/Inc/stm32f3xx_ll_exti.h **** #define LL_EXTI_ReadReg(__REG__) READ_REG(EXTI->__REG__)
 262:Drivers/STM32F3xx_HAL_Driver/Inc/stm32f3xx_ll_exti.h **** /**
 263:Drivers/STM32F3xx_HAL_Driver/Inc/stm32f3xx_ll_exti.h ****   * @}
 264:Drivers/STM32F3xx_HAL_Driver/Inc/stm32f3xx_ll_exti.h ****   */
 265:Drivers/STM32F3xx_HAL_Driver/Inc/stm32f3xx_ll_exti.h **** 
 266:Drivers/STM32F3xx_HAL_Driver/Inc/stm32f3xx_ll_exti.h **** 
 267:Drivers/STM32F3xx_HAL_Driver/Inc/stm32f3xx_ll_exti.h **** /**
 268:Drivers/STM32F3xx_HAL_Driver/Inc/stm32f3xx_ll_exti.h ****   * @}
 269:Drivers/STM32F3xx_HAL_Driver/Inc/stm32f3xx_ll_exti.h ****   */
 270:Drivers/STM32F3xx_HAL_Driver/Inc/stm32f3xx_ll_exti.h **** 
 271:Drivers/STM32F3xx_HAL_Driver/Inc/stm32f3xx_ll_exti.h **** 
 272:Drivers/STM32F3xx_HAL_Driver/Inc/stm32f3xx_ll_exti.h **** 
 273:Drivers/STM32F3xx_HAL_Driver/Inc/stm32f3xx_ll_exti.h **** /* Exported functions --------------------------------------------------------*/
 274:Drivers/STM32F3xx_HAL_Driver/Inc/stm32f3xx_ll_exti.h **** /** @defgroup EXTI_LL_Exported_Functions EXTI Exported Functions
 275:Drivers/STM32F3xx_HAL_Driver/Inc/stm32f3xx_ll_exti.h ****  * @{
 276:Drivers/STM32F3xx_HAL_Driver/Inc/stm32f3xx_ll_exti.h ****  */
 277:Drivers/STM32F3xx_HAL_Driver/Inc/stm32f3xx_ll_exti.h **** /** @defgroup EXTI_LL_EF_IT_Management IT_Management
 278:Drivers/STM32F3xx_HAL_Driver/Inc/stm32f3xx_ll_exti.h ****   * @{
 279:Drivers/STM32F3xx_HAL_Driver/Inc/stm32f3xx_ll_exti.h ****   */
 280:Drivers/STM32F3xx_HAL_Driver/Inc/stm32f3xx_ll_exti.h **** 
 281:Drivers/STM32F3xx_HAL_Driver/Inc/stm32f3xx_ll_exti.h **** /**
 282:Drivers/STM32F3xx_HAL_Driver/Inc/stm32f3xx_ll_exti.h ****   * @brief  Enable ExtiLine Interrupt request for Lines in range 0 to 31
 283:Drivers/STM32F3xx_HAL_Driver/Inc/stm32f3xx_ll_exti.h ****   * @note The reset value for the direct or internal lines (see RM)
 284:Drivers/STM32F3xx_HAL_Driver/Inc/stm32f3xx_ll_exti.h ****   *       is set to 1 in order to enable the interrupt by default.
 285:Drivers/STM32F3xx_HAL_Driver/Inc/stm32f3xx_ll_exti.h ****   *       Bits are set automatically at Power on.
 286:Drivers/STM32F3xx_HAL_Driver/Inc/stm32f3xx_ll_exti.h ****   * @rmtoll IMR         IMx           LL_EXTI_EnableIT_0_31
 287:Drivers/STM32F3xx_HAL_Driver/Inc/stm32f3xx_ll_exti.h ****   * @param  ExtiLine This parameter can be one of the following values:
 288:Drivers/STM32F3xx_HAL_Driver/Inc/stm32f3xx_ll_exti.h ****   *         @arg @ref LL_EXTI_LINE_0
 289:Drivers/STM32F3xx_HAL_Driver/Inc/stm32f3xx_ll_exti.h ****   *         @arg @ref LL_EXTI_LINE_1
 290:Drivers/STM32F3xx_HAL_Driver/Inc/stm32f3xx_ll_exti.h ****   *         @arg @ref LL_EXTI_LINE_2
 291:Drivers/STM32F3xx_HAL_Driver/Inc/stm32f3xx_ll_exti.h ****   *         @arg @ref LL_EXTI_LINE_3
 292:Drivers/STM32F3xx_HAL_Driver/Inc/stm32f3xx_ll_exti.h ****   *         @arg @ref LL_EXTI_LINE_4
 293:Drivers/STM32F3xx_HAL_Driver/Inc/stm32f3xx_ll_exti.h ****   *         @arg @ref LL_EXTI_LINE_5
 294:Drivers/STM32F3xx_HAL_Driver/Inc/stm32f3xx_ll_exti.h ****   *         @arg @ref LL_EXTI_LINE_6
 295:Drivers/STM32F3xx_HAL_Driver/Inc/stm32f3xx_ll_exti.h ****   *         @arg @ref LL_EXTI_LINE_7
 296:Drivers/STM32F3xx_HAL_Driver/Inc/stm32f3xx_ll_exti.h ****   *         @arg @ref LL_EXTI_LINE_8
 297:Drivers/STM32F3xx_HAL_Driver/Inc/stm32f3xx_ll_exti.h ****   *         @arg @ref LL_EXTI_LINE_9
 298:Drivers/STM32F3xx_HAL_Driver/Inc/stm32f3xx_ll_exti.h ****   *         @arg @ref LL_EXTI_LINE_10
 299:Drivers/STM32F3xx_HAL_Driver/Inc/stm32f3xx_ll_exti.h ****   *         @arg @ref LL_EXTI_LINE_11
 300:Drivers/STM32F3xx_HAL_Driver/Inc/stm32f3xx_ll_exti.h ****   *         @arg @ref LL_EXTI_LINE_12
 301:Drivers/STM32F3xx_HAL_Driver/Inc/stm32f3xx_ll_exti.h ****   *         @arg @ref LL_EXTI_LINE_13
 302:Drivers/STM32F3xx_HAL_Driver/Inc/stm32f3xx_ll_exti.h ****   *         @arg @ref LL_EXTI_LINE_14
 303:Drivers/STM32F3xx_HAL_Driver/Inc/stm32f3xx_ll_exti.h ****   *         @arg @ref LL_EXTI_LINE_15
 304:Drivers/STM32F3xx_HAL_Driver/Inc/stm32f3xx_ll_exti.h ****   *         @arg @ref LL_EXTI_LINE_16
 305:Drivers/STM32F3xx_HAL_Driver/Inc/stm32f3xx_ll_exti.h ****   *         @arg @ref LL_EXTI_LINE_17
 306:Drivers/STM32F3xx_HAL_Driver/Inc/stm32f3xx_ll_exti.h ****   *         @arg @ref LL_EXTI_LINE_18
 307:Drivers/STM32F3xx_HAL_Driver/Inc/stm32f3xx_ll_exti.h ****   *         @arg @ref LL_EXTI_LINE_19
ARM GAS  /tmp/cc3fRK7k.s 			page 7


 308:Drivers/STM32F3xx_HAL_Driver/Inc/stm32f3xx_ll_exti.h ****   *         @arg @ref LL_EXTI_LINE_20
 309:Drivers/STM32F3xx_HAL_Driver/Inc/stm32f3xx_ll_exti.h ****   *         @arg @ref LL_EXTI_LINE_21
 310:Drivers/STM32F3xx_HAL_Driver/Inc/stm32f3xx_ll_exti.h ****   *         @arg @ref LL_EXTI_LINE_22
 311:Drivers/STM32F3xx_HAL_Driver/Inc/stm32f3xx_ll_exti.h ****   *         @arg @ref LL_EXTI_LINE_23
 312:Drivers/STM32F3xx_HAL_Driver/Inc/stm32f3xx_ll_exti.h ****   *         @arg @ref LL_EXTI_LINE_24
 313:Drivers/STM32F3xx_HAL_Driver/Inc/stm32f3xx_ll_exti.h ****   *         @arg @ref LL_EXTI_LINE_25
 314:Drivers/STM32F3xx_HAL_Driver/Inc/stm32f3xx_ll_exti.h ****   *         @arg @ref LL_EXTI_LINE_26
 315:Drivers/STM32F3xx_HAL_Driver/Inc/stm32f3xx_ll_exti.h ****   *         @arg @ref LL_EXTI_LINE_27
 316:Drivers/STM32F3xx_HAL_Driver/Inc/stm32f3xx_ll_exti.h ****   *         @arg @ref LL_EXTI_LINE_28
 317:Drivers/STM32F3xx_HAL_Driver/Inc/stm32f3xx_ll_exti.h ****   *         @arg @ref LL_EXTI_LINE_29
 318:Drivers/STM32F3xx_HAL_Driver/Inc/stm32f3xx_ll_exti.h ****   *         @arg @ref LL_EXTI_LINE_30
 319:Drivers/STM32F3xx_HAL_Driver/Inc/stm32f3xx_ll_exti.h ****   *         @arg @ref LL_EXTI_LINE_31
 320:Drivers/STM32F3xx_HAL_Driver/Inc/stm32f3xx_ll_exti.h ****   *         @arg @ref LL_EXTI_LINE_ALL_0_31
 321:Drivers/STM32F3xx_HAL_Driver/Inc/stm32f3xx_ll_exti.h ****   * @note   Please check each device line mapping for EXTI Line availability
 322:Drivers/STM32F3xx_HAL_Driver/Inc/stm32f3xx_ll_exti.h ****   * @retval None
 323:Drivers/STM32F3xx_HAL_Driver/Inc/stm32f3xx_ll_exti.h ****   */
 324:Drivers/STM32F3xx_HAL_Driver/Inc/stm32f3xx_ll_exti.h **** __STATIC_INLINE void LL_EXTI_EnableIT_0_31(uint32_t ExtiLine)
 325:Drivers/STM32F3xx_HAL_Driver/Inc/stm32f3xx_ll_exti.h **** {
  39              		.loc 1 325 0
  40              		.cfi_startproc
  41              		@ args = 0, pretend = 0, frame = 8
  42              		@ frame_needed = 1, uses_anonymous_args = 0
  43              		@ link register save eliminated.
  44 0000 80B4     		push	{r7}
  45              	.LCFI0:
  46              		.cfi_def_cfa_offset 4
  47              		.cfi_offset 7, -4
  48 0002 83B0     		sub	sp, sp, #12
  49              	.LCFI1:
  50              		.cfi_def_cfa_offset 16
  51 0004 00AF     		add	r7, sp, #0
  52              	.LCFI2:
  53              		.cfi_def_cfa_register 7
  54 0006 7860     		str	r0, [r7, #4]
 326:Drivers/STM32F3xx_HAL_Driver/Inc/stm32f3xx_ll_exti.h ****   SET_BIT(EXTI->IMR, ExtiLine);
  55              		.loc 1 326 0
  56 0008 054B     		ldr	r3, .L2
  57 000a 1A68     		ldr	r2, [r3]
  58 000c 0449     		ldr	r1, .L2
  59 000e 7B68     		ldr	r3, [r7, #4]
  60 0010 1343     		orrs	r3, r3, r2
  61 0012 0B60     		str	r3, [r1]
 327:Drivers/STM32F3xx_HAL_Driver/Inc/stm32f3xx_ll_exti.h **** }
  62              		.loc 1 327 0
  63 0014 00BF     		nop
  64 0016 0C37     		adds	r7, r7, #12
  65              	.LCFI3:
  66              		.cfi_def_cfa_offset 4
  67 0018 BD46     		mov	sp, r7
  68              	.LCFI4:
  69              		.cfi_def_cfa_register 13
  70              		@ sp needed
  71 001a 5DF8047B 		ldr	r7, [sp], #4
  72              	.LCFI5:
  73              		.cfi_restore 7
  74              		.cfi_def_cfa_offset 0
  75 001e 7047     		bx	lr
ARM GAS  /tmp/cc3fRK7k.s 			page 8


  76              	.L3:
  77              		.align	2
  78              	.L2:
  79 0020 00040140 		.word	1073808384
  80              		.cfi_endproc
  81              	.LFE663:
  83              		.section	.text.LL_EXTI_EnableIT_32_63,"ax",%progbits
  84              		.align	1
  85              		.syntax unified
  86              		.thumb
  87              		.thumb_func
  88              		.fpu fpv4-sp-d16
  90              	LL_EXTI_EnableIT_32_63:
  91              	.LFB664:
 328:Drivers/STM32F3xx_HAL_Driver/Inc/stm32f3xx_ll_exti.h **** #if defined(EXTI_32_63_SUPPORT)
 329:Drivers/STM32F3xx_HAL_Driver/Inc/stm32f3xx_ll_exti.h **** /**
 330:Drivers/STM32F3xx_HAL_Driver/Inc/stm32f3xx_ll_exti.h ****   * @brief  Enable ExtiLine Interrupt request for Lines in range 32 to 63
 331:Drivers/STM32F3xx_HAL_Driver/Inc/stm32f3xx_ll_exti.h ****   * @note The reset value for the direct lines (lines from 32 to 34, line
 332:Drivers/STM32F3xx_HAL_Driver/Inc/stm32f3xx_ll_exti.h ****   *       39) is set to 1 in order to enable the interrupt by default.
 333:Drivers/STM32F3xx_HAL_Driver/Inc/stm32f3xx_ll_exti.h ****   *       Bits are set automatically at Power on.
 334:Drivers/STM32F3xx_HAL_Driver/Inc/stm32f3xx_ll_exti.h ****   * @rmtoll IMR2         IMx           LL_EXTI_EnableIT_32_63
 335:Drivers/STM32F3xx_HAL_Driver/Inc/stm32f3xx_ll_exti.h ****   * @param  ExtiLine This parameter can be one of the following values:
 336:Drivers/STM32F3xx_HAL_Driver/Inc/stm32f3xx_ll_exti.h ****   *         @arg @ref LL_EXTI_LINE_32
 337:Drivers/STM32F3xx_HAL_Driver/Inc/stm32f3xx_ll_exti.h ****   *         @arg @ref LL_EXTI_LINE_33
 338:Drivers/STM32F3xx_HAL_Driver/Inc/stm32f3xx_ll_exti.h ****   *         @arg @ref LL_EXTI_LINE_34
 339:Drivers/STM32F3xx_HAL_Driver/Inc/stm32f3xx_ll_exti.h ****   *         @arg @ref LL_EXTI_LINE_35
 340:Drivers/STM32F3xx_HAL_Driver/Inc/stm32f3xx_ll_exti.h ****   *         @arg @ref LL_EXTI_LINE_36
 341:Drivers/STM32F3xx_HAL_Driver/Inc/stm32f3xx_ll_exti.h ****   *         @arg @ref LL_EXTI_LINE_37
 342:Drivers/STM32F3xx_HAL_Driver/Inc/stm32f3xx_ll_exti.h ****   *         @arg @ref LL_EXTI_LINE_38
 343:Drivers/STM32F3xx_HAL_Driver/Inc/stm32f3xx_ll_exti.h ****   *         @arg @ref LL_EXTI_LINE_39
 344:Drivers/STM32F3xx_HAL_Driver/Inc/stm32f3xx_ll_exti.h ****   *         @arg @ref LL_EXTI_LINE_ALL_32_63
 345:Drivers/STM32F3xx_HAL_Driver/Inc/stm32f3xx_ll_exti.h ****   * @retval None
 346:Drivers/STM32F3xx_HAL_Driver/Inc/stm32f3xx_ll_exti.h ****   */
 347:Drivers/STM32F3xx_HAL_Driver/Inc/stm32f3xx_ll_exti.h **** __STATIC_INLINE void LL_EXTI_EnableIT_32_63(uint32_t ExtiLine)
 348:Drivers/STM32F3xx_HAL_Driver/Inc/stm32f3xx_ll_exti.h **** {
  92              		.loc 1 348 0
  93              		.cfi_startproc
  94              		@ args = 0, pretend = 0, frame = 8
  95              		@ frame_needed = 1, uses_anonymous_args = 0
  96              		@ link register save eliminated.
  97 0000 80B4     		push	{r7}
  98              	.LCFI6:
  99              		.cfi_def_cfa_offset 4
 100              		.cfi_offset 7, -4
 101 0002 83B0     		sub	sp, sp, #12
 102              	.LCFI7:
 103              		.cfi_def_cfa_offset 16
 104 0004 00AF     		add	r7, sp, #0
 105              	.LCFI8:
 106              		.cfi_def_cfa_register 7
 107 0006 7860     		str	r0, [r7, #4]
 349:Drivers/STM32F3xx_HAL_Driver/Inc/stm32f3xx_ll_exti.h ****   SET_BIT(EXTI->IMR2, ExtiLine);
 108              		.loc 1 349 0
 109 0008 054B     		ldr	r3, .L5
 110 000a 1A6A     		ldr	r2, [r3, #32]
 111 000c 0449     		ldr	r1, .L5
 112 000e 7B68     		ldr	r3, [r7, #4]
ARM GAS  /tmp/cc3fRK7k.s 			page 9


 113 0010 1343     		orrs	r3, r3, r2
 114 0012 0B62     		str	r3, [r1, #32]
 350:Drivers/STM32F3xx_HAL_Driver/Inc/stm32f3xx_ll_exti.h **** }
 115              		.loc 1 350 0
 116 0014 00BF     		nop
 117 0016 0C37     		adds	r7, r7, #12
 118              	.LCFI9:
 119              		.cfi_def_cfa_offset 4
 120 0018 BD46     		mov	sp, r7
 121              	.LCFI10:
 122              		.cfi_def_cfa_register 13
 123              		@ sp needed
 124 001a 5DF8047B 		ldr	r7, [sp], #4
 125              	.LCFI11:
 126              		.cfi_restore 7
 127              		.cfi_def_cfa_offset 0
 128 001e 7047     		bx	lr
 129              	.L6:
 130              		.align	2
 131              	.L5:
 132 0020 00040140 		.word	1073808384
 133              		.cfi_endproc
 134              	.LFE664:
 136              		.section	.text.LL_EXTI_DisableIT_0_31,"ax",%progbits
 137              		.align	1
 138              		.syntax unified
 139              		.thumb
 140              		.thumb_func
 141              		.fpu fpv4-sp-d16
 143              	LL_EXTI_DisableIT_0_31:
 144              	.LFB665:
 351:Drivers/STM32F3xx_HAL_Driver/Inc/stm32f3xx_ll_exti.h **** #endif
 352:Drivers/STM32F3xx_HAL_Driver/Inc/stm32f3xx_ll_exti.h **** 
 353:Drivers/STM32F3xx_HAL_Driver/Inc/stm32f3xx_ll_exti.h **** /**
 354:Drivers/STM32F3xx_HAL_Driver/Inc/stm32f3xx_ll_exti.h ****   * @brief  Disable ExtiLine Interrupt request for Lines in range 0 to 31
 355:Drivers/STM32F3xx_HAL_Driver/Inc/stm32f3xx_ll_exti.h ****   * @note The reset value for the direct or internal lines (see RM)
 356:Drivers/STM32F3xx_HAL_Driver/Inc/stm32f3xx_ll_exti.h ****   *       is set to 1 in order to enable the interrupt by default.
 357:Drivers/STM32F3xx_HAL_Driver/Inc/stm32f3xx_ll_exti.h ****   *       Bits are set automatically at Power on.
 358:Drivers/STM32F3xx_HAL_Driver/Inc/stm32f3xx_ll_exti.h ****   * @rmtoll IMR         IMx           LL_EXTI_DisableIT_0_31
 359:Drivers/STM32F3xx_HAL_Driver/Inc/stm32f3xx_ll_exti.h ****   * @param  ExtiLine This parameter can be one of the following values:
 360:Drivers/STM32F3xx_HAL_Driver/Inc/stm32f3xx_ll_exti.h ****   *         @arg @ref LL_EXTI_LINE_0
 361:Drivers/STM32F3xx_HAL_Driver/Inc/stm32f3xx_ll_exti.h ****   *         @arg @ref LL_EXTI_LINE_1
 362:Drivers/STM32F3xx_HAL_Driver/Inc/stm32f3xx_ll_exti.h ****   *         @arg @ref LL_EXTI_LINE_2
 363:Drivers/STM32F3xx_HAL_Driver/Inc/stm32f3xx_ll_exti.h ****   *         @arg @ref LL_EXTI_LINE_3
 364:Drivers/STM32F3xx_HAL_Driver/Inc/stm32f3xx_ll_exti.h ****   *         @arg @ref LL_EXTI_LINE_4
 365:Drivers/STM32F3xx_HAL_Driver/Inc/stm32f3xx_ll_exti.h ****   *         @arg @ref LL_EXTI_LINE_5
 366:Drivers/STM32F3xx_HAL_Driver/Inc/stm32f3xx_ll_exti.h ****   *         @arg @ref LL_EXTI_LINE_6
 367:Drivers/STM32F3xx_HAL_Driver/Inc/stm32f3xx_ll_exti.h ****   *         @arg @ref LL_EXTI_LINE_7
 368:Drivers/STM32F3xx_HAL_Driver/Inc/stm32f3xx_ll_exti.h ****   *         @arg @ref LL_EXTI_LINE_8
 369:Drivers/STM32F3xx_HAL_Driver/Inc/stm32f3xx_ll_exti.h ****   *         @arg @ref LL_EXTI_LINE_9
 370:Drivers/STM32F3xx_HAL_Driver/Inc/stm32f3xx_ll_exti.h ****   *         @arg @ref LL_EXTI_LINE_10
 371:Drivers/STM32F3xx_HAL_Driver/Inc/stm32f3xx_ll_exti.h ****   *         @arg @ref LL_EXTI_LINE_11
 372:Drivers/STM32F3xx_HAL_Driver/Inc/stm32f3xx_ll_exti.h ****   *         @arg @ref LL_EXTI_LINE_12
 373:Drivers/STM32F3xx_HAL_Driver/Inc/stm32f3xx_ll_exti.h ****   *         @arg @ref LL_EXTI_LINE_13
 374:Drivers/STM32F3xx_HAL_Driver/Inc/stm32f3xx_ll_exti.h ****   *         @arg @ref LL_EXTI_LINE_14
 375:Drivers/STM32F3xx_HAL_Driver/Inc/stm32f3xx_ll_exti.h ****   *         @arg @ref LL_EXTI_LINE_15
 376:Drivers/STM32F3xx_HAL_Driver/Inc/stm32f3xx_ll_exti.h ****   *         @arg @ref LL_EXTI_LINE_16
ARM GAS  /tmp/cc3fRK7k.s 			page 10


 377:Drivers/STM32F3xx_HAL_Driver/Inc/stm32f3xx_ll_exti.h ****   *         @arg @ref LL_EXTI_LINE_17
 378:Drivers/STM32F3xx_HAL_Driver/Inc/stm32f3xx_ll_exti.h ****   *         @arg @ref LL_EXTI_LINE_18
 379:Drivers/STM32F3xx_HAL_Driver/Inc/stm32f3xx_ll_exti.h ****   *         @arg @ref LL_EXTI_LINE_19
 380:Drivers/STM32F3xx_HAL_Driver/Inc/stm32f3xx_ll_exti.h ****   *         @arg @ref LL_EXTI_LINE_20
 381:Drivers/STM32F3xx_HAL_Driver/Inc/stm32f3xx_ll_exti.h ****   *         @arg @ref LL_EXTI_LINE_21
 382:Drivers/STM32F3xx_HAL_Driver/Inc/stm32f3xx_ll_exti.h ****   *         @arg @ref LL_EXTI_LINE_22
 383:Drivers/STM32F3xx_HAL_Driver/Inc/stm32f3xx_ll_exti.h ****   *         @arg @ref LL_EXTI_LINE_23
 384:Drivers/STM32F3xx_HAL_Driver/Inc/stm32f3xx_ll_exti.h ****   *         @arg @ref LL_EXTI_LINE_24
 385:Drivers/STM32F3xx_HAL_Driver/Inc/stm32f3xx_ll_exti.h ****   *         @arg @ref LL_EXTI_LINE_25
 386:Drivers/STM32F3xx_HAL_Driver/Inc/stm32f3xx_ll_exti.h ****   *         @arg @ref LL_EXTI_LINE_26
 387:Drivers/STM32F3xx_HAL_Driver/Inc/stm32f3xx_ll_exti.h ****   *         @arg @ref LL_EXTI_LINE_27
 388:Drivers/STM32F3xx_HAL_Driver/Inc/stm32f3xx_ll_exti.h ****   *         @arg @ref LL_EXTI_LINE_28
 389:Drivers/STM32F3xx_HAL_Driver/Inc/stm32f3xx_ll_exti.h ****   *         @arg @ref LL_EXTI_LINE_29
 390:Drivers/STM32F3xx_HAL_Driver/Inc/stm32f3xx_ll_exti.h ****   *         @arg @ref LL_EXTI_LINE_30
 391:Drivers/STM32F3xx_HAL_Driver/Inc/stm32f3xx_ll_exti.h ****   *         @arg @ref LL_EXTI_LINE_31
 392:Drivers/STM32F3xx_HAL_Driver/Inc/stm32f3xx_ll_exti.h ****   *         @arg @ref LL_EXTI_LINE_ALL_0_31
 393:Drivers/STM32F3xx_HAL_Driver/Inc/stm32f3xx_ll_exti.h ****   * @note   Please check each device line mapping for EXTI Line availability
 394:Drivers/STM32F3xx_HAL_Driver/Inc/stm32f3xx_ll_exti.h ****   * @retval None
 395:Drivers/STM32F3xx_HAL_Driver/Inc/stm32f3xx_ll_exti.h ****   */
 396:Drivers/STM32F3xx_HAL_Driver/Inc/stm32f3xx_ll_exti.h **** __STATIC_INLINE void LL_EXTI_DisableIT_0_31(uint32_t ExtiLine)
 397:Drivers/STM32F3xx_HAL_Driver/Inc/stm32f3xx_ll_exti.h **** {
 145              		.loc 1 397 0
 146              		.cfi_startproc
 147              		@ args = 0, pretend = 0, frame = 8
 148              		@ frame_needed = 1, uses_anonymous_args = 0
 149              		@ link register save eliminated.
 150 0000 80B4     		push	{r7}
 151              	.LCFI12:
 152              		.cfi_def_cfa_offset 4
 153              		.cfi_offset 7, -4
 154 0002 83B0     		sub	sp, sp, #12
 155              	.LCFI13:
 156              		.cfi_def_cfa_offset 16
 157 0004 00AF     		add	r7, sp, #0
 158              	.LCFI14:
 159              		.cfi_def_cfa_register 7
 160 0006 7860     		str	r0, [r7, #4]
 398:Drivers/STM32F3xx_HAL_Driver/Inc/stm32f3xx_ll_exti.h ****   CLEAR_BIT(EXTI->IMR, ExtiLine);
 161              		.loc 1 398 0
 162 0008 064B     		ldr	r3, .L8
 163 000a 1A68     		ldr	r2, [r3]
 164 000c 7B68     		ldr	r3, [r7, #4]
 165 000e DB43     		mvns	r3, r3
 166 0010 0449     		ldr	r1, .L8
 167 0012 1340     		ands	r3, r3, r2
 168 0014 0B60     		str	r3, [r1]
 399:Drivers/STM32F3xx_HAL_Driver/Inc/stm32f3xx_ll_exti.h **** }
 169              		.loc 1 399 0
 170 0016 00BF     		nop
 171 0018 0C37     		adds	r7, r7, #12
 172              	.LCFI15:
 173              		.cfi_def_cfa_offset 4
 174 001a BD46     		mov	sp, r7
 175              	.LCFI16:
 176              		.cfi_def_cfa_register 13
 177              		@ sp needed
 178 001c 5DF8047B 		ldr	r7, [sp], #4
ARM GAS  /tmp/cc3fRK7k.s 			page 11


 179              	.LCFI17:
 180              		.cfi_restore 7
 181              		.cfi_def_cfa_offset 0
 182 0020 7047     		bx	lr
 183              	.L9:
 184 0022 00BF     		.align	2
 185              	.L8:
 186 0024 00040140 		.word	1073808384
 187              		.cfi_endproc
 188              	.LFE665:
 190              		.section	.text.LL_EXTI_DisableIT_32_63,"ax",%progbits
 191              		.align	1
 192              		.syntax unified
 193              		.thumb
 194              		.thumb_func
 195              		.fpu fpv4-sp-d16
 197              	LL_EXTI_DisableIT_32_63:
 198              	.LFB666:
 400:Drivers/STM32F3xx_HAL_Driver/Inc/stm32f3xx_ll_exti.h **** 
 401:Drivers/STM32F3xx_HAL_Driver/Inc/stm32f3xx_ll_exti.h **** #if defined(EXTI_32_63_SUPPORT)
 402:Drivers/STM32F3xx_HAL_Driver/Inc/stm32f3xx_ll_exti.h **** /**
 403:Drivers/STM32F3xx_HAL_Driver/Inc/stm32f3xx_ll_exti.h ****   * @brief  Disable ExtiLine Interrupt request for Lines in range 32 to 63
 404:Drivers/STM32F3xx_HAL_Driver/Inc/stm32f3xx_ll_exti.h ****   * @note The reset value for the direct lines (lines from 32 to 34, line
 405:Drivers/STM32F3xx_HAL_Driver/Inc/stm32f3xx_ll_exti.h ****   *       39) is set to 1 in order to enable the interrupt by default.
 406:Drivers/STM32F3xx_HAL_Driver/Inc/stm32f3xx_ll_exti.h ****   *       Bits are set automatically at Power on.
 407:Drivers/STM32F3xx_HAL_Driver/Inc/stm32f3xx_ll_exti.h ****   * @rmtoll IMR2         IMx           LL_EXTI_DisableIT_32_63
 408:Drivers/STM32F3xx_HAL_Driver/Inc/stm32f3xx_ll_exti.h ****   * @param  ExtiLine This parameter can be one of the following values:
 409:Drivers/STM32F3xx_HAL_Driver/Inc/stm32f3xx_ll_exti.h ****   *         @arg @ref LL_EXTI_LINE_32
 410:Drivers/STM32F3xx_HAL_Driver/Inc/stm32f3xx_ll_exti.h ****   *         @arg @ref LL_EXTI_LINE_33
 411:Drivers/STM32F3xx_HAL_Driver/Inc/stm32f3xx_ll_exti.h ****   *         @arg @ref LL_EXTI_LINE_34
 412:Drivers/STM32F3xx_HAL_Driver/Inc/stm32f3xx_ll_exti.h ****   *         @arg @ref LL_EXTI_LINE_35
 413:Drivers/STM32F3xx_HAL_Driver/Inc/stm32f3xx_ll_exti.h ****   *         @arg @ref LL_EXTI_LINE_36
 414:Drivers/STM32F3xx_HAL_Driver/Inc/stm32f3xx_ll_exti.h ****   *         @arg @ref LL_EXTI_LINE_37
 415:Drivers/STM32F3xx_HAL_Driver/Inc/stm32f3xx_ll_exti.h ****   *         @arg @ref LL_EXTI_LINE_38
 416:Drivers/STM32F3xx_HAL_Driver/Inc/stm32f3xx_ll_exti.h ****   *         @arg @ref LL_EXTI_LINE_39
 417:Drivers/STM32F3xx_HAL_Driver/Inc/stm32f3xx_ll_exti.h ****   *         @arg @ref LL_EXTI_LINE_ALL_32_63
 418:Drivers/STM32F3xx_HAL_Driver/Inc/stm32f3xx_ll_exti.h ****   * @retval None
 419:Drivers/STM32F3xx_HAL_Driver/Inc/stm32f3xx_ll_exti.h ****   */
 420:Drivers/STM32F3xx_HAL_Driver/Inc/stm32f3xx_ll_exti.h **** __STATIC_INLINE void LL_EXTI_DisableIT_32_63(uint32_t ExtiLine)
 421:Drivers/STM32F3xx_HAL_Driver/Inc/stm32f3xx_ll_exti.h **** {
 199              		.loc 1 421 0
 200              		.cfi_startproc
 201              		@ args = 0, pretend = 0, frame = 8
 202              		@ frame_needed = 1, uses_anonymous_args = 0
 203              		@ link register save eliminated.
 204 0000 80B4     		push	{r7}
 205              	.LCFI18:
 206              		.cfi_def_cfa_offset 4
 207              		.cfi_offset 7, -4
 208 0002 83B0     		sub	sp, sp, #12
 209              	.LCFI19:
 210              		.cfi_def_cfa_offset 16
 211 0004 00AF     		add	r7, sp, #0
 212              	.LCFI20:
 213              		.cfi_def_cfa_register 7
 214 0006 7860     		str	r0, [r7, #4]
 422:Drivers/STM32F3xx_HAL_Driver/Inc/stm32f3xx_ll_exti.h ****   CLEAR_BIT(EXTI->IMR2, ExtiLine);
ARM GAS  /tmp/cc3fRK7k.s 			page 12


 215              		.loc 1 422 0
 216 0008 064B     		ldr	r3, .L11
 217 000a 1A6A     		ldr	r2, [r3, #32]
 218 000c 7B68     		ldr	r3, [r7, #4]
 219 000e DB43     		mvns	r3, r3
 220 0010 0449     		ldr	r1, .L11
 221 0012 1340     		ands	r3, r3, r2
 222 0014 0B62     		str	r3, [r1, #32]
 423:Drivers/STM32F3xx_HAL_Driver/Inc/stm32f3xx_ll_exti.h **** }
 223              		.loc 1 423 0
 224 0016 00BF     		nop
 225 0018 0C37     		adds	r7, r7, #12
 226              	.LCFI21:
 227              		.cfi_def_cfa_offset 4
 228 001a BD46     		mov	sp, r7
 229              	.LCFI22:
 230              		.cfi_def_cfa_register 13
 231              		@ sp needed
 232 001c 5DF8047B 		ldr	r7, [sp], #4
 233              	.LCFI23:
 234              		.cfi_restore 7
 235              		.cfi_def_cfa_offset 0
 236 0020 7047     		bx	lr
 237              	.L12:
 238 0022 00BF     		.align	2
 239              	.L11:
 240 0024 00040140 		.word	1073808384
 241              		.cfi_endproc
 242              	.LFE666:
 244              		.section	.text.LL_EXTI_EnableEvent_0_31,"ax",%progbits
 245              		.align	1
 246              		.syntax unified
 247              		.thumb
 248              		.thumb_func
 249              		.fpu fpv4-sp-d16
 251              	LL_EXTI_EnableEvent_0_31:
 252              	.LFB669:
 424:Drivers/STM32F3xx_HAL_Driver/Inc/stm32f3xx_ll_exti.h **** #endif
 425:Drivers/STM32F3xx_HAL_Driver/Inc/stm32f3xx_ll_exti.h **** 
 426:Drivers/STM32F3xx_HAL_Driver/Inc/stm32f3xx_ll_exti.h **** /**
 427:Drivers/STM32F3xx_HAL_Driver/Inc/stm32f3xx_ll_exti.h ****   * @brief  Indicate if ExtiLine Interrupt request is enabled for Lines in range 0 to 31
 428:Drivers/STM32F3xx_HAL_Driver/Inc/stm32f3xx_ll_exti.h ****   * @note The reset value for the direct or internal lines (see RM)
 429:Drivers/STM32F3xx_HAL_Driver/Inc/stm32f3xx_ll_exti.h ****   *       is set to 1 in order to enable the interrupt by default.
 430:Drivers/STM32F3xx_HAL_Driver/Inc/stm32f3xx_ll_exti.h ****   *       Bits are set automatically at Power on.
 431:Drivers/STM32F3xx_HAL_Driver/Inc/stm32f3xx_ll_exti.h ****   * @rmtoll IMR         IMx           LL_EXTI_IsEnabledIT_0_31
 432:Drivers/STM32F3xx_HAL_Driver/Inc/stm32f3xx_ll_exti.h ****   * @param  ExtiLine This parameter can be one of the following values:
 433:Drivers/STM32F3xx_HAL_Driver/Inc/stm32f3xx_ll_exti.h ****   *         @arg @ref LL_EXTI_LINE_0
 434:Drivers/STM32F3xx_HAL_Driver/Inc/stm32f3xx_ll_exti.h ****   *         @arg @ref LL_EXTI_LINE_1
 435:Drivers/STM32F3xx_HAL_Driver/Inc/stm32f3xx_ll_exti.h ****   *         @arg @ref LL_EXTI_LINE_2
 436:Drivers/STM32F3xx_HAL_Driver/Inc/stm32f3xx_ll_exti.h ****   *         @arg @ref LL_EXTI_LINE_3
 437:Drivers/STM32F3xx_HAL_Driver/Inc/stm32f3xx_ll_exti.h ****   *         @arg @ref LL_EXTI_LINE_4
 438:Drivers/STM32F3xx_HAL_Driver/Inc/stm32f3xx_ll_exti.h ****   *         @arg @ref LL_EXTI_LINE_5
 439:Drivers/STM32F3xx_HAL_Driver/Inc/stm32f3xx_ll_exti.h ****   *         @arg @ref LL_EXTI_LINE_6
 440:Drivers/STM32F3xx_HAL_Driver/Inc/stm32f3xx_ll_exti.h ****   *         @arg @ref LL_EXTI_LINE_7
 441:Drivers/STM32F3xx_HAL_Driver/Inc/stm32f3xx_ll_exti.h ****   *         @arg @ref LL_EXTI_LINE_8
 442:Drivers/STM32F3xx_HAL_Driver/Inc/stm32f3xx_ll_exti.h ****   *         @arg @ref LL_EXTI_LINE_9
 443:Drivers/STM32F3xx_HAL_Driver/Inc/stm32f3xx_ll_exti.h ****   *         @arg @ref LL_EXTI_LINE_10
ARM GAS  /tmp/cc3fRK7k.s 			page 13


 444:Drivers/STM32F3xx_HAL_Driver/Inc/stm32f3xx_ll_exti.h ****   *         @arg @ref LL_EXTI_LINE_11
 445:Drivers/STM32F3xx_HAL_Driver/Inc/stm32f3xx_ll_exti.h ****   *         @arg @ref LL_EXTI_LINE_12
 446:Drivers/STM32F3xx_HAL_Driver/Inc/stm32f3xx_ll_exti.h ****   *         @arg @ref LL_EXTI_LINE_13
 447:Drivers/STM32F3xx_HAL_Driver/Inc/stm32f3xx_ll_exti.h ****   *         @arg @ref LL_EXTI_LINE_14
 448:Drivers/STM32F3xx_HAL_Driver/Inc/stm32f3xx_ll_exti.h ****   *         @arg @ref LL_EXTI_LINE_15
 449:Drivers/STM32F3xx_HAL_Driver/Inc/stm32f3xx_ll_exti.h ****   *         @arg @ref LL_EXTI_LINE_16
 450:Drivers/STM32F3xx_HAL_Driver/Inc/stm32f3xx_ll_exti.h ****   *         @arg @ref LL_EXTI_LINE_17
 451:Drivers/STM32F3xx_HAL_Driver/Inc/stm32f3xx_ll_exti.h ****   *         @arg @ref LL_EXTI_LINE_18
 452:Drivers/STM32F3xx_HAL_Driver/Inc/stm32f3xx_ll_exti.h ****   *         @arg @ref LL_EXTI_LINE_19
 453:Drivers/STM32F3xx_HAL_Driver/Inc/stm32f3xx_ll_exti.h ****   *         @arg @ref LL_EXTI_LINE_20
 454:Drivers/STM32F3xx_HAL_Driver/Inc/stm32f3xx_ll_exti.h ****   *         @arg @ref LL_EXTI_LINE_21
 455:Drivers/STM32F3xx_HAL_Driver/Inc/stm32f3xx_ll_exti.h ****   *         @arg @ref LL_EXTI_LINE_22
 456:Drivers/STM32F3xx_HAL_Driver/Inc/stm32f3xx_ll_exti.h ****   *         @arg @ref LL_EXTI_LINE_23
 457:Drivers/STM32F3xx_HAL_Driver/Inc/stm32f3xx_ll_exti.h ****   *         @arg @ref LL_EXTI_LINE_24
 458:Drivers/STM32F3xx_HAL_Driver/Inc/stm32f3xx_ll_exti.h ****   *         @arg @ref LL_EXTI_LINE_25
 459:Drivers/STM32F3xx_HAL_Driver/Inc/stm32f3xx_ll_exti.h ****   *         @arg @ref LL_EXTI_LINE_26
 460:Drivers/STM32F3xx_HAL_Driver/Inc/stm32f3xx_ll_exti.h ****   *         @arg @ref LL_EXTI_LINE_27
 461:Drivers/STM32F3xx_HAL_Driver/Inc/stm32f3xx_ll_exti.h ****   *         @arg @ref LL_EXTI_LINE_28
 462:Drivers/STM32F3xx_HAL_Driver/Inc/stm32f3xx_ll_exti.h ****   *         @arg @ref LL_EXTI_LINE_29
 463:Drivers/STM32F3xx_HAL_Driver/Inc/stm32f3xx_ll_exti.h ****   *         @arg @ref LL_EXTI_LINE_30
 464:Drivers/STM32F3xx_HAL_Driver/Inc/stm32f3xx_ll_exti.h ****   *         @arg @ref LL_EXTI_LINE_31
 465:Drivers/STM32F3xx_HAL_Driver/Inc/stm32f3xx_ll_exti.h ****   *         @arg @ref LL_EXTI_LINE_ALL_0_31
 466:Drivers/STM32F3xx_HAL_Driver/Inc/stm32f3xx_ll_exti.h ****   * @note   Please check each device line mapping for EXTI Line availability
 467:Drivers/STM32F3xx_HAL_Driver/Inc/stm32f3xx_ll_exti.h ****   * @retval State of bit (1 or 0).
 468:Drivers/STM32F3xx_HAL_Driver/Inc/stm32f3xx_ll_exti.h ****   */
 469:Drivers/STM32F3xx_HAL_Driver/Inc/stm32f3xx_ll_exti.h **** __STATIC_INLINE uint32_t LL_EXTI_IsEnabledIT_0_31(uint32_t ExtiLine)
 470:Drivers/STM32F3xx_HAL_Driver/Inc/stm32f3xx_ll_exti.h **** {
 471:Drivers/STM32F3xx_HAL_Driver/Inc/stm32f3xx_ll_exti.h ****   return (READ_BIT(EXTI->IMR, ExtiLine) == (ExtiLine));
 472:Drivers/STM32F3xx_HAL_Driver/Inc/stm32f3xx_ll_exti.h **** }
 473:Drivers/STM32F3xx_HAL_Driver/Inc/stm32f3xx_ll_exti.h **** 
 474:Drivers/STM32F3xx_HAL_Driver/Inc/stm32f3xx_ll_exti.h **** #if defined(EXTI_32_63_SUPPORT)
 475:Drivers/STM32F3xx_HAL_Driver/Inc/stm32f3xx_ll_exti.h **** /**
 476:Drivers/STM32F3xx_HAL_Driver/Inc/stm32f3xx_ll_exti.h ****   * @brief  Indicate if ExtiLine Interrupt request is enabled for Lines in range 32 to 63
 477:Drivers/STM32F3xx_HAL_Driver/Inc/stm32f3xx_ll_exti.h ****   * @note The reset value for the direct lines (lines from 32 to 34, line
 478:Drivers/STM32F3xx_HAL_Driver/Inc/stm32f3xx_ll_exti.h ****   *       39) is set to 1 in order to enable the interrupt by default.
 479:Drivers/STM32F3xx_HAL_Driver/Inc/stm32f3xx_ll_exti.h ****   *       Bits are set automatically at Power on.
 480:Drivers/STM32F3xx_HAL_Driver/Inc/stm32f3xx_ll_exti.h ****   * @rmtoll IMR2         IMx           LL_EXTI_IsEnabledIT_32_63
 481:Drivers/STM32F3xx_HAL_Driver/Inc/stm32f3xx_ll_exti.h ****   * @param  ExtiLine This parameter can be one of the following values:
 482:Drivers/STM32F3xx_HAL_Driver/Inc/stm32f3xx_ll_exti.h ****   *         @arg @ref LL_EXTI_LINE_32
 483:Drivers/STM32F3xx_HAL_Driver/Inc/stm32f3xx_ll_exti.h ****   *         @arg @ref LL_EXTI_LINE_33
 484:Drivers/STM32F3xx_HAL_Driver/Inc/stm32f3xx_ll_exti.h ****   *         @arg @ref LL_EXTI_LINE_34
 485:Drivers/STM32F3xx_HAL_Driver/Inc/stm32f3xx_ll_exti.h ****   *         @arg @ref LL_EXTI_LINE_35
 486:Drivers/STM32F3xx_HAL_Driver/Inc/stm32f3xx_ll_exti.h ****   *         @arg @ref LL_EXTI_LINE_36
 487:Drivers/STM32F3xx_HAL_Driver/Inc/stm32f3xx_ll_exti.h ****   *         @arg @ref LL_EXTI_LINE_37
 488:Drivers/STM32F3xx_HAL_Driver/Inc/stm32f3xx_ll_exti.h ****   *         @arg @ref LL_EXTI_LINE_38
 489:Drivers/STM32F3xx_HAL_Driver/Inc/stm32f3xx_ll_exti.h ****   *         @arg @ref LL_EXTI_LINE_39
 490:Drivers/STM32F3xx_HAL_Driver/Inc/stm32f3xx_ll_exti.h ****   *         @arg @ref LL_EXTI_LINE_ALL_32_63
 491:Drivers/STM32F3xx_HAL_Driver/Inc/stm32f3xx_ll_exti.h ****   * @retval State of bit (1 or 0).
 492:Drivers/STM32F3xx_HAL_Driver/Inc/stm32f3xx_ll_exti.h ****   */
 493:Drivers/STM32F3xx_HAL_Driver/Inc/stm32f3xx_ll_exti.h **** __STATIC_INLINE uint32_t LL_EXTI_IsEnabledIT_32_63(uint32_t ExtiLine)
 494:Drivers/STM32F3xx_HAL_Driver/Inc/stm32f3xx_ll_exti.h **** {
 495:Drivers/STM32F3xx_HAL_Driver/Inc/stm32f3xx_ll_exti.h ****   return (READ_BIT(EXTI->IMR2, ExtiLine) == (ExtiLine));
 496:Drivers/STM32F3xx_HAL_Driver/Inc/stm32f3xx_ll_exti.h **** }
 497:Drivers/STM32F3xx_HAL_Driver/Inc/stm32f3xx_ll_exti.h **** #endif
 498:Drivers/STM32F3xx_HAL_Driver/Inc/stm32f3xx_ll_exti.h **** 
 499:Drivers/STM32F3xx_HAL_Driver/Inc/stm32f3xx_ll_exti.h **** /**
 500:Drivers/STM32F3xx_HAL_Driver/Inc/stm32f3xx_ll_exti.h ****   * @}
ARM GAS  /tmp/cc3fRK7k.s 			page 14


 501:Drivers/STM32F3xx_HAL_Driver/Inc/stm32f3xx_ll_exti.h ****   */
 502:Drivers/STM32F3xx_HAL_Driver/Inc/stm32f3xx_ll_exti.h **** 
 503:Drivers/STM32F3xx_HAL_Driver/Inc/stm32f3xx_ll_exti.h **** /** @defgroup EXTI_LL_EF_Event_Management Event_Management
 504:Drivers/STM32F3xx_HAL_Driver/Inc/stm32f3xx_ll_exti.h ****   * @{
 505:Drivers/STM32F3xx_HAL_Driver/Inc/stm32f3xx_ll_exti.h ****   */
 506:Drivers/STM32F3xx_HAL_Driver/Inc/stm32f3xx_ll_exti.h **** 
 507:Drivers/STM32F3xx_HAL_Driver/Inc/stm32f3xx_ll_exti.h **** /**
 508:Drivers/STM32F3xx_HAL_Driver/Inc/stm32f3xx_ll_exti.h ****   * @brief  Enable ExtiLine Event request for Lines in range 0 to 31
 509:Drivers/STM32F3xx_HAL_Driver/Inc/stm32f3xx_ll_exti.h ****   * @rmtoll EMR         EMx           LL_EXTI_EnableEvent_0_31
 510:Drivers/STM32F3xx_HAL_Driver/Inc/stm32f3xx_ll_exti.h ****   * @param  ExtiLine This parameter can be one of the following values:
 511:Drivers/STM32F3xx_HAL_Driver/Inc/stm32f3xx_ll_exti.h ****   *         @arg @ref LL_EXTI_LINE_0
 512:Drivers/STM32F3xx_HAL_Driver/Inc/stm32f3xx_ll_exti.h ****   *         @arg @ref LL_EXTI_LINE_1
 513:Drivers/STM32F3xx_HAL_Driver/Inc/stm32f3xx_ll_exti.h ****   *         @arg @ref LL_EXTI_LINE_2
 514:Drivers/STM32F3xx_HAL_Driver/Inc/stm32f3xx_ll_exti.h ****   *         @arg @ref LL_EXTI_LINE_3
 515:Drivers/STM32F3xx_HAL_Driver/Inc/stm32f3xx_ll_exti.h ****   *         @arg @ref LL_EXTI_LINE_4
 516:Drivers/STM32F3xx_HAL_Driver/Inc/stm32f3xx_ll_exti.h ****   *         @arg @ref LL_EXTI_LINE_5
 517:Drivers/STM32F3xx_HAL_Driver/Inc/stm32f3xx_ll_exti.h ****   *         @arg @ref LL_EXTI_LINE_6
 518:Drivers/STM32F3xx_HAL_Driver/Inc/stm32f3xx_ll_exti.h ****   *         @arg @ref LL_EXTI_LINE_7
 519:Drivers/STM32F3xx_HAL_Driver/Inc/stm32f3xx_ll_exti.h ****   *         @arg @ref LL_EXTI_LINE_8
 520:Drivers/STM32F3xx_HAL_Driver/Inc/stm32f3xx_ll_exti.h ****   *         @arg @ref LL_EXTI_LINE_9
 521:Drivers/STM32F3xx_HAL_Driver/Inc/stm32f3xx_ll_exti.h ****   *         @arg @ref LL_EXTI_LINE_10
 522:Drivers/STM32F3xx_HAL_Driver/Inc/stm32f3xx_ll_exti.h ****   *         @arg @ref LL_EXTI_LINE_11
 523:Drivers/STM32F3xx_HAL_Driver/Inc/stm32f3xx_ll_exti.h ****   *         @arg @ref LL_EXTI_LINE_12
 524:Drivers/STM32F3xx_HAL_Driver/Inc/stm32f3xx_ll_exti.h ****   *         @arg @ref LL_EXTI_LINE_13
 525:Drivers/STM32F3xx_HAL_Driver/Inc/stm32f3xx_ll_exti.h ****   *         @arg @ref LL_EXTI_LINE_14
 526:Drivers/STM32F3xx_HAL_Driver/Inc/stm32f3xx_ll_exti.h ****   *         @arg @ref LL_EXTI_LINE_15
 527:Drivers/STM32F3xx_HAL_Driver/Inc/stm32f3xx_ll_exti.h ****   *         @arg @ref LL_EXTI_LINE_16
 528:Drivers/STM32F3xx_HAL_Driver/Inc/stm32f3xx_ll_exti.h ****   *         @arg @ref LL_EXTI_LINE_17
 529:Drivers/STM32F3xx_HAL_Driver/Inc/stm32f3xx_ll_exti.h ****   *         @arg @ref LL_EXTI_LINE_18
 530:Drivers/STM32F3xx_HAL_Driver/Inc/stm32f3xx_ll_exti.h ****   *         @arg @ref LL_EXTI_LINE_19
 531:Drivers/STM32F3xx_HAL_Driver/Inc/stm32f3xx_ll_exti.h ****   *         @arg @ref LL_EXTI_LINE_20
 532:Drivers/STM32F3xx_HAL_Driver/Inc/stm32f3xx_ll_exti.h ****   *         @arg @ref LL_EXTI_LINE_21
 533:Drivers/STM32F3xx_HAL_Driver/Inc/stm32f3xx_ll_exti.h ****   *         @arg @ref LL_EXTI_LINE_22
 534:Drivers/STM32F3xx_HAL_Driver/Inc/stm32f3xx_ll_exti.h ****   *         @arg @ref LL_EXTI_LINE_23
 535:Drivers/STM32F3xx_HAL_Driver/Inc/stm32f3xx_ll_exti.h ****   *         @arg @ref LL_EXTI_LINE_24
 536:Drivers/STM32F3xx_HAL_Driver/Inc/stm32f3xx_ll_exti.h ****   *         @arg @ref LL_EXTI_LINE_25
 537:Drivers/STM32F3xx_HAL_Driver/Inc/stm32f3xx_ll_exti.h ****   *         @arg @ref LL_EXTI_LINE_26
 538:Drivers/STM32F3xx_HAL_Driver/Inc/stm32f3xx_ll_exti.h ****   *         @arg @ref LL_EXTI_LINE_27
 539:Drivers/STM32F3xx_HAL_Driver/Inc/stm32f3xx_ll_exti.h ****   *         @arg @ref LL_EXTI_LINE_28
 540:Drivers/STM32F3xx_HAL_Driver/Inc/stm32f3xx_ll_exti.h ****   *         @arg @ref LL_EXTI_LINE_29
 541:Drivers/STM32F3xx_HAL_Driver/Inc/stm32f3xx_ll_exti.h ****   *         @arg @ref LL_EXTI_LINE_30
 542:Drivers/STM32F3xx_HAL_Driver/Inc/stm32f3xx_ll_exti.h ****   *         @arg @ref LL_EXTI_LINE_31
 543:Drivers/STM32F3xx_HAL_Driver/Inc/stm32f3xx_ll_exti.h ****   *         @arg @ref LL_EXTI_LINE_ALL_0_31
 544:Drivers/STM32F3xx_HAL_Driver/Inc/stm32f3xx_ll_exti.h ****   * @note   Please check each device line mapping for EXTI Line availability
 545:Drivers/STM32F3xx_HAL_Driver/Inc/stm32f3xx_ll_exti.h ****   * @retval None
 546:Drivers/STM32F3xx_HAL_Driver/Inc/stm32f3xx_ll_exti.h ****   */
 547:Drivers/STM32F3xx_HAL_Driver/Inc/stm32f3xx_ll_exti.h **** __STATIC_INLINE void LL_EXTI_EnableEvent_0_31(uint32_t ExtiLine)
 548:Drivers/STM32F3xx_HAL_Driver/Inc/stm32f3xx_ll_exti.h **** {
 253              		.loc 1 548 0
 254              		.cfi_startproc
 255              		@ args = 0, pretend = 0, frame = 8
 256              		@ frame_needed = 1, uses_anonymous_args = 0
 257              		@ link register save eliminated.
 258 0000 80B4     		push	{r7}
 259              	.LCFI24:
 260              		.cfi_def_cfa_offset 4
 261              		.cfi_offset 7, -4
ARM GAS  /tmp/cc3fRK7k.s 			page 15


 262 0002 83B0     		sub	sp, sp, #12
 263              	.LCFI25:
 264              		.cfi_def_cfa_offset 16
 265 0004 00AF     		add	r7, sp, #0
 266              	.LCFI26:
 267              		.cfi_def_cfa_register 7
 268 0006 7860     		str	r0, [r7, #4]
 549:Drivers/STM32F3xx_HAL_Driver/Inc/stm32f3xx_ll_exti.h ****   SET_BIT(EXTI->EMR, ExtiLine);
 269              		.loc 1 549 0
 270 0008 054B     		ldr	r3, .L14
 271 000a 5A68     		ldr	r2, [r3, #4]
 272 000c 0449     		ldr	r1, .L14
 273 000e 7B68     		ldr	r3, [r7, #4]
 274 0010 1343     		orrs	r3, r3, r2
 275 0012 4B60     		str	r3, [r1, #4]
 550:Drivers/STM32F3xx_HAL_Driver/Inc/stm32f3xx_ll_exti.h **** 
 551:Drivers/STM32F3xx_HAL_Driver/Inc/stm32f3xx_ll_exti.h **** }
 276              		.loc 1 551 0
 277 0014 00BF     		nop
 278 0016 0C37     		adds	r7, r7, #12
 279              	.LCFI27:
 280              		.cfi_def_cfa_offset 4
 281 0018 BD46     		mov	sp, r7
 282              	.LCFI28:
 283              		.cfi_def_cfa_register 13
 284              		@ sp needed
 285 001a 5DF8047B 		ldr	r7, [sp], #4
 286              	.LCFI29:
 287              		.cfi_restore 7
 288              		.cfi_def_cfa_offset 0
 289 001e 7047     		bx	lr
 290              	.L15:
 291              		.align	2
 292              	.L14:
 293 0020 00040140 		.word	1073808384
 294              		.cfi_endproc
 295              	.LFE669:
 297              		.section	.text.LL_EXTI_EnableEvent_32_63,"ax",%progbits
 298              		.align	1
 299              		.syntax unified
 300              		.thumb
 301              		.thumb_func
 302              		.fpu fpv4-sp-d16
 304              	LL_EXTI_EnableEvent_32_63:
 305              	.LFB670:
 552:Drivers/STM32F3xx_HAL_Driver/Inc/stm32f3xx_ll_exti.h **** 
 553:Drivers/STM32F3xx_HAL_Driver/Inc/stm32f3xx_ll_exti.h **** #if defined(EXTI_32_63_SUPPORT)
 554:Drivers/STM32F3xx_HAL_Driver/Inc/stm32f3xx_ll_exti.h **** /**
 555:Drivers/STM32F3xx_HAL_Driver/Inc/stm32f3xx_ll_exti.h ****   * @brief  Enable ExtiLine Event request for Lines in range 32 to 63
 556:Drivers/STM32F3xx_HAL_Driver/Inc/stm32f3xx_ll_exti.h ****   * @rmtoll EMR2         EMx           LL_EXTI_EnableEvent_32_63
 557:Drivers/STM32F3xx_HAL_Driver/Inc/stm32f3xx_ll_exti.h ****   * @param  ExtiLine This parameter can be a combination of the following values:
 558:Drivers/STM32F3xx_HAL_Driver/Inc/stm32f3xx_ll_exti.h ****   *         @arg @ref LL_EXTI_LINE_32
 559:Drivers/STM32F3xx_HAL_Driver/Inc/stm32f3xx_ll_exti.h ****   *         @arg @ref LL_EXTI_LINE_33
 560:Drivers/STM32F3xx_HAL_Driver/Inc/stm32f3xx_ll_exti.h ****   *         @arg @ref LL_EXTI_LINE_34
 561:Drivers/STM32F3xx_HAL_Driver/Inc/stm32f3xx_ll_exti.h ****   *         @arg @ref LL_EXTI_LINE_35
 562:Drivers/STM32F3xx_HAL_Driver/Inc/stm32f3xx_ll_exti.h ****   *         @arg @ref LL_EXTI_LINE_36
 563:Drivers/STM32F3xx_HAL_Driver/Inc/stm32f3xx_ll_exti.h ****   *         @arg @ref LL_EXTI_LINE_37
ARM GAS  /tmp/cc3fRK7k.s 			page 16


 564:Drivers/STM32F3xx_HAL_Driver/Inc/stm32f3xx_ll_exti.h ****   *         @arg @ref LL_EXTI_LINE_38
 565:Drivers/STM32F3xx_HAL_Driver/Inc/stm32f3xx_ll_exti.h ****   *         @arg @ref LL_EXTI_LINE_39
 566:Drivers/STM32F3xx_HAL_Driver/Inc/stm32f3xx_ll_exti.h ****   *         @arg @ref LL_EXTI_LINE_ALL_32_63
 567:Drivers/STM32F3xx_HAL_Driver/Inc/stm32f3xx_ll_exti.h ****   * @retval None
 568:Drivers/STM32F3xx_HAL_Driver/Inc/stm32f3xx_ll_exti.h ****   */
 569:Drivers/STM32F3xx_HAL_Driver/Inc/stm32f3xx_ll_exti.h **** __STATIC_INLINE void LL_EXTI_EnableEvent_32_63(uint32_t ExtiLine)
 570:Drivers/STM32F3xx_HAL_Driver/Inc/stm32f3xx_ll_exti.h **** {
 306              		.loc 1 570 0
 307              		.cfi_startproc
 308              		@ args = 0, pretend = 0, frame = 8
 309              		@ frame_needed = 1, uses_anonymous_args = 0
 310              		@ link register save eliminated.
 311 0000 80B4     		push	{r7}
 312              	.LCFI30:
 313              		.cfi_def_cfa_offset 4
 314              		.cfi_offset 7, -4
 315 0002 83B0     		sub	sp, sp, #12
 316              	.LCFI31:
 317              		.cfi_def_cfa_offset 16
 318 0004 00AF     		add	r7, sp, #0
 319              	.LCFI32:
 320              		.cfi_def_cfa_register 7
 321 0006 7860     		str	r0, [r7, #4]
 571:Drivers/STM32F3xx_HAL_Driver/Inc/stm32f3xx_ll_exti.h ****   SET_BIT(EXTI->EMR2, ExtiLine);
 322              		.loc 1 571 0
 323 0008 054B     		ldr	r3, .L17
 324 000a 5A6A     		ldr	r2, [r3, #36]
 325 000c 0449     		ldr	r1, .L17
 326 000e 7B68     		ldr	r3, [r7, #4]
 327 0010 1343     		orrs	r3, r3, r2
 328 0012 4B62     		str	r3, [r1, #36]
 572:Drivers/STM32F3xx_HAL_Driver/Inc/stm32f3xx_ll_exti.h **** }
 329              		.loc 1 572 0
 330 0014 00BF     		nop
 331 0016 0C37     		adds	r7, r7, #12
 332              	.LCFI33:
 333              		.cfi_def_cfa_offset 4
 334 0018 BD46     		mov	sp, r7
 335              	.LCFI34:
 336              		.cfi_def_cfa_register 13
 337              		@ sp needed
 338 001a 5DF8047B 		ldr	r7, [sp], #4
 339              	.LCFI35:
 340              		.cfi_restore 7
 341              		.cfi_def_cfa_offset 0
 342 001e 7047     		bx	lr
 343              	.L18:
 344              		.align	2
 345              	.L17:
 346 0020 00040140 		.word	1073808384
 347              		.cfi_endproc
 348              	.LFE670:
 350              		.section	.text.LL_EXTI_DisableEvent_0_31,"ax",%progbits
 351              		.align	1
 352              		.syntax unified
 353              		.thumb
 354              		.thumb_func
ARM GAS  /tmp/cc3fRK7k.s 			page 17


 355              		.fpu fpv4-sp-d16
 357              	LL_EXTI_DisableEvent_0_31:
 358              	.LFB671:
 573:Drivers/STM32F3xx_HAL_Driver/Inc/stm32f3xx_ll_exti.h **** #endif
 574:Drivers/STM32F3xx_HAL_Driver/Inc/stm32f3xx_ll_exti.h **** 
 575:Drivers/STM32F3xx_HAL_Driver/Inc/stm32f3xx_ll_exti.h **** /**
 576:Drivers/STM32F3xx_HAL_Driver/Inc/stm32f3xx_ll_exti.h ****   * @brief  Disable ExtiLine Event request for Lines in range 0 to 31
 577:Drivers/STM32F3xx_HAL_Driver/Inc/stm32f3xx_ll_exti.h ****   * @rmtoll EMR         EMx           LL_EXTI_DisableEvent_0_31
 578:Drivers/STM32F3xx_HAL_Driver/Inc/stm32f3xx_ll_exti.h ****   * @param  ExtiLine This parameter can be one of the following values:
 579:Drivers/STM32F3xx_HAL_Driver/Inc/stm32f3xx_ll_exti.h ****   *         @arg @ref LL_EXTI_LINE_0
 580:Drivers/STM32F3xx_HAL_Driver/Inc/stm32f3xx_ll_exti.h ****   *         @arg @ref LL_EXTI_LINE_1
 581:Drivers/STM32F3xx_HAL_Driver/Inc/stm32f3xx_ll_exti.h ****   *         @arg @ref LL_EXTI_LINE_2
 582:Drivers/STM32F3xx_HAL_Driver/Inc/stm32f3xx_ll_exti.h ****   *         @arg @ref LL_EXTI_LINE_3
 583:Drivers/STM32F3xx_HAL_Driver/Inc/stm32f3xx_ll_exti.h ****   *         @arg @ref LL_EXTI_LINE_4
 584:Drivers/STM32F3xx_HAL_Driver/Inc/stm32f3xx_ll_exti.h ****   *         @arg @ref LL_EXTI_LINE_5
 585:Drivers/STM32F3xx_HAL_Driver/Inc/stm32f3xx_ll_exti.h ****   *         @arg @ref LL_EXTI_LINE_6
 586:Drivers/STM32F3xx_HAL_Driver/Inc/stm32f3xx_ll_exti.h ****   *         @arg @ref LL_EXTI_LINE_7
 587:Drivers/STM32F3xx_HAL_Driver/Inc/stm32f3xx_ll_exti.h ****   *         @arg @ref LL_EXTI_LINE_8
 588:Drivers/STM32F3xx_HAL_Driver/Inc/stm32f3xx_ll_exti.h ****   *         @arg @ref LL_EXTI_LINE_9
 589:Drivers/STM32F3xx_HAL_Driver/Inc/stm32f3xx_ll_exti.h ****   *         @arg @ref LL_EXTI_LINE_10
 590:Drivers/STM32F3xx_HAL_Driver/Inc/stm32f3xx_ll_exti.h ****   *         @arg @ref LL_EXTI_LINE_11
 591:Drivers/STM32F3xx_HAL_Driver/Inc/stm32f3xx_ll_exti.h ****   *         @arg @ref LL_EXTI_LINE_12
 592:Drivers/STM32F3xx_HAL_Driver/Inc/stm32f3xx_ll_exti.h ****   *         @arg @ref LL_EXTI_LINE_13
 593:Drivers/STM32F3xx_HAL_Driver/Inc/stm32f3xx_ll_exti.h ****   *         @arg @ref LL_EXTI_LINE_14
 594:Drivers/STM32F3xx_HAL_Driver/Inc/stm32f3xx_ll_exti.h ****   *         @arg @ref LL_EXTI_LINE_15
 595:Drivers/STM32F3xx_HAL_Driver/Inc/stm32f3xx_ll_exti.h ****   *         @arg @ref LL_EXTI_LINE_16
 596:Drivers/STM32F3xx_HAL_Driver/Inc/stm32f3xx_ll_exti.h ****   *         @arg @ref LL_EXTI_LINE_17
 597:Drivers/STM32F3xx_HAL_Driver/Inc/stm32f3xx_ll_exti.h ****   *         @arg @ref LL_EXTI_LINE_18
 598:Drivers/STM32F3xx_HAL_Driver/Inc/stm32f3xx_ll_exti.h ****   *         @arg @ref LL_EXTI_LINE_19
 599:Drivers/STM32F3xx_HAL_Driver/Inc/stm32f3xx_ll_exti.h ****   *         @arg @ref LL_EXTI_LINE_20
 600:Drivers/STM32F3xx_HAL_Driver/Inc/stm32f3xx_ll_exti.h ****   *         @arg @ref LL_EXTI_LINE_21
 601:Drivers/STM32F3xx_HAL_Driver/Inc/stm32f3xx_ll_exti.h ****   *         @arg @ref LL_EXTI_LINE_22
 602:Drivers/STM32F3xx_HAL_Driver/Inc/stm32f3xx_ll_exti.h ****   *         @arg @ref LL_EXTI_LINE_23
 603:Drivers/STM32F3xx_HAL_Driver/Inc/stm32f3xx_ll_exti.h ****   *         @arg @ref LL_EXTI_LINE_24
 604:Drivers/STM32F3xx_HAL_Driver/Inc/stm32f3xx_ll_exti.h ****   *         @arg @ref LL_EXTI_LINE_25
 605:Drivers/STM32F3xx_HAL_Driver/Inc/stm32f3xx_ll_exti.h ****   *         @arg @ref LL_EXTI_LINE_26
 606:Drivers/STM32F3xx_HAL_Driver/Inc/stm32f3xx_ll_exti.h ****   *         @arg @ref LL_EXTI_LINE_27
 607:Drivers/STM32F3xx_HAL_Driver/Inc/stm32f3xx_ll_exti.h ****   *         @arg @ref LL_EXTI_LINE_28
 608:Drivers/STM32F3xx_HAL_Driver/Inc/stm32f3xx_ll_exti.h ****   *         @arg @ref LL_EXTI_LINE_29
 609:Drivers/STM32F3xx_HAL_Driver/Inc/stm32f3xx_ll_exti.h ****   *         @arg @ref LL_EXTI_LINE_30
 610:Drivers/STM32F3xx_HAL_Driver/Inc/stm32f3xx_ll_exti.h ****   *         @arg @ref LL_EXTI_LINE_31
 611:Drivers/STM32F3xx_HAL_Driver/Inc/stm32f3xx_ll_exti.h ****   *         @arg @ref LL_EXTI_LINE_ALL_0_31
 612:Drivers/STM32F3xx_HAL_Driver/Inc/stm32f3xx_ll_exti.h ****   * @note   Please check each device line mapping for EXTI Line availability
 613:Drivers/STM32F3xx_HAL_Driver/Inc/stm32f3xx_ll_exti.h ****   * @retval None
 614:Drivers/STM32F3xx_HAL_Driver/Inc/stm32f3xx_ll_exti.h ****   */
 615:Drivers/STM32F3xx_HAL_Driver/Inc/stm32f3xx_ll_exti.h **** __STATIC_INLINE void LL_EXTI_DisableEvent_0_31(uint32_t ExtiLine)
 616:Drivers/STM32F3xx_HAL_Driver/Inc/stm32f3xx_ll_exti.h **** {
 359              		.loc 1 616 0
 360              		.cfi_startproc
 361              		@ args = 0, pretend = 0, frame = 8
 362              		@ frame_needed = 1, uses_anonymous_args = 0
 363              		@ link register save eliminated.
 364 0000 80B4     		push	{r7}
 365              	.LCFI36:
 366              		.cfi_def_cfa_offset 4
 367              		.cfi_offset 7, -4
 368 0002 83B0     		sub	sp, sp, #12
ARM GAS  /tmp/cc3fRK7k.s 			page 18


 369              	.LCFI37:
 370              		.cfi_def_cfa_offset 16
 371 0004 00AF     		add	r7, sp, #0
 372              	.LCFI38:
 373              		.cfi_def_cfa_register 7
 374 0006 7860     		str	r0, [r7, #4]
 617:Drivers/STM32F3xx_HAL_Driver/Inc/stm32f3xx_ll_exti.h ****   CLEAR_BIT(EXTI->EMR, ExtiLine);
 375              		.loc 1 617 0
 376 0008 064B     		ldr	r3, .L20
 377 000a 5A68     		ldr	r2, [r3, #4]
 378 000c 7B68     		ldr	r3, [r7, #4]
 379 000e DB43     		mvns	r3, r3
 380 0010 0449     		ldr	r1, .L20
 381 0012 1340     		ands	r3, r3, r2
 382 0014 4B60     		str	r3, [r1, #4]
 618:Drivers/STM32F3xx_HAL_Driver/Inc/stm32f3xx_ll_exti.h **** }
 383              		.loc 1 618 0
 384 0016 00BF     		nop
 385 0018 0C37     		adds	r7, r7, #12
 386              	.LCFI39:
 387              		.cfi_def_cfa_offset 4
 388 001a BD46     		mov	sp, r7
 389              	.LCFI40:
 390              		.cfi_def_cfa_register 13
 391              		@ sp needed
 392 001c 5DF8047B 		ldr	r7, [sp], #4
 393              	.LCFI41:
 394              		.cfi_restore 7
 395              		.cfi_def_cfa_offset 0
 396 0020 7047     		bx	lr
 397              	.L21:
 398 0022 00BF     		.align	2
 399              	.L20:
 400 0024 00040140 		.word	1073808384
 401              		.cfi_endproc
 402              	.LFE671:
 404              		.section	.text.LL_EXTI_DisableEvent_32_63,"ax",%progbits
 405              		.align	1
 406              		.syntax unified
 407              		.thumb
 408              		.thumb_func
 409              		.fpu fpv4-sp-d16
 411              	LL_EXTI_DisableEvent_32_63:
 412              	.LFB672:
 619:Drivers/STM32F3xx_HAL_Driver/Inc/stm32f3xx_ll_exti.h **** 
 620:Drivers/STM32F3xx_HAL_Driver/Inc/stm32f3xx_ll_exti.h **** #if defined(EXTI_32_63_SUPPORT)
 621:Drivers/STM32F3xx_HAL_Driver/Inc/stm32f3xx_ll_exti.h **** /**
 622:Drivers/STM32F3xx_HAL_Driver/Inc/stm32f3xx_ll_exti.h ****   * @brief  Disable ExtiLine Event request for Lines in range 32 to 63
 623:Drivers/STM32F3xx_HAL_Driver/Inc/stm32f3xx_ll_exti.h ****   * @rmtoll EMR2         EMx           LL_EXTI_DisableEvent_32_63
 624:Drivers/STM32F3xx_HAL_Driver/Inc/stm32f3xx_ll_exti.h ****   * @param  ExtiLine This parameter can be a combination of the following values:
 625:Drivers/STM32F3xx_HAL_Driver/Inc/stm32f3xx_ll_exti.h ****   *         @arg @ref LL_EXTI_LINE_32
 626:Drivers/STM32F3xx_HAL_Driver/Inc/stm32f3xx_ll_exti.h ****   *         @arg @ref LL_EXTI_LINE_33
 627:Drivers/STM32F3xx_HAL_Driver/Inc/stm32f3xx_ll_exti.h ****   *         @arg @ref LL_EXTI_LINE_34
 628:Drivers/STM32F3xx_HAL_Driver/Inc/stm32f3xx_ll_exti.h ****   *         @arg @ref LL_EXTI_LINE_35
 629:Drivers/STM32F3xx_HAL_Driver/Inc/stm32f3xx_ll_exti.h ****   *         @arg @ref LL_EXTI_LINE_36
 630:Drivers/STM32F3xx_HAL_Driver/Inc/stm32f3xx_ll_exti.h ****   *         @arg @ref LL_EXTI_LINE_37
 631:Drivers/STM32F3xx_HAL_Driver/Inc/stm32f3xx_ll_exti.h ****   *         @arg @ref LL_EXTI_LINE_38
ARM GAS  /tmp/cc3fRK7k.s 			page 19


 632:Drivers/STM32F3xx_HAL_Driver/Inc/stm32f3xx_ll_exti.h ****   *         @arg @ref LL_EXTI_LINE_39
 633:Drivers/STM32F3xx_HAL_Driver/Inc/stm32f3xx_ll_exti.h ****   *         @arg @ref LL_EXTI_LINE_ALL_32_63
 634:Drivers/STM32F3xx_HAL_Driver/Inc/stm32f3xx_ll_exti.h ****   * @retval None
 635:Drivers/STM32F3xx_HAL_Driver/Inc/stm32f3xx_ll_exti.h ****   */
 636:Drivers/STM32F3xx_HAL_Driver/Inc/stm32f3xx_ll_exti.h **** __STATIC_INLINE void LL_EXTI_DisableEvent_32_63(uint32_t ExtiLine)
 637:Drivers/STM32F3xx_HAL_Driver/Inc/stm32f3xx_ll_exti.h **** {
 413              		.loc 1 637 0
 414              		.cfi_startproc
 415              		@ args = 0, pretend = 0, frame = 8
 416              		@ frame_needed = 1, uses_anonymous_args = 0
 417              		@ link register save eliminated.
 418 0000 80B4     		push	{r7}
 419              	.LCFI42:
 420              		.cfi_def_cfa_offset 4
 421              		.cfi_offset 7, -4
 422 0002 83B0     		sub	sp, sp, #12
 423              	.LCFI43:
 424              		.cfi_def_cfa_offset 16
 425 0004 00AF     		add	r7, sp, #0
 426              	.LCFI44:
 427              		.cfi_def_cfa_register 7
 428 0006 7860     		str	r0, [r7, #4]
 638:Drivers/STM32F3xx_HAL_Driver/Inc/stm32f3xx_ll_exti.h ****   CLEAR_BIT(EXTI->EMR2, ExtiLine);
 429              		.loc 1 638 0
 430 0008 064B     		ldr	r3, .L23
 431 000a 5A6A     		ldr	r2, [r3, #36]
 432 000c 7B68     		ldr	r3, [r7, #4]
 433 000e DB43     		mvns	r3, r3
 434 0010 0449     		ldr	r1, .L23
 435 0012 1340     		ands	r3, r3, r2
 436 0014 4B62     		str	r3, [r1, #36]
 639:Drivers/STM32F3xx_HAL_Driver/Inc/stm32f3xx_ll_exti.h **** }
 437              		.loc 1 639 0
 438 0016 00BF     		nop
 439 0018 0C37     		adds	r7, r7, #12
 440              	.LCFI45:
 441              		.cfi_def_cfa_offset 4
 442 001a BD46     		mov	sp, r7
 443              	.LCFI46:
 444              		.cfi_def_cfa_register 13
 445              		@ sp needed
 446 001c 5DF8047B 		ldr	r7, [sp], #4
 447              	.LCFI47:
 448              		.cfi_restore 7
 449              		.cfi_def_cfa_offset 0
 450 0020 7047     		bx	lr
 451              	.L24:
 452 0022 00BF     		.align	2
 453              	.L23:
 454 0024 00040140 		.word	1073808384
 455              		.cfi_endproc
 456              	.LFE672:
 458              		.section	.text.LL_EXTI_EnableRisingTrig_0_31,"ax",%progbits
 459              		.align	1
 460              		.syntax unified
 461              		.thumb
 462              		.thumb_func
ARM GAS  /tmp/cc3fRK7k.s 			page 20


 463              		.fpu fpv4-sp-d16
 465              	LL_EXTI_EnableRisingTrig_0_31:
 466              	.LFB675:
 640:Drivers/STM32F3xx_HAL_Driver/Inc/stm32f3xx_ll_exti.h **** #endif
 641:Drivers/STM32F3xx_HAL_Driver/Inc/stm32f3xx_ll_exti.h **** 
 642:Drivers/STM32F3xx_HAL_Driver/Inc/stm32f3xx_ll_exti.h **** /**
 643:Drivers/STM32F3xx_HAL_Driver/Inc/stm32f3xx_ll_exti.h ****   * @brief  Indicate if ExtiLine Event request is enabled for Lines in range 0 to 31
 644:Drivers/STM32F3xx_HAL_Driver/Inc/stm32f3xx_ll_exti.h ****   * @rmtoll EMR         EMx           LL_EXTI_IsEnabledEvent_0_31
 645:Drivers/STM32F3xx_HAL_Driver/Inc/stm32f3xx_ll_exti.h ****   * @param  ExtiLine This parameter can be one of the following values:
 646:Drivers/STM32F3xx_HAL_Driver/Inc/stm32f3xx_ll_exti.h ****   *         @arg @ref LL_EXTI_LINE_0
 647:Drivers/STM32F3xx_HAL_Driver/Inc/stm32f3xx_ll_exti.h ****   *         @arg @ref LL_EXTI_LINE_1
 648:Drivers/STM32F3xx_HAL_Driver/Inc/stm32f3xx_ll_exti.h ****   *         @arg @ref LL_EXTI_LINE_2
 649:Drivers/STM32F3xx_HAL_Driver/Inc/stm32f3xx_ll_exti.h ****   *         @arg @ref LL_EXTI_LINE_3
 650:Drivers/STM32F3xx_HAL_Driver/Inc/stm32f3xx_ll_exti.h ****   *         @arg @ref LL_EXTI_LINE_4
 651:Drivers/STM32F3xx_HAL_Driver/Inc/stm32f3xx_ll_exti.h ****   *         @arg @ref LL_EXTI_LINE_5
 652:Drivers/STM32F3xx_HAL_Driver/Inc/stm32f3xx_ll_exti.h ****   *         @arg @ref LL_EXTI_LINE_6
 653:Drivers/STM32F3xx_HAL_Driver/Inc/stm32f3xx_ll_exti.h ****   *         @arg @ref LL_EXTI_LINE_7
 654:Drivers/STM32F3xx_HAL_Driver/Inc/stm32f3xx_ll_exti.h ****   *         @arg @ref LL_EXTI_LINE_8
 655:Drivers/STM32F3xx_HAL_Driver/Inc/stm32f3xx_ll_exti.h ****   *         @arg @ref LL_EXTI_LINE_9
 656:Drivers/STM32F3xx_HAL_Driver/Inc/stm32f3xx_ll_exti.h ****   *         @arg @ref LL_EXTI_LINE_10
 657:Drivers/STM32F3xx_HAL_Driver/Inc/stm32f3xx_ll_exti.h ****   *         @arg @ref LL_EXTI_LINE_11
 658:Drivers/STM32F3xx_HAL_Driver/Inc/stm32f3xx_ll_exti.h ****   *         @arg @ref LL_EXTI_LINE_12
 659:Drivers/STM32F3xx_HAL_Driver/Inc/stm32f3xx_ll_exti.h ****   *         @arg @ref LL_EXTI_LINE_13
 660:Drivers/STM32F3xx_HAL_Driver/Inc/stm32f3xx_ll_exti.h ****   *         @arg @ref LL_EXTI_LINE_14
 661:Drivers/STM32F3xx_HAL_Driver/Inc/stm32f3xx_ll_exti.h ****   *         @arg @ref LL_EXTI_LINE_15
 662:Drivers/STM32F3xx_HAL_Driver/Inc/stm32f3xx_ll_exti.h ****   *         @arg @ref LL_EXTI_LINE_16
 663:Drivers/STM32F3xx_HAL_Driver/Inc/stm32f3xx_ll_exti.h ****   *         @arg @ref LL_EXTI_LINE_17
 664:Drivers/STM32F3xx_HAL_Driver/Inc/stm32f3xx_ll_exti.h ****   *         @arg @ref LL_EXTI_LINE_18
 665:Drivers/STM32F3xx_HAL_Driver/Inc/stm32f3xx_ll_exti.h ****   *         @arg @ref LL_EXTI_LINE_19
 666:Drivers/STM32F3xx_HAL_Driver/Inc/stm32f3xx_ll_exti.h ****   *         @arg @ref LL_EXTI_LINE_20
 667:Drivers/STM32F3xx_HAL_Driver/Inc/stm32f3xx_ll_exti.h ****   *         @arg @ref LL_EXTI_LINE_21
 668:Drivers/STM32F3xx_HAL_Driver/Inc/stm32f3xx_ll_exti.h ****   *         @arg @ref LL_EXTI_LINE_22
 669:Drivers/STM32F3xx_HAL_Driver/Inc/stm32f3xx_ll_exti.h ****   *         @arg @ref LL_EXTI_LINE_23
 670:Drivers/STM32F3xx_HAL_Driver/Inc/stm32f3xx_ll_exti.h ****   *         @arg @ref LL_EXTI_LINE_24
 671:Drivers/STM32F3xx_HAL_Driver/Inc/stm32f3xx_ll_exti.h ****   *         @arg @ref LL_EXTI_LINE_25
 672:Drivers/STM32F3xx_HAL_Driver/Inc/stm32f3xx_ll_exti.h ****   *         @arg @ref LL_EXTI_LINE_26
 673:Drivers/STM32F3xx_HAL_Driver/Inc/stm32f3xx_ll_exti.h ****   *         @arg @ref LL_EXTI_LINE_27
 674:Drivers/STM32F3xx_HAL_Driver/Inc/stm32f3xx_ll_exti.h ****   *         @arg @ref LL_EXTI_LINE_28
 675:Drivers/STM32F3xx_HAL_Driver/Inc/stm32f3xx_ll_exti.h ****   *         @arg @ref LL_EXTI_LINE_29
 676:Drivers/STM32F3xx_HAL_Driver/Inc/stm32f3xx_ll_exti.h ****   *         @arg @ref LL_EXTI_LINE_30
 677:Drivers/STM32F3xx_HAL_Driver/Inc/stm32f3xx_ll_exti.h ****   *         @arg @ref LL_EXTI_LINE_31
 678:Drivers/STM32F3xx_HAL_Driver/Inc/stm32f3xx_ll_exti.h ****   *         @arg @ref LL_EXTI_LINE_ALL_0_31
 679:Drivers/STM32F3xx_HAL_Driver/Inc/stm32f3xx_ll_exti.h ****   * @note   Please check each device line mapping for EXTI Line availability
 680:Drivers/STM32F3xx_HAL_Driver/Inc/stm32f3xx_ll_exti.h ****   * @retval State of bit (1 or 0).
 681:Drivers/STM32F3xx_HAL_Driver/Inc/stm32f3xx_ll_exti.h ****   */
 682:Drivers/STM32F3xx_HAL_Driver/Inc/stm32f3xx_ll_exti.h **** __STATIC_INLINE uint32_t LL_EXTI_IsEnabledEvent_0_31(uint32_t ExtiLine)
 683:Drivers/STM32F3xx_HAL_Driver/Inc/stm32f3xx_ll_exti.h **** {
 684:Drivers/STM32F3xx_HAL_Driver/Inc/stm32f3xx_ll_exti.h ****   return (READ_BIT(EXTI->EMR, ExtiLine) == (ExtiLine));
 685:Drivers/STM32F3xx_HAL_Driver/Inc/stm32f3xx_ll_exti.h **** 
 686:Drivers/STM32F3xx_HAL_Driver/Inc/stm32f3xx_ll_exti.h **** }
 687:Drivers/STM32F3xx_HAL_Driver/Inc/stm32f3xx_ll_exti.h **** 
 688:Drivers/STM32F3xx_HAL_Driver/Inc/stm32f3xx_ll_exti.h **** #if defined(EXTI_32_63_SUPPORT)
 689:Drivers/STM32F3xx_HAL_Driver/Inc/stm32f3xx_ll_exti.h **** /**
 690:Drivers/STM32F3xx_HAL_Driver/Inc/stm32f3xx_ll_exti.h ****   * @brief  Indicate if ExtiLine Event request is enabled for Lines in range 32 to 63
 691:Drivers/STM32F3xx_HAL_Driver/Inc/stm32f3xx_ll_exti.h ****   * @rmtoll EMR2         EMx           LL_EXTI_IsEnabledEvent_32_63
 692:Drivers/STM32F3xx_HAL_Driver/Inc/stm32f3xx_ll_exti.h ****   * @param  ExtiLine This parameter can be a combination of the following values:
 693:Drivers/STM32F3xx_HAL_Driver/Inc/stm32f3xx_ll_exti.h ****   *         @arg @ref LL_EXTI_LINE_32
ARM GAS  /tmp/cc3fRK7k.s 			page 21


 694:Drivers/STM32F3xx_HAL_Driver/Inc/stm32f3xx_ll_exti.h ****   *         @arg @ref LL_EXTI_LINE_33
 695:Drivers/STM32F3xx_HAL_Driver/Inc/stm32f3xx_ll_exti.h ****   *         @arg @ref LL_EXTI_LINE_34
 696:Drivers/STM32F3xx_HAL_Driver/Inc/stm32f3xx_ll_exti.h ****   *         @arg @ref LL_EXTI_LINE_35
 697:Drivers/STM32F3xx_HAL_Driver/Inc/stm32f3xx_ll_exti.h ****   *         @arg @ref LL_EXTI_LINE_36
 698:Drivers/STM32F3xx_HAL_Driver/Inc/stm32f3xx_ll_exti.h ****   *         @arg @ref LL_EXTI_LINE_37
 699:Drivers/STM32F3xx_HAL_Driver/Inc/stm32f3xx_ll_exti.h ****   *         @arg @ref LL_EXTI_LINE_38
 700:Drivers/STM32F3xx_HAL_Driver/Inc/stm32f3xx_ll_exti.h ****   *         @arg @ref LL_EXTI_LINE_39
 701:Drivers/STM32F3xx_HAL_Driver/Inc/stm32f3xx_ll_exti.h ****   *         @arg @ref LL_EXTI_LINE_ALL_32_63
 702:Drivers/STM32F3xx_HAL_Driver/Inc/stm32f3xx_ll_exti.h ****   * @retval State of bit (1 or 0).
 703:Drivers/STM32F3xx_HAL_Driver/Inc/stm32f3xx_ll_exti.h ****   */
 704:Drivers/STM32F3xx_HAL_Driver/Inc/stm32f3xx_ll_exti.h **** __STATIC_INLINE uint32_t LL_EXTI_IsEnabledEvent_32_63(uint32_t ExtiLine)
 705:Drivers/STM32F3xx_HAL_Driver/Inc/stm32f3xx_ll_exti.h **** {
 706:Drivers/STM32F3xx_HAL_Driver/Inc/stm32f3xx_ll_exti.h ****   return (READ_BIT(EXTI->EMR2, ExtiLine) == (ExtiLine));
 707:Drivers/STM32F3xx_HAL_Driver/Inc/stm32f3xx_ll_exti.h **** }
 708:Drivers/STM32F3xx_HAL_Driver/Inc/stm32f3xx_ll_exti.h **** #endif
 709:Drivers/STM32F3xx_HAL_Driver/Inc/stm32f3xx_ll_exti.h **** 
 710:Drivers/STM32F3xx_HAL_Driver/Inc/stm32f3xx_ll_exti.h **** /**
 711:Drivers/STM32F3xx_HAL_Driver/Inc/stm32f3xx_ll_exti.h ****   * @}
 712:Drivers/STM32F3xx_HAL_Driver/Inc/stm32f3xx_ll_exti.h ****   */
 713:Drivers/STM32F3xx_HAL_Driver/Inc/stm32f3xx_ll_exti.h **** 
 714:Drivers/STM32F3xx_HAL_Driver/Inc/stm32f3xx_ll_exti.h **** /** @defgroup EXTI_LL_EF_Rising_Trigger_Management Rising_Trigger_Management
 715:Drivers/STM32F3xx_HAL_Driver/Inc/stm32f3xx_ll_exti.h ****   * @{
 716:Drivers/STM32F3xx_HAL_Driver/Inc/stm32f3xx_ll_exti.h ****   */
 717:Drivers/STM32F3xx_HAL_Driver/Inc/stm32f3xx_ll_exti.h **** 
 718:Drivers/STM32F3xx_HAL_Driver/Inc/stm32f3xx_ll_exti.h **** /**
 719:Drivers/STM32F3xx_HAL_Driver/Inc/stm32f3xx_ll_exti.h ****   * @brief  Enable ExtiLine Rising Edge Trigger for Lines in range 0 to 31
 720:Drivers/STM32F3xx_HAL_Driver/Inc/stm32f3xx_ll_exti.h ****   * @note The configurable wakeup lines are edge-triggered. No glitch must be
 721:Drivers/STM32F3xx_HAL_Driver/Inc/stm32f3xx_ll_exti.h ****   *       generated on these lines. If a rising edge on a configurable interrupt
 722:Drivers/STM32F3xx_HAL_Driver/Inc/stm32f3xx_ll_exti.h ****   *       line occurs during a write operation in the EXTI_RTSR register, the
 723:Drivers/STM32F3xx_HAL_Driver/Inc/stm32f3xx_ll_exti.h ****   *       pending bit is not set.
 724:Drivers/STM32F3xx_HAL_Driver/Inc/stm32f3xx_ll_exti.h ****   *       Rising and falling edge triggers can be set for
 725:Drivers/STM32F3xx_HAL_Driver/Inc/stm32f3xx_ll_exti.h ****   *       the same interrupt line. In this case, both generate a trigger
 726:Drivers/STM32F3xx_HAL_Driver/Inc/stm32f3xx_ll_exti.h ****   *       condition.
 727:Drivers/STM32F3xx_HAL_Driver/Inc/stm32f3xx_ll_exti.h ****   * @rmtoll RTSR        RTx           LL_EXTI_EnableRisingTrig_0_31
 728:Drivers/STM32F3xx_HAL_Driver/Inc/stm32f3xx_ll_exti.h ****   * @param  ExtiLine This parameter can be a combination of the following values:
 729:Drivers/STM32F3xx_HAL_Driver/Inc/stm32f3xx_ll_exti.h ****   *         @arg @ref LL_EXTI_LINE_0
 730:Drivers/STM32F3xx_HAL_Driver/Inc/stm32f3xx_ll_exti.h ****   *         @arg @ref LL_EXTI_LINE_1
 731:Drivers/STM32F3xx_HAL_Driver/Inc/stm32f3xx_ll_exti.h ****   *         @arg @ref LL_EXTI_LINE_2
 732:Drivers/STM32F3xx_HAL_Driver/Inc/stm32f3xx_ll_exti.h ****   *         @arg @ref LL_EXTI_LINE_3
 733:Drivers/STM32F3xx_HAL_Driver/Inc/stm32f3xx_ll_exti.h ****   *         @arg @ref LL_EXTI_LINE_4
 734:Drivers/STM32F3xx_HAL_Driver/Inc/stm32f3xx_ll_exti.h ****   *         @arg @ref LL_EXTI_LINE_5
 735:Drivers/STM32F3xx_HAL_Driver/Inc/stm32f3xx_ll_exti.h ****   *         @arg @ref LL_EXTI_LINE_6
 736:Drivers/STM32F3xx_HAL_Driver/Inc/stm32f3xx_ll_exti.h ****   *         @arg @ref LL_EXTI_LINE_7
 737:Drivers/STM32F3xx_HAL_Driver/Inc/stm32f3xx_ll_exti.h ****   *         @arg @ref LL_EXTI_LINE_8
 738:Drivers/STM32F3xx_HAL_Driver/Inc/stm32f3xx_ll_exti.h ****   *         @arg @ref LL_EXTI_LINE_9
 739:Drivers/STM32F3xx_HAL_Driver/Inc/stm32f3xx_ll_exti.h ****   *         @arg @ref LL_EXTI_LINE_10
 740:Drivers/STM32F3xx_HAL_Driver/Inc/stm32f3xx_ll_exti.h ****   *         @arg @ref LL_EXTI_LINE_11
 741:Drivers/STM32F3xx_HAL_Driver/Inc/stm32f3xx_ll_exti.h ****   *         @arg @ref LL_EXTI_LINE_12
 742:Drivers/STM32F3xx_HAL_Driver/Inc/stm32f3xx_ll_exti.h ****   *         @arg @ref LL_EXTI_LINE_13
 743:Drivers/STM32F3xx_HAL_Driver/Inc/stm32f3xx_ll_exti.h ****   *         @arg @ref LL_EXTI_LINE_14
 744:Drivers/STM32F3xx_HAL_Driver/Inc/stm32f3xx_ll_exti.h ****   *         @arg @ref LL_EXTI_LINE_15
 745:Drivers/STM32F3xx_HAL_Driver/Inc/stm32f3xx_ll_exti.h ****   *         @arg @ref LL_EXTI_LINE_16
 746:Drivers/STM32F3xx_HAL_Driver/Inc/stm32f3xx_ll_exti.h ****   *         @arg @ref LL_EXTI_LINE_18
 747:Drivers/STM32F3xx_HAL_Driver/Inc/stm32f3xx_ll_exti.h ****   *         @arg @ref LL_EXTI_LINE_19
 748:Drivers/STM32F3xx_HAL_Driver/Inc/stm32f3xx_ll_exti.h ****   *         @arg @ref LL_EXTI_LINE_20
 749:Drivers/STM32F3xx_HAL_Driver/Inc/stm32f3xx_ll_exti.h ****   *         @arg @ref LL_EXTI_LINE_21
 750:Drivers/STM32F3xx_HAL_Driver/Inc/stm32f3xx_ll_exti.h ****   *         @arg @ref LL_EXTI_LINE_22
ARM GAS  /tmp/cc3fRK7k.s 			page 22


 751:Drivers/STM32F3xx_HAL_Driver/Inc/stm32f3xx_ll_exti.h ****   *         @arg @ref LL_EXTI_LINE_29
 752:Drivers/STM32F3xx_HAL_Driver/Inc/stm32f3xx_ll_exti.h ****   *         @arg @ref LL_EXTI_LINE_30
 753:Drivers/STM32F3xx_HAL_Driver/Inc/stm32f3xx_ll_exti.h ****   *         @arg @ref LL_EXTI_LINE_31
 754:Drivers/STM32F3xx_HAL_Driver/Inc/stm32f3xx_ll_exti.h ****   * @note   Please check each device line mapping for EXTI Line availability
 755:Drivers/STM32F3xx_HAL_Driver/Inc/stm32f3xx_ll_exti.h ****   * @retval None
 756:Drivers/STM32F3xx_HAL_Driver/Inc/stm32f3xx_ll_exti.h ****   */
 757:Drivers/STM32F3xx_HAL_Driver/Inc/stm32f3xx_ll_exti.h **** __STATIC_INLINE void LL_EXTI_EnableRisingTrig_0_31(uint32_t ExtiLine)
 758:Drivers/STM32F3xx_HAL_Driver/Inc/stm32f3xx_ll_exti.h **** {
 467              		.loc 1 758 0
 468              		.cfi_startproc
 469              		@ args = 0, pretend = 0, frame = 8
 470              		@ frame_needed = 1, uses_anonymous_args = 0
 471              		@ link register save eliminated.
 472 0000 80B4     		push	{r7}
 473              	.LCFI48:
 474              		.cfi_def_cfa_offset 4
 475              		.cfi_offset 7, -4
 476 0002 83B0     		sub	sp, sp, #12
 477              	.LCFI49:
 478              		.cfi_def_cfa_offset 16
 479 0004 00AF     		add	r7, sp, #0
 480              	.LCFI50:
 481              		.cfi_def_cfa_register 7
 482 0006 7860     		str	r0, [r7, #4]
 759:Drivers/STM32F3xx_HAL_Driver/Inc/stm32f3xx_ll_exti.h ****   SET_BIT(EXTI->RTSR, ExtiLine);
 483              		.loc 1 759 0
 484 0008 054B     		ldr	r3, .L26
 485 000a 9A68     		ldr	r2, [r3, #8]
 486 000c 0449     		ldr	r1, .L26
 487 000e 7B68     		ldr	r3, [r7, #4]
 488 0010 1343     		orrs	r3, r3, r2
 489 0012 8B60     		str	r3, [r1, #8]
 760:Drivers/STM32F3xx_HAL_Driver/Inc/stm32f3xx_ll_exti.h **** 
 761:Drivers/STM32F3xx_HAL_Driver/Inc/stm32f3xx_ll_exti.h **** }
 490              		.loc 1 761 0
 491 0014 00BF     		nop
 492 0016 0C37     		adds	r7, r7, #12
 493              	.LCFI51:
 494              		.cfi_def_cfa_offset 4
 495 0018 BD46     		mov	sp, r7
 496              	.LCFI52:
 497              		.cfi_def_cfa_register 13
 498              		@ sp needed
 499 001a 5DF8047B 		ldr	r7, [sp], #4
 500              	.LCFI53:
 501              		.cfi_restore 7
 502              		.cfi_def_cfa_offset 0
 503 001e 7047     		bx	lr
 504              	.L27:
 505              		.align	2
 506              	.L26:
 507 0020 00040140 		.word	1073808384
 508              		.cfi_endproc
 509              	.LFE675:
 511              		.section	.text.LL_EXTI_EnableRisingTrig_32_63,"ax",%progbits
 512              		.align	1
 513              		.syntax unified
ARM GAS  /tmp/cc3fRK7k.s 			page 23


 514              		.thumb
 515              		.thumb_func
 516              		.fpu fpv4-sp-d16
 518              	LL_EXTI_EnableRisingTrig_32_63:
 519              	.LFB676:
 762:Drivers/STM32F3xx_HAL_Driver/Inc/stm32f3xx_ll_exti.h **** 
 763:Drivers/STM32F3xx_HAL_Driver/Inc/stm32f3xx_ll_exti.h **** #if defined(EXTI_32_63_SUPPORT)
 764:Drivers/STM32F3xx_HAL_Driver/Inc/stm32f3xx_ll_exti.h **** /**
 765:Drivers/STM32F3xx_HAL_Driver/Inc/stm32f3xx_ll_exti.h ****   * @brief  Enable ExtiLine Rising Edge Trigger for Lines in range 32 to 63
 766:Drivers/STM32F3xx_HAL_Driver/Inc/stm32f3xx_ll_exti.h ****   * @note The configurable wakeup lines are edge-triggered. No glitch must be
 767:Drivers/STM32F3xx_HAL_Driver/Inc/stm32f3xx_ll_exti.h ****   *       generated on these lines. If a rising edge on a configurable interrupt
 768:Drivers/STM32F3xx_HAL_Driver/Inc/stm32f3xx_ll_exti.h ****   *       line occurs during a write operation in the EXTI_RTSR register, the
 769:Drivers/STM32F3xx_HAL_Driver/Inc/stm32f3xx_ll_exti.h ****   *       pending bit is not set.Rising and falling edge triggers can be set for
 770:Drivers/STM32F3xx_HAL_Driver/Inc/stm32f3xx_ll_exti.h ****   *       the same interrupt line. In this case, both generate a trigger
 771:Drivers/STM32F3xx_HAL_Driver/Inc/stm32f3xx_ll_exti.h ****   *       condition.
 772:Drivers/STM32F3xx_HAL_Driver/Inc/stm32f3xx_ll_exti.h ****   * @rmtoll RTSR2        RTx           LL_EXTI_EnableRisingTrig_32_63
 773:Drivers/STM32F3xx_HAL_Driver/Inc/stm32f3xx_ll_exti.h ****   * @param  ExtiLine This parameter can be a combination of the following values:
 774:Drivers/STM32F3xx_HAL_Driver/Inc/stm32f3xx_ll_exti.h ****   *         @arg @ref LL_EXTI_LINE_35
 775:Drivers/STM32F3xx_HAL_Driver/Inc/stm32f3xx_ll_exti.h ****   *         @arg @ref LL_EXTI_LINE_36
 776:Drivers/STM32F3xx_HAL_Driver/Inc/stm32f3xx_ll_exti.h ****   *         @arg @ref LL_EXTI_LINE_37
 777:Drivers/STM32F3xx_HAL_Driver/Inc/stm32f3xx_ll_exti.h ****   *         @arg @ref LL_EXTI_LINE_38
 778:Drivers/STM32F3xx_HAL_Driver/Inc/stm32f3xx_ll_exti.h ****   * @retval None
 779:Drivers/STM32F3xx_HAL_Driver/Inc/stm32f3xx_ll_exti.h ****   */
 780:Drivers/STM32F3xx_HAL_Driver/Inc/stm32f3xx_ll_exti.h **** __STATIC_INLINE void LL_EXTI_EnableRisingTrig_32_63(uint32_t ExtiLine)
 781:Drivers/STM32F3xx_HAL_Driver/Inc/stm32f3xx_ll_exti.h **** {
 520              		.loc 1 781 0
 521              		.cfi_startproc
 522              		@ args = 0, pretend = 0, frame = 8
 523              		@ frame_needed = 1, uses_anonymous_args = 0
 524              		@ link register save eliminated.
 525 0000 80B4     		push	{r7}
 526              	.LCFI54:
 527              		.cfi_def_cfa_offset 4
 528              		.cfi_offset 7, -4
 529 0002 83B0     		sub	sp, sp, #12
 530              	.LCFI55:
 531              		.cfi_def_cfa_offset 16
 532 0004 00AF     		add	r7, sp, #0
 533              	.LCFI56:
 534              		.cfi_def_cfa_register 7
 535 0006 7860     		str	r0, [r7, #4]
 782:Drivers/STM32F3xx_HAL_Driver/Inc/stm32f3xx_ll_exti.h ****   SET_BIT(EXTI->RTSR2, ExtiLine);
 536              		.loc 1 782 0
 537 0008 054B     		ldr	r3, .L29
 538 000a 9A6A     		ldr	r2, [r3, #40]
 539 000c 0449     		ldr	r1, .L29
 540 000e 7B68     		ldr	r3, [r7, #4]
 541 0010 1343     		orrs	r3, r3, r2
 542 0012 8B62     		str	r3, [r1, #40]
 783:Drivers/STM32F3xx_HAL_Driver/Inc/stm32f3xx_ll_exti.h **** }
 543              		.loc 1 783 0
 544 0014 00BF     		nop
 545 0016 0C37     		adds	r7, r7, #12
 546              	.LCFI57:
 547              		.cfi_def_cfa_offset 4
 548 0018 BD46     		mov	sp, r7
 549              	.LCFI58:
ARM GAS  /tmp/cc3fRK7k.s 			page 24


 550              		.cfi_def_cfa_register 13
 551              		@ sp needed
 552 001a 5DF8047B 		ldr	r7, [sp], #4
 553              	.LCFI59:
 554              		.cfi_restore 7
 555              		.cfi_def_cfa_offset 0
 556 001e 7047     		bx	lr
 557              	.L30:
 558              		.align	2
 559              	.L29:
 560 0020 00040140 		.word	1073808384
 561              		.cfi_endproc
 562              	.LFE676:
 564              		.section	.text.LL_EXTI_DisableRisingTrig_0_31,"ax",%progbits
 565              		.align	1
 566              		.syntax unified
 567              		.thumb
 568              		.thumb_func
 569              		.fpu fpv4-sp-d16
 571              	LL_EXTI_DisableRisingTrig_0_31:
 572              	.LFB677:
 784:Drivers/STM32F3xx_HAL_Driver/Inc/stm32f3xx_ll_exti.h **** #endif
 785:Drivers/STM32F3xx_HAL_Driver/Inc/stm32f3xx_ll_exti.h **** 
 786:Drivers/STM32F3xx_HAL_Driver/Inc/stm32f3xx_ll_exti.h **** /**
 787:Drivers/STM32F3xx_HAL_Driver/Inc/stm32f3xx_ll_exti.h ****   * @brief  Disable ExtiLine Rising Edge Trigger for Lines in range 0 to 31
 788:Drivers/STM32F3xx_HAL_Driver/Inc/stm32f3xx_ll_exti.h ****   * @note The configurable wakeup lines are edge-triggered. No glitch must be
 789:Drivers/STM32F3xx_HAL_Driver/Inc/stm32f3xx_ll_exti.h ****   *       generated on these lines. If a rising edge on a configurable interrupt
 790:Drivers/STM32F3xx_HAL_Driver/Inc/stm32f3xx_ll_exti.h ****   *       line occurs during a write operation in the EXTI_RTSR register, the
 791:Drivers/STM32F3xx_HAL_Driver/Inc/stm32f3xx_ll_exti.h ****   *       pending bit is not set.
 792:Drivers/STM32F3xx_HAL_Driver/Inc/stm32f3xx_ll_exti.h ****   *       Rising and falling edge triggers can be set for
 793:Drivers/STM32F3xx_HAL_Driver/Inc/stm32f3xx_ll_exti.h ****   *       the same interrupt line. In this case, both generate a trigger
 794:Drivers/STM32F3xx_HAL_Driver/Inc/stm32f3xx_ll_exti.h ****   *       condition.
 795:Drivers/STM32F3xx_HAL_Driver/Inc/stm32f3xx_ll_exti.h ****   * @rmtoll RTSR        RTx           LL_EXTI_DisableRisingTrig_0_31
 796:Drivers/STM32F3xx_HAL_Driver/Inc/stm32f3xx_ll_exti.h ****   * @param  ExtiLine This parameter can be a combination of the following values:
 797:Drivers/STM32F3xx_HAL_Driver/Inc/stm32f3xx_ll_exti.h ****   *         @arg @ref LL_EXTI_LINE_0
 798:Drivers/STM32F3xx_HAL_Driver/Inc/stm32f3xx_ll_exti.h ****   *         @arg @ref LL_EXTI_LINE_1
 799:Drivers/STM32F3xx_HAL_Driver/Inc/stm32f3xx_ll_exti.h ****   *         @arg @ref LL_EXTI_LINE_2
 800:Drivers/STM32F3xx_HAL_Driver/Inc/stm32f3xx_ll_exti.h ****   *         @arg @ref LL_EXTI_LINE_3
 801:Drivers/STM32F3xx_HAL_Driver/Inc/stm32f3xx_ll_exti.h ****   *         @arg @ref LL_EXTI_LINE_4
 802:Drivers/STM32F3xx_HAL_Driver/Inc/stm32f3xx_ll_exti.h ****   *         @arg @ref LL_EXTI_LINE_5
 803:Drivers/STM32F3xx_HAL_Driver/Inc/stm32f3xx_ll_exti.h ****   *         @arg @ref LL_EXTI_LINE_6
 804:Drivers/STM32F3xx_HAL_Driver/Inc/stm32f3xx_ll_exti.h ****   *         @arg @ref LL_EXTI_LINE_7
 805:Drivers/STM32F3xx_HAL_Driver/Inc/stm32f3xx_ll_exti.h ****   *         @arg @ref LL_EXTI_LINE_8
 806:Drivers/STM32F3xx_HAL_Driver/Inc/stm32f3xx_ll_exti.h ****   *         @arg @ref LL_EXTI_LINE_9
 807:Drivers/STM32F3xx_HAL_Driver/Inc/stm32f3xx_ll_exti.h ****   *         @arg @ref LL_EXTI_LINE_10
 808:Drivers/STM32F3xx_HAL_Driver/Inc/stm32f3xx_ll_exti.h ****   *         @arg @ref LL_EXTI_LINE_11
 809:Drivers/STM32F3xx_HAL_Driver/Inc/stm32f3xx_ll_exti.h ****   *         @arg @ref LL_EXTI_LINE_12
 810:Drivers/STM32F3xx_HAL_Driver/Inc/stm32f3xx_ll_exti.h ****   *         @arg @ref LL_EXTI_LINE_13
 811:Drivers/STM32F3xx_HAL_Driver/Inc/stm32f3xx_ll_exti.h ****   *         @arg @ref LL_EXTI_LINE_14
 812:Drivers/STM32F3xx_HAL_Driver/Inc/stm32f3xx_ll_exti.h ****   *         @arg @ref LL_EXTI_LINE_15
 813:Drivers/STM32F3xx_HAL_Driver/Inc/stm32f3xx_ll_exti.h ****   *         @arg @ref LL_EXTI_LINE_16
 814:Drivers/STM32F3xx_HAL_Driver/Inc/stm32f3xx_ll_exti.h ****   *         @arg @ref LL_EXTI_LINE_18
 815:Drivers/STM32F3xx_HAL_Driver/Inc/stm32f3xx_ll_exti.h ****   *         @arg @ref LL_EXTI_LINE_19
 816:Drivers/STM32F3xx_HAL_Driver/Inc/stm32f3xx_ll_exti.h ****   *         @arg @ref LL_EXTI_LINE_20
 817:Drivers/STM32F3xx_HAL_Driver/Inc/stm32f3xx_ll_exti.h ****   *         @arg @ref LL_EXTI_LINE_21
 818:Drivers/STM32F3xx_HAL_Driver/Inc/stm32f3xx_ll_exti.h ****   *         @arg @ref LL_EXTI_LINE_22
 819:Drivers/STM32F3xx_HAL_Driver/Inc/stm32f3xx_ll_exti.h ****   *         @arg @ref LL_EXTI_LINE_29
ARM GAS  /tmp/cc3fRK7k.s 			page 25


 820:Drivers/STM32F3xx_HAL_Driver/Inc/stm32f3xx_ll_exti.h ****   *         @arg @ref LL_EXTI_LINE_30
 821:Drivers/STM32F3xx_HAL_Driver/Inc/stm32f3xx_ll_exti.h ****   *         @arg @ref LL_EXTI_LINE_31
 822:Drivers/STM32F3xx_HAL_Driver/Inc/stm32f3xx_ll_exti.h ****   * @note   Please check each device line mapping for EXTI Line availability
 823:Drivers/STM32F3xx_HAL_Driver/Inc/stm32f3xx_ll_exti.h ****   * @retval None
 824:Drivers/STM32F3xx_HAL_Driver/Inc/stm32f3xx_ll_exti.h ****   */
 825:Drivers/STM32F3xx_HAL_Driver/Inc/stm32f3xx_ll_exti.h **** __STATIC_INLINE void LL_EXTI_DisableRisingTrig_0_31(uint32_t ExtiLine)
 826:Drivers/STM32F3xx_HAL_Driver/Inc/stm32f3xx_ll_exti.h **** {
 573              		.loc 1 826 0
 574              		.cfi_startproc
 575              		@ args = 0, pretend = 0, frame = 8
 576              		@ frame_needed = 1, uses_anonymous_args = 0
 577              		@ link register save eliminated.
 578 0000 80B4     		push	{r7}
 579              	.LCFI60:
 580              		.cfi_def_cfa_offset 4
 581              		.cfi_offset 7, -4
 582 0002 83B0     		sub	sp, sp, #12
 583              	.LCFI61:
 584              		.cfi_def_cfa_offset 16
 585 0004 00AF     		add	r7, sp, #0
 586              	.LCFI62:
 587              		.cfi_def_cfa_register 7
 588 0006 7860     		str	r0, [r7, #4]
 827:Drivers/STM32F3xx_HAL_Driver/Inc/stm32f3xx_ll_exti.h ****   CLEAR_BIT(EXTI->RTSR, ExtiLine);
 589              		.loc 1 827 0
 590 0008 064B     		ldr	r3, .L32
 591 000a 9A68     		ldr	r2, [r3, #8]
 592 000c 7B68     		ldr	r3, [r7, #4]
 593 000e DB43     		mvns	r3, r3
 594 0010 0449     		ldr	r1, .L32
 595 0012 1340     		ands	r3, r3, r2
 596 0014 8B60     		str	r3, [r1, #8]
 828:Drivers/STM32F3xx_HAL_Driver/Inc/stm32f3xx_ll_exti.h **** 
 829:Drivers/STM32F3xx_HAL_Driver/Inc/stm32f3xx_ll_exti.h **** }
 597              		.loc 1 829 0
 598 0016 00BF     		nop
 599 0018 0C37     		adds	r7, r7, #12
 600              	.LCFI63:
 601              		.cfi_def_cfa_offset 4
 602 001a BD46     		mov	sp, r7
 603              	.LCFI64:
 604              		.cfi_def_cfa_register 13
 605              		@ sp needed
 606 001c 5DF8047B 		ldr	r7, [sp], #4
 607              	.LCFI65:
 608              		.cfi_restore 7
 609              		.cfi_def_cfa_offset 0
 610 0020 7047     		bx	lr
 611              	.L33:
 612 0022 00BF     		.align	2
 613              	.L32:
 614 0024 00040140 		.word	1073808384
 615              		.cfi_endproc
 616              	.LFE677:
 618              		.section	.text.LL_EXTI_DisableRisingTrig_32_63,"ax",%progbits
 619              		.align	1
 620              		.syntax unified
ARM GAS  /tmp/cc3fRK7k.s 			page 26


 621              		.thumb
 622              		.thumb_func
 623              		.fpu fpv4-sp-d16
 625              	LL_EXTI_DisableRisingTrig_32_63:
 626              	.LFB678:
 830:Drivers/STM32F3xx_HAL_Driver/Inc/stm32f3xx_ll_exti.h **** 
 831:Drivers/STM32F3xx_HAL_Driver/Inc/stm32f3xx_ll_exti.h **** #if defined(EXTI_32_63_SUPPORT)
 832:Drivers/STM32F3xx_HAL_Driver/Inc/stm32f3xx_ll_exti.h **** /**
 833:Drivers/STM32F3xx_HAL_Driver/Inc/stm32f3xx_ll_exti.h ****   * @brief  Disable ExtiLine Rising Edge Trigger for Lines in range 32 to 63
 834:Drivers/STM32F3xx_HAL_Driver/Inc/stm32f3xx_ll_exti.h ****   * @note The configurable wakeup lines are edge-triggered. No glitch must be
 835:Drivers/STM32F3xx_HAL_Driver/Inc/stm32f3xx_ll_exti.h ****   *       generated on these lines. If a rising edge on a configurable interrupt
 836:Drivers/STM32F3xx_HAL_Driver/Inc/stm32f3xx_ll_exti.h ****   *       line occurs during a write operation in the EXTI_RTSR register, the
 837:Drivers/STM32F3xx_HAL_Driver/Inc/stm32f3xx_ll_exti.h ****   *       pending bit is not set.
 838:Drivers/STM32F3xx_HAL_Driver/Inc/stm32f3xx_ll_exti.h ****   *       Rising and falling edge triggers can be set for
 839:Drivers/STM32F3xx_HAL_Driver/Inc/stm32f3xx_ll_exti.h ****   *       the same interrupt line. In this case, both generate a trigger
 840:Drivers/STM32F3xx_HAL_Driver/Inc/stm32f3xx_ll_exti.h ****   *       condition.
 841:Drivers/STM32F3xx_HAL_Driver/Inc/stm32f3xx_ll_exti.h ****   * @rmtoll RTSR2        RTx           LL_EXTI_DisableRisingTrig_32_63
 842:Drivers/STM32F3xx_HAL_Driver/Inc/stm32f3xx_ll_exti.h ****   * @param  ExtiLine This parameter can be a combination of the following values:
 843:Drivers/STM32F3xx_HAL_Driver/Inc/stm32f3xx_ll_exti.h ****   *         @arg @ref LL_EXTI_LINE_35
 844:Drivers/STM32F3xx_HAL_Driver/Inc/stm32f3xx_ll_exti.h ****   *         @arg @ref LL_EXTI_LINE_36
 845:Drivers/STM32F3xx_HAL_Driver/Inc/stm32f3xx_ll_exti.h ****   *         @arg @ref LL_EXTI_LINE_37
 846:Drivers/STM32F3xx_HAL_Driver/Inc/stm32f3xx_ll_exti.h ****   *         @arg @ref LL_EXTI_LINE_38
 847:Drivers/STM32F3xx_HAL_Driver/Inc/stm32f3xx_ll_exti.h ****   * @retval None
 848:Drivers/STM32F3xx_HAL_Driver/Inc/stm32f3xx_ll_exti.h ****   */
 849:Drivers/STM32F3xx_HAL_Driver/Inc/stm32f3xx_ll_exti.h **** __STATIC_INLINE void LL_EXTI_DisableRisingTrig_32_63(uint32_t ExtiLine)
 850:Drivers/STM32F3xx_HAL_Driver/Inc/stm32f3xx_ll_exti.h **** {
 627              		.loc 1 850 0
 628              		.cfi_startproc
 629              		@ args = 0, pretend = 0, frame = 8
 630              		@ frame_needed = 1, uses_anonymous_args = 0
 631              		@ link register save eliminated.
 632 0000 80B4     		push	{r7}
 633              	.LCFI66:
 634              		.cfi_def_cfa_offset 4
 635              		.cfi_offset 7, -4
 636 0002 83B0     		sub	sp, sp, #12
 637              	.LCFI67:
 638              		.cfi_def_cfa_offset 16
 639 0004 00AF     		add	r7, sp, #0
 640              	.LCFI68:
 641              		.cfi_def_cfa_register 7
 642 0006 7860     		str	r0, [r7, #4]
 851:Drivers/STM32F3xx_HAL_Driver/Inc/stm32f3xx_ll_exti.h ****   CLEAR_BIT(EXTI->RTSR2, ExtiLine);
 643              		.loc 1 851 0
 644 0008 064B     		ldr	r3, .L35
 645 000a 9A6A     		ldr	r2, [r3, #40]
 646 000c 7B68     		ldr	r3, [r7, #4]
 647 000e DB43     		mvns	r3, r3
 648 0010 0449     		ldr	r1, .L35
 649 0012 1340     		ands	r3, r3, r2
 650 0014 8B62     		str	r3, [r1, #40]
 852:Drivers/STM32F3xx_HAL_Driver/Inc/stm32f3xx_ll_exti.h **** }
 651              		.loc 1 852 0
 652 0016 00BF     		nop
 653 0018 0C37     		adds	r7, r7, #12
 654              	.LCFI69:
 655              		.cfi_def_cfa_offset 4
ARM GAS  /tmp/cc3fRK7k.s 			page 27


 656 001a BD46     		mov	sp, r7
 657              	.LCFI70:
 658              		.cfi_def_cfa_register 13
 659              		@ sp needed
 660 001c 5DF8047B 		ldr	r7, [sp], #4
 661              	.LCFI71:
 662              		.cfi_restore 7
 663              		.cfi_def_cfa_offset 0
 664 0020 7047     		bx	lr
 665              	.L36:
 666 0022 00BF     		.align	2
 667              	.L35:
 668 0024 00040140 		.word	1073808384
 669              		.cfi_endproc
 670              	.LFE678:
 672              		.section	.text.LL_EXTI_EnableFallingTrig_0_31,"ax",%progbits
 673              		.align	1
 674              		.syntax unified
 675              		.thumb
 676              		.thumb_func
 677              		.fpu fpv4-sp-d16
 679              	LL_EXTI_EnableFallingTrig_0_31:
 680              	.LFB681:
 853:Drivers/STM32F3xx_HAL_Driver/Inc/stm32f3xx_ll_exti.h **** #endif
 854:Drivers/STM32F3xx_HAL_Driver/Inc/stm32f3xx_ll_exti.h **** 
 855:Drivers/STM32F3xx_HAL_Driver/Inc/stm32f3xx_ll_exti.h **** /**
 856:Drivers/STM32F3xx_HAL_Driver/Inc/stm32f3xx_ll_exti.h ****   * @brief  Check if rising edge trigger is enabled for Lines in range 0 to 31
 857:Drivers/STM32F3xx_HAL_Driver/Inc/stm32f3xx_ll_exti.h ****   * @rmtoll RTSR        RTx           LL_EXTI_IsEnabledRisingTrig_0_31
 858:Drivers/STM32F3xx_HAL_Driver/Inc/stm32f3xx_ll_exti.h ****   * @param  ExtiLine This parameter can be a combination of the following values:
 859:Drivers/STM32F3xx_HAL_Driver/Inc/stm32f3xx_ll_exti.h ****   *         @arg @ref LL_EXTI_LINE_0
 860:Drivers/STM32F3xx_HAL_Driver/Inc/stm32f3xx_ll_exti.h ****   *         @arg @ref LL_EXTI_LINE_1
 861:Drivers/STM32F3xx_HAL_Driver/Inc/stm32f3xx_ll_exti.h ****   *         @arg @ref LL_EXTI_LINE_2
 862:Drivers/STM32F3xx_HAL_Driver/Inc/stm32f3xx_ll_exti.h ****   *         @arg @ref LL_EXTI_LINE_3
 863:Drivers/STM32F3xx_HAL_Driver/Inc/stm32f3xx_ll_exti.h ****   *         @arg @ref LL_EXTI_LINE_4
 864:Drivers/STM32F3xx_HAL_Driver/Inc/stm32f3xx_ll_exti.h ****   *         @arg @ref LL_EXTI_LINE_5
 865:Drivers/STM32F3xx_HAL_Driver/Inc/stm32f3xx_ll_exti.h ****   *         @arg @ref LL_EXTI_LINE_6
 866:Drivers/STM32F3xx_HAL_Driver/Inc/stm32f3xx_ll_exti.h ****   *         @arg @ref LL_EXTI_LINE_7
 867:Drivers/STM32F3xx_HAL_Driver/Inc/stm32f3xx_ll_exti.h ****   *         @arg @ref LL_EXTI_LINE_8
 868:Drivers/STM32F3xx_HAL_Driver/Inc/stm32f3xx_ll_exti.h ****   *         @arg @ref LL_EXTI_LINE_9
 869:Drivers/STM32F3xx_HAL_Driver/Inc/stm32f3xx_ll_exti.h ****   *         @arg @ref LL_EXTI_LINE_10
 870:Drivers/STM32F3xx_HAL_Driver/Inc/stm32f3xx_ll_exti.h ****   *         @arg @ref LL_EXTI_LINE_11
 871:Drivers/STM32F3xx_HAL_Driver/Inc/stm32f3xx_ll_exti.h ****   *         @arg @ref LL_EXTI_LINE_12
 872:Drivers/STM32F3xx_HAL_Driver/Inc/stm32f3xx_ll_exti.h ****   *         @arg @ref LL_EXTI_LINE_13
 873:Drivers/STM32F3xx_HAL_Driver/Inc/stm32f3xx_ll_exti.h ****   *         @arg @ref LL_EXTI_LINE_14
 874:Drivers/STM32F3xx_HAL_Driver/Inc/stm32f3xx_ll_exti.h ****   *         @arg @ref LL_EXTI_LINE_15
 875:Drivers/STM32F3xx_HAL_Driver/Inc/stm32f3xx_ll_exti.h ****   *         @arg @ref LL_EXTI_LINE_16
 876:Drivers/STM32F3xx_HAL_Driver/Inc/stm32f3xx_ll_exti.h ****   *         @arg @ref LL_EXTI_LINE_18
 877:Drivers/STM32F3xx_HAL_Driver/Inc/stm32f3xx_ll_exti.h ****   *         @arg @ref LL_EXTI_LINE_19
 878:Drivers/STM32F3xx_HAL_Driver/Inc/stm32f3xx_ll_exti.h ****   *         @arg @ref LL_EXTI_LINE_20
 879:Drivers/STM32F3xx_HAL_Driver/Inc/stm32f3xx_ll_exti.h ****   *         @arg @ref LL_EXTI_LINE_21
 880:Drivers/STM32F3xx_HAL_Driver/Inc/stm32f3xx_ll_exti.h ****   *         @arg @ref LL_EXTI_LINE_22
 881:Drivers/STM32F3xx_HAL_Driver/Inc/stm32f3xx_ll_exti.h ****   *         @arg @ref LL_EXTI_LINE_29
 882:Drivers/STM32F3xx_HAL_Driver/Inc/stm32f3xx_ll_exti.h ****   *         @arg @ref LL_EXTI_LINE_30
 883:Drivers/STM32F3xx_HAL_Driver/Inc/stm32f3xx_ll_exti.h ****   *         @arg @ref LL_EXTI_LINE_31
 884:Drivers/STM32F3xx_HAL_Driver/Inc/stm32f3xx_ll_exti.h ****   * @note   Please check each device line mapping for EXTI Line availability
 885:Drivers/STM32F3xx_HAL_Driver/Inc/stm32f3xx_ll_exti.h ****   * @retval State of bit (1 or 0).
 886:Drivers/STM32F3xx_HAL_Driver/Inc/stm32f3xx_ll_exti.h ****   */
ARM GAS  /tmp/cc3fRK7k.s 			page 28


 887:Drivers/STM32F3xx_HAL_Driver/Inc/stm32f3xx_ll_exti.h **** __STATIC_INLINE uint32_t LL_EXTI_IsEnabledRisingTrig_0_31(uint32_t ExtiLine)
 888:Drivers/STM32F3xx_HAL_Driver/Inc/stm32f3xx_ll_exti.h **** {
 889:Drivers/STM32F3xx_HAL_Driver/Inc/stm32f3xx_ll_exti.h ****   return (READ_BIT(EXTI->RTSR, ExtiLine) == (ExtiLine));
 890:Drivers/STM32F3xx_HAL_Driver/Inc/stm32f3xx_ll_exti.h **** }
 891:Drivers/STM32F3xx_HAL_Driver/Inc/stm32f3xx_ll_exti.h **** 
 892:Drivers/STM32F3xx_HAL_Driver/Inc/stm32f3xx_ll_exti.h **** #if defined(EXTI_32_63_SUPPORT)
 893:Drivers/STM32F3xx_HAL_Driver/Inc/stm32f3xx_ll_exti.h **** /**
 894:Drivers/STM32F3xx_HAL_Driver/Inc/stm32f3xx_ll_exti.h ****   * @brief  Check if rising edge trigger is enabled for Lines in range 32 to 63
 895:Drivers/STM32F3xx_HAL_Driver/Inc/stm32f3xx_ll_exti.h ****   * @rmtoll RTSR2        RTx           LL_EXTI_IsEnabledRisingTrig_32_63
 896:Drivers/STM32F3xx_HAL_Driver/Inc/stm32f3xx_ll_exti.h ****   * @param  ExtiLine This parameter can be a combination of the following values:
 897:Drivers/STM32F3xx_HAL_Driver/Inc/stm32f3xx_ll_exti.h ****   *         @arg @ref LL_EXTI_LINE_35
 898:Drivers/STM32F3xx_HAL_Driver/Inc/stm32f3xx_ll_exti.h ****   *         @arg @ref LL_EXTI_LINE_36
 899:Drivers/STM32F3xx_HAL_Driver/Inc/stm32f3xx_ll_exti.h ****   *         @arg @ref LL_EXTI_LINE_37
 900:Drivers/STM32F3xx_HAL_Driver/Inc/stm32f3xx_ll_exti.h ****   *         @arg @ref LL_EXTI_LINE_38
 901:Drivers/STM32F3xx_HAL_Driver/Inc/stm32f3xx_ll_exti.h ****   * @retval State of bit (1 or 0).
 902:Drivers/STM32F3xx_HAL_Driver/Inc/stm32f3xx_ll_exti.h ****   */
 903:Drivers/STM32F3xx_HAL_Driver/Inc/stm32f3xx_ll_exti.h **** __STATIC_INLINE uint32_t LL_EXTI_IsEnabledRisingTrig_32_63(uint32_t ExtiLine)
 904:Drivers/STM32F3xx_HAL_Driver/Inc/stm32f3xx_ll_exti.h **** {
 905:Drivers/STM32F3xx_HAL_Driver/Inc/stm32f3xx_ll_exti.h ****   return (READ_BIT(EXTI->RTSR2, ExtiLine) == (ExtiLine));
 906:Drivers/STM32F3xx_HAL_Driver/Inc/stm32f3xx_ll_exti.h **** }
 907:Drivers/STM32F3xx_HAL_Driver/Inc/stm32f3xx_ll_exti.h **** #endif
 908:Drivers/STM32F3xx_HAL_Driver/Inc/stm32f3xx_ll_exti.h **** 
 909:Drivers/STM32F3xx_HAL_Driver/Inc/stm32f3xx_ll_exti.h **** /**
 910:Drivers/STM32F3xx_HAL_Driver/Inc/stm32f3xx_ll_exti.h ****   * @}
 911:Drivers/STM32F3xx_HAL_Driver/Inc/stm32f3xx_ll_exti.h ****   */
 912:Drivers/STM32F3xx_HAL_Driver/Inc/stm32f3xx_ll_exti.h **** 
 913:Drivers/STM32F3xx_HAL_Driver/Inc/stm32f3xx_ll_exti.h **** /** @defgroup EXTI_LL_EF_Falling_Trigger_Management Falling_Trigger_Management
 914:Drivers/STM32F3xx_HAL_Driver/Inc/stm32f3xx_ll_exti.h ****   * @{
 915:Drivers/STM32F3xx_HAL_Driver/Inc/stm32f3xx_ll_exti.h ****   */
 916:Drivers/STM32F3xx_HAL_Driver/Inc/stm32f3xx_ll_exti.h **** 
 917:Drivers/STM32F3xx_HAL_Driver/Inc/stm32f3xx_ll_exti.h **** /**
 918:Drivers/STM32F3xx_HAL_Driver/Inc/stm32f3xx_ll_exti.h ****   * @brief  Enable ExtiLine Falling Edge Trigger for Lines in range 0 to 31
 919:Drivers/STM32F3xx_HAL_Driver/Inc/stm32f3xx_ll_exti.h ****   * @note The configurable wakeup lines are edge-triggered. No glitch must be
 920:Drivers/STM32F3xx_HAL_Driver/Inc/stm32f3xx_ll_exti.h ****   *       generated on these lines. If a falling edge on a configurable interrupt
 921:Drivers/STM32F3xx_HAL_Driver/Inc/stm32f3xx_ll_exti.h ****   *       line occurs during a write operation in the EXTI_FTSR register, the
 922:Drivers/STM32F3xx_HAL_Driver/Inc/stm32f3xx_ll_exti.h ****   *       pending bit is not set.
 923:Drivers/STM32F3xx_HAL_Driver/Inc/stm32f3xx_ll_exti.h ****   *       Rising and falling edge triggers can be set for
 924:Drivers/STM32F3xx_HAL_Driver/Inc/stm32f3xx_ll_exti.h ****   *       the same interrupt line. In this case, both generate a trigger
 925:Drivers/STM32F3xx_HAL_Driver/Inc/stm32f3xx_ll_exti.h ****   *       condition.
 926:Drivers/STM32F3xx_HAL_Driver/Inc/stm32f3xx_ll_exti.h ****   * @rmtoll FTSR        FTx           LL_EXTI_EnableFallingTrig_0_31
 927:Drivers/STM32F3xx_HAL_Driver/Inc/stm32f3xx_ll_exti.h ****   * @param  ExtiLine This parameter can be a combination of the following values:
 928:Drivers/STM32F3xx_HAL_Driver/Inc/stm32f3xx_ll_exti.h ****   *         @arg @ref LL_EXTI_LINE_0
 929:Drivers/STM32F3xx_HAL_Driver/Inc/stm32f3xx_ll_exti.h ****   *         @arg @ref LL_EXTI_LINE_1
 930:Drivers/STM32F3xx_HAL_Driver/Inc/stm32f3xx_ll_exti.h ****   *         @arg @ref LL_EXTI_LINE_2
 931:Drivers/STM32F3xx_HAL_Driver/Inc/stm32f3xx_ll_exti.h ****   *         @arg @ref LL_EXTI_LINE_3
 932:Drivers/STM32F3xx_HAL_Driver/Inc/stm32f3xx_ll_exti.h ****   *         @arg @ref LL_EXTI_LINE_4
 933:Drivers/STM32F3xx_HAL_Driver/Inc/stm32f3xx_ll_exti.h ****   *         @arg @ref LL_EXTI_LINE_5
 934:Drivers/STM32F3xx_HAL_Driver/Inc/stm32f3xx_ll_exti.h ****   *         @arg @ref LL_EXTI_LINE_6
 935:Drivers/STM32F3xx_HAL_Driver/Inc/stm32f3xx_ll_exti.h ****   *         @arg @ref LL_EXTI_LINE_7
 936:Drivers/STM32F3xx_HAL_Driver/Inc/stm32f3xx_ll_exti.h ****   *         @arg @ref LL_EXTI_LINE_8
 937:Drivers/STM32F3xx_HAL_Driver/Inc/stm32f3xx_ll_exti.h ****   *         @arg @ref LL_EXTI_LINE_9
 938:Drivers/STM32F3xx_HAL_Driver/Inc/stm32f3xx_ll_exti.h ****   *         @arg @ref LL_EXTI_LINE_10
 939:Drivers/STM32F3xx_HAL_Driver/Inc/stm32f3xx_ll_exti.h ****   *         @arg @ref LL_EXTI_LINE_11
 940:Drivers/STM32F3xx_HAL_Driver/Inc/stm32f3xx_ll_exti.h ****   *         @arg @ref LL_EXTI_LINE_12
 941:Drivers/STM32F3xx_HAL_Driver/Inc/stm32f3xx_ll_exti.h ****   *         @arg @ref LL_EXTI_LINE_13
 942:Drivers/STM32F3xx_HAL_Driver/Inc/stm32f3xx_ll_exti.h ****   *         @arg @ref LL_EXTI_LINE_14
 943:Drivers/STM32F3xx_HAL_Driver/Inc/stm32f3xx_ll_exti.h ****   *         @arg @ref LL_EXTI_LINE_15
ARM GAS  /tmp/cc3fRK7k.s 			page 29


 944:Drivers/STM32F3xx_HAL_Driver/Inc/stm32f3xx_ll_exti.h ****   *         @arg @ref LL_EXTI_LINE_16
 945:Drivers/STM32F3xx_HAL_Driver/Inc/stm32f3xx_ll_exti.h ****   *         @arg @ref LL_EXTI_LINE_18
 946:Drivers/STM32F3xx_HAL_Driver/Inc/stm32f3xx_ll_exti.h ****   *         @arg @ref LL_EXTI_LINE_19
 947:Drivers/STM32F3xx_HAL_Driver/Inc/stm32f3xx_ll_exti.h ****   *         @arg @ref LL_EXTI_LINE_20
 948:Drivers/STM32F3xx_HAL_Driver/Inc/stm32f3xx_ll_exti.h ****   *         @arg @ref LL_EXTI_LINE_21
 949:Drivers/STM32F3xx_HAL_Driver/Inc/stm32f3xx_ll_exti.h ****   *         @arg @ref LL_EXTI_LINE_22
 950:Drivers/STM32F3xx_HAL_Driver/Inc/stm32f3xx_ll_exti.h ****   *         @arg @ref LL_EXTI_LINE_29
 951:Drivers/STM32F3xx_HAL_Driver/Inc/stm32f3xx_ll_exti.h ****   *         @arg @ref LL_EXTI_LINE_30
 952:Drivers/STM32F3xx_HAL_Driver/Inc/stm32f3xx_ll_exti.h ****   *         @arg @ref LL_EXTI_LINE_31
 953:Drivers/STM32F3xx_HAL_Driver/Inc/stm32f3xx_ll_exti.h ****   * @note   Please check each device line mapping for EXTI Line availability
 954:Drivers/STM32F3xx_HAL_Driver/Inc/stm32f3xx_ll_exti.h ****   * @retval None
 955:Drivers/STM32F3xx_HAL_Driver/Inc/stm32f3xx_ll_exti.h ****   */
 956:Drivers/STM32F3xx_HAL_Driver/Inc/stm32f3xx_ll_exti.h **** __STATIC_INLINE void LL_EXTI_EnableFallingTrig_0_31(uint32_t ExtiLine)
 957:Drivers/STM32F3xx_HAL_Driver/Inc/stm32f3xx_ll_exti.h **** {
 681              		.loc 1 957 0
 682              		.cfi_startproc
 683              		@ args = 0, pretend = 0, frame = 8
 684              		@ frame_needed = 1, uses_anonymous_args = 0
 685              		@ link register save eliminated.
 686 0000 80B4     		push	{r7}
 687              	.LCFI72:
 688              		.cfi_def_cfa_offset 4
 689              		.cfi_offset 7, -4
 690 0002 83B0     		sub	sp, sp, #12
 691              	.LCFI73:
 692              		.cfi_def_cfa_offset 16
 693 0004 00AF     		add	r7, sp, #0
 694              	.LCFI74:
 695              		.cfi_def_cfa_register 7
 696 0006 7860     		str	r0, [r7, #4]
 958:Drivers/STM32F3xx_HAL_Driver/Inc/stm32f3xx_ll_exti.h ****   SET_BIT(EXTI->FTSR, ExtiLine);
 697              		.loc 1 958 0
 698 0008 054B     		ldr	r3, .L38
 699 000a DA68     		ldr	r2, [r3, #12]
 700 000c 0449     		ldr	r1, .L38
 701 000e 7B68     		ldr	r3, [r7, #4]
 702 0010 1343     		orrs	r3, r3, r2
 703 0012 CB60     		str	r3, [r1, #12]
 959:Drivers/STM32F3xx_HAL_Driver/Inc/stm32f3xx_ll_exti.h **** }
 704              		.loc 1 959 0
 705 0014 00BF     		nop
 706 0016 0C37     		adds	r7, r7, #12
 707              	.LCFI75:
 708              		.cfi_def_cfa_offset 4
 709 0018 BD46     		mov	sp, r7
 710              	.LCFI76:
 711              		.cfi_def_cfa_register 13
 712              		@ sp needed
 713 001a 5DF8047B 		ldr	r7, [sp], #4
 714              	.LCFI77:
 715              		.cfi_restore 7
 716              		.cfi_def_cfa_offset 0
 717 001e 7047     		bx	lr
 718              	.L39:
 719              		.align	2
 720              	.L38:
 721 0020 00040140 		.word	1073808384
ARM GAS  /tmp/cc3fRK7k.s 			page 30


 722              		.cfi_endproc
 723              	.LFE681:
 725              		.section	.text.LL_EXTI_EnableFallingTrig_32_63,"ax",%progbits
 726              		.align	1
 727              		.syntax unified
 728              		.thumb
 729              		.thumb_func
 730              		.fpu fpv4-sp-d16
 732              	LL_EXTI_EnableFallingTrig_32_63:
 733              	.LFB682:
 960:Drivers/STM32F3xx_HAL_Driver/Inc/stm32f3xx_ll_exti.h **** 
 961:Drivers/STM32F3xx_HAL_Driver/Inc/stm32f3xx_ll_exti.h **** #if defined(EXTI_32_63_SUPPORT)
 962:Drivers/STM32F3xx_HAL_Driver/Inc/stm32f3xx_ll_exti.h **** /**
 963:Drivers/STM32F3xx_HAL_Driver/Inc/stm32f3xx_ll_exti.h ****   * @brief  Enable ExtiLine Falling Edge Trigger for Lines in range 32 to 63
 964:Drivers/STM32F3xx_HAL_Driver/Inc/stm32f3xx_ll_exti.h ****   * @note The configurable wakeup lines are edge-triggered. No glitch must be
 965:Drivers/STM32F3xx_HAL_Driver/Inc/stm32f3xx_ll_exti.h ****   *       generated on these lines. If a Falling edge on a configurable interrupt
 966:Drivers/STM32F3xx_HAL_Driver/Inc/stm32f3xx_ll_exti.h ****   *       line occurs during a write operation in the EXTI_FTSR register, the
 967:Drivers/STM32F3xx_HAL_Driver/Inc/stm32f3xx_ll_exti.h ****   *       pending bit is not set.
 968:Drivers/STM32F3xx_HAL_Driver/Inc/stm32f3xx_ll_exti.h ****   *       Rising and falling edge triggers can be set for
 969:Drivers/STM32F3xx_HAL_Driver/Inc/stm32f3xx_ll_exti.h ****   *       the same interrupt line. In this case, both generate a trigger
 970:Drivers/STM32F3xx_HAL_Driver/Inc/stm32f3xx_ll_exti.h ****   *       condition.
 971:Drivers/STM32F3xx_HAL_Driver/Inc/stm32f3xx_ll_exti.h ****   * @rmtoll FTSR2        FTx           LL_EXTI_EnableFallingTrig_32_63
 972:Drivers/STM32F3xx_HAL_Driver/Inc/stm32f3xx_ll_exti.h ****   * @param  ExtiLine This parameter can be a combination of the following values:
 973:Drivers/STM32F3xx_HAL_Driver/Inc/stm32f3xx_ll_exti.h ****   *         @arg @ref LL_EXTI_LINE_35
 974:Drivers/STM32F3xx_HAL_Driver/Inc/stm32f3xx_ll_exti.h ****   *         @arg @ref LL_EXTI_LINE_36
 975:Drivers/STM32F3xx_HAL_Driver/Inc/stm32f3xx_ll_exti.h ****   *         @arg @ref LL_EXTI_LINE_37
 976:Drivers/STM32F3xx_HAL_Driver/Inc/stm32f3xx_ll_exti.h ****   *         @arg @ref LL_EXTI_LINE_38
 977:Drivers/STM32F3xx_HAL_Driver/Inc/stm32f3xx_ll_exti.h ****   * @retval None
 978:Drivers/STM32F3xx_HAL_Driver/Inc/stm32f3xx_ll_exti.h ****   */
 979:Drivers/STM32F3xx_HAL_Driver/Inc/stm32f3xx_ll_exti.h **** __STATIC_INLINE void LL_EXTI_EnableFallingTrig_32_63(uint32_t ExtiLine)
 980:Drivers/STM32F3xx_HAL_Driver/Inc/stm32f3xx_ll_exti.h **** {
 734              		.loc 1 980 0
 735              		.cfi_startproc
 736              		@ args = 0, pretend = 0, frame = 8
 737              		@ frame_needed = 1, uses_anonymous_args = 0
 738              		@ link register save eliminated.
 739 0000 80B4     		push	{r7}
 740              	.LCFI78:
 741              		.cfi_def_cfa_offset 4
 742              		.cfi_offset 7, -4
 743 0002 83B0     		sub	sp, sp, #12
 744              	.LCFI79:
 745              		.cfi_def_cfa_offset 16
 746 0004 00AF     		add	r7, sp, #0
 747              	.LCFI80:
 748              		.cfi_def_cfa_register 7
 749 0006 7860     		str	r0, [r7, #4]
 981:Drivers/STM32F3xx_HAL_Driver/Inc/stm32f3xx_ll_exti.h ****   SET_BIT(EXTI->FTSR2, ExtiLine);
 750              		.loc 1 981 0
 751 0008 054B     		ldr	r3, .L41
 752 000a DA6A     		ldr	r2, [r3, #44]
 753 000c 0449     		ldr	r1, .L41
 754 000e 7B68     		ldr	r3, [r7, #4]
 755 0010 1343     		orrs	r3, r3, r2
 756 0012 CB62     		str	r3, [r1, #44]
 982:Drivers/STM32F3xx_HAL_Driver/Inc/stm32f3xx_ll_exti.h **** }
 757              		.loc 1 982 0
ARM GAS  /tmp/cc3fRK7k.s 			page 31


 758 0014 00BF     		nop
 759 0016 0C37     		adds	r7, r7, #12
 760              	.LCFI81:
 761              		.cfi_def_cfa_offset 4
 762 0018 BD46     		mov	sp, r7
 763              	.LCFI82:
 764              		.cfi_def_cfa_register 13
 765              		@ sp needed
 766 001a 5DF8047B 		ldr	r7, [sp], #4
 767              	.LCFI83:
 768              		.cfi_restore 7
 769              		.cfi_def_cfa_offset 0
 770 001e 7047     		bx	lr
 771              	.L42:
 772              		.align	2
 773              	.L41:
 774 0020 00040140 		.word	1073808384
 775              		.cfi_endproc
 776              	.LFE682:
 778              		.section	.text.LL_EXTI_DisableFallingTrig_0_31,"ax",%progbits
 779              		.align	1
 780              		.syntax unified
 781              		.thumb
 782              		.thumb_func
 783              		.fpu fpv4-sp-d16
 785              	LL_EXTI_DisableFallingTrig_0_31:
 786              	.LFB683:
 983:Drivers/STM32F3xx_HAL_Driver/Inc/stm32f3xx_ll_exti.h **** #endif
 984:Drivers/STM32F3xx_HAL_Driver/Inc/stm32f3xx_ll_exti.h **** 
 985:Drivers/STM32F3xx_HAL_Driver/Inc/stm32f3xx_ll_exti.h **** /**
 986:Drivers/STM32F3xx_HAL_Driver/Inc/stm32f3xx_ll_exti.h ****   * @brief  Disable ExtiLine Falling Edge Trigger for Lines in range 0 to 31
 987:Drivers/STM32F3xx_HAL_Driver/Inc/stm32f3xx_ll_exti.h ****   * @note The configurable wakeup lines are edge-triggered. No glitch must be
 988:Drivers/STM32F3xx_HAL_Driver/Inc/stm32f3xx_ll_exti.h ****   *       generated on these lines. If a Falling edge on a configurable interrupt
 989:Drivers/STM32F3xx_HAL_Driver/Inc/stm32f3xx_ll_exti.h ****   *       line occurs during a write operation in the EXTI_FTSR register, the
 990:Drivers/STM32F3xx_HAL_Driver/Inc/stm32f3xx_ll_exti.h ****   *       pending bit is not set.
 991:Drivers/STM32F3xx_HAL_Driver/Inc/stm32f3xx_ll_exti.h ****   *       Rising and falling edge triggers can be set for the same interrupt line.
 992:Drivers/STM32F3xx_HAL_Driver/Inc/stm32f3xx_ll_exti.h ****   *       In this case, both generate a trigger condition.
 993:Drivers/STM32F3xx_HAL_Driver/Inc/stm32f3xx_ll_exti.h ****   * @rmtoll FTSR        FTx           LL_EXTI_DisableFallingTrig_0_31
 994:Drivers/STM32F3xx_HAL_Driver/Inc/stm32f3xx_ll_exti.h ****   * @param  ExtiLine This parameter can be a combination of the following values:
 995:Drivers/STM32F3xx_HAL_Driver/Inc/stm32f3xx_ll_exti.h ****   *         @arg @ref LL_EXTI_LINE_0
 996:Drivers/STM32F3xx_HAL_Driver/Inc/stm32f3xx_ll_exti.h ****   *         @arg @ref LL_EXTI_LINE_1
 997:Drivers/STM32F3xx_HAL_Driver/Inc/stm32f3xx_ll_exti.h ****   *         @arg @ref LL_EXTI_LINE_2
 998:Drivers/STM32F3xx_HAL_Driver/Inc/stm32f3xx_ll_exti.h ****   *         @arg @ref LL_EXTI_LINE_3
 999:Drivers/STM32F3xx_HAL_Driver/Inc/stm32f3xx_ll_exti.h ****   *         @arg @ref LL_EXTI_LINE_4
1000:Drivers/STM32F3xx_HAL_Driver/Inc/stm32f3xx_ll_exti.h ****   *         @arg @ref LL_EXTI_LINE_5
1001:Drivers/STM32F3xx_HAL_Driver/Inc/stm32f3xx_ll_exti.h ****   *         @arg @ref LL_EXTI_LINE_6
1002:Drivers/STM32F3xx_HAL_Driver/Inc/stm32f3xx_ll_exti.h ****   *         @arg @ref LL_EXTI_LINE_7
1003:Drivers/STM32F3xx_HAL_Driver/Inc/stm32f3xx_ll_exti.h ****   *         @arg @ref LL_EXTI_LINE_8
1004:Drivers/STM32F3xx_HAL_Driver/Inc/stm32f3xx_ll_exti.h ****   *         @arg @ref LL_EXTI_LINE_9
1005:Drivers/STM32F3xx_HAL_Driver/Inc/stm32f3xx_ll_exti.h ****   *         @arg @ref LL_EXTI_LINE_10
1006:Drivers/STM32F3xx_HAL_Driver/Inc/stm32f3xx_ll_exti.h ****   *         @arg @ref LL_EXTI_LINE_11
1007:Drivers/STM32F3xx_HAL_Driver/Inc/stm32f3xx_ll_exti.h ****   *         @arg @ref LL_EXTI_LINE_12
1008:Drivers/STM32F3xx_HAL_Driver/Inc/stm32f3xx_ll_exti.h ****   *         @arg @ref LL_EXTI_LINE_13
1009:Drivers/STM32F3xx_HAL_Driver/Inc/stm32f3xx_ll_exti.h ****   *         @arg @ref LL_EXTI_LINE_14
1010:Drivers/STM32F3xx_HAL_Driver/Inc/stm32f3xx_ll_exti.h ****   *         @arg @ref LL_EXTI_LINE_15
1011:Drivers/STM32F3xx_HAL_Driver/Inc/stm32f3xx_ll_exti.h ****   *         @arg @ref LL_EXTI_LINE_16
1012:Drivers/STM32F3xx_HAL_Driver/Inc/stm32f3xx_ll_exti.h ****   *         @arg @ref LL_EXTI_LINE_18
ARM GAS  /tmp/cc3fRK7k.s 			page 32


1013:Drivers/STM32F3xx_HAL_Driver/Inc/stm32f3xx_ll_exti.h ****   *         @arg @ref LL_EXTI_LINE_19
1014:Drivers/STM32F3xx_HAL_Driver/Inc/stm32f3xx_ll_exti.h ****   *         @arg @ref LL_EXTI_LINE_20
1015:Drivers/STM32F3xx_HAL_Driver/Inc/stm32f3xx_ll_exti.h ****   *         @arg @ref LL_EXTI_LINE_21
1016:Drivers/STM32F3xx_HAL_Driver/Inc/stm32f3xx_ll_exti.h ****   *         @arg @ref LL_EXTI_LINE_22
1017:Drivers/STM32F3xx_HAL_Driver/Inc/stm32f3xx_ll_exti.h ****   *         @arg @ref LL_EXTI_LINE_29
1018:Drivers/STM32F3xx_HAL_Driver/Inc/stm32f3xx_ll_exti.h ****   *         @arg @ref LL_EXTI_LINE_30
1019:Drivers/STM32F3xx_HAL_Driver/Inc/stm32f3xx_ll_exti.h ****   *         @arg @ref LL_EXTI_LINE_31
1020:Drivers/STM32F3xx_HAL_Driver/Inc/stm32f3xx_ll_exti.h ****   * @note   Please check each device line mapping for EXTI Line availability
1021:Drivers/STM32F3xx_HAL_Driver/Inc/stm32f3xx_ll_exti.h ****   * @retval None
1022:Drivers/STM32F3xx_HAL_Driver/Inc/stm32f3xx_ll_exti.h ****   */
1023:Drivers/STM32F3xx_HAL_Driver/Inc/stm32f3xx_ll_exti.h **** __STATIC_INLINE void LL_EXTI_DisableFallingTrig_0_31(uint32_t ExtiLine)
1024:Drivers/STM32F3xx_HAL_Driver/Inc/stm32f3xx_ll_exti.h **** {
 787              		.loc 1 1024 0
 788              		.cfi_startproc
 789              		@ args = 0, pretend = 0, frame = 8
 790              		@ frame_needed = 1, uses_anonymous_args = 0
 791              		@ link register save eliminated.
 792 0000 80B4     		push	{r7}
 793              	.LCFI84:
 794              		.cfi_def_cfa_offset 4
 795              		.cfi_offset 7, -4
 796 0002 83B0     		sub	sp, sp, #12
 797              	.LCFI85:
 798              		.cfi_def_cfa_offset 16
 799 0004 00AF     		add	r7, sp, #0
 800              	.LCFI86:
 801              		.cfi_def_cfa_register 7
 802 0006 7860     		str	r0, [r7, #4]
1025:Drivers/STM32F3xx_HAL_Driver/Inc/stm32f3xx_ll_exti.h ****   CLEAR_BIT(EXTI->FTSR, ExtiLine);
 803              		.loc 1 1025 0
 804 0008 064B     		ldr	r3, .L44
 805 000a DA68     		ldr	r2, [r3, #12]
 806 000c 7B68     		ldr	r3, [r7, #4]
 807 000e DB43     		mvns	r3, r3
 808 0010 0449     		ldr	r1, .L44
 809 0012 1340     		ands	r3, r3, r2
 810 0014 CB60     		str	r3, [r1, #12]
1026:Drivers/STM32F3xx_HAL_Driver/Inc/stm32f3xx_ll_exti.h **** }
 811              		.loc 1 1026 0
 812 0016 00BF     		nop
 813 0018 0C37     		adds	r7, r7, #12
 814              	.LCFI87:
 815              		.cfi_def_cfa_offset 4
 816 001a BD46     		mov	sp, r7
 817              	.LCFI88:
 818              		.cfi_def_cfa_register 13
 819              		@ sp needed
 820 001c 5DF8047B 		ldr	r7, [sp], #4
 821              	.LCFI89:
 822              		.cfi_restore 7
 823              		.cfi_def_cfa_offset 0
 824 0020 7047     		bx	lr
 825              	.L45:
 826 0022 00BF     		.align	2
 827              	.L44:
 828 0024 00040140 		.word	1073808384
 829              		.cfi_endproc
ARM GAS  /tmp/cc3fRK7k.s 			page 33


 830              	.LFE683:
 832              		.section	.text.LL_EXTI_DisableFallingTrig_32_63,"ax",%progbits
 833              		.align	1
 834              		.syntax unified
 835              		.thumb
 836              		.thumb_func
 837              		.fpu fpv4-sp-d16
 839              	LL_EXTI_DisableFallingTrig_32_63:
 840              	.LFB684:
1027:Drivers/STM32F3xx_HAL_Driver/Inc/stm32f3xx_ll_exti.h **** 
1028:Drivers/STM32F3xx_HAL_Driver/Inc/stm32f3xx_ll_exti.h **** #if defined(EXTI_32_63_SUPPORT)
1029:Drivers/STM32F3xx_HAL_Driver/Inc/stm32f3xx_ll_exti.h **** /**
1030:Drivers/STM32F3xx_HAL_Driver/Inc/stm32f3xx_ll_exti.h ****   * @brief  Disable ExtiLine Falling Edge Trigger for Lines in range 32 to 63
1031:Drivers/STM32F3xx_HAL_Driver/Inc/stm32f3xx_ll_exti.h ****   * @note The configurable wakeup lines are edge-triggered. No glitch must be
1032:Drivers/STM32F3xx_HAL_Driver/Inc/stm32f3xx_ll_exti.h ****   *       generated on these lines. If a Falling edge on a configurable interrupt
1033:Drivers/STM32F3xx_HAL_Driver/Inc/stm32f3xx_ll_exti.h ****   *       line occurs during a write operation in the EXTI_FTSR register, the
1034:Drivers/STM32F3xx_HAL_Driver/Inc/stm32f3xx_ll_exti.h ****   *       pending bit is not set.
1035:Drivers/STM32F3xx_HAL_Driver/Inc/stm32f3xx_ll_exti.h ****   *       Rising and falling edge triggers can be set for the same interrupt line.
1036:Drivers/STM32F3xx_HAL_Driver/Inc/stm32f3xx_ll_exti.h ****   *       In this case, both generate a trigger condition.
1037:Drivers/STM32F3xx_HAL_Driver/Inc/stm32f3xx_ll_exti.h ****   * @rmtoll FTSR2        FTx           LL_EXTI_DisableFallingTrig_32_63
1038:Drivers/STM32F3xx_HAL_Driver/Inc/stm32f3xx_ll_exti.h ****   * @param  ExtiLine This parameter can be a combination of the following values:
1039:Drivers/STM32F3xx_HAL_Driver/Inc/stm32f3xx_ll_exti.h ****   *         @arg @ref LL_EXTI_LINE_35
1040:Drivers/STM32F3xx_HAL_Driver/Inc/stm32f3xx_ll_exti.h ****   *         @arg @ref LL_EXTI_LINE_36
1041:Drivers/STM32F3xx_HAL_Driver/Inc/stm32f3xx_ll_exti.h ****   *         @arg @ref LL_EXTI_LINE_37
1042:Drivers/STM32F3xx_HAL_Driver/Inc/stm32f3xx_ll_exti.h ****   *         @arg @ref LL_EXTI_LINE_38
1043:Drivers/STM32F3xx_HAL_Driver/Inc/stm32f3xx_ll_exti.h ****   * @retval None
1044:Drivers/STM32F3xx_HAL_Driver/Inc/stm32f3xx_ll_exti.h ****   */
1045:Drivers/STM32F3xx_HAL_Driver/Inc/stm32f3xx_ll_exti.h **** __STATIC_INLINE void LL_EXTI_DisableFallingTrig_32_63(uint32_t ExtiLine)
1046:Drivers/STM32F3xx_HAL_Driver/Inc/stm32f3xx_ll_exti.h **** {
 841              		.loc 1 1046 0
 842              		.cfi_startproc
 843              		@ args = 0, pretend = 0, frame = 8
 844              		@ frame_needed = 1, uses_anonymous_args = 0
 845              		@ link register save eliminated.
 846 0000 80B4     		push	{r7}
 847              	.LCFI90:
 848              		.cfi_def_cfa_offset 4
 849              		.cfi_offset 7, -4
 850 0002 83B0     		sub	sp, sp, #12
 851              	.LCFI91:
 852              		.cfi_def_cfa_offset 16
 853 0004 00AF     		add	r7, sp, #0
 854              	.LCFI92:
 855              		.cfi_def_cfa_register 7
 856 0006 7860     		str	r0, [r7, #4]
1047:Drivers/STM32F3xx_HAL_Driver/Inc/stm32f3xx_ll_exti.h ****   CLEAR_BIT(EXTI->FTSR2, ExtiLine);
 857              		.loc 1 1047 0
 858 0008 064B     		ldr	r3, .L47
 859 000a DA6A     		ldr	r2, [r3, #44]
 860 000c 7B68     		ldr	r3, [r7, #4]
 861 000e DB43     		mvns	r3, r3
 862 0010 0449     		ldr	r1, .L47
 863 0012 1340     		ands	r3, r3, r2
 864 0014 CB62     		str	r3, [r1, #44]
1048:Drivers/STM32F3xx_HAL_Driver/Inc/stm32f3xx_ll_exti.h **** }
 865              		.loc 1 1048 0
 866 0016 00BF     		nop
ARM GAS  /tmp/cc3fRK7k.s 			page 34


 867 0018 0C37     		adds	r7, r7, #12
 868              	.LCFI93:
 869              		.cfi_def_cfa_offset 4
 870 001a BD46     		mov	sp, r7
 871              	.LCFI94:
 872              		.cfi_def_cfa_register 13
 873              		@ sp needed
 874 001c 5DF8047B 		ldr	r7, [sp], #4
 875              	.LCFI95:
 876              		.cfi_restore 7
 877              		.cfi_def_cfa_offset 0
 878 0020 7047     		bx	lr
 879              	.L48:
 880 0022 00BF     		.align	2
 881              	.L47:
 882 0024 00040140 		.word	1073808384
 883              		.cfi_endproc
 884              	.LFE684:
 886              		.section	.text.LL_EXTI_DeInit,"ax",%progbits
 887              		.align	1
 888              		.global	LL_EXTI_DeInit
 889              		.syntax unified
 890              		.thumb
 891              		.thumb_func
 892              		.fpu fpv4-sp-d16
 894              	LL_EXTI_DeInit:
 895              	.LFB695:
 896              		.file 2 "Drivers/STM32F3xx_HAL_Driver/Src/stm32f3xx_ll_exti.c"
   1:Drivers/STM32F3xx_HAL_Driver/Src/stm32f3xx_ll_exti.c **** /**
   2:Drivers/STM32F3xx_HAL_Driver/Src/stm32f3xx_ll_exti.c ****   ******************************************************************************
   3:Drivers/STM32F3xx_HAL_Driver/Src/stm32f3xx_ll_exti.c ****   * @file    stm32f3xx_ll_exti.c
   4:Drivers/STM32F3xx_HAL_Driver/Src/stm32f3xx_ll_exti.c ****   * @author  MCD Application Team
   5:Drivers/STM32F3xx_HAL_Driver/Src/stm32f3xx_ll_exti.c ****   * @brief   EXTI LL module driver.
   6:Drivers/STM32F3xx_HAL_Driver/Src/stm32f3xx_ll_exti.c ****   ******************************************************************************
   7:Drivers/STM32F3xx_HAL_Driver/Src/stm32f3xx_ll_exti.c ****   * @attention
   8:Drivers/STM32F3xx_HAL_Driver/Src/stm32f3xx_ll_exti.c ****   *
   9:Drivers/STM32F3xx_HAL_Driver/Src/stm32f3xx_ll_exti.c ****   * <h2><center>&copy; COPYRIGHT(c) 2016 STMicroelectronics</center></h2>
  10:Drivers/STM32F3xx_HAL_Driver/Src/stm32f3xx_ll_exti.c ****   *
  11:Drivers/STM32F3xx_HAL_Driver/Src/stm32f3xx_ll_exti.c ****   * Redistribution and use in source and binary forms, with or without modification,
  12:Drivers/STM32F3xx_HAL_Driver/Src/stm32f3xx_ll_exti.c ****   * are permitted provided that the following conditions are met:
  13:Drivers/STM32F3xx_HAL_Driver/Src/stm32f3xx_ll_exti.c ****   *   1. Redistributions of source code must retain the above copyright notice,
  14:Drivers/STM32F3xx_HAL_Driver/Src/stm32f3xx_ll_exti.c ****   *      this list of conditions and the following disclaimer.
  15:Drivers/STM32F3xx_HAL_Driver/Src/stm32f3xx_ll_exti.c ****   *   2. Redistributions in binary form must reproduce the above copyright notice,
  16:Drivers/STM32F3xx_HAL_Driver/Src/stm32f3xx_ll_exti.c ****   *      this list of conditions and the following disclaimer in the documentation
  17:Drivers/STM32F3xx_HAL_Driver/Src/stm32f3xx_ll_exti.c ****   *      and/or other materials provided with the distribution.
  18:Drivers/STM32F3xx_HAL_Driver/Src/stm32f3xx_ll_exti.c ****   *   3. Neither the name of STMicroelectronics nor the names of its contributors
  19:Drivers/STM32F3xx_HAL_Driver/Src/stm32f3xx_ll_exti.c ****   *      may be used to endorse or promote products derived from this software
  20:Drivers/STM32F3xx_HAL_Driver/Src/stm32f3xx_ll_exti.c ****   *      without specific prior written permission.
  21:Drivers/STM32F3xx_HAL_Driver/Src/stm32f3xx_ll_exti.c ****   *
  22:Drivers/STM32F3xx_HAL_Driver/Src/stm32f3xx_ll_exti.c ****   * THIS SOFTWARE IS PROVIDED BY THE COPYRIGHT HOLDERS AND CONTRIBUTORS "AS IS"
  23:Drivers/STM32F3xx_HAL_Driver/Src/stm32f3xx_ll_exti.c ****   * AND ANY EXPRESS OR IMPLIED WARRANTIES, INCLUDING, BUT NOT LIMITED TO, THE
  24:Drivers/STM32F3xx_HAL_Driver/Src/stm32f3xx_ll_exti.c ****   * IMPLIED WARRANTIES OF MERCHANTABILITY AND FITNESS FOR A PARTICULAR PURPOSE ARE
  25:Drivers/STM32F3xx_HAL_Driver/Src/stm32f3xx_ll_exti.c ****   * DISCLAIMED. IN NO EVENT SHALL THE COPYRIGHT HOLDER OR CONTRIBUTORS BE LIABLE
  26:Drivers/STM32F3xx_HAL_Driver/Src/stm32f3xx_ll_exti.c ****   * FOR ANY DIRECT, INDIRECT, INCIDENTAL, SPECIAL, EXEMPLARY, OR CONSEQUENTIAL
  27:Drivers/STM32F3xx_HAL_Driver/Src/stm32f3xx_ll_exti.c ****   * DAMAGES (INCLUDING, BUT NOT LIMITED TO, PROCUREMENT OF SUBSTITUTE GOODS OR
  28:Drivers/STM32F3xx_HAL_Driver/Src/stm32f3xx_ll_exti.c ****   * SERVICES; LOSS OF USE, DATA, OR PROFITS; OR BUSINESS INTERRUPTION) HOWEVER
  29:Drivers/STM32F3xx_HAL_Driver/Src/stm32f3xx_ll_exti.c ****   * CAUSED AND ON ANY THEORY OF LIABILITY, WHETHER IN CONTRACT, STRICT LIABILITY,
ARM GAS  /tmp/cc3fRK7k.s 			page 35


  30:Drivers/STM32F3xx_HAL_Driver/Src/stm32f3xx_ll_exti.c ****   * OR TORT (INCLUDING NEGLIGENCE OR OTHERWISE) ARISING IN ANY WAY OUT OF THE USE
  31:Drivers/STM32F3xx_HAL_Driver/Src/stm32f3xx_ll_exti.c ****   * OF THIS SOFTWARE, EVEN IF ADVISED OF THE POSSIBILITY OF SUCH DAMAGE.
  32:Drivers/STM32F3xx_HAL_Driver/Src/stm32f3xx_ll_exti.c ****   *
  33:Drivers/STM32F3xx_HAL_Driver/Src/stm32f3xx_ll_exti.c ****   ******************************************************************************
  34:Drivers/STM32F3xx_HAL_Driver/Src/stm32f3xx_ll_exti.c ****   */
  35:Drivers/STM32F3xx_HAL_Driver/Src/stm32f3xx_ll_exti.c **** #if defined(USE_FULL_LL_DRIVER)
  36:Drivers/STM32F3xx_HAL_Driver/Src/stm32f3xx_ll_exti.c **** 
  37:Drivers/STM32F3xx_HAL_Driver/Src/stm32f3xx_ll_exti.c **** /* Includes ------------------------------------------------------------------*/
  38:Drivers/STM32F3xx_HAL_Driver/Src/stm32f3xx_ll_exti.c **** #include "stm32f3xx_ll_exti.h"
  39:Drivers/STM32F3xx_HAL_Driver/Src/stm32f3xx_ll_exti.c **** #ifdef  USE_FULL_ASSERT
  40:Drivers/STM32F3xx_HAL_Driver/Src/stm32f3xx_ll_exti.c **** #include "stm32_assert.h"
  41:Drivers/STM32F3xx_HAL_Driver/Src/stm32f3xx_ll_exti.c **** #else
  42:Drivers/STM32F3xx_HAL_Driver/Src/stm32f3xx_ll_exti.c **** #define assert_param(expr) ((void)0U)
  43:Drivers/STM32F3xx_HAL_Driver/Src/stm32f3xx_ll_exti.c **** #endif
  44:Drivers/STM32F3xx_HAL_Driver/Src/stm32f3xx_ll_exti.c **** 
  45:Drivers/STM32F3xx_HAL_Driver/Src/stm32f3xx_ll_exti.c **** /** @addtogroup STM32F3xx_LL_Driver
  46:Drivers/STM32F3xx_HAL_Driver/Src/stm32f3xx_ll_exti.c ****   * @{
  47:Drivers/STM32F3xx_HAL_Driver/Src/stm32f3xx_ll_exti.c ****   */
  48:Drivers/STM32F3xx_HAL_Driver/Src/stm32f3xx_ll_exti.c **** 
  49:Drivers/STM32F3xx_HAL_Driver/Src/stm32f3xx_ll_exti.c **** #if defined (EXTI)
  50:Drivers/STM32F3xx_HAL_Driver/Src/stm32f3xx_ll_exti.c **** 
  51:Drivers/STM32F3xx_HAL_Driver/Src/stm32f3xx_ll_exti.c **** /** @defgroup EXTI_LL EXTI
  52:Drivers/STM32F3xx_HAL_Driver/Src/stm32f3xx_ll_exti.c ****   * @{
  53:Drivers/STM32F3xx_HAL_Driver/Src/stm32f3xx_ll_exti.c ****   */
  54:Drivers/STM32F3xx_HAL_Driver/Src/stm32f3xx_ll_exti.c **** 
  55:Drivers/STM32F3xx_HAL_Driver/Src/stm32f3xx_ll_exti.c **** /* Private types -------------------------------------------------------------*/
  56:Drivers/STM32F3xx_HAL_Driver/Src/stm32f3xx_ll_exti.c **** /* Private variables ---------------------------------------------------------*/
  57:Drivers/STM32F3xx_HAL_Driver/Src/stm32f3xx_ll_exti.c **** /* Private constants ---------------------------------------------------------*/
  58:Drivers/STM32F3xx_HAL_Driver/Src/stm32f3xx_ll_exti.c **** /* Private macros ------------------------------------------------------------*/
  59:Drivers/STM32F3xx_HAL_Driver/Src/stm32f3xx_ll_exti.c **** /** @addtogroup EXTI_LL_Private_Macros
  60:Drivers/STM32F3xx_HAL_Driver/Src/stm32f3xx_ll_exti.c ****   * @{
  61:Drivers/STM32F3xx_HAL_Driver/Src/stm32f3xx_ll_exti.c ****   */
  62:Drivers/STM32F3xx_HAL_Driver/Src/stm32f3xx_ll_exti.c **** 
  63:Drivers/STM32F3xx_HAL_Driver/Src/stm32f3xx_ll_exti.c **** #define IS_LL_EXTI_LINE_0_31(__VALUE__)              (((__VALUE__) & ~LL_EXTI_LINE_ALL_0_31) == 0x0
  64:Drivers/STM32F3xx_HAL_Driver/Src/stm32f3xx_ll_exti.c **** #if defined(EXTI_32_63_SUPPORT)
  65:Drivers/STM32F3xx_HAL_Driver/Src/stm32f3xx_ll_exti.c **** #define IS_LL_EXTI_LINE_32_63(__VALUE__)             (((__VALUE__) & ~LL_EXTI_LINE_ALL_32_63) == 0x
  66:Drivers/STM32F3xx_HAL_Driver/Src/stm32f3xx_ll_exti.c **** #endif
  67:Drivers/STM32F3xx_HAL_Driver/Src/stm32f3xx_ll_exti.c **** 
  68:Drivers/STM32F3xx_HAL_Driver/Src/stm32f3xx_ll_exti.c **** #define IS_LL_EXTI_MODE(__VALUE__)                   (((__VALUE__) == LL_EXTI_MODE_IT)            \
  69:Drivers/STM32F3xx_HAL_Driver/Src/stm32f3xx_ll_exti.c ****                                                    || ((__VALUE__) == LL_EXTI_MODE_EVENT)         \
  70:Drivers/STM32F3xx_HAL_Driver/Src/stm32f3xx_ll_exti.c ****                                                    || ((__VALUE__) == LL_EXTI_MODE_IT_EVENT))
  71:Drivers/STM32F3xx_HAL_Driver/Src/stm32f3xx_ll_exti.c **** 
  72:Drivers/STM32F3xx_HAL_Driver/Src/stm32f3xx_ll_exti.c **** 
  73:Drivers/STM32F3xx_HAL_Driver/Src/stm32f3xx_ll_exti.c **** #define IS_LL_EXTI_TRIGGER(__VALUE__)                (((__VALUE__) == LL_EXTI_TRIGGER_NONE)       \
  74:Drivers/STM32F3xx_HAL_Driver/Src/stm32f3xx_ll_exti.c ****                                                    || ((__VALUE__) == LL_EXTI_TRIGGER_RISING)     \
  75:Drivers/STM32F3xx_HAL_Driver/Src/stm32f3xx_ll_exti.c ****                                                    || ((__VALUE__) == LL_EXTI_TRIGGER_FALLING)    \
  76:Drivers/STM32F3xx_HAL_Driver/Src/stm32f3xx_ll_exti.c ****                                                    || ((__VALUE__) == LL_EXTI_TRIGGER_RISING_FALLIN
  77:Drivers/STM32F3xx_HAL_Driver/Src/stm32f3xx_ll_exti.c **** 
  78:Drivers/STM32F3xx_HAL_Driver/Src/stm32f3xx_ll_exti.c **** /**
  79:Drivers/STM32F3xx_HAL_Driver/Src/stm32f3xx_ll_exti.c ****   * @}
  80:Drivers/STM32F3xx_HAL_Driver/Src/stm32f3xx_ll_exti.c ****   */
  81:Drivers/STM32F3xx_HAL_Driver/Src/stm32f3xx_ll_exti.c **** 
  82:Drivers/STM32F3xx_HAL_Driver/Src/stm32f3xx_ll_exti.c **** /* Private function prototypes -----------------------------------------------*/
  83:Drivers/STM32F3xx_HAL_Driver/Src/stm32f3xx_ll_exti.c **** 
  84:Drivers/STM32F3xx_HAL_Driver/Src/stm32f3xx_ll_exti.c **** /* Exported functions --------------------------------------------------------*/
  85:Drivers/STM32F3xx_HAL_Driver/Src/stm32f3xx_ll_exti.c **** /** @addtogroup EXTI_LL_Exported_Functions
  86:Drivers/STM32F3xx_HAL_Driver/Src/stm32f3xx_ll_exti.c ****   * @{
ARM GAS  /tmp/cc3fRK7k.s 			page 36


  87:Drivers/STM32F3xx_HAL_Driver/Src/stm32f3xx_ll_exti.c ****   */
  88:Drivers/STM32F3xx_HAL_Driver/Src/stm32f3xx_ll_exti.c **** 
  89:Drivers/STM32F3xx_HAL_Driver/Src/stm32f3xx_ll_exti.c **** /** @addtogroup EXTI_LL_EF_Init
  90:Drivers/STM32F3xx_HAL_Driver/Src/stm32f3xx_ll_exti.c ****   * @{
  91:Drivers/STM32F3xx_HAL_Driver/Src/stm32f3xx_ll_exti.c ****   */
  92:Drivers/STM32F3xx_HAL_Driver/Src/stm32f3xx_ll_exti.c **** 
  93:Drivers/STM32F3xx_HAL_Driver/Src/stm32f3xx_ll_exti.c **** /**
  94:Drivers/STM32F3xx_HAL_Driver/Src/stm32f3xx_ll_exti.c ****   * @brief  De-initialize the EXTI registers to their default reset values.
  95:Drivers/STM32F3xx_HAL_Driver/Src/stm32f3xx_ll_exti.c ****   * @retval An ErrorStatus enumeration value:
  96:Drivers/STM32F3xx_HAL_Driver/Src/stm32f3xx_ll_exti.c ****   *          - SUCCESS: EXTI registers are de-initialized
  97:Drivers/STM32F3xx_HAL_Driver/Src/stm32f3xx_ll_exti.c ****   *          - ERROR: not applicable
  98:Drivers/STM32F3xx_HAL_Driver/Src/stm32f3xx_ll_exti.c ****   */
  99:Drivers/STM32F3xx_HAL_Driver/Src/stm32f3xx_ll_exti.c **** uint32_t LL_EXTI_DeInit(void)
 100:Drivers/STM32F3xx_HAL_Driver/Src/stm32f3xx_ll_exti.c **** {
 897              		.loc 2 100 0
 898              		.cfi_startproc
 899              		@ args = 0, pretend = 0, frame = 0
 900              		@ frame_needed = 1, uses_anonymous_args = 0
 901              		@ link register save eliminated.
 902 0000 80B4     		push	{r7}
 903              	.LCFI96:
 904              		.cfi_def_cfa_offset 4
 905              		.cfi_offset 7, -4
 906 0002 00AF     		add	r7, sp, #0
 907              	.LCFI97:
 908              		.cfi_def_cfa_register 7
 101:Drivers/STM32F3xx_HAL_Driver/Src/stm32f3xx_ll_exti.c ****   /* Interrupt mask register set to default reset values */
 102:Drivers/STM32F3xx_HAL_Driver/Src/stm32f3xx_ll_exti.c ****   LL_EXTI_WriteReg(IMR,   0x1F800000U);
 909              		.loc 2 102 0
 910 0004 154B     		ldr	r3, .L51
 911 0006 4FF0FC52 		mov	r2, #528482304
 912 000a 1A60     		str	r2, [r3]
 103:Drivers/STM32F3xx_HAL_Driver/Src/stm32f3xx_ll_exti.c ****   /* Event mask register set to default reset values */
 104:Drivers/STM32F3xx_HAL_Driver/Src/stm32f3xx_ll_exti.c ****   LL_EXTI_WriteReg(EMR,   0x00000000U);
 913              		.loc 2 104 0
 914 000c 134B     		ldr	r3, .L51
 915 000e 0022     		movs	r2, #0
 916 0010 5A60     		str	r2, [r3, #4]
 105:Drivers/STM32F3xx_HAL_Driver/Src/stm32f3xx_ll_exti.c ****   /* Rising Trigger selection register set to default reset values */
 106:Drivers/STM32F3xx_HAL_Driver/Src/stm32f3xx_ll_exti.c ****   LL_EXTI_WriteReg(RTSR,  0x00000000U);
 917              		.loc 2 106 0
 918 0012 124B     		ldr	r3, .L51
 919 0014 0022     		movs	r2, #0
 920 0016 9A60     		str	r2, [r3, #8]
 107:Drivers/STM32F3xx_HAL_Driver/Src/stm32f3xx_ll_exti.c ****   /* Falling Trigger selection register set to default reset values */
 108:Drivers/STM32F3xx_HAL_Driver/Src/stm32f3xx_ll_exti.c ****   LL_EXTI_WriteReg(FTSR,  0x00000000U);
 921              		.loc 2 108 0
 922 0018 104B     		ldr	r3, .L51
 923 001a 0022     		movs	r2, #0
 924 001c DA60     		str	r2, [r3, #12]
 109:Drivers/STM32F3xx_HAL_Driver/Src/stm32f3xx_ll_exti.c ****   /* Software interrupt event register set to default reset values */
 110:Drivers/STM32F3xx_HAL_Driver/Src/stm32f3xx_ll_exti.c ****   LL_EXTI_WriteReg(SWIER, 0x00000000U);
 925              		.loc 2 110 0
 926 001e 0F4B     		ldr	r3, .L51
 927 0020 0022     		movs	r2, #0
 928 0022 1A61     		str	r2, [r3, #16]
 111:Drivers/STM32F3xx_HAL_Driver/Src/stm32f3xx_ll_exti.c ****   /* Pending register clear */
ARM GAS  /tmp/cc3fRK7k.s 			page 37


 112:Drivers/STM32F3xx_HAL_Driver/Src/stm32f3xx_ll_exti.c ****   LL_EXTI_WriteReg(PR,    0x007FFFFFU);
 929              		.loc 2 112 0
 930 0024 0D4B     		ldr	r3, .L51
 931 0026 0E4A     		ldr	r2, .L51+4
 932 0028 5A61     		str	r2, [r3, #20]
 113:Drivers/STM32F3xx_HAL_Driver/Src/stm32f3xx_ll_exti.c **** 
 114:Drivers/STM32F3xx_HAL_Driver/Src/stm32f3xx_ll_exti.c **** #if defined(EXTI_32_63_SUPPORT)
 115:Drivers/STM32F3xx_HAL_Driver/Src/stm32f3xx_ll_exti.c ****   /* Interrupt mask register 2 set to default reset values */
 116:Drivers/STM32F3xx_HAL_Driver/Src/stm32f3xx_ll_exti.c **** #if defined(STM32F334x8)
 117:Drivers/STM32F3xx_HAL_Driver/Src/stm32f3xx_ll_exti.c ****   LL_EXTI_WriteReg(IMR2,        0xFFFFFFFEU);
 118:Drivers/STM32F3xx_HAL_Driver/Src/stm32f3xx_ll_exti.c **** #else
 119:Drivers/STM32F3xx_HAL_Driver/Src/stm32f3xx_ll_exti.c ****   LL_EXTI_WriteReg(IMR2,        0xFFFFFFFCU);
 933              		.loc 2 119 0
 934 002a 0C4B     		ldr	r3, .L51
 935 002c 6FF00302 		mvn	r2, #3
 936 0030 1A62     		str	r2, [r3, #32]
 120:Drivers/STM32F3xx_HAL_Driver/Src/stm32f3xx_ll_exti.c **** #endif  
 121:Drivers/STM32F3xx_HAL_Driver/Src/stm32f3xx_ll_exti.c ****   /* Event mask register 2 set to default reset values */
 122:Drivers/STM32F3xx_HAL_Driver/Src/stm32f3xx_ll_exti.c ****   LL_EXTI_WriteReg(EMR2,        0x00000000U);
 937              		.loc 2 122 0
 938 0032 0A4B     		ldr	r3, .L51
 939 0034 0022     		movs	r2, #0
 940 0036 5A62     		str	r2, [r3, #36]
 123:Drivers/STM32F3xx_HAL_Driver/Src/stm32f3xx_ll_exti.c ****   /* Rising Trigger selection register 2 set to default reset values */
 124:Drivers/STM32F3xx_HAL_Driver/Src/stm32f3xx_ll_exti.c ****   LL_EXTI_WriteReg(RTSR2,       0x00000000U);
 941              		.loc 2 124 0
 942 0038 084B     		ldr	r3, .L51
 943 003a 0022     		movs	r2, #0
 944 003c 9A62     		str	r2, [r3, #40]
 125:Drivers/STM32F3xx_HAL_Driver/Src/stm32f3xx_ll_exti.c ****   /* Falling Trigger selection register 2 set to default reset values */
 126:Drivers/STM32F3xx_HAL_Driver/Src/stm32f3xx_ll_exti.c ****   LL_EXTI_WriteReg(FTSR2,       0x00000000U);
 945              		.loc 2 126 0
 946 003e 074B     		ldr	r3, .L51
 947 0040 0022     		movs	r2, #0
 948 0042 DA62     		str	r2, [r3, #44]
 127:Drivers/STM32F3xx_HAL_Driver/Src/stm32f3xx_ll_exti.c ****   /* Software interrupt event register 2 set to default reset values */
 128:Drivers/STM32F3xx_HAL_Driver/Src/stm32f3xx_ll_exti.c ****   LL_EXTI_WriteReg(SWIER2,      0x00000000U);
 949              		.loc 2 128 0
 950 0044 054B     		ldr	r3, .L51
 951 0046 0022     		movs	r2, #0
 952 0048 1A63     		str	r2, [r3, #48]
 129:Drivers/STM32F3xx_HAL_Driver/Src/stm32f3xx_ll_exti.c ****   /* Pending register 2 clear */
 130:Drivers/STM32F3xx_HAL_Driver/Src/stm32f3xx_ll_exti.c ****   LL_EXTI_WriteReg(PR2,         0x00000003U);
 953              		.loc 2 130 0
 954 004a 044B     		ldr	r3, .L51
 955 004c 0322     		movs	r2, #3
 956 004e 5A63     		str	r2, [r3, #52]
 131:Drivers/STM32F3xx_HAL_Driver/Src/stm32f3xx_ll_exti.c **** 
 132:Drivers/STM32F3xx_HAL_Driver/Src/stm32f3xx_ll_exti.c **** #endif
 133:Drivers/STM32F3xx_HAL_Driver/Src/stm32f3xx_ll_exti.c ****   return SUCCESS;
 957              		.loc 2 133 0
 958 0050 0123     		movs	r3, #1
 134:Drivers/STM32F3xx_HAL_Driver/Src/stm32f3xx_ll_exti.c **** }
 959              		.loc 2 134 0
 960 0052 1846     		mov	r0, r3
 961 0054 BD46     		mov	sp, r7
 962              	.LCFI98:
ARM GAS  /tmp/cc3fRK7k.s 			page 38


 963              		.cfi_def_cfa_register 13
 964              		@ sp needed
 965 0056 5DF8047B 		ldr	r7, [sp], #4
 966              	.LCFI99:
 967              		.cfi_restore 7
 968              		.cfi_def_cfa_offset 0
 969 005a 7047     		bx	lr
 970              	.L52:
 971              		.align	2
 972              	.L51:
 973 005c 00040140 		.word	1073808384
 974 0060 FFFF7F00 		.word	8388607
 975              		.cfi_endproc
 976              	.LFE695:
 978              		.section	.text.LL_EXTI_Init,"ax",%progbits
 979              		.align	1
 980              		.global	LL_EXTI_Init
 981              		.syntax unified
 982              		.thumb
 983              		.thumb_func
 984              		.fpu fpv4-sp-d16
 986              	LL_EXTI_Init:
 987              	.LFB696:
 135:Drivers/STM32F3xx_HAL_Driver/Src/stm32f3xx_ll_exti.c **** 
 136:Drivers/STM32F3xx_HAL_Driver/Src/stm32f3xx_ll_exti.c **** /**
 137:Drivers/STM32F3xx_HAL_Driver/Src/stm32f3xx_ll_exti.c ****   * @brief  Initialize the EXTI registers according to the specified parameters in EXTI_InitStruct.
 138:Drivers/STM32F3xx_HAL_Driver/Src/stm32f3xx_ll_exti.c ****   * @param  EXTI_InitStruct pointer to a @ref LL_EXTI_InitTypeDef structure.
 139:Drivers/STM32F3xx_HAL_Driver/Src/stm32f3xx_ll_exti.c ****   * @retval An ErrorStatus enumeration value:
 140:Drivers/STM32F3xx_HAL_Driver/Src/stm32f3xx_ll_exti.c ****   *          - SUCCESS: EXTI registers are initialized
 141:Drivers/STM32F3xx_HAL_Driver/Src/stm32f3xx_ll_exti.c ****   *          - ERROR: not applicable
 142:Drivers/STM32F3xx_HAL_Driver/Src/stm32f3xx_ll_exti.c ****   */
 143:Drivers/STM32F3xx_HAL_Driver/Src/stm32f3xx_ll_exti.c **** uint32_t LL_EXTI_Init(LL_EXTI_InitTypeDef *EXTI_InitStruct)
 144:Drivers/STM32F3xx_HAL_Driver/Src/stm32f3xx_ll_exti.c **** {
 988              		.loc 2 144 0
 989              		.cfi_startproc
 990              		@ args = 0, pretend = 0, frame = 16
 991              		@ frame_needed = 1, uses_anonymous_args = 0
 992 0000 80B5     		push	{r7, lr}
 993              	.LCFI100:
 994              		.cfi_def_cfa_offset 8
 995              		.cfi_offset 7, -8
 996              		.cfi_offset 14, -4
 997 0002 84B0     		sub	sp, sp, #16
 998              	.LCFI101:
 999              		.cfi_def_cfa_offset 24
 1000 0004 00AF     		add	r7, sp, #0
 1001              	.LCFI102:
 1002              		.cfi_def_cfa_register 7
 1003 0006 7860     		str	r0, [r7, #4]
 145:Drivers/STM32F3xx_HAL_Driver/Src/stm32f3xx_ll_exti.c ****   ErrorStatus status = SUCCESS;
 1004              		.loc 2 145 0
 1005 0008 0123     		movs	r3, #1
 1006 000a FB73     		strb	r3, [r7, #15]
 146:Drivers/STM32F3xx_HAL_Driver/Src/stm32f3xx_ll_exti.c ****   /* Check the parameters */
 147:Drivers/STM32F3xx_HAL_Driver/Src/stm32f3xx_ll_exti.c ****   assert_param(IS_LL_EXTI_LINE_0_31(EXTI_InitStruct->Line_0_31));
 148:Drivers/STM32F3xx_HAL_Driver/Src/stm32f3xx_ll_exti.c **** #if defined(EXTI_32_63_SUPPORT)
 149:Drivers/STM32F3xx_HAL_Driver/Src/stm32f3xx_ll_exti.c ****   assert_param(IS_LL_EXTI_LINE_32_63(EXTI_InitStruct->Line_32_63));
ARM GAS  /tmp/cc3fRK7k.s 			page 39


 150:Drivers/STM32F3xx_HAL_Driver/Src/stm32f3xx_ll_exti.c **** #endif
 151:Drivers/STM32F3xx_HAL_Driver/Src/stm32f3xx_ll_exti.c ****   assert_param(IS_FUNCTIONAL_STATE(EXTI_InitStruct->LineCommand));
 152:Drivers/STM32F3xx_HAL_Driver/Src/stm32f3xx_ll_exti.c ****   assert_param(IS_LL_EXTI_MODE(EXTI_InitStruct->Mode));
 153:Drivers/STM32F3xx_HAL_Driver/Src/stm32f3xx_ll_exti.c **** 
 154:Drivers/STM32F3xx_HAL_Driver/Src/stm32f3xx_ll_exti.c ****   /* ENABLE LineCommand */
 155:Drivers/STM32F3xx_HAL_Driver/Src/stm32f3xx_ll_exti.c ****   if (EXTI_InitStruct->LineCommand != DISABLE)
 1007              		.loc 2 155 0
 1008 000c 7B68     		ldr	r3, [r7, #4]
 1009 000e 1B7A     		ldrb	r3, [r3, #8]	@ zero_extendqisi2
 1010 0010 002B     		cmp	r3, #0
 1011 0012 00F0C280 		beq	.L54
 156:Drivers/STM32F3xx_HAL_Driver/Src/stm32f3xx_ll_exti.c ****   {
 157:Drivers/STM32F3xx_HAL_Driver/Src/stm32f3xx_ll_exti.c ****     assert_param(IS_LL_EXTI_TRIGGER(EXTI_InitStruct->Trigger));
 158:Drivers/STM32F3xx_HAL_Driver/Src/stm32f3xx_ll_exti.c **** 
 159:Drivers/STM32F3xx_HAL_Driver/Src/stm32f3xx_ll_exti.c ****     /* Configure EXTI Lines in range from 0 to 31 */
 160:Drivers/STM32F3xx_HAL_Driver/Src/stm32f3xx_ll_exti.c ****     if (EXTI_InitStruct->Line_0_31 != LL_EXTI_LINE_NONE)
 1012              		.loc 2 160 0
 1013 0016 7B68     		ldr	r3, [r7, #4]
 1014 0018 1B68     		ldr	r3, [r3]
 1015 001a 002B     		cmp	r3, #0
 1016 001c 5BD0     		beq	.L81
 161:Drivers/STM32F3xx_HAL_Driver/Src/stm32f3xx_ll_exti.c ****     {
 162:Drivers/STM32F3xx_HAL_Driver/Src/stm32f3xx_ll_exti.c ****       switch (EXTI_InitStruct->Mode)
 1017              		.loc 2 162 0
 1018 001e 7B68     		ldr	r3, [r7, #4]
 1019 0020 5B7A     		ldrb	r3, [r3, #9]	@ zero_extendqisi2
 1020 0022 012B     		cmp	r3, #1
 1021 0024 0ED0     		beq	.L57
 1022 0026 022B     		cmp	r3, #2
 1023 0028 17D0     		beq	.L58
 1024 002a 002B     		cmp	r3, #0
 1025 002c 20D1     		bne	.L77
 163:Drivers/STM32F3xx_HAL_Driver/Src/stm32f3xx_ll_exti.c ****       {
 164:Drivers/STM32F3xx_HAL_Driver/Src/stm32f3xx_ll_exti.c ****         case LL_EXTI_MODE_IT:
 165:Drivers/STM32F3xx_HAL_Driver/Src/stm32f3xx_ll_exti.c ****           /* First Disable Event on provided Lines */
 166:Drivers/STM32F3xx_HAL_Driver/Src/stm32f3xx_ll_exti.c ****           LL_EXTI_DisableEvent_0_31(EXTI_InitStruct->Line_0_31);
 1026              		.loc 2 166 0
 1027 002e 7B68     		ldr	r3, [r7, #4]
 1028 0030 1B68     		ldr	r3, [r3]
 1029 0032 1846     		mov	r0, r3
 1030 0034 FFF7FEFF 		bl	LL_EXTI_DisableEvent_0_31
 167:Drivers/STM32F3xx_HAL_Driver/Src/stm32f3xx_ll_exti.c ****           /* Then Enable IT on provided Lines */
 168:Drivers/STM32F3xx_HAL_Driver/Src/stm32f3xx_ll_exti.c ****           LL_EXTI_EnableIT_0_31(EXTI_InitStruct->Line_0_31);
 1031              		.loc 2 168 0
 1032 0038 7B68     		ldr	r3, [r7, #4]
 1033 003a 1B68     		ldr	r3, [r3]
 1034 003c 1846     		mov	r0, r3
 1035 003e FFF7FEFF 		bl	LL_EXTI_EnableIT_0_31
 169:Drivers/STM32F3xx_HAL_Driver/Src/stm32f3xx_ll_exti.c ****           break;
 1036              		.loc 2 169 0
 1037 0042 18E0     		b	.L60
 1038              	.L57:
 170:Drivers/STM32F3xx_HAL_Driver/Src/stm32f3xx_ll_exti.c ****         case LL_EXTI_MODE_EVENT:
 171:Drivers/STM32F3xx_HAL_Driver/Src/stm32f3xx_ll_exti.c ****           /* First Disable IT on provided Lines */
 172:Drivers/STM32F3xx_HAL_Driver/Src/stm32f3xx_ll_exti.c ****           LL_EXTI_DisableIT_0_31(EXTI_InitStruct->Line_0_31);
 1039              		.loc 2 172 0
 1040 0044 7B68     		ldr	r3, [r7, #4]
ARM GAS  /tmp/cc3fRK7k.s 			page 40


 1041 0046 1B68     		ldr	r3, [r3]
 1042 0048 1846     		mov	r0, r3
 1043 004a FFF7FEFF 		bl	LL_EXTI_DisableIT_0_31
 173:Drivers/STM32F3xx_HAL_Driver/Src/stm32f3xx_ll_exti.c ****           /* Then Enable Event on provided Lines */
 174:Drivers/STM32F3xx_HAL_Driver/Src/stm32f3xx_ll_exti.c ****           LL_EXTI_EnableEvent_0_31(EXTI_InitStruct->Line_0_31);
 1044              		.loc 2 174 0
 1045 004e 7B68     		ldr	r3, [r7, #4]
 1046 0050 1B68     		ldr	r3, [r3]
 1047 0052 1846     		mov	r0, r3
 1048 0054 FFF7FEFF 		bl	LL_EXTI_EnableEvent_0_31
 175:Drivers/STM32F3xx_HAL_Driver/Src/stm32f3xx_ll_exti.c ****           break;
 1049              		.loc 2 175 0
 1050 0058 0DE0     		b	.L60
 1051              	.L58:
 176:Drivers/STM32F3xx_HAL_Driver/Src/stm32f3xx_ll_exti.c ****         case LL_EXTI_MODE_IT_EVENT:
 177:Drivers/STM32F3xx_HAL_Driver/Src/stm32f3xx_ll_exti.c ****           /* Directly Enable IT & Event on provided Lines */
 178:Drivers/STM32F3xx_HAL_Driver/Src/stm32f3xx_ll_exti.c ****           LL_EXTI_EnableIT_0_31(EXTI_InitStruct->Line_0_31);
 1052              		.loc 2 178 0
 1053 005a 7B68     		ldr	r3, [r7, #4]
 1054 005c 1B68     		ldr	r3, [r3]
 1055 005e 1846     		mov	r0, r3
 1056 0060 FFF7FEFF 		bl	LL_EXTI_EnableIT_0_31
 179:Drivers/STM32F3xx_HAL_Driver/Src/stm32f3xx_ll_exti.c ****           LL_EXTI_EnableEvent_0_31(EXTI_InitStruct->Line_0_31);
 1057              		.loc 2 179 0
 1058 0064 7B68     		ldr	r3, [r7, #4]
 1059 0066 1B68     		ldr	r3, [r3]
 1060 0068 1846     		mov	r0, r3
 1061 006a FFF7FEFF 		bl	LL_EXTI_EnableEvent_0_31
 180:Drivers/STM32F3xx_HAL_Driver/Src/stm32f3xx_ll_exti.c ****           break;
 1062              		.loc 2 180 0
 1063 006e 02E0     		b	.L60
 1064              	.L77:
 181:Drivers/STM32F3xx_HAL_Driver/Src/stm32f3xx_ll_exti.c ****         default:
 182:Drivers/STM32F3xx_HAL_Driver/Src/stm32f3xx_ll_exti.c ****           status = ERROR;
 1065              		.loc 2 182 0
 1066 0070 0023     		movs	r3, #0
 1067 0072 FB73     		strb	r3, [r7, #15]
 183:Drivers/STM32F3xx_HAL_Driver/Src/stm32f3xx_ll_exti.c ****           break;
 1068              		.loc 2 183 0
 1069 0074 00BF     		nop
 1070              	.L60:
 184:Drivers/STM32F3xx_HAL_Driver/Src/stm32f3xx_ll_exti.c ****       }
 185:Drivers/STM32F3xx_HAL_Driver/Src/stm32f3xx_ll_exti.c ****       if (EXTI_InitStruct->Trigger != LL_EXTI_TRIGGER_NONE)
 1071              		.loc 2 185 0
 1072 0076 7B68     		ldr	r3, [r7, #4]
 1073 0078 9B7A     		ldrb	r3, [r3, #10]	@ zero_extendqisi2
 1074 007a 002B     		cmp	r3, #0
 1075 007c 2BD0     		beq	.L81
 186:Drivers/STM32F3xx_HAL_Driver/Src/stm32f3xx_ll_exti.c ****       {
 187:Drivers/STM32F3xx_HAL_Driver/Src/stm32f3xx_ll_exti.c ****         switch (EXTI_InitStruct->Trigger)
 1076              		.loc 2 187 0
 1077 007e 7B68     		ldr	r3, [r7, #4]
 1078 0080 9B7A     		ldrb	r3, [r3, #10]	@ zero_extendqisi2
 1079 0082 022B     		cmp	r3, #2
 1080 0084 0ED0     		beq	.L62
 1081 0086 032B     		cmp	r3, #3
 1082 0088 17D0     		beq	.L63
ARM GAS  /tmp/cc3fRK7k.s 			page 41


 1083 008a 012B     		cmp	r3, #1
 1084 008c 20D1     		bne	.L78
 188:Drivers/STM32F3xx_HAL_Driver/Src/stm32f3xx_ll_exti.c ****         {
 189:Drivers/STM32F3xx_HAL_Driver/Src/stm32f3xx_ll_exti.c ****           case LL_EXTI_TRIGGER_RISING:
 190:Drivers/STM32F3xx_HAL_Driver/Src/stm32f3xx_ll_exti.c ****             /* First Disable Falling Trigger on provided Lines */
 191:Drivers/STM32F3xx_HAL_Driver/Src/stm32f3xx_ll_exti.c ****             LL_EXTI_DisableFallingTrig_0_31(EXTI_InitStruct->Line_0_31);
 1085              		.loc 2 191 0
 1086 008e 7B68     		ldr	r3, [r7, #4]
 1087 0090 1B68     		ldr	r3, [r3]
 1088 0092 1846     		mov	r0, r3
 1089 0094 FFF7FEFF 		bl	LL_EXTI_DisableFallingTrig_0_31
 192:Drivers/STM32F3xx_HAL_Driver/Src/stm32f3xx_ll_exti.c ****             /* Then Enable Rising Trigger on provided Lines */
 193:Drivers/STM32F3xx_HAL_Driver/Src/stm32f3xx_ll_exti.c ****             LL_EXTI_EnableRisingTrig_0_31(EXTI_InitStruct->Line_0_31);
 1090              		.loc 2 193 0
 1091 0098 7B68     		ldr	r3, [r7, #4]
 1092 009a 1B68     		ldr	r3, [r3]
 1093 009c 1846     		mov	r0, r3
 1094 009e FFF7FEFF 		bl	LL_EXTI_EnableRisingTrig_0_31
 194:Drivers/STM32F3xx_HAL_Driver/Src/stm32f3xx_ll_exti.c ****             break;
 1095              		.loc 2 194 0
 1096 00a2 19E0     		b	.L55
 1097              	.L62:
 195:Drivers/STM32F3xx_HAL_Driver/Src/stm32f3xx_ll_exti.c ****           case LL_EXTI_TRIGGER_FALLING:
 196:Drivers/STM32F3xx_HAL_Driver/Src/stm32f3xx_ll_exti.c ****             /* First Disable Rising Trigger on provided Lines */
 197:Drivers/STM32F3xx_HAL_Driver/Src/stm32f3xx_ll_exti.c ****             LL_EXTI_DisableRisingTrig_0_31(EXTI_InitStruct->Line_0_31);
 1098              		.loc 2 197 0
 1099 00a4 7B68     		ldr	r3, [r7, #4]
 1100 00a6 1B68     		ldr	r3, [r3]
 1101 00a8 1846     		mov	r0, r3
 1102 00aa FFF7FEFF 		bl	LL_EXTI_DisableRisingTrig_0_31
 198:Drivers/STM32F3xx_HAL_Driver/Src/stm32f3xx_ll_exti.c ****             /* Then Enable Falling Trigger on provided Lines */
 199:Drivers/STM32F3xx_HAL_Driver/Src/stm32f3xx_ll_exti.c ****             LL_EXTI_EnableFallingTrig_0_31(EXTI_InitStruct->Line_0_31);
 1103              		.loc 2 199 0
 1104 00ae 7B68     		ldr	r3, [r7, #4]
 1105 00b0 1B68     		ldr	r3, [r3]
 1106 00b2 1846     		mov	r0, r3
 1107 00b4 FFF7FEFF 		bl	LL_EXTI_EnableFallingTrig_0_31
 200:Drivers/STM32F3xx_HAL_Driver/Src/stm32f3xx_ll_exti.c ****             break;
 1108              		.loc 2 200 0
 1109 00b8 0EE0     		b	.L55
 1110              	.L63:
 201:Drivers/STM32F3xx_HAL_Driver/Src/stm32f3xx_ll_exti.c ****           case LL_EXTI_TRIGGER_RISING_FALLING:
 202:Drivers/STM32F3xx_HAL_Driver/Src/stm32f3xx_ll_exti.c ****             LL_EXTI_EnableRisingTrig_0_31(EXTI_InitStruct->Line_0_31);
 1111              		.loc 2 202 0
 1112 00ba 7B68     		ldr	r3, [r7, #4]
 1113 00bc 1B68     		ldr	r3, [r3]
 1114 00be 1846     		mov	r0, r3
 1115 00c0 FFF7FEFF 		bl	LL_EXTI_EnableRisingTrig_0_31
 203:Drivers/STM32F3xx_HAL_Driver/Src/stm32f3xx_ll_exti.c ****             LL_EXTI_EnableFallingTrig_0_31(EXTI_InitStruct->Line_0_31);
 1116              		.loc 2 203 0
 1117 00c4 7B68     		ldr	r3, [r7, #4]
 1118 00c6 1B68     		ldr	r3, [r3]
 1119 00c8 1846     		mov	r0, r3
 1120 00ca FFF7FEFF 		bl	LL_EXTI_EnableFallingTrig_0_31
 204:Drivers/STM32F3xx_HAL_Driver/Src/stm32f3xx_ll_exti.c ****             break;
 1121              		.loc 2 204 0
 1122 00ce 03E0     		b	.L55
ARM GAS  /tmp/cc3fRK7k.s 			page 42


 1123              	.L78:
 205:Drivers/STM32F3xx_HAL_Driver/Src/stm32f3xx_ll_exti.c ****           default:
 206:Drivers/STM32F3xx_HAL_Driver/Src/stm32f3xx_ll_exti.c ****             status = ERROR;
 1124              		.loc 2 206 0
 1125 00d0 0023     		movs	r3, #0
 1126 00d2 FB73     		strb	r3, [r7, #15]
 207:Drivers/STM32F3xx_HAL_Driver/Src/stm32f3xx_ll_exti.c ****             break;
 1127              		.loc 2 207 0
 1128 00d4 00E0     		b	.L55
 1129              	.L81:
 208:Drivers/STM32F3xx_HAL_Driver/Src/stm32f3xx_ll_exti.c ****         }
 209:Drivers/STM32F3xx_HAL_Driver/Src/stm32f3xx_ll_exti.c ****       }
 1130              		.loc 2 209 0
 1131 00d6 00BF     		nop
 1132              	.L55:
 210:Drivers/STM32F3xx_HAL_Driver/Src/stm32f3xx_ll_exti.c ****     }
 211:Drivers/STM32F3xx_HAL_Driver/Src/stm32f3xx_ll_exti.c **** #if defined(EXTI_32_63_SUPPORT)
 212:Drivers/STM32F3xx_HAL_Driver/Src/stm32f3xx_ll_exti.c ****     /* Configure EXTI Lines in range from 32 to 63 */
 213:Drivers/STM32F3xx_HAL_Driver/Src/stm32f3xx_ll_exti.c ****     if (EXTI_InitStruct->Line_32_63 != LL_EXTI_LINE_NONE)
 1133              		.loc 2 213 0
 1134 00d8 7B68     		ldr	r3, [r7, #4]
 1135 00da 5B68     		ldr	r3, [r3, #4]
 1136 00dc 002B     		cmp	r3, #0
 1137 00de 71D0     		beq	.L82
 214:Drivers/STM32F3xx_HAL_Driver/Src/stm32f3xx_ll_exti.c ****     {
 215:Drivers/STM32F3xx_HAL_Driver/Src/stm32f3xx_ll_exti.c ****       switch (EXTI_InitStruct->Mode)
 1138              		.loc 2 215 0
 1139 00e0 7B68     		ldr	r3, [r7, #4]
 1140 00e2 5B7A     		ldrb	r3, [r3, #9]	@ zero_extendqisi2
 1141 00e4 012B     		cmp	r3, #1
 1142 00e6 0ED0     		beq	.L67
 1143 00e8 022B     		cmp	r3, #2
 1144 00ea 17D0     		beq	.L68
 1145 00ec 002B     		cmp	r3, #0
 1146 00ee 20D1     		bne	.L79
 216:Drivers/STM32F3xx_HAL_Driver/Src/stm32f3xx_ll_exti.c ****       {
 217:Drivers/STM32F3xx_HAL_Driver/Src/stm32f3xx_ll_exti.c ****         case LL_EXTI_MODE_IT:
 218:Drivers/STM32F3xx_HAL_Driver/Src/stm32f3xx_ll_exti.c ****           /* First Disable Event on provided Lines */
 219:Drivers/STM32F3xx_HAL_Driver/Src/stm32f3xx_ll_exti.c ****           LL_EXTI_DisableEvent_32_63(EXTI_InitStruct->Line_32_63);
 1147              		.loc 2 219 0
 1148 00f0 7B68     		ldr	r3, [r7, #4]
 1149 00f2 5B68     		ldr	r3, [r3, #4]
 1150 00f4 1846     		mov	r0, r3
 1151 00f6 FFF7FEFF 		bl	LL_EXTI_DisableEvent_32_63
 220:Drivers/STM32F3xx_HAL_Driver/Src/stm32f3xx_ll_exti.c ****           /* Then Enable IT on provided Lines */
 221:Drivers/STM32F3xx_HAL_Driver/Src/stm32f3xx_ll_exti.c ****           LL_EXTI_EnableIT_32_63(EXTI_InitStruct->Line_32_63);
 1152              		.loc 2 221 0
 1153 00fa 7B68     		ldr	r3, [r7, #4]
 1154 00fc 5B68     		ldr	r3, [r3, #4]
 1155 00fe 1846     		mov	r0, r3
 1156 0100 FFF7FEFF 		bl	LL_EXTI_EnableIT_32_63
 222:Drivers/STM32F3xx_HAL_Driver/Src/stm32f3xx_ll_exti.c ****           break;
 1157              		.loc 2 222 0
 1158 0104 18E0     		b	.L70
 1159              	.L67:
 223:Drivers/STM32F3xx_HAL_Driver/Src/stm32f3xx_ll_exti.c ****         case LL_EXTI_MODE_EVENT:
 224:Drivers/STM32F3xx_HAL_Driver/Src/stm32f3xx_ll_exti.c ****           /* First Disable IT on provided Lines */
ARM GAS  /tmp/cc3fRK7k.s 			page 43


 225:Drivers/STM32F3xx_HAL_Driver/Src/stm32f3xx_ll_exti.c ****           LL_EXTI_DisableIT_32_63(EXTI_InitStruct->Line_32_63);
 1160              		.loc 2 225 0
 1161 0106 7B68     		ldr	r3, [r7, #4]
 1162 0108 5B68     		ldr	r3, [r3, #4]
 1163 010a 1846     		mov	r0, r3
 1164 010c FFF7FEFF 		bl	LL_EXTI_DisableIT_32_63
 226:Drivers/STM32F3xx_HAL_Driver/Src/stm32f3xx_ll_exti.c ****           /* Then Enable Event on provided Lines */
 227:Drivers/STM32F3xx_HAL_Driver/Src/stm32f3xx_ll_exti.c ****           LL_EXTI_EnableEvent_32_63(EXTI_InitStruct->Line_32_63);
 1165              		.loc 2 227 0
 1166 0110 7B68     		ldr	r3, [r7, #4]
 1167 0112 5B68     		ldr	r3, [r3, #4]
 1168 0114 1846     		mov	r0, r3
 1169 0116 FFF7FEFF 		bl	LL_EXTI_EnableEvent_32_63
 228:Drivers/STM32F3xx_HAL_Driver/Src/stm32f3xx_ll_exti.c ****           break;
 1170              		.loc 2 228 0
 1171 011a 0DE0     		b	.L70
 1172              	.L68:
 229:Drivers/STM32F3xx_HAL_Driver/Src/stm32f3xx_ll_exti.c ****         case LL_EXTI_MODE_IT_EVENT:
 230:Drivers/STM32F3xx_HAL_Driver/Src/stm32f3xx_ll_exti.c ****           /* Directly Enable IT & Event on provided Lines */
 231:Drivers/STM32F3xx_HAL_Driver/Src/stm32f3xx_ll_exti.c ****           LL_EXTI_EnableIT_32_63(EXTI_InitStruct->Line_32_63);
 1173              		.loc 2 231 0
 1174 011c 7B68     		ldr	r3, [r7, #4]
 1175 011e 5B68     		ldr	r3, [r3, #4]
 1176 0120 1846     		mov	r0, r3
 1177 0122 FFF7FEFF 		bl	LL_EXTI_EnableIT_32_63
 232:Drivers/STM32F3xx_HAL_Driver/Src/stm32f3xx_ll_exti.c ****           LL_EXTI_EnableEvent_32_63(EXTI_InitStruct->Line_32_63);
 1178              		.loc 2 232 0
 1179 0126 7B68     		ldr	r3, [r7, #4]
 1180 0128 5B68     		ldr	r3, [r3, #4]
 1181 012a 1846     		mov	r0, r3
 1182 012c FFF7FEFF 		bl	LL_EXTI_EnableEvent_32_63
 233:Drivers/STM32F3xx_HAL_Driver/Src/stm32f3xx_ll_exti.c ****           break;
 1183              		.loc 2 233 0
 1184 0130 02E0     		b	.L70
 1185              	.L79:
 234:Drivers/STM32F3xx_HAL_Driver/Src/stm32f3xx_ll_exti.c ****         default:
 235:Drivers/STM32F3xx_HAL_Driver/Src/stm32f3xx_ll_exti.c ****           status = ERROR;
 1186              		.loc 2 235 0
 1187 0132 0023     		movs	r3, #0
 1188 0134 FB73     		strb	r3, [r7, #15]
 236:Drivers/STM32F3xx_HAL_Driver/Src/stm32f3xx_ll_exti.c ****           break;
 1189              		.loc 2 236 0
 1190 0136 00BF     		nop
 1191              	.L70:
 237:Drivers/STM32F3xx_HAL_Driver/Src/stm32f3xx_ll_exti.c ****       }
 238:Drivers/STM32F3xx_HAL_Driver/Src/stm32f3xx_ll_exti.c ****       if (EXTI_InitStruct->Trigger != LL_EXTI_TRIGGER_NONE)
 1192              		.loc 2 238 0
 1193 0138 7B68     		ldr	r3, [r7, #4]
 1194 013a 9B7A     		ldrb	r3, [r3, #10]	@ zero_extendqisi2
 1195 013c 002B     		cmp	r3, #0
 1196 013e 41D0     		beq	.L82
 239:Drivers/STM32F3xx_HAL_Driver/Src/stm32f3xx_ll_exti.c ****       {
 240:Drivers/STM32F3xx_HAL_Driver/Src/stm32f3xx_ll_exti.c ****         switch (EXTI_InitStruct->Trigger)
 1197              		.loc 2 240 0
 1198 0140 7B68     		ldr	r3, [r7, #4]
 1199 0142 9B7A     		ldrb	r3, [r3, #10]	@ zero_extendqisi2
 1200 0144 022B     		cmp	r3, #2
ARM GAS  /tmp/cc3fRK7k.s 			page 44


 1201 0146 0ED0     		beq	.L72
 1202 0148 032B     		cmp	r3, #3
 1203 014a 17D0     		beq	.L73
 1204 014c 012B     		cmp	r3, #1
 1205 014e 20D1     		bne	.L80
 241:Drivers/STM32F3xx_HAL_Driver/Src/stm32f3xx_ll_exti.c ****         {
 242:Drivers/STM32F3xx_HAL_Driver/Src/stm32f3xx_ll_exti.c ****           case LL_EXTI_TRIGGER_RISING:
 243:Drivers/STM32F3xx_HAL_Driver/Src/stm32f3xx_ll_exti.c ****             /* First Disable Falling Trigger on provided Lines */
 244:Drivers/STM32F3xx_HAL_Driver/Src/stm32f3xx_ll_exti.c ****             LL_EXTI_DisableFallingTrig_32_63(EXTI_InitStruct->Line_32_63);
 1206              		.loc 2 244 0
 1207 0150 7B68     		ldr	r3, [r7, #4]
 1208 0152 5B68     		ldr	r3, [r3, #4]
 1209 0154 1846     		mov	r0, r3
 1210 0156 FFF7FEFF 		bl	LL_EXTI_DisableFallingTrig_32_63
 245:Drivers/STM32F3xx_HAL_Driver/Src/stm32f3xx_ll_exti.c ****             /* Then Enable IT on provided Lines */
 246:Drivers/STM32F3xx_HAL_Driver/Src/stm32f3xx_ll_exti.c ****             LL_EXTI_EnableRisingTrig_32_63(EXTI_InitStruct->Line_32_63);
 1211              		.loc 2 246 0
 1212 015a 7B68     		ldr	r3, [r7, #4]
 1213 015c 5B68     		ldr	r3, [r3, #4]
 1214 015e 1846     		mov	r0, r3
 1215 0160 FFF7FEFF 		bl	LL_EXTI_EnableRisingTrig_32_63
 247:Drivers/STM32F3xx_HAL_Driver/Src/stm32f3xx_ll_exti.c ****             break;
 1216              		.loc 2 247 0
 1217 0164 2FE0     		b	.L75
 1218              	.L72:
 248:Drivers/STM32F3xx_HAL_Driver/Src/stm32f3xx_ll_exti.c ****           case LL_EXTI_TRIGGER_FALLING:
 249:Drivers/STM32F3xx_HAL_Driver/Src/stm32f3xx_ll_exti.c ****             /* First Disable Rising Trigger on provided Lines */
 250:Drivers/STM32F3xx_HAL_Driver/Src/stm32f3xx_ll_exti.c ****             LL_EXTI_DisableRisingTrig_32_63(EXTI_InitStruct->Line_32_63);
 1219              		.loc 2 250 0
 1220 0166 7B68     		ldr	r3, [r7, #4]
 1221 0168 5B68     		ldr	r3, [r3, #4]
 1222 016a 1846     		mov	r0, r3
 1223 016c FFF7FEFF 		bl	LL_EXTI_DisableRisingTrig_32_63
 251:Drivers/STM32F3xx_HAL_Driver/Src/stm32f3xx_ll_exti.c ****             /* Then Enable Falling Trigger on provided Lines */
 252:Drivers/STM32F3xx_HAL_Driver/Src/stm32f3xx_ll_exti.c ****             LL_EXTI_EnableFallingTrig_32_63(EXTI_InitStruct->Line_32_63);
 1224              		.loc 2 252 0
 1225 0170 7B68     		ldr	r3, [r7, #4]
 1226 0172 5B68     		ldr	r3, [r3, #4]
 1227 0174 1846     		mov	r0, r3
 1228 0176 FFF7FEFF 		bl	LL_EXTI_EnableFallingTrig_32_63
 253:Drivers/STM32F3xx_HAL_Driver/Src/stm32f3xx_ll_exti.c ****             break;
 1229              		.loc 2 253 0
 1230 017a 24E0     		b	.L75
 1231              	.L73:
 254:Drivers/STM32F3xx_HAL_Driver/Src/stm32f3xx_ll_exti.c ****           case LL_EXTI_TRIGGER_RISING_FALLING:
 255:Drivers/STM32F3xx_HAL_Driver/Src/stm32f3xx_ll_exti.c ****             LL_EXTI_EnableRisingTrig_32_63(EXTI_InitStruct->Line_32_63);
 1232              		.loc 2 255 0
 1233 017c 7B68     		ldr	r3, [r7, #4]
 1234 017e 5B68     		ldr	r3, [r3, #4]
 1235 0180 1846     		mov	r0, r3
 1236 0182 FFF7FEFF 		bl	LL_EXTI_EnableRisingTrig_32_63
 256:Drivers/STM32F3xx_HAL_Driver/Src/stm32f3xx_ll_exti.c ****             LL_EXTI_EnableFallingTrig_32_63(EXTI_InitStruct->Line_32_63);
 1237              		.loc 2 256 0
 1238 0186 7B68     		ldr	r3, [r7, #4]
 1239 0188 5B68     		ldr	r3, [r3, #4]
 1240 018a 1846     		mov	r0, r3
 1241 018c FFF7FEFF 		bl	LL_EXTI_EnableFallingTrig_32_63
ARM GAS  /tmp/cc3fRK7k.s 			page 45


 257:Drivers/STM32F3xx_HAL_Driver/Src/stm32f3xx_ll_exti.c ****             break;
 1242              		.loc 2 257 0
 1243 0190 19E0     		b	.L75
 1244              	.L80:
 258:Drivers/STM32F3xx_HAL_Driver/Src/stm32f3xx_ll_exti.c ****           default:
 259:Drivers/STM32F3xx_HAL_Driver/Src/stm32f3xx_ll_exti.c ****             status = ERROR;
 1245              		.loc 2 259 0
 1246 0192 0023     		movs	r3, #0
 1247 0194 FB73     		strb	r3, [r7, #15]
 260:Drivers/STM32F3xx_HAL_Driver/Src/stm32f3xx_ll_exti.c ****             break;
 1248              		.loc 2 260 0
 1249 0196 00BF     		nop
 1250 0198 15E0     		b	.L75
 1251              	.L54:
 261:Drivers/STM32F3xx_HAL_Driver/Src/stm32f3xx_ll_exti.c ****         }
 262:Drivers/STM32F3xx_HAL_Driver/Src/stm32f3xx_ll_exti.c ****       }
 263:Drivers/STM32F3xx_HAL_Driver/Src/stm32f3xx_ll_exti.c ****     }
 264:Drivers/STM32F3xx_HAL_Driver/Src/stm32f3xx_ll_exti.c **** #endif
 265:Drivers/STM32F3xx_HAL_Driver/Src/stm32f3xx_ll_exti.c ****   }
 266:Drivers/STM32F3xx_HAL_Driver/Src/stm32f3xx_ll_exti.c ****   /* DISABLE LineCommand */
 267:Drivers/STM32F3xx_HAL_Driver/Src/stm32f3xx_ll_exti.c ****   else
 268:Drivers/STM32F3xx_HAL_Driver/Src/stm32f3xx_ll_exti.c ****   {
 269:Drivers/STM32F3xx_HAL_Driver/Src/stm32f3xx_ll_exti.c ****     /* De-configure EXTI Lines in range from 0 to 31 */
 270:Drivers/STM32F3xx_HAL_Driver/Src/stm32f3xx_ll_exti.c ****     LL_EXTI_DisableIT_0_31(EXTI_InitStruct->Line_0_31);
 1252              		.loc 2 270 0
 1253 019a 7B68     		ldr	r3, [r7, #4]
 1254 019c 1B68     		ldr	r3, [r3]
 1255 019e 1846     		mov	r0, r3
 1256 01a0 FFF7FEFF 		bl	LL_EXTI_DisableIT_0_31
 271:Drivers/STM32F3xx_HAL_Driver/Src/stm32f3xx_ll_exti.c ****     LL_EXTI_DisableEvent_0_31(EXTI_InitStruct->Line_0_31);
 1257              		.loc 2 271 0
 1258 01a4 7B68     		ldr	r3, [r7, #4]
 1259 01a6 1B68     		ldr	r3, [r3]
 1260 01a8 1846     		mov	r0, r3
 1261 01aa FFF7FEFF 		bl	LL_EXTI_DisableEvent_0_31
 272:Drivers/STM32F3xx_HAL_Driver/Src/stm32f3xx_ll_exti.c **** #if defined(EXTI_32_63_SUPPORT)
 273:Drivers/STM32F3xx_HAL_Driver/Src/stm32f3xx_ll_exti.c ****     /* De-configure EXTI Lines in range from 32 to 63 */
 274:Drivers/STM32F3xx_HAL_Driver/Src/stm32f3xx_ll_exti.c ****     LL_EXTI_DisableIT_32_63(EXTI_InitStruct->Line_32_63);
 1262              		.loc 2 274 0
 1263 01ae 7B68     		ldr	r3, [r7, #4]
 1264 01b0 5B68     		ldr	r3, [r3, #4]
 1265 01b2 1846     		mov	r0, r3
 1266 01b4 FFF7FEFF 		bl	LL_EXTI_DisableIT_32_63
 275:Drivers/STM32F3xx_HAL_Driver/Src/stm32f3xx_ll_exti.c ****     LL_EXTI_DisableEvent_32_63(EXTI_InitStruct->Line_32_63);
 1267              		.loc 2 275 0
 1268 01b8 7B68     		ldr	r3, [r7, #4]
 1269 01ba 5B68     		ldr	r3, [r3, #4]
 1270 01bc 1846     		mov	r0, r3
 1271 01be FFF7FEFF 		bl	LL_EXTI_DisableEvent_32_63
 1272 01c2 00E0     		b	.L75
 1273              	.L82:
 262:Drivers/STM32F3xx_HAL_Driver/Src/stm32f3xx_ll_exti.c ****     }
 1274              		.loc 2 262 0
 1275 01c4 00BF     		nop
 1276              	.L75:
 276:Drivers/STM32F3xx_HAL_Driver/Src/stm32f3xx_ll_exti.c **** #endif
 277:Drivers/STM32F3xx_HAL_Driver/Src/stm32f3xx_ll_exti.c ****   }
ARM GAS  /tmp/cc3fRK7k.s 			page 46


 278:Drivers/STM32F3xx_HAL_Driver/Src/stm32f3xx_ll_exti.c ****   return status;
 1277              		.loc 2 278 0
 1278 01c6 FB7B     		ldrb	r3, [r7, #15]	@ zero_extendqisi2
 279:Drivers/STM32F3xx_HAL_Driver/Src/stm32f3xx_ll_exti.c **** }
 1279              		.loc 2 279 0
 1280 01c8 1846     		mov	r0, r3
 1281 01ca 1037     		adds	r7, r7, #16
 1282              	.LCFI103:
 1283              		.cfi_def_cfa_offset 8
 1284 01cc BD46     		mov	sp, r7
 1285              	.LCFI104:
 1286              		.cfi_def_cfa_register 13
 1287              		@ sp needed
 1288 01ce 80BD     		pop	{r7, pc}
 1289              		.cfi_endproc
 1290              	.LFE696:
 1292              		.section	.text.LL_EXTI_StructInit,"ax",%progbits
 1293              		.align	1
 1294              		.global	LL_EXTI_StructInit
 1295              		.syntax unified
 1296              		.thumb
 1297              		.thumb_func
 1298              		.fpu fpv4-sp-d16
 1300              	LL_EXTI_StructInit:
 1301              	.LFB697:
 280:Drivers/STM32F3xx_HAL_Driver/Src/stm32f3xx_ll_exti.c **** 
 281:Drivers/STM32F3xx_HAL_Driver/Src/stm32f3xx_ll_exti.c **** /**
 282:Drivers/STM32F3xx_HAL_Driver/Src/stm32f3xx_ll_exti.c ****   * @brief  Set each @ref LL_EXTI_InitTypeDef field to default value.
 283:Drivers/STM32F3xx_HAL_Driver/Src/stm32f3xx_ll_exti.c ****   * @param  EXTI_InitStruct Pointer to a @ref LL_EXTI_InitTypeDef structure.
 284:Drivers/STM32F3xx_HAL_Driver/Src/stm32f3xx_ll_exti.c ****   * @retval None
 285:Drivers/STM32F3xx_HAL_Driver/Src/stm32f3xx_ll_exti.c ****   */
 286:Drivers/STM32F3xx_HAL_Driver/Src/stm32f3xx_ll_exti.c **** void LL_EXTI_StructInit(LL_EXTI_InitTypeDef *EXTI_InitStruct)
 287:Drivers/STM32F3xx_HAL_Driver/Src/stm32f3xx_ll_exti.c **** {
 1302              		.loc 2 287 0
 1303              		.cfi_startproc
 1304              		@ args = 0, pretend = 0, frame = 8
 1305              		@ frame_needed = 1, uses_anonymous_args = 0
 1306              		@ link register save eliminated.
 1307 0000 80B4     		push	{r7}
 1308              	.LCFI105:
 1309              		.cfi_def_cfa_offset 4
 1310              		.cfi_offset 7, -4
 1311 0002 83B0     		sub	sp, sp, #12
 1312              	.LCFI106:
 1313              		.cfi_def_cfa_offset 16
 1314 0004 00AF     		add	r7, sp, #0
 1315              	.LCFI107:
 1316              		.cfi_def_cfa_register 7
 1317 0006 7860     		str	r0, [r7, #4]
 288:Drivers/STM32F3xx_HAL_Driver/Src/stm32f3xx_ll_exti.c ****   EXTI_InitStruct->Line_0_31      = LL_EXTI_LINE_NONE;
 1318              		.loc 2 288 0
 1319 0008 7B68     		ldr	r3, [r7, #4]
 1320 000a 0022     		movs	r2, #0
 1321 000c 1A60     		str	r2, [r3]
 289:Drivers/STM32F3xx_HAL_Driver/Src/stm32f3xx_ll_exti.c **** #if defined(EXTI_32_63_SUPPORT)
 290:Drivers/STM32F3xx_HAL_Driver/Src/stm32f3xx_ll_exti.c ****   EXTI_InitStruct->Line_32_63     = LL_EXTI_LINE_NONE;
 1322              		.loc 2 290 0
ARM GAS  /tmp/cc3fRK7k.s 			page 47


 1323 000e 7B68     		ldr	r3, [r7, #4]
 1324 0010 0022     		movs	r2, #0
 1325 0012 5A60     		str	r2, [r3, #4]
 291:Drivers/STM32F3xx_HAL_Driver/Src/stm32f3xx_ll_exti.c **** #endif
 292:Drivers/STM32F3xx_HAL_Driver/Src/stm32f3xx_ll_exti.c ****   EXTI_InitStruct->LineCommand    = DISABLE;
 1326              		.loc 2 292 0
 1327 0014 7B68     		ldr	r3, [r7, #4]
 1328 0016 0022     		movs	r2, #0
 1329 0018 1A72     		strb	r2, [r3, #8]
 293:Drivers/STM32F3xx_HAL_Driver/Src/stm32f3xx_ll_exti.c ****   EXTI_InitStruct->Mode           = LL_EXTI_MODE_IT;
 1330              		.loc 2 293 0
 1331 001a 7B68     		ldr	r3, [r7, #4]
 1332 001c 0022     		movs	r2, #0
 1333 001e 5A72     		strb	r2, [r3, #9]
 294:Drivers/STM32F3xx_HAL_Driver/Src/stm32f3xx_ll_exti.c ****   EXTI_InitStruct->Trigger        = LL_EXTI_TRIGGER_FALLING;
 1334              		.loc 2 294 0
 1335 0020 7B68     		ldr	r3, [r7, #4]
 1336 0022 0222     		movs	r2, #2
 1337 0024 9A72     		strb	r2, [r3, #10]
 295:Drivers/STM32F3xx_HAL_Driver/Src/stm32f3xx_ll_exti.c **** }
 1338              		.loc 2 295 0
 1339 0026 00BF     		nop
 1340 0028 0C37     		adds	r7, r7, #12
 1341              	.LCFI108:
 1342              		.cfi_def_cfa_offset 4
 1343 002a BD46     		mov	sp, r7
 1344              	.LCFI109:
 1345              		.cfi_def_cfa_register 13
 1346              		@ sp needed
 1347 002c 5DF8047B 		ldr	r7, [sp], #4
 1348              	.LCFI110:
 1349              		.cfi_restore 7
 1350              		.cfi_def_cfa_offset 0
 1351 0030 7047     		bx	lr
 1352              		.cfi_endproc
 1353              	.LFE697:
 1355              		.text
 1356              	.Letext0:
 1357              		.file 3 "/usr/arm-none-eabi/include/machine/_default_types.h"
 1358              		.file 4 "/usr/arm-none-eabi/include/sys/_stdint.h"
 1359              		.file 5 "Drivers/CMSIS/Include/core_cm4.h"
 1360              		.file 6 "Drivers/CMSIS/Device/ST/STM32F3xx/Include/system_stm32f3xx.h"
 1361              		.file 7 "Drivers/CMSIS/Device/ST/STM32F3xx/Include/stm32f303x8.h"
 1362              		.file 8 "Drivers/CMSIS/Device/ST/STM32F3xx/Include/stm32f3xx.h"
 1363              		.file 9 "/usr/arm-none-eabi/include/sys/lock.h"
 1364              		.file 10 "/usr/arm-none-eabi/include/sys/_types.h"
 1365              		.file 11 "/usr/lib/gcc/arm-none-eabi/7.3.0/include/stddef.h"
 1366              		.file 12 "/usr/arm-none-eabi/include/sys/reent.h"
 1367              		.file 13 "Drivers/STM32F3xx_HAL_Driver/Inc/stm32f3xx_ll_dma.h"
ARM GAS  /tmp/cc3fRK7k.s 			page 48


DEFINED SYMBOLS
                            *ABS*:0000000000000000 stm32f3xx_ll_exti.c
     /tmp/cc3fRK7k.s:18     .rodata.CHANNEL_OFFSET_TAB:0000000000000000 $d
     /tmp/cc3fRK7k.s:21     .rodata.CHANNEL_OFFSET_TAB:0000000000000000 CHANNEL_OFFSET_TAB
     /tmp/cc3fRK7k.s:30     .text.LL_EXTI_EnableIT_0_31:0000000000000000 $t
     /tmp/cc3fRK7k.s:36     .text.LL_EXTI_EnableIT_0_31:0000000000000000 LL_EXTI_EnableIT_0_31
     /tmp/cc3fRK7k.s:79     .text.LL_EXTI_EnableIT_0_31:0000000000000020 $d
     /tmp/cc3fRK7k.s:84     .text.LL_EXTI_EnableIT_32_63:0000000000000000 $t
     /tmp/cc3fRK7k.s:90     .text.LL_EXTI_EnableIT_32_63:0000000000000000 LL_EXTI_EnableIT_32_63
     /tmp/cc3fRK7k.s:132    .text.LL_EXTI_EnableIT_32_63:0000000000000020 $d
     /tmp/cc3fRK7k.s:137    .text.LL_EXTI_DisableIT_0_31:0000000000000000 $t
     /tmp/cc3fRK7k.s:143    .text.LL_EXTI_DisableIT_0_31:0000000000000000 LL_EXTI_DisableIT_0_31
     /tmp/cc3fRK7k.s:186    .text.LL_EXTI_DisableIT_0_31:0000000000000024 $d
     /tmp/cc3fRK7k.s:191    .text.LL_EXTI_DisableIT_32_63:0000000000000000 $t
     /tmp/cc3fRK7k.s:197    .text.LL_EXTI_DisableIT_32_63:0000000000000000 LL_EXTI_DisableIT_32_63
     /tmp/cc3fRK7k.s:240    .text.LL_EXTI_DisableIT_32_63:0000000000000024 $d
     /tmp/cc3fRK7k.s:245    .text.LL_EXTI_EnableEvent_0_31:0000000000000000 $t
     /tmp/cc3fRK7k.s:251    .text.LL_EXTI_EnableEvent_0_31:0000000000000000 LL_EXTI_EnableEvent_0_31
     /tmp/cc3fRK7k.s:293    .text.LL_EXTI_EnableEvent_0_31:0000000000000020 $d
     /tmp/cc3fRK7k.s:298    .text.LL_EXTI_EnableEvent_32_63:0000000000000000 $t
     /tmp/cc3fRK7k.s:304    .text.LL_EXTI_EnableEvent_32_63:0000000000000000 LL_EXTI_EnableEvent_32_63
     /tmp/cc3fRK7k.s:346    .text.LL_EXTI_EnableEvent_32_63:0000000000000020 $d
     /tmp/cc3fRK7k.s:351    .text.LL_EXTI_DisableEvent_0_31:0000000000000000 $t
     /tmp/cc3fRK7k.s:357    .text.LL_EXTI_DisableEvent_0_31:0000000000000000 LL_EXTI_DisableEvent_0_31
     /tmp/cc3fRK7k.s:400    .text.LL_EXTI_DisableEvent_0_31:0000000000000024 $d
     /tmp/cc3fRK7k.s:405    .text.LL_EXTI_DisableEvent_32_63:0000000000000000 $t
     /tmp/cc3fRK7k.s:411    .text.LL_EXTI_DisableEvent_32_63:0000000000000000 LL_EXTI_DisableEvent_32_63
     /tmp/cc3fRK7k.s:454    .text.LL_EXTI_DisableEvent_32_63:0000000000000024 $d
     /tmp/cc3fRK7k.s:459    .text.LL_EXTI_EnableRisingTrig_0_31:0000000000000000 $t
     /tmp/cc3fRK7k.s:465    .text.LL_EXTI_EnableRisingTrig_0_31:0000000000000000 LL_EXTI_EnableRisingTrig_0_31
     /tmp/cc3fRK7k.s:507    .text.LL_EXTI_EnableRisingTrig_0_31:0000000000000020 $d
     /tmp/cc3fRK7k.s:512    .text.LL_EXTI_EnableRisingTrig_32_63:0000000000000000 $t
     /tmp/cc3fRK7k.s:518    .text.LL_EXTI_EnableRisingTrig_32_63:0000000000000000 LL_EXTI_EnableRisingTrig_32_63
     /tmp/cc3fRK7k.s:560    .text.LL_EXTI_EnableRisingTrig_32_63:0000000000000020 $d
     /tmp/cc3fRK7k.s:565    .text.LL_EXTI_DisableRisingTrig_0_31:0000000000000000 $t
     /tmp/cc3fRK7k.s:571    .text.LL_EXTI_DisableRisingTrig_0_31:0000000000000000 LL_EXTI_DisableRisingTrig_0_31
     /tmp/cc3fRK7k.s:614    .text.LL_EXTI_DisableRisingTrig_0_31:0000000000000024 $d
     /tmp/cc3fRK7k.s:619    .text.LL_EXTI_DisableRisingTrig_32_63:0000000000000000 $t
     /tmp/cc3fRK7k.s:625    .text.LL_EXTI_DisableRisingTrig_32_63:0000000000000000 LL_EXTI_DisableRisingTrig_32_63
     /tmp/cc3fRK7k.s:668    .text.LL_EXTI_DisableRisingTrig_32_63:0000000000000024 $d
     /tmp/cc3fRK7k.s:673    .text.LL_EXTI_EnableFallingTrig_0_31:0000000000000000 $t
     /tmp/cc3fRK7k.s:679    .text.LL_EXTI_EnableFallingTrig_0_31:0000000000000000 LL_EXTI_EnableFallingTrig_0_31
     /tmp/cc3fRK7k.s:721    .text.LL_EXTI_EnableFallingTrig_0_31:0000000000000020 $d
     /tmp/cc3fRK7k.s:726    .text.LL_EXTI_EnableFallingTrig_32_63:0000000000000000 $t
     /tmp/cc3fRK7k.s:732    .text.LL_EXTI_EnableFallingTrig_32_63:0000000000000000 LL_EXTI_EnableFallingTrig_32_63
     /tmp/cc3fRK7k.s:774    .text.LL_EXTI_EnableFallingTrig_32_63:0000000000000020 $d
     /tmp/cc3fRK7k.s:779    .text.LL_EXTI_DisableFallingTrig_0_31:0000000000000000 $t
     /tmp/cc3fRK7k.s:785    .text.LL_EXTI_DisableFallingTrig_0_31:0000000000000000 LL_EXTI_DisableFallingTrig_0_31
     /tmp/cc3fRK7k.s:828    .text.LL_EXTI_DisableFallingTrig_0_31:0000000000000024 $d
     /tmp/cc3fRK7k.s:833    .text.LL_EXTI_DisableFallingTrig_32_63:0000000000000000 $t
     /tmp/cc3fRK7k.s:839    .text.LL_EXTI_DisableFallingTrig_32_63:0000000000000000 LL_EXTI_DisableFallingTrig_32_63
     /tmp/cc3fRK7k.s:882    .text.LL_EXTI_DisableFallingTrig_32_63:0000000000000024 $d
     /tmp/cc3fRK7k.s:887    .text.LL_EXTI_DeInit:0000000000000000 $t
     /tmp/cc3fRK7k.s:894    .text.LL_EXTI_DeInit:0000000000000000 LL_EXTI_DeInit
     /tmp/cc3fRK7k.s:973    .text.LL_EXTI_DeInit:000000000000005c $d
     /tmp/cc3fRK7k.s:979    .text.LL_EXTI_Init:0000000000000000 $t
     /tmp/cc3fRK7k.s:986    .text.LL_EXTI_Init:0000000000000000 LL_EXTI_Init
ARM GAS  /tmp/cc3fRK7k.s 			page 49


     /tmp/cc3fRK7k.s:1293   .text.LL_EXTI_StructInit:0000000000000000 $t
     /tmp/cc3fRK7k.s:1300   .text.LL_EXTI_StructInit:0000000000000000 LL_EXTI_StructInit

NO UNDEFINED SYMBOLS
