ARM GAS  /tmp/ccc5fm0Q.s 			page 1


   1              		.cpu cortex-m4
   2              		.eabi_attribute 27, 1
   3              		.eabi_attribute 28, 1
   4              		.eabi_attribute 20, 1
   5              		.eabi_attribute 21, 1
   6              		.eabi_attribute 23, 3
   7              		.eabi_attribute 24, 1
   8              		.eabi_attribute 25, 1
   9              		.eabi_attribute 26, 1
  10              		.eabi_attribute 30, 6
  11              		.eabi_attribute 34, 1
  12              		.eabi_attribute 18, 4
  13              		.file	"stm32f3xx_ll_usart.c"
  14              		.text
  15              	.Ltext0:
  16              		.cfi_sections	.debug_frame
  17              		.section	.text.LL_APB1_GRP1_ForceReset,"ax",%progbits
  18              		.align	1
  19              		.syntax unified
  20              		.thumb
  21              		.thumb_func
  22              		.fpu fpv4-sp-d16
  24              	LL_APB1_GRP1_ForceReset:
  25              	.LFB221:
  26              		.file 1 "Drivers/STM32F3xx_HAL_Driver/Inc/stm32f3xx_ll_bus.h"
   1:Drivers/STM32F3xx_HAL_Driver/Inc/stm32f3xx_ll_bus.h **** /**
   2:Drivers/STM32F3xx_HAL_Driver/Inc/stm32f3xx_ll_bus.h ****   ******************************************************************************
   3:Drivers/STM32F3xx_HAL_Driver/Inc/stm32f3xx_ll_bus.h ****   * @file    stm32f3xx_ll_bus.h
   4:Drivers/STM32F3xx_HAL_Driver/Inc/stm32f3xx_ll_bus.h ****   * @author  MCD Application Team
   5:Drivers/STM32F3xx_HAL_Driver/Inc/stm32f3xx_ll_bus.h ****   * @brief   Header file of BUS LL module.
   6:Drivers/STM32F3xx_HAL_Driver/Inc/stm32f3xx_ll_bus.h **** 
   7:Drivers/STM32F3xx_HAL_Driver/Inc/stm32f3xx_ll_bus.h ****   @verbatim                
   8:Drivers/STM32F3xx_HAL_Driver/Inc/stm32f3xx_ll_bus.h ****                       ##### RCC Limitations #####
   9:Drivers/STM32F3xx_HAL_Driver/Inc/stm32f3xx_ll_bus.h ****   ==============================================================================
  10:Drivers/STM32F3xx_HAL_Driver/Inc/stm32f3xx_ll_bus.h ****     [..]  
  11:Drivers/STM32F3xx_HAL_Driver/Inc/stm32f3xx_ll_bus.h ****       A delay between an RCC peripheral clock enable and the effective peripheral 
  12:Drivers/STM32F3xx_HAL_Driver/Inc/stm32f3xx_ll_bus.h ****       enabling should be taken into account in order to manage the peripheral read/write 
  13:Drivers/STM32F3xx_HAL_Driver/Inc/stm32f3xx_ll_bus.h ****       from/to registers.
  14:Drivers/STM32F3xx_HAL_Driver/Inc/stm32f3xx_ll_bus.h ****       (+) This delay depends on the peripheral mapping.
  15:Drivers/STM32F3xx_HAL_Driver/Inc/stm32f3xx_ll_bus.h ****         (++) AHB & APB peripherals, 1 dummy read is necessary
  16:Drivers/STM32F3xx_HAL_Driver/Inc/stm32f3xx_ll_bus.h **** 
  17:Drivers/STM32F3xx_HAL_Driver/Inc/stm32f3xx_ll_bus.h ****     [..]  
  18:Drivers/STM32F3xx_HAL_Driver/Inc/stm32f3xx_ll_bus.h ****       Workarounds:
  19:Drivers/STM32F3xx_HAL_Driver/Inc/stm32f3xx_ll_bus.h ****       (#) For AHB & APB peripherals, a dummy read to the peripheral register has been
  20:Drivers/STM32F3xx_HAL_Driver/Inc/stm32f3xx_ll_bus.h ****           inserted in each LL_{BUS}_GRP{x}_EnableClock() function.
  21:Drivers/STM32F3xx_HAL_Driver/Inc/stm32f3xx_ll_bus.h **** 
  22:Drivers/STM32F3xx_HAL_Driver/Inc/stm32f3xx_ll_bus.h ****   @endverbatim
  23:Drivers/STM32F3xx_HAL_Driver/Inc/stm32f3xx_ll_bus.h ****   ******************************************************************************
  24:Drivers/STM32F3xx_HAL_Driver/Inc/stm32f3xx_ll_bus.h ****   * @attention
  25:Drivers/STM32F3xx_HAL_Driver/Inc/stm32f3xx_ll_bus.h ****   *
  26:Drivers/STM32F3xx_HAL_Driver/Inc/stm32f3xx_ll_bus.h ****   * <h2><center>&copy; COPYRIGHT(c) 2016 STMicroelectronics</center></h2>
  27:Drivers/STM32F3xx_HAL_Driver/Inc/stm32f3xx_ll_bus.h ****   *
  28:Drivers/STM32F3xx_HAL_Driver/Inc/stm32f3xx_ll_bus.h ****   * Redistribution and use in source and binary forms, with or without modification,
  29:Drivers/STM32F3xx_HAL_Driver/Inc/stm32f3xx_ll_bus.h ****   * are permitted provided that the following conditions are met:
  30:Drivers/STM32F3xx_HAL_Driver/Inc/stm32f3xx_ll_bus.h ****   *   1. Redistributions of source code must retain the above copyright notice,
  31:Drivers/STM32F3xx_HAL_Driver/Inc/stm32f3xx_ll_bus.h ****   *      this list of conditions and the following disclaimer.
  32:Drivers/STM32F3xx_HAL_Driver/Inc/stm32f3xx_ll_bus.h ****   *   2. Redistributions in binary form must reproduce the above copyright notice,
ARM GAS  /tmp/ccc5fm0Q.s 			page 2


  33:Drivers/STM32F3xx_HAL_Driver/Inc/stm32f3xx_ll_bus.h ****   *      this list of conditions and the following disclaimer in the documentation
  34:Drivers/STM32F3xx_HAL_Driver/Inc/stm32f3xx_ll_bus.h ****   *      and/or other materials provided with the distribution.
  35:Drivers/STM32F3xx_HAL_Driver/Inc/stm32f3xx_ll_bus.h ****   *   3. Neither the name of STMicroelectronics nor the names of its contributors
  36:Drivers/STM32F3xx_HAL_Driver/Inc/stm32f3xx_ll_bus.h ****   *      may be used to endorse or promote products derived from this software
  37:Drivers/STM32F3xx_HAL_Driver/Inc/stm32f3xx_ll_bus.h ****   *      without specific prior written permission.
  38:Drivers/STM32F3xx_HAL_Driver/Inc/stm32f3xx_ll_bus.h ****   *
  39:Drivers/STM32F3xx_HAL_Driver/Inc/stm32f3xx_ll_bus.h ****   * THIS SOFTWARE IS PROVIDED BY THE COPYRIGHT HOLDERS AND CONTRIBUTORS "AS IS"
  40:Drivers/STM32F3xx_HAL_Driver/Inc/stm32f3xx_ll_bus.h ****   * AND ANY EXPRESS OR IMPLIED WARRANTIES, INCLUDING, BUT NOT LIMITED TO, THE
  41:Drivers/STM32F3xx_HAL_Driver/Inc/stm32f3xx_ll_bus.h ****   * IMPLIED WARRANTIES OF MERCHANTABILITY AND FITNESS FOR A PARTICULAR PURPOSE ARE
  42:Drivers/STM32F3xx_HAL_Driver/Inc/stm32f3xx_ll_bus.h ****   * DISCLAIMED. IN NO EVENT SHALL THE COPYRIGHT HOLDER OR CONTRIBUTORS BE LIABLE
  43:Drivers/STM32F3xx_HAL_Driver/Inc/stm32f3xx_ll_bus.h ****   * FOR ANY DIRECT, INDIRECT, INCIDENTAL, SPECIAL, EXEMPLARY, OR CONSEQUENTIAL
  44:Drivers/STM32F3xx_HAL_Driver/Inc/stm32f3xx_ll_bus.h ****   * DAMAGES (INCLUDING, BUT NOT LIMITED TO, PROCUREMENT OF SUBSTITUTE GOODS OR
  45:Drivers/STM32F3xx_HAL_Driver/Inc/stm32f3xx_ll_bus.h ****   * SERVICES; LOSS OF USE, DATA, OR PROFITS; OR BUSINESS INTERRUPTION) HOWEVER
  46:Drivers/STM32F3xx_HAL_Driver/Inc/stm32f3xx_ll_bus.h ****   * CAUSED AND ON ANY THEORY OF LIABILITY, WHETHER IN CONTRACT, STRICT LIABILITY,
  47:Drivers/STM32F3xx_HAL_Driver/Inc/stm32f3xx_ll_bus.h ****   * OR TORT (INCLUDING NEGLIGENCE OR OTHERWISE) ARISING IN ANY WAY OUT OF THE USE
  48:Drivers/STM32F3xx_HAL_Driver/Inc/stm32f3xx_ll_bus.h ****   * OF THIS SOFTWARE, EVEN IF ADVISED OF THE POSSIBILITY OF SUCH DAMAGE.
  49:Drivers/STM32F3xx_HAL_Driver/Inc/stm32f3xx_ll_bus.h ****   *
  50:Drivers/STM32F3xx_HAL_Driver/Inc/stm32f3xx_ll_bus.h ****   ******************************************************************************
  51:Drivers/STM32F3xx_HAL_Driver/Inc/stm32f3xx_ll_bus.h ****   */
  52:Drivers/STM32F3xx_HAL_Driver/Inc/stm32f3xx_ll_bus.h **** 
  53:Drivers/STM32F3xx_HAL_Driver/Inc/stm32f3xx_ll_bus.h **** /* Define to prevent recursive inclusion -------------------------------------*/
  54:Drivers/STM32F3xx_HAL_Driver/Inc/stm32f3xx_ll_bus.h **** #ifndef __STM32F3xx_LL_BUS_H
  55:Drivers/STM32F3xx_HAL_Driver/Inc/stm32f3xx_ll_bus.h **** #define __STM32F3xx_LL_BUS_H
  56:Drivers/STM32F3xx_HAL_Driver/Inc/stm32f3xx_ll_bus.h **** 
  57:Drivers/STM32F3xx_HAL_Driver/Inc/stm32f3xx_ll_bus.h **** #ifdef __cplusplus
  58:Drivers/STM32F3xx_HAL_Driver/Inc/stm32f3xx_ll_bus.h **** extern "C" {
  59:Drivers/STM32F3xx_HAL_Driver/Inc/stm32f3xx_ll_bus.h **** #endif
  60:Drivers/STM32F3xx_HAL_Driver/Inc/stm32f3xx_ll_bus.h **** 
  61:Drivers/STM32F3xx_HAL_Driver/Inc/stm32f3xx_ll_bus.h **** /* Includes ------------------------------------------------------------------*/
  62:Drivers/STM32F3xx_HAL_Driver/Inc/stm32f3xx_ll_bus.h **** #include "stm32f3xx.h"
  63:Drivers/STM32F3xx_HAL_Driver/Inc/stm32f3xx_ll_bus.h **** 
  64:Drivers/STM32F3xx_HAL_Driver/Inc/stm32f3xx_ll_bus.h **** /** @addtogroup STM32F3xx_LL_Driver
  65:Drivers/STM32F3xx_HAL_Driver/Inc/stm32f3xx_ll_bus.h ****   * @{
  66:Drivers/STM32F3xx_HAL_Driver/Inc/stm32f3xx_ll_bus.h ****   */
  67:Drivers/STM32F3xx_HAL_Driver/Inc/stm32f3xx_ll_bus.h **** 
  68:Drivers/STM32F3xx_HAL_Driver/Inc/stm32f3xx_ll_bus.h **** #if defined(RCC)
  69:Drivers/STM32F3xx_HAL_Driver/Inc/stm32f3xx_ll_bus.h **** 
  70:Drivers/STM32F3xx_HAL_Driver/Inc/stm32f3xx_ll_bus.h **** /** @defgroup BUS_LL BUS
  71:Drivers/STM32F3xx_HAL_Driver/Inc/stm32f3xx_ll_bus.h ****   * @{
  72:Drivers/STM32F3xx_HAL_Driver/Inc/stm32f3xx_ll_bus.h ****   */
  73:Drivers/STM32F3xx_HAL_Driver/Inc/stm32f3xx_ll_bus.h **** 
  74:Drivers/STM32F3xx_HAL_Driver/Inc/stm32f3xx_ll_bus.h **** /* Private types -------------------------------------------------------------*/
  75:Drivers/STM32F3xx_HAL_Driver/Inc/stm32f3xx_ll_bus.h **** /* Private variables ---------------------------------------------------------*/
  76:Drivers/STM32F3xx_HAL_Driver/Inc/stm32f3xx_ll_bus.h **** 
  77:Drivers/STM32F3xx_HAL_Driver/Inc/stm32f3xx_ll_bus.h **** /* Private constants ---------------------------------------------------------*/
  78:Drivers/STM32F3xx_HAL_Driver/Inc/stm32f3xx_ll_bus.h **** 
  79:Drivers/STM32F3xx_HAL_Driver/Inc/stm32f3xx_ll_bus.h **** /* Private macros ------------------------------------------------------------*/
  80:Drivers/STM32F3xx_HAL_Driver/Inc/stm32f3xx_ll_bus.h **** 
  81:Drivers/STM32F3xx_HAL_Driver/Inc/stm32f3xx_ll_bus.h **** /* Exported types ------------------------------------------------------------*/
  82:Drivers/STM32F3xx_HAL_Driver/Inc/stm32f3xx_ll_bus.h **** /* Exported constants --------------------------------------------------------*/
  83:Drivers/STM32F3xx_HAL_Driver/Inc/stm32f3xx_ll_bus.h **** /** @defgroup BUS_LL_Exported_Constants BUS Exported Constants
  84:Drivers/STM32F3xx_HAL_Driver/Inc/stm32f3xx_ll_bus.h ****   * @{
  85:Drivers/STM32F3xx_HAL_Driver/Inc/stm32f3xx_ll_bus.h ****   */
  86:Drivers/STM32F3xx_HAL_Driver/Inc/stm32f3xx_ll_bus.h **** 
  87:Drivers/STM32F3xx_HAL_Driver/Inc/stm32f3xx_ll_bus.h **** /** @defgroup BUS_LL_EC_AHB1_GRP1_PERIPH  AHB1 GRP1 PERIPH
  88:Drivers/STM32F3xx_HAL_Driver/Inc/stm32f3xx_ll_bus.h ****   * @{
  89:Drivers/STM32F3xx_HAL_Driver/Inc/stm32f3xx_ll_bus.h ****   */
ARM GAS  /tmp/ccc5fm0Q.s 			page 3


  90:Drivers/STM32F3xx_HAL_Driver/Inc/stm32f3xx_ll_bus.h **** #define LL_AHB1_GRP1_PERIPH_ALL            (uint32_t)0xFFFFFFFFU
  91:Drivers/STM32F3xx_HAL_Driver/Inc/stm32f3xx_ll_bus.h **** #define LL_AHB1_GRP1_PERIPH_DMA1           RCC_AHBENR_DMA1EN
  92:Drivers/STM32F3xx_HAL_Driver/Inc/stm32f3xx_ll_bus.h **** #if defined(DMA2)
  93:Drivers/STM32F3xx_HAL_Driver/Inc/stm32f3xx_ll_bus.h **** #define LL_AHB1_GRP1_PERIPH_DMA2           RCC_AHBENR_DMA2EN
  94:Drivers/STM32F3xx_HAL_Driver/Inc/stm32f3xx_ll_bus.h **** #endif /*DMA2*/
  95:Drivers/STM32F3xx_HAL_Driver/Inc/stm32f3xx_ll_bus.h **** #define LL_AHB1_GRP1_PERIPH_SRAM           RCC_AHBENR_SRAMEN
  96:Drivers/STM32F3xx_HAL_Driver/Inc/stm32f3xx_ll_bus.h **** #define LL_AHB1_GRP1_PERIPH_FLASH          RCC_AHBENR_FLITFEN
  97:Drivers/STM32F3xx_HAL_Driver/Inc/stm32f3xx_ll_bus.h **** #if defined(FMC_Bank1)
  98:Drivers/STM32F3xx_HAL_Driver/Inc/stm32f3xx_ll_bus.h **** #define LL_AHB1_GRP1_PERIPH_FMC            RCC_AHBENR_FMCEN
  99:Drivers/STM32F3xx_HAL_Driver/Inc/stm32f3xx_ll_bus.h **** #endif /*FMC_Bank1*/
 100:Drivers/STM32F3xx_HAL_Driver/Inc/stm32f3xx_ll_bus.h **** #define LL_AHB1_GRP1_PERIPH_CRC            RCC_AHBENR_CRCEN
 101:Drivers/STM32F3xx_HAL_Driver/Inc/stm32f3xx_ll_bus.h **** #if defined(GPIOH)
 102:Drivers/STM32F3xx_HAL_Driver/Inc/stm32f3xx_ll_bus.h **** #define LL_AHB1_GRP1_PERIPH_GPIOH          RCC_AHBENR_GPIOHEN
 103:Drivers/STM32F3xx_HAL_Driver/Inc/stm32f3xx_ll_bus.h **** #endif /*GPIOH*/
 104:Drivers/STM32F3xx_HAL_Driver/Inc/stm32f3xx_ll_bus.h **** #define LL_AHB1_GRP1_PERIPH_GPIOA          RCC_AHBENR_GPIOAEN
 105:Drivers/STM32F3xx_HAL_Driver/Inc/stm32f3xx_ll_bus.h **** #define LL_AHB1_GRP1_PERIPH_GPIOB          RCC_AHBENR_GPIOBEN
 106:Drivers/STM32F3xx_HAL_Driver/Inc/stm32f3xx_ll_bus.h **** #define LL_AHB1_GRP1_PERIPH_GPIOC          RCC_AHBENR_GPIOCEN
 107:Drivers/STM32F3xx_HAL_Driver/Inc/stm32f3xx_ll_bus.h **** #define LL_AHB1_GRP1_PERIPH_GPIOD          RCC_AHBENR_GPIODEN
 108:Drivers/STM32F3xx_HAL_Driver/Inc/stm32f3xx_ll_bus.h **** #if defined(GPIOE)
 109:Drivers/STM32F3xx_HAL_Driver/Inc/stm32f3xx_ll_bus.h **** #define LL_AHB1_GRP1_PERIPH_GPIOE          RCC_AHBENR_GPIOEEN
 110:Drivers/STM32F3xx_HAL_Driver/Inc/stm32f3xx_ll_bus.h **** #endif /*GPIOE*/
 111:Drivers/STM32F3xx_HAL_Driver/Inc/stm32f3xx_ll_bus.h **** #define LL_AHB1_GRP1_PERIPH_GPIOF          RCC_AHBENR_GPIOFEN
 112:Drivers/STM32F3xx_HAL_Driver/Inc/stm32f3xx_ll_bus.h **** #if defined(GPIOG)
 113:Drivers/STM32F3xx_HAL_Driver/Inc/stm32f3xx_ll_bus.h **** #define LL_AHB1_GRP1_PERIPH_GPIOG          RCC_AHBENR_GPIOGEN
 114:Drivers/STM32F3xx_HAL_Driver/Inc/stm32f3xx_ll_bus.h **** #endif /*GPIOH*/
 115:Drivers/STM32F3xx_HAL_Driver/Inc/stm32f3xx_ll_bus.h **** #define LL_AHB1_GRP1_PERIPH_TSC            RCC_AHBENR_TSCEN
 116:Drivers/STM32F3xx_HAL_Driver/Inc/stm32f3xx_ll_bus.h **** #if defined(RCC_AHBENR_ADC1EN)
 117:Drivers/STM32F3xx_HAL_Driver/Inc/stm32f3xx_ll_bus.h **** #define LL_AHB1_GRP1_PERIPH_ADC1           RCC_AHBENR_ADC1EN
 118:Drivers/STM32F3xx_HAL_Driver/Inc/stm32f3xx_ll_bus.h **** #endif /*RCC_AHBENR_ADC1EN*/
 119:Drivers/STM32F3xx_HAL_Driver/Inc/stm32f3xx_ll_bus.h **** #if defined(ADC1_2_COMMON)
 120:Drivers/STM32F3xx_HAL_Driver/Inc/stm32f3xx_ll_bus.h **** #define LL_AHB1_GRP1_PERIPH_ADC12          RCC_AHBENR_ADC12EN
 121:Drivers/STM32F3xx_HAL_Driver/Inc/stm32f3xx_ll_bus.h **** #endif /*ADC1_2_COMMON*/
 122:Drivers/STM32F3xx_HAL_Driver/Inc/stm32f3xx_ll_bus.h **** #if defined(ADC3_4_COMMON)
 123:Drivers/STM32F3xx_HAL_Driver/Inc/stm32f3xx_ll_bus.h **** #define LL_AHB1_GRP1_PERIPH_ADC34          RCC_AHBENR_ADC34EN
 124:Drivers/STM32F3xx_HAL_Driver/Inc/stm32f3xx_ll_bus.h **** #endif /*ADC3_4_COMMON*/
 125:Drivers/STM32F3xx_HAL_Driver/Inc/stm32f3xx_ll_bus.h **** /**
 126:Drivers/STM32F3xx_HAL_Driver/Inc/stm32f3xx_ll_bus.h ****   * @}
 127:Drivers/STM32F3xx_HAL_Driver/Inc/stm32f3xx_ll_bus.h ****   */
 128:Drivers/STM32F3xx_HAL_Driver/Inc/stm32f3xx_ll_bus.h **** 
 129:Drivers/STM32F3xx_HAL_Driver/Inc/stm32f3xx_ll_bus.h **** /** @defgroup BUS_LL_EC_APB1_GRP1_PERIPH  APB1 GRP1 PERIPH
 130:Drivers/STM32F3xx_HAL_Driver/Inc/stm32f3xx_ll_bus.h ****   * @{
 131:Drivers/STM32F3xx_HAL_Driver/Inc/stm32f3xx_ll_bus.h ****   */
 132:Drivers/STM32F3xx_HAL_Driver/Inc/stm32f3xx_ll_bus.h **** #define LL_APB1_GRP1_PERIPH_ALL            (uint32_t)0xFFFFFFFFU
 133:Drivers/STM32F3xx_HAL_Driver/Inc/stm32f3xx_ll_bus.h **** #define LL_APB1_GRP1_PERIPH_TIM2           RCC_APB1ENR_TIM2EN
 134:Drivers/STM32F3xx_HAL_Driver/Inc/stm32f3xx_ll_bus.h **** #if defined(TIM3)
 135:Drivers/STM32F3xx_HAL_Driver/Inc/stm32f3xx_ll_bus.h **** #define LL_APB1_GRP1_PERIPH_TIM3           RCC_APB1ENR_TIM3EN
 136:Drivers/STM32F3xx_HAL_Driver/Inc/stm32f3xx_ll_bus.h **** #endif /*TIM3*/
 137:Drivers/STM32F3xx_HAL_Driver/Inc/stm32f3xx_ll_bus.h **** #if defined(TIM4)
 138:Drivers/STM32F3xx_HAL_Driver/Inc/stm32f3xx_ll_bus.h **** #define LL_APB1_GRP1_PERIPH_TIM4           RCC_APB1ENR_TIM4EN
 139:Drivers/STM32F3xx_HAL_Driver/Inc/stm32f3xx_ll_bus.h **** #endif /*TIM4*/
 140:Drivers/STM32F3xx_HAL_Driver/Inc/stm32f3xx_ll_bus.h **** #if defined(TIM5)
 141:Drivers/STM32F3xx_HAL_Driver/Inc/stm32f3xx_ll_bus.h **** #define LL_APB1_GRP1_PERIPH_TIM5           RCC_APB1ENR_TIM5EN
 142:Drivers/STM32F3xx_HAL_Driver/Inc/stm32f3xx_ll_bus.h **** #endif /*TIM5*/
 143:Drivers/STM32F3xx_HAL_Driver/Inc/stm32f3xx_ll_bus.h **** #define LL_APB1_GRP1_PERIPH_TIM6           RCC_APB1ENR_TIM6EN
 144:Drivers/STM32F3xx_HAL_Driver/Inc/stm32f3xx_ll_bus.h **** #if defined(TIM7)
 145:Drivers/STM32F3xx_HAL_Driver/Inc/stm32f3xx_ll_bus.h **** #define LL_APB1_GRP1_PERIPH_TIM7           RCC_APB1ENR_TIM7EN
 146:Drivers/STM32F3xx_HAL_Driver/Inc/stm32f3xx_ll_bus.h **** #endif /*TIM7*/
ARM GAS  /tmp/ccc5fm0Q.s 			page 4


 147:Drivers/STM32F3xx_HAL_Driver/Inc/stm32f3xx_ll_bus.h **** #if defined(TIM12)
 148:Drivers/STM32F3xx_HAL_Driver/Inc/stm32f3xx_ll_bus.h **** #define LL_APB1_GRP1_PERIPH_TIM12          RCC_APB1ENR_TIM12EN
 149:Drivers/STM32F3xx_HAL_Driver/Inc/stm32f3xx_ll_bus.h **** #endif /*TIM12*/
 150:Drivers/STM32F3xx_HAL_Driver/Inc/stm32f3xx_ll_bus.h **** #if defined(TIM13)
 151:Drivers/STM32F3xx_HAL_Driver/Inc/stm32f3xx_ll_bus.h **** #define LL_APB1_GRP1_PERIPH_TIM13          RCC_APB1ENR_TIM13EN
 152:Drivers/STM32F3xx_HAL_Driver/Inc/stm32f3xx_ll_bus.h **** #endif /*TIM13*/
 153:Drivers/STM32F3xx_HAL_Driver/Inc/stm32f3xx_ll_bus.h **** #if defined(TIM14)
 154:Drivers/STM32F3xx_HAL_Driver/Inc/stm32f3xx_ll_bus.h **** #define LL_APB1_GRP1_PERIPH_TIM14          RCC_APB1ENR_TIM14EN
 155:Drivers/STM32F3xx_HAL_Driver/Inc/stm32f3xx_ll_bus.h **** #endif /*TIM14*/
 156:Drivers/STM32F3xx_HAL_Driver/Inc/stm32f3xx_ll_bus.h **** #if defined(TIM18)
 157:Drivers/STM32F3xx_HAL_Driver/Inc/stm32f3xx_ll_bus.h **** #define LL_APB1_GRP1_PERIPH_TIM18          RCC_APB1ENR_TIM18EN
 158:Drivers/STM32F3xx_HAL_Driver/Inc/stm32f3xx_ll_bus.h **** #endif /*TIM18*/
 159:Drivers/STM32F3xx_HAL_Driver/Inc/stm32f3xx_ll_bus.h **** #define LL_APB1_GRP1_PERIPH_WWDG           RCC_APB1ENR_WWDGEN
 160:Drivers/STM32F3xx_HAL_Driver/Inc/stm32f3xx_ll_bus.h **** #if defined(SPI2)
 161:Drivers/STM32F3xx_HAL_Driver/Inc/stm32f3xx_ll_bus.h **** #define LL_APB1_GRP1_PERIPH_SPI2           RCC_APB1ENR_SPI2EN
 162:Drivers/STM32F3xx_HAL_Driver/Inc/stm32f3xx_ll_bus.h **** #endif /*SPI2*/
 163:Drivers/STM32F3xx_HAL_Driver/Inc/stm32f3xx_ll_bus.h **** #if defined(SPI3)
 164:Drivers/STM32F3xx_HAL_Driver/Inc/stm32f3xx_ll_bus.h **** #define LL_APB1_GRP1_PERIPH_SPI3           RCC_APB1ENR_SPI3EN
 165:Drivers/STM32F3xx_HAL_Driver/Inc/stm32f3xx_ll_bus.h **** #endif /*SPI3*/
 166:Drivers/STM32F3xx_HAL_Driver/Inc/stm32f3xx_ll_bus.h **** #define LL_APB1_GRP1_PERIPH_USART2         RCC_APB1ENR_USART2EN
 167:Drivers/STM32F3xx_HAL_Driver/Inc/stm32f3xx_ll_bus.h **** #define LL_APB1_GRP1_PERIPH_USART3         RCC_APB1ENR_USART3EN
 168:Drivers/STM32F3xx_HAL_Driver/Inc/stm32f3xx_ll_bus.h **** #if defined(UART4)
 169:Drivers/STM32F3xx_HAL_Driver/Inc/stm32f3xx_ll_bus.h **** #define LL_APB1_GRP1_PERIPH_UART4          RCC_APB1ENR_UART4EN
 170:Drivers/STM32F3xx_HAL_Driver/Inc/stm32f3xx_ll_bus.h **** #endif /*UART4*/
 171:Drivers/STM32F3xx_HAL_Driver/Inc/stm32f3xx_ll_bus.h **** #if defined(UART5)
 172:Drivers/STM32F3xx_HAL_Driver/Inc/stm32f3xx_ll_bus.h **** #define LL_APB1_GRP1_PERIPH_UART5          RCC_APB1ENR_UART5EN
 173:Drivers/STM32F3xx_HAL_Driver/Inc/stm32f3xx_ll_bus.h **** #endif /*UART5*/
 174:Drivers/STM32F3xx_HAL_Driver/Inc/stm32f3xx_ll_bus.h **** #define LL_APB1_GRP1_PERIPH_I2C1           RCC_APB1ENR_I2C1EN
 175:Drivers/STM32F3xx_HAL_Driver/Inc/stm32f3xx_ll_bus.h **** #if defined(I2C2)
 176:Drivers/STM32F3xx_HAL_Driver/Inc/stm32f3xx_ll_bus.h **** #define LL_APB1_GRP1_PERIPH_I2C2           RCC_APB1ENR_I2C2EN
 177:Drivers/STM32F3xx_HAL_Driver/Inc/stm32f3xx_ll_bus.h **** #endif /*I2C2*/
 178:Drivers/STM32F3xx_HAL_Driver/Inc/stm32f3xx_ll_bus.h **** #if defined(USB)
 179:Drivers/STM32F3xx_HAL_Driver/Inc/stm32f3xx_ll_bus.h **** #define LL_APB1_GRP1_PERIPH_USB            RCC_APB1ENR_USBEN
 180:Drivers/STM32F3xx_HAL_Driver/Inc/stm32f3xx_ll_bus.h **** #endif /*USB*/
 181:Drivers/STM32F3xx_HAL_Driver/Inc/stm32f3xx_ll_bus.h **** #if defined(CAN)
 182:Drivers/STM32F3xx_HAL_Driver/Inc/stm32f3xx_ll_bus.h **** #define LL_APB1_GRP1_PERIPH_CAN            RCC_APB1ENR_CANEN
 183:Drivers/STM32F3xx_HAL_Driver/Inc/stm32f3xx_ll_bus.h **** #endif /*CAN*/
 184:Drivers/STM32F3xx_HAL_Driver/Inc/stm32f3xx_ll_bus.h **** #if defined(DAC2)
 185:Drivers/STM32F3xx_HAL_Driver/Inc/stm32f3xx_ll_bus.h **** #define LL_APB1_GRP1_PERIPH_DAC2           RCC_APB1ENR_DAC2EN
 186:Drivers/STM32F3xx_HAL_Driver/Inc/stm32f3xx_ll_bus.h **** #endif /*DAC2*/
 187:Drivers/STM32F3xx_HAL_Driver/Inc/stm32f3xx_ll_bus.h **** #define LL_APB1_GRP1_PERIPH_PWR            RCC_APB1ENR_PWREN
 188:Drivers/STM32F3xx_HAL_Driver/Inc/stm32f3xx_ll_bus.h **** #define LL_APB1_GRP1_PERIPH_DAC1           RCC_APB1ENR_DAC1EN
 189:Drivers/STM32F3xx_HAL_Driver/Inc/stm32f3xx_ll_bus.h **** #if defined(CEC)
 190:Drivers/STM32F3xx_HAL_Driver/Inc/stm32f3xx_ll_bus.h **** #define LL_APB1_GRP1_PERIPH_CEC            RCC_APB1ENR_CECEN
 191:Drivers/STM32F3xx_HAL_Driver/Inc/stm32f3xx_ll_bus.h **** #endif /*CEC*/
 192:Drivers/STM32F3xx_HAL_Driver/Inc/stm32f3xx_ll_bus.h **** #if defined(I2C3)
 193:Drivers/STM32F3xx_HAL_Driver/Inc/stm32f3xx_ll_bus.h **** #define LL_APB1_GRP1_PERIPH_I2C3           RCC_APB1ENR_I2C3EN
 194:Drivers/STM32F3xx_HAL_Driver/Inc/stm32f3xx_ll_bus.h **** #endif /*I2C3*/
 195:Drivers/STM32F3xx_HAL_Driver/Inc/stm32f3xx_ll_bus.h **** /**
 196:Drivers/STM32F3xx_HAL_Driver/Inc/stm32f3xx_ll_bus.h ****   * @}
 197:Drivers/STM32F3xx_HAL_Driver/Inc/stm32f3xx_ll_bus.h ****   */
 198:Drivers/STM32F3xx_HAL_Driver/Inc/stm32f3xx_ll_bus.h **** 
 199:Drivers/STM32F3xx_HAL_Driver/Inc/stm32f3xx_ll_bus.h **** /** @defgroup BUS_LL_EC_APB2_GRP1_PERIPH  APB2 GRP1 PERIPH
 200:Drivers/STM32F3xx_HAL_Driver/Inc/stm32f3xx_ll_bus.h ****   * @{
 201:Drivers/STM32F3xx_HAL_Driver/Inc/stm32f3xx_ll_bus.h ****   */
 202:Drivers/STM32F3xx_HAL_Driver/Inc/stm32f3xx_ll_bus.h **** #define LL_APB2_GRP1_PERIPH_ALL            (uint32_t)0xFFFFFFFFU
 203:Drivers/STM32F3xx_HAL_Driver/Inc/stm32f3xx_ll_bus.h **** #define LL_APB2_GRP1_PERIPH_SYSCFG         RCC_APB2ENR_SYSCFGEN
ARM GAS  /tmp/ccc5fm0Q.s 			page 5


 204:Drivers/STM32F3xx_HAL_Driver/Inc/stm32f3xx_ll_bus.h **** #if defined(RCC_APB2ENR_ADC1EN)
 205:Drivers/STM32F3xx_HAL_Driver/Inc/stm32f3xx_ll_bus.h **** #define LL_APB2_GRP1_PERIPH_ADC1           RCC_APB2ENR_ADC1EN
 206:Drivers/STM32F3xx_HAL_Driver/Inc/stm32f3xx_ll_bus.h **** #endif /*RCC_APB2ENR_ADC1EN*/
 207:Drivers/STM32F3xx_HAL_Driver/Inc/stm32f3xx_ll_bus.h **** #if defined(TIM1)
 208:Drivers/STM32F3xx_HAL_Driver/Inc/stm32f3xx_ll_bus.h **** #define LL_APB2_GRP1_PERIPH_TIM1           RCC_APB2ENR_TIM1EN
 209:Drivers/STM32F3xx_HAL_Driver/Inc/stm32f3xx_ll_bus.h **** #endif /*TIM1*/
 210:Drivers/STM32F3xx_HAL_Driver/Inc/stm32f3xx_ll_bus.h **** #if defined(SPI1)
 211:Drivers/STM32F3xx_HAL_Driver/Inc/stm32f3xx_ll_bus.h **** #define LL_APB2_GRP1_PERIPH_SPI1           RCC_APB2ENR_SPI1EN
 212:Drivers/STM32F3xx_HAL_Driver/Inc/stm32f3xx_ll_bus.h **** #endif /*SPI1*/
 213:Drivers/STM32F3xx_HAL_Driver/Inc/stm32f3xx_ll_bus.h **** #if defined(TIM8)
 214:Drivers/STM32F3xx_HAL_Driver/Inc/stm32f3xx_ll_bus.h **** #define LL_APB2_GRP1_PERIPH_TIM8           RCC_APB2ENR_TIM8EN
 215:Drivers/STM32F3xx_HAL_Driver/Inc/stm32f3xx_ll_bus.h **** #endif /*TIM8*/
 216:Drivers/STM32F3xx_HAL_Driver/Inc/stm32f3xx_ll_bus.h **** #define LL_APB2_GRP1_PERIPH_USART1         RCC_APB2ENR_USART1EN
 217:Drivers/STM32F3xx_HAL_Driver/Inc/stm32f3xx_ll_bus.h **** #if defined(SPI4)
 218:Drivers/STM32F3xx_HAL_Driver/Inc/stm32f3xx_ll_bus.h **** #define LL_APB2_GRP1_PERIPH_SPI4           RCC_APB2ENR_SPI4EN
 219:Drivers/STM32F3xx_HAL_Driver/Inc/stm32f3xx_ll_bus.h **** #endif /*SPI4*/
 220:Drivers/STM32F3xx_HAL_Driver/Inc/stm32f3xx_ll_bus.h **** #define LL_APB2_GRP1_PERIPH_TIM15          RCC_APB2ENR_TIM15EN
 221:Drivers/STM32F3xx_HAL_Driver/Inc/stm32f3xx_ll_bus.h **** #define LL_APB2_GRP1_PERIPH_TIM16          RCC_APB2ENR_TIM16EN
 222:Drivers/STM32F3xx_HAL_Driver/Inc/stm32f3xx_ll_bus.h **** #define LL_APB2_GRP1_PERIPH_TIM17          RCC_APB2ENR_TIM17EN
 223:Drivers/STM32F3xx_HAL_Driver/Inc/stm32f3xx_ll_bus.h **** #if defined(TIM19)
 224:Drivers/STM32F3xx_HAL_Driver/Inc/stm32f3xx_ll_bus.h **** #define LL_APB2_GRP1_PERIPH_TIM19          RCC_APB2ENR_TIM19EN
 225:Drivers/STM32F3xx_HAL_Driver/Inc/stm32f3xx_ll_bus.h **** #endif /*TIM19*/
 226:Drivers/STM32F3xx_HAL_Driver/Inc/stm32f3xx_ll_bus.h **** #if defined(TIM20)
 227:Drivers/STM32F3xx_HAL_Driver/Inc/stm32f3xx_ll_bus.h **** #define LL_APB2_GRP1_PERIPH_TIM20          RCC_APB2ENR_TIM20EN
 228:Drivers/STM32F3xx_HAL_Driver/Inc/stm32f3xx_ll_bus.h **** #endif /*TIM20*/
 229:Drivers/STM32F3xx_HAL_Driver/Inc/stm32f3xx_ll_bus.h **** #if defined(HRTIM1)
 230:Drivers/STM32F3xx_HAL_Driver/Inc/stm32f3xx_ll_bus.h **** #define LL_APB2_GRP1_PERIPH_HRTIM1         RCC_APB2ENR_HRTIM1EN
 231:Drivers/STM32F3xx_HAL_Driver/Inc/stm32f3xx_ll_bus.h **** #endif /*HRTIM1*/
 232:Drivers/STM32F3xx_HAL_Driver/Inc/stm32f3xx_ll_bus.h **** #if defined(SDADC1)
 233:Drivers/STM32F3xx_HAL_Driver/Inc/stm32f3xx_ll_bus.h **** #define LL_APB2_GRP1_PERIPH_SDADC1         RCC_APB2ENR_SDADC1EN
 234:Drivers/STM32F3xx_HAL_Driver/Inc/stm32f3xx_ll_bus.h **** #endif /*SDADC1*/
 235:Drivers/STM32F3xx_HAL_Driver/Inc/stm32f3xx_ll_bus.h **** #if defined(SDADC2)
 236:Drivers/STM32F3xx_HAL_Driver/Inc/stm32f3xx_ll_bus.h **** #define LL_APB2_GRP1_PERIPH_SDADC2         RCC_APB2ENR_SDADC2EN
 237:Drivers/STM32F3xx_HAL_Driver/Inc/stm32f3xx_ll_bus.h **** #endif /*SDADC2*/
 238:Drivers/STM32F3xx_HAL_Driver/Inc/stm32f3xx_ll_bus.h **** #if defined(SDADC3)
 239:Drivers/STM32F3xx_HAL_Driver/Inc/stm32f3xx_ll_bus.h **** #define LL_APB2_GRP1_PERIPH_SDADC3         RCC_APB2ENR_SDADC3EN
 240:Drivers/STM32F3xx_HAL_Driver/Inc/stm32f3xx_ll_bus.h **** #endif /*SDADC3*/
 241:Drivers/STM32F3xx_HAL_Driver/Inc/stm32f3xx_ll_bus.h **** /**
 242:Drivers/STM32F3xx_HAL_Driver/Inc/stm32f3xx_ll_bus.h ****   * @}
 243:Drivers/STM32F3xx_HAL_Driver/Inc/stm32f3xx_ll_bus.h ****   */
 244:Drivers/STM32F3xx_HAL_Driver/Inc/stm32f3xx_ll_bus.h **** 
 245:Drivers/STM32F3xx_HAL_Driver/Inc/stm32f3xx_ll_bus.h **** /**
 246:Drivers/STM32F3xx_HAL_Driver/Inc/stm32f3xx_ll_bus.h ****   * @}
 247:Drivers/STM32F3xx_HAL_Driver/Inc/stm32f3xx_ll_bus.h ****   */
 248:Drivers/STM32F3xx_HAL_Driver/Inc/stm32f3xx_ll_bus.h **** 
 249:Drivers/STM32F3xx_HAL_Driver/Inc/stm32f3xx_ll_bus.h **** /* Exported macro ------------------------------------------------------------*/
 250:Drivers/STM32F3xx_HAL_Driver/Inc/stm32f3xx_ll_bus.h **** 
 251:Drivers/STM32F3xx_HAL_Driver/Inc/stm32f3xx_ll_bus.h **** /* Exported functions --------------------------------------------------------*/
 252:Drivers/STM32F3xx_HAL_Driver/Inc/stm32f3xx_ll_bus.h **** /** @defgroup BUS_LL_Exported_Functions BUS Exported Functions
 253:Drivers/STM32F3xx_HAL_Driver/Inc/stm32f3xx_ll_bus.h ****   * @{
 254:Drivers/STM32F3xx_HAL_Driver/Inc/stm32f3xx_ll_bus.h ****   */
 255:Drivers/STM32F3xx_HAL_Driver/Inc/stm32f3xx_ll_bus.h **** 
 256:Drivers/STM32F3xx_HAL_Driver/Inc/stm32f3xx_ll_bus.h **** /** @defgroup BUS_LL_EF_AHB1 AHB1
 257:Drivers/STM32F3xx_HAL_Driver/Inc/stm32f3xx_ll_bus.h ****   * @{
 258:Drivers/STM32F3xx_HAL_Driver/Inc/stm32f3xx_ll_bus.h ****   */
 259:Drivers/STM32F3xx_HAL_Driver/Inc/stm32f3xx_ll_bus.h **** 
 260:Drivers/STM32F3xx_HAL_Driver/Inc/stm32f3xx_ll_bus.h **** /**
ARM GAS  /tmp/ccc5fm0Q.s 			page 6


 261:Drivers/STM32F3xx_HAL_Driver/Inc/stm32f3xx_ll_bus.h ****   * @brief  Enable AHB1 peripherals clock.
 262:Drivers/STM32F3xx_HAL_Driver/Inc/stm32f3xx_ll_bus.h ****   * @rmtoll AHBENR       DMA1EN        LL_AHB1_GRP1_EnableClock\n
 263:Drivers/STM32F3xx_HAL_Driver/Inc/stm32f3xx_ll_bus.h ****   *         AHBENR       DMA2EN        LL_AHB1_GRP1_EnableClock\n
 264:Drivers/STM32F3xx_HAL_Driver/Inc/stm32f3xx_ll_bus.h ****   *         AHBENR       SRAMEN        LL_AHB1_GRP1_EnableClock\n
 265:Drivers/STM32F3xx_HAL_Driver/Inc/stm32f3xx_ll_bus.h ****   *         AHBENR       FLITFEN       LL_AHB1_GRP1_EnableClock\n
 266:Drivers/STM32F3xx_HAL_Driver/Inc/stm32f3xx_ll_bus.h ****   *         AHBENR       FMCEN         LL_AHB1_GRP1_EnableClock\n
 267:Drivers/STM32F3xx_HAL_Driver/Inc/stm32f3xx_ll_bus.h ****   *         AHBENR       CRCEN         LL_AHB1_GRP1_EnableClock\n
 268:Drivers/STM32F3xx_HAL_Driver/Inc/stm32f3xx_ll_bus.h ****   *         AHBENR       GPIOHEN       LL_AHB1_GRP1_EnableClock\n
 269:Drivers/STM32F3xx_HAL_Driver/Inc/stm32f3xx_ll_bus.h ****   *         AHBENR       GPIOAEN       LL_AHB1_GRP1_EnableClock\n
 270:Drivers/STM32F3xx_HAL_Driver/Inc/stm32f3xx_ll_bus.h ****   *         AHBENR       GPIOBEN       LL_AHB1_GRP1_EnableClock\n
 271:Drivers/STM32F3xx_HAL_Driver/Inc/stm32f3xx_ll_bus.h ****   *         AHBENR       GPIOCEN       LL_AHB1_GRP1_EnableClock\n
 272:Drivers/STM32F3xx_HAL_Driver/Inc/stm32f3xx_ll_bus.h ****   *         AHBENR       GPIODEN       LL_AHB1_GRP1_EnableClock\n
 273:Drivers/STM32F3xx_HAL_Driver/Inc/stm32f3xx_ll_bus.h ****   *         AHBENR       GPIOEEN       LL_AHB1_GRP1_EnableClock\n
 274:Drivers/STM32F3xx_HAL_Driver/Inc/stm32f3xx_ll_bus.h ****   *         AHBENR       GPIOFEN       LL_AHB1_GRP1_EnableClock\n
 275:Drivers/STM32F3xx_HAL_Driver/Inc/stm32f3xx_ll_bus.h ****   *         AHBENR       GPIOGEN       LL_AHB1_GRP1_EnableClock\n
 276:Drivers/STM32F3xx_HAL_Driver/Inc/stm32f3xx_ll_bus.h ****   *         AHBENR       TSCEN         LL_AHB1_GRP1_EnableClock\n
 277:Drivers/STM32F3xx_HAL_Driver/Inc/stm32f3xx_ll_bus.h ****   *         AHBENR       ADC1EN        LL_AHB1_GRP1_EnableClock\n
 278:Drivers/STM32F3xx_HAL_Driver/Inc/stm32f3xx_ll_bus.h ****   *         AHBENR       ADC12EN       LL_AHB1_GRP1_EnableClock\n
 279:Drivers/STM32F3xx_HAL_Driver/Inc/stm32f3xx_ll_bus.h ****   *         AHBENR       ADC34EN       LL_AHB1_GRP1_EnableClock
 280:Drivers/STM32F3xx_HAL_Driver/Inc/stm32f3xx_ll_bus.h ****   * @param  Periphs This parameter can be a combination of the following values:
 281:Drivers/STM32F3xx_HAL_Driver/Inc/stm32f3xx_ll_bus.h ****   *         @arg @ref LL_AHB1_GRP1_PERIPH_DMA1
 282:Drivers/STM32F3xx_HAL_Driver/Inc/stm32f3xx_ll_bus.h ****   *         @arg @ref LL_AHB1_GRP1_PERIPH_DMA2 (*)
 283:Drivers/STM32F3xx_HAL_Driver/Inc/stm32f3xx_ll_bus.h ****   *         @arg @ref LL_AHB1_GRP1_PERIPH_SRAM
 284:Drivers/STM32F3xx_HAL_Driver/Inc/stm32f3xx_ll_bus.h ****   *         @arg @ref LL_AHB1_GRP1_PERIPH_FLASH
 285:Drivers/STM32F3xx_HAL_Driver/Inc/stm32f3xx_ll_bus.h ****   *         @arg @ref LL_AHB1_GRP1_PERIPH_FMC (*)
 286:Drivers/STM32F3xx_HAL_Driver/Inc/stm32f3xx_ll_bus.h ****   *         @arg @ref LL_AHB1_GRP1_PERIPH_CRC
 287:Drivers/STM32F3xx_HAL_Driver/Inc/stm32f3xx_ll_bus.h ****   *         @arg @ref LL_AHB1_GRP1_PERIPH_GPIOH (*)
 288:Drivers/STM32F3xx_HAL_Driver/Inc/stm32f3xx_ll_bus.h ****   *         @arg @ref LL_AHB1_GRP1_PERIPH_GPIOA
 289:Drivers/STM32F3xx_HAL_Driver/Inc/stm32f3xx_ll_bus.h ****   *         @arg @ref LL_AHB1_GRP1_PERIPH_GPIOB
 290:Drivers/STM32F3xx_HAL_Driver/Inc/stm32f3xx_ll_bus.h ****   *         @arg @ref LL_AHB1_GRP1_PERIPH_GPIOC
 291:Drivers/STM32F3xx_HAL_Driver/Inc/stm32f3xx_ll_bus.h ****   *         @arg @ref LL_AHB1_GRP1_PERIPH_GPIOD
 292:Drivers/STM32F3xx_HAL_Driver/Inc/stm32f3xx_ll_bus.h ****   *         @arg @ref LL_AHB1_GRP1_PERIPH_GPIOE (*)
 293:Drivers/STM32F3xx_HAL_Driver/Inc/stm32f3xx_ll_bus.h ****   *         @arg @ref LL_AHB1_GRP1_PERIPH_GPIOF
 294:Drivers/STM32F3xx_HAL_Driver/Inc/stm32f3xx_ll_bus.h ****   *         @arg @ref LL_AHB1_GRP1_PERIPH_GPIOG (*)
 295:Drivers/STM32F3xx_HAL_Driver/Inc/stm32f3xx_ll_bus.h ****   *         @arg @ref LL_AHB1_GRP1_PERIPH_TSC
 296:Drivers/STM32F3xx_HAL_Driver/Inc/stm32f3xx_ll_bus.h ****   *         @arg @ref LL_AHB1_GRP1_PERIPH_ADC1 (*)
 297:Drivers/STM32F3xx_HAL_Driver/Inc/stm32f3xx_ll_bus.h ****   *         @arg @ref LL_AHB1_GRP1_PERIPH_ADC12 (*)
 298:Drivers/STM32F3xx_HAL_Driver/Inc/stm32f3xx_ll_bus.h ****   *         @arg @ref LL_AHB1_GRP1_PERIPH_ADC34 (*)
 299:Drivers/STM32F3xx_HAL_Driver/Inc/stm32f3xx_ll_bus.h ****   *
 300:Drivers/STM32F3xx_HAL_Driver/Inc/stm32f3xx_ll_bus.h ****   *         (*) value not defined in all devices.
 301:Drivers/STM32F3xx_HAL_Driver/Inc/stm32f3xx_ll_bus.h ****   * @retval None
 302:Drivers/STM32F3xx_HAL_Driver/Inc/stm32f3xx_ll_bus.h **** */
 303:Drivers/STM32F3xx_HAL_Driver/Inc/stm32f3xx_ll_bus.h **** __STATIC_INLINE void LL_AHB1_GRP1_EnableClock(uint32_t Periphs)
 304:Drivers/STM32F3xx_HAL_Driver/Inc/stm32f3xx_ll_bus.h **** {
 305:Drivers/STM32F3xx_HAL_Driver/Inc/stm32f3xx_ll_bus.h ****   __IO uint32_t tmpreg;
 306:Drivers/STM32F3xx_HAL_Driver/Inc/stm32f3xx_ll_bus.h ****   SET_BIT(RCC->AHBENR, Periphs);
 307:Drivers/STM32F3xx_HAL_Driver/Inc/stm32f3xx_ll_bus.h ****   /* Delay after an RCC peripheral clock enabling */
 308:Drivers/STM32F3xx_HAL_Driver/Inc/stm32f3xx_ll_bus.h ****   tmpreg = READ_BIT(RCC->AHBENR, Periphs);
 309:Drivers/STM32F3xx_HAL_Driver/Inc/stm32f3xx_ll_bus.h ****   (void)tmpreg;
 310:Drivers/STM32F3xx_HAL_Driver/Inc/stm32f3xx_ll_bus.h **** }
 311:Drivers/STM32F3xx_HAL_Driver/Inc/stm32f3xx_ll_bus.h **** 
 312:Drivers/STM32F3xx_HAL_Driver/Inc/stm32f3xx_ll_bus.h **** /**
 313:Drivers/STM32F3xx_HAL_Driver/Inc/stm32f3xx_ll_bus.h ****   * @brief  Check if AHB1 peripheral clock is enabled or not
 314:Drivers/STM32F3xx_HAL_Driver/Inc/stm32f3xx_ll_bus.h ****   * @rmtoll AHBENR       DMA1EN        LL_AHB1_GRP1_IsEnabledClock\n
 315:Drivers/STM32F3xx_HAL_Driver/Inc/stm32f3xx_ll_bus.h ****   *         AHBENR       DMA2EN        LL_AHB1_GRP1_IsEnabledClock\n
 316:Drivers/STM32F3xx_HAL_Driver/Inc/stm32f3xx_ll_bus.h ****   *         AHBENR       SRAMEN        LL_AHB1_GRP1_IsEnabledClock\n
 317:Drivers/STM32F3xx_HAL_Driver/Inc/stm32f3xx_ll_bus.h ****   *         AHBENR       FLITFEN       LL_AHB1_GRP1_IsEnabledClock\n
ARM GAS  /tmp/ccc5fm0Q.s 			page 7


 318:Drivers/STM32F3xx_HAL_Driver/Inc/stm32f3xx_ll_bus.h ****   *         AHBENR       FMCEN         LL_AHB1_GRP1_IsEnabledClock\n
 319:Drivers/STM32F3xx_HAL_Driver/Inc/stm32f3xx_ll_bus.h ****   *         AHBENR       CRCEN         LL_AHB1_GRP1_IsEnabledClock\n
 320:Drivers/STM32F3xx_HAL_Driver/Inc/stm32f3xx_ll_bus.h ****   *         AHBENR       GPIOHEN       LL_AHB1_GRP1_IsEnabledClock\n
 321:Drivers/STM32F3xx_HAL_Driver/Inc/stm32f3xx_ll_bus.h ****   *         AHBENR       GPIOAEN       LL_AHB1_GRP1_IsEnabledClock\n
 322:Drivers/STM32F3xx_HAL_Driver/Inc/stm32f3xx_ll_bus.h ****   *         AHBENR       GPIOBEN       LL_AHB1_GRP1_IsEnabledClock\n
 323:Drivers/STM32F3xx_HAL_Driver/Inc/stm32f3xx_ll_bus.h ****   *         AHBENR       GPIOCEN       LL_AHB1_GRP1_IsEnabledClock\n
 324:Drivers/STM32F3xx_HAL_Driver/Inc/stm32f3xx_ll_bus.h ****   *         AHBENR       GPIODEN       LL_AHB1_GRP1_IsEnabledClock\n
 325:Drivers/STM32F3xx_HAL_Driver/Inc/stm32f3xx_ll_bus.h ****   *         AHBENR       GPIOEEN       LL_AHB1_GRP1_IsEnabledClock\n
 326:Drivers/STM32F3xx_HAL_Driver/Inc/stm32f3xx_ll_bus.h ****   *         AHBENR       GPIOFEN       LL_AHB1_GRP1_IsEnabledClock\n
 327:Drivers/STM32F3xx_HAL_Driver/Inc/stm32f3xx_ll_bus.h ****   *         AHBENR       GPIOGEN       LL_AHB1_GRP1_IsEnabledClock\n
 328:Drivers/STM32F3xx_HAL_Driver/Inc/stm32f3xx_ll_bus.h ****   *         AHBENR       TSCEN         LL_AHB1_GRP1_IsEnabledClock\n
 329:Drivers/STM32F3xx_HAL_Driver/Inc/stm32f3xx_ll_bus.h ****   *         AHBENR       ADC1EN        LL_AHB1_GRP1_IsEnabledClock\n
 330:Drivers/STM32F3xx_HAL_Driver/Inc/stm32f3xx_ll_bus.h ****   *         AHBENR       ADC12EN       LL_AHB1_GRP1_IsEnabledClock\n
 331:Drivers/STM32F3xx_HAL_Driver/Inc/stm32f3xx_ll_bus.h ****   *         AHBENR       ADC34EN       LL_AHB1_GRP1_IsEnabledClock
 332:Drivers/STM32F3xx_HAL_Driver/Inc/stm32f3xx_ll_bus.h ****   * @param  Periphs This parameter can be a combination of the following values:
 333:Drivers/STM32F3xx_HAL_Driver/Inc/stm32f3xx_ll_bus.h ****   *         @arg @ref LL_AHB1_GRP1_PERIPH_DMA1
 334:Drivers/STM32F3xx_HAL_Driver/Inc/stm32f3xx_ll_bus.h ****   *         @arg @ref LL_AHB1_GRP1_PERIPH_DMA2 (*)
 335:Drivers/STM32F3xx_HAL_Driver/Inc/stm32f3xx_ll_bus.h ****   *         @arg @ref LL_AHB1_GRP1_PERIPH_SRAM
 336:Drivers/STM32F3xx_HAL_Driver/Inc/stm32f3xx_ll_bus.h ****   *         @arg @ref LL_AHB1_GRP1_PERIPH_FLASH
 337:Drivers/STM32F3xx_HAL_Driver/Inc/stm32f3xx_ll_bus.h ****   *         @arg @ref LL_AHB1_GRP1_PERIPH_FMC (*)
 338:Drivers/STM32F3xx_HAL_Driver/Inc/stm32f3xx_ll_bus.h ****   *         @arg @ref LL_AHB1_GRP1_PERIPH_CRC
 339:Drivers/STM32F3xx_HAL_Driver/Inc/stm32f3xx_ll_bus.h ****   *         @arg @ref LL_AHB1_GRP1_PERIPH_GPIOH (*)
 340:Drivers/STM32F3xx_HAL_Driver/Inc/stm32f3xx_ll_bus.h ****   *         @arg @ref LL_AHB1_GRP1_PERIPH_GPIOA
 341:Drivers/STM32F3xx_HAL_Driver/Inc/stm32f3xx_ll_bus.h ****   *         @arg @ref LL_AHB1_GRP1_PERIPH_GPIOB
 342:Drivers/STM32F3xx_HAL_Driver/Inc/stm32f3xx_ll_bus.h ****   *         @arg @ref LL_AHB1_GRP1_PERIPH_GPIOC
 343:Drivers/STM32F3xx_HAL_Driver/Inc/stm32f3xx_ll_bus.h ****   *         @arg @ref LL_AHB1_GRP1_PERIPH_GPIOD
 344:Drivers/STM32F3xx_HAL_Driver/Inc/stm32f3xx_ll_bus.h ****   *         @arg @ref LL_AHB1_GRP1_PERIPH_GPIOE (*)
 345:Drivers/STM32F3xx_HAL_Driver/Inc/stm32f3xx_ll_bus.h ****   *         @arg @ref LL_AHB1_GRP1_PERIPH_GPIOF
 346:Drivers/STM32F3xx_HAL_Driver/Inc/stm32f3xx_ll_bus.h ****   *         @arg @ref LL_AHB1_GRP1_PERIPH_GPIOG (*)
 347:Drivers/STM32F3xx_HAL_Driver/Inc/stm32f3xx_ll_bus.h ****   *         @arg @ref LL_AHB1_GRP1_PERIPH_TSC
 348:Drivers/STM32F3xx_HAL_Driver/Inc/stm32f3xx_ll_bus.h ****   *         @arg @ref LL_AHB1_GRP1_PERIPH_ADC1 (*)
 349:Drivers/STM32F3xx_HAL_Driver/Inc/stm32f3xx_ll_bus.h ****   *         @arg @ref LL_AHB1_GRP1_PERIPH_ADC12 (*)
 350:Drivers/STM32F3xx_HAL_Driver/Inc/stm32f3xx_ll_bus.h ****   *         @arg @ref LL_AHB1_GRP1_PERIPH_ADC34 (*)
 351:Drivers/STM32F3xx_HAL_Driver/Inc/stm32f3xx_ll_bus.h ****   *
 352:Drivers/STM32F3xx_HAL_Driver/Inc/stm32f3xx_ll_bus.h ****   *         (*) value not defined in all devices.
 353:Drivers/STM32F3xx_HAL_Driver/Inc/stm32f3xx_ll_bus.h ****   * @retval State of Periphs (1 or 0).
 354:Drivers/STM32F3xx_HAL_Driver/Inc/stm32f3xx_ll_bus.h **** */
 355:Drivers/STM32F3xx_HAL_Driver/Inc/stm32f3xx_ll_bus.h **** __STATIC_INLINE uint32_t LL_AHB1_GRP1_IsEnabledClock(uint32_t Periphs)
 356:Drivers/STM32F3xx_HAL_Driver/Inc/stm32f3xx_ll_bus.h **** {
 357:Drivers/STM32F3xx_HAL_Driver/Inc/stm32f3xx_ll_bus.h ****   return (READ_BIT(RCC->AHBENR, Periphs) == Periphs);
 358:Drivers/STM32F3xx_HAL_Driver/Inc/stm32f3xx_ll_bus.h **** }
 359:Drivers/STM32F3xx_HAL_Driver/Inc/stm32f3xx_ll_bus.h **** 
 360:Drivers/STM32F3xx_HAL_Driver/Inc/stm32f3xx_ll_bus.h **** /**
 361:Drivers/STM32F3xx_HAL_Driver/Inc/stm32f3xx_ll_bus.h ****   * @brief  Disable AHB1 peripherals clock.
 362:Drivers/STM32F3xx_HAL_Driver/Inc/stm32f3xx_ll_bus.h ****   * @rmtoll AHBENR       DMA1EN        LL_AHB1_GRP1_DisableClock\n
 363:Drivers/STM32F3xx_HAL_Driver/Inc/stm32f3xx_ll_bus.h ****   *         AHBENR       DMA2EN        LL_AHB1_GRP1_DisableClock\n
 364:Drivers/STM32F3xx_HAL_Driver/Inc/stm32f3xx_ll_bus.h ****   *         AHBENR       SRAMEN        LL_AHB1_GRP1_DisableClock\n
 365:Drivers/STM32F3xx_HAL_Driver/Inc/stm32f3xx_ll_bus.h ****   *         AHBENR       FLITFEN       LL_AHB1_GRP1_DisableClock\n
 366:Drivers/STM32F3xx_HAL_Driver/Inc/stm32f3xx_ll_bus.h ****   *         AHBENR       FMCEN         LL_AHB1_GRP1_DisableClock\n
 367:Drivers/STM32F3xx_HAL_Driver/Inc/stm32f3xx_ll_bus.h ****   *         AHBENR       CRCEN         LL_AHB1_GRP1_DisableClock\n
 368:Drivers/STM32F3xx_HAL_Driver/Inc/stm32f3xx_ll_bus.h ****   *         AHBENR       GPIOHEN       LL_AHB1_GRP1_DisableClock\n
 369:Drivers/STM32F3xx_HAL_Driver/Inc/stm32f3xx_ll_bus.h ****   *         AHBENR       GPIOAEN       LL_AHB1_GRP1_DisableClock\n
 370:Drivers/STM32F3xx_HAL_Driver/Inc/stm32f3xx_ll_bus.h ****   *         AHBENR       GPIOBEN       LL_AHB1_GRP1_DisableClock\n
 371:Drivers/STM32F3xx_HAL_Driver/Inc/stm32f3xx_ll_bus.h ****   *         AHBENR       GPIOCEN       LL_AHB1_GRP1_DisableClock\n
 372:Drivers/STM32F3xx_HAL_Driver/Inc/stm32f3xx_ll_bus.h ****   *         AHBENR       GPIODEN       LL_AHB1_GRP1_DisableClock\n
 373:Drivers/STM32F3xx_HAL_Driver/Inc/stm32f3xx_ll_bus.h ****   *         AHBENR       GPIOEEN       LL_AHB1_GRP1_DisableClock\n
 374:Drivers/STM32F3xx_HAL_Driver/Inc/stm32f3xx_ll_bus.h ****   *         AHBENR       GPIOFEN       LL_AHB1_GRP1_DisableClock\n
ARM GAS  /tmp/ccc5fm0Q.s 			page 8


 375:Drivers/STM32F3xx_HAL_Driver/Inc/stm32f3xx_ll_bus.h ****   *         AHBENR       GPIOGEN       LL_AHB1_GRP1_DisableClock\n
 376:Drivers/STM32F3xx_HAL_Driver/Inc/stm32f3xx_ll_bus.h ****   *         AHBENR       TSCEN         LL_AHB1_GRP1_DisableClock\n
 377:Drivers/STM32F3xx_HAL_Driver/Inc/stm32f3xx_ll_bus.h ****   *         AHBENR       ADC1EN        LL_AHB1_GRP1_DisableClock\n
 378:Drivers/STM32F3xx_HAL_Driver/Inc/stm32f3xx_ll_bus.h ****   *         AHBENR       ADC12EN       LL_AHB1_GRP1_DisableClock\n
 379:Drivers/STM32F3xx_HAL_Driver/Inc/stm32f3xx_ll_bus.h ****   *         AHBENR       ADC34EN       LL_AHB1_GRP1_DisableClock
 380:Drivers/STM32F3xx_HAL_Driver/Inc/stm32f3xx_ll_bus.h ****   * @param  Periphs This parameter can be a combination of the following values:
 381:Drivers/STM32F3xx_HAL_Driver/Inc/stm32f3xx_ll_bus.h ****   *         @arg @ref LL_AHB1_GRP1_PERIPH_DMA1
 382:Drivers/STM32F3xx_HAL_Driver/Inc/stm32f3xx_ll_bus.h ****   *         @arg @ref LL_AHB1_GRP1_PERIPH_DMA2 (*)
 383:Drivers/STM32F3xx_HAL_Driver/Inc/stm32f3xx_ll_bus.h ****   *         @arg @ref LL_AHB1_GRP1_PERIPH_SRAM
 384:Drivers/STM32F3xx_HAL_Driver/Inc/stm32f3xx_ll_bus.h ****   *         @arg @ref LL_AHB1_GRP1_PERIPH_FLASH
 385:Drivers/STM32F3xx_HAL_Driver/Inc/stm32f3xx_ll_bus.h ****   *         @arg @ref LL_AHB1_GRP1_PERIPH_FMC (*)
 386:Drivers/STM32F3xx_HAL_Driver/Inc/stm32f3xx_ll_bus.h ****   *         @arg @ref LL_AHB1_GRP1_PERIPH_CRC
 387:Drivers/STM32F3xx_HAL_Driver/Inc/stm32f3xx_ll_bus.h ****   *         @arg @ref LL_AHB1_GRP1_PERIPH_GPIOH (*)
 388:Drivers/STM32F3xx_HAL_Driver/Inc/stm32f3xx_ll_bus.h ****   *         @arg @ref LL_AHB1_GRP1_PERIPH_GPIOA
 389:Drivers/STM32F3xx_HAL_Driver/Inc/stm32f3xx_ll_bus.h ****   *         @arg @ref LL_AHB1_GRP1_PERIPH_GPIOB
 390:Drivers/STM32F3xx_HAL_Driver/Inc/stm32f3xx_ll_bus.h ****   *         @arg @ref LL_AHB1_GRP1_PERIPH_GPIOC
 391:Drivers/STM32F3xx_HAL_Driver/Inc/stm32f3xx_ll_bus.h ****   *         @arg @ref LL_AHB1_GRP1_PERIPH_GPIOD
 392:Drivers/STM32F3xx_HAL_Driver/Inc/stm32f3xx_ll_bus.h ****   *         @arg @ref LL_AHB1_GRP1_PERIPH_GPIOE (*)
 393:Drivers/STM32F3xx_HAL_Driver/Inc/stm32f3xx_ll_bus.h ****   *         @arg @ref LL_AHB1_GRP1_PERIPH_GPIOF
 394:Drivers/STM32F3xx_HAL_Driver/Inc/stm32f3xx_ll_bus.h ****   *         @arg @ref LL_AHB1_GRP1_PERIPH_GPIOG (*)
 395:Drivers/STM32F3xx_HAL_Driver/Inc/stm32f3xx_ll_bus.h ****   *         @arg @ref LL_AHB1_GRP1_PERIPH_TSC
 396:Drivers/STM32F3xx_HAL_Driver/Inc/stm32f3xx_ll_bus.h ****   *         @arg @ref LL_AHB1_GRP1_PERIPH_ADC1 (*)
 397:Drivers/STM32F3xx_HAL_Driver/Inc/stm32f3xx_ll_bus.h ****   *         @arg @ref LL_AHB1_GRP1_PERIPH_ADC12 (*)
 398:Drivers/STM32F3xx_HAL_Driver/Inc/stm32f3xx_ll_bus.h ****   *         @arg @ref LL_AHB1_GRP1_PERIPH_ADC34 (*)
 399:Drivers/STM32F3xx_HAL_Driver/Inc/stm32f3xx_ll_bus.h ****   *
 400:Drivers/STM32F3xx_HAL_Driver/Inc/stm32f3xx_ll_bus.h ****   *         (*) value not defined in all devices.
 401:Drivers/STM32F3xx_HAL_Driver/Inc/stm32f3xx_ll_bus.h ****   * @retval None
 402:Drivers/STM32F3xx_HAL_Driver/Inc/stm32f3xx_ll_bus.h **** */
 403:Drivers/STM32F3xx_HAL_Driver/Inc/stm32f3xx_ll_bus.h **** __STATIC_INLINE void LL_AHB1_GRP1_DisableClock(uint32_t Periphs)
 404:Drivers/STM32F3xx_HAL_Driver/Inc/stm32f3xx_ll_bus.h **** {
 405:Drivers/STM32F3xx_HAL_Driver/Inc/stm32f3xx_ll_bus.h ****   CLEAR_BIT(RCC->AHBENR, Periphs);
 406:Drivers/STM32F3xx_HAL_Driver/Inc/stm32f3xx_ll_bus.h **** }
 407:Drivers/STM32F3xx_HAL_Driver/Inc/stm32f3xx_ll_bus.h **** 
 408:Drivers/STM32F3xx_HAL_Driver/Inc/stm32f3xx_ll_bus.h **** /**
 409:Drivers/STM32F3xx_HAL_Driver/Inc/stm32f3xx_ll_bus.h ****   * @brief  Force AHB1 peripherals reset.
 410:Drivers/STM32F3xx_HAL_Driver/Inc/stm32f3xx_ll_bus.h ****   * @rmtoll AHBRSTR      FMCRST        LL_AHB1_GRP1_ForceReset\n
 411:Drivers/STM32F3xx_HAL_Driver/Inc/stm32f3xx_ll_bus.h ****   *         AHBRSTR      GPIOHRST      LL_AHB1_GRP1_ForceReset\n
 412:Drivers/STM32F3xx_HAL_Driver/Inc/stm32f3xx_ll_bus.h ****   *         AHBRSTR      GPIOARST      LL_AHB1_GRP1_ForceReset\n
 413:Drivers/STM32F3xx_HAL_Driver/Inc/stm32f3xx_ll_bus.h ****   *         AHBRSTR      GPIOBRST      LL_AHB1_GRP1_ForceReset\n
 414:Drivers/STM32F3xx_HAL_Driver/Inc/stm32f3xx_ll_bus.h ****   *         AHBRSTR      GPIOCRST      LL_AHB1_GRP1_ForceReset\n
 415:Drivers/STM32F3xx_HAL_Driver/Inc/stm32f3xx_ll_bus.h ****   *         AHBRSTR      GPIODRST      LL_AHB1_GRP1_ForceReset\n
 416:Drivers/STM32F3xx_HAL_Driver/Inc/stm32f3xx_ll_bus.h ****   *         AHBRSTR      GPIOERST      LL_AHB1_GRP1_ForceReset\n
 417:Drivers/STM32F3xx_HAL_Driver/Inc/stm32f3xx_ll_bus.h ****   *         AHBRSTR      GPIOFRST      LL_AHB1_GRP1_ForceReset\n
 418:Drivers/STM32F3xx_HAL_Driver/Inc/stm32f3xx_ll_bus.h ****   *         AHBRSTR      GPIOGRST      LL_AHB1_GRP1_ForceReset\n
 419:Drivers/STM32F3xx_HAL_Driver/Inc/stm32f3xx_ll_bus.h ****   *         AHBRSTR      TSCRST        LL_AHB1_GRP1_ForceReset\n
 420:Drivers/STM32F3xx_HAL_Driver/Inc/stm32f3xx_ll_bus.h ****   *         AHBRSTR      ADC1RST       LL_AHB1_GRP1_ForceReset\n
 421:Drivers/STM32F3xx_HAL_Driver/Inc/stm32f3xx_ll_bus.h ****   *         AHBRSTR      ADC12RST      LL_AHB1_GRP1_ForceReset\n
 422:Drivers/STM32F3xx_HAL_Driver/Inc/stm32f3xx_ll_bus.h ****   *         AHBRSTR      ADC34RST      LL_AHB1_GRP1_ForceReset
 423:Drivers/STM32F3xx_HAL_Driver/Inc/stm32f3xx_ll_bus.h ****   * @param  Periphs This parameter can be a combination of the following values:
 424:Drivers/STM32F3xx_HAL_Driver/Inc/stm32f3xx_ll_bus.h ****   *         @arg @ref LL_AHB1_GRP1_PERIPH_ALL
 425:Drivers/STM32F3xx_HAL_Driver/Inc/stm32f3xx_ll_bus.h ****   *         @arg @ref LL_AHB1_GRP1_PERIPH_FMC (*)
 426:Drivers/STM32F3xx_HAL_Driver/Inc/stm32f3xx_ll_bus.h ****   *         @arg @ref LL_AHB1_GRP1_PERIPH_GPIOH (*)
 427:Drivers/STM32F3xx_HAL_Driver/Inc/stm32f3xx_ll_bus.h ****   *         @arg @ref LL_AHB1_GRP1_PERIPH_GPIOA
 428:Drivers/STM32F3xx_HAL_Driver/Inc/stm32f3xx_ll_bus.h ****   *         @arg @ref LL_AHB1_GRP1_PERIPH_GPIOB
 429:Drivers/STM32F3xx_HAL_Driver/Inc/stm32f3xx_ll_bus.h ****   *         @arg @ref LL_AHB1_GRP1_PERIPH_GPIOC
 430:Drivers/STM32F3xx_HAL_Driver/Inc/stm32f3xx_ll_bus.h ****   *         @arg @ref LL_AHB1_GRP1_PERIPH_GPIOD
 431:Drivers/STM32F3xx_HAL_Driver/Inc/stm32f3xx_ll_bus.h ****   *         @arg @ref LL_AHB1_GRP1_PERIPH_GPIOE (*)
ARM GAS  /tmp/ccc5fm0Q.s 			page 9


 432:Drivers/STM32F3xx_HAL_Driver/Inc/stm32f3xx_ll_bus.h ****   *         @arg @ref LL_AHB1_GRP1_PERIPH_GPIOF
 433:Drivers/STM32F3xx_HAL_Driver/Inc/stm32f3xx_ll_bus.h ****   *         @arg @ref LL_AHB1_GRP1_PERIPH_GPIOG (*)
 434:Drivers/STM32F3xx_HAL_Driver/Inc/stm32f3xx_ll_bus.h ****   *         @arg @ref LL_AHB1_GRP1_PERIPH_TSC
 435:Drivers/STM32F3xx_HAL_Driver/Inc/stm32f3xx_ll_bus.h ****   *         @arg @ref LL_AHB1_GRP1_PERIPH_ADC1 (*)
 436:Drivers/STM32F3xx_HAL_Driver/Inc/stm32f3xx_ll_bus.h ****   *         @arg @ref LL_AHB1_GRP1_PERIPH_ADC12 (*)
 437:Drivers/STM32F3xx_HAL_Driver/Inc/stm32f3xx_ll_bus.h ****   *         @arg @ref LL_AHB1_GRP1_PERIPH_ADC34 (*)
 438:Drivers/STM32F3xx_HAL_Driver/Inc/stm32f3xx_ll_bus.h ****   *
 439:Drivers/STM32F3xx_HAL_Driver/Inc/stm32f3xx_ll_bus.h ****   *         (*) value not defined in all devices.
 440:Drivers/STM32F3xx_HAL_Driver/Inc/stm32f3xx_ll_bus.h ****   * @retval None
 441:Drivers/STM32F3xx_HAL_Driver/Inc/stm32f3xx_ll_bus.h **** */
 442:Drivers/STM32F3xx_HAL_Driver/Inc/stm32f3xx_ll_bus.h **** __STATIC_INLINE void LL_AHB1_GRP1_ForceReset(uint32_t Periphs)
 443:Drivers/STM32F3xx_HAL_Driver/Inc/stm32f3xx_ll_bus.h **** {
 444:Drivers/STM32F3xx_HAL_Driver/Inc/stm32f3xx_ll_bus.h ****   SET_BIT(RCC->AHBRSTR, Periphs);
 445:Drivers/STM32F3xx_HAL_Driver/Inc/stm32f3xx_ll_bus.h **** }
 446:Drivers/STM32F3xx_HAL_Driver/Inc/stm32f3xx_ll_bus.h **** 
 447:Drivers/STM32F3xx_HAL_Driver/Inc/stm32f3xx_ll_bus.h **** /**
 448:Drivers/STM32F3xx_HAL_Driver/Inc/stm32f3xx_ll_bus.h ****   * @brief  Release AHB1 peripherals reset.
 449:Drivers/STM32F3xx_HAL_Driver/Inc/stm32f3xx_ll_bus.h ****   * @rmtoll AHBRSTR      FMCRST        LL_AHB1_GRP1_ReleaseReset\n
 450:Drivers/STM32F3xx_HAL_Driver/Inc/stm32f3xx_ll_bus.h ****   *         AHBRSTR      GPIOHRST      LL_AHB1_GRP1_ReleaseReset\n
 451:Drivers/STM32F3xx_HAL_Driver/Inc/stm32f3xx_ll_bus.h ****   *         AHBRSTR      GPIOARST      LL_AHB1_GRP1_ReleaseReset\n
 452:Drivers/STM32F3xx_HAL_Driver/Inc/stm32f3xx_ll_bus.h ****   *         AHBRSTR      GPIOBRST      LL_AHB1_GRP1_ReleaseReset\n
 453:Drivers/STM32F3xx_HAL_Driver/Inc/stm32f3xx_ll_bus.h ****   *         AHBRSTR      GPIOCRST      LL_AHB1_GRP1_ReleaseReset\n
 454:Drivers/STM32F3xx_HAL_Driver/Inc/stm32f3xx_ll_bus.h ****   *         AHBRSTR      GPIODRST      LL_AHB1_GRP1_ReleaseReset\n
 455:Drivers/STM32F3xx_HAL_Driver/Inc/stm32f3xx_ll_bus.h ****   *         AHBRSTR      GPIOERST      LL_AHB1_GRP1_ReleaseReset\n
 456:Drivers/STM32F3xx_HAL_Driver/Inc/stm32f3xx_ll_bus.h ****   *         AHBRSTR      GPIOFRST      LL_AHB1_GRP1_ReleaseReset\n
 457:Drivers/STM32F3xx_HAL_Driver/Inc/stm32f3xx_ll_bus.h ****   *         AHBRSTR      GPIOGRST      LL_AHB1_GRP1_ReleaseReset\n
 458:Drivers/STM32F3xx_HAL_Driver/Inc/stm32f3xx_ll_bus.h ****   *         AHBRSTR      TSCRST        LL_AHB1_GRP1_ReleaseReset\n
 459:Drivers/STM32F3xx_HAL_Driver/Inc/stm32f3xx_ll_bus.h ****   *         AHBRSTR      ADC1RST       LL_AHB1_GRP1_ReleaseReset\n
 460:Drivers/STM32F3xx_HAL_Driver/Inc/stm32f3xx_ll_bus.h ****   *         AHBRSTR      ADC12RST      LL_AHB1_GRP1_ReleaseReset\n
 461:Drivers/STM32F3xx_HAL_Driver/Inc/stm32f3xx_ll_bus.h ****   *         AHBRSTR      ADC34RST      LL_AHB1_GRP1_ReleaseReset
 462:Drivers/STM32F3xx_HAL_Driver/Inc/stm32f3xx_ll_bus.h ****   * @param  Periphs This parameter can be a combination of the following values:
 463:Drivers/STM32F3xx_HAL_Driver/Inc/stm32f3xx_ll_bus.h ****   *         @arg @ref LL_AHB1_GRP1_PERIPH_ALL
 464:Drivers/STM32F3xx_HAL_Driver/Inc/stm32f3xx_ll_bus.h ****   *         @arg @ref LL_AHB1_GRP1_PERIPH_FMC (*)
 465:Drivers/STM32F3xx_HAL_Driver/Inc/stm32f3xx_ll_bus.h ****   *         @arg @ref LL_AHB1_GRP1_PERIPH_GPIOH (*)
 466:Drivers/STM32F3xx_HAL_Driver/Inc/stm32f3xx_ll_bus.h ****   *         @arg @ref LL_AHB1_GRP1_PERIPH_GPIOA
 467:Drivers/STM32F3xx_HAL_Driver/Inc/stm32f3xx_ll_bus.h ****   *         @arg @ref LL_AHB1_GRP1_PERIPH_GPIOB
 468:Drivers/STM32F3xx_HAL_Driver/Inc/stm32f3xx_ll_bus.h ****   *         @arg @ref LL_AHB1_GRP1_PERIPH_GPIOC
 469:Drivers/STM32F3xx_HAL_Driver/Inc/stm32f3xx_ll_bus.h ****   *         @arg @ref LL_AHB1_GRP1_PERIPH_GPIOD
 470:Drivers/STM32F3xx_HAL_Driver/Inc/stm32f3xx_ll_bus.h ****   *         @arg @ref LL_AHB1_GRP1_PERIPH_GPIOE (*)
 471:Drivers/STM32F3xx_HAL_Driver/Inc/stm32f3xx_ll_bus.h ****   *         @arg @ref LL_AHB1_GRP1_PERIPH_GPIOF
 472:Drivers/STM32F3xx_HAL_Driver/Inc/stm32f3xx_ll_bus.h ****   *         @arg @ref LL_AHB1_GRP1_PERIPH_GPIOG (*)
 473:Drivers/STM32F3xx_HAL_Driver/Inc/stm32f3xx_ll_bus.h ****   *         @arg @ref LL_AHB1_GRP1_PERIPH_TSC
 474:Drivers/STM32F3xx_HAL_Driver/Inc/stm32f3xx_ll_bus.h ****   *         @arg @ref LL_AHB1_GRP1_PERIPH_ADC1 (*)
 475:Drivers/STM32F3xx_HAL_Driver/Inc/stm32f3xx_ll_bus.h ****   *         @arg @ref LL_AHB1_GRP1_PERIPH_ADC12 (*)
 476:Drivers/STM32F3xx_HAL_Driver/Inc/stm32f3xx_ll_bus.h ****   *         @arg @ref LL_AHB1_GRP1_PERIPH_ADC34 (*)
 477:Drivers/STM32F3xx_HAL_Driver/Inc/stm32f3xx_ll_bus.h ****   *
 478:Drivers/STM32F3xx_HAL_Driver/Inc/stm32f3xx_ll_bus.h ****   *         (*) value not defined in all devices.
 479:Drivers/STM32F3xx_HAL_Driver/Inc/stm32f3xx_ll_bus.h ****   * @retval None
 480:Drivers/STM32F3xx_HAL_Driver/Inc/stm32f3xx_ll_bus.h **** */
 481:Drivers/STM32F3xx_HAL_Driver/Inc/stm32f3xx_ll_bus.h **** __STATIC_INLINE void LL_AHB1_GRP1_ReleaseReset(uint32_t Periphs)
 482:Drivers/STM32F3xx_HAL_Driver/Inc/stm32f3xx_ll_bus.h **** {
 483:Drivers/STM32F3xx_HAL_Driver/Inc/stm32f3xx_ll_bus.h ****   CLEAR_BIT(RCC->AHBRSTR, Periphs);
 484:Drivers/STM32F3xx_HAL_Driver/Inc/stm32f3xx_ll_bus.h **** }
 485:Drivers/STM32F3xx_HAL_Driver/Inc/stm32f3xx_ll_bus.h **** 
 486:Drivers/STM32F3xx_HAL_Driver/Inc/stm32f3xx_ll_bus.h **** /**
 487:Drivers/STM32F3xx_HAL_Driver/Inc/stm32f3xx_ll_bus.h ****   * @}
 488:Drivers/STM32F3xx_HAL_Driver/Inc/stm32f3xx_ll_bus.h ****   */
ARM GAS  /tmp/ccc5fm0Q.s 			page 10


 489:Drivers/STM32F3xx_HAL_Driver/Inc/stm32f3xx_ll_bus.h **** 
 490:Drivers/STM32F3xx_HAL_Driver/Inc/stm32f3xx_ll_bus.h **** /** @defgroup BUS_LL_EF_APB1 APB1
 491:Drivers/STM32F3xx_HAL_Driver/Inc/stm32f3xx_ll_bus.h ****   * @{
 492:Drivers/STM32F3xx_HAL_Driver/Inc/stm32f3xx_ll_bus.h ****   */
 493:Drivers/STM32F3xx_HAL_Driver/Inc/stm32f3xx_ll_bus.h **** 
 494:Drivers/STM32F3xx_HAL_Driver/Inc/stm32f3xx_ll_bus.h **** /**
 495:Drivers/STM32F3xx_HAL_Driver/Inc/stm32f3xx_ll_bus.h ****   * @brief  Enable APB1 peripherals clock.
 496:Drivers/STM32F3xx_HAL_Driver/Inc/stm32f3xx_ll_bus.h ****   * @rmtoll APB1ENR      TIM2EN        LL_APB1_GRP1_EnableClock\n
 497:Drivers/STM32F3xx_HAL_Driver/Inc/stm32f3xx_ll_bus.h ****   *         APB1ENR      TIM3EN        LL_APB1_GRP1_EnableClock\n
 498:Drivers/STM32F3xx_HAL_Driver/Inc/stm32f3xx_ll_bus.h ****   *         APB1ENR      TIM4EN        LL_APB1_GRP1_EnableClock\n
 499:Drivers/STM32F3xx_HAL_Driver/Inc/stm32f3xx_ll_bus.h ****   *         APB1ENR      TIM5EN        LL_APB1_GRP1_EnableClock\n
 500:Drivers/STM32F3xx_HAL_Driver/Inc/stm32f3xx_ll_bus.h ****   *         APB1ENR      TIM6EN        LL_APB1_GRP1_EnableClock\n
 501:Drivers/STM32F3xx_HAL_Driver/Inc/stm32f3xx_ll_bus.h ****   *         APB1ENR      TIM7EN        LL_APB1_GRP1_EnableClock\n
 502:Drivers/STM32F3xx_HAL_Driver/Inc/stm32f3xx_ll_bus.h ****   *         APB1ENR      TIM12EN       LL_APB1_GRP1_EnableClock\n
 503:Drivers/STM32F3xx_HAL_Driver/Inc/stm32f3xx_ll_bus.h ****   *         APB1ENR      TIM13EN       LL_APB1_GRP1_EnableClock\n
 504:Drivers/STM32F3xx_HAL_Driver/Inc/stm32f3xx_ll_bus.h ****   *         APB1ENR      TIM14EN       LL_APB1_GRP1_EnableClock\n
 505:Drivers/STM32F3xx_HAL_Driver/Inc/stm32f3xx_ll_bus.h ****   *         APB1ENR      TIM18EN       LL_APB1_GRP1_EnableClock\n
 506:Drivers/STM32F3xx_HAL_Driver/Inc/stm32f3xx_ll_bus.h ****   *         APB1ENR      WWDGEN        LL_APB1_GRP1_EnableClock\n
 507:Drivers/STM32F3xx_HAL_Driver/Inc/stm32f3xx_ll_bus.h ****   *         APB1ENR      SPI2EN        LL_APB1_GRP1_EnableClock\n
 508:Drivers/STM32F3xx_HAL_Driver/Inc/stm32f3xx_ll_bus.h ****   *         APB1ENR      SPI3EN        LL_APB1_GRP1_EnableClock\n
 509:Drivers/STM32F3xx_HAL_Driver/Inc/stm32f3xx_ll_bus.h ****   *         APB1ENR      USART2EN      LL_APB1_GRP1_EnableClock\n
 510:Drivers/STM32F3xx_HAL_Driver/Inc/stm32f3xx_ll_bus.h ****   *         APB1ENR      USART3EN      LL_APB1_GRP1_EnableClock\n
 511:Drivers/STM32F3xx_HAL_Driver/Inc/stm32f3xx_ll_bus.h ****   *         APB1ENR      UART4EN       LL_APB1_GRP1_EnableClock\n
 512:Drivers/STM32F3xx_HAL_Driver/Inc/stm32f3xx_ll_bus.h ****   *         APB1ENR      UART5EN       LL_APB1_GRP1_EnableClock\n
 513:Drivers/STM32F3xx_HAL_Driver/Inc/stm32f3xx_ll_bus.h ****   *         APB1ENR      I2C1EN        LL_APB1_GRP1_EnableClock\n
 514:Drivers/STM32F3xx_HAL_Driver/Inc/stm32f3xx_ll_bus.h ****   *         APB1ENR      I2C2EN        LL_APB1_GRP1_EnableClock\n
 515:Drivers/STM32F3xx_HAL_Driver/Inc/stm32f3xx_ll_bus.h ****   *         APB1ENR      USBEN         LL_APB1_GRP1_EnableClock\n
 516:Drivers/STM32F3xx_HAL_Driver/Inc/stm32f3xx_ll_bus.h ****   *         APB1ENR      CANEN         LL_APB1_GRP1_EnableClock\n
 517:Drivers/STM32F3xx_HAL_Driver/Inc/stm32f3xx_ll_bus.h ****   *         APB1ENR      DAC2EN        LL_APB1_GRP1_EnableClock\n
 518:Drivers/STM32F3xx_HAL_Driver/Inc/stm32f3xx_ll_bus.h ****   *         APB1ENR      PWREN         LL_APB1_GRP1_EnableClock\n
 519:Drivers/STM32F3xx_HAL_Driver/Inc/stm32f3xx_ll_bus.h ****   *         APB1ENR      DAC1EN        LL_APB1_GRP1_EnableClock\n
 520:Drivers/STM32F3xx_HAL_Driver/Inc/stm32f3xx_ll_bus.h ****   *         APB1ENR      CECEN         LL_APB1_GRP1_EnableClock\n
 521:Drivers/STM32F3xx_HAL_Driver/Inc/stm32f3xx_ll_bus.h ****   *         APB1ENR      I2C3EN        LL_APB1_GRP1_EnableClock
 522:Drivers/STM32F3xx_HAL_Driver/Inc/stm32f3xx_ll_bus.h ****   * @param  Periphs This parameter can be a combination of the following values:
 523:Drivers/STM32F3xx_HAL_Driver/Inc/stm32f3xx_ll_bus.h ****   *         @arg @ref LL_APB1_GRP1_PERIPH_TIM2
 524:Drivers/STM32F3xx_HAL_Driver/Inc/stm32f3xx_ll_bus.h ****   *         @arg @ref LL_APB1_GRP1_PERIPH_TIM3 (*)
 525:Drivers/STM32F3xx_HAL_Driver/Inc/stm32f3xx_ll_bus.h ****   *         @arg @ref LL_APB1_GRP1_PERIPH_TIM4 (*)
 526:Drivers/STM32F3xx_HAL_Driver/Inc/stm32f3xx_ll_bus.h ****   *         @arg @ref LL_APB1_GRP1_PERIPH_TIM5 (*)
 527:Drivers/STM32F3xx_HAL_Driver/Inc/stm32f3xx_ll_bus.h ****   *         @arg @ref LL_APB1_GRP1_PERIPH_TIM6
 528:Drivers/STM32F3xx_HAL_Driver/Inc/stm32f3xx_ll_bus.h ****   *         @arg @ref LL_APB1_GRP1_PERIPH_TIM7 (*)
 529:Drivers/STM32F3xx_HAL_Driver/Inc/stm32f3xx_ll_bus.h ****   *         @arg @ref LL_APB1_GRP1_PERIPH_TIM12 (*)
 530:Drivers/STM32F3xx_HAL_Driver/Inc/stm32f3xx_ll_bus.h ****   *         @arg @ref LL_APB1_GRP1_PERIPH_TIM13 (*)
 531:Drivers/STM32F3xx_HAL_Driver/Inc/stm32f3xx_ll_bus.h ****   *         @arg @ref LL_APB1_GRP1_PERIPH_TIM14 (*)
 532:Drivers/STM32F3xx_HAL_Driver/Inc/stm32f3xx_ll_bus.h ****   *         @arg @ref LL_APB1_GRP1_PERIPH_TIM18 (*)
 533:Drivers/STM32F3xx_HAL_Driver/Inc/stm32f3xx_ll_bus.h ****   *         @arg @ref LL_APB1_GRP1_PERIPH_WWDG
 534:Drivers/STM32F3xx_HAL_Driver/Inc/stm32f3xx_ll_bus.h ****   *         @arg @ref LL_APB1_GRP1_PERIPH_SPI2 (*)
 535:Drivers/STM32F3xx_HAL_Driver/Inc/stm32f3xx_ll_bus.h ****   *         @arg @ref LL_APB1_GRP1_PERIPH_SPI3 (*)
 536:Drivers/STM32F3xx_HAL_Driver/Inc/stm32f3xx_ll_bus.h ****   *         @arg @ref LL_APB1_GRP1_PERIPH_USART2
 537:Drivers/STM32F3xx_HAL_Driver/Inc/stm32f3xx_ll_bus.h ****   *         @arg @ref LL_APB1_GRP1_PERIPH_USART3
 538:Drivers/STM32F3xx_HAL_Driver/Inc/stm32f3xx_ll_bus.h ****   *         @arg @ref LL_APB1_GRP1_PERIPH_UART4 (*)
 539:Drivers/STM32F3xx_HAL_Driver/Inc/stm32f3xx_ll_bus.h ****   *         @arg @ref LL_APB1_GRP1_PERIPH_UART5 (*)
 540:Drivers/STM32F3xx_HAL_Driver/Inc/stm32f3xx_ll_bus.h ****   *         @arg @ref LL_APB1_GRP1_PERIPH_I2C1
 541:Drivers/STM32F3xx_HAL_Driver/Inc/stm32f3xx_ll_bus.h ****   *         @arg @ref LL_APB1_GRP1_PERIPH_I2C2 (*)
 542:Drivers/STM32F3xx_HAL_Driver/Inc/stm32f3xx_ll_bus.h ****   *         @arg @ref LL_APB1_GRP1_PERIPH_USB (*)
 543:Drivers/STM32F3xx_HAL_Driver/Inc/stm32f3xx_ll_bus.h ****   *         @arg @ref LL_APB1_GRP1_PERIPH_CAN (*)
 544:Drivers/STM32F3xx_HAL_Driver/Inc/stm32f3xx_ll_bus.h ****   *         @arg @ref LL_APB1_GRP1_PERIPH_DAC2 (*)
 545:Drivers/STM32F3xx_HAL_Driver/Inc/stm32f3xx_ll_bus.h ****   *         @arg @ref LL_APB1_GRP1_PERIPH_PWR
ARM GAS  /tmp/ccc5fm0Q.s 			page 11


 546:Drivers/STM32F3xx_HAL_Driver/Inc/stm32f3xx_ll_bus.h ****   *         @arg @ref LL_APB1_GRP1_PERIPH_DAC1
 547:Drivers/STM32F3xx_HAL_Driver/Inc/stm32f3xx_ll_bus.h ****   *         @arg @ref LL_APB1_GRP1_PERIPH_CEC (*)
 548:Drivers/STM32F3xx_HAL_Driver/Inc/stm32f3xx_ll_bus.h ****   *         @arg @ref LL_APB1_GRP1_PERIPH_I2C3 (*)
 549:Drivers/STM32F3xx_HAL_Driver/Inc/stm32f3xx_ll_bus.h ****   *
 550:Drivers/STM32F3xx_HAL_Driver/Inc/stm32f3xx_ll_bus.h ****   *         (*) value not defined in all devices.
 551:Drivers/STM32F3xx_HAL_Driver/Inc/stm32f3xx_ll_bus.h ****   * @retval None
 552:Drivers/STM32F3xx_HAL_Driver/Inc/stm32f3xx_ll_bus.h **** */
 553:Drivers/STM32F3xx_HAL_Driver/Inc/stm32f3xx_ll_bus.h **** __STATIC_INLINE void LL_APB1_GRP1_EnableClock(uint32_t Periphs)
 554:Drivers/STM32F3xx_HAL_Driver/Inc/stm32f3xx_ll_bus.h **** {
 555:Drivers/STM32F3xx_HAL_Driver/Inc/stm32f3xx_ll_bus.h ****   __IO uint32_t tmpreg;
 556:Drivers/STM32F3xx_HAL_Driver/Inc/stm32f3xx_ll_bus.h ****   SET_BIT(RCC->APB1ENR, Periphs);
 557:Drivers/STM32F3xx_HAL_Driver/Inc/stm32f3xx_ll_bus.h ****   /* Delay after an RCC peripheral clock enabling */
 558:Drivers/STM32F3xx_HAL_Driver/Inc/stm32f3xx_ll_bus.h ****   tmpreg = READ_BIT(RCC->APB1ENR, Periphs);
 559:Drivers/STM32F3xx_HAL_Driver/Inc/stm32f3xx_ll_bus.h ****   (void)tmpreg;
 560:Drivers/STM32F3xx_HAL_Driver/Inc/stm32f3xx_ll_bus.h **** }
 561:Drivers/STM32F3xx_HAL_Driver/Inc/stm32f3xx_ll_bus.h **** 
 562:Drivers/STM32F3xx_HAL_Driver/Inc/stm32f3xx_ll_bus.h **** /**
 563:Drivers/STM32F3xx_HAL_Driver/Inc/stm32f3xx_ll_bus.h ****   * @brief  Check if APB1 peripheral clock is enabled or not
 564:Drivers/STM32F3xx_HAL_Driver/Inc/stm32f3xx_ll_bus.h ****   * @rmtoll APB1ENR      TIM2EN        LL_APB1_GRP1_IsEnabledClock\n
 565:Drivers/STM32F3xx_HAL_Driver/Inc/stm32f3xx_ll_bus.h ****   *         APB1ENR      TIM3EN        LL_APB1_GRP1_IsEnabledClock\n
 566:Drivers/STM32F3xx_HAL_Driver/Inc/stm32f3xx_ll_bus.h ****   *         APB1ENR      TIM4EN        LL_APB1_GRP1_IsEnabledClock\n
 567:Drivers/STM32F3xx_HAL_Driver/Inc/stm32f3xx_ll_bus.h ****   *         APB1ENR      TIM5EN        LL_APB1_GRP1_IsEnabledClock\n
 568:Drivers/STM32F3xx_HAL_Driver/Inc/stm32f3xx_ll_bus.h ****   *         APB1ENR      TIM6EN        LL_APB1_GRP1_IsEnabledClock\n
 569:Drivers/STM32F3xx_HAL_Driver/Inc/stm32f3xx_ll_bus.h ****   *         APB1ENR      TIM7EN        LL_APB1_GRP1_IsEnabledClock\n
 570:Drivers/STM32F3xx_HAL_Driver/Inc/stm32f3xx_ll_bus.h ****   *         APB1ENR      TIM12EN       LL_APB1_GRP1_IsEnabledClock\n
 571:Drivers/STM32F3xx_HAL_Driver/Inc/stm32f3xx_ll_bus.h ****   *         APB1ENR      TIM13EN       LL_APB1_GRP1_IsEnabledClock\n
 572:Drivers/STM32F3xx_HAL_Driver/Inc/stm32f3xx_ll_bus.h ****   *         APB1ENR      TIM14EN       LL_APB1_GRP1_IsEnabledClock\n
 573:Drivers/STM32F3xx_HAL_Driver/Inc/stm32f3xx_ll_bus.h ****   *         APB1ENR      TIM18EN       LL_APB1_GRP1_IsEnabledClock\n
 574:Drivers/STM32F3xx_HAL_Driver/Inc/stm32f3xx_ll_bus.h ****   *         APB1ENR      WWDGEN        LL_APB1_GRP1_IsEnabledClock\n
 575:Drivers/STM32F3xx_HAL_Driver/Inc/stm32f3xx_ll_bus.h ****   *         APB1ENR      SPI2EN        LL_APB1_GRP1_IsEnabledClock\n
 576:Drivers/STM32F3xx_HAL_Driver/Inc/stm32f3xx_ll_bus.h ****   *         APB1ENR      SPI3EN        LL_APB1_GRP1_IsEnabledClock\n
 577:Drivers/STM32F3xx_HAL_Driver/Inc/stm32f3xx_ll_bus.h ****   *         APB1ENR      USART2EN      LL_APB1_GRP1_IsEnabledClock\n
 578:Drivers/STM32F3xx_HAL_Driver/Inc/stm32f3xx_ll_bus.h ****   *         APB1ENR      USART3EN      LL_APB1_GRP1_IsEnabledClock\n
 579:Drivers/STM32F3xx_HAL_Driver/Inc/stm32f3xx_ll_bus.h ****   *         APB1ENR      UART4EN       LL_APB1_GRP1_IsEnabledClock\n
 580:Drivers/STM32F3xx_HAL_Driver/Inc/stm32f3xx_ll_bus.h ****   *         APB1ENR      UART5EN       LL_APB1_GRP1_IsEnabledClock\n
 581:Drivers/STM32F3xx_HAL_Driver/Inc/stm32f3xx_ll_bus.h ****   *         APB1ENR      I2C1EN        LL_APB1_GRP1_IsEnabledClock\n
 582:Drivers/STM32F3xx_HAL_Driver/Inc/stm32f3xx_ll_bus.h ****   *         APB1ENR      I2C2EN        LL_APB1_GRP1_IsEnabledClock\n
 583:Drivers/STM32F3xx_HAL_Driver/Inc/stm32f3xx_ll_bus.h ****   *         APB1ENR      USBEN         LL_APB1_GRP1_IsEnabledClock\n
 584:Drivers/STM32F3xx_HAL_Driver/Inc/stm32f3xx_ll_bus.h ****   *         APB1ENR      CANEN         LL_APB1_GRP1_IsEnabledClock\n
 585:Drivers/STM32F3xx_HAL_Driver/Inc/stm32f3xx_ll_bus.h ****   *         APB1ENR      DAC2EN        LL_APB1_GRP1_IsEnabledClock\n
 586:Drivers/STM32F3xx_HAL_Driver/Inc/stm32f3xx_ll_bus.h ****   *         APB1ENR      PWREN         LL_APB1_GRP1_IsEnabledClock\n
 587:Drivers/STM32F3xx_HAL_Driver/Inc/stm32f3xx_ll_bus.h ****   *         APB1ENR      DAC1EN        LL_APB1_GRP1_IsEnabledClock\n
 588:Drivers/STM32F3xx_HAL_Driver/Inc/stm32f3xx_ll_bus.h ****   *         APB1ENR      CECEN         LL_APB1_GRP1_IsEnabledClock\n
 589:Drivers/STM32F3xx_HAL_Driver/Inc/stm32f3xx_ll_bus.h ****   *         APB1ENR      I2C3EN        LL_APB1_GRP1_IsEnabledClock
 590:Drivers/STM32F3xx_HAL_Driver/Inc/stm32f3xx_ll_bus.h ****   * @param  Periphs This parameter can be a combination of the following values:
 591:Drivers/STM32F3xx_HAL_Driver/Inc/stm32f3xx_ll_bus.h ****   *         @arg @ref LL_APB1_GRP1_PERIPH_TIM2
 592:Drivers/STM32F3xx_HAL_Driver/Inc/stm32f3xx_ll_bus.h ****   *         @arg @ref LL_APB1_GRP1_PERIPH_TIM3 (*)
 593:Drivers/STM32F3xx_HAL_Driver/Inc/stm32f3xx_ll_bus.h ****   *         @arg @ref LL_APB1_GRP1_PERIPH_TIM4 (*)
 594:Drivers/STM32F3xx_HAL_Driver/Inc/stm32f3xx_ll_bus.h ****   *         @arg @ref LL_APB1_GRP1_PERIPH_TIM5 (*)
 595:Drivers/STM32F3xx_HAL_Driver/Inc/stm32f3xx_ll_bus.h ****   *         @arg @ref LL_APB1_GRP1_PERIPH_TIM6
 596:Drivers/STM32F3xx_HAL_Driver/Inc/stm32f3xx_ll_bus.h ****   *         @arg @ref LL_APB1_GRP1_PERIPH_TIM7 (*)
 597:Drivers/STM32F3xx_HAL_Driver/Inc/stm32f3xx_ll_bus.h ****   *         @arg @ref LL_APB1_GRP1_PERIPH_TIM12 (*)
 598:Drivers/STM32F3xx_HAL_Driver/Inc/stm32f3xx_ll_bus.h ****   *         @arg @ref LL_APB1_GRP1_PERIPH_TIM13 (*)
 599:Drivers/STM32F3xx_HAL_Driver/Inc/stm32f3xx_ll_bus.h ****   *         @arg @ref LL_APB1_GRP1_PERIPH_TIM14 (*)
 600:Drivers/STM32F3xx_HAL_Driver/Inc/stm32f3xx_ll_bus.h ****   *         @arg @ref LL_APB1_GRP1_PERIPH_TIM18 (*)
 601:Drivers/STM32F3xx_HAL_Driver/Inc/stm32f3xx_ll_bus.h ****   *         @arg @ref LL_APB1_GRP1_PERIPH_WWDG
 602:Drivers/STM32F3xx_HAL_Driver/Inc/stm32f3xx_ll_bus.h ****   *         @arg @ref LL_APB1_GRP1_PERIPH_SPI2 (*)
ARM GAS  /tmp/ccc5fm0Q.s 			page 12


 603:Drivers/STM32F3xx_HAL_Driver/Inc/stm32f3xx_ll_bus.h ****   *         @arg @ref LL_APB1_GRP1_PERIPH_SPI3 (*)
 604:Drivers/STM32F3xx_HAL_Driver/Inc/stm32f3xx_ll_bus.h ****   *         @arg @ref LL_APB1_GRP1_PERIPH_USART2
 605:Drivers/STM32F3xx_HAL_Driver/Inc/stm32f3xx_ll_bus.h ****   *         @arg @ref LL_APB1_GRP1_PERIPH_USART3
 606:Drivers/STM32F3xx_HAL_Driver/Inc/stm32f3xx_ll_bus.h ****   *         @arg @ref LL_APB1_GRP1_PERIPH_UART4 (*)
 607:Drivers/STM32F3xx_HAL_Driver/Inc/stm32f3xx_ll_bus.h ****   *         @arg @ref LL_APB1_GRP1_PERIPH_UART5 (*)
 608:Drivers/STM32F3xx_HAL_Driver/Inc/stm32f3xx_ll_bus.h ****   *         @arg @ref LL_APB1_GRP1_PERIPH_I2C1
 609:Drivers/STM32F3xx_HAL_Driver/Inc/stm32f3xx_ll_bus.h ****   *         @arg @ref LL_APB1_GRP1_PERIPH_I2C2 (*)
 610:Drivers/STM32F3xx_HAL_Driver/Inc/stm32f3xx_ll_bus.h ****   *         @arg @ref LL_APB1_GRP1_PERIPH_USB (*)
 611:Drivers/STM32F3xx_HAL_Driver/Inc/stm32f3xx_ll_bus.h ****   *         @arg @ref LL_APB1_GRP1_PERIPH_CAN (*)
 612:Drivers/STM32F3xx_HAL_Driver/Inc/stm32f3xx_ll_bus.h ****   *         @arg @ref LL_APB1_GRP1_PERIPH_DAC2 (*)
 613:Drivers/STM32F3xx_HAL_Driver/Inc/stm32f3xx_ll_bus.h ****   *         @arg @ref LL_APB1_GRP1_PERIPH_PWR
 614:Drivers/STM32F3xx_HAL_Driver/Inc/stm32f3xx_ll_bus.h ****   *         @arg @ref LL_APB1_GRP1_PERIPH_DAC1
 615:Drivers/STM32F3xx_HAL_Driver/Inc/stm32f3xx_ll_bus.h ****   *         @arg @ref LL_APB1_GRP1_PERIPH_CEC (*)
 616:Drivers/STM32F3xx_HAL_Driver/Inc/stm32f3xx_ll_bus.h ****   *         @arg @ref LL_APB1_GRP1_PERIPH_I2C3 (*)
 617:Drivers/STM32F3xx_HAL_Driver/Inc/stm32f3xx_ll_bus.h ****   *
 618:Drivers/STM32F3xx_HAL_Driver/Inc/stm32f3xx_ll_bus.h ****   *         (*) value not defined in all devices.
 619:Drivers/STM32F3xx_HAL_Driver/Inc/stm32f3xx_ll_bus.h ****   * @retval State of Periphs (1 or 0).
 620:Drivers/STM32F3xx_HAL_Driver/Inc/stm32f3xx_ll_bus.h **** */
 621:Drivers/STM32F3xx_HAL_Driver/Inc/stm32f3xx_ll_bus.h **** __STATIC_INLINE uint32_t LL_APB1_GRP1_IsEnabledClock(uint32_t Periphs)
 622:Drivers/STM32F3xx_HAL_Driver/Inc/stm32f3xx_ll_bus.h **** {
 623:Drivers/STM32F3xx_HAL_Driver/Inc/stm32f3xx_ll_bus.h ****   return (READ_BIT(RCC->APB1ENR, Periphs) == Periphs);
 624:Drivers/STM32F3xx_HAL_Driver/Inc/stm32f3xx_ll_bus.h **** }
 625:Drivers/STM32F3xx_HAL_Driver/Inc/stm32f3xx_ll_bus.h **** 
 626:Drivers/STM32F3xx_HAL_Driver/Inc/stm32f3xx_ll_bus.h **** /**
 627:Drivers/STM32F3xx_HAL_Driver/Inc/stm32f3xx_ll_bus.h ****   * @brief  Disable APB1 peripherals clock.
 628:Drivers/STM32F3xx_HAL_Driver/Inc/stm32f3xx_ll_bus.h ****   * @rmtoll APB1ENR      TIM2EN        LL_APB1_GRP1_DisableClock\n
 629:Drivers/STM32F3xx_HAL_Driver/Inc/stm32f3xx_ll_bus.h ****   *         APB1ENR      TIM3EN        LL_APB1_GRP1_DisableClock\n
 630:Drivers/STM32F3xx_HAL_Driver/Inc/stm32f3xx_ll_bus.h ****   *         APB1ENR      TIM4EN        LL_APB1_GRP1_DisableClock\n
 631:Drivers/STM32F3xx_HAL_Driver/Inc/stm32f3xx_ll_bus.h ****   *         APB1ENR      TIM5EN        LL_APB1_GRP1_DisableClock\n
 632:Drivers/STM32F3xx_HAL_Driver/Inc/stm32f3xx_ll_bus.h ****   *         APB1ENR      TIM6EN        LL_APB1_GRP1_DisableClock\n
 633:Drivers/STM32F3xx_HAL_Driver/Inc/stm32f3xx_ll_bus.h ****   *         APB1ENR      TIM7EN        LL_APB1_GRP1_DisableClock\n
 634:Drivers/STM32F3xx_HAL_Driver/Inc/stm32f3xx_ll_bus.h ****   *         APB1ENR      TIM12EN       LL_APB1_GRP1_DisableClock\n
 635:Drivers/STM32F3xx_HAL_Driver/Inc/stm32f3xx_ll_bus.h ****   *         APB1ENR      TIM13EN       LL_APB1_GRP1_DisableClock\n
 636:Drivers/STM32F3xx_HAL_Driver/Inc/stm32f3xx_ll_bus.h ****   *         APB1ENR      TIM14EN       LL_APB1_GRP1_DisableClock\n
 637:Drivers/STM32F3xx_HAL_Driver/Inc/stm32f3xx_ll_bus.h ****   *         APB1ENR      TIM18EN       LL_APB1_GRP1_DisableClock\n
 638:Drivers/STM32F3xx_HAL_Driver/Inc/stm32f3xx_ll_bus.h ****   *         APB1ENR      WWDGEN        LL_APB1_GRP1_DisableClock\n
 639:Drivers/STM32F3xx_HAL_Driver/Inc/stm32f3xx_ll_bus.h ****   *         APB1ENR      SPI2EN        LL_APB1_GRP1_DisableClock\n
 640:Drivers/STM32F3xx_HAL_Driver/Inc/stm32f3xx_ll_bus.h ****   *         APB1ENR      SPI3EN        LL_APB1_GRP1_DisableClock\n
 641:Drivers/STM32F3xx_HAL_Driver/Inc/stm32f3xx_ll_bus.h ****   *         APB1ENR      USART2EN      LL_APB1_GRP1_DisableClock\n
 642:Drivers/STM32F3xx_HAL_Driver/Inc/stm32f3xx_ll_bus.h ****   *         APB1ENR      USART3EN      LL_APB1_GRP1_DisableClock\n
 643:Drivers/STM32F3xx_HAL_Driver/Inc/stm32f3xx_ll_bus.h ****   *         APB1ENR      UART4EN       LL_APB1_GRP1_DisableClock\n
 644:Drivers/STM32F3xx_HAL_Driver/Inc/stm32f3xx_ll_bus.h ****   *         APB1ENR      UART5EN       LL_APB1_GRP1_DisableClock\n
 645:Drivers/STM32F3xx_HAL_Driver/Inc/stm32f3xx_ll_bus.h ****   *         APB1ENR      I2C1EN        LL_APB1_GRP1_DisableClock\n
 646:Drivers/STM32F3xx_HAL_Driver/Inc/stm32f3xx_ll_bus.h ****   *         APB1ENR      I2C2EN        LL_APB1_GRP1_DisableClock\n
 647:Drivers/STM32F3xx_HAL_Driver/Inc/stm32f3xx_ll_bus.h ****   *         APB1ENR      USBEN         LL_APB1_GRP1_DisableClock\n
 648:Drivers/STM32F3xx_HAL_Driver/Inc/stm32f3xx_ll_bus.h ****   *         APB1ENR      CANEN         LL_APB1_GRP1_DisableClock\n
 649:Drivers/STM32F3xx_HAL_Driver/Inc/stm32f3xx_ll_bus.h ****   *         APB1ENR      DAC2EN        LL_APB1_GRP1_DisableClock\n
 650:Drivers/STM32F3xx_HAL_Driver/Inc/stm32f3xx_ll_bus.h ****   *         APB1ENR      PWREN         LL_APB1_GRP1_DisableClock\n
 651:Drivers/STM32F3xx_HAL_Driver/Inc/stm32f3xx_ll_bus.h ****   *         APB1ENR      DAC1EN        LL_APB1_GRP1_DisableClock\n
 652:Drivers/STM32F3xx_HAL_Driver/Inc/stm32f3xx_ll_bus.h ****   *         APB1ENR      CECEN         LL_APB1_GRP1_DisableClock\n
 653:Drivers/STM32F3xx_HAL_Driver/Inc/stm32f3xx_ll_bus.h ****   *         APB1ENR      I2C3EN        LL_APB1_GRP1_DisableClock
 654:Drivers/STM32F3xx_HAL_Driver/Inc/stm32f3xx_ll_bus.h ****   * @param  Periphs This parameter can be a combination of the following values:
 655:Drivers/STM32F3xx_HAL_Driver/Inc/stm32f3xx_ll_bus.h ****   *         @arg @ref LL_APB1_GRP1_PERIPH_TIM2
 656:Drivers/STM32F3xx_HAL_Driver/Inc/stm32f3xx_ll_bus.h ****   *         @arg @ref LL_APB1_GRP1_PERIPH_TIM3 (*)
 657:Drivers/STM32F3xx_HAL_Driver/Inc/stm32f3xx_ll_bus.h ****   *         @arg @ref LL_APB1_GRP1_PERIPH_TIM4 (*)
 658:Drivers/STM32F3xx_HAL_Driver/Inc/stm32f3xx_ll_bus.h ****   *         @arg @ref LL_APB1_GRP1_PERIPH_TIM5 (*)
 659:Drivers/STM32F3xx_HAL_Driver/Inc/stm32f3xx_ll_bus.h ****   *         @arg @ref LL_APB1_GRP1_PERIPH_TIM6
ARM GAS  /tmp/ccc5fm0Q.s 			page 13


 660:Drivers/STM32F3xx_HAL_Driver/Inc/stm32f3xx_ll_bus.h ****   *         @arg @ref LL_APB1_GRP1_PERIPH_TIM7 (*)
 661:Drivers/STM32F3xx_HAL_Driver/Inc/stm32f3xx_ll_bus.h ****   *         @arg @ref LL_APB1_GRP1_PERIPH_TIM12 (*)
 662:Drivers/STM32F3xx_HAL_Driver/Inc/stm32f3xx_ll_bus.h ****   *         @arg @ref LL_APB1_GRP1_PERIPH_TIM13 (*)
 663:Drivers/STM32F3xx_HAL_Driver/Inc/stm32f3xx_ll_bus.h ****   *         @arg @ref LL_APB1_GRP1_PERIPH_TIM14 (*)
 664:Drivers/STM32F3xx_HAL_Driver/Inc/stm32f3xx_ll_bus.h ****   *         @arg @ref LL_APB1_GRP1_PERIPH_TIM18 (*)
 665:Drivers/STM32F3xx_HAL_Driver/Inc/stm32f3xx_ll_bus.h ****   *         @arg @ref LL_APB1_GRP1_PERIPH_WWDG
 666:Drivers/STM32F3xx_HAL_Driver/Inc/stm32f3xx_ll_bus.h ****   *         @arg @ref LL_APB1_GRP1_PERIPH_SPI2 (*)
 667:Drivers/STM32F3xx_HAL_Driver/Inc/stm32f3xx_ll_bus.h ****   *         @arg @ref LL_APB1_GRP1_PERIPH_SPI3 (*)
 668:Drivers/STM32F3xx_HAL_Driver/Inc/stm32f3xx_ll_bus.h ****   *         @arg @ref LL_APB1_GRP1_PERIPH_USART2
 669:Drivers/STM32F3xx_HAL_Driver/Inc/stm32f3xx_ll_bus.h ****   *         @arg @ref LL_APB1_GRP1_PERIPH_USART3
 670:Drivers/STM32F3xx_HAL_Driver/Inc/stm32f3xx_ll_bus.h ****   *         @arg @ref LL_APB1_GRP1_PERIPH_UART4 (*)
 671:Drivers/STM32F3xx_HAL_Driver/Inc/stm32f3xx_ll_bus.h ****   *         @arg @ref LL_APB1_GRP1_PERIPH_UART5 (*)
 672:Drivers/STM32F3xx_HAL_Driver/Inc/stm32f3xx_ll_bus.h ****   *         @arg @ref LL_APB1_GRP1_PERIPH_I2C1
 673:Drivers/STM32F3xx_HAL_Driver/Inc/stm32f3xx_ll_bus.h ****   *         @arg @ref LL_APB1_GRP1_PERIPH_I2C2 (*)
 674:Drivers/STM32F3xx_HAL_Driver/Inc/stm32f3xx_ll_bus.h ****   *         @arg @ref LL_APB1_GRP1_PERIPH_USB (*)
 675:Drivers/STM32F3xx_HAL_Driver/Inc/stm32f3xx_ll_bus.h ****   *         @arg @ref LL_APB1_GRP1_PERIPH_CAN (*)
 676:Drivers/STM32F3xx_HAL_Driver/Inc/stm32f3xx_ll_bus.h ****   *         @arg @ref LL_APB1_GRP1_PERIPH_DAC2 (*)
 677:Drivers/STM32F3xx_HAL_Driver/Inc/stm32f3xx_ll_bus.h ****   *         @arg @ref LL_APB1_GRP1_PERIPH_PWR
 678:Drivers/STM32F3xx_HAL_Driver/Inc/stm32f3xx_ll_bus.h ****   *         @arg @ref LL_APB1_GRP1_PERIPH_DAC1
 679:Drivers/STM32F3xx_HAL_Driver/Inc/stm32f3xx_ll_bus.h ****   *         @arg @ref LL_APB1_GRP1_PERIPH_CEC (*)
 680:Drivers/STM32F3xx_HAL_Driver/Inc/stm32f3xx_ll_bus.h ****   *         @arg @ref LL_APB1_GRP1_PERIPH_I2C3 (*)
 681:Drivers/STM32F3xx_HAL_Driver/Inc/stm32f3xx_ll_bus.h ****   *
 682:Drivers/STM32F3xx_HAL_Driver/Inc/stm32f3xx_ll_bus.h ****   *         (*) value not defined in all devices.
 683:Drivers/STM32F3xx_HAL_Driver/Inc/stm32f3xx_ll_bus.h ****   * @retval None
 684:Drivers/STM32F3xx_HAL_Driver/Inc/stm32f3xx_ll_bus.h **** */
 685:Drivers/STM32F3xx_HAL_Driver/Inc/stm32f3xx_ll_bus.h **** __STATIC_INLINE void LL_APB1_GRP1_DisableClock(uint32_t Periphs)
 686:Drivers/STM32F3xx_HAL_Driver/Inc/stm32f3xx_ll_bus.h **** {
 687:Drivers/STM32F3xx_HAL_Driver/Inc/stm32f3xx_ll_bus.h ****   CLEAR_BIT(RCC->APB1ENR, Periphs);
 688:Drivers/STM32F3xx_HAL_Driver/Inc/stm32f3xx_ll_bus.h **** }
 689:Drivers/STM32F3xx_HAL_Driver/Inc/stm32f3xx_ll_bus.h **** 
 690:Drivers/STM32F3xx_HAL_Driver/Inc/stm32f3xx_ll_bus.h **** /**
 691:Drivers/STM32F3xx_HAL_Driver/Inc/stm32f3xx_ll_bus.h ****   * @brief  Force APB1 peripherals reset.
 692:Drivers/STM32F3xx_HAL_Driver/Inc/stm32f3xx_ll_bus.h ****   * @rmtoll APB1RSTR     TIM2RST       LL_APB1_GRP1_ForceReset\n
 693:Drivers/STM32F3xx_HAL_Driver/Inc/stm32f3xx_ll_bus.h ****   *         APB1RSTR     TIM3RST       LL_APB1_GRP1_ForceReset\n
 694:Drivers/STM32F3xx_HAL_Driver/Inc/stm32f3xx_ll_bus.h ****   *         APB1RSTR     TIM4RST       LL_APB1_GRP1_ForceReset\n
 695:Drivers/STM32F3xx_HAL_Driver/Inc/stm32f3xx_ll_bus.h ****   *         APB1RSTR     TIM5RST       LL_APB1_GRP1_ForceReset\n
 696:Drivers/STM32F3xx_HAL_Driver/Inc/stm32f3xx_ll_bus.h ****   *         APB1RSTR     TIM6RST       LL_APB1_GRP1_ForceReset\n
 697:Drivers/STM32F3xx_HAL_Driver/Inc/stm32f3xx_ll_bus.h ****   *         APB1RSTR     TIM7RST       LL_APB1_GRP1_ForceReset\n
 698:Drivers/STM32F3xx_HAL_Driver/Inc/stm32f3xx_ll_bus.h ****   *         APB1RSTR     TIM12RST      LL_APB1_GRP1_ForceReset\n
 699:Drivers/STM32F3xx_HAL_Driver/Inc/stm32f3xx_ll_bus.h ****   *         APB1RSTR     TIM13RST      LL_APB1_GRP1_ForceReset\n
 700:Drivers/STM32F3xx_HAL_Driver/Inc/stm32f3xx_ll_bus.h ****   *         APB1RSTR     TIM14RST      LL_APB1_GRP1_ForceReset\n
 701:Drivers/STM32F3xx_HAL_Driver/Inc/stm32f3xx_ll_bus.h ****   *         APB1RSTR     TIM18RST      LL_APB1_GRP1_ForceReset\n
 702:Drivers/STM32F3xx_HAL_Driver/Inc/stm32f3xx_ll_bus.h ****   *         APB1RSTR     WWDGRST       LL_APB1_GRP1_ForceReset\n
 703:Drivers/STM32F3xx_HAL_Driver/Inc/stm32f3xx_ll_bus.h ****   *         APB1RSTR     SPI2RST       LL_APB1_GRP1_ForceReset\n
 704:Drivers/STM32F3xx_HAL_Driver/Inc/stm32f3xx_ll_bus.h ****   *         APB1RSTR     SPI3RST       LL_APB1_GRP1_ForceReset\n
 705:Drivers/STM32F3xx_HAL_Driver/Inc/stm32f3xx_ll_bus.h ****   *         APB1RSTR     USART2RST     LL_APB1_GRP1_ForceReset\n
 706:Drivers/STM32F3xx_HAL_Driver/Inc/stm32f3xx_ll_bus.h ****   *         APB1RSTR     USART3RST     LL_APB1_GRP1_ForceReset\n
 707:Drivers/STM32F3xx_HAL_Driver/Inc/stm32f3xx_ll_bus.h ****   *         APB1RSTR     UART4RST      LL_APB1_GRP1_ForceReset\n
 708:Drivers/STM32F3xx_HAL_Driver/Inc/stm32f3xx_ll_bus.h ****   *         APB1RSTR     UART5RST      LL_APB1_GRP1_ForceReset\n
 709:Drivers/STM32F3xx_HAL_Driver/Inc/stm32f3xx_ll_bus.h ****   *         APB1RSTR     I2C1RST       LL_APB1_GRP1_ForceReset\n
 710:Drivers/STM32F3xx_HAL_Driver/Inc/stm32f3xx_ll_bus.h ****   *         APB1RSTR     I2C2RST       LL_APB1_GRP1_ForceReset\n
 711:Drivers/STM32F3xx_HAL_Driver/Inc/stm32f3xx_ll_bus.h ****   *         APB1RSTR     USBRST        LL_APB1_GRP1_ForceReset\n
 712:Drivers/STM32F3xx_HAL_Driver/Inc/stm32f3xx_ll_bus.h ****   *         APB1RSTR     CANRST        LL_APB1_GRP1_ForceReset\n
 713:Drivers/STM32F3xx_HAL_Driver/Inc/stm32f3xx_ll_bus.h ****   *         APB1RSTR     DAC2RST       LL_APB1_GRP1_ForceReset\n
 714:Drivers/STM32F3xx_HAL_Driver/Inc/stm32f3xx_ll_bus.h ****   *         APB1RSTR     PWRRST        LL_APB1_GRP1_ForceReset\n
 715:Drivers/STM32F3xx_HAL_Driver/Inc/stm32f3xx_ll_bus.h ****   *         APB1RSTR     DAC1RST       LL_APB1_GRP1_ForceReset\n
 716:Drivers/STM32F3xx_HAL_Driver/Inc/stm32f3xx_ll_bus.h ****   *         APB1RSTR     CECRST        LL_APB1_GRP1_ForceReset\n
ARM GAS  /tmp/ccc5fm0Q.s 			page 14


 717:Drivers/STM32F3xx_HAL_Driver/Inc/stm32f3xx_ll_bus.h ****   *         APB1RSTR     I2C3RST       LL_APB1_GRP1_ForceReset
 718:Drivers/STM32F3xx_HAL_Driver/Inc/stm32f3xx_ll_bus.h ****   * @param  Periphs This parameter can be a combination of the following values:
 719:Drivers/STM32F3xx_HAL_Driver/Inc/stm32f3xx_ll_bus.h ****   *         @arg @ref LL_APB1_GRP1_PERIPH_ALL
 720:Drivers/STM32F3xx_HAL_Driver/Inc/stm32f3xx_ll_bus.h ****   *         @arg @ref LL_APB1_GRP1_PERIPH_TIM2
 721:Drivers/STM32F3xx_HAL_Driver/Inc/stm32f3xx_ll_bus.h ****   *         @arg @ref LL_APB1_GRP1_PERIPH_TIM3 (*)
 722:Drivers/STM32F3xx_HAL_Driver/Inc/stm32f3xx_ll_bus.h ****   *         @arg @ref LL_APB1_GRP1_PERIPH_TIM4 (*)
 723:Drivers/STM32F3xx_HAL_Driver/Inc/stm32f3xx_ll_bus.h ****   *         @arg @ref LL_APB1_GRP1_PERIPH_TIM5 (*)
 724:Drivers/STM32F3xx_HAL_Driver/Inc/stm32f3xx_ll_bus.h ****   *         @arg @ref LL_APB1_GRP1_PERIPH_TIM6
 725:Drivers/STM32F3xx_HAL_Driver/Inc/stm32f3xx_ll_bus.h ****   *         @arg @ref LL_APB1_GRP1_PERIPH_TIM7 (*)
 726:Drivers/STM32F3xx_HAL_Driver/Inc/stm32f3xx_ll_bus.h ****   *         @arg @ref LL_APB1_GRP1_PERIPH_TIM12 (*)
 727:Drivers/STM32F3xx_HAL_Driver/Inc/stm32f3xx_ll_bus.h ****   *         @arg @ref LL_APB1_GRP1_PERIPH_TIM13 (*)
 728:Drivers/STM32F3xx_HAL_Driver/Inc/stm32f3xx_ll_bus.h ****   *         @arg @ref LL_APB1_GRP1_PERIPH_TIM14 (*)
 729:Drivers/STM32F3xx_HAL_Driver/Inc/stm32f3xx_ll_bus.h ****   *         @arg @ref LL_APB1_GRP1_PERIPH_TIM18 (*)
 730:Drivers/STM32F3xx_HAL_Driver/Inc/stm32f3xx_ll_bus.h ****   *         @arg @ref LL_APB1_GRP1_PERIPH_WWDG
 731:Drivers/STM32F3xx_HAL_Driver/Inc/stm32f3xx_ll_bus.h ****   *         @arg @ref LL_APB1_GRP1_PERIPH_SPI2 (*)
 732:Drivers/STM32F3xx_HAL_Driver/Inc/stm32f3xx_ll_bus.h ****   *         @arg @ref LL_APB1_GRP1_PERIPH_SPI3 (*)
 733:Drivers/STM32F3xx_HAL_Driver/Inc/stm32f3xx_ll_bus.h ****   *         @arg @ref LL_APB1_GRP1_PERIPH_USART2
 734:Drivers/STM32F3xx_HAL_Driver/Inc/stm32f3xx_ll_bus.h ****   *         @arg @ref LL_APB1_GRP1_PERIPH_USART3
 735:Drivers/STM32F3xx_HAL_Driver/Inc/stm32f3xx_ll_bus.h ****   *         @arg @ref LL_APB1_GRP1_PERIPH_UART4 (*)
 736:Drivers/STM32F3xx_HAL_Driver/Inc/stm32f3xx_ll_bus.h ****   *         @arg @ref LL_APB1_GRP1_PERIPH_UART5 (*)
 737:Drivers/STM32F3xx_HAL_Driver/Inc/stm32f3xx_ll_bus.h ****   *         @arg @ref LL_APB1_GRP1_PERIPH_I2C1
 738:Drivers/STM32F3xx_HAL_Driver/Inc/stm32f3xx_ll_bus.h ****   *         @arg @ref LL_APB1_GRP1_PERIPH_I2C2 (*)
 739:Drivers/STM32F3xx_HAL_Driver/Inc/stm32f3xx_ll_bus.h ****   *         @arg @ref LL_APB1_GRP1_PERIPH_USB (*)
 740:Drivers/STM32F3xx_HAL_Driver/Inc/stm32f3xx_ll_bus.h ****   *         @arg @ref LL_APB1_GRP1_PERIPH_CAN (*)
 741:Drivers/STM32F3xx_HAL_Driver/Inc/stm32f3xx_ll_bus.h ****   *         @arg @ref LL_APB1_GRP1_PERIPH_DAC2 (*)
 742:Drivers/STM32F3xx_HAL_Driver/Inc/stm32f3xx_ll_bus.h ****   *         @arg @ref LL_APB1_GRP1_PERIPH_PWR
 743:Drivers/STM32F3xx_HAL_Driver/Inc/stm32f3xx_ll_bus.h ****   *         @arg @ref LL_APB1_GRP1_PERIPH_DAC1
 744:Drivers/STM32F3xx_HAL_Driver/Inc/stm32f3xx_ll_bus.h ****   *         @arg @ref LL_APB1_GRP1_PERIPH_CEC (*)
 745:Drivers/STM32F3xx_HAL_Driver/Inc/stm32f3xx_ll_bus.h ****   *         @arg @ref LL_APB1_GRP1_PERIPH_I2C3 (*)
 746:Drivers/STM32F3xx_HAL_Driver/Inc/stm32f3xx_ll_bus.h ****   *
 747:Drivers/STM32F3xx_HAL_Driver/Inc/stm32f3xx_ll_bus.h ****   *         (*) value not defined in all devices.
 748:Drivers/STM32F3xx_HAL_Driver/Inc/stm32f3xx_ll_bus.h ****   * @retval None
 749:Drivers/STM32F3xx_HAL_Driver/Inc/stm32f3xx_ll_bus.h **** */
 750:Drivers/STM32F3xx_HAL_Driver/Inc/stm32f3xx_ll_bus.h **** __STATIC_INLINE void LL_APB1_GRP1_ForceReset(uint32_t Periphs)
 751:Drivers/STM32F3xx_HAL_Driver/Inc/stm32f3xx_ll_bus.h **** {
  27              		.loc 1 751 0
  28              		.cfi_startproc
  29              		@ args = 0, pretend = 0, frame = 8
  30              		@ frame_needed = 1, uses_anonymous_args = 0
  31              		@ link register save eliminated.
  32 0000 80B4     		push	{r7}
  33              	.LCFI0:
  34              		.cfi_def_cfa_offset 4
  35              		.cfi_offset 7, -4
  36 0002 83B0     		sub	sp, sp, #12
  37              	.LCFI1:
  38              		.cfi_def_cfa_offset 16
  39 0004 00AF     		add	r7, sp, #0
  40              	.LCFI2:
  41              		.cfi_def_cfa_register 7
  42 0006 7860     		str	r0, [r7, #4]
 752:Drivers/STM32F3xx_HAL_Driver/Inc/stm32f3xx_ll_bus.h ****   SET_BIT(RCC->APB1RSTR, Periphs);
  43              		.loc 1 752 0
  44 0008 054B     		ldr	r3, .L2
  45 000a 1A69     		ldr	r2, [r3, #16]
  46 000c 0449     		ldr	r1, .L2
  47 000e 7B68     		ldr	r3, [r7, #4]
ARM GAS  /tmp/ccc5fm0Q.s 			page 15


  48 0010 1343     		orrs	r3, r3, r2
  49 0012 0B61     		str	r3, [r1, #16]
 753:Drivers/STM32F3xx_HAL_Driver/Inc/stm32f3xx_ll_bus.h **** }
  50              		.loc 1 753 0
  51 0014 00BF     		nop
  52 0016 0C37     		adds	r7, r7, #12
  53              	.LCFI3:
  54              		.cfi_def_cfa_offset 4
  55 0018 BD46     		mov	sp, r7
  56              	.LCFI4:
  57              		.cfi_def_cfa_register 13
  58              		@ sp needed
  59 001a 5DF8047B 		ldr	r7, [sp], #4
  60              	.LCFI5:
  61              		.cfi_restore 7
  62              		.cfi_def_cfa_offset 0
  63 001e 7047     		bx	lr
  64              	.L3:
  65              		.align	2
  66              	.L2:
  67 0020 00100240 		.word	1073876992
  68              		.cfi_endproc
  69              	.LFE221:
  71              		.section	.text.LL_APB1_GRP1_ReleaseReset,"ax",%progbits
  72              		.align	1
  73              		.syntax unified
  74              		.thumb
  75              		.thumb_func
  76              		.fpu fpv4-sp-d16
  78              	LL_APB1_GRP1_ReleaseReset:
  79              	.LFB222:
 754:Drivers/STM32F3xx_HAL_Driver/Inc/stm32f3xx_ll_bus.h **** 
 755:Drivers/STM32F3xx_HAL_Driver/Inc/stm32f3xx_ll_bus.h **** /**
 756:Drivers/STM32F3xx_HAL_Driver/Inc/stm32f3xx_ll_bus.h ****   * @brief  Release APB1 peripherals reset.
 757:Drivers/STM32F3xx_HAL_Driver/Inc/stm32f3xx_ll_bus.h ****   * @rmtoll APB1RSTR     TIM2RST       LL_APB1_GRP1_ReleaseReset\n
 758:Drivers/STM32F3xx_HAL_Driver/Inc/stm32f3xx_ll_bus.h ****   *         APB1RSTR     TIM3RST       LL_APB1_GRP1_ReleaseReset\n
 759:Drivers/STM32F3xx_HAL_Driver/Inc/stm32f3xx_ll_bus.h ****   *         APB1RSTR     TIM4RST       LL_APB1_GRP1_ReleaseReset\n
 760:Drivers/STM32F3xx_HAL_Driver/Inc/stm32f3xx_ll_bus.h ****   *         APB1RSTR     TIM5RST       LL_APB1_GRP1_ReleaseReset\n
 761:Drivers/STM32F3xx_HAL_Driver/Inc/stm32f3xx_ll_bus.h ****   *         APB1RSTR     TIM6RST       LL_APB1_GRP1_ReleaseReset\n
 762:Drivers/STM32F3xx_HAL_Driver/Inc/stm32f3xx_ll_bus.h ****   *         APB1RSTR     TIM7RST       LL_APB1_GRP1_ReleaseReset\n
 763:Drivers/STM32F3xx_HAL_Driver/Inc/stm32f3xx_ll_bus.h ****   *         APB1RSTR     TIM12RST      LL_APB1_GRP1_ReleaseReset\n
 764:Drivers/STM32F3xx_HAL_Driver/Inc/stm32f3xx_ll_bus.h ****   *         APB1RSTR     TIM13RST      LL_APB1_GRP1_ReleaseReset\n
 765:Drivers/STM32F3xx_HAL_Driver/Inc/stm32f3xx_ll_bus.h ****   *         APB1RSTR     TIM14RST      LL_APB1_GRP1_ReleaseReset\n
 766:Drivers/STM32F3xx_HAL_Driver/Inc/stm32f3xx_ll_bus.h ****   *         APB1RSTR     TIM18RST      LL_APB1_GRP1_ReleaseReset\n
 767:Drivers/STM32F3xx_HAL_Driver/Inc/stm32f3xx_ll_bus.h ****   *         APB1RSTR     WWDGRST       LL_APB1_GRP1_ReleaseReset\n
 768:Drivers/STM32F3xx_HAL_Driver/Inc/stm32f3xx_ll_bus.h ****   *         APB1RSTR     SPI2RST       LL_APB1_GRP1_ReleaseReset\n
 769:Drivers/STM32F3xx_HAL_Driver/Inc/stm32f3xx_ll_bus.h ****   *         APB1RSTR     SPI3RST       LL_APB1_GRP1_ReleaseReset\n
 770:Drivers/STM32F3xx_HAL_Driver/Inc/stm32f3xx_ll_bus.h ****   *         APB1RSTR     USART2RST     LL_APB1_GRP1_ReleaseReset\n
 771:Drivers/STM32F3xx_HAL_Driver/Inc/stm32f3xx_ll_bus.h ****   *         APB1RSTR     USART3RST     LL_APB1_GRP1_ReleaseReset\n
 772:Drivers/STM32F3xx_HAL_Driver/Inc/stm32f3xx_ll_bus.h ****   *         APB1RSTR     UART4RST      LL_APB1_GRP1_ReleaseReset\n
 773:Drivers/STM32F3xx_HAL_Driver/Inc/stm32f3xx_ll_bus.h ****   *         APB1RSTR     UART5RST      LL_APB1_GRP1_ReleaseReset\n
 774:Drivers/STM32F3xx_HAL_Driver/Inc/stm32f3xx_ll_bus.h ****   *         APB1RSTR     I2C1RST       LL_APB1_GRP1_ReleaseReset\n
 775:Drivers/STM32F3xx_HAL_Driver/Inc/stm32f3xx_ll_bus.h ****   *         APB1RSTR     I2C2RST       LL_APB1_GRP1_ReleaseReset\n
 776:Drivers/STM32F3xx_HAL_Driver/Inc/stm32f3xx_ll_bus.h ****   *         APB1RSTR     USBRST        LL_APB1_GRP1_ReleaseReset\n
 777:Drivers/STM32F3xx_HAL_Driver/Inc/stm32f3xx_ll_bus.h ****   *         APB1RSTR     CANRST        LL_APB1_GRP1_ReleaseReset\n
 778:Drivers/STM32F3xx_HAL_Driver/Inc/stm32f3xx_ll_bus.h ****   *         APB1RSTR     DAC2RST       LL_APB1_GRP1_ReleaseReset\n
 779:Drivers/STM32F3xx_HAL_Driver/Inc/stm32f3xx_ll_bus.h ****   *         APB1RSTR     PWRRST        LL_APB1_GRP1_ReleaseReset\n
ARM GAS  /tmp/ccc5fm0Q.s 			page 16


 780:Drivers/STM32F3xx_HAL_Driver/Inc/stm32f3xx_ll_bus.h ****   *         APB1RSTR     DAC1RST       LL_APB1_GRP1_ReleaseReset\n
 781:Drivers/STM32F3xx_HAL_Driver/Inc/stm32f3xx_ll_bus.h ****   *         APB1RSTR     CECRST        LL_APB1_GRP1_ReleaseReset\n
 782:Drivers/STM32F3xx_HAL_Driver/Inc/stm32f3xx_ll_bus.h ****   *         APB1RSTR     I2C3RST       LL_APB1_GRP1_ReleaseReset
 783:Drivers/STM32F3xx_HAL_Driver/Inc/stm32f3xx_ll_bus.h ****   * @param  Periphs This parameter can be a combination of the following values:
 784:Drivers/STM32F3xx_HAL_Driver/Inc/stm32f3xx_ll_bus.h ****   *         @arg @ref LL_APB1_GRP1_PERIPH_ALL
 785:Drivers/STM32F3xx_HAL_Driver/Inc/stm32f3xx_ll_bus.h ****   *         @arg @ref LL_APB1_GRP1_PERIPH_TIM2
 786:Drivers/STM32F3xx_HAL_Driver/Inc/stm32f3xx_ll_bus.h ****   *         @arg @ref LL_APB1_GRP1_PERIPH_TIM3 (*)
 787:Drivers/STM32F3xx_HAL_Driver/Inc/stm32f3xx_ll_bus.h ****   *         @arg @ref LL_APB1_GRP1_PERIPH_TIM4 (*)
 788:Drivers/STM32F3xx_HAL_Driver/Inc/stm32f3xx_ll_bus.h ****   *         @arg @ref LL_APB1_GRP1_PERIPH_TIM5 (*)
 789:Drivers/STM32F3xx_HAL_Driver/Inc/stm32f3xx_ll_bus.h ****   *         @arg @ref LL_APB1_GRP1_PERIPH_TIM6
 790:Drivers/STM32F3xx_HAL_Driver/Inc/stm32f3xx_ll_bus.h ****   *         @arg @ref LL_APB1_GRP1_PERIPH_TIM7 (*)
 791:Drivers/STM32F3xx_HAL_Driver/Inc/stm32f3xx_ll_bus.h ****   *         @arg @ref LL_APB1_GRP1_PERIPH_TIM12 (*)
 792:Drivers/STM32F3xx_HAL_Driver/Inc/stm32f3xx_ll_bus.h ****   *         @arg @ref LL_APB1_GRP1_PERIPH_TIM13 (*)
 793:Drivers/STM32F3xx_HAL_Driver/Inc/stm32f3xx_ll_bus.h ****   *         @arg @ref LL_APB1_GRP1_PERIPH_TIM14 (*)
 794:Drivers/STM32F3xx_HAL_Driver/Inc/stm32f3xx_ll_bus.h ****   *         @arg @ref LL_APB1_GRP1_PERIPH_TIM18 (*)
 795:Drivers/STM32F3xx_HAL_Driver/Inc/stm32f3xx_ll_bus.h ****   *         @arg @ref LL_APB1_GRP1_PERIPH_WWDG
 796:Drivers/STM32F3xx_HAL_Driver/Inc/stm32f3xx_ll_bus.h ****   *         @arg @ref LL_APB1_GRP1_PERIPH_SPI2 (*)
 797:Drivers/STM32F3xx_HAL_Driver/Inc/stm32f3xx_ll_bus.h ****   *         @arg @ref LL_APB1_GRP1_PERIPH_SPI3 (*)
 798:Drivers/STM32F3xx_HAL_Driver/Inc/stm32f3xx_ll_bus.h ****   *         @arg @ref LL_APB1_GRP1_PERIPH_USART2
 799:Drivers/STM32F3xx_HAL_Driver/Inc/stm32f3xx_ll_bus.h ****   *         @arg @ref LL_APB1_GRP1_PERIPH_USART3
 800:Drivers/STM32F3xx_HAL_Driver/Inc/stm32f3xx_ll_bus.h ****   *         @arg @ref LL_APB1_GRP1_PERIPH_UART4 (*)
 801:Drivers/STM32F3xx_HAL_Driver/Inc/stm32f3xx_ll_bus.h ****   *         @arg @ref LL_APB1_GRP1_PERIPH_UART5 (*)
 802:Drivers/STM32F3xx_HAL_Driver/Inc/stm32f3xx_ll_bus.h ****   *         @arg @ref LL_APB1_GRP1_PERIPH_I2C1
 803:Drivers/STM32F3xx_HAL_Driver/Inc/stm32f3xx_ll_bus.h ****   *         @arg @ref LL_APB1_GRP1_PERIPH_I2C2 (*)
 804:Drivers/STM32F3xx_HAL_Driver/Inc/stm32f3xx_ll_bus.h ****   *         @arg @ref LL_APB1_GRP1_PERIPH_USB (*)
 805:Drivers/STM32F3xx_HAL_Driver/Inc/stm32f3xx_ll_bus.h ****   *         @arg @ref LL_APB1_GRP1_PERIPH_CAN (*)
 806:Drivers/STM32F3xx_HAL_Driver/Inc/stm32f3xx_ll_bus.h ****   *         @arg @ref LL_APB1_GRP1_PERIPH_DAC2 (*)
 807:Drivers/STM32F3xx_HAL_Driver/Inc/stm32f3xx_ll_bus.h ****   *         @arg @ref LL_APB1_GRP1_PERIPH_PWR
 808:Drivers/STM32F3xx_HAL_Driver/Inc/stm32f3xx_ll_bus.h ****   *         @arg @ref LL_APB1_GRP1_PERIPH_DAC1
 809:Drivers/STM32F3xx_HAL_Driver/Inc/stm32f3xx_ll_bus.h ****   *         @arg @ref LL_APB1_GRP1_PERIPH_CEC (*)
 810:Drivers/STM32F3xx_HAL_Driver/Inc/stm32f3xx_ll_bus.h ****   *         @arg @ref LL_APB1_GRP1_PERIPH_I2C3 (*)
 811:Drivers/STM32F3xx_HAL_Driver/Inc/stm32f3xx_ll_bus.h ****   *
 812:Drivers/STM32F3xx_HAL_Driver/Inc/stm32f3xx_ll_bus.h ****   *         (*) value not defined in all devices.
 813:Drivers/STM32F3xx_HAL_Driver/Inc/stm32f3xx_ll_bus.h ****   * @retval None
 814:Drivers/STM32F3xx_HAL_Driver/Inc/stm32f3xx_ll_bus.h **** */
 815:Drivers/STM32F3xx_HAL_Driver/Inc/stm32f3xx_ll_bus.h **** __STATIC_INLINE void LL_APB1_GRP1_ReleaseReset(uint32_t Periphs)
 816:Drivers/STM32F3xx_HAL_Driver/Inc/stm32f3xx_ll_bus.h **** {
  80              		.loc 1 816 0
  81              		.cfi_startproc
  82              		@ args = 0, pretend = 0, frame = 8
  83              		@ frame_needed = 1, uses_anonymous_args = 0
  84              		@ link register save eliminated.
  85 0000 80B4     		push	{r7}
  86              	.LCFI6:
  87              		.cfi_def_cfa_offset 4
  88              		.cfi_offset 7, -4
  89 0002 83B0     		sub	sp, sp, #12
  90              	.LCFI7:
  91              		.cfi_def_cfa_offset 16
  92 0004 00AF     		add	r7, sp, #0
  93              	.LCFI8:
  94              		.cfi_def_cfa_register 7
  95 0006 7860     		str	r0, [r7, #4]
 817:Drivers/STM32F3xx_HAL_Driver/Inc/stm32f3xx_ll_bus.h ****   CLEAR_BIT(RCC->APB1RSTR, Periphs);
  96              		.loc 1 817 0
  97 0008 064B     		ldr	r3, .L5
  98 000a 1A69     		ldr	r2, [r3, #16]
ARM GAS  /tmp/ccc5fm0Q.s 			page 17


  99 000c 7B68     		ldr	r3, [r7, #4]
 100 000e DB43     		mvns	r3, r3
 101 0010 0449     		ldr	r1, .L5
 102 0012 1340     		ands	r3, r3, r2
 103 0014 0B61     		str	r3, [r1, #16]
 818:Drivers/STM32F3xx_HAL_Driver/Inc/stm32f3xx_ll_bus.h **** }
 104              		.loc 1 818 0
 105 0016 00BF     		nop
 106 0018 0C37     		adds	r7, r7, #12
 107              	.LCFI9:
 108              		.cfi_def_cfa_offset 4
 109 001a BD46     		mov	sp, r7
 110              	.LCFI10:
 111              		.cfi_def_cfa_register 13
 112              		@ sp needed
 113 001c 5DF8047B 		ldr	r7, [sp], #4
 114              	.LCFI11:
 115              		.cfi_restore 7
 116              		.cfi_def_cfa_offset 0
 117 0020 7047     		bx	lr
 118              	.L6:
 119 0022 00BF     		.align	2
 120              	.L5:
 121 0024 00100240 		.word	1073876992
 122              		.cfi_endproc
 123              	.LFE222:
 125              		.section	.text.LL_APB2_GRP1_ForceReset,"ax",%progbits
 126              		.align	1
 127              		.syntax unified
 128              		.thumb
 129              		.thumb_func
 130              		.fpu fpv4-sp-d16
 132              	LL_APB2_GRP1_ForceReset:
 133              	.LFB226:
 819:Drivers/STM32F3xx_HAL_Driver/Inc/stm32f3xx_ll_bus.h **** 
 820:Drivers/STM32F3xx_HAL_Driver/Inc/stm32f3xx_ll_bus.h **** /**
 821:Drivers/STM32F3xx_HAL_Driver/Inc/stm32f3xx_ll_bus.h ****   * @}
 822:Drivers/STM32F3xx_HAL_Driver/Inc/stm32f3xx_ll_bus.h ****   */
 823:Drivers/STM32F3xx_HAL_Driver/Inc/stm32f3xx_ll_bus.h **** 
 824:Drivers/STM32F3xx_HAL_Driver/Inc/stm32f3xx_ll_bus.h **** /** @defgroup BUS_LL_EF_APB2 APB2
 825:Drivers/STM32F3xx_HAL_Driver/Inc/stm32f3xx_ll_bus.h ****   * @{
 826:Drivers/STM32F3xx_HAL_Driver/Inc/stm32f3xx_ll_bus.h ****   */
 827:Drivers/STM32F3xx_HAL_Driver/Inc/stm32f3xx_ll_bus.h **** 
 828:Drivers/STM32F3xx_HAL_Driver/Inc/stm32f3xx_ll_bus.h **** /**
 829:Drivers/STM32F3xx_HAL_Driver/Inc/stm32f3xx_ll_bus.h ****   * @brief  Enable APB2 peripherals clock.
 830:Drivers/STM32F3xx_HAL_Driver/Inc/stm32f3xx_ll_bus.h ****   * @rmtoll APB2ENR      SYSCFGEN      LL_APB2_GRP1_EnableClock\n
 831:Drivers/STM32F3xx_HAL_Driver/Inc/stm32f3xx_ll_bus.h ****   *         APB2ENR      ADC1EN        LL_APB2_GRP1_EnableClock\n
 832:Drivers/STM32F3xx_HAL_Driver/Inc/stm32f3xx_ll_bus.h ****   *         APB2ENR      TIM1EN        LL_APB2_GRP1_EnableClock\n
 833:Drivers/STM32F3xx_HAL_Driver/Inc/stm32f3xx_ll_bus.h ****   *         APB2ENR      SPI1EN        LL_APB2_GRP1_EnableClock\n
 834:Drivers/STM32F3xx_HAL_Driver/Inc/stm32f3xx_ll_bus.h ****   *         APB2ENR      TIM8EN        LL_APB2_GRP1_EnableClock\n
 835:Drivers/STM32F3xx_HAL_Driver/Inc/stm32f3xx_ll_bus.h ****   *         APB2ENR      USART1EN      LL_APB2_GRP1_EnableClock\n
 836:Drivers/STM32F3xx_HAL_Driver/Inc/stm32f3xx_ll_bus.h ****   *         APB2ENR      SPI4EN        LL_APB2_GRP1_EnableClock\n
 837:Drivers/STM32F3xx_HAL_Driver/Inc/stm32f3xx_ll_bus.h ****   *         APB2ENR      TIM15EN       LL_APB2_GRP1_EnableClock\n
 838:Drivers/STM32F3xx_HAL_Driver/Inc/stm32f3xx_ll_bus.h ****   *         APB2ENR      TIM16EN       LL_APB2_GRP1_EnableClock\n
 839:Drivers/STM32F3xx_HAL_Driver/Inc/stm32f3xx_ll_bus.h ****   *         APB2ENR      TIM17EN       LL_APB2_GRP1_EnableClock\n
 840:Drivers/STM32F3xx_HAL_Driver/Inc/stm32f3xx_ll_bus.h ****   *         APB2ENR      TIM19EN       LL_APB2_GRP1_EnableClock\n
 841:Drivers/STM32F3xx_HAL_Driver/Inc/stm32f3xx_ll_bus.h ****   *         APB2ENR      TIM20EN       LL_APB2_GRP1_EnableClock\n
ARM GAS  /tmp/ccc5fm0Q.s 			page 18


 842:Drivers/STM32F3xx_HAL_Driver/Inc/stm32f3xx_ll_bus.h ****   *         APB2ENR      HRTIM1EN      LL_APB2_GRP1_EnableClock\n
 843:Drivers/STM32F3xx_HAL_Driver/Inc/stm32f3xx_ll_bus.h ****   *         APB2ENR      SDADC1EN      LL_APB2_GRP1_EnableClock\n
 844:Drivers/STM32F3xx_HAL_Driver/Inc/stm32f3xx_ll_bus.h ****   *         APB2ENR      SDADC2EN      LL_APB2_GRP1_EnableClock\n
 845:Drivers/STM32F3xx_HAL_Driver/Inc/stm32f3xx_ll_bus.h ****   *         APB2ENR      SDADC3EN      LL_APB2_GRP1_EnableClock
 846:Drivers/STM32F3xx_HAL_Driver/Inc/stm32f3xx_ll_bus.h ****   * @param  Periphs This parameter can be a combination of the following values:
 847:Drivers/STM32F3xx_HAL_Driver/Inc/stm32f3xx_ll_bus.h ****   *         @arg @ref LL_APB2_GRP1_PERIPH_SYSCFG
 848:Drivers/STM32F3xx_HAL_Driver/Inc/stm32f3xx_ll_bus.h ****   *         @arg @ref LL_APB2_GRP1_PERIPH_ADC1 (*)
 849:Drivers/STM32F3xx_HAL_Driver/Inc/stm32f3xx_ll_bus.h ****   *         @arg @ref LL_APB2_GRP1_PERIPH_TIM1 (*)
 850:Drivers/STM32F3xx_HAL_Driver/Inc/stm32f3xx_ll_bus.h ****   *         @arg @ref LL_APB2_GRP1_PERIPH_SPI1 (*)
 851:Drivers/STM32F3xx_HAL_Driver/Inc/stm32f3xx_ll_bus.h ****   *         @arg @ref LL_APB2_GRP1_PERIPH_TIM8 (*)
 852:Drivers/STM32F3xx_HAL_Driver/Inc/stm32f3xx_ll_bus.h ****   *         @arg @ref LL_APB2_GRP1_PERIPH_USART1
 853:Drivers/STM32F3xx_HAL_Driver/Inc/stm32f3xx_ll_bus.h ****   *         @arg @ref LL_APB2_GRP1_PERIPH_SPI4 (*)
 854:Drivers/STM32F3xx_HAL_Driver/Inc/stm32f3xx_ll_bus.h ****   *         @arg @ref LL_APB2_GRP1_PERIPH_TIM15
 855:Drivers/STM32F3xx_HAL_Driver/Inc/stm32f3xx_ll_bus.h ****   *         @arg @ref LL_APB2_GRP1_PERIPH_TIM16
 856:Drivers/STM32F3xx_HAL_Driver/Inc/stm32f3xx_ll_bus.h ****   *         @arg @ref LL_APB2_GRP1_PERIPH_TIM17
 857:Drivers/STM32F3xx_HAL_Driver/Inc/stm32f3xx_ll_bus.h ****   *         @arg @ref LL_APB2_GRP1_PERIPH_TIM19 (*)
 858:Drivers/STM32F3xx_HAL_Driver/Inc/stm32f3xx_ll_bus.h ****   *         @arg @ref LL_APB2_GRP1_PERIPH_TIM20 (*)
 859:Drivers/STM32F3xx_HAL_Driver/Inc/stm32f3xx_ll_bus.h ****   *         @arg @ref LL_APB2_GRP1_PERIPH_HRTIM1 (*)
 860:Drivers/STM32F3xx_HAL_Driver/Inc/stm32f3xx_ll_bus.h ****   *         @arg @ref LL_APB2_GRP1_PERIPH_SDADC1 (*)
 861:Drivers/STM32F3xx_HAL_Driver/Inc/stm32f3xx_ll_bus.h ****   *         @arg @ref LL_APB2_GRP1_PERIPH_SDADC2 (*)
 862:Drivers/STM32F3xx_HAL_Driver/Inc/stm32f3xx_ll_bus.h ****   *         @arg @ref LL_APB2_GRP1_PERIPH_SDADC3 (*)
 863:Drivers/STM32F3xx_HAL_Driver/Inc/stm32f3xx_ll_bus.h ****   *
 864:Drivers/STM32F3xx_HAL_Driver/Inc/stm32f3xx_ll_bus.h ****   *         (*) value not defined in all devices.
 865:Drivers/STM32F3xx_HAL_Driver/Inc/stm32f3xx_ll_bus.h ****   * @retval None
 866:Drivers/STM32F3xx_HAL_Driver/Inc/stm32f3xx_ll_bus.h **** */
 867:Drivers/STM32F3xx_HAL_Driver/Inc/stm32f3xx_ll_bus.h **** __STATIC_INLINE void LL_APB2_GRP1_EnableClock(uint32_t Periphs)
 868:Drivers/STM32F3xx_HAL_Driver/Inc/stm32f3xx_ll_bus.h **** {
 869:Drivers/STM32F3xx_HAL_Driver/Inc/stm32f3xx_ll_bus.h ****   __IO uint32_t tmpreg;
 870:Drivers/STM32F3xx_HAL_Driver/Inc/stm32f3xx_ll_bus.h ****   SET_BIT(RCC->APB2ENR, Periphs);
 871:Drivers/STM32F3xx_HAL_Driver/Inc/stm32f3xx_ll_bus.h ****   /* Delay after an RCC peripheral clock enabling */
 872:Drivers/STM32F3xx_HAL_Driver/Inc/stm32f3xx_ll_bus.h ****   tmpreg = READ_BIT(RCC->APB2ENR, Periphs);
 873:Drivers/STM32F3xx_HAL_Driver/Inc/stm32f3xx_ll_bus.h ****   (void)tmpreg;
 874:Drivers/STM32F3xx_HAL_Driver/Inc/stm32f3xx_ll_bus.h **** }
 875:Drivers/STM32F3xx_HAL_Driver/Inc/stm32f3xx_ll_bus.h **** 
 876:Drivers/STM32F3xx_HAL_Driver/Inc/stm32f3xx_ll_bus.h **** /**
 877:Drivers/STM32F3xx_HAL_Driver/Inc/stm32f3xx_ll_bus.h ****   * @brief  Check if APB2 peripheral clock is enabled or not
 878:Drivers/STM32F3xx_HAL_Driver/Inc/stm32f3xx_ll_bus.h ****   * @rmtoll APB2ENR      SYSCFGEN      LL_APB2_GRP1_IsEnabledClock\n
 879:Drivers/STM32F3xx_HAL_Driver/Inc/stm32f3xx_ll_bus.h ****   *         APB2ENR      ADC1EN        LL_APB2_GRP1_IsEnabledClock\n
 880:Drivers/STM32F3xx_HAL_Driver/Inc/stm32f3xx_ll_bus.h ****   *         APB2ENR      TIM1EN        LL_APB2_GRP1_IsEnabledClock\n
 881:Drivers/STM32F3xx_HAL_Driver/Inc/stm32f3xx_ll_bus.h ****   *         APB2ENR      SPI1EN        LL_APB2_GRP1_IsEnabledClock\n
 882:Drivers/STM32F3xx_HAL_Driver/Inc/stm32f3xx_ll_bus.h ****   *         APB2ENR      TIM8EN        LL_APB2_GRP1_IsEnabledClock\n
 883:Drivers/STM32F3xx_HAL_Driver/Inc/stm32f3xx_ll_bus.h ****   *         APB2ENR      USART1EN      LL_APB2_GRP1_IsEnabledClock\n
 884:Drivers/STM32F3xx_HAL_Driver/Inc/stm32f3xx_ll_bus.h ****   *         APB2ENR      SPI4EN        LL_APB2_GRP1_IsEnabledClock\n
 885:Drivers/STM32F3xx_HAL_Driver/Inc/stm32f3xx_ll_bus.h ****   *         APB2ENR      TIM15EN       LL_APB2_GRP1_IsEnabledClock\n
 886:Drivers/STM32F3xx_HAL_Driver/Inc/stm32f3xx_ll_bus.h ****   *         APB2ENR      TIM16EN       LL_APB2_GRP1_IsEnabledClock\n
 887:Drivers/STM32F3xx_HAL_Driver/Inc/stm32f3xx_ll_bus.h ****   *         APB2ENR      TIM17EN       LL_APB2_GRP1_IsEnabledClock\n
 888:Drivers/STM32F3xx_HAL_Driver/Inc/stm32f3xx_ll_bus.h ****   *         APB2ENR      TIM19EN       LL_APB2_GRP1_IsEnabledClock\n
 889:Drivers/STM32F3xx_HAL_Driver/Inc/stm32f3xx_ll_bus.h ****   *         APB2ENR      TIM20EN       LL_APB2_GRP1_IsEnabledClock\n
 890:Drivers/STM32F3xx_HAL_Driver/Inc/stm32f3xx_ll_bus.h ****   *         APB2ENR      HRTIM1EN      LL_APB2_GRP1_IsEnabledClock\n
 891:Drivers/STM32F3xx_HAL_Driver/Inc/stm32f3xx_ll_bus.h ****   *         APB2ENR      SDADC1EN      LL_APB2_GRP1_IsEnabledClock\n
 892:Drivers/STM32F3xx_HAL_Driver/Inc/stm32f3xx_ll_bus.h ****   *         APB2ENR      SDADC2EN      LL_APB2_GRP1_IsEnabledClock\n
 893:Drivers/STM32F3xx_HAL_Driver/Inc/stm32f3xx_ll_bus.h ****   *         APB2ENR      SDADC3EN      LL_APB2_GRP1_IsEnabledClock
 894:Drivers/STM32F3xx_HAL_Driver/Inc/stm32f3xx_ll_bus.h ****   * @param  Periphs This parameter can be a combination of the following values:
 895:Drivers/STM32F3xx_HAL_Driver/Inc/stm32f3xx_ll_bus.h ****   *         @arg @ref LL_APB2_GRP1_PERIPH_SYSCFG
 896:Drivers/STM32F3xx_HAL_Driver/Inc/stm32f3xx_ll_bus.h ****   *         @arg @ref LL_APB2_GRP1_PERIPH_ADC1 (*)
 897:Drivers/STM32F3xx_HAL_Driver/Inc/stm32f3xx_ll_bus.h ****   *         @arg @ref LL_APB2_GRP1_PERIPH_TIM1 (*)
 898:Drivers/STM32F3xx_HAL_Driver/Inc/stm32f3xx_ll_bus.h ****   *         @arg @ref LL_APB2_GRP1_PERIPH_SPI1 (*)
ARM GAS  /tmp/ccc5fm0Q.s 			page 19


 899:Drivers/STM32F3xx_HAL_Driver/Inc/stm32f3xx_ll_bus.h ****   *         @arg @ref LL_APB2_GRP1_PERIPH_TIM8 (*)
 900:Drivers/STM32F3xx_HAL_Driver/Inc/stm32f3xx_ll_bus.h ****   *         @arg @ref LL_APB2_GRP1_PERIPH_USART1
 901:Drivers/STM32F3xx_HAL_Driver/Inc/stm32f3xx_ll_bus.h ****   *         @arg @ref LL_APB2_GRP1_PERIPH_SPI4 (*)
 902:Drivers/STM32F3xx_HAL_Driver/Inc/stm32f3xx_ll_bus.h ****   *         @arg @ref LL_APB2_GRP1_PERIPH_TIM15
 903:Drivers/STM32F3xx_HAL_Driver/Inc/stm32f3xx_ll_bus.h ****   *         @arg @ref LL_APB2_GRP1_PERIPH_TIM16
 904:Drivers/STM32F3xx_HAL_Driver/Inc/stm32f3xx_ll_bus.h ****   *         @arg @ref LL_APB2_GRP1_PERIPH_TIM17
 905:Drivers/STM32F3xx_HAL_Driver/Inc/stm32f3xx_ll_bus.h ****   *         @arg @ref LL_APB2_GRP1_PERIPH_TIM19 (*)
 906:Drivers/STM32F3xx_HAL_Driver/Inc/stm32f3xx_ll_bus.h ****   *         @arg @ref LL_APB2_GRP1_PERIPH_TIM20 (*)
 907:Drivers/STM32F3xx_HAL_Driver/Inc/stm32f3xx_ll_bus.h ****   *         @arg @ref LL_APB2_GRP1_PERIPH_HRTIM1 (*)
 908:Drivers/STM32F3xx_HAL_Driver/Inc/stm32f3xx_ll_bus.h ****   *         @arg @ref LL_APB2_GRP1_PERIPH_SDADC1 (*)
 909:Drivers/STM32F3xx_HAL_Driver/Inc/stm32f3xx_ll_bus.h ****   *         @arg @ref LL_APB2_GRP1_PERIPH_SDADC2 (*)
 910:Drivers/STM32F3xx_HAL_Driver/Inc/stm32f3xx_ll_bus.h ****   *         @arg @ref LL_APB2_GRP1_PERIPH_SDADC3 (*)
 911:Drivers/STM32F3xx_HAL_Driver/Inc/stm32f3xx_ll_bus.h ****   *
 912:Drivers/STM32F3xx_HAL_Driver/Inc/stm32f3xx_ll_bus.h ****   *         (*) value not defined in all devices.
 913:Drivers/STM32F3xx_HAL_Driver/Inc/stm32f3xx_ll_bus.h ****   * @retval State of Periphs (1 or 0).
 914:Drivers/STM32F3xx_HAL_Driver/Inc/stm32f3xx_ll_bus.h **** */
 915:Drivers/STM32F3xx_HAL_Driver/Inc/stm32f3xx_ll_bus.h **** __STATIC_INLINE uint32_t LL_APB2_GRP1_IsEnabledClock(uint32_t Periphs)
 916:Drivers/STM32F3xx_HAL_Driver/Inc/stm32f3xx_ll_bus.h **** {
 917:Drivers/STM32F3xx_HAL_Driver/Inc/stm32f3xx_ll_bus.h ****   return (READ_BIT(RCC->APB2ENR, Periphs) == Periphs);
 918:Drivers/STM32F3xx_HAL_Driver/Inc/stm32f3xx_ll_bus.h **** }
 919:Drivers/STM32F3xx_HAL_Driver/Inc/stm32f3xx_ll_bus.h **** 
 920:Drivers/STM32F3xx_HAL_Driver/Inc/stm32f3xx_ll_bus.h **** /**
 921:Drivers/STM32F3xx_HAL_Driver/Inc/stm32f3xx_ll_bus.h ****   * @brief  Disable APB2 peripherals clock.
 922:Drivers/STM32F3xx_HAL_Driver/Inc/stm32f3xx_ll_bus.h ****   * @rmtoll APB2ENR      SYSCFGEN      LL_APB2_GRP1_DisableClock\n
 923:Drivers/STM32F3xx_HAL_Driver/Inc/stm32f3xx_ll_bus.h ****   *         APB2ENR      ADC1EN        LL_APB2_GRP1_DisableClock\n
 924:Drivers/STM32F3xx_HAL_Driver/Inc/stm32f3xx_ll_bus.h ****   *         APB2ENR      TIM1EN        LL_APB2_GRP1_DisableClock\n
 925:Drivers/STM32F3xx_HAL_Driver/Inc/stm32f3xx_ll_bus.h ****   *         APB2ENR      SPI1EN        LL_APB2_GRP1_DisableClock\n
 926:Drivers/STM32F3xx_HAL_Driver/Inc/stm32f3xx_ll_bus.h ****   *         APB2ENR      TIM8EN        LL_APB2_GRP1_DisableClock\n
 927:Drivers/STM32F3xx_HAL_Driver/Inc/stm32f3xx_ll_bus.h ****   *         APB2ENR      USART1EN      LL_APB2_GRP1_DisableClock\n
 928:Drivers/STM32F3xx_HAL_Driver/Inc/stm32f3xx_ll_bus.h ****   *         APB2ENR      SPI4EN        LL_APB2_GRP1_DisableClock\n
 929:Drivers/STM32F3xx_HAL_Driver/Inc/stm32f3xx_ll_bus.h ****   *         APB2ENR      TIM15EN       LL_APB2_GRP1_DisableClock\n
 930:Drivers/STM32F3xx_HAL_Driver/Inc/stm32f3xx_ll_bus.h ****   *         APB2ENR      TIM16EN       LL_APB2_GRP1_DisableClock\n
 931:Drivers/STM32F3xx_HAL_Driver/Inc/stm32f3xx_ll_bus.h ****   *         APB2ENR      TIM17EN       LL_APB2_GRP1_DisableClock\n
 932:Drivers/STM32F3xx_HAL_Driver/Inc/stm32f3xx_ll_bus.h ****   *         APB2ENR      TIM19EN       LL_APB2_GRP1_DisableClock\n
 933:Drivers/STM32F3xx_HAL_Driver/Inc/stm32f3xx_ll_bus.h ****   *         APB2ENR      TIM20EN       LL_APB2_GRP1_DisableClock\n
 934:Drivers/STM32F3xx_HAL_Driver/Inc/stm32f3xx_ll_bus.h ****   *         APB2ENR      HRTIM1EN      LL_APB2_GRP1_DisableClock\n
 935:Drivers/STM32F3xx_HAL_Driver/Inc/stm32f3xx_ll_bus.h ****   *         APB2ENR      SDADC1EN      LL_APB2_GRP1_DisableClock\n
 936:Drivers/STM32F3xx_HAL_Driver/Inc/stm32f3xx_ll_bus.h ****   *         APB2ENR      SDADC2EN      LL_APB2_GRP1_DisableClock\n
 937:Drivers/STM32F3xx_HAL_Driver/Inc/stm32f3xx_ll_bus.h ****   *         APB2ENR      SDADC3EN      LL_APB2_GRP1_DisableClock
 938:Drivers/STM32F3xx_HAL_Driver/Inc/stm32f3xx_ll_bus.h ****   * @param  Periphs This parameter can be a combination of the following values:
 939:Drivers/STM32F3xx_HAL_Driver/Inc/stm32f3xx_ll_bus.h ****   *         @arg @ref LL_APB2_GRP1_PERIPH_SYSCFG
 940:Drivers/STM32F3xx_HAL_Driver/Inc/stm32f3xx_ll_bus.h ****   *         @arg @ref LL_APB2_GRP1_PERIPH_ADC1 (*)
 941:Drivers/STM32F3xx_HAL_Driver/Inc/stm32f3xx_ll_bus.h ****   *         @arg @ref LL_APB2_GRP1_PERIPH_TIM1 (*)
 942:Drivers/STM32F3xx_HAL_Driver/Inc/stm32f3xx_ll_bus.h ****   *         @arg @ref LL_APB2_GRP1_PERIPH_SPI1 (*)
 943:Drivers/STM32F3xx_HAL_Driver/Inc/stm32f3xx_ll_bus.h ****   *         @arg @ref LL_APB2_GRP1_PERIPH_TIM8 (*)
 944:Drivers/STM32F3xx_HAL_Driver/Inc/stm32f3xx_ll_bus.h ****   *         @arg @ref LL_APB2_GRP1_PERIPH_USART1
 945:Drivers/STM32F3xx_HAL_Driver/Inc/stm32f3xx_ll_bus.h ****   *         @arg @ref LL_APB2_GRP1_PERIPH_SPI4 (*)
 946:Drivers/STM32F3xx_HAL_Driver/Inc/stm32f3xx_ll_bus.h ****   *         @arg @ref LL_APB2_GRP1_PERIPH_TIM15
 947:Drivers/STM32F3xx_HAL_Driver/Inc/stm32f3xx_ll_bus.h ****   *         @arg @ref LL_APB2_GRP1_PERIPH_TIM16
 948:Drivers/STM32F3xx_HAL_Driver/Inc/stm32f3xx_ll_bus.h ****   *         @arg @ref LL_APB2_GRP1_PERIPH_TIM17
 949:Drivers/STM32F3xx_HAL_Driver/Inc/stm32f3xx_ll_bus.h ****   *         @arg @ref LL_APB2_GRP1_PERIPH_TIM19 (*)
 950:Drivers/STM32F3xx_HAL_Driver/Inc/stm32f3xx_ll_bus.h ****   *         @arg @ref LL_APB2_GRP1_PERIPH_TIM20 (*)
 951:Drivers/STM32F3xx_HAL_Driver/Inc/stm32f3xx_ll_bus.h ****   *         @arg @ref LL_APB2_GRP1_PERIPH_HRTIM1 (*)
 952:Drivers/STM32F3xx_HAL_Driver/Inc/stm32f3xx_ll_bus.h ****   *         @arg @ref LL_APB2_GRP1_PERIPH_SDADC1 (*)
 953:Drivers/STM32F3xx_HAL_Driver/Inc/stm32f3xx_ll_bus.h ****   *         @arg @ref LL_APB2_GRP1_PERIPH_SDADC2 (*)
 954:Drivers/STM32F3xx_HAL_Driver/Inc/stm32f3xx_ll_bus.h ****   *         @arg @ref LL_APB2_GRP1_PERIPH_SDADC3 (*)
 955:Drivers/STM32F3xx_HAL_Driver/Inc/stm32f3xx_ll_bus.h ****   *
ARM GAS  /tmp/ccc5fm0Q.s 			page 20


 956:Drivers/STM32F3xx_HAL_Driver/Inc/stm32f3xx_ll_bus.h ****   *         (*) value not defined in all devices.
 957:Drivers/STM32F3xx_HAL_Driver/Inc/stm32f3xx_ll_bus.h ****   * @retval None
 958:Drivers/STM32F3xx_HAL_Driver/Inc/stm32f3xx_ll_bus.h **** */
 959:Drivers/STM32F3xx_HAL_Driver/Inc/stm32f3xx_ll_bus.h **** __STATIC_INLINE void LL_APB2_GRP1_DisableClock(uint32_t Periphs)
 960:Drivers/STM32F3xx_HAL_Driver/Inc/stm32f3xx_ll_bus.h **** {
 961:Drivers/STM32F3xx_HAL_Driver/Inc/stm32f3xx_ll_bus.h ****   CLEAR_BIT(RCC->APB2ENR, Periphs);
 962:Drivers/STM32F3xx_HAL_Driver/Inc/stm32f3xx_ll_bus.h **** }
 963:Drivers/STM32F3xx_HAL_Driver/Inc/stm32f3xx_ll_bus.h **** 
 964:Drivers/STM32F3xx_HAL_Driver/Inc/stm32f3xx_ll_bus.h **** /**
 965:Drivers/STM32F3xx_HAL_Driver/Inc/stm32f3xx_ll_bus.h ****   * @brief  Force APB2 peripherals reset.
 966:Drivers/STM32F3xx_HAL_Driver/Inc/stm32f3xx_ll_bus.h ****   * @rmtoll APB2RSTR     SYSCFGRST     LL_APB2_GRP1_ForceReset\n
 967:Drivers/STM32F3xx_HAL_Driver/Inc/stm32f3xx_ll_bus.h ****   *         APB2RSTR     ADC1RST       LL_APB2_GRP1_ForceReset\n
 968:Drivers/STM32F3xx_HAL_Driver/Inc/stm32f3xx_ll_bus.h ****   *         APB2RSTR     TIM1RST       LL_APB2_GRP1_ForceReset\n
 969:Drivers/STM32F3xx_HAL_Driver/Inc/stm32f3xx_ll_bus.h ****   *         APB2RSTR     SPI1RST       LL_APB2_GRP1_ForceReset\n
 970:Drivers/STM32F3xx_HAL_Driver/Inc/stm32f3xx_ll_bus.h ****   *         APB2RSTR     TIM8RST       LL_APB2_GRP1_ForceReset\n
 971:Drivers/STM32F3xx_HAL_Driver/Inc/stm32f3xx_ll_bus.h ****   *         APB2RSTR     USART1RST     LL_APB2_GRP1_ForceReset\n
 972:Drivers/STM32F3xx_HAL_Driver/Inc/stm32f3xx_ll_bus.h ****   *         APB2RSTR     SPI4RST       LL_APB2_GRP1_ForceReset\n
 973:Drivers/STM32F3xx_HAL_Driver/Inc/stm32f3xx_ll_bus.h ****   *         APB2RSTR     TIM15RST      LL_APB2_GRP1_ForceReset\n
 974:Drivers/STM32F3xx_HAL_Driver/Inc/stm32f3xx_ll_bus.h ****   *         APB2RSTR     TIM16RST      LL_APB2_GRP1_ForceReset\n
 975:Drivers/STM32F3xx_HAL_Driver/Inc/stm32f3xx_ll_bus.h ****   *         APB2RSTR     TIM17RST      LL_APB2_GRP1_ForceReset\n
 976:Drivers/STM32F3xx_HAL_Driver/Inc/stm32f3xx_ll_bus.h ****   *         APB2RSTR     TIM19RST      LL_APB2_GRP1_ForceReset\n
 977:Drivers/STM32F3xx_HAL_Driver/Inc/stm32f3xx_ll_bus.h ****   *         APB2RSTR     TIM20RST      LL_APB2_GRP1_ForceReset\n
 978:Drivers/STM32F3xx_HAL_Driver/Inc/stm32f3xx_ll_bus.h ****   *         APB2RSTR     HRTIM1RST     LL_APB2_GRP1_ForceReset\n
 979:Drivers/STM32F3xx_HAL_Driver/Inc/stm32f3xx_ll_bus.h ****   *         APB2RSTR     SDADC1RST     LL_APB2_GRP1_ForceReset\n
 980:Drivers/STM32F3xx_HAL_Driver/Inc/stm32f3xx_ll_bus.h ****   *         APB2RSTR     SDADC2RST     LL_APB2_GRP1_ForceReset\n
 981:Drivers/STM32F3xx_HAL_Driver/Inc/stm32f3xx_ll_bus.h ****   *         APB2RSTR     SDADC3RST     LL_APB2_GRP1_ForceReset
 982:Drivers/STM32F3xx_HAL_Driver/Inc/stm32f3xx_ll_bus.h ****   * @param  Periphs This parameter can be a combination of the following values:
 983:Drivers/STM32F3xx_HAL_Driver/Inc/stm32f3xx_ll_bus.h ****   *         @arg @ref LL_APB2_GRP1_PERIPH_ALL
 984:Drivers/STM32F3xx_HAL_Driver/Inc/stm32f3xx_ll_bus.h ****   *         @arg @ref LL_APB2_GRP1_PERIPH_SYSCFG
 985:Drivers/STM32F3xx_HAL_Driver/Inc/stm32f3xx_ll_bus.h ****   *         @arg @ref LL_APB2_GRP1_PERIPH_ADC1 (*)
 986:Drivers/STM32F3xx_HAL_Driver/Inc/stm32f3xx_ll_bus.h ****   *         @arg @ref LL_APB2_GRP1_PERIPH_TIM1 (*)
 987:Drivers/STM32F3xx_HAL_Driver/Inc/stm32f3xx_ll_bus.h ****   *         @arg @ref LL_APB2_GRP1_PERIPH_SPI1 (*)
 988:Drivers/STM32F3xx_HAL_Driver/Inc/stm32f3xx_ll_bus.h ****   *         @arg @ref LL_APB2_GRP1_PERIPH_TIM8 (*)
 989:Drivers/STM32F3xx_HAL_Driver/Inc/stm32f3xx_ll_bus.h ****   *         @arg @ref LL_APB2_GRP1_PERIPH_USART1
 990:Drivers/STM32F3xx_HAL_Driver/Inc/stm32f3xx_ll_bus.h ****   *         @arg @ref LL_APB2_GRP1_PERIPH_SPI4 (*)
 991:Drivers/STM32F3xx_HAL_Driver/Inc/stm32f3xx_ll_bus.h ****   *         @arg @ref LL_APB2_GRP1_PERIPH_TIM15
 992:Drivers/STM32F3xx_HAL_Driver/Inc/stm32f3xx_ll_bus.h ****   *         @arg @ref LL_APB2_GRP1_PERIPH_TIM16
 993:Drivers/STM32F3xx_HAL_Driver/Inc/stm32f3xx_ll_bus.h ****   *         @arg @ref LL_APB2_GRP1_PERIPH_TIM17
 994:Drivers/STM32F3xx_HAL_Driver/Inc/stm32f3xx_ll_bus.h ****   *         @arg @ref LL_APB2_GRP1_PERIPH_TIM19 (*)
 995:Drivers/STM32F3xx_HAL_Driver/Inc/stm32f3xx_ll_bus.h ****   *         @arg @ref LL_APB2_GRP1_PERIPH_TIM20 (*)
 996:Drivers/STM32F3xx_HAL_Driver/Inc/stm32f3xx_ll_bus.h ****   *         @arg @ref LL_APB2_GRP1_PERIPH_HRTIM1 (*)
 997:Drivers/STM32F3xx_HAL_Driver/Inc/stm32f3xx_ll_bus.h ****   *         @arg @ref LL_APB2_GRP1_PERIPH_SDADC1 (*)
 998:Drivers/STM32F3xx_HAL_Driver/Inc/stm32f3xx_ll_bus.h ****   *         @arg @ref LL_APB2_GRP1_PERIPH_SDADC2 (*)
 999:Drivers/STM32F3xx_HAL_Driver/Inc/stm32f3xx_ll_bus.h ****   *         @arg @ref LL_APB2_GRP1_PERIPH_SDADC3 (*)
1000:Drivers/STM32F3xx_HAL_Driver/Inc/stm32f3xx_ll_bus.h ****   *
1001:Drivers/STM32F3xx_HAL_Driver/Inc/stm32f3xx_ll_bus.h ****   *         (*) value not defined in all devices.
1002:Drivers/STM32F3xx_HAL_Driver/Inc/stm32f3xx_ll_bus.h ****   * @retval None
1003:Drivers/STM32F3xx_HAL_Driver/Inc/stm32f3xx_ll_bus.h **** */
1004:Drivers/STM32F3xx_HAL_Driver/Inc/stm32f3xx_ll_bus.h **** __STATIC_INLINE void LL_APB2_GRP1_ForceReset(uint32_t Periphs)
1005:Drivers/STM32F3xx_HAL_Driver/Inc/stm32f3xx_ll_bus.h **** {
 134              		.loc 1 1005 0
 135              		.cfi_startproc
 136              		@ args = 0, pretend = 0, frame = 8
 137              		@ frame_needed = 1, uses_anonymous_args = 0
 138              		@ link register save eliminated.
 139 0000 80B4     		push	{r7}
 140              	.LCFI12:
ARM GAS  /tmp/ccc5fm0Q.s 			page 21


 141              		.cfi_def_cfa_offset 4
 142              		.cfi_offset 7, -4
 143 0002 83B0     		sub	sp, sp, #12
 144              	.LCFI13:
 145              		.cfi_def_cfa_offset 16
 146 0004 00AF     		add	r7, sp, #0
 147              	.LCFI14:
 148              		.cfi_def_cfa_register 7
 149 0006 7860     		str	r0, [r7, #4]
1006:Drivers/STM32F3xx_HAL_Driver/Inc/stm32f3xx_ll_bus.h ****   SET_BIT(RCC->APB2RSTR, Periphs);
 150              		.loc 1 1006 0
 151 0008 054B     		ldr	r3, .L8
 152 000a DA68     		ldr	r2, [r3, #12]
 153 000c 0449     		ldr	r1, .L8
 154 000e 7B68     		ldr	r3, [r7, #4]
 155 0010 1343     		orrs	r3, r3, r2
 156 0012 CB60     		str	r3, [r1, #12]
1007:Drivers/STM32F3xx_HAL_Driver/Inc/stm32f3xx_ll_bus.h **** }
 157              		.loc 1 1007 0
 158 0014 00BF     		nop
 159 0016 0C37     		adds	r7, r7, #12
 160              	.LCFI15:
 161              		.cfi_def_cfa_offset 4
 162 0018 BD46     		mov	sp, r7
 163              	.LCFI16:
 164              		.cfi_def_cfa_register 13
 165              		@ sp needed
 166 001a 5DF8047B 		ldr	r7, [sp], #4
 167              	.LCFI17:
 168              		.cfi_restore 7
 169              		.cfi_def_cfa_offset 0
 170 001e 7047     		bx	lr
 171              	.L9:
 172              		.align	2
 173              	.L8:
 174 0020 00100240 		.word	1073876992
 175              		.cfi_endproc
 176              	.LFE226:
 178              		.section	.text.LL_APB2_GRP1_ReleaseReset,"ax",%progbits
 179              		.align	1
 180              		.syntax unified
 181              		.thumb
 182              		.thumb_func
 183              		.fpu fpv4-sp-d16
 185              	LL_APB2_GRP1_ReleaseReset:
 186              	.LFB227:
1008:Drivers/STM32F3xx_HAL_Driver/Inc/stm32f3xx_ll_bus.h **** 
1009:Drivers/STM32F3xx_HAL_Driver/Inc/stm32f3xx_ll_bus.h **** /**
1010:Drivers/STM32F3xx_HAL_Driver/Inc/stm32f3xx_ll_bus.h ****   * @brief  Release APB2 peripherals reset.
1011:Drivers/STM32F3xx_HAL_Driver/Inc/stm32f3xx_ll_bus.h ****   * @rmtoll APB2RSTR     SYSCFGRST     LL_APB2_GRP1_ReleaseReset\n
1012:Drivers/STM32F3xx_HAL_Driver/Inc/stm32f3xx_ll_bus.h ****   *         APB2RSTR     ADC1RST       LL_APB2_GRP1_ReleaseReset\n
1013:Drivers/STM32F3xx_HAL_Driver/Inc/stm32f3xx_ll_bus.h ****   *         APB2RSTR     TIM1RST       LL_APB2_GRP1_ReleaseReset\n
1014:Drivers/STM32F3xx_HAL_Driver/Inc/stm32f3xx_ll_bus.h ****   *         APB2RSTR     SPI1RST       LL_APB2_GRP1_ReleaseReset\n
1015:Drivers/STM32F3xx_HAL_Driver/Inc/stm32f3xx_ll_bus.h ****   *         APB2RSTR     TIM8RST       LL_APB2_GRP1_ReleaseReset\n
1016:Drivers/STM32F3xx_HAL_Driver/Inc/stm32f3xx_ll_bus.h ****   *         APB2RSTR     USART1RST     LL_APB2_GRP1_ReleaseReset\n
1017:Drivers/STM32F3xx_HAL_Driver/Inc/stm32f3xx_ll_bus.h ****   *         APB2RSTR     SPI4RST       LL_APB2_GRP1_ReleaseReset\n
1018:Drivers/STM32F3xx_HAL_Driver/Inc/stm32f3xx_ll_bus.h ****   *         APB2RSTR     TIM15RST      LL_APB2_GRP1_ReleaseReset\n
ARM GAS  /tmp/ccc5fm0Q.s 			page 22


1019:Drivers/STM32F3xx_HAL_Driver/Inc/stm32f3xx_ll_bus.h ****   *         APB2RSTR     TIM16RST      LL_APB2_GRP1_ReleaseReset\n
1020:Drivers/STM32F3xx_HAL_Driver/Inc/stm32f3xx_ll_bus.h ****   *         APB2RSTR     TIM17RST      LL_APB2_GRP1_ReleaseReset\n
1021:Drivers/STM32F3xx_HAL_Driver/Inc/stm32f3xx_ll_bus.h ****   *         APB2RSTR     TIM19RST      LL_APB2_GRP1_ReleaseReset\n
1022:Drivers/STM32F3xx_HAL_Driver/Inc/stm32f3xx_ll_bus.h ****   *         APB2RSTR     TIM20RST      LL_APB2_GRP1_ReleaseReset\n
1023:Drivers/STM32F3xx_HAL_Driver/Inc/stm32f3xx_ll_bus.h ****   *         APB2RSTR     HRTIM1RST     LL_APB2_GRP1_ReleaseReset\n
1024:Drivers/STM32F3xx_HAL_Driver/Inc/stm32f3xx_ll_bus.h ****   *         APB2RSTR     SDADC1RST     LL_APB2_GRP1_ReleaseReset\n
1025:Drivers/STM32F3xx_HAL_Driver/Inc/stm32f3xx_ll_bus.h ****   *         APB2RSTR     SDADC2RST     LL_APB2_GRP1_ReleaseReset\n
1026:Drivers/STM32F3xx_HAL_Driver/Inc/stm32f3xx_ll_bus.h ****   *         APB2RSTR     SDADC3RST     LL_APB2_GRP1_ReleaseReset
1027:Drivers/STM32F3xx_HAL_Driver/Inc/stm32f3xx_ll_bus.h ****   * @param  Periphs This parameter can be a combination of the following values:
1028:Drivers/STM32F3xx_HAL_Driver/Inc/stm32f3xx_ll_bus.h ****   *         @arg @ref LL_APB2_GRP1_PERIPH_ALL
1029:Drivers/STM32F3xx_HAL_Driver/Inc/stm32f3xx_ll_bus.h ****   *         @arg @ref LL_APB2_GRP1_PERIPH_SYSCFG
1030:Drivers/STM32F3xx_HAL_Driver/Inc/stm32f3xx_ll_bus.h ****   *         @arg @ref LL_APB2_GRP1_PERIPH_ADC1 (*)
1031:Drivers/STM32F3xx_HAL_Driver/Inc/stm32f3xx_ll_bus.h ****   *         @arg @ref LL_APB2_GRP1_PERIPH_TIM1 (*)
1032:Drivers/STM32F3xx_HAL_Driver/Inc/stm32f3xx_ll_bus.h ****   *         @arg @ref LL_APB2_GRP1_PERIPH_SPI1 (*)
1033:Drivers/STM32F3xx_HAL_Driver/Inc/stm32f3xx_ll_bus.h ****   *         @arg @ref LL_APB2_GRP1_PERIPH_TIM8 (*)
1034:Drivers/STM32F3xx_HAL_Driver/Inc/stm32f3xx_ll_bus.h ****   *         @arg @ref LL_APB2_GRP1_PERIPH_USART1
1035:Drivers/STM32F3xx_HAL_Driver/Inc/stm32f3xx_ll_bus.h ****   *         @arg @ref LL_APB2_GRP1_PERIPH_SPI4 (*)
1036:Drivers/STM32F3xx_HAL_Driver/Inc/stm32f3xx_ll_bus.h ****   *         @arg @ref LL_APB2_GRP1_PERIPH_TIM15
1037:Drivers/STM32F3xx_HAL_Driver/Inc/stm32f3xx_ll_bus.h ****   *         @arg @ref LL_APB2_GRP1_PERIPH_TIM16
1038:Drivers/STM32F3xx_HAL_Driver/Inc/stm32f3xx_ll_bus.h ****   *         @arg @ref LL_APB2_GRP1_PERIPH_TIM17
1039:Drivers/STM32F3xx_HAL_Driver/Inc/stm32f3xx_ll_bus.h ****   *         @arg @ref LL_APB2_GRP1_PERIPH_TIM19 (*)
1040:Drivers/STM32F3xx_HAL_Driver/Inc/stm32f3xx_ll_bus.h ****   *         @arg @ref LL_APB2_GRP1_PERIPH_TIM20 (*)
1041:Drivers/STM32F3xx_HAL_Driver/Inc/stm32f3xx_ll_bus.h ****   *         @arg @ref LL_APB2_GRP1_PERIPH_HRTIM1 (*)
1042:Drivers/STM32F3xx_HAL_Driver/Inc/stm32f3xx_ll_bus.h ****   *         @arg @ref LL_APB2_GRP1_PERIPH_SDADC1 (*)
1043:Drivers/STM32F3xx_HAL_Driver/Inc/stm32f3xx_ll_bus.h ****   *         @arg @ref LL_APB2_GRP1_PERIPH_SDADC2 (*)
1044:Drivers/STM32F3xx_HAL_Driver/Inc/stm32f3xx_ll_bus.h ****   *         @arg @ref LL_APB2_GRP1_PERIPH_SDADC3 (*)
1045:Drivers/STM32F3xx_HAL_Driver/Inc/stm32f3xx_ll_bus.h ****   *
1046:Drivers/STM32F3xx_HAL_Driver/Inc/stm32f3xx_ll_bus.h ****   *         (*) value not defined in all devices.
1047:Drivers/STM32F3xx_HAL_Driver/Inc/stm32f3xx_ll_bus.h ****   * @retval None
1048:Drivers/STM32F3xx_HAL_Driver/Inc/stm32f3xx_ll_bus.h **** */
1049:Drivers/STM32F3xx_HAL_Driver/Inc/stm32f3xx_ll_bus.h **** __STATIC_INLINE void LL_APB2_GRP1_ReleaseReset(uint32_t Periphs)
1050:Drivers/STM32F3xx_HAL_Driver/Inc/stm32f3xx_ll_bus.h **** {
 187              		.loc 1 1050 0
 188              		.cfi_startproc
 189              		@ args = 0, pretend = 0, frame = 8
 190              		@ frame_needed = 1, uses_anonymous_args = 0
 191              		@ link register save eliminated.
 192 0000 80B4     		push	{r7}
 193              	.LCFI18:
 194              		.cfi_def_cfa_offset 4
 195              		.cfi_offset 7, -4
 196 0002 83B0     		sub	sp, sp, #12
 197              	.LCFI19:
 198              		.cfi_def_cfa_offset 16
 199 0004 00AF     		add	r7, sp, #0
 200              	.LCFI20:
 201              		.cfi_def_cfa_register 7
 202 0006 7860     		str	r0, [r7, #4]
1051:Drivers/STM32F3xx_HAL_Driver/Inc/stm32f3xx_ll_bus.h ****   CLEAR_BIT(RCC->APB2RSTR, Periphs);
 203              		.loc 1 1051 0
 204 0008 064B     		ldr	r3, .L11
 205 000a DA68     		ldr	r2, [r3, #12]
 206 000c 7B68     		ldr	r3, [r7, #4]
 207 000e DB43     		mvns	r3, r3
 208 0010 0449     		ldr	r1, .L11
 209 0012 1340     		ands	r3, r3, r2
 210 0014 CB60     		str	r3, [r1, #12]
ARM GAS  /tmp/ccc5fm0Q.s 			page 23


1052:Drivers/STM32F3xx_HAL_Driver/Inc/stm32f3xx_ll_bus.h **** }
 211              		.loc 1 1052 0
 212 0016 00BF     		nop
 213 0018 0C37     		adds	r7, r7, #12
 214              	.LCFI21:
 215              		.cfi_def_cfa_offset 4
 216 001a BD46     		mov	sp, r7
 217              	.LCFI22:
 218              		.cfi_def_cfa_register 13
 219              		@ sp needed
 220 001c 5DF8047B 		ldr	r7, [sp], #4
 221              	.LCFI23:
 222              		.cfi_restore 7
 223              		.cfi_def_cfa_offset 0
 224 0020 7047     		bx	lr
 225              	.L12:
 226 0022 00BF     		.align	2
 227              	.L11:
 228 0024 00100240 		.word	1073876992
 229              		.cfi_endproc
 230              	.LFE227:
 232              		.section	.rodata.CHANNEL_OFFSET_TAB,"a",%progbits
 233              		.align	2
 236              	CHANNEL_OFFSET_TAB:
 237 0000 08       		.byte	8
 238 0001 1C       		.byte	28
 239 0002 30       		.byte	48
 240 0003 44       		.byte	68
 241 0004 58       		.byte	88
 242 0005 6C       		.byte	108
 243 0006 80       		.byte	-128
 244              		.section	.text.LL_USART_IsEnabled,"ax",%progbits
 245              		.align	1
 246              		.syntax unified
 247              		.thumb
 248              		.thumb_func
 249              		.fpu fpv4-sp-d16
 251              	LL_USART_IsEnabled:
 252              	.LFB488:
 253              		.file 2 "Drivers/STM32F3xx_HAL_Driver/Inc/stm32f3xx_ll_usart.h"
   1:Drivers/STM32F3xx_HAL_Driver/Inc/stm32f3xx_ll_usart.h **** /**
   2:Drivers/STM32F3xx_HAL_Driver/Inc/stm32f3xx_ll_usart.h ****   ******************************************************************************
   3:Drivers/STM32F3xx_HAL_Driver/Inc/stm32f3xx_ll_usart.h ****   * @file    stm32f3xx_ll_usart.h
   4:Drivers/STM32F3xx_HAL_Driver/Inc/stm32f3xx_ll_usart.h ****   * @author  MCD Application Team
   5:Drivers/STM32F3xx_HAL_Driver/Inc/stm32f3xx_ll_usart.h ****   * @brief   Header file of USART LL module.
   6:Drivers/STM32F3xx_HAL_Driver/Inc/stm32f3xx_ll_usart.h ****   ******************************************************************************
   7:Drivers/STM32F3xx_HAL_Driver/Inc/stm32f3xx_ll_usart.h ****   * @attention
   8:Drivers/STM32F3xx_HAL_Driver/Inc/stm32f3xx_ll_usart.h ****   *
   9:Drivers/STM32F3xx_HAL_Driver/Inc/stm32f3xx_ll_usart.h ****   * <h2><center>&copy; COPYRIGHT(c) 2016 STMicroelectronics</center></h2>
  10:Drivers/STM32F3xx_HAL_Driver/Inc/stm32f3xx_ll_usart.h ****   *
  11:Drivers/STM32F3xx_HAL_Driver/Inc/stm32f3xx_ll_usart.h ****   * Redistribution and use in source and binary forms, with or without modification,
  12:Drivers/STM32F3xx_HAL_Driver/Inc/stm32f3xx_ll_usart.h ****   * are permitted provided that the following conditions are met:
  13:Drivers/STM32F3xx_HAL_Driver/Inc/stm32f3xx_ll_usart.h ****   *   1. Redistributions of source code must retain the above copyright notice,
  14:Drivers/STM32F3xx_HAL_Driver/Inc/stm32f3xx_ll_usart.h ****   *      this list of conditions and the following disclaimer.
  15:Drivers/STM32F3xx_HAL_Driver/Inc/stm32f3xx_ll_usart.h ****   *   2. Redistributions in binary form must reproduce the above copyright notice,
  16:Drivers/STM32F3xx_HAL_Driver/Inc/stm32f3xx_ll_usart.h ****   *      this list of conditions and the following disclaimer in the documentation
  17:Drivers/STM32F3xx_HAL_Driver/Inc/stm32f3xx_ll_usart.h ****   *      and/or other materials provided with the distribution.
ARM GAS  /tmp/ccc5fm0Q.s 			page 24


  18:Drivers/STM32F3xx_HAL_Driver/Inc/stm32f3xx_ll_usart.h ****   *   3. Neither the name of STMicroelectronics nor the names of its contributors
  19:Drivers/STM32F3xx_HAL_Driver/Inc/stm32f3xx_ll_usart.h ****   *      may be used to endorse or promote products derived from this software
  20:Drivers/STM32F3xx_HAL_Driver/Inc/stm32f3xx_ll_usart.h ****   *      without specific prior written permission.
  21:Drivers/STM32F3xx_HAL_Driver/Inc/stm32f3xx_ll_usart.h ****   *
  22:Drivers/STM32F3xx_HAL_Driver/Inc/stm32f3xx_ll_usart.h ****   * THIS SOFTWARE IS PROVIDED BY THE COPYRIGHT HOLDERS AND CONTRIBUTORS "AS IS"
  23:Drivers/STM32F3xx_HAL_Driver/Inc/stm32f3xx_ll_usart.h ****   * AND ANY EXPRESS OR IMPLIED WARRANTIES, INCLUDING, BUT NOT LIMITED TO, THE
  24:Drivers/STM32F3xx_HAL_Driver/Inc/stm32f3xx_ll_usart.h ****   * IMPLIED WARRANTIES OF MERCHANTABILITY AND FITNESS FOR A PARTICULAR PURPOSE ARE
  25:Drivers/STM32F3xx_HAL_Driver/Inc/stm32f3xx_ll_usart.h ****   * DISCLAIMED. IN NO EVENT SHALL THE COPYRIGHT HOLDER OR CONTRIBUTORS BE LIABLE
  26:Drivers/STM32F3xx_HAL_Driver/Inc/stm32f3xx_ll_usart.h ****   * FOR ANY DIRECT, INDIRECT, INCIDENTAL, SPECIAL, EXEMPLARY, OR CONSEQUENTIAL
  27:Drivers/STM32F3xx_HAL_Driver/Inc/stm32f3xx_ll_usart.h ****   * DAMAGES (INCLUDING, BUT NOT LIMITED TO, PROCUREMENT OF SUBSTITUTE GOODS OR
  28:Drivers/STM32F3xx_HAL_Driver/Inc/stm32f3xx_ll_usart.h ****   * SERVICES; LOSS OF USE, DATA, OR PROFITS; OR BUSINESS INTERRUPTION) HOWEVER
  29:Drivers/STM32F3xx_HAL_Driver/Inc/stm32f3xx_ll_usart.h ****   * CAUSED AND ON ANY THEORY OF LIABILITY, WHETHER IN CONTRACT, STRICT LIABILITY,
  30:Drivers/STM32F3xx_HAL_Driver/Inc/stm32f3xx_ll_usart.h ****   * OR TORT (INCLUDING NEGLIGENCE OR OTHERWISE) ARISING IN ANY WAY OUT OF THE USE
  31:Drivers/STM32F3xx_HAL_Driver/Inc/stm32f3xx_ll_usart.h ****   * OF THIS SOFTWARE, EVEN IF ADVISED OF THE POSSIBILITY OF SUCH DAMAGE.
  32:Drivers/STM32F3xx_HAL_Driver/Inc/stm32f3xx_ll_usart.h ****   *
  33:Drivers/STM32F3xx_HAL_Driver/Inc/stm32f3xx_ll_usart.h ****   ******************************************************************************
  34:Drivers/STM32F3xx_HAL_Driver/Inc/stm32f3xx_ll_usart.h ****   */
  35:Drivers/STM32F3xx_HAL_Driver/Inc/stm32f3xx_ll_usart.h **** 
  36:Drivers/STM32F3xx_HAL_Driver/Inc/stm32f3xx_ll_usart.h **** /* Define to prevent recursive inclusion -------------------------------------*/
  37:Drivers/STM32F3xx_HAL_Driver/Inc/stm32f3xx_ll_usart.h **** #ifndef __STM32F3xx_LL_USART_H
  38:Drivers/STM32F3xx_HAL_Driver/Inc/stm32f3xx_ll_usart.h **** #define __STM32F3xx_LL_USART_H
  39:Drivers/STM32F3xx_HAL_Driver/Inc/stm32f3xx_ll_usart.h **** 
  40:Drivers/STM32F3xx_HAL_Driver/Inc/stm32f3xx_ll_usart.h **** #ifdef __cplusplus
  41:Drivers/STM32F3xx_HAL_Driver/Inc/stm32f3xx_ll_usart.h **** extern "C" {
  42:Drivers/STM32F3xx_HAL_Driver/Inc/stm32f3xx_ll_usart.h **** #endif
  43:Drivers/STM32F3xx_HAL_Driver/Inc/stm32f3xx_ll_usart.h **** 
  44:Drivers/STM32F3xx_HAL_Driver/Inc/stm32f3xx_ll_usart.h **** /* Includes ------------------------------------------------------------------*/
  45:Drivers/STM32F3xx_HAL_Driver/Inc/stm32f3xx_ll_usart.h **** #include "stm32f3xx.h"
  46:Drivers/STM32F3xx_HAL_Driver/Inc/stm32f3xx_ll_usart.h **** 
  47:Drivers/STM32F3xx_HAL_Driver/Inc/stm32f3xx_ll_usart.h **** /** @addtogroup STM32F3xx_LL_Driver
  48:Drivers/STM32F3xx_HAL_Driver/Inc/stm32f3xx_ll_usart.h ****   * @{
  49:Drivers/STM32F3xx_HAL_Driver/Inc/stm32f3xx_ll_usart.h ****   */
  50:Drivers/STM32F3xx_HAL_Driver/Inc/stm32f3xx_ll_usart.h **** 
  51:Drivers/STM32F3xx_HAL_Driver/Inc/stm32f3xx_ll_usart.h **** #if defined (USART1) || defined (USART2) || defined (USART3) || defined (UART4) || defined (UART5)
  52:Drivers/STM32F3xx_HAL_Driver/Inc/stm32f3xx_ll_usart.h **** 
  53:Drivers/STM32F3xx_HAL_Driver/Inc/stm32f3xx_ll_usart.h **** /** @defgroup USART_LL USART
  54:Drivers/STM32F3xx_HAL_Driver/Inc/stm32f3xx_ll_usart.h ****   * @{
  55:Drivers/STM32F3xx_HAL_Driver/Inc/stm32f3xx_ll_usart.h ****   */
  56:Drivers/STM32F3xx_HAL_Driver/Inc/stm32f3xx_ll_usart.h **** 
  57:Drivers/STM32F3xx_HAL_Driver/Inc/stm32f3xx_ll_usart.h **** /* Private types -------------------------------------------------------------*/
  58:Drivers/STM32F3xx_HAL_Driver/Inc/stm32f3xx_ll_usart.h **** /* Private variables ---------------------------------------------------------*/
  59:Drivers/STM32F3xx_HAL_Driver/Inc/stm32f3xx_ll_usart.h **** 
  60:Drivers/STM32F3xx_HAL_Driver/Inc/stm32f3xx_ll_usart.h **** /* Private constants ---------------------------------------------------------*/
  61:Drivers/STM32F3xx_HAL_Driver/Inc/stm32f3xx_ll_usart.h **** /** @defgroup USART_LL_Private_Constants USART Private Constants
  62:Drivers/STM32F3xx_HAL_Driver/Inc/stm32f3xx_ll_usart.h ****   * @{
  63:Drivers/STM32F3xx_HAL_Driver/Inc/stm32f3xx_ll_usart.h ****   */
  64:Drivers/STM32F3xx_HAL_Driver/Inc/stm32f3xx_ll_usart.h **** /**
  65:Drivers/STM32F3xx_HAL_Driver/Inc/stm32f3xx_ll_usart.h ****   * @}
  66:Drivers/STM32F3xx_HAL_Driver/Inc/stm32f3xx_ll_usart.h ****   */
  67:Drivers/STM32F3xx_HAL_Driver/Inc/stm32f3xx_ll_usart.h **** 
  68:Drivers/STM32F3xx_HAL_Driver/Inc/stm32f3xx_ll_usart.h **** /* Private macros ------------------------------------------------------------*/
  69:Drivers/STM32F3xx_HAL_Driver/Inc/stm32f3xx_ll_usart.h **** #if defined(USE_FULL_LL_DRIVER)
  70:Drivers/STM32F3xx_HAL_Driver/Inc/stm32f3xx_ll_usart.h **** /** @defgroup USART_LL_Private_Macros USART Private Macros
  71:Drivers/STM32F3xx_HAL_Driver/Inc/stm32f3xx_ll_usart.h ****   * @{
  72:Drivers/STM32F3xx_HAL_Driver/Inc/stm32f3xx_ll_usart.h ****   */
  73:Drivers/STM32F3xx_HAL_Driver/Inc/stm32f3xx_ll_usart.h **** /**
  74:Drivers/STM32F3xx_HAL_Driver/Inc/stm32f3xx_ll_usart.h ****   * @}
ARM GAS  /tmp/ccc5fm0Q.s 			page 25


  75:Drivers/STM32F3xx_HAL_Driver/Inc/stm32f3xx_ll_usart.h ****   */
  76:Drivers/STM32F3xx_HAL_Driver/Inc/stm32f3xx_ll_usart.h **** #endif /*USE_FULL_LL_DRIVER*/
  77:Drivers/STM32F3xx_HAL_Driver/Inc/stm32f3xx_ll_usart.h **** 
  78:Drivers/STM32F3xx_HAL_Driver/Inc/stm32f3xx_ll_usart.h **** /* Exported types ------------------------------------------------------------*/
  79:Drivers/STM32F3xx_HAL_Driver/Inc/stm32f3xx_ll_usart.h **** #if defined(USE_FULL_LL_DRIVER)
  80:Drivers/STM32F3xx_HAL_Driver/Inc/stm32f3xx_ll_usart.h **** /** @defgroup USART_LL_ES_INIT USART Exported Init structures
  81:Drivers/STM32F3xx_HAL_Driver/Inc/stm32f3xx_ll_usart.h ****   * @{
  82:Drivers/STM32F3xx_HAL_Driver/Inc/stm32f3xx_ll_usart.h ****   */
  83:Drivers/STM32F3xx_HAL_Driver/Inc/stm32f3xx_ll_usart.h **** 
  84:Drivers/STM32F3xx_HAL_Driver/Inc/stm32f3xx_ll_usart.h **** /**
  85:Drivers/STM32F3xx_HAL_Driver/Inc/stm32f3xx_ll_usart.h ****   * @brief LL USART Init Structure definition
  86:Drivers/STM32F3xx_HAL_Driver/Inc/stm32f3xx_ll_usart.h ****   */
  87:Drivers/STM32F3xx_HAL_Driver/Inc/stm32f3xx_ll_usart.h **** typedef struct
  88:Drivers/STM32F3xx_HAL_Driver/Inc/stm32f3xx_ll_usart.h **** {
  89:Drivers/STM32F3xx_HAL_Driver/Inc/stm32f3xx_ll_usart.h ****   uint32_t BaudRate;                  /*!< This field defines expected Usart communication baud rat
  90:Drivers/STM32F3xx_HAL_Driver/Inc/stm32f3xx_ll_usart.h **** 
  91:Drivers/STM32F3xx_HAL_Driver/Inc/stm32f3xx_ll_usart.h ****                                            This feature can be modified afterwards using unitary fu
  92:Drivers/STM32F3xx_HAL_Driver/Inc/stm32f3xx_ll_usart.h **** 
  93:Drivers/STM32F3xx_HAL_Driver/Inc/stm32f3xx_ll_usart.h ****   uint32_t DataWidth;                 /*!< Specifies the number of data bits transmitted or receive
  94:Drivers/STM32F3xx_HAL_Driver/Inc/stm32f3xx_ll_usart.h ****                                            This parameter can be a value of @ref USART_LL_EC_DATAWI
  95:Drivers/STM32F3xx_HAL_Driver/Inc/stm32f3xx_ll_usart.h **** 
  96:Drivers/STM32F3xx_HAL_Driver/Inc/stm32f3xx_ll_usart.h ****                                            This feature can be modified afterwards using unitary fu
  97:Drivers/STM32F3xx_HAL_Driver/Inc/stm32f3xx_ll_usart.h **** 
  98:Drivers/STM32F3xx_HAL_Driver/Inc/stm32f3xx_ll_usart.h ****   uint32_t StopBits;                  /*!< Specifies the number of stop bits transmitted.
  99:Drivers/STM32F3xx_HAL_Driver/Inc/stm32f3xx_ll_usart.h ****                                            This parameter can be a value of @ref USART_LL_EC_STOPBI
 100:Drivers/STM32F3xx_HAL_Driver/Inc/stm32f3xx_ll_usart.h **** 
 101:Drivers/STM32F3xx_HAL_Driver/Inc/stm32f3xx_ll_usart.h ****                                            This feature can be modified afterwards using unitary fu
 102:Drivers/STM32F3xx_HAL_Driver/Inc/stm32f3xx_ll_usart.h **** 
 103:Drivers/STM32F3xx_HAL_Driver/Inc/stm32f3xx_ll_usart.h ****   uint32_t Parity;                    /*!< Specifies the parity mode.
 104:Drivers/STM32F3xx_HAL_Driver/Inc/stm32f3xx_ll_usart.h ****                                            This parameter can be a value of @ref USART_LL_EC_PARITY
 105:Drivers/STM32F3xx_HAL_Driver/Inc/stm32f3xx_ll_usart.h **** 
 106:Drivers/STM32F3xx_HAL_Driver/Inc/stm32f3xx_ll_usart.h ****                                            This feature can be modified afterwards using unitary fu
 107:Drivers/STM32F3xx_HAL_Driver/Inc/stm32f3xx_ll_usart.h **** 
 108:Drivers/STM32F3xx_HAL_Driver/Inc/stm32f3xx_ll_usart.h ****   uint32_t TransferDirection;         /*!< Specifies whether the Receive and/or Transmit mode is en
 109:Drivers/STM32F3xx_HAL_Driver/Inc/stm32f3xx_ll_usart.h ****                                            This parameter can be a value of @ref USART_LL_EC_DIRECT
 110:Drivers/STM32F3xx_HAL_Driver/Inc/stm32f3xx_ll_usart.h **** 
 111:Drivers/STM32F3xx_HAL_Driver/Inc/stm32f3xx_ll_usart.h ****                                            This feature can be modified afterwards using unitary fu
 112:Drivers/STM32F3xx_HAL_Driver/Inc/stm32f3xx_ll_usart.h **** 
 113:Drivers/STM32F3xx_HAL_Driver/Inc/stm32f3xx_ll_usart.h ****   uint32_t HardwareFlowControl;       /*!< Specifies whether the hardware flow control mode is enab
 114:Drivers/STM32F3xx_HAL_Driver/Inc/stm32f3xx_ll_usart.h ****                                            This parameter can be a value of @ref USART_LL_EC_HWCONT
 115:Drivers/STM32F3xx_HAL_Driver/Inc/stm32f3xx_ll_usart.h **** 
 116:Drivers/STM32F3xx_HAL_Driver/Inc/stm32f3xx_ll_usart.h ****                                            This feature can be modified afterwards using unitary fu
 117:Drivers/STM32F3xx_HAL_Driver/Inc/stm32f3xx_ll_usart.h **** 
 118:Drivers/STM32F3xx_HAL_Driver/Inc/stm32f3xx_ll_usart.h ****   uint32_t OverSampling;              /*!< Specifies whether USART oversampling mode is 16 or 8.
 119:Drivers/STM32F3xx_HAL_Driver/Inc/stm32f3xx_ll_usart.h ****                                            This parameter can be a value of @ref USART_LL_EC_OVERSA
 120:Drivers/STM32F3xx_HAL_Driver/Inc/stm32f3xx_ll_usart.h **** 
 121:Drivers/STM32F3xx_HAL_Driver/Inc/stm32f3xx_ll_usart.h ****                                            This feature can be modified afterwards using unitary fu
 122:Drivers/STM32F3xx_HAL_Driver/Inc/stm32f3xx_ll_usart.h **** 
 123:Drivers/STM32F3xx_HAL_Driver/Inc/stm32f3xx_ll_usart.h **** } LL_USART_InitTypeDef;
 124:Drivers/STM32F3xx_HAL_Driver/Inc/stm32f3xx_ll_usart.h **** 
 125:Drivers/STM32F3xx_HAL_Driver/Inc/stm32f3xx_ll_usart.h **** /**
 126:Drivers/STM32F3xx_HAL_Driver/Inc/stm32f3xx_ll_usart.h ****   * @brief LL USART Clock Init Structure definition
 127:Drivers/STM32F3xx_HAL_Driver/Inc/stm32f3xx_ll_usart.h ****   */
 128:Drivers/STM32F3xx_HAL_Driver/Inc/stm32f3xx_ll_usart.h **** typedef struct
 129:Drivers/STM32F3xx_HAL_Driver/Inc/stm32f3xx_ll_usart.h **** {
 130:Drivers/STM32F3xx_HAL_Driver/Inc/stm32f3xx_ll_usart.h ****   uint32_t ClockOutput;               /*!< Specifies whether the USART clock is enabled or disabled
 131:Drivers/STM32F3xx_HAL_Driver/Inc/stm32f3xx_ll_usart.h ****                                            This parameter can be a value of @ref USART_LL_EC_CLOCK.
ARM GAS  /tmp/ccc5fm0Q.s 			page 26


 132:Drivers/STM32F3xx_HAL_Driver/Inc/stm32f3xx_ll_usart.h **** 
 133:Drivers/STM32F3xx_HAL_Driver/Inc/stm32f3xx_ll_usart.h ****                                            USART HW configuration can be modified afterwards using 
 134:Drivers/STM32F3xx_HAL_Driver/Inc/stm32f3xx_ll_usart.h ****                                            @ref LL_USART_EnableSCLKOutput() or @ref LL_USART_Disabl
 135:Drivers/STM32F3xx_HAL_Driver/Inc/stm32f3xx_ll_usart.h ****                                            For more details, refer to description of this function.
 136:Drivers/STM32F3xx_HAL_Driver/Inc/stm32f3xx_ll_usart.h **** 
 137:Drivers/STM32F3xx_HAL_Driver/Inc/stm32f3xx_ll_usart.h ****   uint32_t ClockPolarity;             /*!< Specifies the steady state of the serial clock.
 138:Drivers/STM32F3xx_HAL_Driver/Inc/stm32f3xx_ll_usart.h ****                                            This parameter can be a value of @ref USART_LL_EC_POLARI
 139:Drivers/STM32F3xx_HAL_Driver/Inc/stm32f3xx_ll_usart.h **** 
 140:Drivers/STM32F3xx_HAL_Driver/Inc/stm32f3xx_ll_usart.h ****                                            USART HW configuration can be modified afterwards using 
 141:Drivers/STM32F3xx_HAL_Driver/Inc/stm32f3xx_ll_usart.h ****                                            For more details, refer to description of this function.
 142:Drivers/STM32F3xx_HAL_Driver/Inc/stm32f3xx_ll_usart.h **** 
 143:Drivers/STM32F3xx_HAL_Driver/Inc/stm32f3xx_ll_usart.h ****   uint32_t ClockPhase;                /*!< Specifies the clock transition on which the bit capture 
 144:Drivers/STM32F3xx_HAL_Driver/Inc/stm32f3xx_ll_usart.h ****                                            This parameter can be a value of @ref USART_LL_EC_PHASE.
 145:Drivers/STM32F3xx_HAL_Driver/Inc/stm32f3xx_ll_usart.h **** 
 146:Drivers/STM32F3xx_HAL_Driver/Inc/stm32f3xx_ll_usart.h ****                                            USART HW configuration can be modified afterwards using 
 147:Drivers/STM32F3xx_HAL_Driver/Inc/stm32f3xx_ll_usart.h ****                                            For more details, refer to description of this function.
 148:Drivers/STM32F3xx_HAL_Driver/Inc/stm32f3xx_ll_usart.h **** 
 149:Drivers/STM32F3xx_HAL_Driver/Inc/stm32f3xx_ll_usart.h ****   uint32_t LastBitClockPulse;         /*!< Specifies whether the clock pulse corresponding to the l
 150:Drivers/STM32F3xx_HAL_Driver/Inc/stm32f3xx_ll_usart.h ****                                            data bit (MSB) has to be output on the SCLK pin in synch
 151:Drivers/STM32F3xx_HAL_Driver/Inc/stm32f3xx_ll_usart.h ****                                            This parameter can be a value of @ref USART_LL_EC_LASTCL
 152:Drivers/STM32F3xx_HAL_Driver/Inc/stm32f3xx_ll_usart.h **** 
 153:Drivers/STM32F3xx_HAL_Driver/Inc/stm32f3xx_ll_usart.h ****                                            USART HW configuration can be modified afterwards using 
 154:Drivers/STM32F3xx_HAL_Driver/Inc/stm32f3xx_ll_usart.h ****                                            For more details, refer to description of this function.
 155:Drivers/STM32F3xx_HAL_Driver/Inc/stm32f3xx_ll_usart.h **** 
 156:Drivers/STM32F3xx_HAL_Driver/Inc/stm32f3xx_ll_usart.h **** } LL_USART_ClockInitTypeDef;
 157:Drivers/STM32F3xx_HAL_Driver/Inc/stm32f3xx_ll_usart.h **** 
 158:Drivers/STM32F3xx_HAL_Driver/Inc/stm32f3xx_ll_usart.h **** /**
 159:Drivers/STM32F3xx_HAL_Driver/Inc/stm32f3xx_ll_usart.h ****   * @}
 160:Drivers/STM32F3xx_HAL_Driver/Inc/stm32f3xx_ll_usart.h ****   */
 161:Drivers/STM32F3xx_HAL_Driver/Inc/stm32f3xx_ll_usart.h **** #endif /* USE_FULL_LL_DRIVER */
 162:Drivers/STM32F3xx_HAL_Driver/Inc/stm32f3xx_ll_usart.h **** 
 163:Drivers/STM32F3xx_HAL_Driver/Inc/stm32f3xx_ll_usart.h **** /* Exported constants --------------------------------------------------------*/
 164:Drivers/STM32F3xx_HAL_Driver/Inc/stm32f3xx_ll_usart.h **** /** @defgroup USART_LL_Exported_Constants USART Exported Constants
 165:Drivers/STM32F3xx_HAL_Driver/Inc/stm32f3xx_ll_usart.h ****   * @{
 166:Drivers/STM32F3xx_HAL_Driver/Inc/stm32f3xx_ll_usart.h ****   */
 167:Drivers/STM32F3xx_HAL_Driver/Inc/stm32f3xx_ll_usart.h **** 
 168:Drivers/STM32F3xx_HAL_Driver/Inc/stm32f3xx_ll_usart.h **** /** @defgroup USART_LL_EC_CLEAR_FLAG Clear Flags Defines
 169:Drivers/STM32F3xx_HAL_Driver/Inc/stm32f3xx_ll_usart.h ****   * @brief    Flags defines which can be used with LL_USART_WriteReg function
 170:Drivers/STM32F3xx_HAL_Driver/Inc/stm32f3xx_ll_usart.h ****   * @{
 171:Drivers/STM32F3xx_HAL_Driver/Inc/stm32f3xx_ll_usart.h ****   */
 172:Drivers/STM32F3xx_HAL_Driver/Inc/stm32f3xx_ll_usart.h **** #define LL_USART_ICR_PECF                       USART_ICR_PECF                /*!< Parity error fla
 173:Drivers/STM32F3xx_HAL_Driver/Inc/stm32f3xx_ll_usart.h **** #define LL_USART_ICR_FECF                       USART_ICR_FECF                /*!< Framing error fl
 174:Drivers/STM32F3xx_HAL_Driver/Inc/stm32f3xx_ll_usart.h **** #define LL_USART_ICR_NCF                        USART_ICR_NCF                 /*!< Noise detected f
 175:Drivers/STM32F3xx_HAL_Driver/Inc/stm32f3xx_ll_usart.h **** #define LL_USART_ICR_ORECF                      USART_ICR_ORECF               /*!< Overrun error fl
 176:Drivers/STM32F3xx_HAL_Driver/Inc/stm32f3xx_ll_usart.h **** #define LL_USART_ICR_IDLECF                     USART_ICR_IDLECF              /*!< Idle line detect
 177:Drivers/STM32F3xx_HAL_Driver/Inc/stm32f3xx_ll_usart.h **** #define LL_USART_ICR_TCCF                       USART_ICR_TCCF                /*!< Transmission com
 178:Drivers/STM32F3xx_HAL_Driver/Inc/stm32f3xx_ll_usart.h **** #define LL_USART_ICR_LBDCF                      USART_ICR_LBDCF               /*!< LIN break detect
 179:Drivers/STM32F3xx_HAL_Driver/Inc/stm32f3xx_ll_usart.h **** #define LL_USART_ICR_CTSCF                      USART_ICR_CTSCF               /*!< CTS flag */
 180:Drivers/STM32F3xx_HAL_Driver/Inc/stm32f3xx_ll_usart.h **** #define LL_USART_ICR_RTOCF                      USART_ICR_RTOCF               /*!< Receiver timeout
 181:Drivers/STM32F3xx_HAL_Driver/Inc/stm32f3xx_ll_usart.h **** #define LL_USART_ICR_EOBCF                      USART_ICR_EOBCF               /*!< End of block fla
 182:Drivers/STM32F3xx_HAL_Driver/Inc/stm32f3xx_ll_usart.h **** #define LL_USART_ICR_CMCF                       USART_ICR_CMCF                /*!< Character match 
 183:Drivers/STM32F3xx_HAL_Driver/Inc/stm32f3xx_ll_usart.h **** #define LL_USART_ICR_WUCF                       USART_ICR_WUCF                /*!< Wakeup from Stop
 184:Drivers/STM32F3xx_HAL_Driver/Inc/stm32f3xx_ll_usart.h **** /**
 185:Drivers/STM32F3xx_HAL_Driver/Inc/stm32f3xx_ll_usart.h ****   * @}
 186:Drivers/STM32F3xx_HAL_Driver/Inc/stm32f3xx_ll_usart.h ****   */
 187:Drivers/STM32F3xx_HAL_Driver/Inc/stm32f3xx_ll_usart.h **** 
 188:Drivers/STM32F3xx_HAL_Driver/Inc/stm32f3xx_ll_usart.h **** /** @defgroup USART_LL_EC_GET_FLAG Get Flags Defines
ARM GAS  /tmp/ccc5fm0Q.s 			page 27


 189:Drivers/STM32F3xx_HAL_Driver/Inc/stm32f3xx_ll_usart.h ****   * @brief    Flags defines which can be used with LL_USART_ReadReg function
 190:Drivers/STM32F3xx_HAL_Driver/Inc/stm32f3xx_ll_usart.h ****   * @{
 191:Drivers/STM32F3xx_HAL_Driver/Inc/stm32f3xx_ll_usart.h ****   */
 192:Drivers/STM32F3xx_HAL_Driver/Inc/stm32f3xx_ll_usart.h **** #define LL_USART_ISR_PE                         USART_ISR_PE                  /*!< Parity error fla
 193:Drivers/STM32F3xx_HAL_Driver/Inc/stm32f3xx_ll_usart.h **** #define LL_USART_ISR_FE                         USART_ISR_FE                  /*!< Framing error fl
 194:Drivers/STM32F3xx_HAL_Driver/Inc/stm32f3xx_ll_usart.h **** #define LL_USART_ISR_NE                         USART_ISR_NE                  /*!< Noise detected f
 195:Drivers/STM32F3xx_HAL_Driver/Inc/stm32f3xx_ll_usart.h **** #define LL_USART_ISR_ORE                        USART_ISR_ORE                 /*!< Overrun error fl
 196:Drivers/STM32F3xx_HAL_Driver/Inc/stm32f3xx_ll_usart.h **** #define LL_USART_ISR_IDLE                       USART_ISR_IDLE                /*!< Idle line detect
 197:Drivers/STM32F3xx_HAL_Driver/Inc/stm32f3xx_ll_usart.h **** #define LL_USART_ISR_RXNE                       USART_ISR_RXNE                /*!< Read data regist
 198:Drivers/STM32F3xx_HAL_Driver/Inc/stm32f3xx_ll_usart.h **** #define LL_USART_ISR_TC                         USART_ISR_TC                  /*!< Transmission com
 199:Drivers/STM32F3xx_HAL_Driver/Inc/stm32f3xx_ll_usart.h **** #define LL_USART_ISR_TXE                        USART_ISR_TXE                 /*!< Transmit data re
 200:Drivers/STM32F3xx_HAL_Driver/Inc/stm32f3xx_ll_usart.h **** #define LL_USART_ISR_LBDF                       USART_ISR_LBDF                /*!< LIN break detect
 201:Drivers/STM32F3xx_HAL_Driver/Inc/stm32f3xx_ll_usart.h **** #define LL_USART_ISR_CTSIF                      USART_ISR_CTSIF               /*!< CTS interrupt fl
 202:Drivers/STM32F3xx_HAL_Driver/Inc/stm32f3xx_ll_usart.h **** #define LL_USART_ISR_CTS                        USART_ISR_CTS                 /*!< CTS flag */
 203:Drivers/STM32F3xx_HAL_Driver/Inc/stm32f3xx_ll_usart.h **** #define LL_USART_ISR_RTOF                       USART_ISR_RTOF                /*!< Receiver timeout
 204:Drivers/STM32F3xx_HAL_Driver/Inc/stm32f3xx_ll_usart.h **** #define LL_USART_ISR_EOBF                       USART_ISR_EOBF                /*!< End of block fla
 205:Drivers/STM32F3xx_HAL_Driver/Inc/stm32f3xx_ll_usart.h **** #define LL_USART_ISR_ABRE                       USART_ISR_ABRE                /*!< Auto baud rate e
 206:Drivers/STM32F3xx_HAL_Driver/Inc/stm32f3xx_ll_usart.h **** #define LL_USART_ISR_ABRF                       USART_ISR_ABRF                /*!< Auto baud rate f
 207:Drivers/STM32F3xx_HAL_Driver/Inc/stm32f3xx_ll_usart.h **** #define LL_USART_ISR_BUSY                       USART_ISR_BUSY                /*!< Busy flag */
 208:Drivers/STM32F3xx_HAL_Driver/Inc/stm32f3xx_ll_usart.h **** #define LL_USART_ISR_CMF                        USART_ISR_CMF                 /*!< Character match 
 209:Drivers/STM32F3xx_HAL_Driver/Inc/stm32f3xx_ll_usart.h **** #define LL_USART_ISR_SBKF                       USART_ISR_SBKF                /*!< Send break flag 
 210:Drivers/STM32F3xx_HAL_Driver/Inc/stm32f3xx_ll_usart.h **** #define LL_USART_ISR_RWU                        USART_ISR_RWU                 /*!< Receiver wakeup 
 211:Drivers/STM32F3xx_HAL_Driver/Inc/stm32f3xx_ll_usart.h **** #define LL_USART_ISR_WUF                        USART_ISR_WUF                 /*!< Wakeup from Stop
 212:Drivers/STM32F3xx_HAL_Driver/Inc/stm32f3xx_ll_usart.h **** #define LL_USART_ISR_TEACK                      USART_ISR_TEACK               /*!< Transmit enable 
 213:Drivers/STM32F3xx_HAL_Driver/Inc/stm32f3xx_ll_usart.h **** #define LL_USART_ISR_REACK                      USART_ISR_REACK               /*!< Receive enable a
 214:Drivers/STM32F3xx_HAL_Driver/Inc/stm32f3xx_ll_usart.h **** /**
 215:Drivers/STM32F3xx_HAL_Driver/Inc/stm32f3xx_ll_usart.h ****   * @}
 216:Drivers/STM32F3xx_HAL_Driver/Inc/stm32f3xx_ll_usart.h ****   */
 217:Drivers/STM32F3xx_HAL_Driver/Inc/stm32f3xx_ll_usart.h **** 
 218:Drivers/STM32F3xx_HAL_Driver/Inc/stm32f3xx_ll_usart.h **** /** @defgroup USART_LL_EC_IT IT Defines
 219:Drivers/STM32F3xx_HAL_Driver/Inc/stm32f3xx_ll_usart.h ****   * @brief    IT defines which can be used with LL_USART_ReadReg and  LL_USART_WriteReg functions
 220:Drivers/STM32F3xx_HAL_Driver/Inc/stm32f3xx_ll_usart.h ****   * @{
 221:Drivers/STM32F3xx_HAL_Driver/Inc/stm32f3xx_ll_usart.h ****   */
 222:Drivers/STM32F3xx_HAL_Driver/Inc/stm32f3xx_ll_usart.h **** #define LL_USART_CR1_IDLEIE                     USART_CR1_IDLEIE              /*!< IDLE interrupt e
 223:Drivers/STM32F3xx_HAL_Driver/Inc/stm32f3xx_ll_usart.h **** #define LL_USART_CR1_RXNEIE                     USART_CR1_RXNEIE              /*!< Read data regist
 224:Drivers/STM32F3xx_HAL_Driver/Inc/stm32f3xx_ll_usart.h **** #define LL_USART_CR1_TCIE                       USART_CR1_TCIE                /*!< Transmission com
 225:Drivers/STM32F3xx_HAL_Driver/Inc/stm32f3xx_ll_usart.h **** #define LL_USART_CR1_TXEIE                      USART_CR1_TXEIE               /*!< Transmit data re
 226:Drivers/STM32F3xx_HAL_Driver/Inc/stm32f3xx_ll_usart.h **** #define LL_USART_CR1_PEIE                       USART_CR1_PEIE                /*!< Parity error */
 227:Drivers/STM32F3xx_HAL_Driver/Inc/stm32f3xx_ll_usart.h **** #define LL_USART_CR1_CMIE                       USART_CR1_CMIE                /*!< Character match 
 228:Drivers/STM32F3xx_HAL_Driver/Inc/stm32f3xx_ll_usart.h **** #define LL_USART_CR1_RTOIE                      USART_CR1_RTOIE               /*!< Receiver timeout
 229:Drivers/STM32F3xx_HAL_Driver/Inc/stm32f3xx_ll_usart.h **** #define LL_USART_CR1_EOBIE                      USART_CR1_EOBIE               /*!< End of Block int
 230:Drivers/STM32F3xx_HAL_Driver/Inc/stm32f3xx_ll_usart.h **** #define LL_USART_CR2_LBDIE                      USART_CR2_LBDIE               /*!< LIN break detect
 231:Drivers/STM32F3xx_HAL_Driver/Inc/stm32f3xx_ll_usart.h **** #define LL_USART_CR3_EIE                        USART_CR3_EIE                 /*!< Error interrupt 
 232:Drivers/STM32F3xx_HAL_Driver/Inc/stm32f3xx_ll_usart.h **** #define LL_USART_CR3_CTSIE                      USART_CR3_CTSIE               /*!< CTS interrupt en
 233:Drivers/STM32F3xx_HAL_Driver/Inc/stm32f3xx_ll_usart.h **** #define LL_USART_CR3_WUFIE                      USART_CR3_WUFIE               /*!< Wakeup from Stop
 234:Drivers/STM32F3xx_HAL_Driver/Inc/stm32f3xx_ll_usart.h **** /**
 235:Drivers/STM32F3xx_HAL_Driver/Inc/stm32f3xx_ll_usart.h ****   * @}
 236:Drivers/STM32F3xx_HAL_Driver/Inc/stm32f3xx_ll_usart.h ****   */
 237:Drivers/STM32F3xx_HAL_Driver/Inc/stm32f3xx_ll_usart.h **** 
 238:Drivers/STM32F3xx_HAL_Driver/Inc/stm32f3xx_ll_usart.h **** /** @defgroup USART_LL_EC_DIRECTION Communication Direction
 239:Drivers/STM32F3xx_HAL_Driver/Inc/stm32f3xx_ll_usart.h ****   * @{
 240:Drivers/STM32F3xx_HAL_Driver/Inc/stm32f3xx_ll_usart.h ****   */
 241:Drivers/STM32F3xx_HAL_Driver/Inc/stm32f3xx_ll_usart.h **** #define LL_USART_DIRECTION_NONE                 0x00000000U                        /*!< Transmitter
 242:Drivers/STM32F3xx_HAL_Driver/Inc/stm32f3xx_ll_usart.h **** #define LL_USART_DIRECTION_RX                   USART_CR1_RE                       /*!< Transmitter
 243:Drivers/STM32F3xx_HAL_Driver/Inc/stm32f3xx_ll_usart.h **** #define LL_USART_DIRECTION_TX                   USART_CR1_TE                       /*!< Transmitter
 244:Drivers/STM32F3xx_HAL_Driver/Inc/stm32f3xx_ll_usart.h **** #define LL_USART_DIRECTION_TX_RX                (USART_CR1_TE |USART_CR1_RE)       /*!< Transmitter
 245:Drivers/STM32F3xx_HAL_Driver/Inc/stm32f3xx_ll_usart.h **** /**
ARM GAS  /tmp/ccc5fm0Q.s 			page 28


 246:Drivers/STM32F3xx_HAL_Driver/Inc/stm32f3xx_ll_usart.h ****   * @}
 247:Drivers/STM32F3xx_HAL_Driver/Inc/stm32f3xx_ll_usart.h ****   */
 248:Drivers/STM32F3xx_HAL_Driver/Inc/stm32f3xx_ll_usart.h **** 
 249:Drivers/STM32F3xx_HAL_Driver/Inc/stm32f3xx_ll_usart.h **** /** @defgroup USART_LL_EC_PARITY Parity Control
 250:Drivers/STM32F3xx_HAL_Driver/Inc/stm32f3xx_ll_usart.h ****   * @{
 251:Drivers/STM32F3xx_HAL_Driver/Inc/stm32f3xx_ll_usart.h ****   */
 252:Drivers/STM32F3xx_HAL_Driver/Inc/stm32f3xx_ll_usart.h **** #define LL_USART_PARITY_NONE                    0x00000000U                          /*!< Parity co
 253:Drivers/STM32F3xx_HAL_Driver/Inc/stm32f3xx_ll_usart.h **** #define LL_USART_PARITY_EVEN                    USART_CR1_PCE                        /*!< Parity co
 254:Drivers/STM32F3xx_HAL_Driver/Inc/stm32f3xx_ll_usart.h **** #define LL_USART_PARITY_ODD                     (USART_CR1_PCE | USART_CR1_PS)       /*!< Parity co
 255:Drivers/STM32F3xx_HAL_Driver/Inc/stm32f3xx_ll_usart.h **** /**
 256:Drivers/STM32F3xx_HAL_Driver/Inc/stm32f3xx_ll_usart.h ****   * @}
 257:Drivers/STM32F3xx_HAL_Driver/Inc/stm32f3xx_ll_usart.h ****   */
 258:Drivers/STM32F3xx_HAL_Driver/Inc/stm32f3xx_ll_usart.h **** 
 259:Drivers/STM32F3xx_HAL_Driver/Inc/stm32f3xx_ll_usart.h **** /** @defgroup USART_LL_EC_WAKEUP Wakeup
 260:Drivers/STM32F3xx_HAL_Driver/Inc/stm32f3xx_ll_usart.h ****   * @{
 261:Drivers/STM32F3xx_HAL_Driver/Inc/stm32f3xx_ll_usart.h ****   */
 262:Drivers/STM32F3xx_HAL_Driver/Inc/stm32f3xx_ll_usart.h **** #define LL_USART_WAKEUP_IDLELINE                0x00000000U           /*!<  USART wake up from Mute
 263:Drivers/STM32F3xx_HAL_Driver/Inc/stm32f3xx_ll_usart.h **** #define LL_USART_WAKEUP_ADDRESSMARK             USART_CR1_WAKE        /*!<  USART wake up from Mute
 264:Drivers/STM32F3xx_HAL_Driver/Inc/stm32f3xx_ll_usart.h **** /**
 265:Drivers/STM32F3xx_HAL_Driver/Inc/stm32f3xx_ll_usart.h ****   * @}
 266:Drivers/STM32F3xx_HAL_Driver/Inc/stm32f3xx_ll_usart.h ****   */
 267:Drivers/STM32F3xx_HAL_Driver/Inc/stm32f3xx_ll_usart.h **** 
 268:Drivers/STM32F3xx_HAL_Driver/Inc/stm32f3xx_ll_usart.h **** /** @defgroup USART_LL_EC_DATAWIDTH Datawidth
 269:Drivers/STM32F3xx_HAL_Driver/Inc/stm32f3xx_ll_usart.h ****   * @{
 270:Drivers/STM32F3xx_HAL_Driver/Inc/stm32f3xx_ll_usart.h ****   */
 271:Drivers/STM32F3xx_HAL_Driver/Inc/stm32f3xx_ll_usart.h **** #if defined(USART_7BITS_SUPPORT)
 272:Drivers/STM32F3xx_HAL_Driver/Inc/stm32f3xx_ll_usart.h **** #define LL_USART_DATAWIDTH_7B                   USART_CR1_M1            /*!< 7 bits word length : S
 273:Drivers/STM32F3xx_HAL_Driver/Inc/stm32f3xx_ll_usart.h **** #define LL_USART_DATAWIDTH_8B                   0x00000000U             /*!< 8 bits word length : S
 274:Drivers/STM32F3xx_HAL_Driver/Inc/stm32f3xx_ll_usart.h **** #define LL_USART_DATAWIDTH_9B                   USART_CR1_M0            /*!< 9 bits word length : S
 275:Drivers/STM32F3xx_HAL_Driver/Inc/stm32f3xx_ll_usart.h **** #else
 276:Drivers/STM32F3xx_HAL_Driver/Inc/stm32f3xx_ll_usart.h **** #define LL_USART_DATAWIDTH_8B                   0x00000000U             /*!< 8 bits word length : S
 277:Drivers/STM32F3xx_HAL_Driver/Inc/stm32f3xx_ll_usart.h **** #define LL_USART_DATAWIDTH_9B                   USART_CR1_M             /*!< 9 bits word length : S
 278:Drivers/STM32F3xx_HAL_Driver/Inc/stm32f3xx_ll_usart.h **** #endif
 279:Drivers/STM32F3xx_HAL_Driver/Inc/stm32f3xx_ll_usart.h **** /**
 280:Drivers/STM32F3xx_HAL_Driver/Inc/stm32f3xx_ll_usart.h ****   * @}
 281:Drivers/STM32F3xx_HAL_Driver/Inc/stm32f3xx_ll_usart.h ****   */
 282:Drivers/STM32F3xx_HAL_Driver/Inc/stm32f3xx_ll_usart.h **** 
 283:Drivers/STM32F3xx_HAL_Driver/Inc/stm32f3xx_ll_usart.h **** /** @defgroup USART_LL_EC_OVERSAMPLING Oversampling
 284:Drivers/STM32F3xx_HAL_Driver/Inc/stm32f3xx_ll_usart.h ****   * @{
 285:Drivers/STM32F3xx_HAL_Driver/Inc/stm32f3xx_ll_usart.h ****   */
 286:Drivers/STM32F3xx_HAL_Driver/Inc/stm32f3xx_ll_usart.h **** #define LL_USART_OVERSAMPLING_16                0x00000000U            /*!< Oversampling by 16 */
 287:Drivers/STM32F3xx_HAL_Driver/Inc/stm32f3xx_ll_usart.h **** #define LL_USART_OVERSAMPLING_8                 USART_CR1_OVER8        /*!< Oversampling by 8 */
 288:Drivers/STM32F3xx_HAL_Driver/Inc/stm32f3xx_ll_usart.h **** /**
 289:Drivers/STM32F3xx_HAL_Driver/Inc/stm32f3xx_ll_usart.h ****   * @}
 290:Drivers/STM32F3xx_HAL_Driver/Inc/stm32f3xx_ll_usart.h ****   */
 291:Drivers/STM32F3xx_HAL_Driver/Inc/stm32f3xx_ll_usart.h **** 
 292:Drivers/STM32F3xx_HAL_Driver/Inc/stm32f3xx_ll_usart.h **** #if defined(USE_FULL_LL_DRIVER)
 293:Drivers/STM32F3xx_HAL_Driver/Inc/stm32f3xx_ll_usart.h **** /** @defgroup USART_LL_EC_CLOCK Clock Signal
 294:Drivers/STM32F3xx_HAL_Driver/Inc/stm32f3xx_ll_usart.h ****   * @{
 295:Drivers/STM32F3xx_HAL_Driver/Inc/stm32f3xx_ll_usart.h ****   */
 296:Drivers/STM32F3xx_HAL_Driver/Inc/stm32f3xx_ll_usart.h **** 
 297:Drivers/STM32F3xx_HAL_Driver/Inc/stm32f3xx_ll_usart.h **** #define LL_USART_CLOCK_DISABLE                  0x00000000U            /*!< Clock signal not provid
 298:Drivers/STM32F3xx_HAL_Driver/Inc/stm32f3xx_ll_usart.h **** #define LL_USART_CLOCK_ENABLE                   USART_CR2_CLKEN        /*!< Clock signal provided *
 299:Drivers/STM32F3xx_HAL_Driver/Inc/stm32f3xx_ll_usart.h **** /**
 300:Drivers/STM32F3xx_HAL_Driver/Inc/stm32f3xx_ll_usart.h ****   * @}
 301:Drivers/STM32F3xx_HAL_Driver/Inc/stm32f3xx_ll_usart.h ****   */
 302:Drivers/STM32F3xx_HAL_Driver/Inc/stm32f3xx_ll_usart.h **** #endif /*USE_FULL_LL_DRIVER*/
ARM GAS  /tmp/ccc5fm0Q.s 			page 29


 303:Drivers/STM32F3xx_HAL_Driver/Inc/stm32f3xx_ll_usart.h **** 
 304:Drivers/STM32F3xx_HAL_Driver/Inc/stm32f3xx_ll_usart.h **** /** @defgroup USART_LL_EC_LASTCLKPULSE Last Clock Pulse
 305:Drivers/STM32F3xx_HAL_Driver/Inc/stm32f3xx_ll_usart.h ****   * @{
 306:Drivers/STM32F3xx_HAL_Driver/Inc/stm32f3xx_ll_usart.h ****   */
 307:Drivers/STM32F3xx_HAL_Driver/Inc/stm32f3xx_ll_usart.h **** #define LL_USART_LASTCLKPULSE_NO_OUTPUT         0x00000000U           /*!< The clock pulse of the l
 308:Drivers/STM32F3xx_HAL_Driver/Inc/stm32f3xx_ll_usart.h **** #define LL_USART_LASTCLKPULSE_OUTPUT            USART_CR2_LBCL        /*!< The clock pulse of the l
 309:Drivers/STM32F3xx_HAL_Driver/Inc/stm32f3xx_ll_usart.h **** /**
 310:Drivers/STM32F3xx_HAL_Driver/Inc/stm32f3xx_ll_usart.h ****   * @}
 311:Drivers/STM32F3xx_HAL_Driver/Inc/stm32f3xx_ll_usart.h ****   */
 312:Drivers/STM32F3xx_HAL_Driver/Inc/stm32f3xx_ll_usart.h **** 
 313:Drivers/STM32F3xx_HAL_Driver/Inc/stm32f3xx_ll_usart.h **** /** @defgroup USART_LL_EC_PHASE Clock Phase
 314:Drivers/STM32F3xx_HAL_Driver/Inc/stm32f3xx_ll_usart.h ****   * @{
 315:Drivers/STM32F3xx_HAL_Driver/Inc/stm32f3xx_ll_usart.h ****   */
 316:Drivers/STM32F3xx_HAL_Driver/Inc/stm32f3xx_ll_usart.h **** #define LL_USART_PHASE_1EDGE                    0x00000000U           /*!< The first clock transiti
 317:Drivers/STM32F3xx_HAL_Driver/Inc/stm32f3xx_ll_usart.h **** #define LL_USART_PHASE_2EDGE                    USART_CR2_CPHA        /*!< The second clock transit
 318:Drivers/STM32F3xx_HAL_Driver/Inc/stm32f3xx_ll_usart.h **** /**
 319:Drivers/STM32F3xx_HAL_Driver/Inc/stm32f3xx_ll_usart.h ****   * @}
 320:Drivers/STM32F3xx_HAL_Driver/Inc/stm32f3xx_ll_usart.h ****   */
 321:Drivers/STM32F3xx_HAL_Driver/Inc/stm32f3xx_ll_usart.h **** 
 322:Drivers/STM32F3xx_HAL_Driver/Inc/stm32f3xx_ll_usart.h **** /** @defgroup USART_LL_EC_POLARITY Clock Polarity
 323:Drivers/STM32F3xx_HAL_Driver/Inc/stm32f3xx_ll_usart.h ****   * @{
 324:Drivers/STM32F3xx_HAL_Driver/Inc/stm32f3xx_ll_usart.h ****   */
 325:Drivers/STM32F3xx_HAL_Driver/Inc/stm32f3xx_ll_usart.h **** #define LL_USART_POLARITY_LOW                   0x00000000U           /*!< Steady low value on SCLK
 326:Drivers/STM32F3xx_HAL_Driver/Inc/stm32f3xx_ll_usart.h **** #define LL_USART_POLARITY_HIGH                  USART_CR2_CPOL        /*!< Steady high value on SCL
 327:Drivers/STM32F3xx_HAL_Driver/Inc/stm32f3xx_ll_usart.h **** /**
 328:Drivers/STM32F3xx_HAL_Driver/Inc/stm32f3xx_ll_usart.h ****   * @}
 329:Drivers/STM32F3xx_HAL_Driver/Inc/stm32f3xx_ll_usart.h ****   */
 330:Drivers/STM32F3xx_HAL_Driver/Inc/stm32f3xx_ll_usart.h **** 
 331:Drivers/STM32F3xx_HAL_Driver/Inc/stm32f3xx_ll_usart.h **** /** @defgroup USART_LL_EC_STOPBITS Stop Bits
 332:Drivers/STM32F3xx_HAL_Driver/Inc/stm32f3xx_ll_usart.h ****   * @{
 333:Drivers/STM32F3xx_HAL_Driver/Inc/stm32f3xx_ll_usart.h ****   */
 334:Drivers/STM32F3xx_HAL_Driver/Inc/stm32f3xx_ll_usart.h **** #define LL_USART_STOPBITS_0_5                   USART_CR2_STOP_0                           /*!< 0.5
 335:Drivers/STM32F3xx_HAL_Driver/Inc/stm32f3xx_ll_usart.h **** #define LL_USART_STOPBITS_1                     0x00000000U                                /*!< 1 s
 336:Drivers/STM32F3xx_HAL_Driver/Inc/stm32f3xx_ll_usart.h **** #define LL_USART_STOPBITS_1_5                   (USART_CR2_STOP_0 | USART_CR2_STOP_1)      /*!< 1.5
 337:Drivers/STM32F3xx_HAL_Driver/Inc/stm32f3xx_ll_usart.h **** #define LL_USART_STOPBITS_2                     USART_CR2_STOP_1                           /*!< 2 s
 338:Drivers/STM32F3xx_HAL_Driver/Inc/stm32f3xx_ll_usart.h **** /**
 339:Drivers/STM32F3xx_HAL_Driver/Inc/stm32f3xx_ll_usart.h ****   * @}
 340:Drivers/STM32F3xx_HAL_Driver/Inc/stm32f3xx_ll_usart.h ****   */
 341:Drivers/STM32F3xx_HAL_Driver/Inc/stm32f3xx_ll_usart.h **** 
 342:Drivers/STM32F3xx_HAL_Driver/Inc/stm32f3xx_ll_usart.h **** /** @defgroup USART_LL_EC_TXRX TX RX Pins Swap
 343:Drivers/STM32F3xx_HAL_Driver/Inc/stm32f3xx_ll_usart.h ****   * @{
 344:Drivers/STM32F3xx_HAL_Driver/Inc/stm32f3xx_ll_usart.h ****   */
 345:Drivers/STM32F3xx_HAL_Driver/Inc/stm32f3xx_ll_usart.h **** #define LL_USART_TXRX_STANDARD                  0x00000000U           /*!< TX/RX pins are used as d
 346:Drivers/STM32F3xx_HAL_Driver/Inc/stm32f3xx_ll_usart.h **** #define LL_USART_TXRX_SWAPPED                   (USART_CR2_SWAP)      /*!< TX and RX pins functions
 347:Drivers/STM32F3xx_HAL_Driver/Inc/stm32f3xx_ll_usart.h **** /**
 348:Drivers/STM32F3xx_HAL_Driver/Inc/stm32f3xx_ll_usart.h ****   * @}
 349:Drivers/STM32F3xx_HAL_Driver/Inc/stm32f3xx_ll_usart.h ****   */
 350:Drivers/STM32F3xx_HAL_Driver/Inc/stm32f3xx_ll_usart.h **** 
 351:Drivers/STM32F3xx_HAL_Driver/Inc/stm32f3xx_ll_usart.h **** /** @defgroup USART_LL_EC_RXPIN_LEVEL RX Pin Active Level Inversion
 352:Drivers/STM32F3xx_HAL_Driver/Inc/stm32f3xx_ll_usart.h ****   * @{
 353:Drivers/STM32F3xx_HAL_Driver/Inc/stm32f3xx_ll_usart.h ****   */
 354:Drivers/STM32F3xx_HAL_Driver/Inc/stm32f3xx_ll_usart.h **** #define LL_USART_RXPIN_LEVEL_STANDARD           0x00000000U           /*!< RX pin signal works usin
 355:Drivers/STM32F3xx_HAL_Driver/Inc/stm32f3xx_ll_usart.h **** #define LL_USART_RXPIN_LEVEL_INVERTED           (USART_CR2_RXINV)     /*!< RX pin signal values are
 356:Drivers/STM32F3xx_HAL_Driver/Inc/stm32f3xx_ll_usart.h **** /**
 357:Drivers/STM32F3xx_HAL_Driver/Inc/stm32f3xx_ll_usart.h ****   * @}
 358:Drivers/STM32F3xx_HAL_Driver/Inc/stm32f3xx_ll_usart.h ****   */
 359:Drivers/STM32F3xx_HAL_Driver/Inc/stm32f3xx_ll_usart.h **** 
ARM GAS  /tmp/ccc5fm0Q.s 			page 30


 360:Drivers/STM32F3xx_HAL_Driver/Inc/stm32f3xx_ll_usart.h **** /** @defgroup USART_LL_EC_TXPIN_LEVEL TX Pin Active Level Inversion
 361:Drivers/STM32F3xx_HAL_Driver/Inc/stm32f3xx_ll_usart.h ****   * @{
 362:Drivers/STM32F3xx_HAL_Driver/Inc/stm32f3xx_ll_usart.h ****   */
 363:Drivers/STM32F3xx_HAL_Driver/Inc/stm32f3xx_ll_usart.h **** #define LL_USART_TXPIN_LEVEL_STANDARD           0x00000000U           /*!< TX pin signal works usin
 364:Drivers/STM32F3xx_HAL_Driver/Inc/stm32f3xx_ll_usart.h **** #define LL_USART_TXPIN_LEVEL_INVERTED           (USART_CR2_TXINV)     /*!< TX pin signal values are
 365:Drivers/STM32F3xx_HAL_Driver/Inc/stm32f3xx_ll_usart.h **** /**
 366:Drivers/STM32F3xx_HAL_Driver/Inc/stm32f3xx_ll_usart.h ****   * @}
 367:Drivers/STM32F3xx_HAL_Driver/Inc/stm32f3xx_ll_usart.h ****   */
 368:Drivers/STM32F3xx_HAL_Driver/Inc/stm32f3xx_ll_usart.h **** 
 369:Drivers/STM32F3xx_HAL_Driver/Inc/stm32f3xx_ll_usart.h **** /** @defgroup USART_LL_EC_BINARY_LOGIC Binary Data Inversion
 370:Drivers/STM32F3xx_HAL_Driver/Inc/stm32f3xx_ll_usart.h ****   * @{
 371:Drivers/STM32F3xx_HAL_Driver/Inc/stm32f3xx_ll_usart.h ****   */
 372:Drivers/STM32F3xx_HAL_Driver/Inc/stm32f3xx_ll_usart.h **** #define LL_USART_BINARY_LOGIC_POSITIVE          0x00000000U           /*!< Logical data from the da
 373:Drivers/STM32F3xx_HAL_Driver/Inc/stm32f3xx_ll_usart.h **** #define LL_USART_BINARY_LOGIC_NEGATIVE          USART_CR2_DATAINV     /*!< Logical data from the da
 374:Drivers/STM32F3xx_HAL_Driver/Inc/stm32f3xx_ll_usart.h **** /**
 375:Drivers/STM32F3xx_HAL_Driver/Inc/stm32f3xx_ll_usart.h ****   * @}
 376:Drivers/STM32F3xx_HAL_Driver/Inc/stm32f3xx_ll_usart.h ****   */
 377:Drivers/STM32F3xx_HAL_Driver/Inc/stm32f3xx_ll_usart.h **** 
 378:Drivers/STM32F3xx_HAL_Driver/Inc/stm32f3xx_ll_usart.h **** /** @defgroup USART_LL_EC_BITORDER Bit Order
 379:Drivers/STM32F3xx_HAL_Driver/Inc/stm32f3xx_ll_usart.h ****   * @{
 380:Drivers/STM32F3xx_HAL_Driver/Inc/stm32f3xx_ll_usart.h ****   */
 381:Drivers/STM32F3xx_HAL_Driver/Inc/stm32f3xx_ll_usart.h **** #define LL_USART_BITORDER_LSBFIRST              0x00000000U           /*!< data is transmitted/rece
 382:Drivers/STM32F3xx_HAL_Driver/Inc/stm32f3xx_ll_usart.h **** #define LL_USART_BITORDER_MSBFIRST              USART_CR2_MSBFIRST    /*!< data is transmitted/rece
 383:Drivers/STM32F3xx_HAL_Driver/Inc/stm32f3xx_ll_usart.h **** /**
 384:Drivers/STM32F3xx_HAL_Driver/Inc/stm32f3xx_ll_usart.h ****   * @}
 385:Drivers/STM32F3xx_HAL_Driver/Inc/stm32f3xx_ll_usart.h ****   */
 386:Drivers/STM32F3xx_HAL_Driver/Inc/stm32f3xx_ll_usart.h **** 
 387:Drivers/STM32F3xx_HAL_Driver/Inc/stm32f3xx_ll_usart.h **** /** @defgroup USART_LL_EC_AUTOBAUD_DETECT_ON Autobaud Detection
 388:Drivers/STM32F3xx_HAL_Driver/Inc/stm32f3xx_ll_usart.h ****   * @{
 389:Drivers/STM32F3xx_HAL_Driver/Inc/stm32f3xx_ll_usart.h ****   */
 390:Drivers/STM32F3xx_HAL_Driver/Inc/stm32f3xx_ll_usart.h **** #define LL_USART_AUTOBAUD_DETECT_ON_STARTBIT    0x00000000U                                 /*!< Me
 391:Drivers/STM32F3xx_HAL_Driver/Inc/stm32f3xx_ll_usart.h **** #define LL_USART_AUTOBAUD_DETECT_ON_FALLINGEDGE USART_CR2_ABRMODE_0                         /*!< Fa
 392:Drivers/STM32F3xx_HAL_Driver/Inc/stm32f3xx_ll_usart.h **** #define LL_USART_AUTOBAUD_DETECT_ON_7F_FRAME    USART_CR2_ABRMODE_1                         /*!< 0x
 393:Drivers/STM32F3xx_HAL_Driver/Inc/stm32f3xx_ll_usart.h **** #define LL_USART_AUTOBAUD_DETECT_ON_55_FRAME    (USART_CR2_ABRMODE_1 | USART_CR2_ABRMODE_0) /*!< 0x
 394:Drivers/STM32F3xx_HAL_Driver/Inc/stm32f3xx_ll_usart.h **** /**
 395:Drivers/STM32F3xx_HAL_Driver/Inc/stm32f3xx_ll_usart.h ****   * @}
 396:Drivers/STM32F3xx_HAL_Driver/Inc/stm32f3xx_ll_usart.h ****   */
 397:Drivers/STM32F3xx_HAL_Driver/Inc/stm32f3xx_ll_usart.h **** 
 398:Drivers/STM32F3xx_HAL_Driver/Inc/stm32f3xx_ll_usart.h **** /** @defgroup USART_LL_EC_ADDRESS_DETECT Address Length Detection
 399:Drivers/STM32F3xx_HAL_Driver/Inc/stm32f3xx_ll_usart.h ****   * @{
 400:Drivers/STM32F3xx_HAL_Driver/Inc/stm32f3xx_ll_usart.h ****   */
 401:Drivers/STM32F3xx_HAL_Driver/Inc/stm32f3xx_ll_usart.h **** #define LL_USART_ADDRESS_DETECT_4B              0x00000000U           /*!< 4-bit address detection 
 402:Drivers/STM32F3xx_HAL_Driver/Inc/stm32f3xx_ll_usart.h **** #define LL_USART_ADDRESS_DETECT_7B              USART_CR2_ADDM7       /*!< 7-bit address detection 
 403:Drivers/STM32F3xx_HAL_Driver/Inc/stm32f3xx_ll_usart.h **** /**
 404:Drivers/STM32F3xx_HAL_Driver/Inc/stm32f3xx_ll_usart.h ****   * @}
 405:Drivers/STM32F3xx_HAL_Driver/Inc/stm32f3xx_ll_usart.h ****   */
 406:Drivers/STM32F3xx_HAL_Driver/Inc/stm32f3xx_ll_usart.h **** 
 407:Drivers/STM32F3xx_HAL_Driver/Inc/stm32f3xx_ll_usart.h **** /** @defgroup USART_LL_EC_HWCONTROL Hardware Control
 408:Drivers/STM32F3xx_HAL_Driver/Inc/stm32f3xx_ll_usart.h ****   * @{
 409:Drivers/STM32F3xx_HAL_Driver/Inc/stm32f3xx_ll_usart.h ****   */
 410:Drivers/STM32F3xx_HAL_Driver/Inc/stm32f3xx_ll_usart.h **** #define LL_USART_HWCONTROL_NONE                 0x00000000U                          /*!< CTS and R
 411:Drivers/STM32F3xx_HAL_Driver/Inc/stm32f3xx_ll_usart.h **** #define LL_USART_HWCONTROL_RTS                  USART_CR3_RTSE                       /*!< RTS outpu
 412:Drivers/STM32F3xx_HAL_Driver/Inc/stm32f3xx_ll_usart.h **** #define LL_USART_HWCONTROL_CTS                  USART_CR3_CTSE                       /*!< CTS mode 
 413:Drivers/STM32F3xx_HAL_Driver/Inc/stm32f3xx_ll_usart.h **** #define LL_USART_HWCONTROL_RTS_CTS              (USART_CR3_RTSE | USART_CR3_CTSE)    /*!< CTS and R
 414:Drivers/STM32F3xx_HAL_Driver/Inc/stm32f3xx_ll_usart.h **** /**
 415:Drivers/STM32F3xx_HAL_Driver/Inc/stm32f3xx_ll_usart.h ****   * @}
 416:Drivers/STM32F3xx_HAL_Driver/Inc/stm32f3xx_ll_usart.h ****   */
ARM GAS  /tmp/ccc5fm0Q.s 			page 31


 417:Drivers/STM32F3xx_HAL_Driver/Inc/stm32f3xx_ll_usart.h **** 
 418:Drivers/STM32F3xx_HAL_Driver/Inc/stm32f3xx_ll_usart.h **** /** @defgroup USART_LL_EC_WAKEUP_ON Wakeup Activation
 419:Drivers/STM32F3xx_HAL_Driver/Inc/stm32f3xx_ll_usart.h ****   * @{
 420:Drivers/STM32F3xx_HAL_Driver/Inc/stm32f3xx_ll_usart.h ****   */
 421:Drivers/STM32F3xx_HAL_Driver/Inc/stm32f3xx_ll_usart.h **** #define LL_USART_WAKEUP_ON_ADDRESS              0x00000000U                             /*!< Wake u
 422:Drivers/STM32F3xx_HAL_Driver/Inc/stm32f3xx_ll_usart.h **** #define LL_USART_WAKEUP_ON_STARTBIT             USART_CR3_WUS_1                         /*!< Wake u
 423:Drivers/STM32F3xx_HAL_Driver/Inc/stm32f3xx_ll_usart.h **** #define LL_USART_WAKEUP_ON_RXNE                 (USART_CR3_WUS_0 | USART_CR3_WUS_1)     /*!< Wake u
 424:Drivers/STM32F3xx_HAL_Driver/Inc/stm32f3xx_ll_usart.h **** /**
 425:Drivers/STM32F3xx_HAL_Driver/Inc/stm32f3xx_ll_usart.h ****   * @}
 426:Drivers/STM32F3xx_HAL_Driver/Inc/stm32f3xx_ll_usart.h ****   */
 427:Drivers/STM32F3xx_HAL_Driver/Inc/stm32f3xx_ll_usart.h **** 
 428:Drivers/STM32F3xx_HAL_Driver/Inc/stm32f3xx_ll_usart.h **** /** @defgroup USART_LL_EC_IRDA_POWER IrDA Power
 429:Drivers/STM32F3xx_HAL_Driver/Inc/stm32f3xx_ll_usart.h ****   * @{
 430:Drivers/STM32F3xx_HAL_Driver/Inc/stm32f3xx_ll_usart.h ****   */
 431:Drivers/STM32F3xx_HAL_Driver/Inc/stm32f3xx_ll_usart.h **** #define LL_USART_IRDA_POWER_NORMAL              0x00000000U           /*!< IrDA normal power mode *
 432:Drivers/STM32F3xx_HAL_Driver/Inc/stm32f3xx_ll_usart.h **** #define LL_USART_IRDA_POWER_LOW                 USART_CR3_IRLP        /*!< IrDA low power mode */
 433:Drivers/STM32F3xx_HAL_Driver/Inc/stm32f3xx_ll_usart.h **** /**
 434:Drivers/STM32F3xx_HAL_Driver/Inc/stm32f3xx_ll_usart.h ****   * @}
 435:Drivers/STM32F3xx_HAL_Driver/Inc/stm32f3xx_ll_usart.h ****   */
 436:Drivers/STM32F3xx_HAL_Driver/Inc/stm32f3xx_ll_usart.h **** 
 437:Drivers/STM32F3xx_HAL_Driver/Inc/stm32f3xx_ll_usart.h **** /** @defgroup USART_LL_EC_LINBREAK_DETECT LIN Break Detection Length
 438:Drivers/STM32F3xx_HAL_Driver/Inc/stm32f3xx_ll_usart.h ****   * @{
 439:Drivers/STM32F3xx_HAL_Driver/Inc/stm32f3xx_ll_usart.h ****   */
 440:Drivers/STM32F3xx_HAL_Driver/Inc/stm32f3xx_ll_usart.h **** #define LL_USART_LINBREAK_DETECT_10B            0x00000000U           /*!< 10-bit break detection m
 441:Drivers/STM32F3xx_HAL_Driver/Inc/stm32f3xx_ll_usart.h **** #define LL_USART_LINBREAK_DETECT_11B            USART_CR2_LBDL        /*!< 11-bit break detection m
 442:Drivers/STM32F3xx_HAL_Driver/Inc/stm32f3xx_ll_usart.h **** /**
 443:Drivers/STM32F3xx_HAL_Driver/Inc/stm32f3xx_ll_usart.h ****   * @}
 444:Drivers/STM32F3xx_HAL_Driver/Inc/stm32f3xx_ll_usart.h ****   */
 445:Drivers/STM32F3xx_HAL_Driver/Inc/stm32f3xx_ll_usart.h **** 
 446:Drivers/STM32F3xx_HAL_Driver/Inc/stm32f3xx_ll_usart.h **** /** @defgroup USART_LL_EC_DE_POLARITY Driver Enable Polarity
 447:Drivers/STM32F3xx_HAL_Driver/Inc/stm32f3xx_ll_usart.h ****   * @{
 448:Drivers/STM32F3xx_HAL_Driver/Inc/stm32f3xx_ll_usart.h ****   */
 449:Drivers/STM32F3xx_HAL_Driver/Inc/stm32f3xx_ll_usart.h **** #define LL_USART_DE_POLARITY_HIGH               0x00000000U           /*!< DE signal is active high
 450:Drivers/STM32F3xx_HAL_Driver/Inc/stm32f3xx_ll_usart.h **** #define LL_USART_DE_POLARITY_LOW                USART_CR3_DEP         /*!< DE signal is active low 
 451:Drivers/STM32F3xx_HAL_Driver/Inc/stm32f3xx_ll_usart.h **** /**
 452:Drivers/STM32F3xx_HAL_Driver/Inc/stm32f3xx_ll_usart.h ****   * @}
 453:Drivers/STM32F3xx_HAL_Driver/Inc/stm32f3xx_ll_usart.h ****   */
 454:Drivers/STM32F3xx_HAL_Driver/Inc/stm32f3xx_ll_usart.h **** 
 455:Drivers/STM32F3xx_HAL_Driver/Inc/stm32f3xx_ll_usart.h **** /** @defgroup USART_LL_EC_DMA_REG_DATA DMA Register Data
 456:Drivers/STM32F3xx_HAL_Driver/Inc/stm32f3xx_ll_usart.h ****   * @{
 457:Drivers/STM32F3xx_HAL_Driver/Inc/stm32f3xx_ll_usart.h ****   */
 458:Drivers/STM32F3xx_HAL_Driver/Inc/stm32f3xx_ll_usart.h **** #define LL_USART_DMA_REG_DATA_TRANSMIT          0x00000000U          /*!< Get address of data regis
 459:Drivers/STM32F3xx_HAL_Driver/Inc/stm32f3xx_ll_usart.h **** #define LL_USART_DMA_REG_DATA_RECEIVE           0x00000001U          /*!< Get address of data regis
 460:Drivers/STM32F3xx_HAL_Driver/Inc/stm32f3xx_ll_usart.h **** /**
 461:Drivers/STM32F3xx_HAL_Driver/Inc/stm32f3xx_ll_usart.h ****   * @}
 462:Drivers/STM32F3xx_HAL_Driver/Inc/stm32f3xx_ll_usart.h ****   */
 463:Drivers/STM32F3xx_HAL_Driver/Inc/stm32f3xx_ll_usart.h **** 
 464:Drivers/STM32F3xx_HAL_Driver/Inc/stm32f3xx_ll_usart.h **** /**
 465:Drivers/STM32F3xx_HAL_Driver/Inc/stm32f3xx_ll_usart.h ****   * @}
 466:Drivers/STM32F3xx_HAL_Driver/Inc/stm32f3xx_ll_usart.h ****   */
 467:Drivers/STM32F3xx_HAL_Driver/Inc/stm32f3xx_ll_usart.h **** 
 468:Drivers/STM32F3xx_HAL_Driver/Inc/stm32f3xx_ll_usart.h **** /* Exported macro ------------------------------------------------------------*/
 469:Drivers/STM32F3xx_HAL_Driver/Inc/stm32f3xx_ll_usart.h **** /** @defgroup USART_LL_Exported_Macros USART Exported Macros
 470:Drivers/STM32F3xx_HAL_Driver/Inc/stm32f3xx_ll_usart.h ****   * @{
 471:Drivers/STM32F3xx_HAL_Driver/Inc/stm32f3xx_ll_usart.h ****   */
 472:Drivers/STM32F3xx_HAL_Driver/Inc/stm32f3xx_ll_usart.h **** 
 473:Drivers/STM32F3xx_HAL_Driver/Inc/stm32f3xx_ll_usart.h **** /** @defgroup USART_LL_EM_WRITE_READ Common Write and read registers Macros
ARM GAS  /tmp/ccc5fm0Q.s 			page 32


 474:Drivers/STM32F3xx_HAL_Driver/Inc/stm32f3xx_ll_usart.h ****   * @{
 475:Drivers/STM32F3xx_HAL_Driver/Inc/stm32f3xx_ll_usart.h ****   */
 476:Drivers/STM32F3xx_HAL_Driver/Inc/stm32f3xx_ll_usart.h **** 
 477:Drivers/STM32F3xx_HAL_Driver/Inc/stm32f3xx_ll_usart.h **** /**
 478:Drivers/STM32F3xx_HAL_Driver/Inc/stm32f3xx_ll_usart.h ****   * @brief  Write a value in USART register
 479:Drivers/STM32F3xx_HAL_Driver/Inc/stm32f3xx_ll_usart.h ****   * @param  __INSTANCE__ USART Instance
 480:Drivers/STM32F3xx_HAL_Driver/Inc/stm32f3xx_ll_usart.h ****   * @param  __REG__ Register to be written
 481:Drivers/STM32F3xx_HAL_Driver/Inc/stm32f3xx_ll_usart.h ****   * @param  __VALUE__ Value to be written in the register
 482:Drivers/STM32F3xx_HAL_Driver/Inc/stm32f3xx_ll_usart.h ****   * @retval None
 483:Drivers/STM32F3xx_HAL_Driver/Inc/stm32f3xx_ll_usart.h ****   */
 484:Drivers/STM32F3xx_HAL_Driver/Inc/stm32f3xx_ll_usart.h **** #define LL_USART_WriteReg(__INSTANCE__, __REG__, __VALUE__) WRITE_REG(__INSTANCE__->__REG__, (__VAL
 485:Drivers/STM32F3xx_HAL_Driver/Inc/stm32f3xx_ll_usart.h **** 
 486:Drivers/STM32F3xx_HAL_Driver/Inc/stm32f3xx_ll_usart.h **** /**
 487:Drivers/STM32F3xx_HAL_Driver/Inc/stm32f3xx_ll_usart.h ****   * @brief  Read a value in USART register
 488:Drivers/STM32F3xx_HAL_Driver/Inc/stm32f3xx_ll_usart.h ****   * @param  __INSTANCE__ USART Instance
 489:Drivers/STM32F3xx_HAL_Driver/Inc/stm32f3xx_ll_usart.h ****   * @param  __REG__ Register to be read
 490:Drivers/STM32F3xx_HAL_Driver/Inc/stm32f3xx_ll_usart.h ****   * @retval Register value
 491:Drivers/STM32F3xx_HAL_Driver/Inc/stm32f3xx_ll_usart.h ****   */
 492:Drivers/STM32F3xx_HAL_Driver/Inc/stm32f3xx_ll_usart.h **** #define LL_USART_ReadReg(__INSTANCE__, __REG__) READ_REG(__INSTANCE__->__REG__)
 493:Drivers/STM32F3xx_HAL_Driver/Inc/stm32f3xx_ll_usart.h **** /**
 494:Drivers/STM32F3xx_HAL_Driver/Inc/stm32f3xx_ll_usart.h ****   * @}
 495:Drivers/STM32F3xx_HAL_Driver/Inc/stm32f3xx_ll_usart.h ****   */
 496:Drivers/STM32F3xx_HAL_Driver/Inc/stm32f3xx_ll_usart.h **** 
 497:Drivers/STM32F3xx_HAL_Driver/Inc/stm32f3xx_ll_usart.h **** /** @defgroup USART_LL_EM_Exported_Macros_Helper Exported_Macros_Helper
 498:Drivers/STM32F3xx_HAL_Driver/Inc/stm32f3xx_ll_usart.h ****   * @{
 499:Drivers/STM32F3xx_HAL_Driver/Inc/stm32f3xx_ll_usart.h ****   */
 500:Drivers/STM32F3xx_HAL_Driver/Inc/stm32f3xx_ll_usart.h **** 
 501:Drivers/STM32F3xx_HAL_Driver/Inc/stm32f3xx_ll_usart.h **** /**
 502:Drivers/STM32F3xx_HAL_Driver/Inc/stm32f3xx_ll_usart.h ****   * @brief  Compute USARTDIV value according to Peripheral Clock and
 503:Drivers/STM32F3xx_HAL_Driver/Inc/stm32f3xx_ll_usart.h ****   *         expected Baud Rate in 8 bits sampling mode (32 bits value of USARTDIV is returned)
 504:Drivers/STM32F3xx_HAL_Driver/Inc/stm32f3xx_ll_usart.h ****   * @param  __PERIPHCLK__ Peripheral Clock frequency used for USART instance
 505:Drivers/STM32F3xx_HAL_Driver/Inc/stm32f3xx_ll_usart.h ****   * @param  __BAUDRATE__ Baud rate value to achieve
 506:Drivers/STM32F3xx_HAL_Driver/Inc/stm32f3xx_ll_usart.h ****   * @retval USARTDIV value to be used for BRR register filling in OverSampling_8 case
 507:Drivers/STM32F3xx_HAL_Driver/Inc/stm32f3xx_ll_usart.h ****   */
 508:Drivers/STM32F3xx_HAL_Driver/Inc/stm32f3xx_ll_usart.h **** #define __LL_USART_DIV_SAMPLING8(__PERIPHCLK__, __BAUDRATE__) ((((__PERIPHCLK__)*2) + ((__BAUDRATE_
 509:Drivers/STM32F3xx_HAL_Driver/Inc/stm32f3xx_ll_usart.h **** 
 510:Drivers/STM32F3xx_HAL_Driver/Inc/stm32f3xx_ll_usart.h **** /**
 511:Drivers/STM32F3xx_HAL_Driver/Inc/stm32f3xx_ll_usart.h ****   * @brief  Compute USARTDIV value according to Peripheral Clock and
 512:Drivers/STM32F3xx_HAL_Driver/Inc/stm32f3xx_ll_usart.h ****   *         expected Baud Rate in 16 bits sampling mode (32 bits value of USARTDIV is returned)
 513:Drivers/STM32F3xx_HAL_Driver/Inc/stm32f3xx_ll_usart.h ****   * @param  __PERIPHCLK__ Peripheral Clock frequency used for USART instance
 514:Drivers/STM32F3xx_HAL_Driver/Inc/stm32f3xx_ll_usart.h ****   * @param  __BAUDRATE__ Baud rate value to achieve
 515:Drivers/STM32F3xx_HAL_Driver/Inc/stm32f3xx_ll_usart.h ****   * @retval USARTDIV value to be used for BRR register filling in OverSampling_16 case
 516:Drivers/STM32F3xx_HAL_Driver/Inc/stm32f3xx_ll_usart.h ****   */
 517:Drivers/STM32F3xx_HAL_Driver/Inc/stm32f3xx_ll_usart.h **** #define __LL_USART_DIV_SAMPLING16(__PERIPHCLK__, __BAUDRATE__) (((__PERIPHCLK__) + ((__BAUDRATE__)/
 518:Drivers/STM32F3xx_HAL_Driver/Inc/stm32f3xx_ll_usart.h **** 
 519:Drivers/STM32F3xx_HAL_Driver/Inc/stm32f3xx_ll_usart.h **** /**
 520:Drivers/STM32F3xx_HAL_Driver/Inc/stm32f3xx_ll_usart.h ****   * @}
 521:Drivers/STM32F3xx_HAL_Driver/Inc/stm32f3xx_ll_usart.h ****   */
 522:Drivers/STM32F3xx_HAL_Driver/Inc/stm32f3xx_ll_usart.h **** 
 523:Drivers/STM32F3xx_HAL_Driver/Inc/stm32f3xx_ll_usart.h **** /**
 524:Drivers/STM32F3xx_HAL_Driver/Inc/stm32f3xx_ll_usart.h ****   * @}
 525:Drivers/STM32F3xx_HAL_Driver/Inc/stm32f3xx_ll_usart.h ****   */
 526:Drivers/STM32F3xx_HAL_Driver/Inc/stm32f3xx_ll_usart.h **** 
 527:Drivers/STM32F3xx_HAL_Driver/Inc/stm32f3xx_ll_usart.h **** /* Exported functions --------------------------------------------------------*/
 528:Drivers/STM32F3xx_HAL_Driver/Inc/stm32f3xx_ll_usart.h **** 
 529:Drivers/STM32F3xx_HAL_Driver/Inc/stm32f3xx_ll_usart.h **** /** @defgroup USART_LL_Exported_Functions USART Exported Functions
 530:Drivers/STM32F3xx_HAL_Driver/Inc/stm32f3xx_ll_usart.h ****   * @{
ARM GAS  /tmp/ccc5fm0Q.s 			page 33


 531:Drivers/STM32F3xx_HAL_Driver/Inc/stm32f3xx_ll_usart.h ****   */
 532:Drivers/STM32F3xx_HAL_Driver/Inc/stm32f3xx_ll_usart.h **** 
 533:Drivers/STM32F3xx_HAL_Driver/Inc/stm32f3xx_ll_usart.h **** /** @defgroup USART_LL_EF_Configuration Configuration functions
 534:Drivers/STM32F3xx_HAL_Driver/Inc/stm32f3xx_ll_usart.h ****   * @{
 535:Drivers/STM32F3xx_HAL_Driver/Inc/stm32f3xx_ll_usart.h ****   */
 536:Drivers/STM32F3xx_HAL_Driver/Inc/stm32f3xx_ll_usart.h **** 
 537:Drivers/STM32F3xx_HAL_Driver/Inc/stm32f3xx_ll_usart.h **** /**
 538:Drivers/STM32F3xx_HAL_Driver/Inc/stm32f3xx_ll_usart.h ****   * @brief  USART Enable
 539:Drivers/STM32F3xx_HAL_Driver/Inc/stm32f3xx_ll_usart.h ****   * @rmtoll CR1          UE            LL_USART_Enable
 540:Drivers/STM32F3xx_HAL_Driver/Inc/stm32f3xx_ll_usart.h ****   * @param  USARTx USART Instance
 541:Drivers/STM32F3xx_HAL_Driver/Inc/stm32f3xx_ll_usart.h ****   * @retval None
 542:Drivers/STM32F3xx_HAL_Driver/Inc/stm32f3xx_ll_usart.h ****   */
 543:Drivers/STM32F3xx_HAL_Driver/Inc/stm32f3xx_ll_usart.h **** __STATIC_INLINE void LL_USART_Enable(USART_TypeDef *USARTx)
 544:Drivers/STM32F3xx_HAL_Driver/Inc/stm32f3xx_ll_usart.h **** {
 545:Drivers/STM32F3xx_HAL_Driver/Inc/stm32f3xx_ll_usart.h ****   SET_BIT(USARTx->CR1, USART_CR1_UE);
 546:Drivers/STM32F3xx_HAL_Driver/Inc/stm32f3xx_ll_usart.h **** }
 547:Drivers/STM32F3xx_HAL_Driver/Inc/stm32f3xx_ll_usart.h **** 
 548:Drivers/STM32F3xx_HAL_Driver/Inc/stm32f3xx_ll_usart.h **** /**
 549:Drivers/STM32F3xx_HAL_Driver/Inc/stm32f3xx_ll_usart.h ****   * @brief  USART Disable (all USART prescalers and outputs are disabled)
 550:Drivers/STM32F3xx_HAL_Driver/Inc/stm32f3xx_ll_usart.h ****   * @note   When USART is disabled, USART prescalers and outputs are stopped immediately,
 551:Drivers/STM32F3xx_HAL_Driver/Inc/stm32f3xx_ll_usart.h ****   *         and current operations are discarded. The configuration of the USART is kept, but all t
 552:Drivers/STM32F3xx_HAL_Driver/Inc/stm32f3xx_ll_usart.h ****   *         flags, in the USARTx_ISR are set to their default values.
 553:Drivers/STM32F3xx_HAL_Driver/Inc/stm32f3xx_ll_usart.h ****   * @rmtoll CR1          UE            LL_USART_Disable
 554:Drivers/STM32F3xx_HAL_Driver/Inc/stm32f3xx_ll_usart.h ****   * @param  USARTx USART Instance
 555:Drivers/STM32F3xx_HAL_Driver/Inc/stm32f3xx_ll_usart.h ****   * @retval None
 556:Drivers/STM32F3xx_HAL_Driver/Inc/stm32f3xx_ll_usart.h ****   */
 557:Drivers/STM32F3xx_HAL_Driver/Inc/stm32f3xx_ll_usart.h **** __STATIC_INLINE void LL_USART_Disable(USART_TypeDef *USARTx)
 558:Drivers/STM32F3xx_HAL_Driver/Inc/stm32f3xx_ll_usart.h **** {
 559:Drivers/STM32F3xx_HAL_Driver/Inc/stm32f3xx_ll_usart.h ****   CLEAR_BIT(USARTx->CR1, USART_CR1_UE);
 560:Drivers/STM32F3xx_HAL_Driver/Inc/stm32f3xx_ll_usart.h **** }
 561:Drivers/STM32F3xx_HAL_Driver/Inc/stm32f3xx_ll_usart.h **** 
 562:Drivers/STM32F3xx_HAL_Driver/Inc/stm32f3xx_ll_usart.h **** /**
 563:Drivers/STM32F3xx_HAL_Driver/Inc/stm32f3xx_ll_usart.h ****   * @brief  Indicate if USART is enabled
 564:Drivers/STM32F3xx_HAL_Driver/Inc/stm32f3xx_ll_usart.h ****   * @rmtoll CR1          UE            LL_USART_IsEnabled
 565:Drivers/STM32F3xx_HAL_Driver/Inc/stm32f3xx_ll_usart.h ****   * @param  USARTx USART Instance
 566:Drivers/STM32F3xx_HAL_Driver/Inc/stm32f3xx_ll_usart.h ****   * @retval State of bit (1 or 0).
 567:Drivers/STM32F3xx_HAL_Driver/Inc/stm32f3xx_ll_usart.h ****   */
 568:Drivers/STM32F3xx_HAL_Driver/Inc/stm32f3xx_ll_usart.h **** __STATIC_INLINE uint32_t LL_USART_IsEnabled(USART_TypeDef *USARTx)
 569:Drivers/STM32F3xx_HAL_Driver/Inc/stm32f3xx_ll_usart.h **** {
 254              		.loc 2 569 0
 255              		.cfi_startproc
 256              		@ args = 0, pretend = 0, frame = 8
 257              		@ frame_needed = 1, uses_anonymous_args = 0
 258              		@ link register save eliminated.
 259 0000 80B4     		push	{r7}
 260              	.LCFI24:
 261              		.cfi_def_cfa_offset 4
 262              		.cfi_offset 7, -4
 263 0002 83B0     		sub	sp, sp, #12
 264              	.LCFI25:
 265              		.cfi_def_cfa_offset 16
 266 0004 00AF     		add	r7, sp, #0
 267              	.LCFI26:
 268              		.cfi_def_cfa_register 7
 269 0006 7860     		str	r0, [r7, #4]
 570:Drivers/STM32F3xx_HAL_Driver/Inc/stm32f3xx_ll_usart.h ****   return (READ_BIT(USARTx->CR1, USART_CR1_UE) == (USART_CR1_UE));
 270              		.loc 2 570 0
ARM GAS  /tmp/ccc5fm0Q.s 			page 34


 271 0008 7B68     		ldr	r3, [r7, #4]
 272 000a 1B68     		ldr	r3, [r3]
 273 000c 03F00103 		and	r3, r3, #1
 274 0010 012B     		cmp	r3, #1
 275 0012 0CBF     		ite	eq
 276 0014 0123     		moveq	r3, #1
 277 0016 0023     		movne	r3, #0
 278 0018 DBB2     		uxtb	r3, r3
 571:Drivers/STM32F3xx_HAL_Driver/Inc/stm32f3xx_ll_usart.h **** }
 279              		.loc 2 571 0
 280 001a 1846     		mov	r0, r3
 281 001c 0C37     		adds	r7, r7, #12
 282              	.LCFI27:
 283              		.cfi_def_cfa_offset 4
 284 001e BD46     		mov	sp, r7
 285              	.LCFI28:
 286              		.cfi_def_cfa_register 13
 287              		@ sp needed
 288 0020 5DF8047B 		ldr	r7, [sp], #4
 289              	.LCFI29:
 290              		.cfi_restore 7
 291              		.cfi_def_cfa_offset 0
 292 0024 7047     		bx	lr
 293              		.cfi_endproc
 294              	.LFE488:
 296              		.section	.text.LL_USART_DisableSCLKOutput,"ax",%progbits
 297              		.align	1
 298              		.syntax unified
 299              		.thumb
 300              		.thumb_func
 301              		.fpu fpv4-sp-d16
 303              	LL_USART_DisableSCLKOutput:
 304              	.LFB517:
 572:Drivers/STM32F3xx_HAL_Driver/Inc/stm32f3xx_ll_usart.h **** 
 573:Drivers/STM32F3xx_HAL_Driver/Inc/stm32f3xx_ll_usart.h **** /**
 574:Drivers/STM32F3xx_HAL_Driver/Inc/stm32f3xx_ll_usart.h ****   * @brief  USART enabled in STOP Mode.
 575:Drivers/STM32F3xx_HAL_Driver/Inc/stm32f3xx_ll_usart.h ****   * @note   When this function is enabled, USART is able to wake up the MCU from Stop mode, provide
 576:Drivers/STM32F3xx_HAL_Driver/Inc/stm32f3xx_ll_usart.h ****   *         USART clock selection is HSI or LSE in RCC.
 577:Drivers/STM32F3xx_HAL_Driver/Inc/stm32f3xx_ll_usart.h ****   * @note   Macro @ref IS_UART_WAKEUP_FROMSTOP_INSTANCE(USARTx) can be used to check whether or not
 578:Drivers/STM32F3xx_HAL_Driver/Inc/stm32f3xx_ll_usart.h ****   *         Wake-up from Stop mode feature is supported by the USARTx instance.
 579:Drivers/STM32F3xx_HAL_Driver/Inc/stm32f3xx_ll_usart.h ****   * @rmtoll CR1          UESM          LL_USART_EnableInStopMode
 580:Drivers/STM32F3xx_HAL_Driver/Inc/stm32f3xx_ll_usart.h ****   * @param  USARTx USART Instance
 581:Drivers/STM32F3xx_HAL_Driver/Inc/stm32f3xx_ll_usart.h ****   * @retval None
 582:Drivers/STM32F3xx_HAL_Driver/Inc/stm32f3xx_ll_usart.h ****   */
 583:Drivers/STM32F3xx_HAL_Driver/Inc/stm32f3xx_ll_usart.h **** __STATIC_INLINE void LL_USART_EnableInStopMode(USART_TypeDef *USARTx)
 584:Drivers/STM32F3xx_HAL_Driver/Inc/stm32f3xx_ll_usart.h **** {
 585:Drivers/STM32F3xx_HAL_Driver/Inc/stm32f3xx_ll_usart.h ****   SET_BIT(USARTx->CR1, USART_CR1_UESM);
 586:Drivers/STM32F3xx_HAL_Driver/Inc/stm32f3xx_ll_usart.h **** }
 587:Drivers/STM32F3xx_HAL_Driver/Inc/stm32f3xx_ll_usart.h **** 
 588:Drivers/STM32F3xx_HAL_Driver/Inc/stm32f3xx_ll_usart.h **** /**
 589:Drivers/STM32F3xx_HAL_Driver/Inc/stm32f3xx_ll_usart.h ****   * @brief  USART disabled in STOP Mode.
 590:Drivers/STM32F3xx_HAL_Driver/Inc/stm32f3xx_ll_usart.h ****   * @note   When this function is disabled, USART is not able to wake up the MCU from Stop mode
 591:Drivers/STM32F3xx_HAL_Driver/Inc/stm32f3xx_ll_usart.h ****   * @note   Macro @ref IS_UART_WAKEUP_FROMSTOP_INSTANCE(USARTx) can be used to check whether or not
 592:Drivers/STM32F3xx_HAL_Driver/Inc/stm32f3xx_ll_usart.h ****   *         Wake-up from Stop mode feature is supported by the USARTx instance.
 593:Drivers/STM32F3xx_HAL_Driver/Inc/stm32f3xx_ll_usart.h ****   * @rmtoll CR1          UESM          LL_USART_DisableInStopMode
 594:Drivers/STM32F3xx_HAL_Driver/Inc/stm32f3xx_ll_usart.h ****   * @param  USARTx USART Instance
 595:Drivers/STM32F3xx_HAL_Driver/Inc/stm32f3xx_ll_usart.h ****   * @retval None
ARM GAS  /tmp/ccc5fm0Q.s 			page 35


 596:Drivers/STM32F3xx_HAL_Driver/Inc/stm32f3xx_ll_usart.h ****   */
 597:Drivers/STM32F3xx_HAL_Driver/Inc/stm32f3xx_ll_usart.h **** __STATIC_INLINE void LL_USART_DisableInStopMode(USART_TypeDef *USARTx)
 598:Drivers/STM32F3xx_HAL_Driver/Inc/stm32f3xx_ll_usart.h **** {
 599:Drivers/STM32F3xx_HAL_Driver/Inc/stm32f3xx_ll_usart.h ****   CLEAR_BIT(USARTx->CR1, USART_CR1_UESM);
 600:Drivers/STM32F3xx_HAL_Driver/Inc/stm32f3xx_ll_usart.h **** }
 601:Drivers/STM32F3xx_HAL_Driver/Inc/stm32f3xx_ll_usart.h **** 
 602:Drivers/STM32F3xx_HAL_Driver/Inc/stm32f3xx_ll_usart.h **** /**
 603:Drivers/STM32F3xx_HAL_Driver/Inc/stm32f3xx_ll_usart.h ****   * @brief  Indicate if USART is enabled in STOP Mode (able to wake up MCU from Stop mode or not)
 604:Drivers/STM32F3xx_HAL_Driver/Inc/stm32f3xx_ll_usart.h ****   * @note   Macro @ref IS_UART_WAKEUP_FROMSTOP_INSTANCE(USARTx) can be used to check whether or not
 605:Drivers/STM32F3xx_HAL_Driver/Inc/stm32f3xx_ll_usart.h ****   *         Wake-up from Stop mode feature is supported by the USARTx instance.
 606:Drivers/STM32F3xx_HAL_Driver/Inc/stm32f3xx_ll_usart.h ****   * @rmtoll CR1          UESM          LL_USART_IsEnabledInStopMode
 607:Drivers/STM32F3xx_HAL_Driver/Inc/stm32f3xx_ll_usart.h ****   * @param  USARTx USART Instance
 608:Drivers/STM32F3xx_HAL_Driver/Inc/stm32f3xx_ll_usart.h ****   * @retval State of bit (1 or 0).
 609:Drivers/STM32F3xx_HAL_Driver/Inc/stm32f3xx_ll_usart.h ****   */
 610:Drivers/STM32F3xx_HAL_Driver/Inc/stm32f3xx_ll_usart.h **** __STATIC_INLINE uint32_t LL_USART_IsEnabledInStopMode(USART_TypeDef *USARTx)
 611:Drivers/STM32F3xx_HAL_Driver/Inc/stm32f3xx_ll_usart.h **** {
 612:Drivers/STM32F3xx_HAL_Driver/Inc/stm32f3xx_ll_usart.h ****   return (READ_BIT(USARTx->CR1, USART_CR1_UESM) == (USART_CR1_UESM));
 613:Drivers/STM32F3xx_HAL_Driver/Inc/stm32f3xx_ll_usart.h **** }
 614:Drivers/STM32F3xx_HAL_Driver/Inc/stm32f3xx_ll_usart.h **** 
 615:Drivers/STM32F3xx_HAL_Driver/Inc/stm32f3xx_ll_usart.h **** /**
 616:Drivers/STM32F3xx_HAL_Driver/Inc/stm32f3xx_ll_usart.h ****   * @brief  Receiver Enable (Receiver is enabled and begins searching for a start bit)
 617:Drivers/STM32F3xx_HAL_Driver/Inc/stm32f3xx_ll_usart.h ****   * @rmtoll CR1          RE            LL_USART_EnableDirectionRx
 618:Drivers/STM32F3xx_HAL_Driver/Inc/stm32f3xx_ll_usart.h ****   * @param  USARTx USART Instance
 619:Drivers/STM32F3xx_HAL_Driver/Inc/stm32f3xx_ll_usart.h ****   * @retval None
 620:Drivers/STM32F3xx_HAL_Driver/Inc/stm32f3xx_ll_usart.h ****   */
 621:Drivers/STM32F3xx_HAL_Driver/Inc/stm32f3xx_ll_usart.h **** __STATIC_INLINE void LL_USART_EnableDirectionRx(USART_TypeDef *USARTx)
 622:Drivers/STM32F3xx_HAL_Driver/Inc/stm32f3xx_ll_usart.h **** {
 623:Drivers/STM32F3xx_HAL_Driver/Inc/stm32f3xx_ll_usart.h ****   SET_BIT(USARTx->CR1, USART_CR1_RE);
 624:Drivers/STM32F3xx_HAL_Driver/Inc/stm32f3xx_ll_usart.h **** }
 625:Drivers/STM32F3xx_HAL_Driver/Inc/stm32f3xx_ll_usart.h **** 
 626:Drivers/STM32F3xx_HAL_Driver/Inc/stm32f3xx_ll_usart.h **** /**
 627:Drivers/STM32F3xx_HAL_Driver/Inc/stm32f3xx_ll_usart.h ****   * @brief  Receiver Disable
 628:Drivers/STM32F3xx_HAL_Driver/Inc/stm32f3xx_ll_usart.h ****   * @rmtoll CR1          RE            LL_USART_DisableDirectionRx
 629:Drivers/STM32F3xx_HAL_Driver/Inc/stm32f3xx_ll_usart.h ****   * @param  USARTx USART Instance
 630:Drivers/STM32F3xx_HAL_Driver/Inc/stm32f3xx_ll_usart.h ****   * @retval None
 631:Drivers/STM32F3xx_HAL_Driver/Inc/stm32f3xx_ll_usart.h ****   */
 632:Drivers/STM32F3xx_HAL_Driver/Inc/stm32f3xx_ll_usart.h **** __STATIC_INLINE void LL_USART_DisableDirectionRx(USART_TypeDef *USARTx)
 633:Drivers/STM32F3xx_HAL_Driver/Inc/stm32f3xx_ll_usart.h **** {
 634:Drivers/STM32F3xx_HAL_Driver/Inc/stm32f3xx_ll_usart.h ****   CLEAR_BIT(USARTx->CR1, USART_CR1_RE);
 635:Drivers/STM32F3xx_HAL_Driver/Inc/stm32f3xx_ll_usart.h **** }
 636:Drivers/STM32F3xx_HAL_Driver/Inc/stm32f3xx_ll_usart.h **** 
 637:Drivers/STM32F3xx_HAL_Driver/Inc/stm32f3xx_ll_usart.h **** /**
 638:Drivers/STM32F3xx_HAL_Driver/Inc/stm32f3xx_ll_usart.h ****   * @brief  Transmitter Enable
 639:Drivers/STM32F3xx_HAL_Driver/Inc/stm32f3xx_ll_usart.h ****   * @rmtoll CR1          TE            LL_USART_EnableDirectionTx
 640:Drivers/STM32F3xx_HAL_Driver/Inc/stm32f3xx_ll_usart.h ****   * @param  USARTx USART Instance
 641:Drivers/STM32F3xx_HAL_Driver/Inc/stm32f3xx_ll_usart.h ****   * @retval None
 642:Drivers/STM32F3xx_HAL_Driver/Inc/stm32f3xx_ll_usart.h ****   */
 643:Drivers/STM32F3xx_HAL_Driver/Inc/stm32f3xx_ll_usart.h **** __STATIC_INLINE void LL_USART_EnableDirectionTx(USART_TypeDef *USARTx)
 644:Drivers/STM32F3xx_HAL_Driver/Inc/stm32f3xx_ll_usart.h **** {
 645:Drivers/STM32F3xx_HAL_Driver/Inc/stm32f3xx_ll_usart.h ****   SET_BIT(USARTx->CR1, USART_CR1_TE);
 646:Drivers/STM32F3xx_HAL_Driver/Inc/stm32f3xx_ll_usart.h **** }
 647:Drivers/STM32F3xx_HAL_Driver/Inc/stm32f3xx_ll_usart.h **** 
 648:Drivers/STM32F3xx_HAL_Driver/Inc/stm32f3xx_ll_usart.h **** /**
 649:Drivers/STM32F3xx_HAL_Driver/Inc/stm32f3xx_ll_usart.h ****   * @brief  Transmitter Disable
 650:Drivers/STM32F3xx_HAL_Driver/Inc/stm32f3xx_ll_usart.h ****   * @rmtoll CR1          TE            LL_USART_DisableDirectionTx
 651:Drivers/STM32F3xx_HAL_Driver/Inc/stm32f3xx_ll_usart.h ****   * @param  USARTx USART Instance
 652:Drivers/STM32F3xx_HAL_Driver/Inc/stm32f3xx_ll_usart.h ****   * @retval None
ARM GAS  /tmp/ccc5fm0Q.s 			page 36


 653:Drivers/STM32F3xx_HAL_Driver/Inc/stm32f3xx_ll_usart.h ****   */
 654:Drivers/STM32F3xx_HAL_Driver/Inc/stm32f3xx_ll_usart.h **** __STATIC_INLINE void LL_USART_DisableDirectionTx(USART_TypeDef *USARTx)
 655:Drivers/STM32F3xx_HAL_Driver/Inc/stm32f3xx_ll_usart.h **** {
 656:Drivers/STM32F3xx_HAL_Driver/Inc/stm32f3xx_ll_usart.h ****   CLEAR_BIT(USARTx->CR1, USART_CR1_TE);
 657:Drivers/STM32F3xx_HAL_Driver/Inc/stm32f3xx_ll_usart.h **** }
 658:Drivers/STM32F3xx_HAL_Driver/Inc/stm32f3xx_ll_usart.h **** 
 659:Drivers/STM32F3xx_HAL_Driver/Inc/stm32f3xx_ll_usart.h **** /**
 660:Drivers/STM32F3xx_HAL_Driver/Inc/stm32f3xx_ll_usart.h ****   * @brief  Configure simultaneously enabled/disabled states
 661:Drivers/STM32F3xx_HAL_Driver/Inc/stm32f3xx_ll_usart.h ****   *         of Transmitter and Receiver
 662:Drivers/STM32F3xx_HAL_Driver/Inc/stm32f3xx_ll_usart.h ****   * @rmtoll CR1          RE            LL_USART_SetTransferDirection\n
 663:Drivers/STM32F3xx_HAL_Driver/Inc/stm32f3xx_ll_usart.h ****   *         CR1          TE            LL_USART_SetTransferDirection
 664:Drivers/STM32F3xx_HAL_Driver/Inc/stm32f3xx_ll_usart.h ****   * @param  USARTx USART Instance
 665:Drivers/STM32F3xx_HAL_Driver/Inc/stm32f3xx_ll_usart.h ****   * @param  TransferDirection This parameter can be one of the following values:
 666:Drivers/STM32F3xx_HAL_Driver/Inc/stm32f3xx_ll_usart.h ****   *         @arg @ref LL_USART_DIRECTION_NONE
 667:Drivers/STM32F3xx_HAL_Driver/Inc/stm32f3xx_ll_usart.h ****   *         @arg @ref LL_USART_DIRECTION_RX
 668:Drivers/STM32F3xx_HAL_Driver/Inc/stm32f3xx_ll_usart.h ****   *         @arg @ref LL_USART_DIRECTION_TX
 669:Drivers/STM32F3xx_HAL_Driver/Inc/stm32f3xx_ll_usart.h ****   *         @arg @ref LL_USART_DIRECTION_TX_RX
 670:Drivers/STM32F3xx_HAL_Driver/Inc/stm32f3xx_ll_usart.h ****   * @retval None
 671:Drivers/STM32F3xx_HAL_Driver/Inc/stm32f3xx_ll_usart.h ****   */
 672:Drivers/STM32F3xx_HAL_Driver/Inc/stm32f3xx_ll_usart.h **** __STATIC_INLINE void LL_USART_SetTransferDirection(USART_TypeDef *USARTx, uint32_t TransferDirectio
 673:Drivers/STM32F3xx_HAL_Driver/Inc/stm32f3xx_ll_usart.h **** {
 674:Drivers/STM32F3xx_HAL_Driver/Inc/stm32f3xx_ll_usart.h ****   MODIFY_REG(USARTx->CR1, USART_CR1_RE | USART_CR1_TE, TransferDirection);
 675:Drivers/STM32F3xx_HAL_Driver/Inc/stm32f3xx_ll_usart.h **** }
 676:Drivers/STM32F3xx_HAL_Driver/Inc/stm32f3xx_ll_usart.h **** 
 677:Drivers/STM32F3xx_HAL_Driver/Inc/stm32f3xx_ll_usart.h **** /**
 678:Drivers/STM32F3xx_HAL_Driver/Inc/stm32f3xx_ll_usart.h ****   * @brief  Return enabled/disabled states of Transmitter and Receiver
 679:Drivers/STM32F3xx_HAL_Driver/Inc/stm32f3xx_ll_usart.h ****   * @rmtoll CR1          RE            LL_USART_GetTransferDirection\n
 680:Drivers/STM32F3xx_HAL_Driver/Inc/stm32f3xx_ll_usart.h ****   *         CR1          TE            LL_USART_GetTransferDirection
 681:Drivers/STM32F3xx_HAL_Driver/Inc/stm32f3xx_ll_usart.h ****   * @param  USARTx USART Instance
 682:Drivers/STM32F3xx_HAL_Driver/Inc/stm32f3xx_ll_usart.h ****   * @retval Returned value can be one of the following values:
 683:Drivers/STM32F3xx_HAL_Driver/Inc/stm32f3xx_ll_usart.h ****   *         @arg @ref LL_USART_DIRECTION_NONE
 684:Drivers/STM32F3xx_HAL_Driver/Inc/stm32f3xx_ll_usart.h ****   *         @arg @ref LL_USART_DIRECTION_RX
 685:Drivers/STM32F3xx_HAL_Driver/Inc/stm32f3xx_ll_usart.h ****   *         @arg @ref LL_USART_DIRECTION_TX
 686:Drivers/STM32F3xx_HAL_Driver/Inc/stm32f3xx_ll_usart.h ****   *         @arg @ref LL_USART_DIRECTION_TX_RX
 687:Drivers/STM32F3xx_HAL_Driver/Inc/stm32f3xx_ll_usart.h ****   */
 688:Drivers/STM32F3xx_HAL_Driver/Inc/stm32f3xx_ll_usart.h **** __STATIC_INLINE uint32_t LL_USART_GetTransferDirection(USART_TypeDef *USARTx)
 689:Drivers/STM32F3xx_HAL_Driver/Inc/stm32f3xx_ll_usart.h **** {
 690:Drivers/STM32F3xx_HAL_Driver/Inc/stm32f3xx_ll_usart.h ****   return (uint32_t)(READ_BIT(USARTx->CR1, USART_CR1_RE | USART_CR1_TE));
 691:Drivers/STM32F3xx_HAL_Driver/Inc/stm32f3xx_ll_usart.h **** }
 692:Drivers/STM32F3xx_HAL_Driver/Inc/stm32f3xx_ll_usart.h **** 
 693:Drivers/STM32F3xx_HAL_Driver/Inc/stm32f3xx_ll_usart.h **** /**
 694:Drivers/STM32F3xx_HAL_Driver/Inc/stm32f3xx_ll_usart.h ****   * @brief  Configure Parity (enabled/disabled and parity mode if enabled).
 695:Drivers/STM32F3xx_HAL_Driver/Inc/stm32f3xx_ll_usart.h ****   * @note   This function selects if hardware parity control (generation and detection) is enabled 
 696:Drivers/STM32F3xx_HAL_Driver/Inc/stm32f3xx_ll_usart.h ****   *         When the parity control is enabled (Odd or Even), computed parity bit is inserted at th
 697:Drivers/STM32F3xx_HAL_Driver/Inc/stm32f3xx_ll_usart.h ****   *         (9th or 8th bit depending on data width) and parity is checked on the received data.
 698:Drivers/STM32F3xx_HAL_Driver/Inc/stm32f3xx_ll_usart.h ****   * @rmtoll CR1          PS            LL_USART_SetParity\n
 699:Drivers/STM32F3xx_HAL_Driver/Inc/stm32f3xx_ll_usart.h ****   *         CR1          PCE           LL_USART_SetParity
 700:Drivers/STM32F3xx_HAL_Driver/Inc/stm32f3xx_ll_usart.h ****   * @param  USARTx USART Instance
 701:Drivers/STM32F3xx_HAL_Driver/Inc/stm32f3xx_ll_usart.h ****   * @param  Parity This parameter can be one of the following values:
 702:Drivers/STM32F3xx_HAL_Driver/Inc/stm32f3xx_ll_usart.h ****   *         @arg @ref LL_USART_PARITY_NONE
 703:Drivers/STM32F3xx_HAL_Driver/Inc/stm32f3xx_ll_usart.h ****   *         @arg @ref LL_USART_PARITY_EVEN
 704:Drivers/STM32F3xx_HAL_Driver/Inc/stm32f3xx_ll_usart.h ****   *         @arg @ref LL_USART_PARITY_ODD
 705:Drivers/STM32F3xx_HAL_Driver/Inc/stm32f3xx_ll_usart.h ****   * @retval None
 706:Drivers/STM32F3xx_HAL_Driver/Inc/stm32f3xx_ll_usart.h ****   */
 707:Drivers/STM32F3xx_HAL_Driver/Inc/stm32f3xx_ll_usart.h **** __STATIC_INLINE void LL_USART_SetParity(USART_TypeDef *USARTx, uint32_t Parity)
 708:Drivers/STM32F3xx_HAL_Driver/Inc/stm32f3xx_ll_usart.h **** {
 709:Drivers/STM32F3xx_HAL_Driver/Inc/stm32f3xx_ll_usart.h ****   MODIFY_REG(USARTx->CR1, USART_CR1_PS | USART_CR1_PCE, Parity);
ARM GAS  /tmp/ccc5fm0Q.s 			page 37


 710:Drivers/STM32F3xx_HAL_Driver/Inc/stm32f3xx_ll_usart.h **** }
 711:Drivers/STM32F3xx_HAL_Driver/Inc/stm32f3xx_ll_usart.h **** 
 712:Drivers/STM32F3xx_HAL_Driver/Inc/stm32f3xx_ll_usart.h **** /**
 713:Drivers/STM32F3xx_HAL_Driver/Inc/stm32f3xx_ll_usart.h ****   * @brief  Return Parity configuration (enabled/disabled and parity mode if enabled)
 714:Drivers/STM32F3xx_HAL_Driver/Inc/stm32f3xx_ll_usart.h ****   * @rmtoll CR1          PS            LL_USART_GetParity\n
 715:Drivers/STM32F3xx_HAL_Driver/Inc/stm32f3xx_ll_usart.h ****   *         CR1          PCE           LL_USART_GetParity
 716:Drivers/STM32F3xx_HAL_Driver/Inc/stm32f3xx_ll_usart.h ****   * @param  USARTx USART Instance
 717:Drivers/STM32F3xx_HAL_Driver/Inc/stm32f3xx_ll_usart.h ****   * @retval Returned value can be one of the following values:
 718:Drivers/STM32F3xx_HAL_Driver/Inc/stm32f3xx_ll_usart.h ****   *         @arg @ref LL_USART_PARITY_NONE
 719:Drivers/STM32F3xx_HAL_Driver/Inc/stm32f3xx_ll_usart.h ****   *         @arg @ref LL_USART_PARITY_EVEN
 720:Drivers/STM32F3xx_HAL_Driver/Inc/stm32f3xx_ll_usart.h ****   *         @arg @ref LL_USART_PARITY_ODD
 721:Drivers/STM32F3xx_HAL_Driver/Inc/stm32f3xx_ll_usart.h ****   */
 722:Drivers/STM32F3xx_HAL_Driver/Inc/stm32f3xx_ll_usart.h **** __STATIC_INLINE uint32_t LL_USART_GetParity(USART_TypeDef *USARTx)
 723:Drivers/STM32F3xx_HAL_Driver/Inc/stm32f3xx_ll_usart.h **** {
 724:Drivers/STM32F3xx_HAL_Driver/Inc/stm32f3xx_ll_usart.h ****   return (uint32_t)(READ_BIT(USARTx->CR1, USART_CR1_PS | USART_CR1_PCE));
 725:Drivers/STM32F3xx_HAL_Driver/Inc/stm32f3xx_ll_usart.h **** }
 726:Drivers/STM32F3xx_HAL_Driver/Inc/stm32f3xx_ll_usart.h **** 
 727:Drivers/STM32F3xx_HAL_Driver/Inc/stm32f3xx_ll_usart.h **** /**
 728:Drivers/STM32F3xx_HAL_Driver/Inc/stm32f3xx_ll_usart.h ****   * @brief  Set Receiver Wake Up method from Mute mode.
 729:Drivers/STM32F3xx_HAL_Driver/Inc/stm32f3xx_ll_usart.h ****   * @rmtoll CR1          WAKE          LL_USART_SetWakeUpMethod
 730:Drivers/STM32F3xx_HAL_Driver/Inc/stm32f3xx_ll_usart.h ****   * @param  USARTx USART Instance
 731:Drivers/STM32F3xx_HAL_Driver/Inc/stm32f3xx_ll_usart.h ****   * @param  Method This parameter can be one of the following values:
 732:Drivers/STM32F3xx_HAL_Driver/Inc/stm32f3xx_ll_usart.h ****   *         @arg @ref LL_USART_WAKEUP_IDLELINE
 733:Drivers/STM32F3xx_HAL_Driver/Inc/stm32f3xx_ll_usart.h ****   *         @arg @ref LL_USART_WAKEUP_ADDRESSMARK
 734:Drivers/STM32F3xx_HAL_Driver/Inc/stm32f3xx_ll_usart.h ****   * @retval None
 735:Drivers/STM32F3xx_HAL_Driver/Inc/stm32f3xx_ll_usart.h ****   */
 736:Drivers/STM32F3xx_HAL_Driver/Inc/stm32f3xx_ll_usart.h **** __STATIC_INLINE void LL_USART_SetWakeUpMethod(USART_TypeDef *USARTx, uint32_t Method)
 737:Drivers/STM32F3xx_HAL_Driver/Inc/stm32f3xx_ll_usart.h **** {
 738:Drivers/STM32F3xx_HAL_Driver/Inc/stm32f3xx_ll_usart.h ****   MODIFY_REG(USARTx->CR1, USART_CR1_WAKE, Method);
 739:Drivers/STM32F3xx_HAL_Driver/Inc/stm32f3xx_ll_usart.h **** }
 740:Drivers/STM32F3xx_HAL_Driver/Inc/stm32f3xx_ll_usart.h **** 
 741:Drivers/STM32F3xx_HAL_Driver/Inc/stm32f3xx_ll_usart.h **** /**
 742:Drivers/STM32F3xx_HAL_Driver/Inc/stm32f3xx_ll_usart.h ****   * @brief  Return Receiver Wake Up method from Mute mode
 743:Drivers/STM32F3xx_HAL_Driver/Inc/stm32f3xx_ll_usart.h ****   * @rmtoll CR1          WAKE          LL_USART_GetWakeUpMethod
 744:Drivers/STM32F3xx_HAL_Driver/Inc/stm32f3xx_ll_usart.h ****   * @param  USARTx USART Instance
 745:Drivers/STM32F3xx_HAL_Driver/Inc/stm32f3xx_ll_usart.h ****   * @retval Returned value can be one of the following values:
 746:Drivers/STM32F3xx_HAL_Driver/Inc/stm32f3xx_ll_usart.h ****   *         @arg @ref LL_USART_WAKEUP_IDLELINE
 747:Drivers/STM32F3xx_HAL_Driver/Inc/stm32f3xx_ll_usart.h ****   *         @arg @ref LL_USART_WAKEUP_ADDRESSMARK
 748:Drivers/STM32F3xx_HAL_Driver/Inc/stm32f3xx_ll_usart.h ****   */
 749:Drivers/STM32F3xx_HAL_Driver/Inc/stm32f3xx_ll_usart.h **** __STATIC_INLINE uint32_t LL_USART_GetWakeUpMethod(USART_TypeDef *USARTx)
 750:Drivers/STM32F3xx_HAL_Driver/Inc/stm32f3xx_ll_usart.h **** {
 751:Drivers/STM32F3xx_HAL_Driver/Inc/stm32f3xx_ll_usart.h ****   return (uint32_t)(READ_BIT(USARTx->CR1, USART_CR1_WAKE));
 752:Drivers/STM32F3xx_HAL_Driver/Inc/stm32f3xx_ll_usart.h **** }
 753:Drivers/STM32F3xx_HAL_Driver/Inc/stm32f3xx_ll_usart.h **** 
 754:Drivers/STM32F3xx_HAL_Driver/Inc/stm32f3xx_ll_usart.h **** /**
 755:Drivers/STM32F3xx_HAL_Driver/Inc/stm32f3xx_ll_usart.h ****   * @brief  Set Word length (i.e. nb of data bits, excluding start and stop bits)
 756:Drivers/STM32F3xx_HAL_Driver/Inc/stm32f3xx_ll_usart.h ****   * @rmtoll CR1          M0            LL_USART_SetDataWidth\n
 757:Drivers/STM32F3xx_HAL_Driver/Inc/stm32f3xx_ll_usart.h ****   *         CR1          M1            LL_USART_SetDataWidth
 758:Drivers/STM32F3xx_HAL_Driver/Inc/stm32f3xx_ll_usart.h ****   * @param  USARTx USART Instance
 759:Drivers/STM32F3xx_HAL_Driver/Inc/stm32f3xx_ll_usart.h ****   * @param  DataWidth This parameter can be one of the following values:
 760:Drivers/STM32F3xx_HAL_Driver/Inc/stm32f3xx_ll_usart.h ****   *         @arg @ref LL_USART_DATAWIDTH_7B (*)
 761:Drivers/STM32F3xx_HAL_Driver/Inc/stm32f3xx_ll_usart.h ****   *         @arg @ref LL_USART_DATAWIDTH_8B
 762:Drivers/STM32F3xx_HAL_Driver/Inc/stm32f3xx_ll_usart.h ****   *         @arg @ref LL_USART_DATAWIDTH_9B
 763:Drivers/STM32F3xx_HAL_Driver/Inc/stm32f3xx_ll_usart.h ****   *
 764:Drivers/STM32F3xx_HAL_Driver/Inc/stm32f3xx_ll_usart.h ****   *         (*) Values not available on all devices
 765:Drivers/STM32F3xx_HAL_Driver/Inc/stm32f3xx_ll_usart.h ****   * @retval None
 766:Drivers/STM32F3xx_HAL_Driver/Inc/stm32f3xx_ll_usart.h ****   */
ARM GAS  /tmp/ccc5fm0Q.s 			page 38


 767:Drivers/STM32F3xx_HAL_Driver/Inc/stm32f3xx_ll_usart.h **** __STATIC_INLINE void LL_USART_SetDataWidth(USART_TypeDef *USARTx, uint32_t DataWidth)
 768:Drivers/STM32F3xx_HAL_Driver/Inc/stm32f3xx_ll_usart.h **** {
 769:Drivers/STM32F3xx_HAL_Driver/Inc/stm32f3xx_ll_usart.h ****   MODIFY_REG(USARTx->CR1, USART_CR1_M, DataWidth);
 770:Drivers/STM32F3xx_HAL_Driver/Inc/stm32f3xx_ll_usart.h **** }
 771:Drivers/STM32F3xx_HAL_Driver/Inc/stm32f3xx_ll_usart.h **** 
 772:Drivers/STM32F3xx_HAL_Driver/Inc/stm32f3xx_ll_usart.h **** /**
 773:Drivers/STM32F3xx_HAL_Driver/Inc/stm32f3xx_ll_usart.h ****   * @brief  Return Word length (i.e. nb of data bits, excluding start and stop bits)
 774:Drivers/STM32F3xx_HAL_Driver/Inc/stm32f3xx_ll_usart.h ****   * @rmtoll CR1          M0            LL_USART_GetDataWidth\n
 775:Drivers/STM32F3xx_HAL_Driver/Inc/stm32f3xx_ll_usart.h ****   *         CR1          M1            LL_USART_GetDataWidth
 776:Drivers/STM32F3xx_HAL_Driver/Inc/stm32f3xx_ll_usart.h ****   * @param  USARTx USART Instance
 777:Drivers/STM32F3xx_HAL_Driver/Inc/stm32f3xx_ll_usart.h ****   * @retval Returned value can be one of the following values:
 778:Drivers/STM32F3xx_HAL_Driver/Inc/stm32f3xx_ll_usart.h ****   *         @arg @ref LL_USART_DATAWIDTH_7B (*)
 779:Drivers/STM32F3xx_HAL_Driver/Inc/stm32f3xx_ll_usart.h ****   *         @arg @ref LL_USART_DATAWIDTH_8B
 780:Drivers/STM32F3xx_HAL_Driver/Inc/stm32f3xx_ll_usart.h ****   *         @arg @ref LL_USART_DATAWIDTH_9B
 781:Drivers/STM32F3xx_HAL_Driver/Inc/stm32f3xx_ll_usart.h ****   *
 782:Drivers/STM32F3xx_HAL_Driver/Inc/stm32f3xx_ll_usart.h ****   *         (*) Values not available on all devices
 783:Drivers/STM32F3xx_HAL_Driver/Inc/stm32f3xx_ll_usart.h ****   */
 784:Drivers/STM32F3xx_HAL_Driver/Inc/stm32f3xx_ll_usart.h **** __STATIC_INLINE uint32_t LL_USART_GetDataWidth(USART_TypeDef *USARTx)
 785:Drivers/STM32F3xx_HAL_Driver/Inc/stm32f3xx_ll_usart.h **** {
 786:Drivers/STM32F3xx_HAL_Driver/Inc/stm32f3xx_ll_usart.h ****   return (uint32_t)(READ_BIT(USARTx->CR1, USART_CR1_M));
 787:Drivers/STM32F3xx_HAL_Driver/Inc/stm32f3xx_ll_usart.h **** }
 788:Drivers/STM32F3xx_HAL_Driver/Inc/stm32f3xx_ll_usart.h **** 
 789:Drivers/STM32F3xx_HAL_Driver/Inc/stm32f3xx_ll_usart.h **** /**
 790:Drivers/STM32F3xx_HAL_Driver/Inc/stm32f3xx_ll_usart.h ****   * @brief  Allow switch between Mute Mode and Active mode
 791:Drivers/STM32F3xx_HAL_Driver/Inc/stm32f3xx_ll_usart.h ****   * @rmtoll CR1          MME           LL_USART_EnableMuteMode
 792:Drivers/STM32F3xx_HAL_Driver/Inc/stm32f3xx_ll_usart.h ****   * @param  USARTx USART Instance
 793:Drivers/STM32F3xx_HAL_Driver/Inc/stm32f3xx_ll_usart.h ****   * @retval None
 794:Drivers/STM32F3xx_HAL_Driver/Inc/stm32f3xx_ll_usart.h ****   */
 795:Drivers/STM32F3xx_HAL_Driver/Inc/stm32f3xx_ll_usart.h **** __STATIC_INLINE void LL_USART_EnableMuteMode(USART_TypeDef *USARTx)
 796:Drivers/STM32F3xx_HAL_Driver/Inc/stm32f3xx_ll_usart.h **** {
 797:Drivers/STM32F3xx_HAL_Driver/Inc/stm32f3xx_ll_usart.h ****   SET_BIT(USARTx->CR1, USART_CR1_MME);
 798:Drivers/STM32F3xx_HAL_Driver/Inc/stm32f3xx_ll_usart.h **** }
 799:Drivers/STM32F3xx_HAL_Driver/Inc/stm32f3xx_ll_usart.h **** 
 800:Drivers/STM32F3xx_HAL_Driver/Inc/stm32f3xx_ll_usart.h **** /**
 801:Drivers/STM32F3xx_HAL_Driver/Inc/stm32f3xx_ll_usart.h ****   * @brief  Prevent Mute Mode use. Set Receiver in active mode permanently.
 802:Drivers/STM32F3xx_HAL_Driver/Inc/stm32f3xx_ll_usart.h ****   * @rmtoll CR1          MME           LL_USART_DisableMuteMode
 803:Drivers/STM32F3xx_HAL_Driver/Inc/stm32f3xx_ll_usart.h ****   * @param  USARTx USART Instance
 804:Drivers/STM32F3xx_HAL_Driver/Inc/stm32f3xx_ll_usart.h ****   * @retval None
 805:Drivers/STM32F3xx_HAL_Driver/Inc/stm32f3xx_ll_usart.h ****   */
 806:Drivers/STM32F3xx_HAL_Driver/Inc/stm32f3xx_ll_usart.h **** __STATIC_INLINE void LL_USART_DisableMuteMode(USART_TypeDef *USARTx)
 807:Drivers/STM32F3xx_HAL_Driver/Inc/stm32f3xx_ll_usart.h **** {
 808:Drivers/STM32F3xx_HAL_Driver/Inc/stm32f3xx_ll_usart.h ****   CLEAR_BIT(USARTx->CR1, USART_CR1_MME);
 809:Drivers/STM32F3xx_HAL_Driver/Inc/stm32f3xx_ll_usart.h **** }
 810:Drivers/STM32F3xx_HAL_Driver/Inc/stm32f3xx_ll_usart.h **** 
 811:Drivers/STM32F3xx_HAL_Driver/Inc/stm32f3xx_ll_usart.h **** /**
 812:Drivers/STM32F3xx_HAL_Driver/Inc/stm32f3xx_ll_usart.h ****   * @brief  Indicate if switch between Mute Mode and Active mode is allowed
 813:Drivers/STM32F3xx_HAL_Driver/Inc/stm32f3xx_ll_usart.h ****   * @rmtoll CR1          MME           LL_USART_IsEnabledMuteMode
 814:Drivers/STM32F3xx_HAL_Driver/Inc/stm32f3xx_ll_usart.h ****   * @param  USARTx USART Instance
 815:Drivers/STM32F3xx_HAL_Driver/Inc/stm32f3xx_ll_usart.h ****   * @retval State of bit (1 or 0).
 816:Drivers/STM32F3xx_HAL_Driver/Inc/stm32f3xx_ll_usart.h ****   */
 817:Drivers/STM32F3xx_HAL_Driver/Inc/stm32f3xx_ll_usart.h **** __STATIC_INLINE uint32_t LL_USART_IsEnabledMuteMode(USART_TypeDef *USARTx)
 818:Drivers/STM32F3xx_HAL_Driver/Inc/stm32f3xx_ll_usart.h **** {
 819:Drivers/STM32F3xx_HAL_Driver/Inc/stm32f3xx_ll_usart.h ****   return (READ_BIT(USARTx->CR1, USART_CR1_MME) == (USART_CR1_MME));
 820:Drivers/STM32F3xx_HAL_Driver/Inc/stm32f3xx_ll_usart.h **** }
 821:Drivers/STM32F3xx_HAL_Driver/Inc/stm32f3xx_ll_usart.h **** 
 822:Drivers/STM32F3xx_HAL_Driver/Inc/stm32f3xx_ll_usart.h **** /**
 823:Drivers/STM32F3xx_HAL_Driver/Inc/stm32f3xx_ll_usart.h ****   * @brief  Set Oversampling to 8-bit or 16-bit mode
ARM GAS  /tmp/ccc5fm0Q.s 			page 39


 824:Drivers/STM32F3xx_HAL_Driver/Inc/stm32f3xx_ll_usart.h ****   * @rmtoll CR1          OVER8         LL_USART_SetOverSampling
 825:Drivers/STM32F3xx_HAL_Driver/Inc/stm32f3xx_ll_usart.h ****   * @param  USARTx USART Instance
 826:Drivers/STM32F3xx_HAL_Driver/Inc/stm32f3xx_ll_usart.h ****   * @param  OverSampling This parameter can be one of the following values:
 827:Drivers/STM32F3xx_HAL_Driver/Inc/stm32f3xx_ll_usart.h ****   *         @arg @ref LL_USART_OVERSAMPLING_16
 828:Drivers/STM32F3xx_HAL_Driver/Inc/stm32f3xx_ll_usart.h ****   *         @arg @ref LL_USART_OVERSAMPLING_8
 829:Drivers/STM32F3xx_HAL_Driver/Inc/stm32f3xx_ll_usart.h ****   * @retval None
 830:Drivers/STM32F3xx_HAL_Driver/Inc/stm32f3xx_ll_usart.h ****   */
 831:Drivers/STM32F3xx_HAL_Driver/Inc/stm32f3xx_ll_usart.h **** __STATIC_INLINE void LL_USART_SetOverSampling(USART_TypeDef *USARTx, uint32_t OverSampling)
 832:Drivers/STM32F3xx_HAL_Driver/Inc/stm32f3xx_ll_usart.h **** {
 833:Drivers/STM32F3xx_HAL_Driver/Inc/stm32f3xx_ll_usart.h ****   MODIFY_REG(USARTx->CR1, USART_CR1_OVER8, OverSampling);
 834:Drivers/STM32F3xx_HAL_Driver/Inc/stm32f3xx_ll_usart.h **** }
 835:Drivers/STM32F3xx_HAL_Driver/Inc/stm32f3xx_ll_usart.h **** 
 836:Drivers/STM32F3xx_HAL_Driver/Inc/stm32f3xx_ll_usart.h **** /**
 837:Drivers/STM32F3xx_HAL_Driver/Inc/stm32f3xx_ll_usart.h ****   * @brief  Return Oversampling mode
 838:Drivers/STM32F3xx_HAL_Driver/Inc/stm32f3xx_ll_usart.h ****   * @rmtoll CR1          OVER8         LL_USART_GetOverSampling
 839:Drivers/STM32F3xx_HAL_Driver/Inc/stm32f3xx_ll_usart.h ****   * @param  USARTx USART Instance
 840:Drivers/STM32F3xx_HAL_Driver/Inc/stm32f3xx_ll_usart.h ****   * @retval Returned value can be one of the following values:
 841:Drivers/STM32F3xx_HAL_Driver/Inc/stm32f3xx_ll_usart.h ****   *         @arg @ref LL_USART_OVERSAMPLING_16
 842:Drivers/STM32F3xx_HAL_Driver/Inc/stm32f3xx_ll_usart.h ****   *         @arg @ref LL_USART_OVERSAMPLING_8
 843:Drivers/STM32F3xx_HAL_Driver/Inc/stm32f3xx_ll_usart.h ****   */
 844:Drivers/STM32F3xx_HAL_Driver/Inc/stm32f3xx_ll_usart.h **** __STATIC_INLINE uint32_t LL_USART_GetOverSampling(USART_TypeDef *USARTx)
 845:Drivers/STM32F3xx_HAL_Driver/Inc/stm32f3xx_ll_usart.h **** {
 846:Drivers/STM32F3xx_HAL_Driver/Inc/stm32f3xx_ll_usart.h ****   return (uint32_t)(READ_BIT(USARTx->CR1, USART_CR1_OVER8));
 847:Drivers/STM32F3xx_HAL_Driver/Inc/stm32f3xx_ll_usart.h **** }
 848:Drivers/STM32F3xx_HAL_Driver/Inc/stm32f3xx_ll_usart.h **** 
 849:Drivers/STM32F3xx_HAL_Driver/Inc/stm32f3xx_ll_usart.h **** /**
 850:Drivers/STM32F3xx_HAL_Driver/Inc/stm32f3xx_ll_usart.h ****   * @brief  Configure if Clock pulse of the last data bit is output to the SCLK pin or not
 851:Drivers/STM32F3xx_HAL_Driver/Inc/stm32f3xx_ll_usart.h ****   * @note   Macro @ref IS_USART_INSTANCE(USARTx) can be used to check whether or not
 852:Drivers/STM32F3xx_HAL_Driver/Inc/stm32f3xx_ll_usart.h ****   *         Synchronous mode is supported by the USARTx instance.
 853:Drivers/STM32F3xx_HAL_Driver/Inc/stm32f3xx_ll_usart.h ****   * @rmtoll CR2          LBCL          LL_USART_SetLastClkPulseOutput
 854:Drivers/STM32F3xx_HAL_Driver/Inc/stm32f3xx_ll_usart.h ****   * @param  USARTx USART Instance
 855:Drivers/STM32F3xx_HAL_Driver/Inc/stm32f3xx_ll_usart.h ****   * @param  LastBitClockPulse This parameter can be one of the following values:
 856:Drivers/STM32F3xx_HAL_Driver/Inc/stm32f3xx_ll_usart.h ****   *         @arg @ref LL_USART_LASTCLKPULSE_NO_OUTPUT
 857:Drivers/STM32F3xx_HAL_Driver/Inc/stm32f3xx_ll_usart.h ****   *         @arg @ref LL_USART_LASTCLKPULSE_OUTPUT
 858:Drivers/STM32F3xx_HAL_Driver/Inc/stm32f3xx_ll_usart.h ****   * @retval None
 859:Drivers/STM32F3xx_HAL_Driver/Inc/stm32f3xx_ll_usart.h ****   */
 860:Drivers/STM32F3xx_HAL_Driver/Inc/stm32f3xx_ll_usart.h **** __STATIC_INLINE void LL_USART_SetLastClkPulseOutput(USART_TypeDef *USARTx, uint32_t LastBitClockPul
 861:Drivers/STM32F3xx_HAL_Driver/Inc/stm32f3xx_ll_usart.h **** {
 862:Drivers/STM32F3xx_HAL_Driver/Inc/stm32f3xx_ll_usart.h ****   MODIFY_REG(USARTx->CR2, USART_CR2_LBCL, LastBitClockPulse);
 863:Drivers/STM32F3xx_HAL_Driver/Inc/stm32f3xx_ll_usart.h **** }
 864:Drivers/STM32F3xx_HAL_Driver/Inc/stm32f3xx_ll_usart.h **** 
 865:Drivers/STM32F3xx_HAL_Driver/Inc/stm32f3xx_ll_usart.h **** /**
 866:Drivers/STM32F3xx_HAL_Driver/Inc/stm32f3xx_ll_usart.h ****   * @brief  Retrieve Clock pulse of the last data bit output configuration
 867:Drivers/STM32F3xx_HAL_Driver/Inc/stm32f3xx_ll_usart.h ****   *         (Last bit Clock pulse output to the SCLK pin or not)
 868:Drivers/STM32F3xx_HAL_Driver/Inc/stm32f3xx_ll_usart.h ****   * @note   Macro @ref IS_USART_INSTANCE(USARTx) can be used to check whether or not
 869:Drivers/STM32F3xx_HAL_Driver/Inc/stm32f3xx_ll_usart.h ****   *         Synchronous mode is supported by the USARTx instance.
 870:Drivers/STM32F3xx_HAL_Driver/Inc/stm32f3xx_ll_usart.h ****   * @rmtoll CR2          LBCL          LL_USART_GetLastClkPulseOutput
 871:Drivers/STM32F3xx_HAL_Driver/Inc/stm32f3xx_ll_usart.h ****   * @param  USARTx USART Instance
 872:Drivers/STM32F3xx_HAL_Driver/Inc/stm32f3xx_ll_usart.h ****   * @retval Returned value can be one of the following values:
 873:Drivers/STM32F3xx_HAL_Driver/Inc/stm32f3xx_ll_usart.h ****   *         @arg @ref LL_USART_LASTCLKPULSE_NO_OUTPUT
 874:Drivers/STM32F3xx_HAL_Driver/Inc/stm32f3xx_ll_usart.h ****   *         @arg @ref LL_USART_LASTCLKPULSE_OUTPUT
 875:Drivers/STM32F3xx_HAL_Driver/Inc/stm32f3xx_ll_usart.h ****   */
 876:Drivers/STM32F3xx_HAL_Driver/Inc/stm32f3xx_ll_usart.h **** __STATIC_INLINE uint32_t LL_USART_GetLastClkPulseOutput(USART_TypeDef *USARTx)
 877:Drivers/STM32F3xx_HAL_Driver/Inc/stm32f3xx_ll_usart.h **** {
 878:Drivers/STM32F3xx_HAL_Driver/Inc/stm32f3xx_ll_usart.h ****   return (uint32_t)(READ_BIT(USARTx->CR2, USART_CR2_LBCL));
 879:Drivers/STM32F3xx_HAL_Driver/Inc/stm32f3xx_ll_usart.h **** }
 880:Drivers/STM32F3xx_HAL_Driver/Inc/stm32f3xx_ll_usart.h **** 
ARM GAS  /tmp/ccc5fm0Q.s 			page 40


 881:Drivers/STM32F3xx_HAL_Driver/Inc/stm32f3xx_ll_usart.h **** /**
 882:Drivers/STM32F3xx_HAL_Driver/Inc/stm32f3xx_ll_usart.h ****   * @brief  Select the phase of the clock output on the SCLK pin in synchronous mode
 883:Drivers/STM32F3xx_HAL_Driver/Inc/stm32f3xx_ll_usart.h ****   * @note   Macro @ref IS_USART_INSTANCE(USARTx) can be used to check whether or not
 884:Drivers/STM32F3xx_HAL_Driver/Inc/stm32f3xx_ll_usart.h ****   *         Synchronous mode is supported by the USARTx instance.
 885:Drivers/STM32F3xx_HAL_Driver/Inc/stm32f3xx_ll_usart.h ****   * @rmtoll CR2          CPHA          LL_USART_SetClockPhase
 886:Drivers/STM32F3xx_HAL_Driver/Inc/stm32f3xx_ll_usart.h ****   * @param  USARTx USART Instance
 887:Drivers/STM32F3xx_HAL_Driver/Inc/stm32f3xx_ll_usart.h ****   * @param  ClockPhase This parameter can be one of the following values:
 888:Drivers/STM32F3xx_HAL_Driver/Inc/stm32f3xx_ll_usart.h ****   *         @arg @ref LL_USART_PHASE_1EDGE
 889:Drivers/STM32F3xx_HAL_Driver/Inc/stm32f3xx_ll_usart.h ****   *         @arg @ref LL_USART_PHASE_2EDGE
 890:Drivers/STM32F3xx_HAL_Driver/Inc/stm32f3xx_ll_usart.h ****   * @retval None
 891:Drivers/STM32F3xx_HAL_Driver/Inc/stm32f3xx_ll_usart.h ****   */
 892:Drivers/STM32F3xx_HAL_Driver/Inc/stm32f3xx_ll_usart.h **** __STATIC_INLINE void LL_USART_SetClockPhase(USART_TypeDef *USARTx, uint32_t ClockPhase)
 893:Drivers/STM32F3xx_HAL_Driver/Inc/stm32f3xx_ll_usart.h **** {
 894:Drivers/STM32F3xx_HAL_Driver/Inc/stm32f3xx_ll_usart.h ****   MODIFY_REG(USARTx->CR2, USART_CR2_CPHA, ClockPhase);
 895:Drivers/STM32F3xx_HAL_Driver/Inc/stm32f3xx_ll_usart.h **** }
 896:Drivers/STM32F3xx_HAL_Driver/Inc/stm32f3xx_ll_usart.h **** 
 897:Drivers/STM32F3xx_HAL_Driver/Inc/stm32f3xx_ll_usart.h **** /**
 898:Drivers/STM32F3xx_HAL_Driver/Inc/stm32f3xx_ll_usart.h ****   * @brief  Return phase of the clock output on the SCLK pin in synchronous mode
 899:Drivers/STM32F3xx_HAL_Driver/Inc/stm32f3xx_ll_usart.h ****   * @note   Macro @ref IS_USART_INSTANCE(USARTx) can be used to check whether or not
 900:Drivers/STM32F3xx_HAL_Driver/Inc/stm32f3xx_ll_usart.h ****   *         Synchronous mode is supported by the USARTx instance.
 901:Drivers/STM32F3xx_HAL_Driver/Inc/stm32f3xx_ll_usart.h ****   * @rmtoll CR2          CPHA          LL_USART_GetClockPhase
 902:Drivers/STM32F3xx_HAL_Driver/Inc/stm32f3xx_ll_usart.h ****   * @param  USARTx USART Instance
 903:Drivers/STM32F3xx_HAL_Driver/Inc/stm32f3xx_ll_usart.h ****   * @retval Returned value can be one of the following values:
 904:Drivers/STM32F3xx_HAL_Driver/Inc/stm32f3xx_ll_usart.h ****   *         @arg @ref LL_USART_PHASE_1EDGE
 905:Drivers/STM32F3xx_HAL_Driver/Inc/stm32f3xx_ll_usart.h ****   *         @arg @ref LL_USART_PHASE_2EDGE
 906:Drivers/STM32F3xx_HAL_Driver/Inc/stm32f3xx_ll_usart.h ****   */
 907:Drivers/STM32F3xx_HAL_Driver/Inc/stm32f3xx_ll_usart.h **** __STATIC_INLINE uint32_t LL_USART_GetClockPhase(USART_TypeDef *USARTx)
 908:Drivers/STM32F3xx_HAL_Driver/Inc/stm32f3xx_ll_usart.h **** {
 909:Drivers/STM32F3xx_HAL_Driver/Inc/stm32f3xx_ll_usart.h ****   return (uint32_t)(READ_BIT(USARTx->CR2, USART_CR2_CPHA));
 910:Drivers/STM32F3xx_HAL_Driver/Inc/stm32f3xx_ll_usart.h **** }
 911:Drivers/STM32F3xx_HAL_Driver/Inc/stm32f3xx_ll_usart.h **** 
 912:Drivers/STM32F3xx_HAL_Driver/Inc/stm32f3xx_ll_usart.h **** /**
 913:Drivers/STM32F3xx_HAL_Driver/Inc/stm32f3xx_ll_usart.h ****   * @brief  Select the polarity of the clock output on the SCLK pin in synchronous mode
 914:Drivers/STM32F3xx_HAL_Driver/Inc/stm32f3xx_ll_usart.h ****   * @note   Macro @ref IS_USART_INSTANCE(USARTx) can be used to check whether or not
 915:Drivers/STM32F3xx_HAL_Driver/Inc/stm32f3xx_ll_usart.h ****   *         Synchronous mode is supported by the USARTx instance.
 916:Drivers/STM32F3xx_HAL_Driver/Inc/stm32f3xx_ll_usart.h ****   * @rmtoll CR2          CPOL          LL_USART_SetClockPolarity
 917:Drivers/STM32F3xx_HAL_Driver/Inc/stm32f3xx_ll_usart.h ****   * @param  USARTx USART Instance
 918:Drivers/STM32F3xx_HAL_Driver/Inc/stm32f3xx_ll_usart.h ****   * @param  ClockPolarity This parameter can be one of the following values:
 919:Drivers/STM32F3xx_HAL_Driver/Inc/stm32f3xx_ll_usart.h ****   *         @arg @ref LL_USART_POLARITY_LOW
 920:Drivers/STM32F3xx_HAL_Driver/Inc/stm32f3xx_ll_usart.h ****   *         @arg @ref LL_USART_POLARITY_HIGH
 921:Drivers/STM32F3xx_HAL_Driver/Inc/stm32f3xx_ll_usart.h ****   * @retval None
 922:Drivers/STM32F3xx_HAL_Driver/Inc/stm32f3xx_ll_usart.h ****   */
 923:Drivers/STM32F3xx_HAL_Driver/Inc/stm32f3xx_ll_usart.h **** __STATIC_INLINE void LL_USART_SetClockPolarity(USART_TypeDef *USARTx, uint32_t ClockPolarity)
 924:Drivers/STM32F3xx_HAL_Driver/Inc/stm32f3xx_ll_usart.h **** {
 925:Drivers/STM32F3xx_HAL_Driver/Inc/stm32f3xx_ll_usart.h ****   MODIFY_REG(USARTx->CR2, USART_CR2_CPOL, ClockPolarity);
 926:Drivers/STM32F3xx_HAL_Driver/Inc/stm32f3xx_ll_usart.h **** }
 927:Drivers/STM32F3xx_HAL_Driver/Inc/stm32f3xx_ll_usart.h **** 
 928:Drivers/STM32F3xx_HAL_Driver/Inc/stm32f3xx_ll_usart.h **** /**
 929:Drivers/STM32F3xx_HAL_Driver/Inc/stm32f3xx_ll_usart.h ****   * @brief  Return polarity of the clock output on the SCLK pin in synchronous mode
 930:Drivers/STM32F3xx_HAL_Driver/Inc/stm32f3xx_ll_usart.h ****   * @note   Macro @ref IS_USART_INSTANCE(USARTx) can be used to check whether or not
 931:Drivers/STM32F3xx_HAL_Driver/Inc/stm32f3xx_ll_usart.h ****   *         Synchronous mode is supported by the USARTx instance.
 932:Drivers/STM32F3xx_HAL_Driver/Inc/stm32f3xx_ll_usart.h ****   * @rmtoll CR2          CPOL          LL_USART_GetClockPolarity
 933:Drivers/STM32F3xx_HAL_Driver/Inc/stm32f3xx_ll_usart.h ****   * @param  USARTx USART Instance
 934:Drivers/STM32F3xx_HAL_Driver/Inc/stm32f3xx_ll_usart.h ****   * @retval Returned value can be one of the following values:
 935:Drivers/STM32F3xx_HAL_Driver/Inc/stm32f3xx_ll_usart.h ****   *         @arg @ref LL_USART_POLARITY_LOW
 936:Drivers/STM32F3xx_HAL_Driver/Inc/stm32f3xx_ll_usart.h ****   *         @arg @ref LL_USART_POLARITY_HIGH
 937:Drivers/STM32F3xx_HAL_Driver/Inc/stm32f3xx_ll_usart.h ****   */
ARM GAS  /tmp/ccc5fm0Q.s 			page 41


 938:Drivers/STM32F3xx_HAL_Driver/Inc/stm32f3xx_ll_usart.h **** __STATIC_INLINE uint32_t LL_USART_GetClockPolarity(USART_TypeDef *USARTx)
 939:Drivers/STM32F3xx_HAL_Driver/Inc/stm32f3xx_ll_usart.h **** {
 940:Drivers/STM32F3xx_HAL_Driver/Inc/stm32f3xx_ll_usart.h ****   return (uint32_t)(READ_BIT(USARTx->CR2, USART_CR2_CPOL));
 941:Drivers/STM32F3xx_HAL_Driver/Inc/stm32f3xx_ll_usart.h **** }
 942:Drivers/STM32F3xx_HAL_Driver/Inc/stm32f3xx_ll_usart.h **** 
 943:Drivers/STM32F3xx_HAL_Driver/Inc/stm32f3xx_ll_usart.h **** /**
 944:Drivers/STM32F3xx_HAL_Driver/Inc/stm32f3xx_ll_usart.h ****   * @brief  Configure Clock signal format (Phase Polarity and choice about output of last bit clock
 945:Drivers/STM32F3xx_HAL_Driver/Inc/stm32f3xx_ll_usart.h ****   * @note   Macro @ref IS_USART_INSTANCE(USARTx) can be used to check whether or not
 946:Drivers/STM32F3xx_HAL_Driver/Inc/stm32f3xx_ll_usart.h ****   *         Synchronous mode is supported by the USARTx instance.
 947:Drivers/STM32F3xx_HAL_Driver/Inc/stm32f3xx_ll_usart.h ****   * @note   Call of this function is equivalent to following function call sequence :
 948:Drivers/STM32F3xx_HAL_Driver/Inc/stm32f3xx_ll_usart.h ****   *         - Clock Phase configuration using @ref LL_USART_SetClockPhase() function
 949:Drivers/STM32F3xx_HAL_Driver/Inc/stm32f3xx_ll_usart.h ****   *         - Clock Polarity configuration using @ref LL_USART_SetClockPolarity() function
 950:Drivers/STM32F3xx_HAL_Driver/Inc/stm32f3xx_ll_usart.h ****   *         - Output of Last bit Clock pulse configuration using @ref LL_USART_SetLastClkPulseOutpu
 951:Drivers/STM32F3xx_HAL_Driver/Inc/stm32f3xx_ll_usart.h ****   * @rmtoll CR2          CPHA          LL_USART_ConfigClock\n
 952:Drivers/STM32F3xx_HAL_Driver/Inc/stm32f3xx_ll_usart.h ****   *         CR2          CPOL          LL_USART_ConfigClock\n
 953:Drivers/STM32F3xx_HAL_Driver/Inc/stm32f3xx_ll_usart.h ****   *         CR2          LBCL          LL_USART_ConfigClock
 954:Drivers/STM32F3xx_HAL_Driver/Inc/stm32f3xx_ll_usart.h ****   * @param  USARTx USART Instance
 955:Drivers/STM32F3xx_HAL_Driver/Inc/stm32f3xx_ll_usart.h ****   * @param  Phase This parameter can be one of the following values:
 956:Drivers/STM32F3xx_HAL_Driver/Inc/stm32f3xx_ll_usart.h ****   *         @arg @ref LL_USART_PHASE_1EDGE
 957:Drivers/STM32F3xx_HAL_Driver/Inc/stm32f3xx_ll_usart.h ****   *         @arg @ref LL_USART_PHASE_2EDGE
 958:Drivers/STM32F3xx_HAL_Driver/Inc/stm32f3xx_ll_usart.h ****   * @param  Polarity This parameter can be one of the following values:
 959:Drivers/STM32F3xx_HAL_Driver/Inc/stm32f3xx_ll_usart.h ****   *         @arg @ref LL_USART_POLARITY_LOW
 960:Drivers/STM32F3xx_HAL_Driver/Inc/stm32f3xx_ll_usart.h ****   *         @arg @ref LL_USART_POLARITY_HIGH
 961:Drivers/STM32F3xx_HAL_Driver/Inc/stm32f3xx_ll_usart.h ****   * @param  LBCPOutput This parameter can be one of the following values:
 962:Drivers/STM32F3xx_HAL_Driver/Inc/stm32f3xx_ll_usart.h ****   *         @arg @ref LL_USART_LASTCLKPULSE_NO_OUTPUT
 963:Drivers/STM32F3xx_HAL_Driver/Inc/stm32f3xx_ll_usart.h ****   *         @arg @ref LL_USART_LASTCLKPULSE_OUTPUT
 964:Drivers/STM32F3xx_HAL_Driver/Inc/stm32f3xx_ll_usart.h ****   * @retval None
 965:Drivers/STM32F3xx_HAL_Driver/Inc/stm32f3xx_ll_usart.h ****   */
 966:Drivers/STM32F3xx_HAL_Driver/Inc/stm32f3xx_ll_usart.h **** __STATIC_INLINE void LL_USART_ConfigClock(USART_TypeDef *USARTx, uint32_t Phase, uint32_t Polarity,
 967:Drivers/STM32F3xx_HAL_Driver/Inc/stm32f3xx_ll_usart.h **** {
 968:Drivers/STM32F3xx_HAL_Driver/Inc/stm32f3xx_ll_usart.h ****   MODIFY_REG(USARTx->CR2, USART_CR2_CPHA | USART_CR2_CPOL | USART_CR2_LBCL, Phase | Polarity | LBCP
 969:Drivers/STM32F3xx_HAL_Driver/Inc/stm32f3xx_ll_usart.h **** }
 970:Drivers/STM32F3xx_HAL_Driver/Inc/stm32f3xx_ll_usart.h **** 
 971:Drivers/STM32F3xx_HAL_Driver/Inc/stm32f3xx_ll_usart.h **** /**
 972:Drivers/STM32F3xx_HAL_Driver/Inc/stm32f3xx_ll_usart.h ****   * @brief  Enable Clock output on SCLK pin
 973:Drivers/STM32F3xx_HAL_Driver/Inc/stm32f3xx_ll_usart.h ****   * @note   Macro @ref IS_USART_INSTANCE(USARTx) can be used to check whether or not
 974:Drivers/STM32F3xx_HAL_Driver/Inc/stm32f3xx_ll_usart.h ****   *         Synchronous mode is supported by the USARTx instance.
 975:Drivers/STM32F3xx_HAL_Driver/Inc/stm32f3xx_ll_usart.h ****   * @rmtoll CR2          CLKEN         LL_USART_EnableSCLKOutput
 976:Drivers/STM32F3xx_HAL_Driver/Inc/stm32f3xx_ll_usart.h ****   * @param  USARTx USART Instance
 977:Drivers/STM32F3xx_HAL_Driver/Inc/stm32f3xx_ll_usart.h ****   * @retval None
 978:Drivers/STM32F3xx_HAL_Driver/Inc/stm32f3xx_ll_usart.h ****   */
 979:Drivers/STM32F3xx_HAL_Driver/Inc/stm32f3xx_ll_usart.h **** __STATIC_INLINE void LL_USART_EnableSCLKOutput(USART_TypeDef *USARTx)
 980:Drivers/STM32F3xx_HAL_Driver/Inc/stm32f3xx_ll_usart.h **** {
 981:Drivers/STM32F3xx_HAL_Driver/Inc/stm32f3xx_ll_usart.h ****   SET_BIT(USARTx->CR2, USART_CR2_CLKEN);
 982:Drivers/STM32F3xx_HAL_Driver/Inc/stm32f3xx_ll_usart.h **** }
 983:Drivers/STM32F3xx_HAL_Driver/Inc/stm32f3xx_ll_usart.h **** 
 984:Drivers/STM32F3xx_HAL_Driver/Inc/stm32f3xx_ll_usart.h **** /**
 985:Drivers/STM32F3xx_HAL_Driver/Inc/stm32f3xx_ll_usart.h ****   * @brief  Disable Clock output on SCLK pin
 986:Drivers/STM32F3xx_HAL_Driver/Inc/stm32f3xx_ll_usart.h ****   * @note   Macro @ref IS_USART_INSTANCE(USARTx) can be used to check whether or not
 987:Drivers/STM32F3xx_HAL_Driver/Inc/stm32f3xx_ll_usart.h ****   *         Synchronous mode is supported by the USARTx instance.
 988:Drivers/STM32F3xx_HAL_Driver/Inc/stm32f3xx_ll_usart.h ****   * @rmtoll CR2          CLKEN         LL_USART_DisableSCLKOutput
 989:Drivers/STM32F3xx_HAL_Driver/Inc/stm32f3xx_ll_usart.h ****   * @param  USARTx USART Instance
 990:Drivers/STM32F3xx_HAL_Driver/Inc/stm32f3xx_ll_usart.h ****   * @retval None
 991:Drivers/STM32F3xx_HAL_Driver/Inc/stm32f3xx_ll_usart.h ****   */
 992:Drivers/STM32F3xx_HAL_Driver/Inc/stm32f3xx_ll_usart.h **** __STATIC_INLINE void LL_USART_DisableSCLKOutput(USART_TypeDef *USARTx)
 993:Drivers/STM32F3xx_HAL_Driver/Inc/stm32f3xx_ll_usart.h **** {
 305              		.loc 2 993 0
ARM GAS  /tmp/ccc5fm0Q.s 			page 42


 306              		.cfi_startproc
 307              		@ args = 0, pretend = 0, frame = 8
 308              		@ frame_needed = 1, uses_anonymous_args = 0
 309              		@ link register save eliminated.
 310 0000 80B4     		push	{r7}
 311              	.LCFI30:
 312              		.cfi_def_cfa_offset 4
 313              		.cfi_offset 7, -4
 314 0002 83B0     		sub	sp, sp, #12
 315              	.LCFI31:
 316              		.cfi_def_cfa_offset 16
 317 0004 00AF     		add	r7, sp, #0
 318              	.LCFI32:
 319              		.cfi_def_cfa_register 7
 320 0006 7860     		str	r0, [r7, #4]
 994:Drivers/STM32F3xx_HAL_Driver/Inc/stm32f3xx_ll_usart.h ****   CLEAR_BIT(USARTx->CR2, USART_CR2_CLKEN);
 321              		.loc 2 994 0
 322 0008 7B68     		ldr	r3, [r7, #4]
 323 000a 5B68     		ldr	r3, [r3, #4]
 324 000c 23F40062 		bic	r2, r3, #2048
 325 0010 7B68     		ldr	r3, [r7, #4]
 326 0012 5A60     		str	r2, [r3, #4]
 995:Drivers/STM32F3xx_HAL_Driver/Inc/stm32f3xx_ll_usart.h **** }
 327              		.loc 2 995 0
 328 0014 00BF     		nop
 329 0016 0C37     		adds	r7, r7, #12
 330              	.LCFI33:
 331              		.cfi_def_cfa_offset 4
 332 0018 BD46     		mov	sp, r7
 333              	.LCFI34:
 334              		.cfi_def_cfa_register 13
 335              		@ sp needed
 336 001a 5DF8047B 		ldr	r7, [sp], #4
 337              	.LCFI35:
 338              		.cfi_restore 7
 339              		.cfi_def_cfa_offset 0
 340 001e 7047     		bx	lr
 341              		.cfi_endproc
 342              	.LFE517:
 344              		.section	.text.LL_USART_SetStopBitsLength,"ax",%progbits
 345              		.align	1
 346              		.syntax unified
 347              		.thumb
 348              		.thumb_func
 349              		.fpu fpv4-sp-d16
 351              	LL_USART_SetStopBitsLength:
 352              	.LFB519:
 996:Drivers/STM32F3xx_HAL_Driver/Inc/stm32f3xx_ll_usart.h **** 
 997:Drivers/STM32F3xx_HAL_Driver/Inc/stm32f3xx_ll_usart.h **** /**
 998:Drivers/STM32F3xx_HAL_Driver/Inc/stm32f3xx_ll_usart.h ****   * @brief  Indicate if Clock output on SCLK pin is enabled
 999:Drivers/STM32F3xx_HAL_Driver/Inc/stm32f3xx_ll_usart.h ****   * @note   Macro @ref IS_USART_INSTANCE(USARTx) can be used to check whether or not
1000:Drivers/STM32F3xx_HAL_Driver/Inc/stm32f3xx_ll_usart.h ****   *         Synchronous mode is supported by the USARTx instance.
1001:Drivers/STM32F3xx_HAL_Driver/Inc/stm32f3xx_ll_usart.h ****   * @rmtoll CR2          CLKEN         LL_USART_IsEnabledSCLKOutput
1002:Drivers/STM32F3xx_HAL_Driver/Inc/stm32f3xx_ll_usart.h ****   * @param  USARTx USART Instance
1003:Drivers/STM32F3xx_HAL_Driver/Inc/stm32f3xx_ll_usart.h ****   * @retval State of bit (1 or 0).
1004:Drivers/STM32F3xx_HAL_Driver/Inc/stm32f3xx_ll_usart.h ****   */
1005:Drivers/STM32F3xx_HAL_Driver/Inc/stm32f3xx_ll_usart.h **** __STATIC_INLINE uint32_t LL_USART_IsEnabledSCLKOutput(USART_TypeDef *USARTx)
ARM GAS  /tmp/ccc5fm0Q.s 			page 43


1006:Drivers/STM32F3xx_HAL_Driver/Inc/stm32f3xx_ll_usart.h **** {
1007:Drivers/STM32F3xx_HAL_Driver/Inc/stm32f3xx_ll_usart.h ****   return (READ_BIT(USARTx->CR2, USART_CR2_CLKEN) == (USART_CR2_CLKEN));
1008:Drivers/STM32F3xx_HAL_Driver/Inc/stm32f3xx_ll_usart.h **** }
1009:Drivers/STM32F3xx_HAL_Driver/Inc/stm32f3xx_ll_usart.h **** 
1010:Drivers/STM32F3xx_HAL_Driver/Inc/stm32f3xx_ll_usart.h **** /**
1011:Drivers/STM32F3xx_HAL_Driver/Inc/stm32f3xx_ll_usart.h ****   * @brief  Set the length of the stop bits
1012:Drivers/STM32F3xx_HAL_Driver/Inc/stm32f3xx_ll_usart.h ****   * @rmtoll CR2          STOP          LL_USART_SetStopBitsLength
1013:Drivers/STM32F3xx_HAL_Driver/Inc/stm32f3xx_ll_usart.h ****   * @param  USARTx USART Instance
1014:Drivers/STM32F3xx_HAL_Driver/Inc/stm32f3xx_ll_usart.h ****   * @param  StopBits This parameter can be one of the following values:
1015:Drivers/STM32F3xx_HAL_Driver/Inc/stm32f3xx_ll_usart.h ****   *         @arg @ref LL_USART_STOPBITS_0_5
1016:Drivers/STM32F3xx_HAL_Driver/Inc/stm32f3xx_ll_usart.h ****   *         @arg @ref LL_USART_STOPBITS_1
1017:Drivers/STM32F3xx_HAL_Driver/Inc/stm32f3xx_ll_usart.h ****   *         @arg @ref LL_USART_STOPBITS_1_5
1018:Drivers/STM32F3xx_HAL_Driver/Inc/stm32f3xx_ll_usart.h ****   *         @arg @ref LL_USART_STOPBITS_2
1019:Drivers/STM32F3xx_HAL_Driver/Inc/stm32f3xx_ll_usart.h ****   * @retval None
1020:Drivers/STM32F3xx_HAL_Driver/Inc/stm32f3xx_ll_usart.h ****   */
1021:Drivers/STM32F3xx_HAL_Driver/Inc/stm32f3xx_ll_usart.h **** __STATIC_INLINE void LL_USART_SetStopBitsLength(USART_TypeDef *USARTx, uint32_t StopBits)
1022:Drivers/STM32F3xx_HAL_Driver/Inc/stm32f3xx_ll_usart.h **** {
 353              		.loc 2 1022 0
 354              		.cfi_startproc
 355              		@ args = 0, pretend = 0, frame = 8
 356              		@ frame_needed = 1, uses_anonymous_args = 0
 357              		@ link register save eliminated.
 358 0000 80B4     		push	{r7}
 359              	.LCFI36:
 360              		.cfi_def_cfa_offset 4
 361              		.cfi_offset 7, -4
 362 0002 83B0     		sub	sp, sp, #12
 363              	.LCFI37:
 364              		.cfi_def_cfa_offset 16
 365 0004 00AF     		add	r7, sp, #0
 366              	.LCFI38:
 367              		.cfi_def_cfa_register 7
 368 0006 7860     		str	r0, [r7, #4]
 369 0008 3960     		str	r1, [r7]
1023:Drivers/STM32F3xx_HAL_Driver/Inc/stm32f3xx_ll_usart.h ****   MODIFY_REG(USARTx->CR2, USART_CR2_STOP, StopBits);
 370              		.loc 2 1023 0
 371 000a 7B68     		ldr	r3, [r7, #4]
 372 000c 5B68     		ldr	r3, [r3, #4]
 373 000e 23F44052 		bic	r2, r3, #12288
 374 0012 3B68     		ldr	r3, [r7]
 375 0014 1A43     		orrs	r2, r2, r3
 376 0016 7B68     		ldr	r3, [r7, #4]
 377 0018 5A60     		str	r2, [r3, #4]
1024:Drivers/STM32F3xx_HAL_Driver/Inc/stm32f3xx_ll_usart.h **** }
 378              		.loc 2 1024 0
 379 001a 00BF     		nop
 380 001c 0C37     		adds	r7, r7, #12
 381              	.LCFI39:
 382              		.cfi_def_cfa_offset 4
 383 001e BD46     		mov	sp, r7
 384              	.LCFI40:
 385              		.cfi_def_cfa_register 13
 386              		@ sp needed
 387 0020 5DF8047B 		ldr	r7, [sp], #4
 388              	.LCFI41:
 389              		.cfi_restore 7
 390              		.cfi_def_cfa_offset 0
ARM GAS  /tmp/ccc5fm0Q.s 			page 44


 391 0024 7047     		bx	lr
 392              		.cfi_endproc
 393              	.LFE519:
 395              		.section	.text.LL_USART_SetHWFlowCtrl,"ax",%progbits
 396              		.align	1
 397              		.syntax unified
 398              		.thumb
 399              		.thumb_func
 400              		.fpu fpv4-sp-d16
 402              	LL_USART_SetHWFlowCtrl:
 403              	.LFB547:
1025:Drivers/STM32F3xx_HAL_Driver/Inc/stm32f3xx_ll_usart.h **** 
1026:Drivers/STM32F3xx_HAL_Driver/Inc/stm32f3xx_ll_usart.h **** /**
1027:Drivers/STM32F3xx_HAL_Driver/Inc/stm32f3xx_ll_usart.h ****   * @brief  Retrieve the length of the stop bits
1028:Drivers/STM32F3xx_HAL_Driver/Inc/stm32f3xx_ll_usart.h ****   * @rmtoll CR2          STOP          LL_USART_GetStopBitsLength
1029:Drivers/STM32F3xx_HAL_Driver/Inc/stm32f3xx_ll_usart.h ****   * @param  USARTx USART Instance
1030:Drivers/STM32F3xx_HAL_Driver/Inc/stm32f3xx_ll_usart.h ****   * @retval Returned value can be one of the following values:
1031:Drivers/STM32F3xx_HAL_Driver/Inc/stm32f3xx_ll_usart.h ****   *         @arg @ref LL_USART_STOPBITS_0_5
1032:Drivers/STM32F3xx_HAL_Driver/Inc/stm32f3xx_ll_usart.h ****   *         @arg @ref LL_USART_STOPBITS_1
1033:Drivers/STM32F3xx_HAL_Driver/Inc/stm32f3xx_ll_usart.h ****   *         @arg @ref LL_USART_STOPBITS_1_5
1034:Drivers/STM32F3xx_HAL_Driver/Inc/stm32f3xx_ll_usart.h ****   *         @arg @ref LL_USART_STOPBITS_2
1035:Drivers/STM32F3xx_HAL_Driver/Inc/stm32f3xx_ll_usart.h ****   */
1036:Drivers/STM32F3xx_HAL_Driver/Inc/stm32f3xx_ll_usart.h **** __STATIC_INLINE uint32_t LL_USART_GetStopBitsLength(USART_TypeDef *USARTx)
1037:Drivers/STM32F3xx_HAL_Driver/Inc/stm32f3xx_ll_usart.h **** {
1038:Drivers/STM32F3xx_HAL_Driver/Inc/stm32f3xx_ll_usart.h ****   return (uint32_t)(READ_BIT(USARTx->CR2, USART_CR2_STOP));
1039:Drivers/STM32F3xx_HAL_Driver/Inc/stm32f3xx_ll_usart.h **** }
1040:Drivers/STM32F3xx_HAL_Driver/Inc/stm32f3xx_ll_usart.h **** 
1041:Drivers/STM32F3xx_HAL_Driver/Inc/stm32f3xx_ll_usart.h **** /**
1042:Drivers/STM32F3xx_HAL_Driver/Inc/stm32f3xx_ll_usart.h ****   * @brief  Configure Character frame format (Datawidth, Parity control, Stop Bits)
1043:Drivers/STM32F3xx_HAL_Driver/Inc/stm32f3xx_ll_usart.h ****   * @note   Call of this function is equivalent to following function call sequence :
1044:Drivers/STM32F3xx_HAL_Driver/Inc/stm32f3xx_ll_usart.h ****   *         - Data Width configuration using @ref LL_USART_SetDataWidth() function
1045:Drivers/STM32F3xx_HAL_Driver/Inc/stm32f3xx_ll_usart.h ****   *         - Parity Control and mode configuration using @ref LL_USART_SetParity() function
1046:Drivers/STM32F3xx_HAL_Driver/Inc/stm32f3xx_ll_usart.h ****   *         - Stop bits configuration using @ref LL_USART_SetStopBitsLength() function
1047:Drivers/STM32F3xx_HAL_Driver/Inc/stm32f3xx_ll_usart.h ****   * @rmtoll CR1          PS            LL_USART_ConfigCharacter\n
1048:Drivers/STM32F3xx_HAL_Driver/Inc/stm32f3xx_ll_usart.h ****   *         CR1          PCE           LL_USART_ConfigCharacter\n
1049:Drivers/STM32F3xx_HAL_Driver/Inc/stm32f3xx_ll_usart.h ****   *         CR1          M0            LL_USART_ConfigCharacter\n
1050:Drivers/STM32F3xx_HAL_Driver/Inc/stm32f3xx_ll_usart.h ****   *         CR1          M1            LL_USART_ConfigCharacter\n
1051:Drivers/STM32F3xx_HAL_Driver/Inc/stm32f3xx_ll_usart.h ****   *         CR2          STOP          LL_USART_ConfigCharacter
1052:Drivers/STM32F3xx_HAL_Driver/Inc/stm32f3xx_ll_usart.h ****   * @param  USARTx USART Instance
1053:Drivers/STM32F3xx_HAL_Driver/Inc/stm32f3xx_ll_usart.h ****   * @param  DataWidth This parameter can be one of the following values:
1054:Drivers/STM32F3xx_HAL_Driver/Inc/stm32f3xx_ll_usart.h ****   *         @arg @ref LL_USART_DATAWIDTH_7B (*)
1055:Drivers/STM32F3xx_HAL_Driver/Inc/stm32f3xx_ll_usart.h ****   *         @arg @ref LL_USART_DATAWIDTH_8B
1056:Drivers/STM32F3xx_HAL_Driver/Inc/stm32f3xx_ll_usart.h ****   *         @arg @ref LL_USART_DATAWIDTH_9B
1057:Drivers/STM32F3xx_HAL_Driver/Inc/stm32f3xx_ll_usart.h ****   * @param  Parity This parameter can be one of the following values:
1058:Drivers/STM32F3xx_HAL_Driver/Inc/stm32f3xx_ll_usart.h ****   *         @arg @ref LL_USART_PARITY_NONE
1059:Drivers/STM32F3xx_HAL_Driver/Inc/stm32f3xx_ll_usart.h ****   *         @arg @ref LL_USART_PARITY_EVEN
1060:Drivers/STM32F3xx_HAL_Driver/Inc/stm32f3xx_ll_usart.h ****   *         @arg @ref LL_USART_PARITY_ODD
1061:Drivers/STM32F3xx_HAL_Driver/Inc/stm32f3xx_ll_usart.h ****   * @param  StopBits This parameter can be one of the following values:
1062:Drivers/STM32F3xx_HAL_Driver/Inc/stm32f3xx_ll_usart.h ****   *         @arg @ref LL_USART_STOPBITS_0_5
1063:Drivers/STM32F3xx_HAL_Driver/Inc/stm32f3xx_ll_usart.h ****   *         @arg @ref LL_USART_STOPBITS_1
1064:Drivers/STM32F3xx_HAL_Driver/Inc/stm32f3xx_ll_usart.h ****   *         @arg @ref LL_USART_STOPBITS_1_5
1065:Drivers/STM32F3xx_HAL_Driver/Inc/stm32f3xx_ll_usart.h ****   *         @arg @ref LL_USART_STOPBITS_2
1066:Drivers/STM32F3xx_HAL_Driver/Inc/stm32f3xx_ll_usart.h ****   *
1067:Drivers/STM32F3xx_HAL_Driver/Inc/stm32f3xx_ll_usart.h ****   *         (*) Values not available on all devices
1068:Drivers/STM32F3xx_HAL_Driver/Inc/stm32f3xx_ll_usart.h ****   * @retval None
1069:Drivers/STM32F3xx_HAL_Driver/Inc/stm32f3xx_ll_usart.h ****   */
1070:Drivers/STM32F3xx_HAL_Driver/Inc/stm32f3xx_ll_usart.h **** __STATIC_INLINE void LL_USART_ConfigCharacter(USART_TypeDef *USARTx, uint32_t DataWidth, uint32_t P
ARM GAS  /tmp/ccc5fm0Q.s 			page 45


1071:Drivers/STM32F3xx_HAL_Driver/Inc/stm32f3xx_ll_usart.h ****                                               uint32_t StopBits)
1072:Drivers/STM32F3xx_HAL_Driver/Inc/stm32f3xx_ll_usart.h **** {
1073:Drivers/STM32F3xx_HAL_Driver/Inc/stm32f3xx_ll_usart.h ****   MODIFY_REG(USARTx->CR1, USART_CR1_PS | USART_CR1_PCE | USART_CR1_M, Parity | DataWidth);
1074:Drivers/STM32F3xx_HAL_Driver/Inc/stm32f3xx_ll_usart.h ****   MODIFY_REG(USARTx->CR2, USART_CR2_STOP, StopBits);
1075:Drivers/STM32F3xx_HAL_Driver/Inc/stm32f3xx_ll_usart.h **** }
1076:Drivers/STM32F3xx_HAL_Driver/Inc/stm32f3xx_ll_usart.h **** 
1077:Drivers/STM32F3xx_HAL_Driver/Inc/stm32f3xx_ll_usart.h **** /**
1078:Drivers/STM32F3xx_HAL_Driver/Inc/stm32f3xx_ll_usart.h ****   * @brief  Configure TX/RX pins swapping setting.
1079:Drivers/STM32F3xx_HAL_Driver/Inc/stm32f3xx_ll_usart.h ****   * @rmtoll CR2          SWAP          LL_USART_SetTXRXSwap
1080:Drivers/STM32F3xx_HAL_Driver/Inc/stm32f3xx_ll_usart.h ****   * @param  USARTx USART Instance
1081:Drivers/STM32F3xx_HAL_Driver/Inc/stm32f3xx_ll_usart.h ****   * @param  SwapConfig This parameter can be one of the following values:
1082:Drivers/STM32F3xx_HAL_Driver/Inc/stm32f3xx_ll_usart.h ****   *         @arg @ref LL_USART_TXRX_STANDARD
1083:Drivers/STM32F3xx_HAL_Driver/Inc/stm32f3xx_ll_usart.h ****   *         @arg @ref LL_USART_TXRX_SWAPPED
1084:Drivers/STM32F3xx_HAL_Driver/Inc/stm32f3xx_ll_usart.h ****   * @retval None
1085:Drivers/STM32F3xx_HAL_Driver/Inc/stm32f3xx_ll_usart.h ****   */
1086:Drivers/STM32F3xx_HAL_Driver/Inc/stm32f3xx_ll_usart.h **** __STATIC_INLINE void LL_USART_SetTXRXSwap(USART_TypeDef *USARTx, uint32_t SwapConfig)
1087:Drivers/STM32F3xx_HAL_Driver/Inc/stm32f3xx_ll_usart.h **** {
1088:Drivers/STM32F3xx_HAL_Driver/Inc/stm32f3xx_ll_usart.h ****   MODIFY_REG(USARTx->CR2, USART_CR2_SWAP, SwapConfig);
1089:Drivers/STM32F3xx_HAL_Driver/Inc/stm32f3xx_ll_usart.h **** }
1090:Drivers/STM32F3xx_HAL_Driver/Inc/stm32f3xx_ll_usart.h **** 
1091:Drivers/STM32F3xx_HAL_Driver/Inc/stm32f3xx_ll_usart.h **** /**
1092:Drivers/STM32F3xx_HAL_Driver/Inc/stm32f3xx_ll_usart.h ****   * @brief  Retrieve TX/RX pins swapping configuration.
1093:Drivers/STM32F3xx_HAL_Driver/Inc/stm32f3xx_ll_usart.h ****   * @rmtoll CR2          SWAP          LL_USART_GetTXRXSwap
1094:Drivers/STM32F3xx_HAL_Driver/Inc/stm32f3xx_ll_usart.h ****   * @param  USARTx USART Instance
1095:Drivers/STM32F3xx_HAL_Driver/Inc/stm32f3xx_ll_usart.h ****   * @retval Returned value can be one of the following values:
1096:Drivers/STM32F3xx_HAL_Driver/Inc/stm32f3xx_ll_usart.h ****   *         @arg @ref LL_USART_TXRX_STANDARD
1097:Drivers/STM32F3xx_HAL_Driver/Inc/stm32f3xx_ll_usart.h ****   *         @arg @ref LL_USART_TXRX_SWAPPED
1098:Drivers/STM32F3xx_HAL_Driver/Inc/stm32f3xx_ll_usart.h ****   */
1099:Drivers/STM32F3xx_HAL_Driver/Inc/stm32f3xx_ll_usart.h **** __STATIC_INLINE uint32_t LL_USART_GetTXRXSwap(USART_TypeDef *USARTx)
1100:Drivers/STM32F3xx_HAL_Driver/Inc/stm32f3xx_ll_usart.h **** {
1101:Drivers/STM32F3xx_HAL_Driver/Inc/stm32f3xx_ll_usart.h ****   return (uint32_t)(READ_BIT(USARTx->CR2, USART_CR2_SWAP));
1102:Drivers/STM32F3xx_HAL_Driver/Inc/stm32f3xx_ll_usart.h **** }
1103:Drivers/STM32F3xx_HAL_Driver/Inc/stm32f3xx_ll_usart.h **** 
1104:Drivers/STM32F3xx_HAL_Driver/Inc/stm32f3xx_ll_usart.h **** /**
1105:Drivers/STM32F3xx_HAL_Driver/Inc/stm32f3xx_ll_usart.h ****   * @brief  Configure RX pin active level logic
1106:Drivers/STM32F3xx_HAL_Driver/Inc/stm32f3xx_ll_usart.h ****   * @rmtoll CR2          RXINV         LL_USART_SetRXPinLevel
1107:Drivers/STM32F3xx_HAL_Driver/Inc/stm32f3xx_ll_usart.h ****   * @param  USARTx USART Instance
1108:Drivers/STM32F3xx_HAL_Driver/Inc/stm32f3xx_ll_usart.h ****   * @param  PinInvMethod This parameter can be one of the following values:
1109:Drivers/STM32F3xx_HAL_Driver/Inc/stm32f3xx_ll_usart.h ****   *         @arg @ref LL_USART_RXPIN_LEVEL_STANDARD
1110:Drivers/STM32F3xx_HAL_Driver/Inc/stm32f3xx_ll_usart.h ****   *         @arg @ref LL_USART_RXPIN_LEVEL_INVERTED
1111:Drivers/STM32F3xx_HAL_Driver/Inc/stm32f3xx_ll_usart.h ****   * @retval None
1112:Drivers/STM32F3xx_HAL_Driver/Inc/stm32f3xx_ll_usart.h ****   */
1113:Drivers/STM32F3xx_HAL_Driver/Inc/stm32f3xx_ll_usart.h **** __STATIC_INLINE void LL_USART_SetRXPinLevel(USART_TypeDef *USARTx, uint32_t PinInvMethod)
1114:Drivers/STM32F3xx_HAL_Driver/Inc/stm32f3xx_ll_usart.h **** {
1115:Drivers/STM32F3xx_HAL_Driver/Inc/stm32f3xx_ll_usart.h ****   MODIFY_REG(USARTx->CR2, USART_CR2_RXINV, PinInvMethod);
1116:Drivers/STM32F3xx_HAL_Driver/Inc/stm32f3xx_ll_usart.h **** }
1117:Drivers/STM32F3xx_HAL_Driver/Inc/stm32f3xx_ll_usart.h **** 
1118:Drivers/STM32F3xx_HAL_Driver/Inc/stm32f3xx_ll_usart.h **** /**
1119:Drivers/STM32F3xx_HAL_Driver/Inc/stm32f3xx_ll_usart.h ****   * @brief  Retrieve RX pin active level logic configuration
1120:Drivers/STM32F3xx_HAL_Driver/Inc/stm32f3xx_ll_usart.h ****   * @rmtoll CR2          RXINV         LL_USART_GetRXPinLevel
1121:Drivers/STM32F3xx_HAL_Driver/Inc/stm32f3xx_ll_usart.h ****   * @param  USARTx USART Instance
1122:Drivers/STM32F3xx_HAL_Driver/Inc/stm32f3xx_ll_usart.h ****   * @retval Returned value can be one of the following values:
1123:Drivers/STM32F3xx_HAL_Driver/Inc/stm32f3xx_ll_usart.h ****   *         @arg @ref LL_USART_RXPIN_LEVEL_STANDARD
1124:Drivers/STM32F3xx_HAL_Driver/Inc/stm32f3xx_ll_usart.h ****   *         @arg @ref LL_USART_RXPIN_LEVEL_INVERTED
1125:Drivers/STM32F3xx_HAL_Driver/Inc/stm32f3xx_ll_usart.h ****   */
1126:Drivers/STM32F3xx_HAL_Driver/Inc/stm32f3xx_ll_usart.h **** __STATIC_INLINE uint32_t LL_USART_GetRXPinLevel(USART_TypeDef *USARTx)
1127:Drivers/STM32F3xx_HAL_Driver/Inc/stm32f3xx_ll_usart.h **** {
ARM GAS  /tmp/ccc5fm0Q.s 			page 46


1128:Drivers/STM32F3xx_HAL_Driver/Inc/stm32f3xx_ll_usart.h ****   return (uint32_t)(READ_BIT(USARTx->CR2, USART_CR2_RXINV));
1129:Drivers/STM32F3xx_HAL_Driver/Inc/stm32f3xx_ll_usart.h **** }
1130:Drivers/STM32F3xx_HAL_Driver/Inc/stm32f3xx_ll_usart.h **** 
1131:Drivers/STM32F3xx_HAL_Driver/Inc/stm32f3xx_ll_usart.h **** /**
1132:Drivers/STM32F3xx_HAL_Driver/Inc/stm32f3xx_ll_usart.h ****   * @brief  Configure TX pin active level logic
1133:Drivers/STM32F3xx_HAL_Driver/Inc/stm32f3xx_ll_usart.h ****   * @rmtoll CR2          TXINV         LL_USART_SetTXPinLevel
1134:Drivers/STM32F3xx_HAL_Driver/Inc/stm32f3xx_ll_usart.h ****   * @param  USARTx USART Instance
1135:Drivers/STM32F3xx_HAL_Driver/Inc/stm32f3xx_ll_usart.h ****   * @param  PinInvMethod This parameter can be one of the following values:
1136:Drivers/STM32F3xx_HAL_Driver/Inc/stm32f3xx_ll_usart.h ****   *         @arg @ref LL_USART_TXPIN_LEVEL_STANDARD
1137:Drivers/STM32F3xx_HAL_Driver/Inc/stm32f3xx_ll_usart.h ****   *         @arg @ref LL_USART_TXPIN_LEVEL_INVERTED
1138:Drivers/STM32F3xx_HAL_Driver/Inc/stm32f3xx_ll_usart.h ****   * @retval None
1139:Drivers/STM32F3xx_HAL_Driver/Inc/stm32f3xx_ll_usart.h ****   */
1140:Drivers/STM32F3xx_HAL_Driver/Inc/stm32f3xx_ll_usart.h **** __STATIC_INLINE void LL_USART_SetTXPinLevel(USART_TypeDef *USARTx, uint32_t PinInvMethod)
1141:Drivers/STM32F3xx_HAL_Driver/Inc/stm32f3xx_ll_usart.h **** {
1142:Drivers/STM32F3xx_HAL_Driver/Inc/stm32f3xx_ll_usart.h ****   MODIFY_REG(USARTx->CR2, USART_CR2_TXINV, PinInvMethod);
1143:Drivers/STM32F3xx_HAL_Driver/Inc/stm32f3xx_ll_usart.h **** }
1144:Drivers/STM32F3xx_HAL_Driver/Inc/stm32f3xx_ll_usart.h **** 
1145:Drivers/STM32F3xx_HAL_Driver/Inc/stm32f3xx_ll_usart.h **** /**
1146:Drivers/STM32F3xx_HAL_Driver/Inc/stm32f3xx_ll_usart.h ****   * @brief  Retrieve TX pin active level logic configuration
1147:Drivers/STM32F3xx_HAL_Driver/Inc/stm32f3xx_ll_usart.h ****   * @rmtoll CR2          TXINV         LL_USART_GetTXPinLevel
1148:Drivers/STM32F3xx_HAL_Driver/Inc/stm32f3xx_ll_usart.h ****   * @param  USARTx USART Instance
1149:Drivers/STM32F3xx_HAL_Driver/Inc/stm32f3xx_ll_usart.h ****   * @retval Returned value can be one of the following values:
